ARM GAS  C:\Users\COSMIN~1.MAR\AppData\Local\Temp\cctCMzVM.s 			page 1


   1              		.syntax unified
   2              		.cpu cortex-m3
   3              		.fpu softvfp
   4              		.eabi_attribute 20, 1	@ Tag_ABI_FP_denormal
   5              		.eabi_attribute 21, 1	@ Tag_ABI_FP_exceptions
   6              		.eabi_attribute 23, 3	@ Tag_ABI_FP_number_model
   7              		.eabi_attribute 24, 1	@ Tag_ABI_align8_needed
   8              		.eabi_attribute 25, 1	@ Tag_ABI_align8_preserved
   9              		.eabi_attribute 26, 1	@ Tag_ABI_enum_size
  10              		.eabi_attribute 30, 6	@ Tag_ABI_optimization_goals
  11              		.eabi_attribute 34, 1	@ Tag_CPU_unaligned_access
  12              		.eabi_attribute 18, 4	@ Tag_ABI_PCS_wchar_t
  13              		.file	"croutine.c"
  14              	@ GNU C (GNU Tools for ARM Embedded Processors) version 4.9.3 20150303 (release) [ARM/embedded-4_9-
  15              	@	compiled by GNU C version 4.7.4, GMP version 4.3.2, MPFR version 2.4.2, MPC version 0.8.1
  16              	@ GGC heuristics: --param ggc-min-expand=100 --param ggc-min-heapsize=131072
  17              	@ options passed:  -I . -I config -I system -I core -I drivers -I FreeRTOS
  18              	@ -I FreeRTOS/include -I FreeRTOS/portable/GCC/ARM_CM3 -I FreeRTOS/portable
  19              	@ -I tasks/rc_task_leds -I tasks/rc_task_pot -I modules/rc_leds
  20              	@ -I modules/rc_pot -I drivers/rc_system -I drivers/rc_gpio
  21              	@ -I drivers/rc_uart -I drivers/rc_pinsel -I drivers/rc_timer
  22              	@ -I drivers/rc_adc -imultilib armv7-m
  23              	@ -iprefix c:\gnu tools arm embedded\4.9 2015q1\bin\../lib/gcc/arm-none-eabi/4.9.3/
  24              	@ -isysroot c:\gnu tools arm embedded\4.9 2015q1\bin\../arm-none-eabi
  25              	@ -MD out/croutine.d -MF out/croutine.d -MP -MQ out/croutine.o
  26              	@ -D__USES_INITFINI__ FreeRTOS/croutine.c -mcpu=cortex-m3 -mthumb
  27              	@ -auxbase-strip out/croutine.o -g -ggdb3 -O0 -Wall -Wstrict-prototypes
  28              	@ -Wextra -std=gnu90 -ffunction-sections -fdata-sections -fverbose-asm
  29              	@ options enabled:  -faggressive-loop-optimizations -fauto-inc-dec -fcommon
  30              	@ -fdata-sections -fdelete-null-pointer-checks -fdwarf2-cfi-asm
  31              	@ -fearly-inlining -feliminate-unused-debug-types -ffunction-cse
  32              	@ -ffunction-sections -fgcse-lm -fgnu-runtime -fgnu-unique -fident
  33              	@ -finline-atomics -fira-hoist-pressure -fira-share-save-slots
  34              	@ -fira-share-spill-slots -fivopts -fkeep-static-consts
  35              	@ -fleading-underscore -flifetime-dse -fmath-errno -fmerge-debug-strings
  36              	@ -fpeephole -fprefetch-loop-arrays -freg-struct-return
  37              	@ -fsched-critical-path-heuristic -fsched-dep-count-heuristic
  38              	@ -fsched-group-heuristic -fsched-interblock -fsched-last-insn-heuristic
  39              	@ -fsched-rank-heuristic -fsched-spec -fsched-spec-insn-heuristic
  40              	@ -fsched-stalled-insns-dep -fshow-column -fsigned-zeros
  41              	@ -fsplit-ivs-in-unroller -fstrict-volatile-bitfields -fsync-libcalls
  42              	@ -ftrapping-math -ftree-coalesce-vars -ftree-cselim -ftree-forwprop
  43              	@ -ftree-loop-if-convert -ftree-loop-im -ftree-loop-ivcanon
  44              	@ -ftree-loop-optimize -ftree-parallelize-loops= -ftree-phiprop
  45              	@ -ftree-reassoc -ftree-scev-cprop -funit-at-a-time -fverbose-asm
  46              	@ -fzero-initialized-in-bss -mfix-cortex-m3-ldrd -mlittle-endian -mlra
  47              	@ -mpic-data-is-text-relative -msched-prolog -mthumb -munaligned-access
  48              	@ -mvectorize-with-neon-quad
  49              	
  50              		.text
  51              	.Ltext0:
  52              		.cfi_sections	.debug_frame
  53              		.section	.bss.pxReadyCoRoutineLists,"aw",%nobits
  54              		.align	2
  55              		.type	pxReadyCoRoutineLists, %object
  56              		.size	pxReadyCoRoutineLists, 40
  57              	pxReadyCoRoutineLists:
ARM GAS  C:\Users\COSMIN~1.MAR\AppData\Local\Temp\cctCMzVM.s 			page 2


  58 0000 00000000 		.space	40
  58      00000000 
  58      00000000 
  58      00000000 
  58      00000000 
  59              		.section	.bss.xDelayedCoRoutineList1,"aw",%nobits
  60              		.align	2
  61              		.type	xDelayedCoRoutineList1, %object
  62              		.size	xDelayedCoRoutineList1, 20
  63              	xDelayedCoRoutineList1:
  64 0000 00000000 		.space	20
  64      00000000 
  64      00000000 
  64      00000000 
  64      00000000 
  65              		.section	.bss.xDelayedCoRoutineList2,"aw",%nobits
  66              		.align	2
  67              		.type	xDelayedCoRoutineList2, %object
  68              		.size	xDelayedCoRoutineList2, 20
  69              	xDelayedCoRoutineList2:
  70 0000 00000000 		.space	20
  70      00000000 
  70      00000000 
  70      00000000 
  70      00000000 
  71              		.section	.bss.pxDelayedCoRoutineList,"aw",%nobits
  72              		.align	2
  73              		.type	pxDelayedCoRoutineList, %object
  74              		.size	pxDelayedCoRoutineList, 4
  75              	pxDelayedCoRoutineList:
  76 0000 00000000 		.space	4
  77              		.section	.bss.pxOverflowDelayedCoRoutineList,"aw",%nobits
  78              		.align	2
  79              		.type	pxOverflowDelayedCoRoutineList, %object
  80              		.size	pxOverflowDelayedCoRoutineList, 4
  81              	pxOverflowDelayedCoRoutineList:
  82 0000 00000000 		.space	4
  83              		.section	.bss.xPendingReadyCoRoutineList,"aw",%nobits
  84              		.align	2
  85              		.type	xPendingReadyCoRoutineList, %object
  86              		.size	xPendingReadyCoRoutineList, 20
  87              	xPendingReadyCoRoutineList:
  88 0000 00000000 		.space	20
  88      00000000 
  88      00000000 
  88      00000000 
  88      00000000 
  89              		.global	pxCurrentCoRoutine
  90              		.section	.bss.pxCurrentCoRoutine,"aw",%nobits
  91              		.align	2
  92              		.type	pxCurrentCoRoutine, %object
  93              		.size	pxCurrentCoRoutine, 4
  94              	pxCurrentCoRoutine:
  95 0000 00000000 		.space	4
  96              		.section	.bss.uxTopCoRoutineReadyPriority,"aw",%nobits
  97              		.align	2
  98              		.type	uxTopCoRoutineReadyPriority, %object
ARM GAS  C:\Users\COSMIN~1.MAR\AppData\Local\Temp\cctCMzVM.s 			page 3


  99              		.size	uxTopCoRoutineReadyPriority, 4
 100              	uxTopCoRoutineReadyPriority:
 101 0000 00000000 		.space	4
 102              		.section	.bss.xCoRoutineTickCount,"aw",%nobits
 103              		.align	2
 104              		.type	xCoRoutineTickCount, %object
 105              		.size	xCoRoutineTickCount, 4
 106              	xCoRoutineTickCount:
 107 0000 00000000 		.space	4
 108              		.section	.bss.xLastTickCount,"aw",%nobits
 109              		.align	2
 110              		.type	xLastTickCount, %object
 111              		.size	xLastTickCount, 4
 112              	xLastTickCount:
 113 0000 00000000 		.space	4
 114              		.section	.bss.xPassedTicks,"aw",%nobits
 115              		.align	2
 116              		.type	xPassedTicks, %object
 117              		.size	xPassedTicks, 4
 118              	xPassedTicks:
 119 0000 00000000 		.space	4
 120              		.section	.text.xCoRoutineCreate,"ax",%progbits
 121              		.align	2
 122              		.global	xCoRoutineCreate
 123              		.thumb
 124              		.thumb_func
 125              		.type	xCoRoutineCreate, %function
 126              	xCoRoutineCreate:
 127              	.LFB1:
 128              		.file 1 "FreeRTOS/croutine.c"
   1:FreeRTOS/croutine.c **** /*
   2:FreeRTOS/croutine.c ****     FreeRTOS V8.1.2 - Copyright (C) 2014 Real Time Engineers Ltd.
   3:FreeRTOS/croutine.c ****     All rights reserved
   4:FreeRTOS/croutine.c **** 
   5:FreeRTOS/croutine.c ****     VISIT http://www.FreeRTOS.org TO ENSURE YOU ARE USING THE LATEST VERSION.
   6:FreeRTOS/croutine.c **** 
   7:FreeRTOS/croutine.c ****     ***************************************************************************
   8:FreeRTOS/croutine.c ****      *                                                                       *
   9:FreeRTOS/croutine.c ****      *    FreeRTOS provides completely free yet professionally developed,    *
  10:FreeRTOS/croutine.c ****      *    robust, strictly quality controlled, supported, and cross          *
  11:FreeRTOS/croutine.c ****      *    platform software that has become a de facto standard.             *
  12:FreeRTOS/croutine.c ****      *                                                                       *
  13:FreeRTOS/croutine.c ****      *    Help yourself get started quickly and support the FreeRTOS         *
  14:FreeRTOS/croutine.c ****      *    project by purchasing a FreeRTOS tutorial book, reference          *
  15:FreeRTOS/croutine.c ****      *    manual, or both from: http://www.FreeRTOS.org/Documentation        *
  16:FreeRTOS/croutine.c ****      *                                                                       *
  17:FreeRTOS/croutine.c ****      *    Thank you!                                                         *
  18:FreeRTOS/croutine.c ****      *                                                                       *
  19:FreeRTOS/croutine.c ****     ***************************************************************************
  20:FreeRTOS/croutine.c **** 
  21:FreeRTOS/croutine.c ****     This file is part of the FreeRTOS distribution.
  22:FreeRTOS/croutine.c **** 
  23:FreeRTOS/croutine.c ****     FreeRTOS is free software; you can redistribute it and/or modify it under
  24:FreeRTOS/croutine.c ****     the terms of the GNU General Public License (version 2) as published by the
  25:FreeRTOS/croutine.c ****     Free Software Foundation >>!AND MODIFIED BY!<< the FreeRTOS exception.
  26:FreeRTOS/croutine.c **** 
  27:FreeRTOS/croutine.c ****     >>!   NOTE: The modification to the GPL is included to allow you to     !<<
ARM GAS  C:\Users\COSMIN~1.MAR\AppData\Local\Temp\cctCMzVM.s 			page 4


  28:FreeRTOS/croutine.c ****     >>!   distribute a combined work that includes FreeRTOS without being   !<<
  29:FreeRTOS/croutine.c ****     >>!   obliged to provide the source code for proprietary components     !<<
  30:FreeRTOS/croutine.c ****     >>!   outside of the FreeRTOS kernel.                                   !<<
  31:FreeRTOS/croutine.c **** 
  32:FreeRTOS/croutine.c ****     FreeRTOS is distributed in the hope that it will be useful, but WITHOUT ANY
  33:FreeRTOS/croutine.c ****     WARRANTY; without even the implied warranty of MERCHANTABILITY or FITNESS
  34:FreeRTOS/croutine.c ****     FOR A PARTICULAR PURPOSE.  Full license text is available from the following
  35:FreeRTOS/croutine.c ****     link: http://www.freertos.org/a00114.html
  36:FreeRTOS/croutine.c **** 
  37:FreeRTOS/croutine.c ****     1 tab == 4 spaces!
  38:FreeRTOS/croutine.c **** 
  39:FreeRTOS/croutine.c ****     ***************************************************************************
  40:FreeRTOS/croutine.c ****      *                                                                       *
  41:FreeRTOS/croutine.c ****      *    Having a problem?  Start by reading the FAQ "My application does   *
  42:FreeRTOS/croutine.c ****      *    not run, what could be wrong?"                                     *
  43:FreeRTOS/croutine.c ****      *                                                                       *
  44:FreeRTOS/croutine.c ****      *    http://www.FreeRTOS.org/FAQHelp.html                               *
  45:FreeRTOS/croutine.c ****      *                                                                       *
  46:FreeRTOS/croutine.c ****     ***************************************************************************
  47:FreeRTOS/croutine.c **** 
  48:FreeRTOS/croutine.c ****     http://www.FreeRTOS.org - Documentation, books, training, latest versions,
  49:FreeRTOS/croutine.c ****     license and Real Time Engineers Ltd. contact details.
  50:FreeRTOS/croutine.c **** 
  51:FreeRTOS/croutine.c ****     http://www.FreeRTOS.org/plus - A selection of FreeRTOS ecosystem products,
  52:FreeRTOS/croutine.c ****     including FreeRTOS+Trace - an indispensable productivity tool, a DOS
  53:FreeRTOS/croutine.c ****     compatible FAT file system, and our tiny thread aware UDP/IP stack.
  54:FreeRTOS/croutine.c **** 
  55:FreeRTOS/croutine.c ****     http://www.OpenRTOS.com - Real Time Engineers ltd license FreeRTOS to High
  56:FreeRTOS/croutine.c ****     Integrity Systems to sell under the OpenRTOS brand.  Low cost OpenRTOS
  57:FreeRTOS/croutine.c ****     licenses offer ticketed support, indemnification and middleware.
  58:FreeRTOS/croutine.c **** 
  59:FreeRTOS/croutine.c ****     http://www.SafeRTOS.com - High Integrity Systems also provide a safety
  60:FreeRTOS/croutine.c ****     engineered and independently SIL3 certified version for use in safety and
  61:FreeRTOS/croutine.c ****     mission critical applications that require provable dependability.
  62:FreeRTOS/croutine.c **** 
  63:FreeRTOS/croutine.c ****     1 tab == 4 spaces!
  64:FreeRTOS/croutine.c **** */
  65:FreeRTOS/croutine.c **** 
  66:FreeRTOS/croutine.c **** #include "FreeRTOS.h"
  67:FreeRTOS/croutine.c **** #include "task.h"
  68:FreeRTOS/croutine.c **** #include "croutine.h"
  69:FreeRTOS/croutine.c **** 
  70:FreeRTOS/croutine.c **** /*
  71:FreeRTOS/croutine.c ****  * Some kernel aware debuggers require data to be viewed to be global, rather
  72:FreeRTOS/croutine.c ****  * than file scope.
  73:FreeRTOS/croutine.c ****  */
  74:FreeRTOS/croutine.c **** #ifdef portREMOVE_STATIC_QUALIFIER
  75:FreeRTOS/croutine.c **** 	#define static
  76:FreeRTOS/croutine.c **** #endif
  77:FreeRTOS/croutine.c **** 
  78:FreeRTOS/croutine.c **** 
  79:FreeRTOS/croutine.c **** /* Lists for ready and blocked co-routines. --------------------*/
  80:FreeRTOS/croutine.c **** static List_t pxReadyCoRoutineLists[ configMAX_CO_ROUTINE_PRIORITIES ];	/*< Prioritised ready co-ro
  81:FreeRTOS/croutine.c **** static List_t xDelayedCoRoutineList1;									/*< Delayed co-routines. */
  82:FreeRTOS/croutine.c **** static List_t xDelayedCoRoutineList2;									/*< Delayed co-routines (two lists are used - one for
  83:FreeRTOS/croutine.c **** static List_t * pxDelayedCoRoutineList;									/*< Points to the delayed co-routine list currently
  84:FreeRTOS/croutine.c **** static List_t * pxOverflowDelayedCoRoutineList;							/*< Points to the delayed co-routine list cur
ARM GAS  C:\Users\COSMIN~1.MAR\AppData\Local\Temp\cctCMzVM.s 			page 5


  85:FreeRTOS/croutine.c **** static List_t xPendingReadyCoRoutineList;								/*< Holds co-routines that have been readied by an
  86:FreeRTOS/croutine.c **** 
  87:FreeRTOS/croutine.c **** /* Other file private variables. --------------------------------*/
  88:FreeRTOS/croutine.c **** CRCB_t * pxCurrentCoRoutine = NULL;
  89:FreeRTOS/croutine.c **** static UBaseT_t uxTopCoRoutineReadyPriority = 0;
  90:FreeRTOS/croutine.c **** static TickT_t xCoRoutineTickCount = 0, xLastTickCount = 0, xPassedTicks = 0;
  91:FreeRTOS/croutine.c **** 
  92:FreeRTOS/croutine.c **** /* The initial state of the co-routine when it is created. */
  93:FreeRTOS/croutine.c **** #define corINITIAL_STATE	( 0 )
  94:FreeRTOS/croutine.c **** 
  95:FreeRTOS/croutine.c **** /*
  96:FreeRTOS/croutine.c ****  * Place the co-routine represented by pxCRCB into the appropriate ready queue
  97:FreeRTOS/croutine.c ****  * for the priority.  It is inserted at the end of the list.
  98:FreeRTOS/croutine.c ****  *
  99:FreeRTOS/croutine.c ****  * This macro accesses the co-routine ready lists and therefore must not be
 100:FreeRTOS/croutine.c ****  * used from within an ISR.
 101:FreeRTOS/croutine.c ****  */
 102:FreeRTOS/croutine.c **** #define prvAddCoRoutineToReadyQueue( pxCRCB )																		\
 103:FreeRTOS/croutine.c **** {																													\
 104:FreeRTOS/croutine.c **** 	if( pxCRCB->uxPriority > uxTopCoRoutineReadyPriority )															\
 105:FreeRTOS/croutine.c **** 	{																												\
 106:FreeRTOS/croutine.c **** 		uxTopCoRoutineReadyPriority = pxCRCB->uxPriority;															\
 107:FreeRTOS/croutine.c **** 	}																												\
 108:FreeRTOS/croutine.c **** 	vListInsertEnd( ( List_t * ) &( pxReadyCoRoutineLists[ pxCRCB->uxPriority ] ), &( pxCRCB->xGeneric
 109:FreeRTOS/croutine.c **** }
 110:FreeRTOS/croutine.c **** 
 111:FreeRTOS/croutine.c **** /*
 112:FreeRTOS/croutine.c ****  * Utility to ready all the lists used by the scheduler.  This is called
 113:FreeRTOS/croutine.c ****  * automatically upon the creation of the first co-routine.
 114:FreeRTOS/croutine.c ****  */
 115:FreeRTOS/croutine.c **** static void prvInitialiseCoRoutineLists( void );
 116:FreeRTOS/croutine.c **** 
 117:FreeRTOS/croutine.c **** /*
 118:FreeRTOS/croutine.c ****  * Co-routines that are readied by an interrupt cannot be placed directly into
 119:FreeRTOS/croutine.c ****  * the ready lists (there is no mutual exclusion).  Instead they are placed in
 120:FreeRTOS/croutine.c ****  * in the pending ready list in order that they can later be moved to the ready
 121:FreeRTOS/croutine.c ****  * list by the co-routine scheduler.
 122:FreeRTOS/croutine.c ****  */
 123:FreeRTOS/croutine.c **** static void prvCheckPendingReadyList( void );
 124:FreeRTOS/croutine.c **** 
 125:FreeRTOS/croutine.c **** /*
 126:FreeRTOS/croutine.c ****  * Macro that looks at the list of co-routines that are currently delayed to
 127:FreeRTOS/croutine.c ****  * see if any require waking.
 128:FreeRTOS/croutine.c ****  *
 129:FreeRTOS/croutine.c ****  * Co-routines are stored in the queue in the order of their wake time -
 130:FreeRTOS/croutine.c ****  * meaning once one co-routine has been found whose timer has not expired
 131:FreeRTOS/croutine.c ****  * we need not look any further down the list.
 132:FreeRTOS/croutine.c ****  */
 133:FreeRTOS/croutine.c **** static void prvCheckDelayedList( void );
 134:FreeRTOS/croutine.c **** 
 135:FreeRTOS/croutine.c **** /*-----------------------------------------------------------*/
 136:FreeRTOS/croutine.c **** 
 137:FreeRTOS/croutine.c **** BaseT_t xCoRoutineCreate( crCOROUTINE_CODE pxCoRoutineCode, UBaseT_t uxPriority, UBaseT_t uxIndex )
 138:FreeRTOS/croutine.c **** {
 129              		.loc 1 138 0
 130              		.cfi_startproc
 131              		@ args = 0, pretend = 0, frame = 24
ARM GAS  C:\Users\COSMIN~1.MAR\AppData\Local\Temp\cctCMzVM.s 			page 6


 132              		@ frame_needed = 1, uses_anonymous_args = 0
 133 0000 80B5     		push	{r7, lr}	@
 134              		.cfi_def_cfa_offset 8
 135              		.cfi_offset 7, -8
 136              		.cfi_offset 14, -4
 137 0002 86B0     		sub	sp, sp, #24	@,,
 138              		.cfi_def_cfa_offset 32
 139 0004 00AF     		add	r7, sp, #0	@,,
 140              		.cfi_def_cfa_register 7
 141 0006 F860     		str	r0, [r7, #12]	@ pxCoRoutineCode, pxCoRoutineCode
 142 0008 B960     		str	r1, [r7, #8]	@ uxPriority, uxPriority
 143 000a 7A60     		str	r2, [r7, #4]	@ uxIndex, uxIndex
 139:FreeRTOS/croutine.c **** BaseT_t xReturn;
 140:FreeRTOS/croutine.c **** CRCB_t *pxCoRoutine;
 141:FreeRTOS/croutine.c **** 
 142:FreeRTOS/croutine.c **** 	/* Allocate the memory that will store the co-routine control block. */
 143:FreeRTOS/croutine.c **** 	pxCoRoutine = ( CRCB_t * ) pvPortMalloc( sizeof( CRCB_t ) );
 144              		.loc 1 143 0
 145 000c 3820     		movs	r0, #56	@,
 146 000e FFF7FEFF 		bl	pvPortMalloc	@
 147 0012 3861     		str	r0, [r7, #16]	@, pxCoRoutine
 144:FreeRTOS/croutine.c **** 	if( pxCoRoutine )
 148              		.loc 1 144 0
 149 0014 3B69     		ldr	r3, [r7, #16]	@ tmp122, pxCoRoutine
 150 0016 002B     		cmp	r3, #0	@ tmp122,
 151 0018 49D0     		beq	.L2	@,
 145:FreeRTOS/croutine.c **** 	{
 146:FreeRTOS/croutine.c **** 		/* If pxCurrentCoRoutine is NULL then this is the first co-routine to
 147:FreeRTOS/croutine.c **** 		be created and the co-routine data structures need initialising. */
 148:FreeRTOS/croutine.c **** 		if( pxCurrentCoRoutine == NULL )
 152              		.loc 1 148 0
 153 001a 294B     		ldr	r3, .L8	@ tmp123,
 154 001c 1B68     		ldr	r3, [r3]	@ D.4579, pxCurrentCoRoutine
 155 001e 002B     		cmp	r3, #0	@ D.4579,
 156 0020 04D1     		bne	.L3	@,
 149:FreeRTOS/croutine.c **** 		{
 150:FreeRTOS/croutine.c **** 			pxCurrentCoRoutine = pxCoRoutine;
 157              		.loc 1 150 0
 158 0022 274A     		ldr	r2, .L8	@ tmp124,
 159 0024 3B69     		ldr	r3, [r7, #16]	@ tmp125, pxCoRoutine
 160 0026 1360     		str	r3, [r2]	@ tmp125, pxCurrentCoRoutine
 151:FreeRTOS/croutine.c **** 			prvInitialiseCoRoutineLists();
 161              		.loc 1 151 0
 162 0028 FFF7FEFF 		bl	prvInitialiseCoRoutineLists	@
 163              	.L3:
 152:FreeRTOS/croutine.c **** 		}
 153:FreeRTOS/croutine.c **** 
 154:FreeRTOS/croutine.c **** 		/* Check the priority is within limits. */
 155:FreeRTOS/croutine.c **** 		if( uxPriority >= configMAX_CO_ROUTINE_PRIORITIES )
 164              		.loc 1 155 0
 165 002c BB68     		ldr	r3, [r7, #8]	@ tmp126, uxPriority
 166 002e 012B     		cmp	r3, #1	@ tmp126,
 167 0030 01D9     		bls	.L4	@,
 156:FreeRTOS/croutine.c **** 		{
 157:FreeRTOS/croutine.c **** 			uxPriority = configMAX_CO_ROUTINE_PRIORITIES - 1;
 168              		.loc 1 157 0
 169 0032 0123     		movs	r3, #1	@ tmp127,
ARM GAS  C:\Users\COSMIN~1.MAR\AppData\Local\Temp\cctCMzVM.s 			page 7


 170 0034 BB60     		str	r3, [r7, #8]	@ tmp127, uxPriority
 171              	.L4:
 158:FreeRTOS/croutine.c **** 		}
 159:FreeRTOS/croutine.c **** 
 160:FreeRTOS/croutine.c **** 		/* Fill out the co-routine control block from the function parameters. */
 161:FreeRTOS/croutine.c **** 		pxCoRoutine->uxState = corINITIAL_STATE;
 172              		.loc 1 161 0
 173 0036 3B69     		ldr	r3, [r7, #16]	@ tmp128, pxCoRoutine
 174 0038 0022     		movs	r2, #0	@ tmp130,
 175 003a 9A86     		strh	r2, [r3, #52]	@ movhi	@ tmp129, pxCoRoutine_3->uxState
 162:FreeRTOS/croutine.c **** 		pxCoRoutine->uxPriority = uxPriority;
 176              		.loc 1 162 0
 177 003c 3B69     		ldr	r3, [r7, #16]	@ tmp131, pxCoRoutine
 178 003e BA68     		ldr	r2, [r7, #8]	@ tmp132, uxPriority
 179 0040 DA62     		str	r2, [r3, #44]	@ tmp132, pxCoRoutine_3->uxPriority
 163:FreeRTOS/croutine.c **** 		pxCoRoutine->uxIndex = uxIndex;
 180              		.loc 1 163 0
 181 0042 3B69     		ldr	r3, [r7, #16]	@ tmp133, pxCoRoutine
 182 0044 7A68     		ldr	r2, [r7, #4]	@ tmp134, uxIndex
 183 0046 1A63     		str	r2, [r3, #48]	@ tmp134, pxCoRoutine_3->uxIndex
 164:FreeRTOS/croutine.c **** 		pxCoRoutine->pxCoRoutineFunction = pxCoRoutineCode;
 184              		.loc 1 164 0
 185 0048 3B69     		ldr	r3, [r7, #16]	@ tmp135, pxCoRoutine
 186 004a FA68     		ldr	r2, [r7, #12]	@ tmp136, pxCoRoutineCode
 187 004c 1A60     		str	r2, [r3]	@ tmp136, pxCoRoutine_3->pxCoRoutineFunction
 165:FreeRTOS/croutine.c **** 
 166:FreeRTOS/croutine.c **** 		/* Initialise all the other co-routine control block parameters. */
 167:FreeRTOS/croutine.c **** 		vListInitialiseItem( &( pxCoRoutine->xGenericListItem ) );
 188              		.loc 1 167 0
 189 004e 3B69     		ldr	r3, [r7, #16]	@ tmp137, pxCoRoutine
 190 0050 0433     		adds	r3, r3, #4	@ D.4580, tmp137,
 191 0052 1846     		mov	r0, r3	@, D.4580
 192 0054 FFF7FEFF 		bl	vListInitialiseItem	@
 168:FreeRTOS/croutine.c **** 		vListInitialiseItem( &( pxCoRoutine->xEventListItem ) );
 193              		.loc 1 168 0
 194 0058 3B69     		ldr	r3, [r7, #16]	@ tmp138, pxCoRoutine
 195 005a 1833     		adds	r3, r3, #24	@ D.4580, tmp138,
 196 005c 1846     		mov	r0, r3	@, D.4580
 197 005e FFF7FEFF 		bl	vListInitialiseItem	@
 169:FreeRTOS/croutine.c **** 
 170:FreeRTOS/croutine.c **** 		/* Set the co-routine control block as a link back from the ListItem_t.
 171:FreeRTOS/croutine.c **** 		This is so we can get back to the containing CRCB from a generic item
 172:FreeRTOS/croutine.c **** 		in a list. */
 173:FreeRTOS/croutine.c **** 		listSET_LIST_ITEM_OWNER( &( pxCoRoutine->xGenericListItem ), pxCoRoutine );
 198              		.loc 1 173 0
 199 0062 3B69     		ldr	r3, [r7, #16]	@ tmp139, pxCoRoutine
 200 0064 3A69     		ldr	r2, [r7, #16]	@ tmp140, pxCoRoutine
 201 0066 1A61     		str	r2, [r3, #16]	@ tmp140, pxCoRoutine_3->xGenericListItem.pvOwner
 174:FreeRTOS/croutine.c **** 		listSET_LIST_ITEM_OWNER( &( pxCoRoutine->xEventListItem ), pxCoRoutine );
 202              		.loc 1 174 0
 203 0068 3B69     		ldr	r3, [r7, #16]	@ tmp141, pxCoRoutine
 204 006a 3A69     		ldr	r2, [r7, #16]	@ tmp142, pxCoRoutine
 205 006c 5A62     		str	r2, [r3, #36]	@ tmp142, pxCoRoutine_3->xEventListItem.pvOwner
 175:FreeRTOS/croutine.c **** 
 176:FreeRTOS/croutine.c **** 		/* Event lists are always in priority order. */
 177:FreeRTOS/croutine.c **** 		listSET_LIST_ITEM_VALUE( &( pxCoRoutine->xEventListItem ), ( ( TickT_t ) configMAX_CO_ROUTINE_PRI
 206              		.loc 1 177 0
ARM GAS  C:\Users\COSMIN~1.MAR\AppData\Local\Temp\cctCMzVM.s 			page 8


 207 006e BB68     		ldr	r3, [r7, #8]	@ tmp143, uxPriority
 208 0070 C3F10202 		rsb	r2, r3, #2	@ D.4581, tmp143,
 209 0074 3B69     		ldr	r3, [r7, #16]	@ tmp144, pxCoRoutine
 210 0076 9A61     		str	r2, [r3, #24]	@ D.4581, pxCoRoutine_3->xEventListItem.xItemValue
 178:FreeRTOS/croutine.c **** 
 179:FreeRTOS/croutine.c **** 		/* Now the co-routine has been initialised it can be added to the ready
 180:FreeRTOS/croutine.c **** 		list at the correct priority. */
 181:FreeRTOS/croutine.c **** 		prvAddCoRoutineToReadyQueue( pxCoRoutine );
 211              		.loc 1 181 0
 212 0078 3B69     		ldr	r3, [r7, #16]	@ tmp145, pxCoRoutine
 213 007a DA6A     		ldr	r2, [r3, #44]	@ D.4581, pxCoRoutine_3->uxPriority
 214 007c 114B     		ldr	r3, .L8+4	@ tmp146,
 215 007e 1B68     		ldr	r3, [r3]	@ D.4581, uxTopCoRoutineReadyPriority
 216 0080 9A42     		cmp	r2, r3	@ D.4581, D.4581
 217 0082 03D9     		bls	.L5	@,
 218              		.loc 1 181 0 is_stmt 0 discriminator 1
 219 0084 3B69     		ldr	r3, [r7, #16]	@ tmp147, pxCoRoutine
 220 0086 DB6A     		ldr	r3, [r3, #44]	@ D.4581, pxCoRoutine_3->uxPriority
 221 0088 0E4A     		ldr	r2, .L8+4	@ tmp148,
 222 008a 1360     		str	r3, [r2]	@ D.4581, uxTopCoRoutineReadyPriority
 223              	.L5:
 224              		.loc 1 181 0 discriminator 3
 225 008c 3B69     		ldr	r3, [r7, #16]	@ tmp149, pxCoRoutine
 226 008e DA6A     		ldr	r2, [r3, #44]	@ D.4581, pxCoRoutine_3->uxPriority
 227 0090 1346     		mov	r3, r2	@ tmp150, D.4581
 228 0092 9B00     		lsls	r3, r3, #2	@ tmp150, tmp150,
 229 0094 1344     		add	r3, r3, r2	@ tmp150, D.4581
 230 0096 9B00     		lsls	r3, r3, #2	@ tmp151, tmp150,
 231 0098 0B4A     		ldr	r2, .L8+8	@ tmp152,
 232 009a 1A44     		add	r2, r2, r3	@ D.4582, tmp150
 233 009c 3B69     		ldr	r3, [r7, #16]	@ tmp153, pxCoRoutine
 234 009e 0433     		adds	r3, r3, #4	@ D.4580, tmp153,
 235 00a0 1046     		mov	r0, r2	@, D.4582
 236 00a2 1946     		mov	r1, r3	@, D.4580
 237 00a4 FFF7FEFF 		bl	vListInsertEnd	@
 182:FreeRTOS/croutine.c **** 
 183:FreeRTOS/croutine.c **** 		xReturn = pdPASS;
 238              		.loc 1 183 0 is_stmt 1 discriminator 3
 239 00a8 0123     		movs	r3, #1	@ tmp154,
 240 00aa 7B61     		str	r3, [r7, #20]	@ tmp154, xReturn
 241 00ac 02E0     		b	.L6	@
 242              	.L2:
 184:FreeRTOS/croutine.c **** 	}
 185:FreeRTOS/croutine.c **** 	else
 186:FreeRTOS/croutine.c **** 	{
 187:FreeRTOS/croutine.c **** 		xReturn = errCOULD_NOT_ALLOCATE_REQUIRED_MEMORY;
 243              		.loc 1 187 0
 244 00ae 4FF0FF33 		mov	r3, #-1	@ tmp155,
 245 00b2 7B61     		str	r3, [r7, #20]	@ tmp155, xReturn
 246              	.L6:
 188:FreeRTOS/croutine.c **** 	}
 189:FreeRTOS/croutine.c **** 
 190:FreeRTOS/croutine.c **** 	return xReturn;
 247              		.loc 1 190 0
 248 00b4 7B69     		ldr	r3, [r7, #20]	@ D.4583, xReturn
 191:FreeRTOS/croutine.c **** }
 249              		.loc 1 191 0
ARM GAS  C:\Users\COSMIN~1.MAR\AppData\Local\Temp\cctCMzVM.s 			page 9


 250 00b6 1846     		mov	r0, r3	@, <retval>
 251 00b8 1837     		adds	r7, r7, #24	@,,
 252              		.cfi_def_cfa_offset 8
 253 00ba BD46     		mov	sp, r7	@,
 254              		.cfi_def_cfa_register 13
 255              		@ sp needed	@
 256 00bc 80BD     		pop	{r7, pc}	@
 257              	.L9:
 258 00be 00BF     		.align	2
 259              	.L8:
 260 00c0 00000000 		.word	pxCurrentCoRoutine
 261 00c4 00000000 		.word	uxTopCoRoutineReadyPriority
 262 00c8 00000000 		.word	pxReadyCoRoutineLists
 263              		.cfi_endproc
 264              	.LFE1:
 265              		.size	xCoRoutineCreate, .-xCoRoutineCreate
 266              		.section	.text.vCoRoutineAddToDelayedList,"ax",%progbits
 267              		.align	2
 268              		.global	vCoRoutineAddToDelayedList
 269              		.thumb
 270              		.thumb_func
 271              		.type	vCoRoutineAddToDelayedList, %function
 272              	vCoRoutineAddToDelayedList:
 273              	.LFB2:
 192:FreeRTOS/croutine.c **** /*-----------------------------------------------------------*/
 193:FreeRTOS/croutine.c **** 
 194:FreeRTOS/croutine.c **** void vCoRoutineAddToDelayedList( TickT_t xTicksToDelay, List_t *pxEventList )
 195:FreeRTOS/croutine.c **** {
 274              		.loc 1 195 0
 275              		.cfi_startproc
 276              		@ args = 0, pretend = 0, frame = 16
 277              		@ frame_needed = 1, uses_anonymous_args = 0
 278 0000 80B5     		push	{r7, lr}	@
 279              		.cfi_def_cfa_offset 8
 280              		.cfi_offset 7, -8
 281              		.cfi_offset 14, -4
 282 0002 84B0     		sub	sp, sp, #16	@,,
 283              		.cfi_def_cfa_offset 24
 284 0004 00AF     		add	r7, sp, #0	@,,
 285              		.cfi_def_cfa_register 7
 286 0006 7860     		str	r0, [r7, #4]	@ xTicksToDelay, xTicksToDelay
 287 0008 3960     		str	r1, [r7]	@ pxEventList, pxEventList
 196:FreeRTOS/croutine.c **** TickT_t xTimeToWake;
 197:FreeRTOS/croutine.c **** 
 198:FreeRTOS/croutine.c **** 	/* Calculate the time to wake - this may overflow but this is
 199:FreeRTOS/croutine.c **** 	not a problem. */
 200:FreeRTOS/croutine.c **** 	xTimeToWake = xCoRoutineTickCount + xTicksToDelay;
 288              		.loc 1 200 0
 289 000a 1A4B     		ldr	r3, .L14	@ tmp123,
 290 000c 1A68     		ldr	r2, [r3]	@ D.4584, xCoRoutineTickCount
 291 000e 7B68     		ldr	r3, [r7, #4]	@ tmp125, xTicksToDelay
 292 0010 1344     		add	r3, r3, r2	@ tmp124, D.4584
 293 0012 FB60     		str	r3, [r7, #12]	@ tmp124, xTimeToWake
 201:FreeRTOS/croutine.c **** 
 202:FreeRTOS/croutine.c **** 	/* We must remove ourselves from the ready list before adding
 203:FreeRTOS/croutine.c **** 	ourselves to the blocked list as the same list item is used for
 204:FreeRTOS/croutine.c **** 	both lists. */
ARM GAS  C:\Users\COSMIN~1.MAR\AppData\Local\Temp\cctCMzVM.s 			page 10


 205:FreeRTOS/croutine.c **** 	( void ) uxListRemove( ( ListItem_t * ) &( pxCurrentCoRoutine->xGenericListItem ) );
 294              		.loc 1 205 0
 295 0014 184B     		ldr	r3, .L14+4	@ tmp126,
 296 0016 1B68     		ldr	r3, [r3]	@ D.4585, pxCurrentCoRoutine
 297 0018 0433     		adds	r3, r3, #4	@ D.4586, D.4585,
 298 001a 1846     		mov	r0, r3	@, D.4586
 299 001c FFF7FEFF 		bl	uxListRemove	@
 206:FreeRTOS/croutine.c **** 
 207:FreeRTOS/croutine.c **** 	/* The list item will be inserted in wake time order. */
 208:FreeRTOS/croutine.c **** 	listSET_LIST_ITEM_VALUE( &( pxCurrentCoRoutine->xGenericListItem ), xTimeToWake );
 300              		.loc 1 208 0
 301 0020 154B     		ldr	r3, .L14+4	@ tmp127,
 302 0022 1B68     		ldr	r3, [r3]	@ D.4585, pxCurrentCoRoutine
 303 0024 FA68     		ldr	r2, [r7, #12]	@ tmp128, xTimeToWake
 304 0026 5A60     		str	r2, [r3, #4]	@ tmp128, _6->xGenericListItem.xItemValue
 209:FreeRTOS/croutine.c **** 
 210:FreeRTOS/croutine.c **** 	if( xTimeToWake < xCoRoutineTickCount )
 305              		.loc 1 210 0
 306 0028 124B     		ldr	r3, .L14	@ tmp129,
 307 002a 1B68     		ldr	r3, [r3]	@ D.4584, xCoRoutineTickCount
 308 002c FA68     		ldr	r2, [r7, #12]	@ tmp130, xTimeToWake
 309 002e 9A42     		cmp	r2, r3	@ tmp130, D.4584
 310 0030 09D2     		bcs	.L11	@,
 211:FreeRTOS/croutine.c **** 	{
 212:FreeRTOS/croutine.c **** 		/* Wake time has overflowed.  Place this item in the
 213:FreeRTOS/croutine.c **** 		overflow list. */
 214:FreeRTOS/croutine.c **** 		vListInsert( ( List_t * ) pxOverflowDelayedCoRoutineList, ( ListItem_t * ) &( pxCurrentCoRoutine-
 311              		.loc 1 214 0
 312 0032 124B     		ldr	r3, .L14+8	@ tmp131,
 313 0034 1A68     		ldr	r2, [r3]	@ D.4587, pxOverflowDelayedCoRoutineList
 314 0036 104B     		ldr	r3, .L14+4	@ tmp132,
 315 0038 1B68     		ldr	r3, [r3]	@ D.4585, pxCurrentCoRoutine
 316 003a 0433     		adds	r3, r3, #4	@ D.4586, D.4585,
 317 003c 1046     		mov	r0, r2	@, D.4587
 318 003e 1946     		mov	r1, r3	@, D.4586
 319 0040 FFF7FEFF 		bl	vListInsert	@
 320 0044 08E0     		b	.L12	@
 321              	.L11:
 215:FreeRTOS/croutine.c **** 	}
 216:FreeRTOS/croutine.c **** 	else
 217:FreeRTOS/croutine.c **** 	{
 218:FreeRTOS/croutine.c **** 		/* The wake time has not overflowed, so we can use the
 219:FreeRTOS/croutine.c **** 		current block list. */
 220:FreeRTOS/croutine.c **** 		vListInsert( ( List_t * ) pxDelayedCoRoutineList, ( ListItem_t * ) &( pxCurrentCoRoutine->xGeneri
 322              		.loc 1 220 0
 323 0046 0E4B     		ldr	r3, .L14+12	@ tmp133,
 324 0048 1A68     		ldr	r2, [r3]	@ D.4587, pxDelayedCoRoutineList
 325 004a 0B4B     		ldr	r3, .L14+4	@ tmp134,
 326 004c 1B68     		ldr	r3, [r3]	@ D.4585, pxCurrentCoRoutine
 327 004e 0433     		adds	r3, r3, #4	@ D.4586, D.4585,
 328 0050 1046     		mov	r0, r2	@, D.4587
 329 0052 1946     		mov	r1, r3	@, D.4586
 330 0054 FFF7FEFF 		bl	vListInsert	@
 331              	.L12:
 221:FreeRTOS/croutine.c **** 	}
 222:FreeRTOS/croutine.c **** 
 223:FreeRTOS/croutine.c **** 	if( pxEventList )
ARM GAS  C:\Users\COSMIN~1.MAR\AppData\Local\Temp\cctCMzVM.s 			page 11


 332              		.loc 1 223 0
 333 0058 3B68     		ldr	r3, [r7]	@ tmp135, pxEventList
 334 005a 002B     		cmp	r3, #0	@ tmp135,
 335 005c 06D0     		beq	.L10	@,
 224:FreeRTOS/croutine.c **** 	{
 225:FreeRTOS/croutine.c **** 		/* Also add the co-routine to an event list.  If this is done then the
 226:FreeRTOS/croutine.c **** 		function must be called with interrupts disabled. */
 227:FreeRTOS/croutine.c **** 		vListInsert( pxEventList, &( pxCurrentCoRoutine->xEventListItem ) );
 336              		.loc 1 227 0
 337 005e 064B     		ldr	r3, .L14+4	@ tmp136,
 338 0060 1B68     		ldr	r3, [r3]	@ D.4585, pxCurrentCoRoutine
 339 0062 1833     		adds	r3, r3, #24	@ D.4586, D.4585,
 340 0064 3868     		ldr	r0, [r7]	@, pxEventList
 341 0066 1946     		mov	r1, r3	@, D.4586
 342 0068 FFF7FEFF 		bl	vListInsert	@
 343              	.L10:
 228:FreeRTOS/croutine.c **** 	}
 229:FreeRTOS/croutine.c **** }
 344              		.loc 1 229 0
 345 006c 1037     		adds	r7, r7, #16	@,,
 346              		.cfi_def_cfa_offset 8
 347 006e BD46     		mov	sp, r7	@,
 348              		.cfi_def_cfa_register 13
 349              		@ sp needed	@
 350 0070 80BD     		pop	{r7, pc}	@
 351              	.L15:
 352 0072 00BF     		.align	2
 353              	.L14:
 354 0074 00000000 		.word	xCoRoutineTickCount
 355 0078 00000000 		.word	pxCurrentCoRoutine
 356 007c 00000000 		.word	pxOverflowDelayedCoRoutineList
 357 0080 00000000 		.word	pxDelayedCoRoutineList
 358              		.cfi_endproc
 359              	.LFE2:
 360              		.size	vCoRoutineAddToDelayedList, .-vCoRoutineAddToDelayedList
 361              		.section	.text.prvCheckPendingReadyList,"ax",%progbits
 362              		.align	2
 363              		.thumb
 364              		.thumb_func
 365              		.type	prvCheckPendingReadyList, %function
 366              	prvCheckPendingReadyList:
 367              	.LFB3:
 230:FreeRTOS/croutine.c **** /*-----------------------------------------------------------*/
 231:FreeRTOS/croutine.c **** 
 232:FreeRTOS/croutine.c **** static void prvCheckPendingReadyList( void )
 233:FreeRTOS/croutine.c **** {
 368              		.loc 1 233 0
 369              		.cfi_startproc
 370              		@ args = 0, pretend = 0, frame = 8
 371              		@ frame_needed = 1, uses_anonymous_args = 0
 372 0000 80B5     		push	{r7, lr}	@
 373              		.cfi_def_cfa_offset 8
 374              		.cfi_offset 7, -8
 375              		.cfi_offset 14, -4
 376 0002 82B0     		sub	sp, sp, #8	@,,
 377              		.cfi_def_cfa_offset 16
 378 0004 00AF     		add	r7, sp, #0	@,,
ARM GAS  C:\Users\COSMIN~1.MAR\AppData\Local\Temp\cctCMzVM.s 			page 12


 379              		.cfi_def_cfa_register 7
 234:FreeRTOS/croutine.c **** 	/* Are there any co-routines waiting to get moved to the ready list?  These
 235:FreeRTOS/croutine.c **** 	are co-routines that have been readied by an ISR.  The ISR cannot access
 236:FreeRTOS/croutine.c **** 	the	ready lists itself. */
 237:FreeRTOS/croutine.c **** 	while( listLIST_IS_EMPTY( &xPendingReadyCoRoutineList ) == pdFALSE )
 380              		.loc 1 237 0
 381 0006 2AE0     		b	.L17	@
 382              	.L19:
 383              	.LBB2:
 238:FreeRTOS/croutine.c **** 	{
 239:FreeRTOS/croutine.c **** 		CRCB_t *pxUnblockedCRCB;
 240:FreeRTOS/croutine.c **** 
 241:FreeRTOS/croutine.c **** 		/* The pending ready list can be accessed by an ISR. */
 242:FreeRTOS/croutine.c **** 		portDISABLE_INTERRUPTS();
 384              		.loc 1 242 0
 385 0008 FFF7FEFF 		bl	ulPortSetInterruptMask	@
 243:FreeRTOS/croutine.c **** 		{
 244:FreeRTOS/croutine.c **** 			pxUnblockedCRCB = ( CRCB_t * ) listGET_OWNER_OF_HEAD_ENTRY( (&xPendingReadyCoRoutineList) );
 386              		.loc 1 244 0
 387 000c 174B     		ldr	r3, .L20	@ tmp120,
 388 000e DB68     		ldr	r3, [r3, #12]	@ D.4589, xPendingReadyCoRoutineList.xListEnd.pxNext
 389 0010 DB68     		ldr	r3, [r3, #12]	@ tmp121, _2->pvOwner
 390 0012 7B60     		str	r3, [r7, #4]	@ tmp121, pxUnblockedCRCB
 245:FreeRTOS/croutine.c **** 			( void ) uxListRemove( &( pxUnblockedCRCB->xEventListItem ) );
 391              		.loc 1 245 0
 392 0014 7B68     		ldr	r3, [r7, #4]	@ tmp122, pxUnblockedCRCB
 393 0016 1833     		adds	r3, r3, #24	@ D.4590, tmp122,
 394 0018 1846     		mov	r0, r3	@, D.4590
 395 001a FFF7FEFF 		bl	uxListRemove	@
 246:FreeRTOS/croutine.c **** 		}
 247:FreeRTOS/croutine.c **** 		portENABLE_INTERRUPTS();
 396              		.loc 1 247 0
 397 001e 0020     		movs	r0, #0	@,
 398 0020 FFF7FEFF 		bl	vPortClearInterruptMask	@
 248:FreeRTOS/croutine.c **** 
 249:FreeRTOS/croutine.c **** 		( void ) uxListRemove( &( pxUnblockedCRCB->xGenericListItem ) );
 399              		.loc 1 249 0
 400 0024 7B68     		ldr	r3, [r7, #4]	@ tmp123, pxUnblockedCRCB
 401 0026 0433     		adds	r3, r3, #4	@ D.4590, tmp123,
 402 0028 1846     		mov	r0, r3	@, D.4590
 403 002a FFF7FEFF 		bl	uxListRemove	@
 250:FreeRTOS/croutine.c **** 		prvAddCoRoutineToReadyQueue( pxUnblockedCRCB );
 404              		.loc 1 250 0
 405 002e 7B68     		ldr	r3, [r7, #4]	@ tmp124, pxUnblockedCRCB
 406 0030 DA6A     		ldr	r2, [r3, #44]	@ D.4588, pxUnblockedCRCB_3->uxPriority
 407 0032 0F4B     		ldr	r3, .L20+4	@ tmp125,
 408 0034 1B68     		ldr	r3, [r3]	@ D.4588, uxTopCoRoutineReadyPriority
 409 0036 9A42     		cmp	r2, r3	@ D.4588, D.4588
 410 0038 03D9     		bls	.L18	@,
 411              		.loc 1 250 0 is_stmt 0 discriminator 1
 412 003a 7B68     		ldr	r3, [r7, #4]	@ tmp126, pxUnblockedCRCB
 413 003c DB6A     		ldr	r3, [r3, #44]	@ D.4588, pxUnblockedCRCB_3->uxPriority
 414 003e 0C4A     		ldr	r2, .L20+4	@ tmp127,
 415 0040 1360     		str	r3, [r2]	@ D.4588, uxTopCoRoutineReadyPriority
 416              	.L18:
 417              		.loc 1 250 0 discriminator 3
 418 0042 7B68     		ldr	r3, [r7, #4]	@ tmp128, pxUnblockedCRCB
ARM GAS  C:\Users\COSMIN~1.MAR\AppData\Local\Temp\cctCMzVM.s 			page 13


 419 0044 DA6A     		ldr	r2, [r3, #44]	@ D.4588, pxUnblockedCRCB_3->uxPriority
 420 0046 1346     		mov	r3, r2	@ tmp129, D.4588
 421 0048 9B00     		lsls	r3, r3, #2	@ tmp129, tmp129,
 422 004a 1344     		add	r3, r3, r2	@ tmp129, D.4588
 423 004c 9B00     		lsls	r3, r3, #2	@ tmp130, tmp129,
 424 004e 094A     		ldr	r2, .L20+8	@ tmp131,
 425 0050 1A44     		add	r2, r2, r3	@ D.4591, tmp129
 426 0052 7B68     		ldr	r3, [r7, #4]	@ tmp132, pxUnblockedCRCB
 427 0054 0433     		adds	r3, r3, #4	@ D.4590, tmp132,
 428 0056 1046     		mov	r0, r2	@, D.4591
 429 0058 1946     		mov	r1, r3	@, D.4590
 430 005a FFF7FEFF 		bl	vListInsertEnd	@
 431              	.L17:
 432              	.LBE2:
 237:FreeRTOS/croutine.c **** 	{
 433              		.loc 1 237 0 is_stmt 1
 434 005e 034B     		ldr	r3, .L20	@ tmp133,
 435 0060 1B68     		ldr	r3, [r3]	@ D.4588, xPendingReadyCoRoutineList.uxNumberOfItems
 436 0062 002B     		cmp	r3, #0	@ D.4588,
 437 0064 D0D1     		bne	.L19	@,
 251:FreeRTOS/croutine.c **** 	}
 252:FreeRTOS/croutine.c **** }
 438              		.loc 1 252 0
 439 0066 0837     		adds	r7, r7, #8	@,,
 440              		.cfi_def_cfa_offset 8
 441 0068 BD46     		mov	sp, r7	@,
 442              		.cfi_def_cfa_register 13
 443              		@ sp needed	@
 444 006a 80BD     		pop	{r7, pc}	@
 445              	.L21:
 446              		.align	2
 447              	.L20:
 448 006c 00000000 		.word	xPendingReadyCoRoutineList
 449 0070 00000000 		.word	uxTopCoRoutineReadyPriority
 450 0074 00000000 		.word	pxReadyCoRoutineLists
 451              		.cfi_endproc
 452              	.LFE3:
 453              		.size	prvCheckPendingReadyList, .-prvCheckPendingReadyList
 454              		.section	.text.prvCheckDelayedList,"ax",%progbits
 455              		.align	2
 456              		.thumb
 457              		.thumb_func
 458              		.type	prvCheckDelayedList, %function
 459              	prvCheckDelayedList:
 460              	.LFB4:
 253:FreeRTOS/croutine.c **** /*-----------------------------------------------------------*/
 254:FreeRTOS/croutine.c **** 
 255:FreeRTOS/croutine.c **** static void prvCheckDelayedList( void )
 256:FreeRTOS/croutine.c **** {
 461              		.loc 1 256 0
 462              		.cfi_startproc
 463              		@ args = 0, pretend = 0, frame = 8
 464              		@ frame_needed = 1, uses_anonymous_args = 0
 465 0000 80B5     		push	{r7, lr}	@
 466              		.cfi_def_cfa_offset 8
 467              		.cfi_offset 7, -8
 468              		.cfi_offset 14, -4
ARM GAS  C:\Users\COSMIN~1.MAR\AppData\Local\Temp\cctCMzVM.s 			page 14


 469 0002 82B0     		sub	sp, sp, #8	@,,
 470              		.cfi_def_cfa_offset 16
 471 0004 00AF     		add	r7, sp, #0	@,,
 472              		.cfi_def_cfa_register 7
 257:FreeRTOS/croutine.c **** CRCB_t *pxCRCB;
 258:FreeRTOS/croutine.c **** 
 259:FreeRTOS/croutine.c **** 	xPassedTicks = xTaskGetTickCount() - xLastTickCount;
 473              		.loc 1 259 0
 474 0006 FFF7FEFF 		bl	xTaskGetTickCount	@
 475 000a 0246     		mov	r2, r0	@ D.4592,
 476 000c 324B     		ldr	r3, .L31	@ tmp136,
 477 000e 1B68     		ldr	r3, [r3]	@ D.4592, xLastTickCount
 478 0010 D31A     		subs	r3, r2, r3	@ D.4592, D.4592, D.4592
 479 0012 324A     		ldr	r2, .L31+4	@ tmp137,
 480 0014 1360     		str	r3, [r2]	@ D.4592, xPassedTicks
 260:FreeRTOS/croutine.c **** 	while( xPassedTicks )
 481              		.loc 1 260 0
 482 0016 54E0     		b	.L23	@
 483              	.L30:
 261:FreeRTOS/croutine.c **** 	{
 262:FreeRTOS/croutine.c **** 		xCoRoutineTickCount++;
 484              		.loc 1 262 0
 485 0018 314B     		ldr	r3, .L31+8	@ tmp138,
 486 001a 1B68     		ldr	r3, [r3]	@ D.4592, xCoRoutineTickCount
 487 001c 0133     		adds	r3, r3, #1	@ D.4592, D.4592,
 488 001e 304A     		ldr	r2, .L31+8	@ tmp139,
 489 0020 1360     		str	r3, [r2]	@ D.4592, xCoRoutineTickCount
 263:FreeRTOS/croutine.c **** 		xPassedTicks--;
 490              		.loc 1 263 0
 491 0022 2E4B     		ldr	r3, .L31+4	@ tmp140,
 492 0024 1B68     		ldr	r3, [r3]	@ D.4592, xPassedTicks
 493 0026 013B     		subs	r3, r3, #1	@ D.4592, D.4592,
 494 0028 2C4A     		ldr	r2, .L31+4	@ tmp141,
 495 002a 1360     		str	r3, [r2]	@ D.4592, xPassedTicks
 264:FreeRTOS/croutine.c **** 
 265:FreeRTOS/croutine.c **** 		/* If the tick count has overflowed we need to swap the ready lists. */
 266:FreeRTOS/croutine.c **** 		if( xCoRoutineTickCount == 0 )
 496              		.loc 1 266 0
 497 002c 2C4B     		ldr	r3, .L31+8	@ tmp142,
 498 002e 1B68     		ldr	r3, [r3]	@ D.4592, xCoRoutineTickCount
 499 0030 002B     		cmp	r3, #0	@ D.4592,
 500 0032 09D1     		bne	.L24	@,
 501              	.LBB3:
 267:FreeRTOS/croutine.c **** 		{
 268:FreeRTOS/croutine.c **** 			List_t * pxTemp;
 269:FreeRTOS/croutine.c **** 
 270:FreeRTOS/croutine.c **** 			/* Tick count has overflowed so we need to swap the delay lists.  If there are
 271:FreeRTOS/croutine.c **** 			any items in pxDelayedCoRoutineList here then there is an error! */
 272:FreeRTOS/croutine.c **** 			pxTemp = pxDelayedCoRoutineList;
 502              		.loc 1 272 0
 503 0034 2B4B     		ldr	r3, .L31+12	@ tmp143,
 504 0036 1B68     		ldr	r3, [r3]	@ tmp144, pxDelayedCoRoutineList
 505 0038 7B60     		str	r3, [r7, #4]	@ tmp144, pxTemp
 273:FreeRTOS/croutine.c **** 			pxDelayedCoRoutineList = pxOverflowDelayedCoRoutineList;
 506              		.loc 1 273 0
 507 003a 2B4B     		ldr	r3, .L31+16	@ tmp145,
 508 003c 1B68     		ldr	r3, [r3]	@ D.4593, pxOverflowDelayedCoRoutineList
ARM GAS  C:\Users\COSMIN~1.MAR\AppData\Local\Temp\cctCMzVM.s 			page 15


 509 003e 294A     		ldr	r2, .L31+12	@ tmp146,
 510 0040 1360     		str	r3, [r2]	@ D.4593, pxDelayedCoRoutineList
 274:FreeRTOS/croutine.c **** 			pxOverflowDelayedCoRoutineList = pxTemp;
 511              		.loc 1 274 0
 512 0042 294A     		ldr	r2, .L31+16	@ tmp147,
 513 0044 7B68     		ldr	r3, [r7, #4]	@ tmp148, pxTemp
 514 0046 1360     		str	r3, [r2]	@ tmp148, pxOverflowDelayedCoRoutineList
 515              	.L24:
 516              	.LBE3:
 275:FreeRTOS/croutine.c **** 		}
 276:FreeRTOS/croutine.c **** 
 277:FreeRTOS/croutine.c **** 		/* See if this tick has made a timeout expire. */
 278:FreeRTOS/croutine.c **** 		while( listLIST_IS_EMPTY( pxDelayedCoRoutineList ) == pdFALSE )
 517              		.loc 1 278 0
 518 0048 36E0     		b	.L25	@
 519              	.L29:
 279:FreeRTOS/croutine.c **** 		{
 280:FreeRTOS/croutine.c **** 			pxCRCB = ( CRCB_t * ) listGET_OWNER_OF_HEAD_ENTRY( pxDelayedCoRoutineList );
 520              		.loc 1 280 0
 521 004a 264B     		ldr	r3, .L31+12	@ tmp149,
 522 004c 1B68     		ldr	r3, [r3]	@ D.4593, pxDelayedCoRoutineList
 523 004e DB68     		ldr	r3, [r3, #12]	@ D.4594, _14->xListEnd.pxNext
 524 0050 DB68     		ldr	r3, [r3, #12]	@ tmp150, _15->pvOwner
 525 0052 3B60     		str	r3, [r7]	@ tmp150, pxCRCB
 281:FreeRTOS/croutine.c **** 
 282:FreeRTOS/croutine.c **** 			if( xCoRoutineTickCount < listGET_LIST_ITEM_VALUE( &( pxCRCB->xGenericListItem ) ) )
 526              		.loc 1 282 0
 527 0054 3B68     		ldr	r3, [r7]	@ tmp151, pxCRCB
 528 0056 5A68     		ldr	r2, [r3, #4]	@ D.4592, pxCRCB_16->xGenericListItem.xItemValue
 529 0058 214B     		ldr	r3, .L31+8	@ tmp152,
 530 005a 1B68     		ldr	r3, [r3]	@ D.4592, xCoRoutineTickCount
 531 005c 9A42     		cmp	r2, r3	@ D.4592, D.4592
 532 005e 00D9     		bls	.L26	@,
 283:FreeRTOS/croutine.c **** 			{
 284:FreeRTOS/croutine.c **** 				/* Timeout not yet expired. */
 285:FreeRTOS/croutine.c **** 				break;
 533              		.loc 1 285 0
 534 0060 2FE0     		b	.L23	@
 535              	.L26:
 286:FreeRTOS/croutine.c **** 			}
 287:FreeRTOS/croutine.c **** 
 288:FreeRTOS/croutine.c **** 			portDISABLE_INTERRUPTS();
 536              		.loc 1 288 0
 537 0062 FFF7FEFF 		bl	ulPortSetInterruptMask	@
 289:FreeRTOS/croutine.c **** 			{
 290:FreeRTOS/croutine.c **** 				/* The event could have occurred just before this critical
 291:FreeRTOS/croutine.c **** 				section.  If this is the case then the generic list item will
 292:FreeRTOS/croutine.c **** 				have been moved to the pending ready list and the following
 293:FreeRTOS/croutine.c **** 				line is still valid.  Also the pvContainer parameter will have
 294:FreeRTOS/croutine.c **** 				been set to NULL so the following lines are also valid. */
 295:FreeRTOS/croutine.c **** 				( void ) uxListRemove( &( pxCRCB->xGenericListItem ) );
 538              		.loc 1 295 0
 539 0066 3B68     		ldr	r3, [r7]	@ tmp153, pxCRCB
 540 0068 0433     		adds	r3, r3, #4	@ D.4595, tmp153,
 541 006a 1846     		mov	r0, r3	@, D.4595
 542 006c FFF7FEFF 		bl	uxListRemove	@
 296:FreeRTOS/croutine.c **** 
ARM GAS  C:\Users\COSMIN~1.MAR\AppData\Local\Temp\cctCMzVM.s 			page 16


 297:FreeRTOS/croutine.c **** 				/* Is the co-routine waiting on an event also? */
 298:FreeRTOS/croutine.c **** 				if( pxCRCB->xEventListItem.pvContainer )
 543              		.loc 1 298 0
 544 0070 3B68     		ldr	r3, [r7]	@ tmp154, pxCRCB
 545 0072 9B6A     		ldr	r3, [r3, #40]	@ D.4596, pxCRCB_16->xEventListItem.pvContainer
 546 0074 002B     		cmp	r3, #0	@ D.4596,
 547 0076 04D0     		beq	.L27	@,
 299:FreeRTOS/croutine.c **** 				{
 300:FreeRTOS/croutine.c **** 					( void ) uxListRemove( &( pxCRCB->xEventListItem ) );
 548              		.loc 1 300 0
 549 0078 3B68     		ldr	r3, [r7]	@ tmp155, pxCRCB
 550 007a 1833     		adds	r3, r3, #24	@ D.4595, tmp155,
 551 007c 1846     		mov	r0, r3	@, D.4595
 552 007e FFF7FEFF 		bl	uxListRemove	@
 553              	.L27:
 301:FreeRTOS/croutine.c **** 				}
 302:FreeRTOS/croutine.c **** 			}
 303:FreeRTOS/croutine.c **** 			portENABLE_INTERRUPTS();
 554              		.loc 1 303 0
 555 0082 0020     		movs	r0, #0	@,
 556 0084 FFF7FEFF 		bl	vPortClearInterruptMask	@
 304:FreeRTOS/croutine.c **** 
 305:FreeRTOS/croutine.c **** 			prvAddCoRoutineToReadyQueue( pxCRCB );
 557              		.loc 1 305 0
 558 0088 3B68     		ldr	r3, [r7]	@ tmp156, pxCRCB
 559 008a DA6A     		ldr	r2, [r3, #44]	@ D.4592, pxCRCB_16->uxPriority
 560 008c 174B     		ldr	r3, .L31+20	@ tmp157,
 561 008e 1B68     		ldr	r3, [r3]	@ D.4592, uxTopCoRoutineReadyPriority
 562 0090 9A42     		cmp	r2, r3	@ D.4592, D.4592
 563 0092 03D9     		bls	.L28	@,
 564              		.loc 1 305 0 is_stmt 0 discriminator 1
 565 0094 3B68     		ldr	r3, [r7]	@ tmp158, pxCRCB
 566 0096 DB6A     		ldr	r3, [r3, #44]	@ D.4592, pxCRCB_16->uxPriority
 567 0098 144A     		ldr	r2, .L31+20	@ tmp159,
 568 009a 1360     		str	r3, [r2]	@ D.4592, uxTopCoRoutineReadyPriority
 569              	.L28:
 570              		.loc 1 305 0 discriminator 3
 571 009c 3B68     		ldr	r3, [r7]	@ tmp160, pxCRCB
 572 009e DA6A     		ldr	r2, [r3, #44]	@ D.4592, pxCRCB_16->uxPriority
 573 00a0 1346     		mov	r3, r2	@ tmp161, D.4592
 574 00a2 9B00     		lsls	r3, r3, #2	@ tmp161, tmp161,
 575 00a4 1344     		add	r3, r3, r2	@ tmp161, D.4592
 576 00a6 9B00     		lsls	r3, r3, #2	@ tmp162, tmp161,
 577 00a8 114A     		ldr	r2, .L31+24	@ tmp163,
 578 00aa 1A44     		add	r2, r2, r3	@ D.4593, tmp161
 579 00ac 3B68     		ldr	r3, [r7]	@ tmp164, pxCRCB
 580 00ae 0433     		adds	r3, r3, #4	@ D.4595, tmp164,
 581 00b0 1046     		mov	r0, r2	@, D.4593
 582 00b2 1946     		mov	r1, r3	@, D.4595
 583 00b4 FFF7FEFF 		bl	vListInsertEnd	@
 584              	.L25:
 278:FreeRTOS/croutine.c **** 		{
 585              		.loc 1 278 0 is_stmt 1
 586 00b8 0A4B     		ldr	r3, .L31+12	@ tmp165,
 587 00ba 1B68     		ldr	r3, [r3]	@ D.4593, pxDelayedCoRoutineList
 588 00bc 1B68     		ldr	r3, [r3]	@ D.4592, _12->uxNumberOfItems
 589 00be 002B     		cmp	r3, #0	@ D.4592,
ARM GAS  C:\Users\COSMIN~1.MAR\AppData\Local\Temp\cctCMzVM.s 			page 17


 590 00c0 C3D1     		bne	.L29	@,
 591              	.L23:
 260:FreeRTOS/croutine.c **** 	{
 592              		.loc 1 260 0
 593 00c2 064B     		ldr	r3, .L31+4	@ tmp166,
 594 00c4 1B68     		ldr	r3, [r3]	@ D.4592, xPassedTicks
 595 00c6 002B     		cmp	r3, #0	@ D.4592,
 596 00c8 A6D1     		bne	.L30	@,
 306:FreeRTOS/croutine.c **** 		}
 307:FreeRTOS/croutine.c **** 	}
 308:FreeRTOS/croutine.c **** 
 309:FreeRTOS/croutine.c **** 	xLastTickCount = xCoRoutineTickCount;
 597              		.loc 1 309 0
 598 00ca 054B     		ldr	r3, .L31+8	@ tmp167,
 599 00cc 1B68     		ldr	r3, [r3]	@ D.4592, xCoRoutineTickCount
 600 00ce 024A     		ldr	r2, .L31	@ tmp168,
 601 00d0 1360     		str	r3, [r2]	@ D.4592, xLastTickCount
 310:FreeRTOS/croutine.c **** }
 602              		.loc 1 310 0
 603 00d2 0837     		adds	r7, r7, #8	@,,
 604              		.cfi_def_cfa_offset 8
 605 00d4 BD46     		mov	sp, r7	@,
 606              		.cfi_def_cfa_register 13
 607              		@ sp needed	@
 608 00d6 80BD     		pop	{r7, pc}	@
 609              	.L32:
 610              		.align	2
 611              	.L31:
 612 00d8 00000000 		.word	xLastTickCount
 613 00dc 00000000 		.word	xPassedTicks
 614 00e0 00000000 		.word	xCoRoutineTickCount
 615 00e4 00000000 		.word	pxDelayedCoRoutineList
 616 00e8 00000000 		.word	pxOverflowDelayedCoRoutineList
 617 00ec 00000000 		.word	uxTopCoRoutineReadyPriority
 618 00f0 00000000 		.word	pxReadyCoRoutineLists
 619              		.cfi_endproc
 620              	.LFE4:
 621              		.size	prvCheckDelayedList, .-prvCheckDelayedList
 622              		.section	.text.vCoRoutineSchedule,"ax",%progbits
 623              		.align	2
 624              		.global	vCoRoutineSchedule
 625              		.thumb
 626              		.thumb_func
 627              		.type	vCoRoutineSchedule, %function
 628              	vCoRoutineSchedule:
 629              	.LFB5:
 311:FreeRTOS/croutine.c **** /*-----------------------------------------------------------*/
 312:FreeRTOS/croutine.c **** 
 313:FreeRTOS/croutine.c **** void vCoRoutineSchedule( void )
 314:FreeRTOS/croutine.c **** {
 630              		.loc 1 314 0
 631              		.cfi_startproc
 632              		@ args = 0, pretend = 0, frame = 8
 633              		@ frame_needed = 1, uses_anonymous_args = 0
 634 0000 80B5     		push	{r7, lr}	@
 635              		.cfi_def_cfa_offset 8
 636              		.cfi_offset 7, -8
ARM GAS  C:\Users\COSMIN~1.MAR\AppData\Local\Temp\cctCMzVM.s 			page 18


 637              		.cfi_offset 14, -4
 638 0002 82B0     		sub	sp, sp, #8	@,,
 639              		.cfi_def_cfa_offset 16
 640 0004 00AF     		add	r7, sp, #0	@,,
 641              		.cfi_def_cfa_register 7
 315:FreeRTOS/croutine.c **** 	/* See if any co-routines readied by events need moving to the ready lists. */
 316:FreeRTOS/croutine.c **** 	prvCheckPendingReadyList();
 642              		.loc 1 316 0
 643 0006 FFF7FEFF 		bl	prvCheckPendingReadyList	@
 317:FreeRTOS/croutine.c **** 
 318:FreeRTOS/croutine.c **** 	/* See if any delayed co-routines have timed out. */
 319:FreeRTOS/croutine.c **** 	prvCheckDelayedList();
 644              		.loc 1 319 0
 645 000a FFF7FEFF 		bl	prvCheckDelayedList	@
 320:FreeRTOS/croutine.c **** 
 321:FreeRTOS/croutine.c **** 	/* Find the highest priority queue that contains ready co-routines. */
 322:FreeRTOS/croutine.c **** 	while( listLIST_IS_EMPTY( &( pxReadyCoRoutineLists[ uxTopCoRoutineReadyPriority ] ) ) )
 646              		.loc 1 322 0
 647 000e 09E0     		b	.L34	@
 648              	.L37:
 323:FreeRTOS/croutine.c **** 	{
 324:FreeRTOS/croutine.c **** 		if( uxTopCoRoutineReadyPriority == 0 )
 649              		.loc 1 324 0
 650 0010 204B     		ldr	r3, .L39	@ tmp129,
 651 0012 1B68     		ldr	r3, [r3]	@ D.4597, uxTopCoRoutineReadyPriority
 652 0014 002B     		cmp	r3, #0	@ D.4597,
 653 0016 00D1     		bne	.L35	@,
 325:FreeRTOS/croutine.c **** 		{
 326:FreeRTOS/croutine.c **** 			/* No more co-routines to check. */
 327:FreeRTOS/croutine.c **** 			return;
 654              		.loc 1 327 0
 655 0018 39E0     		b	.L33	@
 656              	.L35:
 328:FreeRTOS/croutine.c **** 		}
 329:FreeRTOS/croutine.c **** 		--uxTopCoRoutineReadyPriority;
 657              		.loc 1 329 0
 658 001a 1E4B     		ldr	r3, .L39	@ tmp130,
 659 001c 1B68     		ldr	r3, [r3]	@ D.4597, uxTopCoRoutineReadyPriority
 660 001e 013B     		subs	r3, r3, #1	@ D.4597, D.4597,
 661 0020 1C4A     		ldr	r2, .L39	@ tmp131,
 662 0022 1360     		str	r3, [r2]	@ D.4597, uxTopCoRoutineReadyPriority
 663              	.L34:
 322:FreeRTOS/croutine.c **** 	{
 664              		.loc 1 322 0
 665 0024 1B4B     		ldr	r3, .L39	@ tmp132,
 666 0026 1A68     		ldr	r2, [r3]	@ D.4597, uxTopCoRoutineReadyPriority
 667 0028 1B49     		ldr	r1, .L39+4	@ tmp133,
 668 002a 1346     		mov	r3, r2	@ tmp134, D.4597
 669 002c 9B00     		lsls	r3, r3, #2	@ tmp134, tmp134,
 670 002e 1344     		add	r3, r3, r2	@ tmp134, D.4597
 671 0030 9B00     		lsls	r3, r3, #2	@ tmp135, tmp134,
 672 0032 0B44     		add	r3, r3, r1	@ tmp136, tmp133
 673 0034 1B68     		ldr	r3, [r3]	@ D.4597, pxReadyCoRoutineLists[_1].uxNumberOfItems
 674 0036 002B     		cmp	r3, #0	@ D.4597,
 675 0038 EAD0     		beq	.L37	@,
 676              	.LBB4:
 330:FreeRTOS/croutine.c **** 	}
ARM GAS  C:\Users\COSMIN~1.MAR\AppData\Local\Temp\cctCMzVM.s 			page 19


 331:FreeRTOS/croutine.c **** 
 332:FreeRTOS/croutine.c **** 	/* listGET_OWNER_OF_NEXT_ENTRY walks through the list, so the co-routines
 333:FreeRTOS/croutine.c **** 	 of the	same priority get an equal share of the processor time. */
 334:FreeRTOS/croutine.c **** 	listGET_OWNER_OF_NEXT_ENTRY( pxCurrentCoRoutine, &( pxReadyCoRoutineLists[ uxTopCoRoutineReadyPrio
 677              		.loc 1 334 0
 678 003a 164B     		ldr	r3, .L39	@ tmp137,
 679 003c 1A68     		ldr	r2, [r3]	@ D.4597, uxTopCoRoutineReadyPriority
 680 003e 1346     		mov	r3, r2	@ tmp138, D.4597
 681 0040 9B00     		lsls	r3, r3, #2	@ tmp138, tmp138,
 682 0042 1344     		add	r3, r3, r2	@ tmp138, D.4597
 683 0044 9B00     		lsls	r3, r3, #2	@ tmp139, tmp138,
 684 0046 144A     		ldr	r2, .L39+4	@ tmp141,
 685 0048 1344     		add	r3, r3, r2	@ tmp140, tmp141
 686 004a 7B60     		str	r3, [r7, #4]	@ tmp140, pxConstList
 687 004c 7B68     		ldr	r3, [r7, #4]	@ tmp142, pxConstList
 688 004e 5B68     		ldr	r3, [r3, #4]	@ D.4598, pxConstList_7->pxIndex
 689 0050 5A68     		ldr	r2, [r3, #4]	@ D.4599, _8->pxNext
 690 0052 7B68     		ldr	r3, [r7, #4]	@ tmp143, pxConstList
 691 0054 5A60     		str	r2, [r3, #4]	@ D.4599, pxConstList_7->pxIndex
 692 0056 7B68     		ldr	r3, [r7, #4]	@ tmp144, pxConstList
 693 0058 5A68     		ldr	r2, [r3, #4]	@ D.4598, pxConstList_7->pxIndex
 694 005a 7B68     		ldr	r3, [r7, #4]	@ tmp145, pxConstList
 695 005c 0833     		adds	r3, r3, #8	@ D.4600, tmp145,
 696 005e 9A42     		cmp	r2, r3	@ D.4598, D.4600
 697 0060 04D1     		bne	.L38	@,
 698              		.loc 1 334 0 is_stmt 0 discriminator 1
 699 0062 7B68     		ldr	r3, [r7, #4]	@ tmp146, pxConstList
 700 0064 5B68     		ldr	r3, [r3, #4]	@ D.4598, pxConstList_7->pxIndex
 701 0066 5A68     		ldr	r2, [r3, #4]	@ D.4599, _12->pxNext
 702 0068 7B68     		ldr	r3, [r7, #4]	@ tmp147, pxConstList
 703 006a 5A60     		str	r2, [r3, #4]	@ D.4599, pxConstList_7->pxIndex
 704              	.L38:
 705              		.loc 1 334 0 discriminator 3
 706 006c 7B68     		ldr	r3, [r7, #4]	@ tmp148, pxConstList
 707 006e 5B68     		ldr	r3, [r3, #4]	@ D.4598, pxConstList_7->pxIndex
 708 0070 DB68     		ldr	r3, [r3, #12]	@ D.4601, _14->pvOwner
 709 0072 0A4A     		ldr	r2, .L39+8	@ tmp149,
 710 0074 1360     		str	r3, [r2]	@ D.4601, pxCurrentCoRoutine
 711              	.LBE4:
 335:FreeRTOS/croutine.c **** 
 336:FreeRTOS/croutine.c **** 	/* Call the co-routine. */
 337:FreeRTOS/croutine.c **** 	( pxCurrentCoRoutine->pxCoRoutineFunction )( pxCurrentCoRoutine, pxCurrentCoRoutine->uxIndex );
 712              		.loc 1 337 0 is_stmt 1 discriminator 3
 713 0076 094B     		ldr	r3, .L39+8	@ tmp150,
 714 0078 1B68     		ldr	r3, [r3]	@ D.4602, pxCurrentCoRoutine
 715 007a 1B68     		ldr	r3, [r3]	@ D.4603, _16->pxCoRoutineFunction
 716 007c 074A     		ldr	r2, .L39+8	@ tmp151,
 717 007e 1168     		ldr	r1, [r2]	@ D.4602, pxCurrentCoRoutine
 718 0080 064A     		ldr	r2, .L39+8	@ tmp152,
 719 0082 1268     		ldr	r2, [r2]	@ D.4602, pxCurrentCoRoutine
 720 0084 126B     		ldr	r2, [r2, #48]	@ D.4597, _19->uxIndex
 721 0086 0846     		mov	r0, r1	@, D.4602
 722 0088 1146     		mov	r1, r2	@, D.4597
 723 008a 9847     		blx	r3	@ D.4603
 338:FreeRTOS/croutine.c **** 
 339:FreeRTOS/croutine.c **** 	return;
 724              		.loc 1 339 0 discriminator 3
ARM GAS  C:\Users\COSMIN~1.MAR\AppData\Local\Temp\cctCMzVM.s 			page 20


 725 008c 00BF     		nop
 726              	.L33:
 340:FreeRTOS/croutine.c **** }
 727              		.loc 1 340 0
 728 008e 0837     		adds	r7, r7, #8	@,,
 729              		.cfi_def_cfa_offset 8
 730 0090 BD46     		mov	sp, r7	@,
 731              		.cfi_def_cfa_register 13
 732              		@ sp needed	@
 733 0092 80BD     		pop	{r7, pc}	@
 734              	.L40:
 735              		.align	2
 736              	.L39:
 737 0094 00000000 		.word	uxTopCoRoutineReadyPriority
 738 0098 00000000 		.word	pxReadyCoRoutineLists
 739 009c 00000000 		.word	pxCurrentCoRoutine
 740              		.cfi_endproc
 741              	.LFE5:
 742              		.size	vCoRoutineSchedule, .-vCoRoutineSchedule
 743              		.section	.text.prvInitialiseCoRoutineLists,"ax",%progbits
 744              		.align	2
 745              		.thumb
 746              		.thumb_func
 747              		.type	prvInitialiseCoRoutineLists, %function
 748              	prvInitialiseCoRoutineLists:
 749              	.LFB6:
 341:FreeRTOS/croutine.c **** /*-----------------------------------------------------------*/
 342:FreeRTOS/croutine.c **** 
 343:FreeRTOS/croutine.c **** static void prvInitialiseCoRoutineLists( void )
 344:FreeRTOS/croutine.c **** {
 750              		.loc 1 344 0
 751              		.cfi_startproc
 752              		@ args = 0, pretend = 0, frame = 8
 753              		@ frame_needed = 1, uses_anonymous_args = 0
 754 0000 80B5     		push	{r7, lr}	@
 755              		.cfi_def_cfa_offset 8
 756              		.cfi_offset 7, -8
 757              		.cfi_offset 14, -4
 758 0002 82B0     		sub	sp, sp, #8	@,,
 759              		.cfi_def_cfa_offset 16
 760 0004 00AF     		add	r7, sp, #0	@,,
 761              		.cfi_def_cfa_register 7
 345:FreeRTOS/croutine.c **** UBaseT_t uxPriority;
 346:FreeRTOS/croutine.c **** 
 347:FreeRTOS/croutine.c **** 	for( uxPriority = 0; uxPriority < configMAX_CO_ROUTINE_PRIORITIES; uxPriority++ )
 762              		.loc 1 347 0
 763 0006 0023     		movs	r3, #0	@ tmp111,
 764 0008 7B60     		str	r3, [r7, #4]	@ tmp111, uxPriority
 765 000a 0CE0     		b	.L42	@
 766              	.L43:
 348:FreeRTOS/croutine.c **** 	{
 349:FreeRTOS/croutine.c **** 		vListInitialise( ( List_t * ) &( pxReadyCoRoutineLists[ uxPriority ] ) );
 767              		.loc 1 349 0 discriminator 3
 768 000c 7A68     		ldr	r2, [r7, #4]	@ tmp112, uxPriority
 769 000e 1346     		mov	r3, r2	@ tmp113, tmp112
 770 0010 9B00     		lsls	r3, r3, #2	@ tmp113, tmp113,
 771 0012 1344     		add	r3, r3, r2	@ tmp113, tmp112
ARM GAS  C:\Users\COSMIN~1.MAR\AppData\Local\Temp\cctCMzVM.s 			page 21


 772 0014 9B00     		lsls	r3, r3, #2	@ tmp114, tmp113,
 773 0016 0E4A     		ldr	r2, .L44	@ tmp115,
 774 0018 1344     		add	r3, r3, r2	@ D.4604, tmp115
 775 001a 1846     		mov	r0, r3	@, D.4604
 776 001c FFF7FEFF 		bl	vListInitialise	@
 347:FreeRTOS/croutine.c **** 	{
 777              		.loc 1 347 0 discriminator 3
 778 0020 7B68     		ldr	r3, [r7, #4]	@ tmp117, uxPriority
 779 0022 0133     		adds	r3, r3, #1	@ tmp116, tmp117,
 780 0024 7B60     		str	r3, [r7, #4]	@ tmp116, uxPriority
 781              	.L42:
 347:FreeRTOS/croutine.c **** 	{
 782              		.loc 1 347 0 is_stmt 0 discriminator 1
 783 0026 7B68     		ldr	r3, [r7, #4]	@ tmp118, uxPriority
 784 0028 012B     		cmp	r3, #1	@ tmp118,
 785 002a EFD9     		bls	.L43	@,
 350:FreeRTOS/croutine.c **** 	}
 351:FreeRTOS/croutine.c **** 
 352:FreeRTOS/croutine.c **** 	vListInitialise( ( List_t * ) &xDelayedCoRoutineList1 );
 786              		.loc 1 352 0 is_stmt 1
 787 002c 0948     		ldr	r0, .L44+4	@,
 788 002e FFF7FEFF 		bl	vListInitialise	@
 353:FreeRTOS/croutine.c **** 	vListInitialise( ( List_t * ) &xDelayedCoRoutineList2 );
 789              		.loc 1 353 0
 790 0032 0948     		ldr	r0, .L44+8	@,
 791 0034 FFF7FEFF 		bl	vListInitialise	@
 354:FreeRTOS/croutine.c **** 	vListInitialise( ( List_t * ) &xPendingReadyCoRoutineList );
 792              		.loc 1 354 0
 793 0038 0848     		ldr	r0, .L44+12	@,
 794 003a FFF7FEFF 		bl	vListInitialise	@
 355:FreeRTOS/croutine.c **** 
 356:FreeRTOS/croutine.c **** 	/* Start with pxDelayedCoRoutineList using list1 and the
 357:FreeRTOS/croutine.c **** 	pxOverflowDelayedCoRoutineList using list2. */
 358:FreeRTOS/croutine.c **** 	pxDelayedCoRoutineList = &xDelayedCoRoutineList1;
 795              		.loc 1 358 0
 796 003e 084B     		ldr	r3, .L44+16	@ tmp119,
 797 0040 044A     		ldr	r2, .L44+4	@ tmp120,
 798 0042 1A60     		str	r2, [r3]	@ tmp120, pxDelayedCoRoutineList
 359:FreeRTOS/croutine.c **** 	pxOverflowDelayedCoRoutineList = &xDelayedCoRoutineList2;
 799              		.loc 1 359 0
 800 0044 074B     		ldr	r3, .L44+20	@ tmp121,
 801 0046 044A     		ldr	r2, .L44+8	@ tmp122,
 802 0048 1A60     		str	r2, [r3]	@ tmp122, pxOverflowDelayedCoRoutineList
 360:FreeRTOS/croutine.c **** }
 803              		.loc 1 360 0
 804 004a 0837     		adds	r7, r7, #8	@,,
 805              		.cfi_def_cfa_offset 8
 806 004c BD46     		mov	sp, r7	@,
 807              		.cfi_def_cfa_register 13
 808              		@ sp needed	@
 809 004e 80BD     		pop	{r7, pc}	@
 810              	.L45:
 811              		.align	2
 812              	.L44:
 813 0050 00000000 		.word	pxReadyCoRoutineLists
 814 0054 00000000 		.word	xDelayedCoRoutineList1
 815 0058 00000000 		.word	xDelayedCoRoutineList2
ARM GAS  C:\Users\COSMIN~1.MAR\AppData\Local\Temp\cctCMzVM.s 			page 22


 816 005c 00000000 		.word	xPendingReadyCoRoutineList
 817 0060 00000000 		.word	pxDelayedCoRoutineList
 818 0064 00000000 		.word	pxOverflowDelayedCoRoutineList
 819              		.cfi_endproc
 820              	.LFE6:
 821              		.size	prvInitialiseCoRoutineLists, .-prvInitialiseCoRoutineLists
 822              		.section	.text.xCoRoutineRemoveFromEventList,"ax",%progbits
 823              		.align	2
 824              		.global	xCoRoutineRemoveFromEventList
 825              		.thumb
 826              		.thumb_func
 827              		.type	xCoRoutineRemoveFromEventList, %function
 828              	xCoRoutineRemoveFromEventList:
 829              	.LFB7:
 361:FreeRTOS/croutine.c **** /*-----------------------------------------------------------*/
 362:FreeRTOS/croutine.c **** 
 363:FreeRTOS/croutine.c **** BaseT_t xCoRoutineRemoveFromEventList( const List_t *pxEventList )
 364:FreeRTOS/croutine.c **** {
 830              		.loc 1 364 0
 831              		.cfi_startproc
 832              		@ args = 0, pretend = 0, frame = 16
 833              		@ frame_needed = 1, uses_anonymous_args = 0
 834 0000 80B5     		push	{r7, lr}	@
 835              		.cfi_def_cfa_offset 8
 836              		.cfi_offset 7, -8
 837              		.cfi_offset 14, -4
 838 0002 84B0     		sub	sp, sp, #16	@,,
 839              		.cfi_def_cfa_offset 24
 840 0004 00AF     		add	r7, sp, #0	@,,
 841              		.cfi_def_cfa_register 7
 842 0006 7860     		str	r0, [r7, #4]	@ pxEventList, pxEventList
 365:FreeRTOS/croutine.c **** CRCB_t *pxUnblockedCRCB;
 366:FreeRTOS/croutine.c **** BaseT_t xReturn;
 367:FreeRTOS/croutine.c **** 
 368:FreeRTOS/croutine.c **** 	/* This function is called from within an interrupt.  It can only access
 369:FreeRTOS/croutine.c **** 	event lists and the pending ready list.  This function assumes that a
 370:FreeRTOS/croutine.c **** 	check has already been made to ensure pxEventList is not empty. */
 371:FreeRTOS/croutine.c **** 	pxUnblockedCRCB = ( CRCB_t * ) listGET_OWNER_OF_HEAD_ENTRY( pxEventList );
 843              		.loc 1 371 0
 844 0008 7B68     		ldr	r3, [r7, #4]	@ tmp118, pxEventList
 845 000a DB68     		ldr	r3, [r3, #12]	@ D.4605, pxEventList_2(D)->xListEnd.pxNext
 846 000c DB68     		ldr	r3, [r3, #12]	@ tmp119, _3->pvOwner
 847 000e BB60     		str	r3, [r7, #8]	@ tmp119, pxUnblockedCRCB
 372:FreeRTOS/croutine.c **** 	( void ) uxListRemove( &( pxUnblockedCRCB->xEventListItem ) );
 848              		.loc 1 372 0
 849 0010 BB68     		ldr	r3, [r7, #8]	@ tmp120, pxUnblockedCRCB
 850 0012 1833     		adds	r3, r3, #24	@ D.4606, tmp120,
 851 0014 1846     		mov	r0, r3	@, D.4606
 852 0016 FFF7FEFF 		bl	uxListRemove	@
 373:FreeRTOS/croutine.c **** 	vListInsertEnd( ( List_t * ) &( xPendingReadyCoRoutineList ), &( pxUnblockedCRCB->xEventListItem )
 853              		.loc 1 373 0
 854 001a BB68     		ldr	r3, [r7, #8]	@ tmp121, pxUnblockedCRCB
 855 001c 1833     		adds	r3, r3, #24	@ D.4606, tmp121,
 856 001e 0A48     		ldr	r0, .L50	@,
 857 0020 1946     		mov	r1, r3	@, D.4606
 858 0022 FFF7FEFF 		bl	vListInsertEnd	@
 374:FreeRTOS/croutine.c **** 
ARM GAS  C:\Users\COSMIN~1.MAR\AppData\Local\Temp\cctCMzVM.s 			page 23


 375:FreeRTOS/croutine.c **** 	if( pxUnblockedCRCB->uxPriority >= pxCurrentCoRoutine->uxPriority )
 859              		.loc 1 375 0
 860 0026 BB68     		ldr	r3, [r7, #8]	@ tmp122, pxUnblockedCRCB
 861 0028 DA6A     		ldr	r2, [r3, #44]	@ D.4607, pxUnblockedCRCB_4->uxPriority
 862 002a 084B     		ldr	r3, .L50+4	@ tmp123,
 863 002c 1B68     		ldr	r3, [r3]	@ D.4608, pxCurrentCoRoutine
 864 002e DB6A     		ldr	r3, [r3, #44]	@ D.4607, _8->uxPriority
 865 0030 9A42     		cmp	r2, r3	@ D.4607, D.4607
 866 0032 02D3     		bcc	.L47	@,
 376:FreeRTOS/croutine.c **** 	{
 377:FreeRTOS/croutine.c **** 		xReturn = pdTRUE;
 867              		.loc 1 377 0
 868 0034 0123     		movs	r3, #1	@ tmp124,
 869 0036 FB60     		str	r3, [r7, #12]	@ tmp124, xReturn
 870 0038 01E0     		b	.L48	@
 871              	.L47:
 378:FreeRTOS/croutine.c **** 	}
 379:FreeRTOS/croutine.c **** 	else
 380:FreeRTOS/croutine.c **** 	{
 381:FreeRTOS/croutine.c **** 		xReturn = pdFALSE;
 872              		.loc 1 381 0
 873 003a 0023     		movs	r3, #0	@ tmp125,
 874 003c FB60     		str	r3, [r7, #12]	@ tmp125, xReturn
 875              	.L48:
 382:FreeRTOS/croutine.c **** 	}
 383:FreeRTOS/croutine.c **** 
 384:FreeRTOS/croutine.c **** 	return xReturn;
 876              		.loc 1 384 0
 877 003e FB68     		ldr	r3, [r7, #12]	@ D.4609, xReturn
 385:FreeRTOS/croutine.c **** }
 878              		.loc 1 385 0
 879 0040 1846     		mov	r0, r3	@, <retval>
 880 0042 1037     		adds	r7, r7, #16	@,,
 881              		.cfi_def_cfa_offset 8
 882 0044 BD46     		mov	sp, r7	@,
 883              		.cfi_def_cfa_register 13
 884              		@ sp needed	@
 885 0046 80BD     		pop	{r7, pc}	@
 886              	.L51:
 887              		.align	2
 888              	.L50:
 889 0048 00000000 		.word	xPendingReadyCoRoutineList
 890 004c 00000000 		.word	pxCurrentCoRoutine
 891              		.cfi_endproc
 892              	.LFE7:
 893              		.size	xCoRoutineRemoveFromEventList, .-xCoRoutineRemoveFromEventList
 894              		.text
 895              	.Letext0:
 896              		.file 2 "c:\\gnu tools arm embedded\\4.9 2015q1\\arm-none-eabi\\include\\machine\\_default_types.h
 897              		.file 3 "c:\\gnu tools arm embedded\\4.9 2015q1\\arm-none-eabi\\include\\stdint.h"
 898              		.file 4 "FreeRTOS/portable/GCC/ARM_CM3/portmacro.h"
 899              		.file 5 "FreeRTOS/include/list.h"
 900              		.file 6 "FreeRTOS/include/croutine.h"