ARM GAS  C:\Users\STUDENT\AppData\Local\Temp\cci7by6v.s 			page 1


   1              		.syntax unified
   2              		.cpu cortex-m3
   3              		.fpu softvfp
   4              		.eabi_attribute 20, 1	@ Tag_ABI_FP_denormal
   5              		.eabi_attribute 21, 1	@ Tag_ABI_FP_exceptions
   6              		.eabi_attribute 23, 3	@ Tag_ABI_FP_number_model
   7              		.eabi_attribute 24, 1	@ Tag_ABI_align8_needed
   8              		.eabi_attribute 25, 1	@ Tag_ABI_align8_preserved
   9              		.eabi_attribute 26, 1	@ Tag_ABI_enum_size
  10              		.eabi_attribute 30, 6	@ Tag_ABI_optimization_goals
  11              		.eabi_attribute 34, 1	@ Tag_CPU_unaligned_access
  12              		.eabi_attribute 18, 4	@ Tag_ABI_PCS_wchar_t
  13              		.file	"heap_2.c"
  14              	@ GNU C89 (GNU Tools for ARM Embedded Processors) version 5.4.1 20160919 (release) [ARM/embedded-5-
  15              	@	compiled by GNU C version 4.7.4, GMP version 4.3.2, MPFR version 2.4.2, MPC version 0.8.1
  16              	@ GGC heuristics: --param ggc-min-expand=100 --param ggc-min-heapsize=131072
  17              	@ options passed:  -I . -I config -I system -I core -I drivers -I FreeRTOS
  18              	@ -I FreeRTOS/include -I FreeRTOS/portable/GCC/ARM_CM3 -I FreeRTOS/portable
  19              	@ -I tasks/rc_task_leds -I tasks/rc_task_pot -I modules/rc_leds
  20              	@ -I modules/rc_pot -I drivers/rc_system -I drivers/rc_gpio
  21              	@ -I drivers/rc_uart -I drivers/rc_pinsel -I drivers/rc_timer
  22              	@ -I drivers/rc_adc -imultilib armv7-m
  23              	@ -iprefix c:\program files (x86)\gnu tools arm embedded\5.4 2016q3\bin\../lib/gcc/arm-none-eabi/5.
  24              	@ -isysroot c:\program files (x86)\gnu tools arm embedded\5.4 2016q3\bin\../arm-none-eabi
  25              	@ -MD out/heap_2.d -MF out/heap_2.d -MP -MQ out/heap_2.o
  26              	@ -D__USES_INITFINI__ FreeRTOS/portable/heap_2.c -mcpu=cortex-m3 -mthumb
  27              	@ -auxbase-strip out/heap_2.o -g -ggdb3 -O0 -Wall -Wstrict-prototypes
  28              	@ -Wextra -std=gnu90 -ffunction-sections -fdata-sections -fverbose-asm
  29              	@ options enabled:  -faggressive-loop-optimizations -fauto-inc-dec
  30              	@ -fchkp-check-incomplete-type -fchkp-check-read -fchkp-check-write
  31              	@ -fchkp-instrument-calls -fchkp-narrow-bounds -fchkp-optimize
  32              	@ -fchkp-store-bounds -fchkp-use-static-bounds
  33              	@ -fchkp-use-static-const-bounds -fchkp-use-wrappers -fcommon
  34              	@ -fdata-sections -fdelete-null-pointer-checks -fdwarf2-cfi-asm
  35              	@ -fearly-inlining -feliminate-unused-debug-types -ffunction-cse
  36              	@ -ffunction-sections -fgcse-lm -fgnu-runtime -fgnu-unique -fident
  37              	@ -finline-atomics -fira-hoist-pressure -fira-share-save-slots
  38              	@ -fira-share-spill-slots -fivopts -fkeep-static-consts
  39              	@ -fleading-underscore -flifetime-dse -flto-odr-type-merging -fmath-errno
  40              	@ -fmerge-debug-strings -fpeephole -fprefetch-loop-arrays
  41              	@ -freg-struct-return -fsched-critical-path-heuristic
  42              	@ -fsched-dep-count-heuristic -fsched-group-heuristic -fsched-interblock
  43              	@ -fsched-last-insn-heuristic -fsched-rank-heuristic -fsched-spec
  44              	@ -fsched-spec-insn-heuristic -fsched-stalled-insns-dep
  45              	@ -fsemantic-interposition -fshow-column -fsigned-zeros
  46              	@ -fsplit-ivs-in-unroller -fstdarg-opt -fstrict-volatile-bitfields
  47              	@ -fsync-libcalls -ftrapping-math -ftree-coalesce-vars -ftree-cselim
  48              	@ -ftree-forwprop -ftree-loop-if-convert -ftree-loop-im -ftree-loop-ivcanon
  49              	@ -ftree-loop-optimize -ftree-parallelize-loops= -ftree-phiprop
  50              	@ -ftree-reassoc -ftree-scev-cprop -funit-at-a-time -fverbose-asm
  51              	@ -fzero-initialized-in-bss -masm-syntax-unified -mfix-cortex-m3-ldrd
  52              	@ -mlittle-endian -mpic-data-is-text-relative -msched-prolog -mthumb
  53              	@ -munaligned-access -mvectorize-with-neon-quad
  54              	
  55              		.text
  56              	.Ltext0:
  57              		.cfi_sections	.debug_frame
ARM GAS  C:\Users\STUDENT\AppData\Local\Temp\cci7by6v.s 			page 2


  58              		.section	.bss.ucHeap,"aw",%nobits
  59              		.align	2
  60              		.type	ucHeap, %object
  61              		.size	ucHeap, 8192
  62              	ucHeap:
  63 0000 00000000 		.space	8192
  63      00000000 
  63      00000000 
  63      00000000 
  63      00000000 
  64              		.section	.rodata.heapSTRUCT_SIZE,"a",%progbits
  65              		.align	1
  66              		.type	heapSTRUCT_SIZE, %object
  67              		.size	heapSTRUCT_SIZE, 2
  68              	heapSTRUCT_SIZE:
  69 0000 0800     		.short	8
  70              		.section	.bss.xStart,"aw",%nobits
  71              		.align	2
  72              		.type	xStart, %object
  73              		.size	xStart, 8
  74              	xStart:
  75 0000 00000000 		.space	8
  75      00000000 
  76              		.section	.bss.xEnd,"aw",%nobits
  77              		.align	2
  78              		.type	xEnd, %object
  79              		.size	xEnd, 8
  80              	xEnd:
  81 0000 00000000 		.space	8
  81      00000000 
  82              		.section	.data.xFreeBytesRemaining,"aw",%progbits
  83              		.align	2
  84              		.type	xFreeBytesRemaining, %object
  85              		.size	xFreeBytesRemaining, 4
  86              	xFreeBytesRemaining:
  87 0000 F81F0000 		.word	8184
  88              		.section	.text.pvPortMalloc,"ax",%progbits
  89              		.align	2
  90              		.global	pvPortMalloc
  91              		.thumb
  92              		.thumb_func
  93              		.type	pvPortMalloc, %function
  94              	pvPortMalloc:
  95              	.LFB1:
  96              		.file 1 "FreeRTOS/portable/heap_2.c"
   1:FreeRTOS/portable/heap_2.c **** /*
   2:FreeRTOS/portable/heap_2.c ****     FreeRTOS V8.1.2 - Copyright (C) 2014 Real Time Engineers Ltd.
   3:FreeRTOS/portable/heap_2.c ****     All rights reserved
   4:FreeRTOS/portable/heap_2.c **** 
   5:FreeRTOS/portable/heap_2.c ****     VISIT http://www.FreeRTOS.org TO ENSURE YOU ARE USING THE LATEST VERSION.
   6:FreeRTOS/portable/heap_2.c **** 
   7:FreeRTOS/portable/heap_2.c ****     ***************************************************************************
   8:FreeRTOS/portable/heap_2.c ****      *                                                                       *
   9:FreeRTOS/portable/heap_2.c ****      *    FreeRTOS provides completely free yet professionally developed,    *
  10:FreeRTOS/portable/heap_2.c ****      *    robust, strictly quality controlled, supported, and cross          *
  11:FreeRTOS/portable/heap_2.c ****      *    platform software that has become a de facto standard.             *
  12:FreeRTOS/portable/heap_2.c ****      *                                                                       *
ARM GAS  C:\Users\STUDENT\AppData\Local\Temp\cci7by6v.s 			page 3


  13:FreeRTOS/portable/heap_2.c ****      *    Help yourself get started quickly and support the FreeRTOS         *
  14:FreeRTOS/portable/heap_2.c ****      *    project by purchasing a FreeRTOS tutorial book, reference          *
  15:FreeRTOS/portable/heap_2.c ****      *    manual, or both from: http://www.FreeRTOS.org/Documentation        *
  16:FreeRTOS/portable/heap_2.c ****      *                                                                       *
  17:FreeRTOS/portable/heap_2.c ****      *    Thank you!                                                         *
  18:FreeRTOS/portable/heap_2.c ****      *                                                                       *
  19:FreeRTOS/portable/heap_2.c ****     ***************************************************************************
  20:FreeRTOS/portable/heap_2.c **** 
  21:FreeRTOS/portable/heap_2.c ****     This file is part of the FreeRTOS distribution.
  22:FreeRTOS/portable/heap_2.c **** 
  23:FreeRTOS/portable/heap_2.c ****     FreeRTOS is free software; you can redistribute it and/or modify it under
  24:FreeRTOS/portable/heap_2.c ****     the terms of the GNU General Public License (version 2) as published by the
  25:FreeRTOS/portable/heap_2.c ****     Free Software Foundation >>!AND MODIFIED BY!<< the FreeRTOS exception.
  26:FreeRTOS/portable/heap_2.c **** 
  27:FreeRTOS/portable/heap_2.c ****     >>!   NOTE: The modification to the GPL is included to allow you to     !<<
  28:FreeRTOS/portable/heap_2.c ****     >>!   distribute a combined work that includes FreeRTOS without being   !<<
  29:FreeRTOS/portable/heap_2.c ****     >>!   obliged to provide the source code for proprietary components     !<<
  30:FreeRTOS/portable/heap_2.c ****     >>!   outside of the FreeRTOS kernel.                                   !<<
  31:FreeRTOS/portable/heap_2.c **** 
  32:FreeRTOS/portable/heap_2.c ****     FreeRTOS is distributed in the hope that it will be useful, but WITHOUT ANY
  33:FreeRTOS/portable/heap_2.c ****     WARRANTY; without even the implied warranty of MERCHANTABILITY or FITNESS
  34:FreeRTOS/portable/heap_2.c ****     FOR A PARTICULAR PURPOSE.  Full license text is available from the following
  35:FreeRTOS/portable/heap_2.c ****     link: http://www.freertos.org/a00114.html
  36:FreeRTOS/portable/heap_2.c **** 
  37:FreeRTOS/portable/heap_2.c ****     1 tab == 4 spaces!
  38:FreeRTOS/portable/heap_2.c **** 
  39:FreeRTOS/portable/heap_2.c ****     ***************************************************************************
  40:FreeRTOS/portable/heap_2.c ****      *                                                                       *
  41:FreeRTOS/portable/heap_2.c ****      *    Having a problem?  Start by reading the FAQ "My application does   *
  42:FreeRTOS/portable/heap_2.c ****      *    not run, what could be wrong?"                                     *
  43:FreeRTOS/portable/heap_2.c ****      *                                                                       *
  44:FreeRTOS/portable/heap_2.c ****      *    http://www.FreeRTOS.org/FAQHelp.html                               *
  45:FreeRTOS/portable/heap_2.c ****      *                                                                       *
  46:FreeRTOS/portable/heap_2.c ****     ***************************************************************************
  47:FreeRTOS/portable/heap_2.c **** 
  48:FreeRTOS/portable/heap_2.c ****     http://www.FreeRTOS.org - Documentation, books, training, latest versions,
  49:FreeRTOS/portable/heap_2.c ****     license and Real Time Engineers Ltd. contact details.
  50:FreeRTOS/portable/heap_2.c **** 
  51:FreeRTOS/portable/heap_2.c ****     http://www.FreeRTOS.org/plus - A selection of FreeRTOS ecosystem products,
  52:FreeRTOS/portable/heap_2.c ****     including FreeRTOS+Trace - an indispensable productivity tool, a DOS
  53:FreeRTOS/portable/heap_2.c ****     compatible FAT file system, and our tiny thread aware UDP/IP stack.
  54:FreeRTOS/portable/heap_2.c **** 
  55:FreeRTOS/portable/heap_2.c ****     http://www.OpenRTOS.com - Real Time Engineers ltd license FreeRTOS to High
  56:FreeRTOS/portable/heap_2.c ****     Integrity Systems to sell under the OpenRTOS brand.  Low cost OpenRTOS
  57:FreeRTOS/portable/heap_2.c ****     licenses offer ticketed support, indemnification and middleware.
  58:FreeRTOS/portable/heap_2.c **** 
  59:FreeRTOS/portable/heap_2.c ****     http://www.SafeRTOS.com - High Integrity Systems also provide a safety
  60:FreeRTOS/portable/heap_2.c ****     engineered and independently SIL3 certified version for use in safety and
  61:FreeRTOS/portable/heap_2.c ****     mission critical applications that require provable dependability.
  62:FreeRTOS/portable/heap_2.c **** 
  63:FreeRTOS/portable/heap_2.c ****     1 tab == 4 spaces!
  64:FreeRTOS/portable/heap_2.c **** */
  65:FreeRTOS/portable/heap_2.c **** 
  66:FreeRTOS/portable/heap_2.c **** /*
  67:FreeRTOS/portable/heap_2.c ****  * A sample implementation of pvPortMalloc() and vPortFree() that permits
  68:FreeRTOS/portable/heap_2.c ****  * allocated blocks to be freed, but does not combine adjacent free blocks
  69:FreeRTOS/portable/heap_2.c ****  * into a single larger block (and so will fragment memory).  See heap_4.c for
ARM GAS  C:\Users\STUDENT\AppData\Local\Temp\cci7by6v.s 			page 4


  70:FreeRTOS/portable/heap_2.c ****  * an equivalent that does combine adjacent blocks into single larger blocks.
  71:FreeRTOS/portable/heap_2.c ****  *
  72:FreeRTOS/portable/heap_2.c ****  * See heap_1.c, heap_3.c and heap_4.c for alternative implementations, and the
  73:FreeRTOS/portable/heap_2.c ****  * memory management pages of http://www.FreeRTOS.org for more information.
  74:FreeRTOS/portable/heap_2.c ****  */
  75:FreeRTOS/portable/heap_2.c **** #include <stdlib.h>
  76:FreeRTOS/portable/heap_2.c **** 
  77:FreeRTOS/portable/heap_2.c **** /* Defining MPU_WRAPPERS_INCLUDED_FROM_API_FILE prevents task.h from redefining
  78:FreeRTOS/portable/heap_2.c **** all the API functions to use the MPU wrappers.  That should only be done when
  79:FreeRTOS/portable/heap_2.c **** task.h is included from an application file. */
  80:FreeRTOS/portable/heap_2.c **** #define MPU_WRAPPERS_INCLUDED_FROM_API_FILE
  81:FreeRTOS/portable/heap_2.c **** 
  82:FreeRTOS/portable/heap_2.c **** #include "FreeRTOS.h"
  83:FreeRTOS/portable/heap_2.c **** #include "task.h"
  84:FreeRTOS/portable/heap_2.c **** 
  85:FreeRTOS/portable/heap_2.c **** #undef MPU_WRAPPERS_INCLUDED_FROM_API_FILE
  86:FreeRTOS/portable/heap_2.c **** 
  87:FreeRTOS/portable/heap_2.c **** /* A few bytes might be lost to byte aligning the heap start address. */
  88:FreeRTOS/portable/heap_2.c **** #define configADJUSTED_HEAP_SIZE	( configTOTAL_HEAP_SIZE - portBYTE_ALIGNMENT )
  89:FreeRTOS/portable/heap_2.c **** 
  90:FreeRTOS/portable/heap_2.c **** /*
  91:FreeRTOS/portable/heap_2.c ****  * Initialises the heap structures before their first use.
  92:FreeRTOS/portable/heap_2.c ****  */
  93:FreeRTOS/portable/heap_2.c **** static void prvHeapInit( void );
  94:FreeRTOS/portable/heap_2.c **** 
  95:FreeRTOS/portable/heap_2.c **** /* Allocate the memory for the heap. */
  96:FreeRTOS/portable/heap_2.c **** //__attribute__ ((section(".rtos")))
  97:FreeRTOS/portable/heap_2.c **** static uint8_t ucHeap[ configTOTAL_HEAP_SIZE ];
  98:FreeRTOS/portable/heap_2.c **** 
  99:FreeRTOS/portable/heap_2.c **** /* Define the linked list structure.  This is used to link free blocks in order
 100:FreeRTOS/portable/heap_2.c **** of their size. */
 101:FreeRTOS/portable/heap_2.c **** typedef struct A_BLOCK_LINK
 102:FreeRTOS/portable/heap_2.c **** {
 103:FreeRTOS/portable/heap_2.c **** 	struct A_BLOCK_LINK *pxNextFreeBlock;	/*<< The next free block in the list. */
 104:FreeRTOS/portable/heap_2.c **** 	size_t xBlockSize;						/*<< The size of the free block. */
 105:FreeRTOS/portable/heap_2.c **** } BlockLink_t;
 106:FreeRTOS/portable/heap_2.c **** 
 107:FreeRTOS/portable/heap_2.c **** 
 108:FreeRTOS/portable/heap_2.c **** static const uint16_t heapSTRUCT_SIZE	= ( ( sizeof ( BlockLink_t ) + ( portBYTE_ALIGNMENT - 1 ) ) &
 109:FreeRTOS/portable/heap_2.c **** #define heapMINIMUM_BLOCK_SIZE	( ( size_t ) ( heapSTRUCT_SIZE * 2 ) )
 110:FreeRTOS/portable/heap_2.c **** 
 111:FreeRTOS/portable/heap_2.c **** /* Create a couple of list links to mark the start and end of the list. */
 112:FreeRTOS/portable/heap_2.c **** static BlockLink_t xStart, xEnd;
 113:FreeRTOS/portable/heap_2.c **** 
 114:FreeRTOS/portable/heap_2.c **** /* Keeps track of the number of free bytes remaining, but says nothing about
 115:FreeRTOS/portable/heap_2.c **** fragmentation. */
 116:FreeRTOS/portable/heap_2.c **** static size_t xFreeBytesRemaining = configADJUSTED_HEAP_SIZE;
 117:FreeRTOS/portable/heap_2.c **** 
 118:FreeRTOS/portable/heap_2.c **** /* STATIC FUNCTIONS ARE DEFINED AS MACROS TO MINIMIZE THE FUNCTION CALL DEPTH. */
 119:FreeRTOS/portable/heap_2.c **** 
 120:FreeRTOS/portable/heap_2.c **** /*
 121:FreeRTOS/portable/heap_2.c ****  * Insert a block into the list of free blocks - which is ordered by size of
 122:FreeRTOS/portable/heap_2.c ****  * the block.  Small blocks at the start of the list and large blocks at the end
 123:FreeRTOS/portable/heap_2.c ****  * of the list.
 124:FreeRTOS/portable/heap_2.c ****  */
 125:FreeRTOS/portable/heap_2.c **** #define prvInsertBlockIntoFreeList( pxBlockToInsert )								\
 126:FreeRTOS/portable/heap_2.c **** {																					\
ARM GAS  C:\Users\STUDENT\AppData\Local\Temp\cci7by6v.s 			page 5


 127:FreeRTOS/portable/heap_2.c **** BlockLink_t *pxIterator;																\
 128:FreeRTOS/portable/heap_2.c **** size_t xBlockSize;																	\
 129:FreeRTOS/portable/heap_2.c **** 																					\
 130:FreeRTOS/portable/heap_2.c **** 	xBlockSize = pxBlockToInsert->xBlockSize;										\
 131:FreeRTOS/portable/heap_2.c **** 																					\
 132:FreeRTOS/portable/heap_2.c **** 	/* Iterate through the list until a block is found that has a larger size */	\
 133:FreeRTOS/portable/heap_2.c **** 	/* than the block we are inserting. */											\
 134:FreeRTOS/portable/heap_2.c **** 	for( pxIterator = &xStart; pxIterator->pxNextFreeBlock->xBlockSize < xBlockSize; pxIterator = pxIt
 135:FreeRTOS/portable/heap_2.c **** 	{																				\
 136:FreeRTOS/portable/heap_2.c **** 		/* There is nothing to do here - just iterate to the correct position. */	\
 137:FreeRTOS/portable/heap_2.c **** 	}																				\
 138:FreeRTOS/portable/heap_2.c **** 																					\
 139:FreeRTOS/portable/heap_2.c **** 	/* Update the list to include the block being inserted in the correct */		\
 140:FreeRTOS/portable/heap_2.c **** 	/* position. */																	\
 141:FreeRTOS/portable/heap_2.c **** 	pxBlockToInsert->pxNextFreeBlock = pxIterator->pxNextFreeBlock;					\
 142:FreeRTOS/portable/heap_2.c **** 	pxIterator->pxNextFreeBlock = pxBlockToInsert;									\
 143:FreeRTOS/portable/heap_2.c **** }
 144:FreeRTOS/portable/heap_2.c **** /*-----------------------------------------------------------*/
 145:FreeRTOS/portable/heap_2.c **** 
 146:FreeRTOS/portable/heap_2.c **** void *pvPortMalloc( size_t xWantedSize )
 147:FreeRTOS/portable/heap_2.c **** {
  97              		.loc 1 147 0
  98              		.cfi_startproc
  99              		@ args = 0, pretend = 0, frame = 32
 100              		@ frame_needed = 1, uses_anonymous_args = 0
 101 0000 80B5     		push	{r7, lr}	@
 102              		.cfi_def_cfa_offset 8
 103              		.cfi_offset 7, -8
 104              		.cfi_offset 14, -4
 105 0002 88B0     		sub	sp, sp, #32	@,,
 106              		.cfi_def_cfa_offset 40
 107 0004 00AF     		add	r7, sp, #0	@,,
 108              		.cfi_def_cfa_register 7
 109 0006 7860     		str	r0, [r7, #4]	@ xWantedSize, xWantedSize
 148:FreeRTOS/portable/heap_2.c **** BlockLink_t *pxBlock, *pxPreviousBlock, *pxNewBlockLink;
 149:FreeRTOS/portable/heap_2.c **** static BaseType_t xHeapHasBeenInitialised = pdFALSE;
 150:FreeRTOS/portable/heap_2.c **** void *pvReturn = NULL;
 110              		.loc 1 150 0
 111 0008 0023     		movs	r3, #0	@ tmp137,
 112 000a 7B61     		str	r3, [r7, #20]	@ tmp137, pvReturn
 151:FreeRTOS/portable/heap_2.c **** 
 152:FreeRTOS/portable/heap_2.c **** 	vTaskSuspendAll();
 113              		.loc 1 152 0
 114 000c FFF7FEFF 		bl	vTaskSuspendAll	@
 153:FreeRTOS/portable/heap_2.c **** 	{
 154:FreeRTOS/portable/heap_2.c **** 		/* If this is the first call to malloc then the heap will require
 155:FreeRTOS/portable/heap_2.c **** 		initialisation to setup the list of free blocks. */
 156:FreeRTOS/portable/heap_2.c **** 		if( xHeapHasBeenInitialised == pdFALSE )
 115              		.loc 1 156 0
 116 0010 3E4B     		ldr	r3, .L12	@ tmp138,
 117 0012 1B68     		ldr	r3, [r3]	@ D.5140, xHeapHasBeenInitialised
 118 0014 002B     		cmp	r3, #0	@ D.5140,
 119 0016 04D1     		bne	.L2	@,
 157:FreeRTOS/portable/heap_2.c **** 		{
 158:FreeRTOS/portable/heap_2.c **** 			prvHeapInit();
 120              		.loc 1 158 0
 121 0018 FFF7FEFF 		bl	prvHeapInit	@
ARM GAS  C:\Users\STUDENT\AppData\Local\Temp\cci7by6v.s 			page 6


 159:FreeRTOS/portable/heap_2.c **** 			xHeapHasBeenInitialised = pdTRUE;
 122              		.loc 1 159 0
 123 001c 3B4B     		ldr	r3, .L12	@ tmp139,
 124 001e 0122     		movs	r2, #1	@ tmp140,
 125 0020 1A60     		str	r2, [r3]	@ tmp140, xHeapHasBeenInitialised
 126              	.L2:
 160:FreeRTOS/portable/heap_2.c **** 		}
 161:FreeRTOS/portable/heap_2.c **** 
 162:FreeRTOS/portable/heap_2.c **** 		/* The wanted size is increased so it can contain a BlockLink_t
 163:FreeRTOS/portable/heap_2.c **** 		structure in addition to the requested amount of bytes. */
 164:FreeRTOS/portable/heap_2.c **** 		if( xWantedSize > 0 )
 127              		.loc 1 164 0
 128 0022 7B68     		ldr	r3, [r7, #4]	@ tmp141, xWantedSize
 129 0024 002B     		cmp	r3, #0	@ tmp141,
 130 0026 0ED0     		beq	.L3	@,
 165:FreeRTOS/portable/heap_2.c **** 		{
 166:FreeRTOS/portable/heap_2.c **** 			xWantedSize += heapSTRUCT_SIZE;
 131              		.loc 1 166 0
 132 0028 0823     		movs	r3, #8	@ D.5141,
 133 002a 1A46     		mov	r2, r3	@ D.5142, D.5141
 134 002c 7B68     		ldr	r3, [r7, #4]	@ tmp143, xWantedSize
 135 002e 1344     		add	r3, r3, r2	@ tmp142, D.5142
 136 0030 7B60     		str	r3, [r7, #4]	@ tmp142, xWantedSize
 167:FreeRTOS/portable/heap_2.c **** 
 168:FreeRTOS/portable/heap_2.c **** 			/* Ensure that blocks are always aligned to the required number of bytes. */
 169:FreeRTOS/portable/heap_2.c **** 			if( ( xWantedSize & portBYTE_ALIGNMENT_MASK ) != 0 )
 137              		.loc 1 169 0
 138 0032 7B68     		ldr	r3, [r7, #4]	@ tmp144, xWantedSize
 139 0034 03F00703 		and	r3, r3, #7	@ D.5142, tmp144,
 140 0038 002B     		cmp	r3, #0	@ D.5142,
 141 003a 04D0     		beq	.L3	@,
 170:FreeRTOS/portable/heap_2.c **** 			{
 171:FreeRTOS/portable/heap_2.c **** 				/* Byte alignment required. */
 172:FreeRTOS/portable/heap_2.c **** 				xWantedSize += ( portBYTE_ALIGNMENT - ( xWantedSize & portBYTE_ALIGNMENT_MASK ) );
 142              		.loc 1 172 0
 143 003c 7B68     		ldr	r3, [r7, #4]	@ tmp145, xWantedSize
 144 003e 23F00703 		bic	r3, r3, #7	@ D.5142, tmp145,
 145 0042 0833     		adds	r3, r3, #8	@ tmp146, D.5142,
 146 0044 7B60     		str	r3, [r7, #4]	@ tmp146, xWantedSize
 147              	.L3:
 173:FreeRTOS/portable/heap_2.c **** 			}
 174:FreeRTOS/portable/heap_2.c **** 		}
 175:FreeRTOS/portable/heap_2.c **** 
 176:FreeRTOS/portable/heap_2.c **** 		if( ( xWantedSize > 0 ) && ( xWantedSize < configADJUSTED_HEAP_SIZE ) )
 148              		.loc 1 176 0
 149 0046 7B68     		ldr	r3, [r7, #4]	@ tmp147, xWantedSize
 150 0048 002B     		cmp	r3, #0	@ tmp147,
 151 004a 57D0     		beq	.L4	@,
 152              		.loc 1 176 0 is_stmt 0 discriminator 1
 153 004c 7B68     		ldr	r3, [r7, #4]	@ tmp148, xWantedSize
 154 004e 41F6F772 		movw	r2, #8183	@ tmp149,
 155 0052 9342     		cmp	r3, r2	@ tmp148, tmp149
 156 0054 52D8     		bhi	.L4	@,
 177:FreeRTOS/portable/heap_2.c **** 		{
 178:FreeRTOS/portable/heap_2.c **** 			/* Blocks are stored in byte order - traverse the list from the start
 179:FreeRTOS/portable/heap_2.c **** 			(smallest) block until one of adequate size is found. */
 180:FreeRTOS/portable/heap_2.c **** 			pxPreviousBlock = &xStart;
ARM GAS  C:\Users\STUDENT\AppData\Local\Temp\cci7by6v.s 			page 7


 157              		.loc 1 180 0 is_stmt 1
 158 0056 2E4B     		ldr	r3, .L12+4	@ tmp150,
 159 0058 BB61     		str	r3, [r7, #24]	@ tmp150, pxPreviousBlock
 181:FreeRTOS/portable/heap_2.c **** 			pxBlock = xStart.pxNextFreeBlock;
 160              		.loc 1 181 0
 161 005a 2D4B     		ldr	r3, .L12+4	@ tmp151,
 162 005c 1B68     		ldr	r3, [r3]	@ tmp152, xStart.pxNextFreeBlock
 163 005e FB61     		str	r3, [r7, #28]	@ tmp152, pxBlock
 182:FreeRTOS/portable/heap_2.c **** 			while( ( pxBlock->xBlockSize < xWantedSize ) && ( pxBlock->pxNextFreeBlock != NULL ) )
 164              		.loc 1 182 0
 165 0060 04E0     		b	.L5	@
 166              	.L7:
 183:FreeRTOS/portable/heap_2.c **** 			{
 184:FreeRTOS/portable/heap_2.c **** 				pxPreviousBlock = pxBlock;
 167              		.loc 1 184 0
 168 0062 FB69     		ldr	r3, [r7, #28]	@ tmp153, pxBlock
 169 0064 BB61     		str	r3, [r7, #24]	@ tmp153, pxPreviousBlock
 185:FreeRTOS/portable/heap_2.c **** 				pxBlock = pxBlock->pxNextFreeBlock;
 170              		.loc 1 185 0
 171 0066 FB69     		ldr	r3, [r7, #28]	@ tmp154, pxBlock
 172 0068 1B68     		ldr	r3, [r3]	@ tmp155, pxBlock_2->pxNextFreeBlock
 173 006a FB61     		str	r3, [r7, #28]	@ tmp155, pxBlock
 174              	.L5:
 182:FreeRTOS/portable/heap_2.c **** 			while( ( pxBlock->xBlockSize < xWantedSize ) && ( pxBlock->pxNextFreeBlock != NULL ) )
 175              		.loc 1 182 0
 176 006c FB69     		ldr	r3, [r7, #28]	@ tmp156, pxBlock
 177 006e 5A68     		ldr	r2, [r3, #4]	@ D.5142, pxBlock_2->xBlockSize
 178 0070 7B68     		ldr	r3, [r7, #4]	@ tmp157, xWantedSize
 179 0072 9A42     		cmp	r2, r3	@ D.5142, tmp157
 180 0074 03D2     		bcs	.L6	@,
 182:FreeRTOS/portable/heap_2.c **** 			while( ( pxBlock->xBlockSize < xWantedSize ) && ( pxBlock->pxNextFreeBlock != NULL ) )
 181              		.loc 1 182 0 is_stmt 0 discriminator 1
 182 0076 FB69     		ldr	r3, [r7, #28]	@ tmp158, pxBlock
 183 0078 1B68     		ldr	r3, [r3]	@ D.5143, pxBlock_2->pxNextFreeBlock
 184 007a 002B     		cmp	r3, #0	@ D.5143,
 185 007c F1D1     		bne	.L7	@,
 186              	.L6:
 186:FreeRTOS/portable/heap_2.c **** 			}
 187:FreeRTOS/portable/heap_2.c **** 
 188:FreeRTOS/portable/heap_2.c **** 			/* If we found the end marker then a block of adequate size was not found. */
 189:FreeRTOS/portable/heap_2.c **** 			if( pxBlock != &xEnd )
 187              		.loc 1 189 0 is_stmt 1
 188 007e FB69     		ldr	r3, [r7, #28]	@ tmp159, pxBlock
 189 0080 244A     		ldr	r2, .L12+8	@ tmp160,
 190 0082 9342     		cmp	r3, r2	@ tmp159, tmp160
 191 0084 3AD0     		beq	.L4	@,
 190:FreeRTOS/portable/heap_2.c **** 			{
 191:FreeRTOS/portable/heap_2.c **** 				/* Return the memory space - jumping over the BlockLink_t structure
 192:FreeRTOS/portable/heap_2.c **** 				at its start. */
 193:FreeRTOS/portable/heap_2.c **** 				pvReturn = ( void * ) ( ( ( uint8_t * ) pxPreviousBlock->pxNextFreeBlock ) + heapSTRUCT_SIZE );
 192              		.loc 1 193 0
 193 0086 BB69     		ldr	r3, [r7, #24]	@ tmp161, pxPreviousBlock
 194 0088 1B68     		ldr	r3, [r3]	@ D.5143, pxPreviousBlock_3->pxNextFreeBlock
 195 008a 0822     		movs	r2, #8	@ D.5141,
 196 008c 1344     		add	r3, r3, r2	@ tmp162, D.5144
 197 008e 7B61     		str	r3, [r7, #20]	@ tmp162, pvReturn
 194:FreeRTOS/portable/heap_2.c **** 
ARM GAS  C:\Users\STUDENT\AppData\Local\Temp\cci7by6v.s 			page 8


 195:FreeRTOS/portable/heap_2.c **** 				/* This block is being returned for use so must be taken out of the
 196:FreeRTOS/portable/heap_2.c **** 				list of free blocks. */
 197:FreeRTOS/portable/heap_2.c **** 				pxPreviousBlock->pxNextFreeBlock = pxBlock->pxNextFreeBlock;
 198              		.loc 1 197 0
 199 0090 FB69     		ldr	r3, [r7, #28]	@ tmp163, pxBlock
 200 0092 1A68     		ldr	r2, [r3]	@ D.5143, pxBlock_2->pxNextFreeBlock
 201 0094 BB69     		ldr	r3, [r7, #24]	@ tmp164, pxPreviousBlock
 202 0096 1A60     		str	r2, [r3]	@ D.5143, pxPreviousBlock_3->pxNextFreeBlock
 198:FreeRTOS/portable/heap_2.c **** 
 199:FreeRTOS/portable/heap_2.c **** 				/* If the block is larger than required it can be split into two. */
 200:FreeRTOS/portable/heap_2.c **** 				if( ( pxBlock->xBlockSize - xWantedSize ) > heapMINIMUM_BLOCK_SIZE )
 203              		.loc 1 200 0
 204 0098 FB69     		ldr	r3, [r7, #28]	@ tmp165, pxBlock
 205 009a 5A68     		ldr	r2, [r3, #4]	@ D.5142, pxBlock_2->xBlockSize
 206 009c 7B68     		ldr	r3, [r7, #4]	@ tmp166, xWantedSize
 207 009e D31A     		subs	r3, r2, r3	@ D.5142, D.5142, tmp166
 208 00a0 0822     		movs	r2, #8	@ D.5141,
 209 00a2 5200     		lsls	r2, r2, #1	@ D.5145, D.5145,
 210 00a4 9342     		cmp	r3, r2	@ D.5142, D.5142
 211 00a6 22D9     		bls	.L8	@,
 201:FreeRTOS/portable/heap_2.c **** 				{
 202:FreeRTOS/portable/heap_2.c **** 					/* This block is to be split into two.  Create a new block
 203:FreeRTOS/portable/heap_2.c **** 					following the number of bytes requested. The void cast is
 204:FreeRTOS/portable/heap_2.c **** 					used to prevent byte alignment warnings from the compiler. */
 205:FreeRTOS/portable/heap_2.c **** 					pxNewBlockLink = ( void * ) ( ( ( uint8_t * ) pxBlock ) + xWantedSize );
 212              		.loc 1 205 0
 213 00a8 FA69     		ldr	r2, [r7, #28]	@ tmp168, pxBlock
 214 00aa 7B68     		ldr	r3, [r7, #4]	@ tmp169, xWantedSize
 215 00ac 1344     		add	r3, r3, r2	@ tmp167, tmp168
 216 00ae FB60     		str	r3, [r7, #12]	@ tmp167, pxNewBlockLink
 206:FreeRTOS/portable/heap_2.c **** 
 207:FreeRTOS/portable/heap_2.c **** 					/* Calculate the sizes of two blocks split from the single
 208:FreeRTOS/portable/heap_2.c **** 					block. */
 209:FreeRTOS/portable/heap_2.c **** 					pxNewBlockLink->xBlockSize = pxBlock->xBlockSize - xWantedSize;
 217              		.loc 1 209 0
 218 00b0 FB69     		ldr	r3, [r7, #28]	@ tmp170, pxBlock
 219 00b2 5A68     		ldr	r2, [r3, #4]	@ D.5142, pxBlock_2->xBlockSize
 220 00b4 7B68     		ldr	r3, [r7, #4]	@ tmp171, xWantedSize
 221 00b6 D21A     		subs	r2, r2, r3	@ D.5142, D.5142, tmp171
 222 00b8 FB68     		ldr	r3, [r7, #12]	@ tmp172, pxNewBlockLink
 223 00ba 5A60     		str	r2, [r3, #4]	@ D.5142, pxNewBlockLink_40->xBlockSize
 210:FreeRTOS/portable/heap_2.c **** 					pxBlock->xBlockSize = xWantedSize;
 224              		.loc 1 210 0
 225 00bc FB69     		ldr	r3, [r7, #28]	@ tmp173, pxBlock
 226 00be 7A68     		ldr	r2, [r7, #4]	@ tmp174, xWantedSize
 227 00c0 5A60     		str	r2, [r3, #4]	@ tmp174, pxBlock_2->xBlockSize
 228              	.LBB2:
 211:FreeRTOS/portable/heap_2.c **** 
 212:FreeRTOS/portable/heap_2.c **** 					/* Insert the new block into the list of free blocks. */
 213:FreeRTOS/portable/heap_2.c **** 					prvInsertBlockIntoFreeList( ( pxNewBlockLink ) );
 229              		.loc 1 213 0
 230 00c2 FB68     		ldr	r3, [r7, #12]	@ tmp175, pxNewBlockLink
 231 00c4 5B68     		ldr	r3, [r3, #4]	@ tmp176, pxNewBlockLink_40->xBlockSize
 232 00c6 BB60     		str	r3, [r7, #8]	@ tmp176, xBlockSize
 233 00c8 114B     		ldr	r3, .L12+4	@ tmp177,
 234 00ca 3B61     		str	r3, [r7, #16]	@ tmp177, pxIterator
 235 00cc 02E0     		b	.L9	@
ARM GAS  C:\Users\STUDENT\AppData\Local\Temp\cci7by6v.s 			page 9


 236              	.L10:
 237              		.loc 1 213 0 is_stmt 0 discriminator 3
 238 00ce 3B69     		ldr	r3, [r7, #16]	@ tmp178, pxIterator
 239 00d0 1B68     		ldr	r3, [r3]	@ tmp179, pxIterator_5->pxNextFreeBlock
 240 00d2 3B61     		str	r3, [r7, #16]	@ tmp179, pxIterator
 241              	.L9:
 242              		.loc 1 213 0 discriminator 1
 243 00d4 3B69     		ldr	r3, [r7, #16]	@ tmp180, pxIterator
 244 00d6 1B68     		ldr	r3, [r3]	@ D.5143, pxIterator_5->pxNextFreeBlock
 245 00d8 5A68     		ldr	r2, [r3, #4]	@ D.5142, _47->xBlockSize
 246 00da BB68     		ldr	r3, [r7, #8]	@ tmp181, xBlockSize
 247 00dc 9A42     		cmp	r2, r3	@ D.5142, tmp181
 248 00de F6D3     		bcc	.L10	@,
 249              		.loc 1 213 0 discriminator 4
 250 00e0 3B69     		ldr	r3, [r7, #16]	@ tmp182, pxIterator
 251 00e2 1A68     		ldr	r2, [r3]	@ D.5143, pxIterator_5->pxNextFreeBlock
 252 00e4 FB68     		ldr	r3, [r7, #12]	@ tmp183, pxNewBlockLink
 253 00e6 1A60     		str	r2, [r3]	@ D.5143, pxNewBlockLink_40->pxNextFreeBlock
 254 00e8 3B69     		ldr	r3, [r7, #16]	@ tmp184, pxIterator
 255 00ea FA68     		ldr	r2, [r7, #12]	@ tmp185, pxNewBlockLink
 256 00ec 1A60     		str	r2, [r3]	@ tmp185, pxIterator_5->pxNextFreeBlock
 257              	.L8:
 258              	.LBE2:
 214:FreeRTOS/portable/heap_2.c **** 				}
 215:FreeRTOS/portable/heap_2.c **** 
 216:FreeRTOS/portable/heap_2.c **** 				xFreeBytesRemaining -= pxBlock->xBlockSize;
 259              		.loc 1 216 0 is_stmt 1
 260 00ee 0A4B     		ldr	r3, .L12+12	@ tmp186,
 261 00f0 1A68     		ldr	r2, [r3]	@ D.5142, xFreeBytesRemaining
 262 00f2 FB69     		ldr	r3, [r7, #28]	@ tmp187, pxBlock
 263 00f4 5B68     		ldr	r3, [r3, #4]	@ D.5142, pxBlock_2->xBlockSize
 264 00f6 D31A     		subs	r3, r2, r3	@ D.5142, D.5142, D.5142
 265 00f8 074A     		ldr	r2, .L12+12	@ tmp188,
 266 00fa 1360     		str	r3, [r2]	@ D.5142, xFreeBytesRemaining
 267              	.L4:
 217:FreeRTOS/portable/heap_2.c **** 			}
 218:FreeRTOS/portable/heap_2.c **** 		}
 219:FreeRTOS/portable/heap_2.c **** 
 220:FreeRTOS/portable/heap_2.c **** 		traceMALLOC( pvReturn, xWantedSize );
 221:FreeRTOS/portable/heap_2.c **** 	}
 222:FreeRTOS/portable/heap_2.c **** 	( void ) xTaskResumeAll();
 268              		.loc 1 222 0
 269 00fc FFF7FEFF 		bl	xTaskResumeAll	@
 223:FreeRTOS/portable/heap_2.c **** 
 224:FreeRTOS/portable/heap_2.c **** 	#if( configUSE_MALLOC_FAILED_HOOK == 1 )
 225:FreeRTOS/portable/heap_2.c **** 	{
 226:FreeRTOS/portable/heap_2.c **** 		if( pvReturn == NULL )
 227:FreeRTOS/portable/heap_2.c **** 		{
 228:FreeRTOS/portable/heap_2.c **** 			extern void vApplicationMallocFailedHook( void );
 229:FreeRTOS/portable/heap_2.c **** 			vApplicationMallocFailedHook();
 230:FreeRTOS/portable/heap_2.c **** 		}
 231:FreeRTOS/portable/heap_2.c **** 	}
 232:FreeRTOS/portable/heap_2.c **** 	#endif
 233:FreeRTOS/portable/heap_2.c **** 
 234:FreeRTOS/portable/heap_2.c **** 	return pvReturn;
 270              		.loc 1 234 0
 271 0100 7B69     		ldr	r3, [r7, #20]	@ D.5146, pvReturn
ARM GAS  C:\Users\STUDENT\AppData\Local\Temp\cci7by6v.s 			page 10


 235:FreeRTOS/portable/heap_2.c **** }
 272              		.loc 1 235 0
 273 0102 1846     		mov	r0, r3	@, <retval>
 274 0104 2037     		adds	r7, r7, #32	@,,
 275              		.cfi_def_cfa_offset 8
 276 0106 BD46     		mov	sp, r7	@,
 277              		.cfi_def_cfa_register 13
 278              		@ sp needed	@
 279 0108 80BD     		pop	{r7, pc}	@
 280              	.L13:
 281 010a 00BF     		.align	2
 282              	.L12:
 283 010c 00000000 		.word	xHeapHasBeenInitialised.5044
 284 0110 00000000 		.word	xStart
 285 0114 00000000 		.word	xEnd
 286 0118 00000000 		.word	xFreeBytesRemaining
 287              		.cfi_endproc
 288              	.LFE1:
 289              		.size	pvPortMalloc, .-pvPortMalloc
 290              		.section	.text.vPortFree,"ax",%progbits
 291              		.align	2
 292              		.global	vPortFree
 293              		.thumb
 294              		.thumb_func
 295              		.type	vPortFree, %function
 296              	vPortFree:
 297              	.LFB2:
 236:FreeRTOS/portable/heap_2.c **** /*-----------------------------------------------------------*/
 237:FreeRTOS/portable/heap_2.c **** 
 238:FreeRTOS/portable/heap_2.c **** void vPortFree( void *pv )
 239:FreeRTOS/portable/heap_2.c **** {
 298              		.loc 1 239 0
 299              		.cfi_startproc
 300              		@ args = 0, pretend = 0, frame = 24
 301              		@ frame_needed = 1, uses_anonymous_args = 0
 302 0000 80B5     		push	{r7, lr}	@
 303              		.cfi_def_cfa_offset 8
 304              		.cfi_offset 7, -8
 305              		.cfi_offset 14, -4
 306 0002 86B0     		sub	sp, sp, #24	@,,
 307              		.cfi_def_cfa_offset 32
 308 0004 00AF     		add	r7, sp, #0	@,,
 309              		.cfi_def_cfa_register 7
 310 0006 7860     		str	r0, [r7, #4]	@ pv, pv
 240:FreeRTOS/portable/heap_2.c **** uint8_t *puc = ( uint8_t * ) pv;
 311              		.loc 1 240 0
 312 0008 7B68     		ldr	r3, [r7, #4]	@ tmp119, pv
 313 000a 3B61     		str	r3, [r7, #16]	@ tmp119, puc
 241:FreeRTOS/portable/heap_2.c **** BlockLink_t *pxLink;
 242:FreeRTOS/portable/heap_2.c **** 
 243:FreeRTOS/portable/heap_2.c **** 	if( pv != NULL )
 314              		.loc 1 243 0
 315 000c 7B68     		ldr	r3, [r7, #4]	@ tmp120, pv
 316 000e 002B     		cmp	r3, #0	@ tmp120,
 317 0010 27D0     		beq	.L18	@,
 244:FreeRTOS/portable/heap_2.c **** 	{
 245:FreeRTOS/portable/heap_2.c **** 		/* The memory being freed will have an BlockLink_t structure immediately
ARM GAS  C:\Users\STUDENT\AppData\Local\Temp\cci7by6v.s 			page 11


 246:FreeRTOS/portable/heap_2.c **** 		before it. */
 247:FreeRTOS/portable/heap_2.c **** 		puc -= heapSTRUCT_SIZE;
 318              		.loc 1 247 0
 319 0012 0823     		movs	r3, #8	@ D.5147,
 320 0014 5B42     		negs	r3, r3	@ D.5148, D.5148
 321 0016 3A69     		ldr	r2, [r7, #16]	@ tmp122, puc
 322 0018 1344     		add	r3, r3, r2	@ tmp121, tmp122
 323 001a 3B61     		str	r3, [r7, #16]	@ tmp121, puc
 248:FreeRTOS/portable/heap_2.c **** 
 249:FreeRTOS/portable/heap_2.c **** 		/* This unexpected casting is to keep some compilers from issuing
 250:FreeRTOS/portable/heap_2.c **** 		byte alignment warnings. */
 251:FreeRTOS/portable/heap_2.c **** 		pxLink = ( void * ) puc;
 324              		.loc 1 251 0
 325 001c 3B69     		ldr	r3, [r7, #16]	@ tmp123, puc
 326 001e FB60     		str	r3, [r7, #12]	@ tmp123, pxLink
 252:FreeRTOS/portable/heap_2.c **** 
 253:FreeRTOS/portable/heap_2.c **** 		vTaskSuspendAll();
 327              		.loc 1 253 0
 328 0020 FFF7FEFF 		bl	vTaskSuspendAll	@
 329              	.LBB3:
 254:FreeRTOS/portable/heap_2.c **** 		{
 255:FreeRTOS/portable/heap_2.c **** 			/* Add this block to the list of free blocks. */
 256:FreeRTOS/portable/heap_2.c **** 			prvInsertBlockIntoFreeList( ( ( BlockLink_t * ) pxLink ) );
 330              		.loc 1 256 0
 331 0024 FB68     		ldr	r3, [r7, #12]	@ tmp124, pxLink
 332 0026 5B68     		ldr	r3, [r3, #4]	@ tmp125, pxLink_10->xBlockSize
 333 0028 BB60     		str	r3, [r7, #8]	@ tmp125, xBlockSize
 334 002a 104B     		ldr	r3, .L19	@ tmp126,
 335 002c 7B61     		str	r3, [r7, #20]	@ tmp126, pxIterator
 336 002e 02E0     		b	.L16	@
 337              	.L17:
 338              		.loc 1 256 0 is_stmt 0 discriminator 3
 339 0030 7B69     		ldr	r3, [r7, #20]	@ tmp127, pxIterator
 340 0032 1B68     		ldr	r3, [r3]	@ tmp128, pxIterator_1->pxNextFreeBlock
 341 0034 7B61     		str	r3, [r7, #20]	@ tmp128, pxIterator
 342              	.L16:
 343              		.loc 1 256 0 discriminator 1
 344 0036 7B69     		ldr	r3, [r7, #20]	@ tmp129, pxIterator
 345 0038 1B68     		ldr	r3, [r3]	@ D.5149, pxIterator_1->pxNextFreeBlock
 346 003a 5A68     		ldr	r2, [r3, #4]	@ D.5150, _14->xBlockSize
 347 003c BB68     		ldr	r3, [r7, #8]	@ tmp130, xBlockSize
 348 003e 9A42     		cmp	r2, r3	@ D.5150, tmp130
 349 0040 F6D3     		bcc	.L17	@,
 350              		.loc 1 256 0 discriminator 4
 351 0042 7B69     		ldr	r3, [r7, #20]	@ tmp131, pxIterator
 352 0044 1A68     		ldr	r2, [r3]	@ D.5149, pxIterator_1->pxNextFreeBlock
 353 0046 FB68     		ldr	r3, [r7, #12]	@ tmp132, pxLink
 354 0048 1A60     		str	r2, [r3]	@ D.5149, pxLink_10->pxNextFreeBlock
 355 004a 7B69     		ldr	r3, [r7, #20]	@ tmp133, pxIterator
 356 004c FA68     		ldr	r2, [r7, #12]	@ tmp134, pxLink
 357 004e 1A60     		str	r2, [r3]	@ tmp134, pxIterator_1->pxNextFreeBlock
 358              	.LBE3:
 257:FreeRTOS/portable/heap_2.c **** 			xFreeBytesRemaining += pxLink->xBlockSize;
 359              		.loc 1 257 0 is_stmt 1 discriminator 4
 360 0050 FB68     		ldr	r3, [r7, #12]	@ tmp135, pxLink
 361 0052 5A68     		ldr	r2, [r3, #4]	@ D.5150, pxLink_10->xBlockSize
 362 0054 064B     		ldr	r3, .L19+4	@ tmp136,
ARM GAS  C:\Users\STUDENT\AppData\Local\Temp\cci7by6v.s 			page 12


 363 0056 1B68     		ldr	r3, [r3]	@ D.5150, xFreeBytesRemaining
 364 0058 1344     		add	r3, r3, r2	@ D.5150, D.5150
 365 005a 054A     		ldr	r2, .L19+4	@ tmp137,
 366 005c 1360     		str	r3, [r2]	@ D.5150, xFreeBytesRemaining
 258:FreeRTOS/portable/heap_2.c **** 			traceFREE( pv, pxLink->xBlockSize );
 259:FreeRTOS/portable/heap_2.c **** 		}
 260:FreeRTOS/portable/heap_2.c **** 		( void ) xTaskResumeAll();
 367              		.loc 1 260 0 discriminator 4
 368 005e FFF7FEFF 		bl	xTaskResumeAll	@
 369              	.L18:
 261:FreeRTOS/portable/heap_2.c **** 	}
 262:FreeRTOS/portable/heap_2.c **** }
 370              		.loc 1 262 0
 371 0062 00BF     		nop
 372 0064 1837     		adds	r7, r7, #24	@,,
 373              		.cfi_def_cfa_offset 8
 374 0066 BD46     		mov	sp, r7	@,
 375              		.cfi_def_cfa_register 13
 376              		@ sp needed	@
 377 0068 80BD     		pop	{r7, pc}	@
 378              	.L20:
 379 006a 00BF     		.align	2
 380              	.L19:
 381 006c 00000000 		.word	xStart
 382 0070 00000000 		.word	xFreeBytesRemaining
 383              		.cfi_endproc
 384              	.LFE2:
 385              		.size	vPortFree, .-vPortFree
 386              		.section	.text.xPortGetFreeHeapSize,"ax",%progbits
 387              		.align	2
 388              		.global	xPortGetFreeHeapSize
 389              		.thumb
 390              		.thumb_func
 391              		.type	xPortGetFreeHeapSize, %function
 392              	xPortGetFreeHeapSize:
 393              	.LFB3:
 263:FreeRTOS/portable/heap_2.c **** /*-----------------------------------------------------------*/
 264:FreeRTOS/portable/heap_2.c **** 
 265:FreeRTOS/portable/heap_2.c **** size_t xPortGetFreeHeapSize( void )
 266:FreeRTOS/portable/heap_2.c **** {
 394              		.loc 1 266 0
 395              		.cfi_startproc
 396              		@ args = 0, pretend = 0, frame = 0
 397              		@ frame_needed = 1, uses_anonymous_args = 0
 398              		@ link register save eliminated.
 399 0000 80B4     		push	{r7}	@
 400              		.cfi_def_cfa_offset 4
 401              		.cfi_offset 7, -4
 402 0002 00AF     		add	r7, sp, #0	@,,
 403              		.cfi_def_cfa_register 7
 267:FreeRTOS/portable/heap_2.c **** 	return xFreeBytesRemaining;
 404              		.loc 1 267 0
 405 0004 024B     		ldr	r3, .L23	@ tmp112,
 406 0006 1B68     		ldr	r3, [r3]	@ D.5151, xFreeBytesRemaining
 268:FreeRTOS/portable/heap_2.c **** }
 407              		.loc 1 268 0
 408 0008 1846     		mov	r0, r3	@, <retval>
ARM GAS  C:\Users\STUDENT\AppData\Local\Temp\cci7by6v.s 			page 13


 409 000a BD46     		mov	sp, r7	@,
 410              		.cfi_def_cfa_register 13
 411              		@ sp needed	@
 412 000c 80BC     		pop	{r7}	@
 413              		.cfi_restore 7
 414              		.cfi_def_cfa_offset 0
 415 000e 7047     		bx	lr	@
 416              	.L24:
 417              		.align	2
 418              	.L23:
 419 0010 00000000 		.word	xFreeBytesRemaining
 420              		.cfi_endproc
 421              	.LFE3:
 422              		.size	xPortGetFreeHeapSize, .-xPortGetFreeHeapSize
 423              		.section	.text.vPortInitialiseBlocks,"ax",%progbits
 424              		.align	2
 425              		.global	vPortInitialiseBlocks
 426              		.thumb
 427              		.thumb_func
 428              		.type	vPortInitialiseBlocks, %function
 429              	vPortInitialiseBlocks:
 430              	.LFB4:
 269:FreeRTOS/portable/heap_2.c **** /*-----------------------------------------------------------*/
 270:FreeRTOS/portable/heap_2.c **** 
 271:FreeRTOS/portable/heap_2.c **** void vPortInitialiseBlocks( void )
 272:FreeRTOS/portable/heap_2.c **** {
 431              		.loc 1 272 0
 432              		.cfi_startproc
 433              		@ args = 0, pretend = 0, frame = 0
 434              		@ frame_needed = 1, uses_anonymous_args = 0
 435              		@ link register save eliminated.
 436 0000 80B4     		push	{r7}	@
 437              		.cfi_def_cfa_offset 4
 438              		.cfi_offset 7, -4
 439 0002 00AF     		add	r7, sp, #0	@,,
 440              		.cfi_def_cfa_register 7
 273:FreeRTOS/portable/heap_2.c **** 	/* This just exists to keep the linker quiet. */
 274:FreeRTOS/portable/heap_2.c **** }
 441              		.loc 1 274 0
 442 0004 00BF     		nop
 443 0006 BD46     		mov	sp, r7	@,
 444              		.cfi_def_cfa_register 13
 445              		@ sp needed	@
 446 0008 80BC     		pop	{r7}	@
 447              		.cfi_restore 7
 448              		.cfi_def_cfa_offset 0
 449 000a 7047     		bx	lr	@
 450              		.cfi_endproc
 451              	.LFE4:
 452              		.size	vPortInitialiseBlocks, .-vPortInitialiseBlocks
 453              		.section	.text.prvHeapInit,"ax",%progbits
 454              		.align	2
 455              		.thumb
 456              		.thumb_func
 457              		.type	prvHeapInit, %function
 458              	prvHeapInit:
 459              	.LFB5:
ARM GAS  C:\Users\STUDENT\AppData\Local\Temp\cci7by6v.s 			page 14


 275:FreeRTOS/portable/heap_2.c **** /*-----------------------------------------------------------*/
 276:FreeRTOS/portable/heap_2.c **** 
 277:FreeRTOS/portable/heap_2.c **** static void prvHeapInit( void )
 278:FreeRTOS/portable/heap_2.c **** {
 460              		.loc 1 278 0
 461              		.cfi_startproc
 462              		@ args = 0, pretend = 0, frame = 8
 463              		@ frame_needed = 1, uses_anonymous_args = 0
 464              		@ link register save eliminated.
 465 0000 80B4     		push	{r7}	@
 466              		.cfi_def_cfa_offset 4
 467              		.cfi_offset 7, -4
 468 0002 83B0     		sub	sp, sp, #12	@,,
 469              		.cfi_def_cfa_offset 16
 470 0004 00AF     		add	r7, sp, #0	@,,
 471              		.cfi_def_cfa_register 7
 279:FreeRTOS/portable/heap_2.c **** BlockLink_t *pxFirstFreeBlock;
 280:FreeRTOS/portable/heap_2.c **** uint8_t *pucAlignedHeap;
 281:FreeRTOS/portable/heap_2.c **** 
 282:FreeRTOS/portable/heap_2.c **** 	/* Ensure the heap starts on a correctly aligned boundary. */
 283:FreeRTOS/portable/heap_2.c **** 	pucAlignedHeap = ( uint8_t * ) ( ( ( portPOINTER_SIZE_TYPE ) &ucHeap[ portBYTE_ALIGNMENT ] ) & ( (
 472              		.loc 1 283 0
 473 0006 0F4B     		ldr	r3, .L27	@ D.5152,
 474 0008 23F00703 		bic	r3, r3, #7	@ D.5152, D.5152,
 475 000c 7B60     		str	r3, [r7, #4]	@ D.5152, pucAlignedHeap
 284:FreeRTOS/portable/heap_2.c **** 
 285:FreeRTOS/portable/heap_2.c **** 	/* xStart is used to hold a pointer to the first item in the list of free
 286:FreeRTOS/portable/heap_2.c **** 	blocks.  The void cast is used to prevent compiler warnings. */
 287:FreeRTOS/portable/heap_2.c **** 	xStart.pxNextFreeBlock = ( void * ) pucAlignedHeap;
 476              		.loc 1 287 0
 477 000e 0E4A     		ldr	r2, .L27+4	@ tmp112,
 478 0010 7B68     		ldr	r3, [r7, #4]	@ tmp113, pucAlignedHeap
 479 0012 1360     		str	r3, [r2]	@ tmp113, xStart.pxNextFreeBlock
 288:FreeRTOS/portable/heap_2.c **** 	xStart.xBlockSize = ( size_t ) 0;
 480              		.loc 1 288 0
 481 0014 0C4B     		ldr	r3, .L27+4	@ tmp114,
 482 0016 0022     		movs	r2, #0	@ tmp115,
 483 0018 5A60     		str	r2, [r3, #4]	@ tmp115, xStart.xBlockSize
 289:FreeRTOS/portable/heap_2.c **** 
 290:FreeRTOS/portable/heap_2.c **** 	/* xEnd is used to mark the end of the list of free blocks. */
 291:FreeRTOS/portable/heap_2.c **** 	xEnd.xBlockSize = configADJUSTED_HEAP_SIZE;
 484              		.loc 1 291 0
 485 001a 0C4B     		ldr	r3, .L27+8	@ tmp116,
 486 001c 41F6F872 		movw	r2, #8184	@ tmp117,
 487 0020 5A60     		str	r2, [r3, #4]	@ tmp117, xEnd.xBlockSize
 292:FreeRTOS/portable/heap_2.c **** 	xEnd.pxNextFreeBlock = NULL;
 488              		.loc 1 292 0
 489 0022 0A4B     		ldr	r3, .L27+8	@ tmp118,
 490 0024 0022     		movs	r2, #0	@ tmp119,
 491 0026 1A60     		str	r2, [r3]	@ tmp119, xEnd.pxNextFreeBlock
 293:FreeRTOS/portable/heap_2.c **** 
 294:FreeRTOS/portable/heap_2.c **** 	/* To start with there is a single free block that is sized to take up the
 295:FreeRTOS/portable/heap_2.c **** 	entire heap space. */
 296:FreeRTOS/portable/heap_2.c **** 	pxFirstFreeBlock = ( void * ) pucAlignedHeap;
 492              		.loc 1 296 0
 493 0028 7B68     		ldr	r3, [r7, #4]	@ tmp120, pucAlignedHeap
 494 002a 3B60     		str	r3, [r7]	@ tmp120, pxFirstFreeBlock
ARM GAS  C:\Users\STUDENT\AppData\Local\Temp\cci7by6v.s 			page 15


 297:FreeRTOS/portable/heap_2.c **** 	pxFirstFreeBlock->xBlockSize = configADJUSTED_HEAP_SIZE;
 495              		.loc 1 297 0
 496 002c 3B68     		ldr	r3, [r7]	@ tmp121, pxFirstFreeBlock
 497 002e 41F6F872 		movw	r2, #8184	@ tmp122,
 498 0032 5A60     		str	r2, [r3, #4]	@ tmp122, pxFirstFreeBlock_9->xBlockSize
 298:FreeRTOS/portable/heap_2.c **** 	pxFirstFreeBlock->pxNextFreeBlock = &xEnd;
 499              		.loc 1 298 0
 500 0034 3B68     		ldr	r3, [r7]	@ tmp123, pxFirstFreeBlock
 501 0036 054A     		ldr	r2, .L27+8	@ tmp124,
 502 0038 1A60     		str	r2, [r3]	@ tmp124, pxFirstFreeBlock_9->pxNextFreeBlock
 299:FreeRTOS/portable/heap_2.c **** }
 503              		.loc 1 299 0
 504 003a 00BF     		nop
 505 003c 0C37     		adds	r7, r7, #12	@,,
 506              		.cfi_def_cfa_offset 4
 507 003e BD46     		mov	sp, r7	@,
 508              		.cfi_def_cfa_register 13
 509              		@ sp needed	@
 510 0040 80BC     		pop	{r7}	@
 511              		.cfi_restore 7
 512              		.cfi_def_cfa_offset 0
 513 0042 7047     		bx	lr	@
 514              	.L28:
 515              		.align	2
 516              	.L27:
 517 0044 08000000 		.word	ucHeap+8
 518 0048 00000000 		.word	xStart
 519 004c 00000000 		.word	xEnd
 520              		.cfi_endproc
 521              	.LFE5:
 522              		.size	prvHeapInit, .-prvHeapInit
 523              		.section	.bss.xHeapHasBeenInitialised.5044,"aw",%nobits
 524              		.align	2
 525              		.type	xHeapHasBeenInitialised.5044, %object
 526              		.size	xHeapHasBeenInitialised.5044, 4
 527              	xHeapHasBeenInitialised.5044:
 528 0000 00000000 		.space	4
 529              		.text
 530              	.Letext0:
 531              		.file 2 "c:\\program files (x86)\\gnu tools arm embedded\\5.4 2016q3\\lib\\gcc\\arm-none-eabi\\5.4
 532              		.file 3 "c:\\program files (x86)\\gnu tools arm embedded\\5.4 2016q3\\arm-none-eabi\\include\\mach
 533              		.file 4 "c:\\program files (x86)\\gnu tools arm embedded\\5.4 2016q3\\arm-none-eabi\\include\\sys\
 534              		.file 5 "FreeRTOS/portable/GCC/ARM_CM3/portmacro.h"