ARM GAS  C:\Users\STUDENT\AppData\Local\Temp\ccXSiJmk.s 			page 1


   1              		.syntax unified
   2              		.cpu cortex-m3
   3              		.fpu softvfp
   4              		.eabi_attribute 20, 1	@ Tag_ABI_FP_denormal
   5              		.eabi_attribute 21, 1	@ Tag_ABI_FP_exceptions
   6              		.eabi_attribute 23, 3	@ Tag_ABI_FP_number_model
   7              		.eabi_attribute 24, 1	@ Tag_ABI_align8_needed
   8              		.eabi_attribute 25, 1	@ Tag_ABI_align8_preserved
   9              		.eabi_attribute 26, 1	@ Tag_ABI_enum_size
  10              		.eabi_attribute 30, 6	@ Tag_ABI_optimization_goals
  11              		.eabi_attribute 34, 1	@ Tag_CPU_unaligned_access
  12              		.eabi_attribute 18, 4	@ Tag_ABI_PCS_wchar_t
  13              		.file	"lpc17xx_adc.c"
  14              	@ GNU C89 (GNU Tools for ARM Embedded Processors) version 5.4.1 20160919 (release) [ARM/embedded-5-
  15              	@	compiled by GNU C version 4.7.4, GMP version 4.3.2, MPFR version 2.4.2, MPC version 0.8.1
  16              	@ GGC heuristics: --param ggc-min-expand=100 --param ggc-min-heapsize=131072
  17              	@ options passed:  -I . -I config -I system -I core -I drivers -I FreeRTOS
  18              	@ -I FreeRTOS/include -I FreeRTOS/portable/GCC/ARM_CM3 -I FreeRTOS/portable
  19              	@ -I tasks/rc_task_leds -I tasks/rc_task_pot -I modules/rc_leds
  20              	@ -I modules/rc_pot -I drivers/rc_system -I drivers/rc_gpio
  21              	@ -I drivers/rc_uart -I drivers/rc_pinsel -I drivers/rc_timer
  22              	@ -I drivers/rc_adc -imultilib armv7-m
  23              	@ -iprefix c:\program files (x86)\gnu tools arm embedded\5.4 2016q3\bin\../lib/gcc/arm-none-eabi/5.
  24              	@ -isysroot c:\program files (x86)\gnu tools arm embedded\5.4 2016q3\bin\../arm-none-eabi
  25              	@ -MD out/lpc17xx_adc.d -MF out/lpc17xx_adc.d -MP -MQ out/lpc17xx_adc.o
  26              	@ -D__USES_INITFINI__ core/lpc17xx_adc.c -mcpu=cortex-m3 -mthumb
  27              	@ -auxbase-strip out/lpc17xx_adc.o -g -ggdb3 -O0 -Wall -Wstrict-prototypes
  28              	@ -Wextra -std=gnu90 -ffunction-sections -fdata-sections -fverbose-asm
  29              	@ options enabled:  -faggressive-loop-optimizations -fauto-inc-dec
  30              	@ -fchkp-check-incomplete-type -fchkp-check-read -fchkp-check-write
  31              	@ -fchkp-instrument-calls -fchkp-narrow-bounds -fchkp-optimize
  32              	@ -fchkp-store-bounds -fchkp-use-static-bounds
  33              	@ -fchkp-use-static-const-bounds -fchkp-use-wrappers -fcommon
  34              	@ -fdata-sections -fdelete-null-pointer-checks -fdwarf2-cfi-asm
  35              	@ -fearly-inlining -feliminate-unused-debug-types -ffunction-cse
  36              	@ -ffunction-sections -fgcse-lm -fgnu-runtime -fgnu-unique -fident
  37              	@ -finline-atomics -fira-hoist-pressure -fira-share-save-slots
  38              	@ -fira-share-spill-slots -fivopts -fkeep-static-consts
  39              	@ -fleading-underscore -flifetime-dse -flto-odr-type-merging -fmath-errno
  40              	@ -fmerge-debug-strings -fpeephole -fprefetch-loop-arrays
  41              	@ -freg-struct-return -fsched-critical-path-heuristic
  42              	@ -fsched-dep-count-heuristic -fsched-group-heuristic -fsched-interblock
  43              	@ -fsched-last-insn-heuristic -fsched-rank-heuristic -fsched-spec
  44              	@ -fsched-spec-insn-heuristic -fsched-stalled-insns-dep
  45              	@ -fsemantic-interposition -fshow-column -fsigned-zeros
  46              	@ -fsplit-ivs-in-unroller -fstdarg-opt -fstrict-volatile-bitfields
  47              	@ -fsync-libcalls -ftrapping-math -ftree-coalesce-vars -ftree-cselim
  48              	@ -ftree-forwprop -ftree-loop-if-convert -ftree-loop-im -ftree-loop-ivcanon
  49              	@ -ftree-loop-optimize -ftree-parallelize-loops= -ftree-phiprop
  50              	@ -ftree-reassoc -ftree-scev-cprop -funit-at-a-time -fverbose-asm
  51              	@ -fzero-initialized-in-bss -masm-syntax-unified -mfix-cortex-m3-ldrd
  52              	@ -mlittle-endian -mpic-data-is-text-relative -msched-prolog -mthumb
  53              	@ -munaligned-access -mvectorize-with-neon-quad
  54              	
  55              		.text
  56              	.Ltext0:
  57              		.cfi_sections	.debug_frame
ARM GAS  C:\Users\STUDENT\AppData\Local\Temp\ccXSiJmk.s 			page 2


  58              		.section	.rodata
  59              		.align	2
  60              	.LC0:
  61 0000 636F7265 		.ascii	"core/lpc17xx_adc.c\000"
  61      2F6C7063 
  61      31377878 
  61      5F616463 
  61      2E6300
  62              		.section	.text.ADC_Init,"ax",%progbits
  63              		.align	2
  64              		.global	ADC_Init
  65              		.thumb
  66              		.thumb_func
  67              		.type	ADC_Init, %function
  68              	ADC_Init:
  69              	.LFB55:
  70              		.file 1 "core/lpc17xx_adc.c"
   1:core/lpc17xx_adc.c **** /**
   2:core/lpc17xx_adc.c ****  * @file	: lpc17xx_adc.c
   3:core/lpc17xx_adc.c ****  * @brief	: Contains all functions support for ADC firmware library on LPC17xx
   4:core/lpc17xx_adc.c ****  * @version	: 1.0
   5:core/lpc17xx_adc.c ****  * @date	: 3. April. 2009
   6:core/lpc17xx_adc.c ****  * @author	: NgaDinh
   7:core/lpc17xx_adc.c ****  **************************************************************************
   8:core/lpc17xx_adc.c ****  * Software that is described herein is for illustrative purposes only
   9:core/lpc17xx_adc.c ****  * which provides customers with programming information regarding the
  10:core/lpc17xx_adc.c ****  * products. This software is supplied "AS IS" without any warranties.
  11:core/lpc17xx_adc.c ****  * NXP Semiconductors assumes no responsibility or liability for the
  12:core/lpc17xx_adc.c ****  * use of the software, conveys no license or title under any patent,
  13:core/lpc17xx_adc.c ****  * copyright, or mask work right to the product. NXP Semiconductors
  14:core/lpc17xx_adc.c ****  * reserves the right to make changes in the software without
  15:core/lpc17xx_adc.c ****  * notification. NXP Semiconductors also make no representation or
  16:core/lpc17xx_adc.c ****  * warranty that such application will be suitable for the specified
  17:core/lpc17xx_adc.c ****  * use without further testing or modification.
  18:core/lpc17xx_adc.c ****  **********************************************************************/
  19:core/lpc17xx_adc.c **** 
  20:core/lpc17xx_adc.c **** /* Peripheral group ----------------------------------------------------------- */
  21:core/lpc17xx_adc.c **** /** @addtogroup ADC
  22:core/lpc17xx_adc.c ****  * @{
  23:core/lpc17xx_adc.c ****  */
  24:core/lpc17xx_adc.c **** 
  25:core/lpc17xx_adc.c **** /* Includes ------------------------------------------------------------------- */
  26:core/lpc17xx_adc.c **** #include "lpc17xx_adc.h"
  27:core/lpc17xx_adc.c **** #include "lpc17xx_clkpwr.h"
  28:core/lpc17xx_adc.c **** 
  29:core/lpc17xx_adc.c **** /* If this source file built with example, the LPC17xx FW library configuration
  30:core/lpc17xx_adc.c ****  * file in each example directory ("lpc17xx_libcfg.h") must be included,
  31:core/lpc17xx_adc.c ****  * otherwise the default FW library configuration file must be included instead
  32:core/lpc17xx_adc.c ****  */
  33:core/lpc17xx_adc.c **** #ifdef __BUILD_WITH_EXAMPLE__
  34:core/lpc17xx_adc.c **** #include "lpc17xx_libcfg.h"
  35:core/lpc17xx_adc.c **** #else
  36:core/lpc17xx_adc.c **** #include "lpc17xx_libcfg_default.h"
  37:core/lpc17xx_adc.c **** #endif /* __BUILD_WITH_EXAMPLE__ */
  38:core/lpc17xx_adc.c **** 
  39:core/lpc17xx_adc.c **** 
  40:core/lpc17xx_adc.c **** #ifdef _ADC
ARM GAS  C:\Users\STUDENT\AppData\Local\Temp\ccXSiJmk.s 			page 3


  41:core/lpc17xx_adc.c **** 
  42:core/lpc17xx_adc.c **** /* Public Functions ----------------------------------------------------------- */
  43:core/lpc17xx_adc.c **** /** @addtogroup ADC_Public_Functions
  44:core/lpc17xx_adc.c ****  * @{
  45:core/lpc17xx_adc.c ****  */
  46:core/lpc17xx_adc.c **** 
  47:core/lpc17xx_adc.c **** /*********************************************************************//**
  48:core/lpc17xx_adc.c ****  * @brief 		Initial for ADC
  49:core/lpc17xx_adc.c ****  * 					- Set bit PCADC
  50:core/lpc17xx_adc.c ****  * 					- Set clock for ADC
  51:core/lpc17xx_adc.c ****  * 					- Set Clock Frequency
  52:core/lpc17xx_adc.c ****  *
  53:core/lpc17xx_adc.c ****  * @param[in]	ADCx pointer to LPC_ADC_TypeDef
  54:core/lpc17xx_adc.c ****  * @param[in]	ConvFreq Clock frequency
  55:core/lpc17xx_adc.c ****  * @return 		None
  56:core/lpc17xx_adc.c ****  **********************************************************************/
  57:core/lpc17xx_adc.c **** void ADC_Init(LPC_ADC_TypeDef *ADCx, uint32_t ConvFreq)
  58:core/lpc17xx_adc.c **** 
  59:core/lpc17xx_adc.c **** {
  71              		.loc 1 59 0
  72              		.cfi_startproc
  73              		@ args = 0, pretend = 0, frame = 16
  74              		@ frame_needed = 1, uses_anonymous_args = 0
  75 0000 80B5     		push	{r7, lr}	@
  76              		.cfi_def_cfa_offset 8
  77              		.cfi_offset 7, -8
  78              		.cfi_offset 14, -4
  79 0002 84B0     		sub	sp, sp, #16	@,,
  80              		.cfi_def_cfa_offset 24
  81 0004 00AF     		add	r7, sp, #0	@,,
  82              		.cfi_def_cfa_register 7
  83 0006 7860     		str	r0, [r7, #4]	@ ADCx, ADCx
  84 0008 3960     		str	r1, [r7]	@ ConvFreq, ConvFreq
  60:core/lpc17xx_adc.c **** 	uint32_t temp, tmp;
  61:core/lpc17xx_adc.c **** 
  62:core/lpc17xx_adc.c **** 	CHECK_PARAM(PARAM_ADCx(ADCx));
  85              		.loc 1 62 0
  86 000a 7B68     		ldr	r3, [r7, #4]	@ tmp112, ADCx
  87 000c 174A     		ldr	r2, .L4	@ tmp113,
  88 000e 9342     		cmp	r3, r2	@ tmp112, tmp113
  89 0010 03D0     		beq	.L2	@,
  90              		.loc 1 62 0 is_stmt 0 discriminator 1
  91 0012 3E21     		movs	r1, #62	@,
  92 0014 1648     		ldr	r0, .L4+4	@,
  93 0016 FFF7FEFF 		bl	check_failed	@
  94              	.L2:
  63:core/lpc17xx_adc.c **** 	CHECK_PARAM(PARAM_ADC_FREQUENCY(ConvFreq));
  95              		.loc 1 63 0 is_stmt 1
  96 001a 3B68     		ldr	r3, [r7]	@ tmp114, ConvFreq
  97 001c 154A     		ldr	r2, .L4+8	@ tmp115,
  98 001e 9342     		cmp	r3, r2	@ tmp114, tmp115
  99 0020 03D9     		bls	.L3	@,
 100              		.loc 1 63 0 is_stmt 0 discriminator 1
 101 0022 3F21     		movs	r1, #63	@,
 102 0024 1248     		ldr	r0, .L4+4	@,
 103 0026 FFF7FEFF 		bl	check_failed	@
 104              	.L3:
ARM GAS  C:\Users\STUDENT\AppData\Local\Temp\ccXSiJmk.s 			page 4


  64:core/lpc17xx_adc.c **** 
  65:core/lpc17xx_adc.c **** 	// Turn on power and clock
  66:core/lpc17xx_adc.c **** 	CLKPWR_ConfigPPWR (CLKPWR_PCONP_PCAD, ENABLE);
 105              		.loc 1 66 0 is_stmt 1
 106 002a 0121     		movs	r1, #1	@,
 107 002c 4FF48050 		mov	r0, #4096	@,
 108 0030 FFF7FEFF 		bl	CLKPWR_ConfigPPWR	@
  67:core/lpc17xx_adc.c **** 	// Set clock divider for ADC to 4 from CCLK as default
  68:core/lpc17xx_adc.c **** 	// CLKPWR_SetPCLKDiv(CLKPWR_PCLKSEL_ADC,CLKPWR_PCLKSEL_CCLK_DIV_4);
  69:core/lpc17xx_adc.c **** 
  70:core/lpc17xx_adc.c **** 	ADCx->ADCR = 0;
 109              		.loc 1 70 0
 110 0034 7B68     		ldr	r3, [r7, #4]	@ tmp116, ADCx
 111 0036 0022     		movs	r2, #0	@ tmp117,
 112 0038 1A60     		str	r2, [r3]	@ tmp117, ADCx_3(D)->ADCR
  71:core/lpc17xx_adc.c **** 
  72:core/lpc17xx_adc.c **** 	//Enable PDN bit
  73:core/lpc17xx_adc.c **** 	tmp = ADC_CR_PDN;
 113              		.loc 1 73 0
 114 003a 4FF40013 		mov	r3, #2097152	@ tmp118,
 115 003e FB60     		str	r3, [r7, #12]	@ tmp118, tmp
  74:core/lpc17xx_adc.c **** 	// Set clock frequency
  75:core/lpc17xx_adc.c **** 	temp = CLKPWR_GetPCLK(CLKPWR_PCLKSEL_ADC) ;
 116              		.loc 1 75 0
 117 0040 1820     		movs	r0, #24	@,
 118 0042 FFF7FEFF 		bl	CLKPWR_GetPCLK	@
 119 0046 B860     		str	r0, [r7, #8]	@, temp
  76:core/lpc17xx_adc.c **** 	temp = (temp /ConvFreq) - 1;
 120              		.loc 1 76 0
 121 0048 BA68     		ldr	r2, [r7, #8]	@ tmp119, temp
 122 004a 3B68     		ldr	r3, [r7]	@ tmp120, ConvFreq
 123 004c B2FBF3F3 		udiv	r3, r2, r3	@ D.5711, tmp119, tmp120
 124 0050 013B     		subs	r3, r3, #1	@ tmp121, D.5711,
 125 0052 BB60     		str	r3, [r7, #8]	@ tmp121, temp
  77:core/lpc17xx_adc.c **** 	tmp |=  ADC_CR_CLKDIV(temp);
 126              		.loc 1 77 0
 127 0054 BB68     		ldr	r3, [r7, #8]	@ tmp122, temp
 128 0056 1B02     		lsls	r3, r3, #8	@ D.5711, tmp122,
 129 0058 FA68     		ldr	r2, [r7, #12]	@ tmp124, tmp
 130 005a 1343     		orrs	r3, r3, r2	@, tmp123, D.5711, tmp124
 131 005c FB60     		str	r3, [r7, #12]	@ tmp123, tmp
  78:core/lpc17xx_adc.c **** 
  79:core/lpc17xx_adc.c **** 	ADCx->ADCR = tmp;
 132              		.loc 1 79 0
 133 005e 7B68     		ldr	r3, [r7, #4]	@ tmp125, ADCx
 134 0060 FA68     		ldr	r2, [r7, #12]	@ tmp126, tmp
 135 0062 1A60     		str	r2, [r3]	@ tmp126, ADCx_3(D)->ADCR
  80:core/lpc17xx_adc.c **** }
 136              		.loc 1 80 0
 137 0064 00BF     		nop
 138 0066 1037     		adds	r7, r7, #16	@,,
 139              		.cfi_def_cfa_offset 8
 140 0068 BD46     		mov	sp, r7	@,
 141              		.cfi_def_cfa_register 13
 142              		@ sp needed	@
 143 006a 80BD     		pop	{r7, pc}	@
 144              	.L5:
ARM GAS  C:\Users\STUDENT\AppData\Local\Temp\ccXSiJmk.s 			page 5


 145              		.align	2
 146              	.L4:
 147 006c 00400340 		.word	1073954816
 148 0070 00000000 		.word	.LC0
 149 0074 405DC600 		.word	13000000
 150              		.cfi_endproc
 151              	.LFE55:
 152              		.size	ADC_Init, .-ADC_Init
 153              		.section	.text.ADC_DeInit,"ax",%progbits
 154              		.align	2
 155              		.global	ADC_DeInit
 156              		.thumb
 157              		.thumb_func
 158              		.type	ADC_DeInit, %function
 159              	ADC_DeInit:
 160              	.LFB56:
  81:core/lpc17xx_adc.c **** 
  82:core/lpc17xx_adc.c **** 
  83:core/lpc17xx_adc.c **** /*********************************************************************//**
  84:core/lpc17xx_adc.c **** * @brief 		Close ADC
  85:core/lpc17xx_adc.c **** * @param[in]	ADCx pointer to ADC
  86:core/lpc17xx_adc.c **** * @return 		None
  87:core/lpc17xx_adc.c **** **********************************************************************/
  88:core/lpc17xx_adc.c **** void 		ADC_DeInit(LPC_ADC_TypeDef *ADCx)
  89:core/lpc17xx_adc.c **** {
 161              		.loc 1 89 0
 162              		.cfi_startproc
 163              		@ args = 0, pretend = 0, frame = 8
 164              		@ frame_needed = 1, uses_anonymous_args = 0
 165 0000 80B5     		push	{r7, lr}	@
 166              		.cfi_def_cfa_offset 8
 167              		.cfi_offset 7, -8
 168              		.cfi_offset 14, -4
 169 0002 82B0     		sub	sp, sp, #8	@,,
 170              		.cfi_def_cfa_offset 16
 171 0004 00AF     		add	r7, sp, #0	@,,
 172              		.cfi_def_cfa_register 7
 173 0006 7860     		str	r0, [r7, #4]	@ ADCx, ADCx
  90:core/lpc17xx_adc.c **** 	CHECK_PARAM(PARAM_ADCx(ADCx));
 174              		.loc 1 90 0
 175 0008 7B68     		ldr	r3, [r7, #4]	@ tmp112, ADCx
 176 000a 0B4A     		ldr	r2, .L8	@ tmp113,
 177 000c 9342     		cmp	r3, r2	@ tmp112, tmp113
 178 000e 03D0     		beq	.L7	@,
 179              		.loc 1 90 0 is_stmt 0 discriminator 1
 180 0010 5A21     		movs	r1, #90	@,
 181 0012 0A48     		ldr	r0, .L8+4	@,
 182 0014 FFF7FEFF 		bl	check_failed	@
 183              	.L7:
  91:core/lpc17xx_adc.c **** 
  92:core/lpc17xx_adc.c **** 	// Clear PDN bit
  93:core/lpc17xx_adc.c **** 	ADCx->ADCR &= ~ADC_CR_PDN;
 184              		.loc 1 93 0 is_stmt 1
 185 0018 7B68     		ldr	r3, [r7, #4]	@ tmp114, ADCx
 186 001a 1B68     		ldr	r3, [r3]	@ D.5713, ADCx_2(D)->ADCR
 187 001c 23F40012 		bic	r2, r3, #2097152	@ D.5713, D.5713,
 188 0020 7B68     		ldr	r3, [r7, #4]	@ tmp115, ADCx
ARM GAS  C:\Users\STUDENT\AppData\Local\Temp\ccXSiJmk.s 			page 6


 189 0022 1A60     		str	r2, [r3]	@ D.5713, ADCx_2(D)->ADCR
  94:core/lpc17xx_adc.c **** 	// Turn on power and clock
  95:core/lpc17xx_adc.c **** 	CLKPWR_ConfigPPWR (CLKPWR_PCONP_PCAD, DISABLE);
 190              		.loc 1 95 0
 191 0024 0021     		movs	r1, #0	@,
 192 0026 4FF48050 		mov	r0, #4096	@,
 193 002a FFF7FEFF 		bl	CLKPWR_ConfigPPWR	@
  96:core/lpc17xx_adc.c **** }
 194              		.loc 1 96 0
 195 002e 00BF     		nop
 196 0030 0837     		adds	r7, r7, #8	@,,
 197              		.cfi_def_cfa_offset 8
 198 0032 BD46     		mov	sp, r7	@,
 199              		.cfi_def_cfa_register 13
 200              		@ sp needed	@
 201 0034 80BD     		pop	{r7, pc}	@
 202              	.L9:
 203 0036 00BF     		.align	2
 204              	.L8:
 205 0038 00400340 		.word	1073954816
 206 003c 00000000 		.word	.LC0
 207              		.cfi_endproc
 208              	.LFE56:
 209              		.size	ADC_DeInit, .-ADC_DeInit
 210              		.section	.text.ADC_GetData,"ax",%progbits
 211              		.align	2
 212              		.global	ADC_GetData
 213              		.thumb
 214              		.thumb_func
 215              		.type	ADC_GetData, %function
 216              	ADC_GetData:
 217              	.LFB57:
  97:core/lpc17xx_adc.c **** 
  98:core/lpc17xx_adc.c **** 
  99:core/lpc17xx_adc.c **** /*********************************************************************//**
 100:core/lpc17xx_adc.c **** * @brief 		Get Result conversion from A/D data register
 101:core/lpc17xx_adc.c **** * @param[in]	channel number which want to read back the result
 102:core/lpc17xx_adc.c **** * @return 		Result of conversion
 103:core/lpc17xx_adc.c **** *********************************************************************/
 104:core/lpc17xx_adc.c **** uint32_t ADC_GetData(uint32_t channel)
 105:core/lpc17xx_adc.c **** {
 218              		.loc 1 105 0
 219              		.cfi_startproc
 220              		@ args = 0, pretend = 0, frame = 16
 221              		@ frame_needed = 1, uses_anonymous_args = 0
 222              		@ link register save eliminated.
 223 0000 80B4     		push	{r7}	@
 224              		.cfi_def_cfa_offset 4
 225              		.cfi_offset 7, -4
 226 0002 85B0     		sub	sp, sp, #20	@,,
 227              		.cfi_def_cfa_offset 24
 228 0004 00AF     		add	r7, sp, #0	@,,
 229              		.cfi_def_cfa_register 7
 230 0006 7860     		str	r0, [r7, #4]	@ channel, channel
 106:core/lpc17xx_adc.c **** 	uint32_t adc_value;
 107:core/lpc17xx_adc.c **** 
 108:core/lpc17xx_adc.c **** 	CHECK_PARAM(PARAM_ADC_CHANNEL_SELECTION(channel));
ARM GAS  C:\Users\STUDENT\AppData\Local\Temp\ccXSiJmk.s 			page 7


 109:core/lpc17xx_adc.c **** 
 110:core/lpc17xx_adc.c **** 	adc_value = *(uint32_t *)((&LPC_ADC->ADDR0) + channel);
 231              		.loc 1 110 0
 232 0008 7B68     		ldr	r3, [r7, #4]	@ tmp115, channel
 233 000a 9A00     		lsls	r2, r3, #2	@ D.5714, tmp115,
 234 000c 064B     		ldr	r3, .L12	@ D.5715,
 235 000e 1344     		add	r3, r3, r2	@ D.5715, D.5714
 236 0010 1B68     		ldr	r3, [r3]	@ tmp116, *_3
 237 0012 FB60     		str	r3, [r7, #12]	@ tmp116, adc_value
 111:core/lpc17xx_adc.c **** 	return ADC_GDR_RESULT(adc_value);
 238              		.loc 1 111 0
 239 0014 FB68     		ldr	r3, [r7, #12]	@ tmp117, adc_value
 240 0016 1B09     		lsrs	r3, r3, #4	@ D.5714, tmp117,
 241 0018 C3F30B03 		ubfx	r3, r3, #0, #12	@ D.5716, D.5714,,
 112:core/lpc17xx_adc.c **** }
 242              		.loc 1 112 0
 243 001c 1846     		mov	r0, r3	@, <retval>
 244 001e 1437     		adds	r7, r7, #20	@,,
 245              		.cfi_def_cfa_offset 4
 246 0020 BD46     		mov	sp, r7	@,
 247              		.cfi_def_cfa_register 13
 248              		@ sp needed	@
 249 0022 80BC     		pop	{r7}	@
 250              		.cfi_restore 7
 251              		.cfi_def_cfa_offset 0
 252 0024 7047     		bx	lr	@
 253              	.L13:
 254 0026 00BF     		.align	2
 255              	.L12:
 256 0028 10400340 		.word	1073954832
 257              		.cfi_endproc
 258              	.LFE57:
 259              		.size	ADC_GetData, .-ADC_GetData
 260              		.section	.text.ADC_StartCmd,"ax",%progbits
 261              		.align	2
 262              		.global	ADC_StartCmd
 263              		.thumb
 264              		.thumb_func
 265              		.type	ADC_StartCmd, %function
 266              	ADC_StartCmd:
 267              	.LFB58:
 113:core/lpc17xx_adc.c **** 
 114:core/lpc17xx_adc.c **** /*********************************************************************//**
 115:core/lpc17xx_adc.c **** * @brief 		Set start mode for ADC
 116:core/lpc17xx_adc.c **** * @param[in]	ADCx pointer to LPC_ADC_TypeDef
 117:core/lpc17xx_adc.c **** * @param[in]	start_mode Start mode choose one of modes in
 118:core/lpc17xx_adc.c **** * 							'ADC_START_OPT' enumeration type definition
 119:core/lpc17xx_adc.c **** * @return 		None
 120:core/lpc17xx_adc.c **** *********************************************************************/
 121:core/lpc17xx_adc.c **** void ADC_StartCmd(LPC_ADC_TypeDef *ADCx, uint8_t start_mode)
 122:core/lpc17xx_adc.c **** {
 268              		.loc 1 122 0
 269              		.cfi_startproc
 270              		@ args = 0, pretend = 0, frame = 8
 271              		@ frame_needed = 1, uses_anonymous_args = 0
 272 0000 80B5     		push	{r7, lr}	@
 273              		.cfi_def_cfa_offset 8
ARM GAS  C:\Users\STUDENT\AppData\Local\Temp\ccXSiJmk.s 			page 8


 274              		.cfi_offset 7, -8
 275              		.cfi_offset 14, -4
 276 0002 82B0     		sub	sp, sp, #8	@,,
 277              		.cfi_def_cfa_offset 16
 278 0004 00AF     		add	r7, sp, #0	@,,
 279              		.cfi_def_cfa_register 7
 280 0006 7860     		str	r0, [r7, #4]	@ ADCx, ADCx
 281 0008 0B46     		mov	r3, r1	@ tmp116, start_mode
 282 000a FB70     		strb	r3, [r7, #3]	@ tmp117, start_mode
 123:core/lpc17xx_adc.c **** 	CHECK_PARAM(PARAM_ADCx(ADCx));
 283              		.loc 1 123 0
 284 000c 7B68     		ldr	r3, [r7, #4]	@ tmp118, ADCx
 285 000e 1A4A     		ldr	r2, .L17	@ tmp119,
 286 0010 9342     		cmp	r3, r2	@ tmp118, tmp119
 287 0012 03D0     		beq	.L15	@,
 288              		.loc 1 123 0 is_stmt 0 discriminator 1
 289 0014 7B21     		movs	r1, #123	@,
 290 0016 1948     		ldr	r0, .L17+4	@,
 291 0018 FFF7FEFF 		bl	check_failed	@
 292              	.L15:
 124:core/lpc17xx_adc.c **** 	CHECK_PARAM(PARAM_ADC_START_OPT(start_mode));
 293              		.loc 1 124 0 is_stmt 1
 294 001c FB78     		ldrb	r3, [r7, #3]	@ zero_extendqisi2	@ tmp120, start_mode
 295 001e 002B     		cmp	r3, #0	@ tmp120,
 296 0020 18D0     		beq	.L16	@,
 297              		.loc 1 124 0 is_stmt 0 discriminator 1
 298 0022 FB78     		ldrb	r3, [r7, #3]	@ zero_extendqisi2	@ tmp121, start_mode
 299 0024 012B     		cmp	r3, #1	@ tmp121,
 300 0026 15D0     		beq	.L16	@,
 301              		.loc 1 124 0 discriminator 2
 302 0028 FB78     		ldrb	r3, [r7, #3]	@ zero_extendqisi2	@ tmp122, start_mode
 303 002a 022B     		cmp	r3, #2	@ tmp122,
 304 002c 12D0     		beq	.L16	@,
 305              		.loc 1 124 0 discriminator 3
 306 002e FB78     		ldrb	r3, [r7, #3]	@ zero_extendqisi2	@ tmp123, start_mode
 307 0030 032B     		cmp	r3, #3	@ tmp123,
 308 0032 0FD0     		beq	.L16	@,
 309              		.loc 1 124 0 discriminator 4
 310 0034 FB78     		ldrb	r3, [r7, #3]	@ zero_extendqisi2	@ tmp124, start_mode
 311 0036 042B     		cmp	r3, #4	@ tmp124,
 312 0038 0CD0     		beq	.L16	@,
 313              		.loc 1 124 0 discriminator 5
 314 003a FB78     		ldrb	r3, [r7, #3]	@ zero_extendqisi2	@ tmp125, start_mode
 315 003c 052B     		cmp	r3, #5	@ tmp125,
 316 003e 09D0     		beq	.L16	@,
 317              		.loc 1 124 0 discriminator 6
 318 0040 FB78     		ldrb	r3, [r7, #3]	@ zero_extendqisi2	@ tmp126, start_mode
 319 0042 062B     		cmp	r3, #6	@ tmp126,
 320 0044 06D0     		beq	.L16	@,
 321              		.loc 1 124 0 discriminator 7
 322 0046 FB78     		ldrb	r3, [r7, #3]	@ zero_extendqisi2	@ tmp127, start_mode
 323 0048 072B     		cmp	r3, #7	@ tmp127,
 324 004a 03D0     		beq	.L16	@,
 325              		.loc 1 124 0 discriminator 8
 326 004c 7C21     		movs	r1, #124	@,
 327 004e 0B48     		ldr	r0, .L17+4	@,
 328 0050 FFF7FEFF 		bl	check_failed	@
ARM GAS  C:\Users\STUDENT\AppData\Local\Temp\ccXSiJmk.s 			page 9


 329              	.L16:
 125:core/lpc17xx_adc.c **** 
 126:core/lpc17xx_adc.c **** 	ADCx->ADCR &= ~ADC_CR_START_MASK;
 330              		.loc 1 126 0 is_stmt 1
 331 0054 7B68     		ldr	r3, [r7, #4]	@ tmp128, ADCx
 332 0056 1B68     		ldr	r3, [r3]	@ D.5717, ADCx_3(D)->ADCR
 333 0058 23F0E062 		bic	r2, r3, #117440512	@ D.5717, D.5717,
 334 005c 7B68     		ldr	r3, [r7, #4]	@ tmp129, ADCx
 335 005e 1A60     		str	r2, [r3]	@ D.5717, ADCx_3(D)->ADCR
 127:core/lpc17xx_adc.c **** 	ADCx->ADCR |=ADC_CR_START_MODE_SEL((uint32_t)start_mode);
 336              		.loc 1 127 0
 337 0060 7B68     		ldr	r3, [r7, #4]	@ tmp130, ADCx
 338 0062 1A68     		ldr	r2, [r3]	@ D.5717, ADCx_3(D)->ADCR
 339 0064 FB78     		ldrb	r3, [r7, #3]	@ zero_extendqisi2	@ D.5717, start_mode
 340 0066 1B06     		lsls	r3, r3, #24	@ D.5717, D.5717,
 341 0068 1A43     		orrs	r2, r2, r3	@, D.5717, D.5717, D.5717
 342 006a 7B68     		ldr	r3, [r7, #4]	@ tmp131, ADCx
 343 006c 1A60     		str	r2, [r3]	@ D.5717, ADCx_3(D)->ADCR
 128:core/lpc17xx_adc.c **** }
 344              		.loc 1 128 0
 345 006e 00BF     		nop
 346 0070 0837     		adds	r7, r7, #8	@,,
 347              		.cfi_def_cfa_offset 8
 348 0072 BD46     		mov	sp, r7	@,
 349              		.cfi_def_cfa_register 13
 350              		@ sp needed	@
 351 0074 80BD     		pop	{r7, pc}	@
 352              	.L18:
 353 0076 00BF     		.align	2
 354              	.L17:
 355 0078 00400340 		.word	1073954816
 356 007c 00000000 		.word	.LC0
 357              		.cfi_endproc
 358              	.LFE58:
 359              		.size	ADC_StartCmd, .-ADC_StartCmd
 360              		.section	.text.ADC_BurstCmd,"ax",%progbits
 361              		.align	2
 362              		.global	ADC_BurstCmd
 363              		.thumb
 364              		.thumb_func
 365              		.type	ADC_BurstCmd, %function
 366              	ADC_BurstCmd:
 367              	.LFB59:
 129:core/lpc17xx_adc.c **** 
 130:core/lpc17xx_adc.c **** 
 131:core/lpc17xx_adc.c **** /*********************************************************************//**
 132:core/lpc17xx_adc.c **** * @brief 		ADC Burst mode setting
 133:core/lpc17xx_adc.c **** *
 134:core/lpc17xx_adc.c **** * @param[in]	ADCx pointer to ADC
 135:core/lpc17xx_adc.c **** * @param[in]	NewState
 136:core/lpc17xx_adc.c **** * 				-	1: Set Burst mode
 137:core/lpc17xx_adc.c **** * 				-	0: reset Burst mode
 138:core/lpc17xx_adc.c **** * @return 		None
 139:core/lpc17xx_adc.c **** **********************************************************************/
 140:core/lpc17xx_adc.c **** void ADC_BurstCmd(LPC_ADC_TypeDef *ADCx, FunctionalState NewState)
 141:core/lpc17xx_adc.c **** {
 368              		.loc 1 141 0
ARM GAS  C:\Users\STUDENT\AppData\Local\Temp\ccXSiJmk.s 			page 10


 369              		.cfi_startproc
 370              		@ args = 0, pretend = 0, frame = 8
 371              		@ frame_needed = 1, uses_anonymous_args = 0
 372 0000 80B5     		push	{r7, lr}	@
 373              		.cfi_def_cfa_offset 8
 374              		.cfi_offset 7, -8
 375              		.cfi_offset 14, -4
 376 0002 82B0     		sub	sp, sp, #8	@,,
 377              		.cfi_def_cfa_offset 16
 378 0004 00AF     		add	r7, sp, #0	@,,
 379              		.cfi_def_cfa_register 7
 380 0006 7860     		str	r0, [r7, #4]	@ ADCx, ADCx
 381 0008 0B46     		mov	r3, r1	@ tmp114, NewState
 382 000a FB70     		strb	r3, [r7, #3]	@ tmp115, NewState
 142:core/lpc17xx_adc.c **** 	CHECK_PARAM(PARAM_ADCx(ADCx));
 383              		.loc 1 142 0
 384 000c 7B68     		ldr	r3, [r7, #4]	@ tmp116, ADCx
 385 000e 0D4A     		ldr	r2, .L23	@ tmp117,
 386 0010 9342     		cmp	r3, r2	@ tmp116, tmp117
 387 0012 03D0     		beq	.L20	@,
 388              		.loc 1 142 0 is_stmt 0 discriminator 1
 389 0014 8E21     		movs	r1, #142	@,
 390 0016 0C48     		ldr	r0, .L23+4	@,
 391 0018 FFF7FEFF 		bl	check_failed	@
 392              	.L20:
 143:core/lpc17xx_adc.c **** 
 144:core/lpc17xx_adc.c **** 	ADCx->ADCR &= ~ADC_CR_BURST;
 393              		.loc 1 144 0 is_stmt 1
 394 001c 7B68     		ldr	r3, [r7, #4]	@ tmp118, ADCx
 395 001e 1B68     		ldr	r3, [r3]	@ D.5718, ADCx_3(D)->ADCR
 396 0020 23F48032 		bic	r2, r3, #65536	@ D.5718, D.5718,
 397 0024 7B68     		ldr	r3, [r7, #4]	@ tmp119, ADCx
 398 0026 1A60     		str	r2, [r3]	@ D.5718, ADCx_3(D)->ADCR
 145:core/lpc17xx_adc.c **** 	if (NewState){
 399              		.loc 1 145 0
 400 0028 FB78     		ldrb	r3, [r7, #3]	@ zero_extendqisi2	@ tmp120, NewState
 401 002a 002B     		cmp	r3, #0	@ tmp120,
 402 002c 05D0     		beq	.L22	@,
 146:core/lpc17xx_adc.c **** 		ADCx->ADCR |= ADC_CR_BURST;
 403              		.loc 1 146 0
 404 002e 7B68     		ldr	r3, [r7, #4]	@ tmp121, ADCx
 405 0030 1B68     		ldr	r3, [r3]	@ D.5718, ADCx_3(D)->ADCR
 406 0032 43F48032 		orr	r2, r3, #65536	@ D.5718, D.5718,
 407 0036 7B68     		ldr	r3, [r7, #4]	@ tmp122, ADCx
 408 0038 1A60     		str	r2, [r3]	@ D.5718, ADCx_3(D)->ADCR
 409              	.L22:
 147:core/lpc17xx_adc.c **** 	}
 148:core/lpc17xx_adc.c **** 
 149:core/lpc17xx_adc.c **** }
 410              		.loc 1 149 0
 411 003a 00BF     		nop
 412 003c 0837     		adds	r7, r7, #8	@,,
 413              		.cfi_def_cfa_offset 8
 414 003e BD46     		mov	sp, r7	@,
 415              		.cfi_def_cfa_register 13
 416              		@ sp needed	@
 417 0040 80BD     		pop	{r7, pc}	@
ARM GAS  C:\Users\STUDENT\AppData\Local\Temp\ccXSiJmk.s 			page 11


 418              	.L24:
 419 0042 00BF     		.align	2
 420              	.L23:
 421 0044 00400340 		.word	1073954816
 422 0048 00000000 		.word	.LC0
 423              		.cfi_endproc
 424              	.LFE59:
 425              		.size	ADC_BurstCmd, .-ADC_BurstCmd
 426              		.section	.text.ADC_PowerdownCmd,"ax",%progbits
 427              		.align	2
 428              		.global	ADC_PowerdownCmd
 429              		.thumb
 430              		.thumb_func
 431              		.type	ADC_PowerdownCmd, %function
 432              	ADC_PowerdownCmd:
 433              	.LFB60:
 150:core/lpc17xx_adc.c **** 
 151:core/lpc17xx_adc.c **** /*********************************************************************//**
 152:core/lpc17xx_adc.c **** * @brief 		Set AD conversion in power mode
 153:core/lpc17xx_adc.c **** *
 154:core/lpc17xx_adc.c **** * @param[in]	ADCx pointer to ADC
 155:core/lpc17xx_adc.c **** * @param[in]	NewState
 156:core/lpc17xx_adc.c **** * 				-	1: AD converter is optional
 157:core/lpc17xx_adc.c **** * 				-	0: AD Converter is in power down mode
 158:core/lpc17xx_adc.c **** * @return 		None
 159:core/lpc17xx_adc.c **** **********************************************************************/
 160:core/lpc17xx_adc.c **** void ADC_PowerdownCmd(LPC_ADC_TypeDef *ADCx, FunctionalState NewState)
 161:core/lpc17xx_adc.c **** {
 434              		.loc 1 161 0
 435              		.cfi_startproc
 436              		@ args = 0, pretend = 0, frame = 8
 437              		@ frame_needed = 1, uses_anonymous_args = 0
 438 0000 80B5     		push	{r7, lr}	@
 439              		.cfi_def_cfa_offset 8
 440              		.cfi_offset 7, -8
 441              		.cfi_offset 14, -4
 442 0002 82B0     		sub	sp, sp, #8	@,,
 443              		.cfi_def_cfa_offset 16
 444 0004 00AF     		add	r7, sp, #0	@,,
 445              		.cfi_def_cfa_register 7
 446 0006 7860     		str	r0, [r7, #4]	@ ADCx, ADCx
 447 0008 0B46     		mov	r3, r1	@ tmp114, NewState
 448 000a FB70     		strb	r3, [r7, #3]	@ tmp115, NewState
 162:core/lpc17xx_adc.c **** 	CHECK_PARAM(PARAM_ADCx(ADCx));
 449              		.loc 1 162 0
 450 000c 7B68     		ldr	r3, [r7, #4]	@ tmp116, ADCx
 451 000e 0D4A     		ldr	r2, .L29	@ tmp117,
 452 0010 9342     		cmp	r3, r2	@ tmp116, tmp117
 453 0012 03D0     		beq	.L26	@,
 454              		.loc 1 162 0 is_stmt 0 discriminator 1
 455 0014 A221     		movs	r1, #162	@,
 456 0016 0C48     		ldr	r0, .L29+4	@,
 457 0018 FFF7FEFF 		bl	check_failed	@
 458              	.L26:
 163:core/lpc17xx_adc.c **** 
 164:core/lpc17xx_adc.c **** 	ADCx->ADCR &= ~ADC_CR_PDN;
 459              		.loc 1 164 0 is_stmt 1
ARM GAS  C:\Users\STUDENT\AppData\Local\Temp\ccXSiJmk.s 			page 12


 460 001c 7B68     		ldr	r3, [r7, #4]	@ tmp118, ADCx
 461 001e 1B68     		ldr	r3, [r3]	@ D.5719, ADCx_3(D)->ADCR
 462 0020 23F40012 		bic	r2, r3, #2097152	@ D.5719, D.5719,
 463 0024 7B68     		ldr	r3, [r7, #4]	@ tmp119, ADCx
 464 0026 1A60     		str	r2, [r3]	@ D.5719, ADCx_3(D)->ADCR
 165:core/lpc17xx_adc.c **** 	if (NewState){
 465              		.loc 1 165 0
 466 0028 FB78     		ldrb	r3, [r7, #3]	@ zero_extendqisi2	@ tmp120, NewState
 467 002a 002B     		cmp	r3, #0	@ tmp120,
 468 002c 05D0     		beq	.L28	@,
 166:core/lpc17xx_adc.c **** 		ADCx->ADCR |= ADC_CR_PDN;
 469              		.loc 1 166 0
 470 002e 7B68     		ldr	r3, [r7, #4]	@ tmp121, ADCx
 471 0030 1B68     		ldr	r3, [r3]	@ D.5719, ADCx_3(D)->ADCR
 472 0032 43F40012 		orr	r2, r3, #2097152	@ D.5719, D.5719,
 473 0036 7B68     		ldr	r3, [r7, #4]	@ tmp122, ADCx
 474 0038 1A60     		str	r2, [r3]	@ D.5719, ADCx_3(D)->ADCR
 475              	.L28:
 167:core/lpc17xx_adc.c **** 	}
 168:core/lpc17xx_adc.c **** }
 476              		.loc 1 168 0
 477 003a 00BF     		nop
 478 003c 0837     		adds	r7, r7, #8	@,,
 479              		.cfi_def_cfa_offset 8
 480 003e BD46     		mov	sp, r7	@,
 481              		.cfi_def_cfa_register 13
 482              		@ sp needed	@
 483 0040 80BD     		pop	{r7, pc}	@
 484              	.L30:
 485 0042 00BF     		.align	2
 486              	.L29:
 487 0044 00400340 		.word	1073954816
 488 0048 00000000 		.word	.LC0
 489              		.cfi_endproc
 490              	.LFE60:
 491              		.size	ADC_PowerdownCmd, .-ADC_PowerdownCmd
 492              		.section	.text.ADC_EdgeStartConfig,"ax",%progbits
 493              		.align	2
 494              		.global	ADC_EdgeStartConfig
 495              		.thumb
 496              		.thumb_func
 497              		.type	ADC_EdgeStartConfig, %function
 498              	ADC_EdgeStartConfig:
 499              	.LFB61:
 169:core/lpc17xx_adc.c **** 
 170:core/lpc17xx_adc.c **** /*********************************************************************//**
 171:core/lpc17xx_adc.c **** * @brief 		Set Edge start configuration
 172:core/lpc17xx_adc.c **** *
 173:core/lpc17xx_adc.c **** * @param[in]	ADCx pointer to ADC
 174:core/lpc17xx_adc.c **** * @param[in]	EdgeOption is ADC_START_ON_RISING and ADC_START_ON_FALLING
 175:core/lpc17xx_adc.c **** * 					0:ADC_START_ON_RISING
 176:core/lpc17xx_adc.c **** * 					1:ADC_START_ON_FALLING
 177:core/lpc17xx_adc.c **** *
 178:core/lpc17xx_adc.c **** * @return 		None
 179:core/lpc17xx_adc.c **** **********************************************************************/
 180:core/lpc17xx_adc.c **** void ADC_EdgeStartConfig(LPC_ADC_TypeDef *ADCx, uint8_t EdgeOption)
 181:core/lpc17xx_adc.c **** {
ARM GAS  C:\Users\STUDENT\AppData\Local\Temp\ccXSiJmk.s 			page 13


 500              		.loc 1 181 0
 501              		.cfi_startproc
 502              		@ args = 0, pretend = 0, frame = 8
 503              		@ frame_needed = 1, uses_anonymous_args = 0
 504 0000 80B5     		push	{r7, lr}	@
 505              		.cfi_def_cfa_offset 8
 506              		.cfi_offset 7, -8
 507              		.cfi_offset 14, -4
 508 0002 82B0     		sub	sp, sp, #8	@,,
 509              		.cfi_def_cfa_offset 16
 510 0004 00AF     		add	r7, sp, #0	@,,
 511              		.cfi_def_cfa_register 7
 512 0006 7860     		str	r0, [r7, #4]	@ ADCx, ADCx
 513 0008 0B46     		mov	r3, r1	@ tmp114, EdgeOption
 514 000a FB70     		strb	r3, [r7, #3]	@ tmp115, EdgeOption
 182:core/lpc17xx_adc.c **** 	CHECK_PARAM(PARAM_ADCx(ADCx));
 515              		.loc 1 182 0
 516 000c 7B68     		ldr	r3, [r7, #4]	@ tmp116, ADCx
 517 000e 124A     		ldr	r2, .L36	@ tmp117,
 518 0010 9342     		cmp	r3, r2	@ tmp116, tmp117
 519 0012 03D0     		beq	.L32	@,
 520              		.loc 1 182 0 is_stmt 0 discriminator 1
 521 0014 B621     		movs	r1, #182	@,
 522 0016 1148     		ldr	r0, .L36+4	@,
 523 0018 FFF7FEFF 		bl	check_failed	@
 524              	.L32:
 183:core/lpc17xx_adc.c **** 	CHECK_PARAM(PARAM_ADC_START_ON_EDGE_OPT(EdgeOption));
 525              		.loc 1 183 0 is_stmt 1
 526 001c FB78     		ldrb	r3, [r7, #3]	@ zero_extendqisi2	@ tmp118, EdgeOption
 527 001e 002B     		cmp	r3, #0	@ tmp118,
 528 0020 06D0     		beq	.L33	@,
 529              		.loc 1 183 0 is_stmt 0 discriminator 1
 530 0022 FB78     		ldrb	r3, [r7, #3]	@ zero_extendqisi2	@ tmp119, EdgeOption
 531 0024 012B     		cmp	r3, #1	@ tmp119,
 532 0026 03D0     		beq	.L33	@,
 533              		.loc 1 183 0 discriminator 2
 534 0028 B721     		movs	r1, #183	@,
 535 002a 0C48     		ldr	r0, .L36+4	@,
 536 002c FFF7FEFF 		bl	check_failed	@
 537              	.L33:
 184:core/lpc17xx_adc.c **** 
 185:core/lpc17xx_adc.c **** 	ADCx->ADCR &= ~ADC_CR_EDGE;
 538              		.loc 1 185 0 is_stmt 1
 539 0030 7B68     		ldr	r3, [r7, #4]	@ tmp120, ADCx
 540 0032 1B68     		ldr	r3, [r3]	@ D.5720, ADCx_4(D)->ADCR
 541 0034 23F00062 		bic	r2, r3, #134217728	@ D.5720, D.5720,
 542 0038 7B68     		ldr	r3, [r7, #4]	@ tmp121, ADCx
 543 003a 1A60     		str	r2, [r3]	@ D.5720, ADCx_4(D)->ADCR
 186:core/lpc17xx_adc.c **** 	if (EdgeOption){
 544              		.loc 1 186 0
 545 003c FB78     		ldrb	r3, [r7, #3]	@ zero_extendqisi2	@ tmp122, EdgeOption
 546 003e 002B     		cmp	r3, #0	@ tmp122,
 547 0040 05D0     		beq	.L35	@,
 187:core/lpc17xx_adc.c **** 		ADCx->ADCR |= ADC_CR_EDGE;
 548              		.loc 1 187 0
 549 0042 7B68     		ldr	r3, [r7, #4]	@ tmp123, ADCx
 550 0044 1B68     		ldr	r3, [r3]	@ D.5720, ADCx_4(D)->ADCR
ARM GAS  C:\Users\STUDENT\AppData\Local\Temp\ccXSiJmk.s 			page 14


 551 0046 43F00062 		orr	r2, r3, #134217728	@ D.5720, D.5720,
 552 004a 7B68     		ldr	r3, [r7, #4]	@ tmp124, ADCx
 553 004c 1A60     		str	r2, [r3]	@ D.5720, ADCx_4(D)->ADCR
 554              	.L35:
 188:core/lpc17xx_adc.c **** 	}
 189:core/lpc17xx_adc.c **** }
 555              		.loc 1 189 0
 556 004e 00BF     		nop
 557 0050 0837     		adds	r7, r7, #8	@,,
 558              		.cfi_def_cfa_offset 8
 559 0052 BD46     		mov	sp, r7	@,
 560              		.cfi_def_cfa_register 13
 561              		@ sp needed	@
 562 0054 80BD     		pop	{r7, pc}	@
 563              	.L37:
 564 0056 00BF     		.align	2
 565              	.L36:
 566 0058 00400340 		.word	1073954816
 567 005c 00000000 		.word	.LC0
 568              		.cfi_endproc
 569              	.LFE61:
 570              		.size	ADC_EdgeStartConfig, .-ADC_EdgeStartConfig
 571              		.section	.text.ADC_IntConfig,"ax",%progbits
 572              		.align	2
 573              		.global	ADC_IntConfig
 574              		.thumb
 575              		.thumb_func
 576              		.type	ADC_IntConfig, %function
 577              	ADC_IntConfig:
 578              	.LFB62:
 190:core/lpc17xx_adc.c **** 
 191:core/lpc17xx_adc.c **** /*********************************************************************//**
 192:core/lpc17xx_adc.c **** * @brief 		ADC interrupt configuration
 193:core/lpc17xx_adc.c **** * @param[in]	ADCx pointer to ADC
 194:core/lpc17xx_adc.c **** * @param[in]	IntType
 195:core/lpc17xx_adc.c **** * @param[in]	NewState:
 196:core/lpc17xx_adc.c **** * 					- SET : enable ADC interrupt
 197:core/lpc17xx_adc.c **** * 					- RESET: disable ADC interrupt
 198:core/lpc17xx_adc.c **** *
 199:core/lpc17xx_adc.c **** * @return 		None
 200:core/lpc17xx_adc.c **** **********************************************************************/
 201:core/lpc17xx_adc.c **** void ADC_IntConfig (LPC_ADC_TypeDef *ADCx, ADC_TYPE_INT_OPT IntType, FunctionalState NewState)
 202:core/lpc17xx_adc.c **** {
 579              		.loc 1 202 0
 580              		.cfi_startproc
 581              		@ args = 0, pretend = 0, frame = 8
 582              		@ frame_needed = 1, uses_anonymous_args = 0
 583 0000 80B5     		push	{r7, lr}	@
 584              		.cfi_def_cfa_offset 8
 585              		.cfi_offset 7, -8
 586              		.cfi_offset 14, -4
 587 0002 82B0     		sub	sp, sp, #8	@,,
 588              		.cfi_def_cfa_offset 16
 589 0004 00AF     		add	r7, sp, #0	@,,
 590              		.cfi_def_cfa_register 7
 591 0006 7860     		str	r0, [r7, #4]	@ ADCx, ADCx
 592 0008 0B46     		mov	r3, r1	@ tmp119, IntType
ARM GAS  C:\Users\STUDENT\AppData\Local\Temp\ccXSiJmk.s 			page 15


 593 000a FB70     		strb	r3, [r7, #3]	@ tmp120, IntType
 594 000c 1346     		mov	r3, r2	@ tmp122, tmp121
 595 000e BB70     		strb	r3, [r7, #2]	@ tmp122, NewState
 203:core/lpc17xx_adc.c **** 	CHECK_PARAM(PARAM_ADCx(ADCx));
 596              		.loc 1 203 0
 597 0010 7B68     		ldr	r3, [r7, #4]	@ tmp123, ADCx
 598 0012 204A     		ldr	r2, .L43	@ tmp124,
 599 0014 9342     		cmp	r3, r2	@ tmp123, tmp124
 600 0016 03D0     		beq	.L39	@,
 601              		.loc 1 203 0 is_stmt 0 discriminator 1
 602 0018 CB21     		movs	r1, #203	@,
 603 001a 1F48     		ldr	r0, .L43+4	@,
 604 001c FFF7FEFF 		bl	check_failed	@
 605              	.L39:
 204:core/lpc17xx_adc.c **** 	CHECK_PARAM(PARAM_ADC_TYPE_INT_OPT(IntType));
 606              		.loc 1 204 0 is_stmt 1
 607 0020 FB78     		ldrb	r3, [r7, #3]	@ zero_extendqisi2	@ tmp125, IntType
 608 0022 002B     		cmp	r3, #0	@ tmp125,
 609 0024 1BD0     		beq	.L40	@,
 610              		.loc 1 204 0 is_stmt 0 discriminator 1
 611 0026 FB78     		ldrb	r3, [r7, #3]	@ zero_extendqisi2	@ tmp126, IntType
 612 0028 012B     		cmp	r3, #1	@ tmp126,
 613 002a 18D0     		beq	.L40	@,
 614              		.loc 1 204 0 discriminator 2
 615 002c FB78     		ldrb	r3, [r7, #3]	@ zero_extendqisi2	@ tmp127, IntType
 616 002e 022B     		cmp	r3, #2	@ tmp127,
 617 0030 15D0     		beq	.L40	@,
 618              		.loc 1 204 0 discriminator 3
 619 0032 FB78     		ldrb	r3, [r7, #3]	@ zero_extendqisi2	@ tmp128, IntType
 620 0034 032B     		cmp	r3, #3	@ tmp128,
 621 0036 12D0     		beq	.L40	@,
 622              		.loc 1 204 0 discriminator 4
 623 0038 FB78     		ldrb	r3, [r7, #3]	@ zero_extendqisi2	@ tmp129, IntType
 624 003a 042B     		cmp	r3, #4	@ tmp129,
 625 003c 0FD0     		beq	.L40	@,
 626              		.loc 1 204 0 discriminator 5
 627 003e FB78     		ldrb	r3, [r7, #3]	@ zero_extendqisi2	@ tmp130, IntType
 628 0040 052B     		cmp	r3, #5	@ tmp130,
 629 0042 0CD0     		beq	.L40	@,
 630              		.loc 1 204 0 discriminator 6
 631 0044 FB78     		ldrb	r3, [r7, #3]	@ zero_extendqisi2	@ tmp131, IntType
 632 0046 062B     		cmp	r3, #6	@ tmp131,
 633 0048 09D0     		beq	.L40	@,
 634              		.loc 1 204 0 discriminator 7
 635 004a FB78     		ldrb	r3, [r7, #3]	@ zero_extendqisi2	@ tmp132, IntType
 636 004c 072B     		cmp	r3, #7	@ tmp132,
 637 004e 06D0     		beq	.L40	@,
 638              		.loc 1 204 0 discriminator 8
 639 0050 FB78     		ldrb	r3, [r7, #3]	@ zero_extendqisi2	@ tmp133, IntType
 640 0052 082B     		cmp	r3, #8	@ tmp133,
 641 0054 03D0     		beq	.L40	@,
 642              		.loc 1 204 0 discriminator 9
 643 0056 CC21     		movs	r1, #204	@,
 644 0058 0F48     		ldr	r0, .L43+4	@,
 645 005a FFF7FEFF 		bl	check_failed	@
 646              	.L40:
 205:core/lpc17xx_adc.c **** 
ARM GAS  C:\Users\STUDENT\AppData\Local\Temp\ccXSiJmk.s 			page 16


 206:core/lpc17xx_adc.c **** 	ADCx->ADINTEN &= ~ADC_INTEN_CH(IntType);
 647              		.loc 1 206 0 is_stmt 1
 648 005e 7B68     		ldr	r3, [r7, #4]	@ tmp134, ADCx
 649 0060 DA68     		ldr	r2, [r3, #12]	@ D.5721, ADCx_4(D)->ADINTEN
 650 0062 FB78     		ldrb	r3, [r7, #3]	@ zero_extendqisi2	@ D.5722, IntType
 651 0064 0121     		movs	r1, #1	@ tmp135,
 652 0066 01FA03F3 		lsl	r3, r1, r3	@ D.5721, tmp135, D.5722
 653 006a DB43     		mvns	r3, r3	@ D.5721, D.5721
 654 006c 1A40     		ands	r2, r2, r3	@, D.5721, D.5721, D.5721
 655 006e 7B68     		ldr	r3, [r7, #4]	@ tmp136, ADCx
 656 0070 DA60     		str	r2, [r3, #12]	@ D.5721, ADCx_4(D)->ADINTEN
 207:core/lpc17xx_adc.c **** 	if (NewState){
 657              		.loc 1 207 0
 658 0072 BB78     		ldrb	r3, [r7, #2]	@ zero_extendqisi2	@ tmp137, NewState
 659 0074 002B     		cmp	r3, #0	@ tmp137,
 660 0076 08D0     		beq	.L42	@,
 208:core/lpc17xx_adc.c **** 		ADCx->ADINTEN |= ADC_INTEN_CH(IntType);
 661              		.loc 1 208 0
 662 0078 7B68     		ldr	r3, [r7, #4]	@ tmp138, ADCx
 663 007a DA68     		ldr	r2, [r3, #12]	@ D.5721, ADCx_4(D)->ADINTEN
 664 007c FB78     		ldrb	r3, [r7, #3]	@ zero_extendqisi2	@ D.5722, IntType
 665 007e 0121     		movs	r1, #1	@ tmp139,
 666 0080 01FA03F3 		lsl	r3, r1, r3	@ D.5721, tmp139, D.5722
 667 0084 1A43     		orrs	r2, r2, r3	@, D.5721, D.5721, D.5721
 668 0086 7B68     		ldr	r3, [r7, #4]	@ tmp140, ADCx
 669 0088 DA60     		str	r2, [r3, #12]	@ D.5721, ADCx_4(D)->ADINTEN
 670              	.L42:
 209:core/lpc17xx_adc.c **** 	}
 210:core/lpc17xx_adc.c **** }
 671              		.loc 1 210 0
 672 008a 00BF     		nop
 673 008c 0837     		adds	r7, r7, #8	@,,
 674              		.cfi_def_cfa_offset 8
 675 008e BD46     		mov	sp, r7	@,
 676              		.cfi_def_cfa_register 13
 677              		@ sp needed	@
 678 0090 80BD     		pop	{r7, pc}	@
 679              	.L44:
 680 0092 00BF     		.align	2
 681              	.L43:
 682 0094 00400340 		.word	1073954816
 683 0098 00000000 		.word	.LC0
 684              		.cfi_endproc
 685              	.LFE62:
 686              		.size	ADC_IntConfig, .-ADC_IntConfig
 687              		.section	.text.ADC_ChannelCmd,"ax",%progbits
 688              		.align	2
 689              		.global	ADC_ChannelCmd
 690              		.thumb
 691              		.thumb_func
 692              		.type	ADC_ChannelCmd, %function
 693              	ADC_ChannelCmd:
 694              	.LFB63:
 211:core/lpc17xx_adc.c **** 
 212:core/lpc17xx_adc.c **** /*********************************************************************//**
 213:core/lpc17xx_adc.c **** * @brief 		Enable/Disable ADC channel number
 214:core/lpc17xx_adc.c **** * @param[in]	ADCx pointer to ADC
ARM GAS  C:\Users\STUDENT\AppData\Local\Temp\ccXSiJmk.s 			page 17


 215:core/lpc17xx_adc.c **** * @param[in]	Channel channel number
 216:core/lpc17xx_adc.c **** * @param[in]	NewState Enable or Disable
 217:core/lpc17xx_adc.c **** *
 218:core/lpc17xx_adc.c **** * @return 		None
 219:core/lpc17xx_adc.c **** **********************************************************************/
 220:core/lpc17xx_adc.c **** void ADC_ChannelCmd (LPC_ADC_TypeDef *ADCx, uint8_t Channel, FunctionalState NewState)
 221:core/lpc17xx_adc.c **** {
 695              		.loc 1 221 0
 696              		.cfi_startproc
 697              		@ args = 0, pretend = 0, frame = 8
 698              		@ frame_needed = 1, uses_anonymous_args = 0
 699 0000 80B5     		push	{r7, lr}	@
 700              		.cfi_def_cfa_offset 8
 701              		.cfi_offset 7, -8
 702              		.cfi_offset 14, -4
 703 0002 82B0     		sub	sp, sp, #8	@,,
 704              		.cfi_def_cfa_offset 16
 705 0004 00AF     		add	r7, sp, #0	@,,
 706              		.cfi_def_cfa_register 7
 707 0006 7860     		str	r0, [r7, #4]	@ ADCx, ADCx
 708 0008 0B46     		mov	r3, r1	@ tmp119, Channel
 709 000a FB70     		strb	r3, [r7, #3]	@ tmp120, Channel
 710 000c 1346     		mov	r3, r2	@ tmp122, tmp121
 711 000e BB70     		strb	r3, [r7, #2]	@ tmp122, NewState
 222:core/lpc17xx_adc.c **** 	CHECK_PARAM(PARAM_ADCx(ADCx));
 712              		.loc 1 222 0
 713 0010 7B68     		ldr	r3, [r7, #4]	@ tmp123, ADCx
 714 0012 114A     		ldr	r2, .L50	@ tmp124,
 715 0014 9342     		cmp	r3, r2	@ tmp123, tmp124
 716 0016 03D0     		beq	.L46	@,
 717              		.loc 1 222 0 is_stmt 0 discriminator 1
 718 0018 DE21     		movs	r1, #222	@,
 719 001a 1048     		ldr	r0, .L50+4	@,
 720 001c FFF7FEFF 		bl	check_failed	@
 721              	.L46:
 223:core/lpc17xx_adc.c **** 	CHECK_PARAM(PARAM_ADC_CHANNEL_SELECTION(Channel));
 224:core/lpc17xx_adc.c **** 
 225:core/lpc17xx_adc.c **** 	if (NewState == ENABLE) {
 722              		.loc 1 225 0 is_stmt 1
 723 0020 BB78     		ldrb	r3, [r7, #2]	@ zero_extendqisi2	@ tmp125, NewState
 724 0022 012B     		cmp	r3, #1	@ tmp125,
 725 0024 09D1     		bne	.L47	@,
 226:core/lpc17xx_adc.c **** 		ADCx->ADCR |= ADC_CR_CH_SEL(Channel);
 726              		.loc 1 226 0
 727 0026 7B68     		ldr	r3, [r7, #4]	@ tmp126, ADCx
 728 0028 1A68     		ldr	r2, [r3]	@ D.5723, ADCx_3(D)->ADCR
 729 002a FB78     		ldrb	r3, [r7, #3]	@ zero_extendqisi2	@ D.5724, Channel
 730 002c 0121     		movs	r1, #1	@ tmp127,
 731 002e 01FA03F3 		lsl	r3, r1, r3	@ D.5723, tmp127, D.5724
 732 0032 1A43     		orrs	r2, r2, r3	@, D.5723, D.5723, D.5723
 733 0034 7B68     		ldr	r3, [r7, #4]	@ tmp128, ADCx
 734 0036 1A60     		str	r2, [r3]	@ D.5723, ADCx_3(D)->ADCR
 227:core/lpc17xx_adc.c **** 	} else {
 228:core/lpc17xx_adc.c **** 		ADCx->ADCR &= ~ADC_CR_CH_SEL(Channel);
 229:core/lpc17xx_adc.c **** 	}
 230:core/lpc17xx_adc.c **** }
 735              		.loc 1 230 0
ARM GAS  C:\Users\STUDENT\AppData\Local\Temp\ccXSiJmk.s 			page 18


 736 0038 09E0     		b	.L49	@
 737              	.L47:
 228:core/lpc17xx_adc.c **** 	}
 738              		.loc 1 228 0
 739 003a 7B68     		ldr	r3, [r7, #4]	@ tmp129, ADCx
 740 003c 1A68     		ldr	r2, [r3]	@ D.5723, ADCx_3(D)->ADCR
 741 003e FB78     		ldrb	r3, [r7, #3]	@ zero_extendqisi2	@ D.5724, Channel
 742 0040 0121     		movs	r1, #1	@ tmp130,
 743 0042 01FA03F3 		lsl	r3, r1, r3	@ D.5723, tmp130, D.5724
 744 0046 DB43     		mvns	r3, r3	@ D.5723, D.5723
 745 0048 1A40     		ands	r2, r2, r3	@, D.5723, D.5723, D.5723
 746 004a 7B68     		ldr	r3, [r7, #4]	@ tmp131, ADCx
 747 004c 1A60     		str	r2, [r3]	@ D.5723, ADCx_3(D)->ADCR
 748              	.L49:
 749              		.loc 1 230 0
 750 004e 00BF     		nop
 751 0050 0837     		adds	r7, r7, #8	@,,
 752              		.cfi_def_cfa_offset 8
 753 0052 BD46     		mov	sp, r7	@,
 754              		.cfi_def_cfa_register 13
 755              		@ sp needed	@
 756 0054 80BD     		pop	{r7, pc}	@
 757              	.L51:
 758 0056 00BF     		.align	2
 759              	.L50:
 760 0058 00400340 		.word	1073954816
 761 005c 00000000 		.word	.LC0
 762              		.cfi_endproc
 763              	.LFE63:
 764              		.size	ADC_ChannelCmd, .-ADC_ChannelCmd
 765              		.section	.text.ADC_ChannelGetData,"ax",%progbits
 766              		.align	2
 767              		.global	ADC_ChannelGetData
 768              		.thumb
 769              		.thumb_func
 770              		.type	ADC_ChannelGetData, %function
 771              	ADC_ChannelGetData:
 772              	.LFB64:
 231:core/lpc17xx_adc.c **** 
 232:core/lpc17xx_adc.c **** /*********************************************************************//**
 233:core/lpc17xx_adc.c **** * @brief 		Get ADC result
 234:core/lpc17xx_adc.c **** * @param[in]	ADCx pointer to ADC
 235:core/lpc17xx_adc.c **** * @param[in]	channel channel number
 236:core/lpc17xx_adc.c **** * @return 		Data conversion
 237:core/lpc17xx_adc.c **** **********************************************************************/
 238:core/lpc17xx_adc.c **** uint16_t ADC_ChannelGetData(LPC_ADC_TypeDef *ADCx, uint8_t channel)
 239:core/lpc17xx_adc.c **** {
 773              		.loc 1 239 0
 774              		.cfi_startproc
 775              		@ args = 0, pretend = 0, frame = 16
 776              		@ frame_needed = 1, uses_anonymous_args = 0
 777 0000 80B5     		push	{r7, lr}	@
 778              		.cfi_def_cfa_offset 8
 779              		.cfi_offset 7, -8
 780              		.cfi_offset 14, -4
 781 0002 84B0     		sub	sp, sp, #16	@,,
 782              		.cfi_def_cfa_offset 24
ARM GAS  C:\Users\STUDENT\AppData\Local\Temp\ccXSiJmk.s 			page 19


 783 0004 00AF     		add	r7, sp, #0	@,,
 784              		.cfi_def_cfa_register 7
 785 0006 7860     		str	r0, [r7, #4]	@ ADCx, ADCx
 786 0008 0B46     		mov	r3, r1	@ tmp118, channel
 787 000a FB70     		strb	r3, [r7, #3]	@ tmp119, channel
 240:core/lpc17xx_adc.c **** 	uint32_t adc_value;
 241:core/lpc17xx_adc.c **** 
 242:core/lpc17xx_adc.c **** 	CHECK_PARAM(PARAM_ADCx(ADCx));
 788              		.loc 1 242 0
 789 000c 7B68     		ldr	r3, [r7, #4]	@ tmp120, ADCx
 790 000e 0C4A     		ldr	r2, .L55	@ tmp121,
 791 0010 9342     		cmp	r3, r2	@ tmp120, tmp121
 792 0012 03D0     		beq	.L53	@,
 793              		.loc 1 242 0 is_stmt 0 discriminator 1
 794 0014 F221     		movs	r1, #242	@,
 795 0016 0B48     		ldr	r0, .L55+4	@,
 796 0018 FFF7FEFF 		bl	check_failed	@
 797              	.L53:
 243:core/lpc17xx_adc.c **** 	CHECK_PARAM(PARAM_ADC_CHANNEL_SELECTION(channel));
 244:core/lpc17xx_adc.c **** 
 245:core/lpc17xx_adc.c **** 	adc_value = *(uint32_t *) ((&ADCx->ADDR0) + channel);
 798              		.loc 1 245 0 is_stmt 1
 799 001c 7B68     		ldr	r3, [r7, #4]	@ tmp122, ADCx
 800 001e 03F11002 		add	r2, r3, #16	@ D.5725, tmp122,
 801 0022 FB78     		ldrb	r3, [r7, #3]	@ zero_extendqisi2	@ D.5726, channel
 802 0024 9B00     		lsls	r3, r3, #2	@ D.5726, D.5726,
 803 0026 1344     		add	r3, r3, r2	@ D.5727, D.5725
 804 0028 1B68     		ldr	r3, [r3]	@ tmp123, *_9
 805 002a FB60     		str	r3, [r7, #12]	@ tmp123, adc_value
 246:core/lpc17xx_adc.c **** 	return ADC_DR_RESULT(adc_value);
 806              		.loc 1 246 0
 807 002c FB68     		ldr	r3, [r7, #12]	@ tmp124, adc_value
 808 002e 1B09     		lsrs	r3, r3, #4	@ D.5728, tmp124,
 809 0030 9BB2     		uxth	r3, r3	@ D.5729, D.5728
 810 0032 C3F30B03 		ubfx	r3, r3, #0, #12	@ tmp125, D.5729,,
 811 0036 9BB2     		uxth	r3, r3	@ D.5730, tmp125
 247:core/lpc17xx_adc.c **** }
 812              		.loc 1 247 0
 813 0038 1846     		mov	r0, r3	@, <retval>
 814 003a 1037     		adds	r7, r7, #16	@,,
 815              		.cfi_def_cfa_offset 8
 816 003c BD46     		mov	sp, r7	@,
 817              		.cfi_def_cfa_register 13
 818              		@ sp needed	@
 819 003e 80BD     		pop	{r7, pc}	@
 820              	.L56:
 821              		.align	2
 822              	.L55:
 823 0040 00400340 		.word	1073954816
 824 0044 00000000 		.word	.LC0
 825              		.cfi_endproc
 826              	.LFE64:
 827              		.size	ADC_ChannelGetData, .-ADC_ChannelGetData
 828              		.section	.text.ADC_ChannelGetStatus,"ax",%progbits
 829              		.align	2
 830              		.global	ADC_ChannelGetStatus
 831              		.thumb
ARM GAS  C:\Users\STUDENT\AppData\Local\Temp\ccXSiJmk.s 			page 20


 832              		.thumb_func
 833              		.type	ADC_ChannelGetStatus, %function
 834              	ADC_ChannelGetStatus:
 835              	.LFB65:
 248:core/lpc17xx_adc.c **** 
 249:core/lpc17xx_adc.c **** /*********************************************************************//**
 250:core/lpc17xx_adc.c **** * @brief 		Get ADC Chanel status from ADC data register
 251:core/lpc17xx_adc.c **** * @param[in]	ADCx pointer to ADC
 252:core/lpc17xx_adc.c **** * @param[in]	channel channel number
 253:core/lpc17xx_adc.c **** * @param[in]  	StatusType
 254:core/lpc17xx_adc.c **** *              		 	0:Burst status
 255:core/lpc17xx_adc.c **** *               		1:Done 	status
 256:core/lpc17xx_adc.c **** * @return 		SET / RESET
 257:core/lpc17xx_adc.c **** **********************************************************************/
 258:core/lpc17xx_adc.c **** FlagStatus ADC_ChannelGetStatus(LPC_ADC_TypeDef *ADCx, uint8_t channel, uint32_t StatusType)
 259:core/lpc17xx_adc.c **** {
 836              		.loc 1 259 0
 837              		.cfi_startproc
 838              		@ args = 0, pretend = 0, frame = 24
 839              		@ frame_needed = 1, uses_anonymous_args = 0
 840 0000 80B5     		push	{r7, lr}	@
 841              		.cfi_def_cfa_offset 8
 842              		.cfi_offset 7, -8
 843              		.cfi_offset 14, -4
 844 0002 86B0     		sub	sp, sp, #24	@,,
 845              		.cfi_def_cfa_offset 32
 846 0004 00AF     		add	r7, sp, #0	@,,
 847              		.cfi_def_cfa_register 7
 848 0006 F860     		str	r0, [r7, #12]	@ ADCx, ADCx
 849 0008 0B46     		mov	r3, r1	@ tmp116, channel
 850 000a 7A60     		str	r2, [r7, #4]	@ StatusType, StatusType
 851 000c FB72     		strb	r3, [r7, #11]	@ tmp117, channel
 260:core/lpc17xx_adc.c **** 	uint32_t temp;
 261:core/lpc17xx_adc.c **** 
 262:core/lpc17xx_adc.c **** 	CHECK_PARAM(PARAM_ADCx(ADCx));
 852              		.loc 1 262 0
 853 000e FB68     		ldr	r3, [r7, #12]	@ tmp118, ADCx
 854 0010 184A     		ldr	r2, .L64	@ tmp119,
 855 0012 9342     		cmp	r3, r2	@ tmp118, tmp119
 856 0014 04D0     		beq	.L58	@,
 857              		.loc 1 262 0 is_stmt 0 discriminator 1
 858 0016 4FF48371 		mov	r1, #262	@,
 859 001a 1748     		ldr	r0, .L64+4	@,
 860 001c FFF7FEFF 		bl	check_failed	@
 861              	.L58:
 263:core/lpc17xx_adc.c **** 	CHECK_PARAM(PARAM_ADC_CHANNEL_SELECTION(channel));
 264:core/lpc17xx_adc.c **** 	CHECK_PARAM(PARAM_ADC_DATA_STATUS(StatusType));
 862              		.loc 1 264 0 is_stmt 1
 863 0020 7B68     		ldr	r3, [r7, #4]	@ tmp120, StatusType
 864 0022 002B     		cmp	r3, #0	@ tmp120,
 865 0024 07D0     		beq	.L59	@,
 866              		.loc 1 264 0 is_stmt 0 discriminator 1
 867 0026 7B68     		ldr	r3, [r7, #4]	@ tmp121, StatusType
 868 0028 012B     		cmp	r3, #1	@ tmp121,
 869 002a 04D0     		beq	.L59	@,
 870              		.loc 1 264 0 discriminator 2
 871 002c 4FF48471 		mov	r1, #264	@,
ARM GAS  C:\Users\STUDENT\AppData\Local\Temp\ccXSiJmk.s 			page 21


 872 0030 1148     		ldr	r0, .L64+4	@,
 873 0032 FFF7FEFF 		bl	check_failed	@
 874              	.L59:
 265:core/lpc17xx_adc.c **** 
 266:core/lpc17xx_adc.c **** 	temp =  *(uint32_t *) ((&ADCx->ADDR0) + channel);
 875              		.loc 1 266 0 is_stmt 1
 876 0036 FB68     		ldr	r3, [r7, #12]	@ tmp122, ADCx
 877 0038 03F11002 		add	r2, r3, #16	@ D.5732, tmp122,
 878 003c FB7A     		ldrb	r3, [r7, #11]	@ zero_extendqisi2	@ D.5733, channel
 879 003e 9B00     		lsls	r3, r3, #2	@ D.5733, D.5733,
 880 0040 1344     		add	r3, r3, r2	@ D.5734, D.5732
 881 0042 1B68     		ldr	r3, [r3]	@ tmp123, *_14
 882 0044 7B61     		str	r3, [r7, #20]	@ tmp123, temp
 267:core/lpc17xx_adc.c **** 	if (StatusType) {
 883              		.loc 1 267 0
 884 0046 7B68     		ldr	r3, [r7, #4]	@ tmp124, StatusType
 885 0048 002B     		cmp	r3, #0	@ tmp124,
 886 004a 04D0     		beq	.L60	@,
 268:core/lpc17xx_adc.c **** 		temp &= ADC_DR_DONE_FLAG;
 887              		.loc 1 268 0
 888 004c 7B69     		ldr	r3, [r7, #20]	@ tmp126, temp
 889 004e 03F00043 		and	r3, r3, #-2147483648	@ tmp125, tmp126,
 890 0052 7B61     		str	r3, [r7, #20]	@ tmp125, temp
 891 0054 03E0     		b	.L61	@
 892              	.L60:
 269:core/lpc17xx_adc.c **** 	}else{
 270:core/lpc17xx_adc.c **** 		temp &= ADC_DR_OVERRUN_FLAG;
 893              		.loc 1 270 0
 894 0056 7B69     		ldr	r3, [r7, #20]	@ tmp128, temp
 895 0058 03F08043 		and	r3, r3, #1073741824	@ tmp127, tmp128,
 896 005c 7B61     		str	r3, [r7, #20]	@ tmp127, temp
 897              	.L61:
 271:core/lpc17xx_adc.c **** 	}
 272:core/lpc17xx_adc.c **** 	if (temp) {
 898              		.loc 1 272 0
 899 005e 7B69     		ldr	r3, [r7, #20]	@ tmp129, temp
 900 0060 002B     		cmp	r3, #0	@ tmp129,
 901 0062 01D0     		beq	.L62	@,
 273:core/lpc17xx_adc.c **** 		return SET;
 902              		.loc 1 273 0
 903 0064 0123     		movs	r3, #1	@ D.5731,
 904 0066 00E0     		b	.L63	@
 905              	.L62:
 274:core/lpc17xx_adc.c **** 	} else {
 275:core/lpc17xx_adc.c **** 		return RESET;
 906              		.loc 1 275 0
 907 0068 0023     		movs	r3, #0	@ D.5731,
 908              	.L63:
 276:core/lpc17xx_adc.c **** 	}
 277:core/lpc17xx_adc.c **** 
 278:core/lpc17xx_adc.c **** }
 909              		.loc 1 278 0
 910 006a 1846     		mov	r0, r3	@, <retval>
 911 006c 1837     		adds	r7, r7, #24	@,,
 912              		.cfi_def_cfa_offset 8
 913 006e BD46     		mov	sp, r7	@,
 914              		.cfi_def_cfa_register 13
ARM GAS  C:\Users\STUDENT\AppData\Local\Temp\ccXSiJmk.s 			page 22


 915              		@ sp needed	@
 916 0070 80BD     		pop	{r7, pc}	@
 917              	.L65:
 918 0072 00BF     		.align	2
 919              	.L64:
 920 0074 00400340 		.word	1073954816
 921 0078 00000000 		.word	.LC0
 922              		.cfi_endproc
 923              	.LFE65:
 924              		.size	ADC_ChannelGetStatus, .-ADC_ChannelGetStatus
 925              		.section	.text.ADC_GlobalGetData,"ax",%progbits
 926              		.align	2
 927              		.global	ADC_GlobalGetData
 928              		.thumb
 929              		.thumb_func
 930              		.type	ADC_GlobalGetData, %function
 931              	ADC_GlobalGetData:
 932              	.LFB66:
 279:core/lpc17xx_adc.c **** 
 280:core/lpc17xx_adc.c **** /*********************************************************************//**
 281:core/lpc17xx_adc.c **** * @brief 		Get ADC Data from AD Global register
 282:core/lpc17xx_adc.c **** * @param[in]	ADCx pointer to ADC
 283:core/lpc17xx_adc.c **** * @param[in]	channel channel number
 284:core/lpc17xx_adc.c **** * @return 		Result of conversion
 285:core/lpc17xx_adc.c **** **********************************************************************/
 286:core/lpc17xx_adc.c **** uint16_t ADC_GlobalGetData(LPC_ADC_TypeDef *ADCx, uint8_t channel)
 287:core/lpc17xx_adc.c **** {
 933              		.loc 1 287 0
 934              		.cfi_startproc
 935              		@ args = 0, pretend = 0, frame = 8
 936              		@ frame_needed = 1, uses_anonymous_args = 0
 937 0000 80B5     		push	{r7, lr}	@
 938              		.cfi_def_cfa_offset 8
 939              		.cfi_offset 7, -8
 940              		.cfi_offset 14, -4
 941 0002 82B0     		sub	sp, sp, #8	@,,
 942              		.cfi_def_cfa_offset 16
 943 0004 00AF     		add	r7, sp, #0	@,,
 944              		.cfi_def_cfa_register 7
 945 0006 7860     		str	r0, [r7, #4]	@ ADCx, ADCx
 946 0008 0B46     		mov	r3, r1	@ tmp115, channel
 947 000a FB70     		strb	r3, [r7, #3]	@ tmp116, channel
 288:core/lpc17xx_adc.c **** 	CHECK_PARAM(PARAM_ADCx(ADCx));
 948              		.loc 1 288 0
 949 000c 7B68     		ldr	r3, [r7, #4]	@ tmp117, ADCx
 950 000e 094A     		ldr	r2, .L69	@ tmp118,
 951 0010 9342     		cmp	r3, r2	@ tmp117, tmp118
 952 0012 04D0     		beq	.L67	@,
 953              		.loc 1 288 0 is_stmt 0 discriminator 1
 954 0014 4FF49071 		mov	r1, #288	@,
 955 0018 0748     		ldr	r0, .L69+4	@,
 956 001a FFF7FEFF 		bl	check_failed	@
 957              	.L67:
 289:core/lpc17xx_adc.c **** 	CHECK_PARAM(PARAM_ADC_CHANNEL_SELECTION(channel));
 290:core/lpc17xx_adc.c **** 
 291:core/lpc17xx_adc.c **** 	//ADCx->ADGDR &= ~ADC_GDR_CH_MASK;
 292:core/lpc17xx_adc.c **** 	//ADCx->ADGDR |= ADC_GDR_CH(channel);
ARM GAS  C:\Users\STUDENT\AppData\Local\Temp\ccXSiJmk.s 			page 23


 293:core/lpc17xx_adc.c **** 	return (uint16_t)(ADC_GDR_RESULT(ADCx->ADGDR));
 958              		.loc 1 293 0 is_stmt 1
 959 001e 7B68     		ldr	r3, [r7, #4]	@ tmp119, ADCx
 960 0020 5B68     		ldr	r3, [r3, #4]	@ D.5735, ADCx_2(D)->ADGDR
 961 0022 1B09     		lsrs	r3, r3, #4	@ D.5735, D.5735,
 962 0024 9BB2     		uxth	r3, r3	@ D.5736, D.5735
 963 0026 C3F30B03 		ubfx	r3, r3, #0, #12	@ tmp120, D.5736,,
 964 002a 9BB2     		uxth	r3, r3	@ D.5737, tmp120
 294:core/lpc17xx_adc.c **** }
 965              		.loc 1 294 0
 966 002c 1846     		mov	r0, r3	@, <retval>
 967 002e 0837     		adds	r7, r7, #8	@,,
 968              		.cfi_def_cfa_offset 8
 969 0030 BD46     		mov	sp, r7	@,
 970              		.cfi_def_cfa_register 13
 971              		@ sp needed	@
 972 0032 80BD     		pop	{r7, pc}	@
 973              	.L70:
 974              		.align	2
 975              	.L69:
 976 0034 00400340 		.word	1073954816
 977 0038 00000000 		.word	.LC0
 978              		.cfi_endproc
 979              	.LFE66:
 980              		.size	ADC_GlobalGetData, .-ADC_GlobalGetData
 981              		.section	.text.ADC_GlobalGetStatus,"ax",%progbits
 982              		.align	2
 983              		.global	ADC_GlobalGetStatus
 984              		.thumb
 985              		.thumb_func
 986              		.type	ADC_GlobalGetStatus, %function
 987              	ADC_GlobalGetStatus:
 988              	.LFB67:
 295:core/lpc17xx_adc.c **** 
 296:core/lpc17xx_adc.c **** /*********************************************************************//**
 297:core/lpc17xx_adc.c **** * @brief 		Get ADC Chanel status from AD global data register
 298:core/lpc17xx_adc.c **** * @param[in]	ADCx pointer to ADC
 299:core/lpc17xx_adc.c **** * @param[in]  	StatusType
 300:core/lpc17xx_adc.c **** *              		 	0:Burst status
 301:core/lpc17xx_adc.c **** *               		1:Done 	status
 302:core/lpc17xx_adc.c **** * @return 		SET / RESET
 303:core/lpc17xx_adc.c **** **********************************************************************/
 304:core/lpc17xx_adc.c **** FlagStatus	ADC_GlobalGetStatus(LPC_ADC_TypeDef *ADCx, uint32_t StatusType)
 305:core/lpc17xx_adc.c **** {
 989              		.loc 1 305 0
 990              		.cfi_startproc
 991              		@ args = 0, pretend = 0, frame = 16
 992              		@ frame_needed = 1, uses_anonymous_args = 0
 993 0000 80B5     		push	{r7, lr}	@
 994              		.cfi_def_cfa_offset 8
 995              		.cfi_offset 7, -8
 996              		.cfi_offset 14, -4
 997 0002 84B0     		sub	sp, sp, #16	@,,
 998              		.cfi_def_cfa_offset 24
 999 0004 00AF     		add	r7, sp, #0	@,,
 1000              		.cfi_def_cfa_register 7
 1001 0006 7860     		str	r0, [r7, #4]	@ ADCx, ADCx
ARM GAS  C:\Users\STUDENT\AppData\Local\Temp\ccXSiJmk.s 			page 24


 1002 0008 3960     		str	r1, [r7]	@ StatusType, StatusType
 306:core/lpc17xx_adc.c **** 	uint32_t temp;
 307:core/lpc17xx_adc.c **** 
 308:core/lpc17xx_adc.c **** 	CHECK_PARAM(PARAM_ADCx(ADCx));
 1003              		.loc 1 308 0
 1004 000a 7B68     		ldr	r3, [r7, #4]	@ tmp112, ADCx
 1005 000c 154A     		ldr	r2, .L78	@ tmp113,
 1006 000e 9342     		cmp	r3, r2	@ tmp112, tmp113
 1007 0010 04D0     		beq	.L72	@,
 1008              		.loc 1 308 0 is_stmt 0 discriminator 1
 1009 0012 4FF49A71 		mov	r1, #308	@,
 1010 0016 1448     		ldr	r0, .L78+4	@,
 1011 0018 FFF7FEFF 		bl	check_failed	@
 1012              	.L72:
 309:core/lpc17xx_adc.c **** 	CHECK_PARAM(PARAM_ADC_DATA_STATUS(StatusType));
 1013              		.loc 1 309 0 is_stmt 1
 1014 001c 3B68     		ldr	r3, [r7]	@ tmp114, StatusType
 1015 001e 002B     		cmp	r3, #0	@ tmp114,
 1016 0020 07D0     		beq	.L73	@,
 1017              		.loc 1 309 0 is_stmt 0 discriminator 1
 1018 0022 3B68     		ldr	r3, [r7]	@ tmp115, StatusType
 1019 0024 012B     		cmp	r3, #1	@ tmp115,
 1020 0026 04D0     		beq	.L73	@,
 1021              		.loc 1 309 0 discriminator 2
 1022 0028 40F23511 		movw	r1, #309	@,
 1023 002c 0E48     		ldr	r0, .L78+4	@,
 1024 002e FFF7FEFF 		bl	check_failed	@
 1025              	.L73:
 310:core/lpc17xx_adc.c **** 
 311:core/lpc17xx_adc.c **** 	temp =  ADCx->ADGDR;
 1026              		.loc 1 311 0 is_stmt 1
 1027 0032 7B68     		ldr	r3, [r7, #4]	@ tmp116, ADCx
 1028 0034 5B68     		ldr	r3, [r3, #4]	@ tmp117, ADCx_5(D)->ADGDR
 1029 0036 FB60     		str	r3, [r7, #12]	@ tmp117, temp
 312:core/lpc17xx_adc.c **** 	if (StatusType){
 1030              		.loc 1 312 0
 1031 0038 3B68     		ldr	r3, [r7]	@ tmp118, StatusType
 1032 003a 002B     		cmp	r3, #0	@ tmp118,
 1033 003c 04D0     		beq	.L74	@,
 313:core/lpc17xx_adc.c **** 		temp &= ADC_DR_DONE_FLAG;
 1034              		.loc 1 313 0
 1035 003e FB68     		ldr	r3, [r7, #12]	@ tmp120, temp
 1036 0040 03F00043 		and	r3, r3, #-2147483648	@ tmp119, tmp120,
 1037 0044 FB60     		str	r3, [r7, #12]	@ tmp119, temp
 1038 0046 03E0     		b	.L75	@
 1039              	.L74:
 314:core/lpc17xx_adc.c **** 	}else{
 315:core/lpc17xx_adc.c **** 		temp &= ADC_DR_OVERRUN_FLAG;
 1040              		.loc 1 315 0
 1041 0048 FB68     		ldr	r3, [r7, #12]	@ tmp122, temp
 1042 004a 03F08043 		and	r3, r3, #1073741824	@ tmp121, tmp122,
 1043 004e FB60     		str	r3, [r7, #12]	@ tmp121, temp
 1044              	.L75:
 316:core/lpc17xx_adc.c **** 	}
 317:core/lpc17xx_adc.c **** 	if (temp){
 1045              		.loc 1 317 0
 1046 0050 FB68     		ldr	r3, [r7, #12]	@ tmp123, temp
ARM GAS  C:\Users\STUDENT\AppData\Local\Temp\ccXSiJmk.s 			page 25


 1047 0052 002B     		cmp	r3, #0	@ tmp123,
 1048 0054 01D0     		beq	.L76	@,
 318:core/lpc17xx_adc.c **** 		return SET;
 1049              		.loc 1 318 0
 1050 0056 0123     		movs	r3, #1	@ D.5738,
 1051 0058 00E0     		b	.L77	@
 1052              	.L76:
 319:core/lpc17xx_adc.c **** 	}else{
 320:core/lpc17xx_adc.c **** 		return RESET;
 1053              		.loc 1 320 0
 1054 005a 0023     		movs	r3, #0	@ D.5738,
 1055              	.L77:
 321:core/lpc17xx_adc.c **** 	}
 322:core/lpc17xx_adc.c **** }
 1056              		.loc 1 322 0
 1057 005c 1846     		mov	r0, r3	@, <retval>
 1058 005e 1037     		adds	r7, r7, #16	@,,
 1059              		.cfi_def_cfa_offset 8
 1060 0060 BD46     		mov	sp, r7	@,
 1061              		.cfi_def_cfa_register 13
 1062              		@ sp needed	@
 1063 0062 80BD     		pop	{r7, pc}	@
 1064              	.L79:
 1065              		.align	2
 1066              	.L78:
 1067 0064 00400340 		.word	1073954816
 1068 0068 00000000 		.word	.LC0
 1069              		.cfi_endproc
 1070              	.LFE67:
 1071              		.size	ADC_GlobalGetStatus, .-ADC_GlobalGetStatus
 1072              		.text
 1073              	.Letext0:
 1074              		.file 2 "c:\\program files (x86)\\gnu tools arm embedded\\5.4 2016q3\\arm-none-eabi\\include\\mach
 1075              		.file 3 "c:\\program files (x86)\\gnu tools arm embedded\\5.4 2016q3\\arm-none-eabi\\include\\sys\
 1076              		.file 4 "system/LPC17xx.h"
 1077              		.file 5 "core/lpc_types.h"
 1078              		.file 6 "core/lpc17xx_adc.h"
 1079              		.file 7 "system/core_cm3.h"