ARM GAS  C:\Users\COSMIN~1.MAR\AppData\Local\Temp\ccT2k4Ht.s 			page 1


   1              		.syntax unified
   2              		.cpu cortex-m3
   3              		.fpu softvfp
   4              		.eabi_attribute 20, 1	@ Tag_ABI_FP_denormal
   5              		.eabi_attribute 21, 1	@ Tag_ABI_FP_exceptions
   6              		.eabi_attribute 23, 3	@ Tag_ABI_FP_number_model
   7              		.eabi_attribute 24, 1	@ Tag_ABI_align8_needed
   8              		.eabi_attribute 25, 1	@ Tag_ABI_align8_preserved
   9              		.eabi_attribute 26, 1	@ Tag_ABI_enum_size
  10              		.eabi_attribute 30, 6	@ Tag_ABI_optimization_goals
  11              		.eabi_attribute 34, 1	@ Tag_CPU_unaligned_access
  12              		.eabi_attribute 18, 4	@ Tag_ABI_PCS_wchar_t
  13              		.file	"rc_app.c"
  14              	@ GNU C (GNU Tools for ARM Embedded Processors) version 4.9.3 20150303 (release) [ARM/embedded-4_9-
  15              	@	compiled by GNU C version 4.7.4, GMP version 4.3.2, MPFR version 2.4.2, MPC version 0.8.1
  16              	@ GGC heuristics: --param ggc-min-expand=100 --param ggc-min-heapsize=131072
  17              	@ options passed:  -I . -I config -I system -I core -I drivers -I FreeRTOS
  18              	@ -I FreeRTOS/include -I FreeRTOS/portable/GCC/ARM_CM3 -I FreeRTOS/portable
  19              	@ -I tasks/rc_task_leds -I tasks/rc_task_pot -I modules/rc_leds
  20              	@ -I modules/rc_pot -I drivers/rc_system -I drivers/rc_gpio
  21              	@ -I drivers/rc_uart -I drivers/rc_pinsel -I drivers/rc_timer
  22              	@ -I drivers/rc_adc -imultilib armv7-m
  23              	@ -iprefix c:\gnu tools arm embedded\4.9 2015q1\bin\../lib/gcc/arm-none-eabi/4.9.3/
  24              	@ -isysroot c:\gnu tools arm embedded\4.9 2015q1\bin\../arm-none-eabi
  25              	@ -MD out/rc_app.d -MF out/rc_app.d -MP -MQ out/rc_app.o
  26              	@ -D__USES_INITFINI__ rc_app.c -mcpu=cortex-m3 -mthumb
  27              	@ -auxbase-strip out/rc_app.o -g -ggdb3 -O0 -Wall -Wstrict-prototypes
  28              	@ -Wextra -std=gnu90 -ffunction-sections -fdata-sections -fverbose-asm
  29              	@ options enabled:  -faggressive-loop-optimizations -fauto-inc-dec -fcommon
  30              	@ -fdata-sections -fdelete-null-pointer-checks -fdwarf2-cfi-asm
  31              	@ -fearly-inlining -feliminate-unused-debug-types -ffunction-cse
  32              	@ -ffunction-sections -fgcse-lm -fgnu-runtime -fgnu-unique -fident
  33              	@ -finline-atomics -fira-hoist-pressure -fira-share-save-slots
  34              	@ -fira-share-spill-slots -fivopts -fkeep-static-consts
  35              	@ -fleading-underscore -flifetime-dse -fmath-errno -fmerge-debug-strings
  36              	@ -fpeephole -fprefetch-loop-arrays -freg-struct-return
  37              	@ -fsched-critical-path-heuristic -fsched-dep-count-heuristic
  38              	@ -fsched-group-heuristic -fsched-interblock -fsched-last-insn-heuristic
  39              	@ -fsched-rank-heuristic -fsched-spec -fsched-spec-insn-heuristic
  40              	@ -fsched-stalled-insns-dep -fshow-column -fsigned-zeros
  41              	@ -fsplit-ivs-in-unroller -fstrict-volatile-bitfields -fsync-libcalls
  42              	@ -ftrapping-math -ftree-coalesce-vars -ftree-cselim -ftree-forwprop
  43              	@ -ftree-loop-if-convert -ftree-loop-im -ftree-loop-ivcanon
  44              	@ -ftree-loop-optimize -ftree-parallelize-loops= -ftree-phiprop
  45              	@ -ftree-reassoc -ftree-scev-cprop -funit-at-a-time -fverbose-asm
  46              	@ -fzero-initialized-in-bss -mfix-cortex-m3-ldrd -mlittle-endian -mlra
  47              	@ -mpic-data-is-text-relative -msched-prolog -mthumb -munaligned-access
  48              	@ -mvectorize-with-neon-quad
  49              	
  50              		.text
  51              	.Ltext0:
  52              		.cfi_sections	.debug_frame
  53              		.section	.text.NVIC_EnableIRQ,"ax",%progbits
  54              		.align	2
  55              		.thumb
  56              		.thumb_func
  57              		.type	NVIC_EnableIRQ, %function
ARM GAS  C:\Users\COSMIN~1.MAR\AppData\Local\Temp\ccT2k4Ht.s 			page 2


  58              	NVIC_EnableIRQ:
  59              	.LFB40:
  60              		.file 1 "system/core_cm3.h"
   1:system/core_cm3.h **** /**************************************************************************//**
   2:system/core_cm3.h ****  * @file     core_cm3.h
   3:system/core_cm3.h ****  * @brief    CMSIS Cortex-M3 Core Peripheral Access Layer Header File
   4:system/core_cm3.h ****  * @version  V2.01
   5:system/core_cm3.h ****  * @date     06. December 2010
   6:system/core_cm3.h ****  *
   7:system/core_cm3.h ****  * @note
   8:system/core_cm3.h ****  * Copyright (C) 2009-2010 ARM Limited. All rights reserved.
   9:system/core_cm3.h ****  *
  10:system/core_cm3.h ****  * @par
  11:system/core_cm3.h ****  * ARM Limited (ARM) is supplying this software for use with Cortex-M
  12:system/core_cm3.h ****  * processor based microcontrollers.  This file can be freely distributed
  13:system/core_cm3.h ****  * within development tools that are supporting such ARM based processors.
  14:system/core_cm3.h ****  *
  15:system/core_cm3.h ****  * @par
  16:system/core_cm3.h ****  * THIS SOFTWARE IS PROVIDED "AS IS".  NO WARRANTIES, WHETHER EXPRESS, IMPLIED
  17:system/core_cm3.h ****  * OR STATUTORY, INCLUDING, BUT NOT LIMITED TO, IMPLIED WARRANTIES OF
  18:system/core_cm3.h ****  * MERCHANTABILITY AND FITNESS FOR A PARTICULAR PURPOSE APPLY TO THIS SOFTWARE.
  19:system/core_cm3.h ****  * ARM SHALL NOT, IN ANY CIRCUMSTANCES, BE LIABLE FOR SPECIAL, INCIDENTAL, OR
  20:system/core_cm3.h ****  * CONSEQUENTIAL DAMAGES, FOR ANY REASON WHATSOEVER.
  21:system/core_cm3.h ****  *
  22:system/core_cm3.h ****  ******************************************************************************/
  23:system/core_cm3.h **** #if defined ( __ICCARM__ )
  24:system/core_cm3.h ****  #pragma system_include  /* treat file as system include file for MISRA check */
  25:system/core_cm3.h **** #endif
  26:system/core_cm3.h **** 
  27:system/core_cm3.h **** #ifdef __cplusplus
  28:system/core_cm3.h ****  extern "C" {
  29:system/core_cm3.h **** #endif
  30:system/core_cm3.h **** 
  31:system/core_cm3.h **** #ifndef __CORE_CM3_H_GENERIC
  32:system/core_cm3.h **** #define __CORE_CM3_H_GENERIC
  33:system/core_cm3.h **** 
  34:system/core_cm3.h **** /** @addtogroup CMSIS_core_LintCinfiguration CMSIS Core Lint Configuration
  35:system/core_cm3.h ****   List of Lint messages which will be suppressed and not shown:
  36:system/core_cm3.h ****     - not yet checked
  37:system/core_cm3.h ****   .
  38:system/core_cm3.h ****   Note:  To re-enable a Message, insert a space before 'lint' *
  39:system/core_cm3.h **** 
  40:system/core_cm3.h ****  */
  41:system/core_cm3.h **** 
  42:system/core_cm3.h **** 
  43:system/core_cm3.h **** /*******************************************************************************
  44:system/core_cm3.h ****  *                 CMSIS definitions
  45:system/core_cm3.h ****  ******************************************************************************/
  46:system/core_cm3.h **** /** @addtogroup CMSIS_core_definitions CMSIS Core Definitions
  47:system/core_cm3.h ****   This file defines all structures and symbols for CMSIS core:
  48:system/core_cm3.h ****    - CMSIS version number
  49:system/core_cm3.h ****    - Cortex-M core
  50:system/core_cm3.h ****    - Cortex-M core Revision Number
  51:system/core_cm3.h ****   @{
  52:system/core_cm3.h ****  */
  53:system/core_cm3.h **** 
  54:system/core_cm3.h **** /*  CMSIS CM3 definitions */
ARM GAS  C:\Users\COSMIN~1.MAR\AppData\Local\Temp\ccT2k4Ht.s 			page 3


  55:system/core_cm3.h **** #define __CM3_CMSIS_VERSION_MAIN  (0x02)                                                       /*!<
  56:system/core_cm3.h **** #define __CM3_CMSIS_VERSION_SUB   (0x00)                                                       /*!<
  57:system/core_cm3.h **** #define __CM3_CMSIS_VERSION       ((__CM3_CMSIS_VERSION_MAIN << 16) | __CM3_CMSIS_VERSION_SUB) /*!<
  58:system/core_cm3.h **** 
  59:system/core_cm3.h **** #define __CORTEX_M                (0x03)                                                       /*!<
  60:system/core_cm3.h **** 
  61:system/core_cm3.h **** 
  62:system/core_cm3.h **** #if defined ( __CC_ARM   )
  63:system/core_cm3.h ****   #define __ASM            __asm                                      /*!< asm keyword for ARM Comp
  64:system/core_cm3.h ****   #define __INLINE         __inline                                   /*!< inline keyword for ARM C
  65:system/core_cm3.h **** 
  66:system/core_cm3.h **** #elif defined ( __ICCARM__ )
  67:system/core_cm3.h ****   #define __ASM           __asm                                       /*!< asm keyword for IAR Comp
  68:system/core_cm3.h ****   #define __INLINE        inline                                      /*!< inline keyword for IAR C
  69:system/core_cm3.h **** 
  70:system/core_cm3.h **** #elif defined   (  __GNUC__  )
  71:system/core_cm3.h ****   #define __ASM            __asm                                      /*!< asm keyword for GNU Comp
  72:system/core_cm3.h ****   #define __INLINE         inline                                     /*!< inline keyword for GNU C
  73:system/core_cm3.h **** 
  74:system/core_cm3.h **** #elif defined   (  __TASKING__  )
  75:system/core_cm3.h ****   #define __ASM            __asm                                      /*!< asm keyword for TASKING 
  76:system/core_cm3.h ****   #define __INLINE         inline                                     /*!< inline keyword for TASKI
  77:system/core_cm3.h **** 
  78:system/core_cm3.h **** #endif
  79:system/core_cm3.h **** 
  80:system/core_cm3.h **** #include <stdint.h>                      /*!< standard types definitions                      */
  81:system/core_cm3.h **** #include "core_cmInstr.h"                /*!< Core Instruction Access                         */
  82:system/core_cm3.h **** #include "core_cmFunc.h"                 /*!< Core Function Access                            */
  83:system/core_cm3.h **** 
  84:system/core_cm3.h **** #endif /* __CORE_CM3_H_GENERIC */
  85:system/core_cm3.h **** 
  86:system/core_cm3.h **** 
  87:system/core_cm3.h **** #ifndef __CMSIS_GENERIC
  88:system/core_cm3.h **** 
  89:system/core_cm3.h **** #ifndef __CORE_CM3_H_DEPENDANT
  90:system/core_cm3.h **** #define __CORE_CM3_H_DEPENDANT
  91:system/core_cm3.h **** 
  92:system/core_cm3.h **** /* IO definitions (access restrictions to peripheral registers) */
  93:system/core_cm3.h **** #ifdef __cplusplus
  94:system/core_cm3.h ****   #define     __I     volatile           /*!< defines 'read only' permissions                 */
  95:system/core_cm3.h **** #else
  96:system/core_cm3.h ****   #define     __I     volatile const     /*!< defines 'read only' permissions                 */
  97:system/core_cm3.h **** #endif
  98:system/core_cm3.h **** #define     __O     volatile             /*!< defines 'write only' permissions                */
  99:system/core_cm3.h **** #define     __IO    volatile             /*!< defines 'read / write' permissions              */
 100:system/core_cm3.h **** 
 101:system/core_cm3.h **** /*@} end of group CMSIS_core_definitions */
 102:system/core_cm3.h **** 
 103:system/core_cm3.h **** 
 104:system/core_cm3.h **** 
 105:system/core_cm3.h **** /*******************************************************************************
 106:system/core_cm3.h ****  *                 Register Abstraction
 107:system/core_cm3.h ****  ******************************************************************************/
 108:system/core_cm3.h **** /** @addtogroup CMSIS_core_register CMSIS Core Register
 109:system/core_cm3.h ****   Core Register contain:
 110:system/core_cm3.h ****   - Core Register
 111:system/core_cm3.h ****   - Core NVIC Register
ARM GAS  C:\Users\COSMIN~1.MAR\AppData\Local\Temp\ccT2k4Ht.s 			page 4


 112:system/core_cm3.h ****   - Core SCB Register
 113:system/core_cm3.h ****   - Core SysTick Register
 114:system/core_cm3.h ****   - Core Debug Register
 115:system/core_cm3.h ****   - Core MPU Register
 116:system/core_cm3.h **** */
 117:system/core_cm3.h **** 
 118:system/core_cm3.h **** /** \ingroup  CMSIS_core_register
 119:system/core_cm3.h ****     \defgroup CMSIS_CORE CMSIS Core
 120:system/core_cm3.h ****   Type definitions for the Cortex-M Core Registers
 121:system/core_cm3.h ****   @{
 122:system/core_cm3.h ****  */
 123:system/core_cm3.h **** 
 124:system/core_cm3.h **** /** \brief  Union type to access the Application Program Status Register (APSR).
 125:system/core_cm3.h ****  */
 126:system/core_cm3.h **** typedef union
 127:system/core_cm3.h **** {
 128:system/core_cm3.h ****   struct
 129:system/core_cm3.h ****   {
 130:system/core_cm3.h **** #if (__CORTEX_M != 0x04)
 131:system/core_cm3.h ****     uint32_t _reserved0:27;              /*!< bit:  0..26  Reserved                           */
 132:system/core_cm3.h **** #else
 133:system/core_cm3.h ****     uint32_t _reserved0:16;              /*!< bit:  0..15  Reserved                           */
 134:system/core_cm3.h ****     uint32_t GE:4;                       /*!< bit: 16..19  Greater than or Equal flags        */
 135:system/core_cm3.h ****     uint32_t _reserved1:7;               /*!< bit: 20..26  Reserved                           */
 136:system/core_cm3.h **** #endif
 137:system/core_cm3.h ****     uint32_t Q:1;                        /*!< bit:     27  Saturation condition flag          */
 138:system/core_cm3.h ****     uint32_t V:1;                        /*!< bit:     28  Overflow condition code flag       */
 139:system/core_cm3.h ****     uint32_t C:1;                        /*!< bit:     29  Carry condition code flag          */
 140:system/core_cm3.h ****     uint32_t Z:1;                        /*!< bit:     30  Zero condition code flag           */
 141:system/core_cm3.h ****     uint32_t N:1;                        /*!< bit:     31  Negative condition code flag       */
 142:system/core_cm3.h ****   } b;                                   /*!< Structure used for bit  access                  */
 143:system/core_cm3.h ****   uint32_t w;                            /*!< Type      used for word access                  */
 144:system/core_cm3.h **** } APSR_Type;
 145:system/core_cm3.h **** 
 146:system/core_cm3.h **** 
 147:system/core_cm3.h **** /** \brief  Union type to access the Interrupt Program Status Register (IPSR).
 148:system/core_cm3.h ****  */
 149:system/core_cm3.h **** typedef union
 150:system/core_cm3.h **** {
 151:system/core_cm3.h ****   struct
 152:system/core_cm3.h ****   {
 153:system/core_cm3.h ****     uint32_t ISR:9;                      /*!< bit:  0.. 8  Exception number                   */
 154:system/core_cm3.h ****     uint32_t _reserved0:23;              /*!< bit:  9..31  Reserved                           */
 155:system/core_cm3.h ****   } b;                                   /*!< Structure used for bit  access                  */
 156:system/core_cm3.h ****   uint32_t w;                            /*!< Type      used for word access                  */
 157:system/core_cm3.h **** } IPSR_Type;
 158:system/core_cm3.h **** 
 159:system/core_cm3.h **** 
 160:system/core_cm3.h **** /** \brief  Union type to access the Special-Purpose Program Status Registers (xPSR).
 161:system/core_cm3.h ****  */
 162:system/core_cm3.h **** typedef union
 163:system/core_cm3.h **** {
 164:system/core_cm3.h ****   struct
 165:system/core_cm3.h ****   {
 166:system/core_cm3.h ****     uint32_t ISR:9;                      /*!< bit:  0.. 8  Exception number                   */
 167:system/core_cm3.h **** #if (__CORTEX_M != 0x04)
 168:system/core_cm3.h ****     uint32_t _reserved0:15;              /*!< bit:  9..23  Reserved                           */
ARM GAS  C:\Users\COSMIN~1.MAR\AppData\Local\Temp\ccT2k4Ht.s 			page 5


 169:system/core_cm3.h **** #else
 170:system/core_cm3.h ****     uint32_t _reserved0:7;               /*!< bit:  9..15  Reserved                           */
 171:system/core_cm3.h ****     uint32_t GE:4;                       /*!< bit: 16..19  Greater than or Equal flags        */
 172:system/core_cm3.h ****     uint32_t _reserved1:4;               /*!< bit: 20..23  Reserved                           */
 173:system/core_cm3.h **** #endif
 174:system/core_cm3.h ****     uint32_t T:1;                        /*!< bit:     24  Thumb bit        (read 0)          */
 175:system/core_cm3.h ****     uint32_t IT:2;                       /*!< bit: 25..26  saved IT state   (read 0)          */
 176:system/core_cm3.h ****     uint32_t Q:1;                        /*!< bit:     27  Saturation condition flag          */
 177:system/core_cm3.h ****     uint32_t V:1;                        /*!< bit:     28  Overflow condition code flag       */
 178:system/core_cm3.h ****     uint32_t C:1;                        /*!< bit:     29  Carry condition code flag          */
 179:system/core_cm3.h ****     uint32_t Z:1;                        /*!< bit:     30  Zero condition code flag           */
 180:system/core_cm3.h ****     uint32_t N:1;                        /*!< bit:     31  Negative condition code flag       */
 181:system/core_cm3.h ****   } b;                                   /*!< Structure used for bit  access                  */
 182:system/core_cm3.h ****   uint32_t w;                            /*!< Type      used for word access                  */
 183:system/core_cm3.h **** } xPSR_Type;
 184:system/core_cm3.h **** 
 185:system/core_cm3.h **** 
 186:system/core_cm3.h **** /** \brief  Union type to access the Control Registers (CONTROL).
 187:system/core_cm3.h ****  */
 188:system/core_cm3.h **** typedef union
 189:system/core_cm3.h **** {
 190:system/core_cm3.h ****   struct
 191:system/core_cm3.h ****   {
 192:system/core_cm3.h ****     uint32_t nPRIV:1;                    /*!< bit:      0  Execution privilege in Thread mode */
 193:system/core_cm3.h ****     uint32_t SPSEL:1;                    /*!< bit:      1  Stack to be used                   */
 194:system/core_cm3.h ****     uint32_t FPCA:1;                     /*!< bit:      2  FP extension active flag           */
 195:system/core_cm3.h ****     uint32_t _reserved0:29;              /*!< bit:  3..31  Reserved                           */
 196:system/core_cm3.h ****   } b;                                   /*!< Structure used for bit  access                  */
 197:system/core_cm3.h ****   uint32_t w;                            /*!< Type      used for word access                  */
 198:system/core_cm3.h **** } CONTROL_Type;
 199:system/core_cm3.h **** 
 200:system/core_cm3.h **** /*@} end of group CMSIS_CORE */
 201:system/core_cm3.h **** 
 202:system/core_cm3.h **** 
 203:system/core_cm3.h **** /** \ingroup  CMSIS_core_register
 204:system/core_cm3.h ****     \defgroup CMSIS_NVIC CMSIS NVIC
 205:system/core_cm3.h ****   Type definitions for the Cortex-M NVIC Registers
 206:system/core_cm3.h ****   @{
 207:system/core_cm3.h ****  */
 208:system/core_cm3.h **** 
 209:system/core_cm3.h **** /** \brief  Structure type to access the Nested Vectored Interrupt Controller (NVIC).
 210:system/core_cm3.h ****  */
 211:system/core_cm3.h **** typedef struct
 212:system/core_cm3.h **** {
 213:system/core_cm3.h ****   __IO uint32_t ISER[8];                 /*!< Offset: 0x000 (R/W)  Interrupt Set Enable Register   
 214:system/core_cm3.h ****        uint32_t RESERVED0[24];
 215:system/core_cm3.h ****   __IO uint32_t ICER[8];                 /*!< Offset: 0x080 (R/W)  Interrupt Clear Enable Register 
 216:system/core_cm3.h ****        uint32_t RSERVED1[24];
 217:system/core_cm3.h ****   __IO uint32_t ISPR[8];                 /*!< Offset: 0x100 (R/W)  Interrupt Set Pending Register  
 218:system/core_cm3.h ****        uint32_t RESERVED2[24];
 219:system/core_cm3.h ****   __IO uint32_t ICPR[8];                 /*!< Offset: 0x180 (R/W)  Interrupt Clear Pending Register
 220:system/core_cm3.h ****        uint32_t RESERVED3[24];
 221:system/core_cm3.h ****   __IO uint32_t IABR[8];                 /*!< Offset: 0x200 (R/W)  Interrupt Active bit Register   
 222:system/core_cm3.h ****        uint32_t RESERVED4[56];
 223:system/core_cm3.h ****   __IO uint8_t  IP[240];                 /*!< Offset: 0x300 (R/W)  Interrupt Priority Register (8Bi
 224:system/core_cm3.h ****        uint32_t RESERVED5[644];
 225:system/core_cm3.h ****   __O  uint32_t STIR;                    /*!< Offset: 0xE00 ( /W)  Software Trigger Interrupt Regis
ARM GAS  C:\Users\COSMIN~1.MAR\AppData\Local\Temp\ccT2k4Ht.s 			page 6


 226:system/core_cm3.h **** }  NVIC_Type;
 227:system/core_cm3.h **** 
 228:system/core_cm3.h **** /*@} end of group CMSIS_NVIC */
 229:system/core_cm3.h **** 
 230:system/core_cm3.h **** 
 231:system/core_cm3.h **** /** \ingroup  CMSIS_core_register
 232:system/core_cm3.h ****     \defgroup CMSIS_SCB CMSIS SCB
 233:system/core_cm3.h ****   Type definitions for the Cortex-M System Control Block Registers
 234:system/core_cm3.h ****   @{
 235:system/core_cm3.h ****  */
 236:system/core_cm3.h **** 
 237:system/core_cm3.h **** /** \brief  Structure type to access the System Control Block (SCB).
 238:system/core_cm3.h ****  */
 239:system/core_cm3.h **** typedef struct
 240:system/core_cm3.h **** {
 241:system/core_cm3.h ****   __I  uint32_t CPUID;                   /*!< Offset: 0x000 (R/ )  CPU ID Base Register            
 242:system/core_cm3.h ****   __IO uint32_t ICSR;                    /*!< Offset: 0x004 (R/W)  Interrupt Control State Register
 243:system/core_cm3.h ****   __IO uint32_t VTOR;                    /*!< Offset: 0x008 (R/W)  Vector Table Offset Register    
 244:system/core_cm3.h ****   __IO uint32_t AIRCR;                   /*!< Offset: 0x00C (R/W)  Application Interrupt / Reset Co
 245:system/core_cm3.h ****   __IO uint32_t SCR;                     /*!< Offset: 0x010 (R/W)  System Control Register         
 246:system/core_cm3.h ****   __IO uint32_t CCR;                     /*!< Offset: 0x014 (R/W)  Configuration Control Register  
 247:system/core_cm3.h ****   __IO uint8_t  SHP[12];                 /*!< Offset: 0x018 (R/W)  System Handlers Priority Registe
 248:system/core_cm3.h ****   __IO uint32_t SHCSR;                   /*!< Offset: 0x024 (R/W)  System Handler Control and State
 249:system/core_cm3.h ****   __IO uint32_t CFSR;                    /*!< Offset: 0x028 (R/W)  Configurable Fault Status Regist
 250:system/core_cm3.h ****   __IO uint32_t HFSR;                    /*!< Offset: 0x02C (R/W)  Hard Fault Status Register      
 251:system/core_cm3.h ****   __IO uint32_t DFSR;                    /*!< Offset: 0x030 (R/W)  Debug Fault Status Register     
 252:system/core_cm3.h ****   __IO uint32_t MMFAR;                   /*!< Offset: 0x034 (R/W)  Mem Manage Address Register     
 253:system/core_cm3.h ****   __IO uint32_t BFAR;                    /*!< Offset: 0x038 (R/W)  Bus Fault Address Register      
 254:system/core_cm3.h ****   __IO uint32_t AFSR;                    /*!< Offset: 0x03C (R/W)  Auxiliary Fault Status Register 
 255:system/core_cm3.h ****   __I  uint32_t PFR[2];                  /*!< Offset: 0x040 (R/ )  Processor Feature Register      
 256:system/core_cm3.h ****   __I  uint32_t DFR;                     /*!< Offset: 0x048 (R/ )  Debug Feature Register          
 257:system/core_cm3.h ****   __I  uint32_t ADR;                     /*!< Offset: 0x04C (R/ )  Auxiliary Feature Register      
 258:system/core_cm3.h ****   __I  uint32_t MMFR[4];                 /*!< Offset: 0x050 (R/ )  Memory Model Feature Register   
 259:system/core_cm3.h ****   __I  uint32_t ISAR[5];                 /*!< Offset: 0x060 (R/ )  ISA Feature Register            
 260:system/core_cm3.h **** } SCB_Type;
 261:system/core_cm3.h **** 
 262:system/core_cm3.h **** /* SCB CPUID Register Definitions */
 263:system/core_cm3.h **** #define SCB_CPUID_IMPLEMENTER_Pos          24                                             /*!< SCB 
 264:system/core_cm3.h **** #define SCB_CPUID_IMPLEMENTER_Msk          (0xFFUL << SCB_CPUID_IMPLEMENTER_Pos)          /*!< SCB 
 265:system/core_cm3.h **** 
 266:system/core_cm3.h **** #define SCB_CPUID_VARIANT_Pos              20                                             /*!< SCB 
 267:system/core_cm3.h **** #define SCB_CPUID_VARIANT_Msk              (0xFUL << SCB_CPUID_VARIANT_Pos)               /*!< SCB 
 268:system/core_cm3.h **** 
 269:system/core_cm3.h **** #define SCB_CPUID_PARTNO_Pos                4                                             /*!< SCB 
 270:system/core_cm3.h **** #define SCB_CPUID_PARTNO_Msk               (0xFFFUL << SCB_CPUID_PARTNO_Pos)              /*!< SCB 
 271:system/core_cm3.h **** 
 272:system/core_cm3.h **** #define SCB_CPUID_REVISION_Pos              0                                             /*!< SCB 
 273:system/core_cm3.h **** #define SCB_CPUID_REVISION_Msk             (0xFUL << SCB_CPUID_REVISION_Pos)              /*!< SCB 
 274:system/core_cm3.h **** 
 275:system/core_cm3.h **** /* SCB Interrupt Control State Register Definitions */
 276:system/core_cm3.h **** #define SCB_ICSR_NMIPENDSET_Pos            31                                             /*!< SCB 
 277:system/core_cm3.h **** #define SCB_ICSR_NMIPENDSET_Msk            (1UL << SCB_ICSR_NMIPENDSET_Pos)               /*!< SCB 
 278:system/core_cm3.h **** 
 279:system/core_cm3.h **** #define SCB_ICSR_PENDSVSET_Pos             28                                             /*!< SCB 
 280:system/core_cm3.h **** #define SCB_ICSR_PENDSVSET_Msk             (1UL << SCB_ICSR_PENDSVSET_Pos)                /*!< SCB 
 281:system/core_cm3.h **** 
 282:system/core_cm3.h **** #define SCB_ICSR_PENDSVCLR_Pos             27                                             /*!< SCB 
ARM GAS  C:\Users\COSMIN~1.MAR\AppData\Local\Temp\ccT2k4Ht.s 			page 7


 283:system/core_cm3.h **** #define SCB_ICSR_PENDSVCLR_Msk             (1UL << SCB_ICSR_PENDSVCLR_Pos)                /*!< SCB 
 284:system/core_cm3.h **** 
 285:system/core_cm3.h **** #define SCB_ICSR_PENDSTSET_Pos             26                                             /*!< SCB 
 286:system/core_cm3.h **** #define SCB_ICSR_PENDSTSET_Msk             (1UL << SCB_ICSR_PENDSTSET_Pos)                /*!< SCB 
 287:system/core_cm3.h **** 
 288:system/core_cm3.h **** #define SCB_ICSR_PENDSTCLR_Pos             25                                             /*!< SCB 
 289:system/core_cm3.h **** #define SCB_ICSR_PENDSTCLR_Msk             (1UL << SCB_ICSR_PENDSTCLR_Pos)                /*!< SCB 
 290:system/core_cm3.h **** 
 291:system/core_cm3.h **** #define SCB_ICSR_ISRPREEMPT_Pos            23                                             /*!< SCB 
 292:system/core_cm3.h **** #define SCB_ICSR_ISRPREEMPT_Msk            (1UL << SCB_ICSR_ISRPREEMPT_Pos)               /*!< SCB 
 293:system/core_cm3.h **** 
 294:system/core_cm3.h **** #define SCB_ICSR_ISRPENDING_Pos            22                                             /*!< SCB 
 295:system/core_cm3.h **** #define SCB_ICSR_ISRPENDING_Msk            (1UL << SCB_ICSR_ISRPENDING_Pos)               /*!< SCB 
 296:system/core_cm3.h **** 
 297:system/core_cm3.h **** #define SCB_ICSR_VECTPENDING_Pos           12                                             /*!< SCB 
 298:system/core_cm3.h **** #define SCB_ICSR_VECTPENDING_Msk           (0x1FFUL << SCB_ICSR_VECTPENDING_Pos)          /*!< SCB 
 299:system/core_cm3.h **** 
 300:system/core_cm3.h **** #define SCB_ICSR_RETTOBASE_Pos             11                                             /*!< SCB 
 301:system/core_cm3.h **** #define SCB_ICSR_RETTOBASE_Msk             (1UL << SCB_ICSR_RETTOBASE_Pos)                /*!< SCB 
 302:system/core_cm3.h **** 
 303:system/core_cm3.h **** #define SCB_ICSR_VECTACTIVE_Pos             0                                             /*!< SCB 
 304:system/core_cm3.h **** #define SCB_ICSR_VECTACTIVE_Msk            (0x1FFUL << SCB_ICSR_VECTACTIVE_Pos)           /*!< SCB 
 305:system/core_cm3.h **** 
 306:system/core_cm3.h **** /* SCB Interrupt Control State Register Definitions */
 307:system/core_cm3.h **** #define SCB_VTOR_TBLBASE_Pos               29                                             /*!< SCB 
 308:system/core_cm3.h **** #define SCB_VTOR_TBLBASE_Msk               (1UL << SCB_VTOR_TBLBASE_Pos)                  /*!< SCB 
 309:system/core_cm3.h **** 
 310:system/core_cm3.h **** #define SCB_VTOR_TBLOFF_Pos                 7                                             /*!< SCB 
 311:system/core_cm3.h **** #define SCB_VTOR_TBLOFF_Msk                (0x3FFFFFUL << SCB_VTOR_TBLOFF_Pos)            /*!< SCB 
 312:system/core_cm3.h **** 
 313:system/core_cm3.h **** /* SCB Application Interrupt and Reset Control Register Definitions */
 314:system/core_cm3.h **** #define SCB_AIRCR_VECTKEY_Pos              16                                             /*!< SCB 
 315:system/core_cm3.h **** #define SCB_AIRCR_VECTKEY_Msk              (0xFFFFUL << SCB_AIRCR_VECTKEY_Pos)            /*!< SCB 
 316:system/core_cm3.h **** 
 317:system/core_cm3.h **** #define SCB_AIRCR_VECTKEYSTAT_Pos          16                                             /*!< SCB 
 318:system/core_cm3.h **** #define SCB_AIRCR_VECTKEYSTAT_Msk          (0xFFFFUL << SCB_AIRCR_VECTKEYSTAT_Pos)        /*!< SCB 
 319:system/core_cm3.h **** 
 320:system/core_cm3.h **** #define SCB_AIRCR_ENDIANESS_Pos            15                                             /*!< SCB 
 321:system/core_cm3.h **** #define SCB_AIRCR_ENDIANESS_Msk            (1UL << SCB_AIRCR_ENDIANESS_Pos)               /*!< SCB 
 322:system/core_cm3.h **** 
 323:system/core_cm3.h **** #define SCB_AIRCR_PRIGROUP_Pos              8                                             /*!< SCB 
 324:system/core_cm3.h **** #define SCB_AIRCR_PRIGROUP_Msk             (7UL << SCB_AIRCR_PRIGROUP_Pos)                /*!< SCB 
 325:system/core_cm3.h **** 
 326:system/core_cm3.h **** #define SCB_AIRCR_SYSRESETREQ_Pos           2                                             /*!< SCB 
 327:system/core_cm3.h **** #define SCB_AIRCR_SYSRESETREQ_Msk          (1UL << SCB_AIRCR_SYSRESETREQ_Pos)             /*!< SCB 
 328:system/core_cm3.h **** 
 329:system/core_cm3.h **** #define SCB_AIRCR_VECTCLRACTIVE_Pos         1                                             /*!< SCB 
 330:system/core_cm3.h **** #define SCB_AIRCR_VECTCLRACTIVE_Msk        (1UL << SCB_AIRCR_VECTCLRACTIVE_Pos)           /*!< SCB 
 331:system/core_cm3.h **** 
 332:system/core_cm3.h **** #define SCB_AIRCR_VECTRESET_Pos             0                                             /*!< SCB 
 333:system/core_cm3.h **** #define SCB_AIRCR_VECTRESET_Msk            (1UL << SCB_AIRCR_VECTRESET_Pos)               /*!< SCB 
 334:system/core_cm3.h **** 
 335:system/core_cm3.h **** /* SCB System Control Register Definitions */
 336:system/core_cm3.h **** #define SCB_SCR_SEVONPEND_Pos               4                                             /*!< SCB 
 337:system/core_cm3.h **** #define SCB_SCR_SEVONPEND_Msk              (1UL << SCB_SCR_SEVONPEND_Pos)                 /*!< SCB 
 338:system/core_cm3.h **** 
 339:system/core_cm3.h **** #define SCB_SCR_SLEEPDEEP_Pos               2                                             /*!< SCB 
ARM GAS  C:\Users\COSMIN~1.MAR\AppData\Local\Temp\ccT2k4Ht.s 			page 8


 340:system/core_cm3.h **** #define SCB_SCR_SLEEPDEEP_Msk              (1UL << SCB_SCR_SLEEPDEEP_Pos)                 /*!< SCB 
 341:system/core_cm3.h **** 
 342:system/core_cm3.h **** #define SCB_SCR_SLEEPONEXIT_Pos             1                                             /*!< SCB 
 343:system/core_cm3.h **** #define SCB_SCR_SLEEPONEXIT_Msk            (1UL << SCB_SCR_SLEEPONEXIT_Pos)               /*!< SCB 
 344:system/core_cm3.h **** 
 345:system/core_cm3.h **** /* SCB Configuration Control Register Definitions */
 346:system/core_cm3.h **** #define SCB_CCR_STKALIGN_Pos                9                                             /*!< SCB 
 347:system/core_cm3.h **** #define SCB_CCR_STKALIGN_Msk               (1UL << SCB_CCR_STKALIGN_Pos)                  /*!< SCB 
 348:system/core_cm3.h **** 
 349:system/core_cm3.h **** #define SCB_CCR_BFHFNMIGN_Pos               8                                             /*!< SCB 
 350:system/core_cm3.h **** #define SCB_CCR_BFHFNMIGN_Msk              (1UL << SCB_CCR_BFHFNMIGN_Pos)                 /*!< SCB 
 351:system/core_cm3.h **** 
 352:system/core_cm3.h **** #define SCB_CCR_DIV_0_TRP_Pos               4                                             /*!< SCB 
 353:system/core_cm3.h **** #define SCB_CCR_DIV_0_TRP_Msk              (1UL << SCB_CCR_DIV_0_TRP_Pos)                 /*!< SCB 
 354:system/core_cm3.h **** 
 355:system/core_cm3.h **** #define SCB_CCR_UNALIGN_TRP_Pos             3                                             /*!< SCB 
 356:system/core_cm3.h **** #define SCB_CCR_UNALIGN_TRP_Msk            (1UL << SCB_CCR_UNALIGN_TRP_Pos)               /*!< SCB 
 357:system/core_cm3.h **** 
 358:system/core_cm3.h **** #define SCB_CCR_USERSETMPEND_Pos            1                                             /*!< SCB 
 359:system/core_cm3.h **** #define SCB_CCR_USERSETMPEND_Msk           (1UL << SCB_CCR_USERSETMPEND_Pos)              /*!< SCB 
 360:system/core_cm3.h **** 
 361:system/core_cm3.h **** #define SCB_CCR_NONBASETHRDENA_Pos          0                                             /*!< SCB 
 362:system/core_cm3.h **** #define SCB_CCR_NONBASETHRDENA_Msk         (1UL << SCB_CCR_NONBASETHRDENA_Pos)            /*!< SCB 
 363:system/core_cm3.h **** 
 364:system/core_cm3.h **** /* SCB System Handler Control and State Register Definitions */
 365:system/core_cm3.h **** #define SCB_SHCSR_USGFAULTENA_Pos          18                                             /*!< SCB 
 366:system/core_cm3.h **** #define SCB_SHCSR_USGFAULTENA_Msk          (1UL << SCB_SHCSR_USGFAULTENA_Pos)             /*!< SCB 
 367:system/core_cm3.h **** 
 368:system/core_cm3.h **** #define SCB_SHCSR_BUSFAULTENA_Pos          17                                             /*!< SCB 
 369:system/core_cm3.h **** #define SCB_SHCSR_BUSFAULTENA_Msk          (1UL << SCB_SHCSR_BUSFAULTENA_Pos)             /*!< SCB 
 370:system/core_cm3.h **** 
 371:system/core_cm3.h **** #define SCB_SHCSR_MEMFAULTENA_Pos          16                                             /*!< SCB 
 372:system/core_cm3.h **** #define SCB_SHCSR_MEMFAULTENA_Msk          (1UL << SCB_SHCSR_MEMFAULTENA_Pos)             /*!< SCB 
 373:system/core_cm3.h **** 
 374:system/core_cm3.h **** #define SCB_SHCSR_SVCALLPENDED_Pos         15                                             /*!< SCB 
 375:system/core_cm3.h **** #define SCB_SHCSR_SVCALLPENDED_Msk         (1UL << SCB_SHCSR_SVCALLPENDED_Pos)            /*!< SCB 
 376:system/core_cm3.h **** 
 377:system/core_cm3.h **** #define SCB_SHCSR_BUSFAULTPENDED_Pos       14                                             /*!< SCB 
 378:system/core_cm3.h **** #define SCB_SHCSR_BUSFAULTPENDED_Msk       (1UL << SCB_SHCSR_BUSFAULTPENDED_Pos)          /*!< SCB 
 379:system/core_cm3.h **** 
 380:system/core_cm3.h **** #define SCB_SHCSR_MEMFAULTPENDED_Pos       13                                             /*!< SCB 
 381:system/core_cm3.h **** #define SCB_SHCSR_MEMFAULTPENDED_Msk       (1UL << SCB_SHCSR_MEMFAULTPENDED_Pos)          /*!< SCB 
 382:system/core_cm3.h **** 
 383:system/core_cm3.h **** #define SCB_SHCSR_USGFAULTPENDED_Pos       12                                             /*!< SCB 
 384:system/core_cm3.h **** #define SCB_SHCSR_USGFAULTPENDED_Msk       (1UL << SCB_SHCSR_USGFAULTPENDED_Pos)          /*!< SCB 
 385:system/core_cm3.h **** 
 386:system/core_cm3.h **** #define SCB_SHCSR_SYSTICKACT_Pos           11                                             /*!< SCB 
 387:system/core_cm3.h **** #define SCB_SHCSR_SYSTICKACT_Msk           (1UL << SCB_SHCSR_SYSTICKACT_Pos)              /*!< SCB 
 388:system/core_cm3.h **** 
 389:system/core_cm3.h **** #define SCB_SHCSR_PENDSVACT_Pos            10                                             /*!< SCB 
 390:system/core_cm3.h **** #define SCB_SHCSR_PENDSVACT_Msk            (1UL << SCB_SHCSR_PENDSVACT_Pos)               /*!< SCB 
 391:system/core_cm3.h **** 
 392:system/core_cm3.h **** #define SCB_SHCSR_MONITORACT_Pos            8                                             /*!< SCB 
 393:system/core_cm3.h **** #define SCB_SHCSR_MONITORACT_Msk           (1UL << SCB_SHCSR_MONITORACT_Pos)              /*!< SCB 
 394:system/core_cm3.h **** 
 395:system/core_cm3.h **** #define SCB_SHCSR_SVCALLACT_Pos             7                                             /*!< SCB 
 396:system/core_cm3.h **** #define SCB_SHCSR_SVCALLACT_Msk            (1UL << SCB_SHCSR_SVCALLACT_Pos)               /*!< SCB 
ARM GAS  C:\Users\COSMIN~1.MAR\AppData\Local\Temp\ccT2k4Ht.s 			page 9


 397:system/core_cm3.h **** 
 398:system/core_cm3.h **** #define SCB_SHCSR_USGFAULTACT_Pos           3                                             /*!< SCB 
 399:system/core_cm3.h **** #define SCB_SHCSR_USGFAULTACT_Msk          (1UL << SCB_SHCSR_USGFAULTACT_Pos)             /*!< SCB 
 400:system/core_cm3.h **** 
 401:system/core_cm3.h **** #define SCB_SHCSR_BUSFAULTACT_Pos           1                                             /*!< SCB 
 402:system/core_cm3.h **** #define SCB_SHCSR_BUSFAULTACT_Msk          (1UL << SCB_SHCSR_BUSFAULTACT_Pos)             /*!< SCB 
 403:system/core_cm3.h **** 
 404:system/core_cm3.h **** #define SCB_SHCSR_MEMFAULTACT_Pos           0                                             /*!< SCB 
 405:system/core_cm3.h **** #define SCB_SHCSR_MEMFAULTACT_Msk          (1UL << SCB_SHCSR_MEMFAULTACT_Pos)             /*!< SCB 
 406:system/core_cm3.h **** 
 407:system/core_cm3.h **** /* SCB Configurable Fault Status Registers Definitions */
 408:system/core_cm3.h **** #define SCB_CFSR_USGFAULTSR_Pos            16                                             /*!< SCB 
 409:system/core_cm3.h **** #define SCB_CFSR_USGFAULTSR_Msk            (0xFFFFUL << SCB_CFSR_USGFAULTSR_Pos)          /*!< SCB 
 410:system/core_cm3.h **** 
 411:system/core_cm3.h **** #define SCB_CFSR_BUSFAULTSR_Pos             8                                             /*!< SCB 
 412:system/core_cm3.h **** #define SCB_CFSR_BUSFAULTSR_Msk            (0xFFUL << SCB_CFSR_BUSFAULTSR_Pos)            /*!< SCB 
 413:system/core_cm3.h **** 
 414:system/core_cm3.h **** #define SCB_CFSR_MEMFAULTSR_Pos             0                                             /*!< SCB 
 415:system/core_cm3.h **** #define SCB_CFSR_MEMFAULTSR_Msk            (0xFFUL << SCB_CFSR_MEMFAULTSR_Pos)            /*!< SCB 
 416:system/core_cm3.h **** 
 417:system/core_cm3.h **** /* SCB Hard Fault Status Registers Definitions */
 418:system/core_cm3.h **** #define SCB_HFSR_DEBUGEVT_Pos              31                                             /*!< SCB 
 419:system/core_cm3.h **** #define SCB_HFSR_DEBUGEVT_Msk              (1UL << SCB_HFSR_DEBUGEVT_Pos)                 /*!< SCB 
 420:system/core_cm3.h **** 
 421:system/core_cm3.h **** #define SCB_HFSR_FORCED_Pos                30                                             /*!< SCB 
 422:system/core_cm3.h **** #define SCB_HFSR_FORCED_Msk                (1UL << SCB_HFSR_FORCED_Pos)                   /*!< SCB 
 423:system/core_cm3.h **** 
 424:system/core_cm3.h **** #define SCB_HFSR_VECTTBL_Pos                1                                             /*!< SCB 
 425:system/core_cm3.h **** #define SCB_HFSR_VECTTBL_Msk               (1UL << SCB_HFSR_VECTTBL_Pos)                  /*!< SCB 
 426:system/core_cm3.h **** 
 427:system/core_cm3.h **** /* SCB Debug Fault Status Register Definitions */
 428:system/core_cm3.h **** #define SCB_DFSR_EXTERNAL_Pos               4                                             /*!< SCB 
 429:system/core_cm3.h **** #define SCB_DFSR_EXTERNAL_Msk              (1UL << SCB_DFSR_EXTERNAL_Pos)                 /*!< SCB 
 430:system/core_cm3.h **** 
 431:system/core_cm3.h **** #define SCB_DFSR_VCATCH_Pos                 3                                             /*!< SCB 
 432:system/core_cm3.h **** #define SCB_DFSR_VCATCH_Msk                (1UL << SCB_DFSR_VCATCH_Pos)                   /*!< SCB 
 433:system/core_cm3.h **** 
 434:system/core_cm3.h **** #define SCB_DFSR_DWTTRAP_Pos                2                                             /*!< SCB 
 435:system/core_cm3.h **** #define SCB_DFSR_DWTTRAP_Msk               (1UL << SCB_DFSR_DWTTRAP_Pos)                  /*!< SCB 
 436:system/core_cm3.h **** 
 437:system/core_cm3.h **** #define SCB_DFSR_BKPT_Pos                   1                                             /*!< SCB 
 438:system/core_cm3.h **** #define SCB_DFSR_BKPT_Msk                  (1UL << SCB_DFSR_BKPT_Pos)                     /*!< SCB 
 439:system/core_cm3.h **** 
 440:system/core_cm3.h **** #define SCB_DFSR_HALTED_Pos                 0                                             /*!< SCB 
 441:system/core_cm3.h **** #define SCB_DFSR_HALTED_Msk                (1UL << SCB_DFSR_HALTED_Pos)                   /*!< SCB 
 442:system/core_cm3.h **** 
 443:system/core_cm3.h **** /*@} end of group CMSIS_SCB */
 444:system/core_cm3.h **** 
 445:system/core_cm3.h **** 
 446:system/core_cm3.h **** /** \ingroup  CMSIS_core_register
 447:system/core_cm3.h ****     \defgroup CMSIS_SysTick CMSIS SysTick
 448:system/core_cm3.h ****   Type definitions for the Cortex-M System Timer Registers
 449:system/core_cm3.h ****   @{
 450:system/core_cm3.h ****  */
 451:system/core_cm3.h **** 
 452:system/core_cm3.h **** /** \brief  Structure type to access the System Timer (SysTick).
 453:system/core_cm3.h ****  */
ARM GAS  C:\Users\COSMIN~1.MAR\AppData\Local\Temp\ccT2k4Ht.s 			page 10


 454:system/core_cm3.h **** typedef struct
 455:system/core_cm3.h **** {
 456:system/core_cm3.h ****   __IO uint32_t CTRL;                    /*!< Offset: 0x000 (R/W)  SysTick Control and Status Regis
 457:system/core_cm3.h ****   __IO uint32_t LOAD;                    /*!< Offset: 0x004 (R/W)  SysTick Reload Value Register   
 458:system/core_cm3.h ****   __IO uint32_t VAL;                     /*!< Offset: 0x008 (R/W)  SysTick Current Value Register  
 459:system/core_cm3.h ****   __I  uint32_t CALIB;                   /*!< Offset: 0x00C (R/ )  SysTick Calibration Register    
 460:system/core_cm3.h **** } SysTick_Type;
 461:system/core_cm3.h **** 
 462:system/core_cm3.h **** /* SysTick Control / Status Register Definitions */
 463:system/core_cm3.h **** #define SysTick_CTRL_COUNTFLAG_Pos         16                                             /*!< SysT
 464:system/core_cm3.h **** #define SysTick_CTRL_COUNTFLAG_Msk         (1UL << SysTick_CTRL_COUNTFLAG_Pos)            /*!< SysT
 465:system/core_cm3.h **** 
 466:system/core_cm3.h **** #define SysTick_CTRL_CLKSOURCE_Pos          2                                             /*!< SysT
 467:system/core_cm3.h **** #define SysTick_CTRL_CLKSOURCE_Msk         (1UL << SysTick_CTRL_CLKSOURCE_Pos)            /*!< SysT
 468:system/core_cm3.h **** 
 469:system/core_cm3.h **** #define SysTick_CTRL_TICKINT_Pos            1                                             /*!< SysT
 470:system/core_cm3.h **** #define SysTick_CTRL_TICKINT_Msk           (1UL << SysTick_CTRL_TICKINT_Pos)              /*!< SysT
 471:system/core_cm3.h **** 
 472:system/core_cm3.h **** #define SysTick_CTRL_ENABLE_Pos             0                                             /*!< SysT
 473:system/core_cm3.h **** #define SysTick_CTRL_ENABLE_Msk            (1UL << SysTick_CTRL_ENABLE_Pos)               /*!< SysT
 474:system/core_cm3.h **** 
 475:system/core_cm3.h **** /* SysTick Reload Register Definitions */
 476:system/core_cm3.h **** #define SysTick_LOAD_RELOAD_Pos             0                                             /*!< SysT
 477:system/core_cm3.h **** #define SysTick_LOAD_RELOAD_Msk            (0xFFFFFFUL << SysTick_LOAD_RELOAD_Pos)        /*!< SysT
 478:system/core_cm3.h **** 
 479:system/core_cm3.h **** /* SysTick Current Register Definitions */
 480:system/core_cm3.h **** #define SysTick_VAL_CURRENT_Pos             0                                             /*!< SysT
 481:system/core_cm3.h **** #define SysTick_VAL_CURRENT_Msk            (0xFFFFFFUL << SysTick_VAL_CURRENT_Pos)        /*!< SysT
 482:system/core_cm3.h **** 
 483:system/core_cm3.h **** /* SysTick Calibration Register Definitions */
 484:system/core_cm3.h **** #define SysTick_CALIB_NOREF_Pos            31                                             /*!< SysT
 485:system/core_cm3.h **** #define SysTick_CALIB_NOREF_Msk            (1UL << SysTick_CALIB_NOREF_Pos)               /*!< SysT
 486:system/core_cm3.h **** 
 487:system/core_cm3.h **** #define SysTick_CALIB_SKEW_Pos             30                                             /*!< SysT
 488:system/core_cm3.h **** #define SysTick_CALIB_SKEW_Msk             (1UL << SysTick_CALIB_SKEW_Pos)                /*!< SysT
 489:system/core_cm3.h **** 
 490:system/core_cm3.h **** #define SysTick_CALIB_TENMS_Pos             0                                             /*!< SysT
 491:system/core_cm3.h **** #define SysTick_CALIB_TENMS_Msk            (0xFFFFFFUL << SysTick_VAL_CURRENT_Pos)        /*!< SysT
 492:system/core_cm3.h **** 
 493:system/core_cm3.h **** /*@} end of group CMSIS_SysTick */
 494:system/core_cm3.h **** 
 495:system/core_cm3.h **** 
 496:system/core_cm3.h **** /** \ingroup  CMSIS_core_register
 497:system/core_cm3.h ****     \defgroup CMSIS_ITM CMSIS ITM
 498:system/core_cm3.h ****   Type definitions for the Cortex-M Instrumentation Trace Macrocell (ITM)
 499:system/core_cm3.h ****   @{
 500:system/core_cm3.h ****  */
 501:system/core_cm3.h **** 
 502:system/core_cm3.h **** /** \brief  Structure type to access the Instrumentation Trace Macrocell Register (ITM).
 503:system/core_cm3.h ****  */
 504:system/core_cm3.h **** typedef struct
 505:system/core_cm3.h **** {
 506:system/core_cm3.h ****   __O  union
 507:system/core_cm3.h ****   {
 508:system/core_cm3.h ****     __O  uint8_t    u8;                  /*!< Offset: 0x000 ( /W)  ITM Stimulus Port 8-bit         
 509:system/core_cm3.h ****     __O  uint16_t   u16;                 /*!< Offset: 0x000 ( /W)  ITM Stimulus Port 16-bit        
 510:system/core_cm3.h ****     __O  uint32_t   u32;                 /*!< Offset: 0x000 ( /W)  ITM Stimulus Port 32-bit        
ARM GAS  C:\Users\COSMIN~1.MAR\AppData\Local\Temp\ccT2k4Ht.s 			page 11


 511:system/core_cm3.h ****   }  PORT [32];                          /*!< Offset: 0x000 ( /W)  ITM Stimulus Port Registers     
 512:system/core_cm3.h ****        uint32_t RESERVED0[864];
 513:system/core_cm3.h ****   __IO uint32_t TER;                     /*!< Offset:       (R/W)  ITM Trace Enable Register       
 514:system/core_cm3.h ****        uint32_t RESERVED1[15];
 515:system/core_cm3.h ****   __IO uint32_t TPR;                     /*!< Offset:       (R/W)  ITM Trace Privilege Register    
 516:system/core_cm3.h ****        uint32_t RESERVED2[15];
 517:system/core_cm3.h ****   __IO uint32_t TCR;                     /*!< Offset:       (R/W)  ITM Trace Control Register      
 518:system/core_cm3.h ****        uint32_t RESERVED3[29];
 519:system/core_cm3.h ****   __IO uint32_t IWR;                     /*!< Offset:       (R/W)  ITM Integration Write Register  
 520:system/core_cm3.h ****   __IO uint32_t IRR;                     /*!< Offset:       (R/W)  ITM Integration Read Register   
 521:system/core_cm3.h ****   __IO uint32_t IMCR;                    /*!< Offset:       (R/W)  ITM Integration Mode Control Reg
 522:system/core_cm3.h ****        uint32_t RESERVED4[43];
 523:system/core_cm3.h ****   __IO uint32_t LAR;                     /*!< Offset:       (R/W)  ITM Lock Access Register        
 524:system/core_cm3.h ****   __IO uint32_t LSR;                     /*!< Offset:       (R/W)  ITM Lock Status Register        
 525:system/core_cm3.h ****        uint32_t RESERVED5[6];
 526:system/core_cm3.h ****   __I  uint32_t PID4;                    /*!< Offset:       (R/ )  ITM Peripheral Identification Re
 527:system/core_cm3.h ****   __I  uint32_t PID5;                    /*!< Offset:       (R/ )  ITM Peripheral Identification Re
 528:system/core_cm3.h ****   __I  uint32_t PID6;                    /*!< Offset:       (R/ )  ITM Peripheral Identification Re
 529:system/core_cm3.h ****   __I  uint32_t PID7;                    /*!< Offset:       (R/ )  ITM Peripheral Identification Re
 530:system/core_cm3.h ****   __I  uint32_t PID0;                    /*!< Offset:       (R/ )  ITM Peripheral Identification Re
 531:system/core_cm3.h ****   __I  uint32_t PID1;                    /*!< Offset:       (R/ )  ITM Peripheral Identification Re
 532:system/core_cm3.h ****   __I  uint32_t PID2;                    /*!< Offset:       (R/ )  ITM Peripheral Identification Re
 533:system/core_cm3.h ****   __I  uint32_t PID3;                    /*!< Offset:       (R/ )  ITM Peripheral Identification Re
 534:system/core_cm3.h ****   __I  uint32_t CID0;                    /*!< Offset:       (R/ )  ITM Component  Identification Re
 535:system/core_cm3.h ****   __I  uint32_t CID1;                    /*!< Offset:       (R/ )  ITM Component  Identification Re
 536:system/core_cm3.h ****   __I  uint32_t CID2;                    /*!< Offset:       (R/ )  ITM Component  Identification Re
 537:system/core_cm3.h ****   __I  uint32_t CID3;                    /*!< Offset:       (R/ )  ITM Component  Identification Re
 538:system/core_cm3.h **** } ITM_Type;
 539:system/core_cm3.h **** 
 540:system/core_cm3.h **** /* ITM Trace Privilege Register Definitions */
 541:system/core_cm3.h **** #define ITM_TPR_PRIVMASK_Pos                0                                             /*!< ITM 
 542:system/core_cm3.h **** #define ITM_TPR_PRIVMASK_Msk               (0xFUL << ITM_TPR_PRIVMASK_Pos)                /*!< ITM 
 543:system/core_cm3.h **** 
 544:system/core_cm3.h **** /* ITM Trace Control Register Definitions */
 545:system/core_cm3.h **** #define ITM_TCR_BUSY_Pos                   23                                             /*!< ITM 
 546:system/core_cm3.h **** #define ITM_TCR_BUSY_Msk                   (1UL << ITM_TCR_BUSY_Pos)                      /*!< ITM 
 547:system/core_cm3.h **** 
 548:system/core_cm3.h **** #define ITM_TCR_ATBID_Pos                  16                                             /*!< ITM 
 549:system/core_cm3.h **** #define ITM_TCR_ATBID_Msk                  (0x7FUL << ITM_TCR_ATBID_Pos)                  /*!< ITM 
 550:system/core_cm3.h **** 
 551:system/core_cm3.h **** #define ITM_TCR_TSPrescale_Pos              8                                             /*!< ITM 
 552:system/core_cm3.h **** #define ITM_TCR_TSPrescale_Msk             (3UL << ITM_TCR_TSPrescale_Pos)                /*!< ITM 
 553:system/core_cm3.h **** 
 554:system/core_cm3.h **** #define ITM_TCR_SWOENA_Pos                  4                                             /*!< ITM 
 555:system/core_cm3.h **** #define ITM_TCR_SWOENA_Msk                 (1UL << ITM_TCR_SWOENA_Pos)                    /*!< ITM 
 556:system/core_cm3.h **** 
 557:system/core_cm3.h **** #define ITM_TCR_DWTENA_Pos                  3                                             /*!< ITM 
 558:system/core_cm3.h **** #define ITM_TCR_DWTENA_Msk                 (1UL << ITM_TCR_DWTENA_Pos)                    /*!< ITM 
 559:system/core_cm3.h **** 
 560:system/core_cm3.h **** #define ITM_TCR_SYNCENA_Pos                 2                                             /*!< ITM 
 561:system/core_cm3.h **** #define ITM_TCR_SYNCENA_Msk                (1UL << ITM_TCR_SYNCENA_Pos)                   /*!< ITM 
 562:system/core_cm3.h **** 
 563:system/core_cm3.h **** #define ITM_TCR_TSENA_Pos                   1                                             /*!< ITM 
 564:system/core_cm3.h **** #define ITM_TCR_TSENA_Msk                  (1UL << ITM_TCR_TSENA_Pos)                     /*!< ITM 
 565:system/core_cm3.h **** 
 566:system/core_cm3.h **** #define ITM_TCR_ITMENA_Pos                  0                                             /*!< ITM 
 567:system/core_cm3.h **** #define ITM_TCR_ITMENA_Msk                 (1UL << ITM_TCR_ITMENA_Pos)                    /*!< ITM 
ARM GAS  C:\Users\COSMIN~1.MAR\AppData\Local\Temp\ccT2k4Ht.s 			page 12


 568:system/core_cm3.h **** 
 569:system/core_cm3.h **** /* ITM Integration Write Register Definitions */
 570:system/core_cm3.h **** #define ITM_IWR_ATVALIDM_Pos                0                                             /*!< ITM 
 571:system/core_cm3.h **** #define ITM_IWR_ATVALIDM_Msk               (1UL << ITM_IWR_ATVALIDM_Pos)                  /*!< ITM 
 572:system/core_cm3.h **** 
 573:system/core_cm3.h **** /* ITM Integration Read Register Definitions */
 574:system/core_cm3.h **** #define ITM_IRR_ATREADYM_Pos                0                                             /*!< ITM 
 575:system/core_cm3.h **** #define ITM_IRR_ATREADYM_Msk               (1UL << ITM_IRR_ATREADYM_Pos)                  /*!< ITM 
 576:system/core_cm3.h **** 
 577:system/core_cm3.h **** /* ITM Integration Mode Control Register Definitions */
 578:system/core_cm3.h **** #define ITM_IMCR_INTEGRATION_Pos            0                                             /*!< ITM 
 579:system/core_cm3.h **** #define ITM_IMCR_INTEGRATION_Msk           (1UL << ITM_IMCR_INTEGRATION_Pos)              /*!< ITM 
 580:system/core_cm3.h **** 
 581:system/core_cm3.h **** /* ITM Lock Status Register Definitions */
 582:system/core_cm3.h **** #define ITM_LSR_ByteAcc_Pos                 2                                             /*!< ITM 
 583:system/core_cm3.h **** #define ITM_LSR_ByteAcc_Msk                (1UL << ITM_LSR_ByteAcc_Pos)                   /*!< ITM 
 584:system/core_cm3.h **** 
 585:system/core_cm3.h **** #define ITM_LSR_Access_Pos                  1                                             /*!< ITM 
 586:system/core_cm3.h **** #define ITM_LSR_Access_Msk                 (1UL << ITM_LSR_Access_Pos)                    /*!< ITM 
 587:system/core_cm3.h **** 
 588:system/core_cm3.h **** #define ITM_LSR_Present_Pos                 0                                             /*!< ITM 
 589:system/core_cm3.h **** #define ITM_LSR_Present_Msk                (1UL << ITM_LSR_Present_Pos)                   /*!< ITM 
 590:system/core_cm3.h **** 
 591:system/core_cm3.h **** /*@}*/ /* end of group CMSIS_ITM */
 592:system/core_cm3.h **** 
 593:system/core_cm3.h **** 
 594:system/core_cm3.h **** /** \ingroup  CMSIS_core_register
 595:system/core_cm3.h ****     \defgroup CMSIS_InterruptType CMSIS Interrupt Type
 596:system/core_cm3.h ****   Type definitions for the Cortex-M Interrupt Type Register
 597:system/core_cm3.h ****   @{
 598:system/core_cm3.h ****  */
 599:system/core_cm3.h **** 
 600:system/core_cm3.h **** /** \brief  Structure type to access the Interrupt Type Register.
 601:system/core_cm3.h ****  */
 602:system/core_cm3.h **** typedef struct
 603:system/core_cm3.h **** {
 604:system/core_cm3.h ****        uint32_t RESERVED0;
 605:system/core_cm3.h ****   __I  uint32_t ICTR;                    /*!< Offset: 0x004 (R/ )  Interrupt Control Type Register 
 606:system/core_cm3.h **** #if ((defined __CM3_REV) && (__CM3_REV >= 0x200))
 607:system/core_cm3.h ****   __IO uint32_t ACTLR;                   /*!< Offset: 0x008 (R/W)  Auxiliary Control Register      
 608:system/core_cm3.h **** #else
 609:system/core_cm3.h ****        uint32_t RESERVED1;
 610:system/core_cm3.h **** #endif
 611:system/core_cm3.h **** } InterruptType_Type;
 612:system/core_cm3.h **** 
 613:system/core_cm3.h **** /* Interrupt Controller Type Register Definitions */
 614:system/core_cm3.h **** #define IntType_ICTR_INTLINESNUM_Pos  0                                                   /*!< Inte
 615:system/core_cm3.h **** #define IntType_ICTR_INTLINESNUM_Msk (0x1FUL << IntType_ICTR_INTLINESNUM_Pos)             /*!< Inte
 616:system/core_cm3.h **** 
 617:system/core_cm3.h **** /* Auxiliary Control Register Definitions */
 618:system/core_cm3.h **** #define IntType_ACTLR_DISFOLD_Pos     2                                                   /*!< Inte
 619:system/core_cm3.h **** #define IntType_ACTLR_DISFOLD_Msk    (1UL << IntType_ACTLR_DISFOLD_Pos)                   /*!< Inte
 620:system/core_cm3.h **** 
 621:system/core_cm3.h **** #define IntType_ACTLR_DISDEFWBUF_Pos  1                                                   /*!< Inte
 622:system/core_cm3.h **** #define IntType_ACTLR_DISDEFWBUF_Msk (1UL << IntType_ACTLR_DISDEFWBUF_Pos)                /*!< Inte
 623:system/core_cm3.h **** 
 624:system/core_cm3.h **** #define IntType_ACTLR_DISMCYCINT_Pos  0                                                   /*!< Inte
ARM GAS  C:\Users\COSMIN~1.MAR\AppData\Local\Temp\ccT2k4Ht.s 			page 13


 625:system/core_cm3.h **** #define IntType_ACTLR_DISMCYCINT_Msk (1UL << IntType_ACTLR_DISMCYCINT_Pos)                /*!< Inte
 626:system/core_cm3.h **** 
 627:system/core_cm3.h **** /*@}*/ /* end of group CMSIS_InterruptType */
 628:system/core_cm3.h **** 
 629:system/core_cm3.h **** 
 630:system/core_cm3.h **** #if (__MPU_PRESENT == 1)
 631:system/core_cm3.h **** /** \ingroup  CMSIS_core_register
 632:system/core_cm3.h ****     \defgroup CMSIS_MPU CMSIS MPU
 633:system/core_cm3.h ****   Type definitions for the Cortex-M Memory Protection Unit (MPU)
 634:system/core_cm3.h ****   @{
 635:system/core_cm3.h ****  */
 636:system/core_cm3.h **** 
 637:system/core_cm3.h **** /** \brief  Structure type to access the Memory Protection Unit (MPU).
 638:system/core_cm3.h ****  */
 639:system/core_cm3.h **** typedef struct
 640:system/core_cm3.h **** {
 641:system/core_cm3.h ****   __I  uint32_t TYPE;                    /*!< Offset: 0x000 (R/ )  MPU Type Register               
 642:system/core_cm3.h ****   __IO uint32_t CTRL;                    /*!< Offset: 0x004 (R/W)  MPU Control Register            
 643:system/core_cm3.h ****   __IO uint32_t RNR;                     /*!< Offset: 0x008 (R/W)  MPU Region RNRber Register      
 644:system/core_cm3.h ****   __IO uint32_t RBAR;                    /*!< Offset: 0x00C (R/W)  MPU Region Base Address Register
 645:system/core_cm3.h ****   __IO uint32_t RASR;                    /*!< Offset: 0x010 (R/W)  MPU Region Attribute and Size Re
 646:system/core_cm3.h ****   __IO uint32_t RBAR_A1;                 /*!< Offset: 0x014 (R/W)  MPU Alias 1 Region Base Address 
 647:system/core_cm3.h ****   __IO uint32_t RASR_A1;                 /*!< Offset: 0x018 (R/W)  MPU Alias 1 Region Attribute and
 648:system/core_cm3.h ****   __IO uint32_t RBAR_A2;                 /*!< Offset: 0x01C (R/W)  MPU Alias 2 Region Base Address 
 649:system/core_cm3.h ****   __IO uint32_t RASR_A2;                 /*!< Offset: 0x020 (R/W)  MPU Alias 2 Region Attribute and
 650:system/core_cm3.h ****   __IO uint32_t RBAR_A3;                 /*!< Offset: 0x024 (R/W)  MPU Alias 3 Region Base Address 
 651:system/core_cm3.h ****   __IO uint32_t RASR_A3;                 /*!< Offset: 0x028 (R/W)  MPU Alias 3 Region Attribute and
 652:system/core_cm3.h **** } MPU_Type;
 653:system/core_cm3.h **** 
 654:system/core_cm3.h **** /* MPU Type Register */
 655:system/core_cm3.h **** #define MPU_TYPE_IREGION_Pos               16                                             /*!< MPU 
 656:system/core_cm3.h **** #define MPU_TYPE_IREGION_Msk               (0xFFUL << MPU_TYPE_IREGION_Pos)               /*!< MPU 
 657:system/core_cm3.h **** 
 658:system/core_cm3.h **** #define MPU_TYPE_DREGION_Pos                8                                             /*!< MPU 
 659:system/core_cm3.h **** #define MPU_TYPE_DREGION_Msk               (0xFFUL << MPU_TYPE_DREGION_Pos)               /*!< MPU 
 660:system/core_cm3.h **** 
 661:system/core_cm3.h **** #define MPU_TYPE_SEPARATE_Pos               0                                             /*!< MPU 
 662:system/core_cm3.h **** #define MPU_TYPE_SEPARATE_Msk              (1UL << MPU_TYPE_SEPARATE_Pos)                 /*!< MPU 
 663:system/core_cm3.h **** 
 664:system/core_cm3.h **** /* MPU Control Register */
 665:system/core_cm3.h **** #define MPU_CTRL_PRIVDEFENA_Pos             2                                             /*!< MPU 
 666:system/core_cm3.h **** #define MPU_CTRL_PRIVDEFENA_Msk            (1UL << MPU_CTRL_PRIVDEFENA_Pos)               /*!< MPU 
 667:system/core_cm3.h **** 
 668:system/core_cm3.h **** #define MPU_CTRL_HFNMIENA_Pos               1                                             /*!< MPU 
 669:system/core_cm3.h **** #define MPU_CTRL_HFNMIENA_Msk              (1UL << MPU_CTRL_HFNMIENA_Pos)                 /*!< MPU 
 670:system/core_cm3.h **** 
 671:system/core_cm3.h **** #define MPU_CTRL_ENABLE_Pos                 0                                             /*!< MPU 
 672:system/core_cm3.h **** #define MPU_CTRL_ENABLE_Msk                (1UL << MPU_CTRL_ENABLE_Pos)                   /*!< MPU 
 673:system/core_cm3.h **** 
 674:system/core_cm3.h **** /* MPU Region Number Register */
 675:system/core_cm3.h **** #define MPU_RNR_REGION_Pos                  0                                             /*!< MPU 
 676:system/core_cm3.h **** #define MPU_RNR_REGION_Msk                 (0xFFUL << MPU_RNR_REGION_Pos)                 /*!< MPU 
 677:system/core_cm3.h **** 
 678:system/core_cm3.h **** /* MPU Region Base Address Register */
 679:system/core_cm3.h **** #define MPU_RBAR_ADDR_Pos                   5                                             /*!< MPU 
 680:system/core_cm3.h **** #define MPU_RBAR_ADDR_Msk                  (0x7FFFFFFUL << MPU_RBAR_ADDR_Pos)             /*!< MPU 
 681:system/core_cm3.h **** 
ARM GAS  C:\Users\COSMIN~1.MAR\AppData\Local\Temp\ccT2k4Ht.s 			page 14


 682:system/core_cm3.h **** #define MPU_RBAR_VALID_Pos                  4                                             /*!< MPU 
 683:system/core_cm3.h **** #define MPU_RBAR_VALID_Msk                 (1UL << MPU_RBAR_VALID_Pos)                    /*!< MPU 
 684:system/core_cm3.h **** 
 685:system/core_cm3.h **** #define MPU_RBAR_REGION_Pos                 0                                             /*!< MPU 
 686:system/core_cm3.h **** #define MPU_RBAR_REGION_Msk                (0xFUL << MPU_RBAR_REGION_Pos)                 /*!< MPU 
 687:system/core_cm3.h **** 
 688:system/core_cm3.h **** /* MPU Region Attribute and Size Register */
 689:system/core_cm3.h **** #define MPU_RASR_XN_Pos                    28                                             /*!< MPU 
 690:system/core_cm3.h **** #define MPU_RASR_XN_Msk                    (1UL << MPU_RASR_XN_Pos)                       /*!< MPU 
 691:system/core_cm3.h **** 
 692:system/core_cm3.h **** #define MPU_RASR_AP_Pos                    24                                             /*!< MPU 
 693:system/core_cm3.h **** #define MPU_RASR_AP_Msk                    (7UL << MPU_RASR_AP_Pos)                       /*!< MPU 
 694:system/core_cm3.h **** 
 695:system/core_cm3.h **** #define MPU_RASR_TEX_Pos                   19                                             /*!< MPU 
 696:system/core_cm3.h **** #define MPU_RASR_TEX_Msk                   (7UL << MPU_RASR_TEX_Pos)                      /*!< MPU 
 697:system/core_cm3.h **** 
 698:system/core_cm3.h **** #define MPU_RASR_S_Pos                     18                                             /*!< MPU 
 699:system/core_cm3.h **** #define MPU_RASR_S_Msk                     (1UL << MPU_RASR_S_Pos)                        /*!< MPU 
 700:system/core_cm3.h **** 
 701:system/core_cm3.h **** #define MPU_RASR_C_Pos                     17                                             /*!< MPU 
 702:system/core_cm3.h **** #define MPU_RASR_C_Msk                     (1UL << MPU_RASR_C_Pos)                        /*!< MPU 
 703:system/core_cm3.h **** 
 704:system/core_cm3.h **** #define MPU_RASR_B_Pos                     16                                             /*!< MPU 
 705:system/core_cm3.h **** #define MPU_RASR_B_Msk                     (1UL << MPU_RASR_B_Pos)                        /*!< MPU 
 706:system/core_cm3.h **** 
 707:system/core_cm3.h **** #define MPU_RASR_SRD_Pos                    8                                             /*!< MPU 
 708:system/core_cm3.h **** #define MPU_RASR_SRD_Msk                   (0xFFUL << MPU_RASR_SRD_Pos)                   /*!< MPU 
 709:system/core_cm3.h **** 
 710:system/core_cm3.h **** #define MPU_RASR_SIZE_Pos                   1                                             /*!< MPU 
 711:system/core_cm3.h **** #define MPU_RASR_SIZE_Msk                  (0x1FUL << MPU_RASR_SIZE_Pos)                  /*!< MPU 
 712:system/core_cm3.h **** 
 713:system/core_cm3.h **** #define MPU_RASR_ENA_Pos                     0                                            /*!< MPU 
 714:system/core_cm3.h **** #define MPU_RASR_ENA_Msk                    (0x1UL << MPU_RASR_ENA_Pos)                   /*!< MPU 
 715:system/core_cm3.h **** 
 716:system/core_cm3.h **** /*@} end of group CMSIS_MPU */
 717:system/core_cm3.h **** #endif
 718:system/core_cm3.h **** 
 719:system/core_cm3.h **** 
 720:system/core_cm3.h **** /** \ingroup  CMSIS_core_register
 721:system/core_cm3.h ****     \defgroup CMSIS_CoreDebug CMSIS Core Debug
 722:system/core_cm3.h ****   Type definitions for the Cortex-M Core Debug Registers
 723:system/core_cm3.h ****   @{
 724:system/core_cm3.h ****  */
 725:system/core_cm3.h **** 
 726:system/core_cm3.h **** /** \brief  Structure type to access the Core Debug Register (CoreDebug).
 727:system/core_cm3.h ****  */
 728:system/core_cm3.h **** typedef struct
 729:system/core_cm3.h **** {
 730:system/core_cm3.h ****   __IO uint32_t DHCSR;                   /*!< Offset: 0x000 (R/W)  Debug Halting Control and Status
 731:system/core_cm3.h ****   __O  uint32_t DCRSR;                   /*!< Offset: 0x004 ( /W)  Debug Core Register Selector Reg
 732:system/core_cm3.h ****   __IO uint32_t DCRDR;                   /*!< Offset: 0x008 (R/W)  Debug Core Register Data Registe
 733:system/core_cm3.h ****   __IO uint32_t DEMCR;                   /*!< Offset: 0x00C (R/W)  Debug Exception and Monitor Cont
 734:system/core_cm3.h **** } CoreDebug_Type;
 735:system/core_cm3.h **** 
 736:system/core_cm3.h **** /* Debug Halting Control and Status Register */
 737:system/core_cm3.h **** #define CoreDebug_DHCSR_DBGKEY_Pos         16                                             /*!< Core
 738:system/core_cm3.h **** #define CoreDebug_DHCSR_DBGKEY_Msk         (0xFFFFUL << CoreDebug_DHCSR_DBGKEY_Pos)       /*!< Core
ARM GAS  C:\Users\COSMIN~1.MAR\AppData\Local\Temp\ccT2k4Ht.s 			page 15


 739:system/core_cm3.h **** 
 740:system/core_cm3.h **** #define CoreDebug_DHCSR_S_RESET_ST_Pos     25                                             /*!< Core
 741:system/core_cm3.h **** #define CoreDebug_DHCSR_S_RESET_ST_Msk     (1UL << CoreDebug_DHCSR_S_RESET_ST_Pos)        /*!< Core
 742:system/core_cm3.h **** 
 743:system/core_cm3.h **** #define CoreDebug_DHCSR_S_RETIRE_ST_Pos    24                                             /*!< Core
 744:system/core_cm3.h **** #define CoreDebug_DHCSR_S_RETIRE_ST_Msk    (1UL << CoreDebug_DHCSR_S_RETIRE_ST_Pos)       /*!< Core
 745:system/core_cm3.h **** 
 746:system/core_cm3.h **** #define CoreDebug_DHCSR_S_LOCKUP_Pos       19                                             /*!< Core
 747:system/core_cm3.h **** #define CoreDebug_DHCSR_S_LOCKUP_Msk       (1UL << CoreDebug_DHCSR_S_LOCKUP_Pos)          /*!< Core
 748:system/core_cm3.h **** 
 749:system/core_cm3.h **** #define CoreDebug_DHCSR_S_SLEEP_Pos        18                                             /*!< Core
 750:system/core_cm3.h **** #define CoreDebug_DHCSR_S_SLEEP_Msk        (1UL << CoreDebug_DHCSR_S_SLEEP_Pos)           /*!< Core
 751:system/core_cm3.h **** 
 752:system/core_cm3.h **** #define CoreDebug_DHCSR_S_HALT_Pos         17                                             /*!< Core
 753:system/core_cm3.h **** #define CoreDebug_DHCSR_S_HALT_Msk         (1UL << CoreDebug_DHCSR_S_HALT_Pos)            /*!< Core
 754:system/core_cm3.h **** 
 755:system/core_cm3.h **** #define CoreDebug_DHCSR_S_REGRDY_Pos       16                                             /*!< Core
 756:system/core_cm3.h **** #define CoreDebug_DHCSR_S_REGRDY_Msk       (1UL << CoreDebug_DHCSR_S_REGRDY_Pos)          /*!< Core
 757:system/core_cm3.h **** 
 758:system/core_cm3.h **** #define CoreDebug_DHCSR_C_SNAPSTALL_Pos     5                                             /*!< Core
 759:system/core_cm3.h **** #define CoreDebug_DHCSR_C_SNAPSTALL_Msk    (1UL << CoreDebug_DHCSR_C_SNAPSTALL_Pos)       /*!< Core
 760:system/core_cm3.h **** 
 761:system/core_cm3.h **** #define CoreDebug_DHCSR_C_MASKINTS_Pos      3                                             /*!< Core
 762:system/core_cm3.h **** #define CoreDebug_DHCSR_C_MASKINTS_Msk     (1UL << CoreDebug_DHCSR_C_MASKINTS_Pos)        /*!< Core
 763:system/core_cm3.h **** 
 764:system/core_cm3.h **** #define CoreDebug_DHCSR_C_STEP_Pos          2                                             /*!< Core
 765:system/core_cm3.h **** #define CoreDebug_DHCSR_C_STEP_Msk         (1UL << CoreDebug_DHCSR_C_STEP_Pos)            /*!< Core
 766:system/core_cm3.h **** 
 767:system/core_cm3.h **** #define CoreDebug_DHCSR_C_HALT_Pos          1                                             /*!< Core
 768:system/core_cm3.h **** #define CoreDebug_DHCSR_C_HALT_Msk         (1UL << CoreDebug_DHCSR_C_HALT_Pos)            /*!< Core
 769:system/core_cm3.h **** 
 770:system/core_cm3.h **** #define CoreDebug_DHCSR_C_DEBUGEN_Pos       0                                             /*!< Core
 771:system/core_cm3.h **** #define CoreDebug_DHCSR_C_DEBUGEN_Msk      (1UL << CoreDebug_DHCSR_C_DEBUGEN_Pos)         /*!< Core
 772:system/core_cm3.h **** 
 773:system/core_cm3.h **** /* Debug Core Register Selector Register */
 774:system/core_cm3.h **** #define CoreDebug_DCRSR_REGWnR_Pos         16                                             /*!< Core
 775:system/core_cm3.h **** #define CoreDebug_DCRSR_REGWnR_Msk         (1UL << CoreDebug_DCRSR_REGWnR_Pos)            /*!< Core
 776:system/core_cm3.h **** 
 777:system/core_cm3.h **** #define CoreDebug_DCRSR_REGSEL_Pos          0                                             /*!< Core
 778:system/core_cm3.h **** #define CoreDebug_DCRSR_REGSEL_Msk         (0x1FUL << CoreDebug_DCRSR_REGSEL_Pos)         /*!< Core
 779:system/core_cm3.h **** 
 780:system/core_cm3.h **** /* Debug Exception and Monitor Control Register */
 781:system/core_cm3.h **** #define CoreDebug_DEMCR_TRCENA_Pos         24                                             /*!< Core
 782:system/core_cm3.h **** #define CoreDebug_DEMCR_TRCENA_Msk         (1UL << CoreDebug_DEMCR_TRCENA_Pos)            /*!< Core
 783:system/core_cm3.h **** 
 784:system/core_cm3.h **** #define CoreDebug_DEMCR_MON_REQ_Pos        19                                             /*!< Core
 785:system/core_cm3.h **** #define CoreDebug_DEMCR_MON_REQ_Msk        (1UL << CoreDebug_DEMCR_MON_REQ_Pos)           /*!< Core
 786:system/core_cm3.h **** 
 787:system/core_cm3.h **** #define CoreDebug_DEMCR_MON_STEP_Pos       18                                             /*!< Core
 788:system/core_cm3.h **** #define CoreDebug_DEMCR_MON_STEP_Msk       (1UL << CoreDebug_DEMCR_MON_STEP_Pos)          /*!< Core
 789:system/core_cm3.h **** 
 790:system/core_cm3.h **** #define CoreDebug_DEMCR_MON_PEND_Pos       17                                             /*!< Core
 791:system/core_cm3.h **** #define CoreDebug_DEMCR_MON_PEND_Msk       (1UL << CoreDebug_DEMCR_MON_PEND_Pos)          /*!< Core
 792:system/core_cm3.h **** 
 793:system/core_cm3.h **** #define CoreDebug_DEMCR_MON_EN_Pos         16                                             /*!< Core
 794:system/core_cm3.h **** #define CoreDebug_DEMCR_MON_EN_Msk         (1UL << CoreDebug_DEMCR_MON_EN_Pos)            /*!< Core
 795:system/core_cm3.h **** 
ARM GAS  C:\Users\COSMIN~1.MAR\AppData\Local\Temp\ccT2k4Ht.s 			page 16


 796:system/core_cm3.h **** #define CoreDebug_DEMCR_VC_HARDERR_Pos     10                                             /*!< Core
 797:system/core_cm3.h **** #define CoreDebug_DEMCR_VC_HARDERR_Msk     (1UL << CoreDebug_DEMCR_VC_HARDERR_Pos)        /*!< Core
 798:system/core_cm3.h **** 
 799:system/core_cm3.h **** #define CoreDebug_DEMCR_VC_INTERR_Pos       9                                             /*!< Core
 800:system/core_cm3.h **** #define CoreDebug_DEMCR_VC_INTERR_Msk      (1UL << CoreDebug_DEMCR_VC_INTERR_Pos)         /*!< Core
 801:system/core_cm3.h **** 
 802:system/core_cm3.h **** #define CoreDebug_DEMCR_VC_BUSERR_Pos       8                                             /*!< Core
 803:system/core_cm3.h **** #define CoreDebug_DEMCR_VC_BUSERR_Msk      (1UL << CoreDebug_DEMCR_VC_BUSERR_Pos)         /*!< Core
 804:system/core_cm3.h **** 
 805:system/core_cm3.h **** #define CoreDebug_DEMCR_VC_STATERR_Pos      7                                             /*!< Core
 806:system/core_cm3.h **** #define CoreDebug_DEMCR_VC_STATERR_Msk     (1UL << CoreDebug_DEMCR_VC_STATERR_Pos)        /*!< Core
 807:system/core_cm3.h **** 
 808:system/core_cm3.h **** #define CoreDebug_DEMCR_VC_CHKERR_Pos       6                                             /*!< Core
 809:system/core_cm3.h **** #define CoreDebug_DEMCR_VC_CHKERR_Msk      (1UL << CoreDebug_DEMCR_VC_CHKERR_Pos)         /*!< Core
 810:system/core_cm3.h **** 
 811:system/core_cm3.h **** #define CoreDebug_DEMCR_VC_NOCPERR_Pos      5                                             /*!< Core
 812:system/core_cm3.h **** #define CoreDebug_DEMCR_VC_NOCPERR_Msk     (1UL << CoreDebug_DEMCR_VC_NOCPERR_Pos)        /*!< Core
 813:system/core_cm3.h **** 
 814:system/core_cm3.h **** #define CoreDebug_DEMCR_VC_MMERR_Pos        4                                             /*!< Core
 815:system/core_cm3.h **** #define CoreDebug_DEMCR_VC_MMERR_Msk       (1UL << CoreDebug_DEMCR_VC_MMERR_Pos)          /*!< Core
 816:system/core_cm3.h **** 
 817:system/core_cm3.h **** #define CoreDebug_DEMCR_VC_CORERESET_Pos    0                                             /*!< Core
 818:system/core_cm3.h **** #define CoreDebug_DEMCR_VC_CORERESET_Msk   (1UL << CoreDebug_DEMCR_VC_CORERESET_Pos)      /*!< Core
 819:system/core_cm3.h **** 
 820:system/core_cm3.h **** /*@} end of group CMSIS_CoreDebug */
 821:system/core_cm3.h **** 
 822:system/core_cm3.h **** 
 823:system/core_cm3.h **** /** \ingroup  CMSIS_core_register
 824:system/core_cm3.h ****   @{
 825:system/core_cm3.h ****  */
 826:system/core_cm3.h **** 
 827:system/core_cm3.h **** /* Memory mapping of Cortex-M3 Hardware */
 828:system/core_cm3.h **** #define SCS_BASE            (0xE000E000UL)                            /*!< System Control Space Bas
 829:system/core_cm3.h **** #define ITM_BASE            (0xE0000000UL)                            /*!< ITM Base Address        
 830:system/core_cm3.h **** #define CoreDebug_BASE      (0xE000EDF0UL)                            /*!< Core Debug Base Address 
 831:system/core_cm3.h **** #define SysTick_BASE        (SCS_BASE +  0x0010UL)                    /*!< SysTick Base Address    
 832:system/core_cm3.h **** #define NVIC_BASE           (SCS_BASE +  0x0100UL)                    /*!< NVIC Base Address       
 833:system/core_cm3.h **** #define SCB_BASE            (SCS_BASE +  0x0D00UL)                    /*!< System Control Block Bas
 834:system/core_cm3.h **** 
 835:system/core_cm3.h **** #define InterruptType       ((InterruptType_Type *) SCS_BASE)         /*!< Interrupt Type Register 
 836:system/core_cm3.h **** #define SCB                 ((SCB_Type *)           SCB_BASE)         /*!< SCB configuration struct
 837:system/core_cm3.h **** #define SysTick             ((SysTick_Type *)       SysTick_BASE)     /*!< SysTick configuration st
 838:system/core_cm3.h **** #define NVIC                ((NVIC_Type *)          NVIC_BASE)        /*!< NVIC configuration struc
 839:system/core_cm3.h **** #define ITM                 ((ITM_Type *)           ITM_BASE)         /*!< ITM configuration struct
 840:system/core_cm3.h **** #define CoreDebug           ((CoreDebug_Type *)     CoreDebug_BASE)   /*!< Core Debug configuration
 841:system/core_cm3.h **** 
 842:system/core_cm3.h **** #if (__MPU_PRESENT == 1)
 843:system/core_cm3.h ****   #define MPU_BASE          (SCS_BASE +  0x0D90UL)                    /*!< Memory Protection Unit  
 844:system/core_cm3.h ****   #define MPU               ((MPU_Type*)            MPU_BASE)         /*!< Memory Protection Unit  
 845:system/core_cm3.h **** #endif
 846:system/core_cm3.h **** 
 847:system/core_cm3.h **** /*@} */
 848:system/core_cm3.h **** 
 849:system/core_cm3.h **** 
 850:system/core_cm3.h **** 
 851:system/core_cm3.h **** /*******************************************************************************
 852:system/core_cm3.h ****  *                Hardware Abstraction Layer
ARM GAS  C:\Users\COSMIN~1.MAR\AppData\Local\Temp\ccT2k4Ht.s 			page 17


 853:system/core_cm3.h ****  ******************************************************************************/
 854:system/core_cm3.h **** /** \addtogroup CMSIS_Core_FunctionInterface CMSIS Core Function Interface
 855:system/core_cm3.h ****   Core Function Interface contains:
 856:system/core_cm3.h ****   - Core NVIC Functions
 857:system/core_cm3.h ****   - Core SysTick Functions
 858:system/core_cm3.h ****   - Core Debug Functions
 859:system/core_cm3.h ****   - Core Register Access Functions
 860:system/core_cm3.h **** */
 861:system/core_cm3.h **** 
 862:system/core_cm3.h **** 
 863:system/core_cm3.h **** 
 864:system/core_cm3.h **** /* ##########################   NVIC functions  #################################### */
 865:system/core_cm3.h **** /** \ingroup  CMSIS_Core_FunctionInterface
 866:system/core_cm3.h ****     \defgroup CMSIS_Core_NVICFunctions CMSIS Core NVIC Functions
 867:system/core_cm3.h ****   @{
 868:system/core_cm3.h ****  */
 869:system/core_cm3.h **** /** @addtogroup CMSIS_Core_NVICFunctions
 870:system/core_cm3.h ****  * @{
 871:system/core_cm3.h ****  */
 872:system/core_cm3.h **** /** \brief  Set Priority Grouping
 873:system/core_cm3.h **** 
 874:system/core_cm3.h ****   This function sets the priority grouping field using the required unlock sequence.
 875:system/core_cm3.h ****   The parameter PriorityGroup is assigned to the field SCB->AIRCR [10:8] PRIGROUP field.
 876:system/core_cm3.h ****   Only values from 0..7 are used.
 877:system/core_cm3.h ****   In case of a conflict between priority grouping and available
 878:system/core_cm3.h ****   priority bits (__NVIC_PRIO_BITS) the smallest possible priority group is set.
 879:system/core_cm3.h **** 
 880:system/core_cm3.h ****     \param [in]      PriorityGroup  Priority grouping field
 881:system/core_cm3.h ****  */
 882:system/core_cm3.h **** static __INLINE void NVIC_SetPriorityGrouping(uint32_t PriorityGroup)
 883:system/core_cm3.h **** {
 884:system/core_cm3.h ****   uint32_t reg_value;
 885:system/core_cm3.h ****   uint32_t PriorityGroupTmp = (PriorityGroup & 0x07);                         /* only values 0..7 a
 886:system/core_cm3.h **** 
 887:system/core_cm3.h ****   reg_value  =  SCB->AIRCR;                                                   /* read old register 
 888:system/core_cm3.h ****   reg_value &= ~(SCB_AIRCR_VECTKEY_Msk | SCB_AIRCR_PRIGROUP_Msk);             /* clear bits to chan
 889:system/core_cm3.h ****   reg_value  =  (reg_value                       |
 890:system/core_cm3.h ****                 (0x5FA << SCB_AIRCR_VECTKEY_Pos) |
 891:system/core_cm3.h ****                 (PriorityGroupTmp << 8));                                     /* Insert write key a
 892:system/core_cm3.h ****   SCB->AIRCR =  reg_value;
 893:system/core_cm3.h **** }
 894:system/core_cm3.h **** 
 895:system/core_cm3.h **** 
 896:system/core_cm3.h **** /** \brief  Get Priority Grouping
 897:system/core_cm3.h **** 
 898:system/core_cm3.h ****   This function gets the priority grouping from NVIC Interrupt Controller.
 899:system/core_cm3.h ****   Priority grouping is SCB->AIRCR [10:8] PRIGROUP field.
 900:system/core_cm3.h **** 
 901:system/core_cm3.h ****     \return                Priority grouping field
 902:system/core_cm3.h ****  */
 903:system/core_cm3.h **** static __INLINE uint32_t NVIC_GetPriorityGrouping(void)
 904:system/core_cm3.h **** {
 905:system/core_cm3.h ****   return ((SCB->AIRCR & SCB_AIRCR_PRIGROUP_Msk) >> SCB_AIRCR_PRIGROUP_Pos);   /* read priority grou
 906:system/core_cm3.h **** }
 907:system/core_cm3.h **** 
 908:system/core_cm3.h **** 
 909:system/core_cm3.h **** /** \brief  Enable External Interrupt
ARM GAS  C:\Users\COSMIN~1.MAR\AppData\Local\Temp\ccT2k4Ht.s 			page 18


 910:system/core_cm3.h **** 
 911:system/core_cm3.h ****     This function enables a device specific interupt in the NVIC interrupt controller.
 912:system/core_cm3.h ****     The interrupt number cannot be a negative value.
 913:system/core_cm3.h **** 
 914:system/core_cm3.h ****     \param [in]      IRQn  Number of the external interrupt to enable
 915:system/core_cm3.h ****  */
 916:system/core_cm3.h **** static __INLINE void NVIC_EnableIRQ(IRQn_Type IRQn)
 917:system/core_cm3.h **** {
  61              		.loc 1 917 0
  62              		.cfi_startproc
  63              		@ args = 0, pretend = 0, frame = 8
  64              		@ frame_needed = 1, uses_anonymous_args = 0
  65              		@ link register save eliminated.
  66 0000 80B4     		push	{r7}	@
  67              		.cfi_def_cfa_offset 4
  68              		.cfi_offset 7, -4
  69 0002 83B0     		sub	sp, sp, #12	@,,
  70              		.cfi_def_cfa_offset 16
  71 0004 00AF     		add	r7, sp, #0	@,,
  72              		.cfi_def_cfa_register 7
  73 0006 0346     		mov	r3, r0	@ tmp118, IRQn
  74 0008 FB71     		strb	r3, [r7, #7]	@ tmp119, IRQn
 918:system/core_cm3.h ****   NVIC->ISER[((uint32_t)(IRQn) >> 5)] = (1 << ((uint32_t)(IRQn) & 0x1F)); /* enable interrupt */
  75              		.loc 1 918 0
  76 000a 0849     		ldr	r1, .L2	@ D.6328,
  77 000c 97F90730 		ldrsb	r3, [r7, #7]	@ D.6329, IRQn
  78 0010 5B09     		lsrs	r3, r3, #5	@ D.6329, D.6329,
  79 0012 FA79     		ldrb	r2, [r7, #7]	@ zero_extendqisi2	@ D.6330, IRQn
  80 0014 02F01F02 		and	r2, r2, #31	@ D.6331, D.6331,
  81 0018 0120     		movs	r0, #1	@ tmp120,
  82 001a 00FA02F2 		lsl	r2, r0, r2	@ D.6331, tmp120, D.6331
  83 001e 41F82320 		str	r2, [r1, r3, lsl #2]	@ D.6329, _1->ISER
 919:system/core_cm3.h **** }
  84              		.loc 1 919 0
  85 0022 0C37     		adds	r7, r7, #12	@,,
  86              		.cfi_def_cfa_offset 4
  87 0024 BD46     		mov	sp, r7	@,
  88              		.cfi_def_cfa_register 13
  89              		@ sp needed	@
  90 0026 5DF8047B 		ldr	r7, [sp], #4	@,
  91              		.cfi_restore 7
  92              		.cfi_def_cfa_offset 0
  93 002a 7047     		bx	lr	@
  94              	.L3:
  95              		.align	2
  96              	.L2:
  97 002c 00E100E0 		.word	-536813312
  98              		.cfi_endproc
  99              	.LFE40:
 100              		.size	NVIC_EnableIRQ, .-NVIC_EnableIRQ
 101              		.comm	xHandleLEDs,4,4
 102              		.comm	xHandlePot,4,4
 103              		.section	.text.EINT3_IRQHandler,"ax",%progbits
 104              		.align	2
 105              		.global	EINT3_IRQHandler
 106              		.thumb
 107              		.thumb_func
ARM GAS  C:\Users\COSMIN~1.MAR\AppData\Local\Temp\ccT2k4Ht.s 			page 19


 108              		.type	EINT3_IRQHandler, %function
 109              	EINT3_IRQHandler:
 110              	.LFB56:
 111              		.file 2 "rc_app.c"
   1:rc_app.c      **** /**\file 	rc_app.c
   2:rc_app.c      ****  * \brief 	Embedded Artists AOAA Cortex M3 Template application
   3:rc_app.c      ****  * \details Sample code for Embedded Artists AOAA board
   4:rc_app.c      ****  * \author 	Cosmin Marcu
   5:rc_app.c      ****  * \date 	27.05.2015
   6:rc_app.c      ****  */
   7:rc_app.c      **** 
   8:rc_app.c      **** /* System and general headers */
   9:rc_app.c      **** #include "LPC17xx.h"
  10:rc_app.c      **** #include "rc_app.h"
  11:rc_app.c      **** 
  12:rc_app.c      **** #include "rc_config.h"
  13:rc_app.c      **** #include "rc_version.h"
  14:rc_app.c      **** #include "rc_stdtypedefs.h"
  15:rc_app.c      **** #include "rc_board.h"
  16:rc_app.c      **** 
  17:rc_app.c      **** /* Driver headers */
  18:rc_app.c      **** #include "rc_system.h"
  19:rc_app.c      **** #include "rc_gpio.h"
  20:rc_app.c      **** #include "rc_uart.h"
  21:rc_app.c      **** #include "rc_adc.h"
  22:rc_app.c      **** 
  23:rc_app.c      **** /* Modules headers */
  24:rc_app.c      **** #include "rc_leds.h"
  25:rc_app.c      **** #include "rc_pot.h"
  26:rc_app.c      **** 
  27:rc_app.c      **** /* FreeRTOS headers */
  28:rc_app.c      **** #if RC_USE_FREERTOS
  29:rc_app.c      **** 	#include "FreeRTOS.h"
  30:rc_app.c      **** 	#include "task.h"
  31:rc_app.c      **** 	#include "FreeRTOSConfig.h"
  32:rc_app.c      **** #endif
  33:rc_app.c      **** 
  34:rc_app.c      **** /* Tasks headers */
  35:rc_app.c      **** #include "tasks/rc_task_leds/rc_task_leds.h"
  36:rc_app.c      **** #include "tasks/rc_task_pot/rc_task_pot.h"
  37:rc_app.c      **** 
  38:rc_app.c      **** /* IRQ Handlers */
  39:rc_app.c      **** /**
  40:rc_app.c      **** * @brief 	External GPIO3 interrupt handler
  41:rc_app.c      **** * @details 	TBD.
  42:rc_app.c      **** */
  43:rc_app.c      **** void EINT3_IRQHandler(void)
  44:rc_app.c      **** {
 112              		.loc 2 44 0
 113              		.cfi_startproc
 114              		@ args = 0, pretend = 0, frame = 0
 115              		@ frame_needed = 1, uses_anonymous_args = 0
 116 0000 80B5     		push	{r7, lr}	@
 117              		.cfi_def_cfa_offset 8
 118              		.cfi_offset 7, -8
 119              		.cfi_offset 14, -4
 120 0002 00AF     		add	r7, sp, #0	@,,
ARM GAS  C:\Users\COSMIN~1.MAR\AppData\Local\Temp\ccT2k4Ht.s 			page 20


 121              		.cfi_def_cfa_register 7
  45:rc_app.c      **** 	//Button1 Push
  46:rc_app.c      **** 	if(E_RC_TRUE == rcgpio_GetInterruptStatus(RC_SW2_PORT, RC_SW2_PIN, E_RCGPIO_RISING))
 122              		.loc 2 46 0
 123 0004 0220     		movs	r0, #2	@,
 124 0006 0B21     		movs	r1, #11	@,
 125 0008 0022     		movs	r2, #0	@,
 126 000a FFF7FEFF 		bl	rcgpio_GetInterruptStatus	@
 127 000e 0346     		mov	r3, r0	@ tmp114,
 128 0010 012B     		cmp	r3, #1	@ D.6332,
 129 0012 03D1     		bne	.L5	@,
  47:rc_app.c      **** 	{
  48:rc_app.c      **** 		rcgpio_ClearInterrupt(RC_SW2_PORT, RC_SW2_PIN);
 130              		.loc 2 48 0
 131 0014 0220     		movs	r0, #2	@,
 132 0016 0B21     		movs	r1, #11	@,
 133 0018 FFF7FEFF 		bl	rcgpio_ClearInterrupt	@
 134              	.L5:
  49:rc_app.c      **** 	}
  50:rc_app.c      **** 	//Button1 Release
  51:rc_app.c      **** 	if(E_RC_TRUE == rcgpio_GetInterruptStatus(RC_SW2_PORT, RC_SW2_PIN, E_RCGPIO_FALLING))
 135              		.loc 2 51 0
 136 001c 0220     		movs	r0, #2	@,
 137 001e 0B21     		movs	r1, #11	@,
 138 0020 0122     		movs	r2, #1	@,
 139 0022 FFF7FEFF 		bl	rcgpio_GetInterruptStatus	@
 140 0026 0346     		mov	r3, r0	@ tmp115,
 141 0028 012B     		cmp	r3, #1	@ D.6332,
 142 002a 03D1     		bne	.L6	@,
  52:rc_app.c      **** 	{
  53:rc_app.c      **** 		rcgpio_ClearInterrupt(RC_SW2_PORT, RC_SW2_PIN);
 143              		.loc 2 53 0
 144 002c 0220     		movs	r0, #2	@,
 145 002e 0B21     		movs	r1, #11	@,
 146 0030 FFF7FEFF 		bl	rcgpio_ClearInterrupt	@
 147              	.L6:
  54:rc_app.c      **** 	}
  55:rc_app.c      **** 
  56:rc_app.c      **** 	//Button2 Push
  57:rc_app.c      **** 	if(E_RC_TRUE == rcgpio_GetInterruptStatus(RC_SW3_PORT, RC_SW3_PIN, E_RCGPIO_RISING))
 148              		.loc 2 57 0
 149 0034 0220     		movs	r0, #2	@,
 150 0036 0C21     		movs	r1, #12	@,
 151 0038 0022     		movs	r2, #0	@,
 152 003a FFF7FEFF 		bl	rcgpio_GetInterruptStatus	@
 153 003e 0346     		mov	r3, r0	@ tmp116,
 154 0040 012B     		cmp	r3, #1	@ D.6332,
 155 0042 03D1     		bne	.L7	@,
  58:rc_app.c      **** 	{
  59:rc_app.c      **** 		rcgpio_ClearInterrupt(RC_SW3_PORT, RC_SW3_PIN);
 156              		.loc 2 59 0
 157 0044 0220     		movs	r0, #2	@,
 158 0046 0C21     		movs	r1, #12	@,
 159 0048 FFF7FEFF 		bl	rcgpio_ClearInterrupt	@
 160              	.L7:
  60:rc_app.c      **** 	}
  61:rc_app.c      **** 	//Button2 Release
ARM GAS  C:\Users\COSMIN~1.MAR\AppData\Local\Temp\ccT2k4Ht.s 			page 21


  62:rc_app.c      **** 	if(E_RC_TRUE == rcgpio_GetInterruptStatus(RC_SW3_PORT, RC_SW3_PIN, E_RCGPIO_FALLING))
 161              		.loc 2 62 0
 162 004c 0220     		movs	r0, #2	@,
 163 004e 0C21     		movs	r1, #12	@,
 164 0050 0122     		movs	r2, #1	@,
 165 0052 FFF7FEFF 		bl	rcgpio_GetInterruptStatus	@
 166 0056 0346     		mov	r3, r0	@ tmp117,
 167 0058 012B     		cmp	r3, #1	@ D.6332,
 168 005a 03D1     		bne	.L4	@,
  63:rc_app.c      **** 	{
  64:rc_app.c      **** 		rcgpio_ClearInterrupt(RC_SW3_PORT, RC_SW3_PIN);
 169              		.loc 2 64 0
 170 005c 0220     		movs	r0, #2	@,
 171 005e 0C21     		movs	r1, #12	@,
 172 0060 FFF7FEFF 		bl	rcgpio_ClearInterrupt	@
 173              	.L4:
  65:rc_app.c      **** 	}
  66:rc_app.c      **** }
 174              		.loc 2 66 0
 175 0064 80BD     		pop	{r7, pc}	@
 176              		.cfi_endproc
 177              	.LFE56:
 178              		.size	EINT3_IRQHandler, .-EINT3_IRQHandler
 179 0066 00BF     		.section	.text.rcapp_SetupHardware,"ax",%progbits
 180              		.align	2
 181              		.thumb
 182              		.thumb_func
 183              		.type	rcapp_SetupHardware, %function
 184              	rcapp_SetupHardware:
 185              	.LFB57:
  67:rc_app.c      **** 
  68:rc_app.c      **** /* Private functions */
  69:rc_app.c      **** PRIVATE_FCT void rcapp_SetupHardware(void);
  70:rc_app.c      **** 
  71:rc_app.c      **** /**
  72:rc_app.c      **** * @brief 	Hardware initialization
  73:rc_app.c      **** * @details 	Initialize system clock and I/O ports/pins
  74:rc_app.c      **** */
  75:rc_app.c      **** PRIVATE_FCT void rcapp_SetupHardware(void)
  76:rc_app.c      **** {
 186              		.loc 2 76 0
 187              		.cfi_startproc
 188              		@ args = 0, pretend = 0, frame = 0
 189              		@ frame_needed = 1, uses_anonymous_args = 0
 190 0000 80B5     		push	{r7, lr}	@
 191              		.cfi_def_cfa_offset 8
 192              		.cfi_offset 7, -8
 193              		.cfi_offset 14, -4
 194 0002 00AF     		add	r7, sp, #0	@,,
 195              		.cfi_def_cfa_register 7
  77:rc_app.c      **** 	//T_RCLL_UART_CONFIG ls_UARTConfig;
  78:rc_app.c      **** 	/* Refresh system clock */
  79:rc_app.c      **** 	rcsys_CoreClockUpdate();
 196              		.loc 2 79 0
 197 0004 FFF7FEFF 		bl	rcsys_CoreClockUpdate	@
  80:rc_app.c      **** 	/* Initialize core system */
  81:rc_app.c      **** 	rcsys_Init();
ARM GAS  C:\Users\COSMIN~1.MAR\AppData\Local\Temp\ccT2k4Ht.s 			page 22


 198              		.loc 2 81 0
 199 0008 FFF7FEFF 		bl	rcsys_Init	@
  82:rc_app.c      **** 	/* Initialize LEDs pins */
  83:rc_app.c      **** 	rcleds_Init();
 200              		.loc 2 83 0
 201 000c FFF7FEFF 		bl	rcleds_Init	@
  84:rc_app.c      **** 	/* Initialize User buttons */
  85:rc_app.c      **** 	rcgpio_SetDirection(RC_SW2_PORT, RC_SW2_PIN, E_RC_INPUT);
 202              		.loc 2 85 0
 203 0010 0220     		movs	r0, #2	@,
 204 0012 0B21     		movs	r1, #11	@,
 205 0014 0022     		movs	r2, #0	@,
 206 0016 FFF7FEFF 		bl	rcgpio_SetDirection	@
  86:rc_app.c      **** 	rcgpio_SetDirection(RC_SW3_PORT, RC_SW3_PIN, E_RC_INPUT);
 207              		.loc 2 86 0
 208 001a 0220     		movs	r0, #2	@,
 209 001c 0C21     		movs	r1, #12	@,
 210 001e 0022     		movs	r2, #0	@,
 211 0020 FFF7FEFF 		bl	rcgpio_SetDirection	@
  87:rc_app.c      **** 	/* Enable interrupts */
  88:rc_app.c      **** 	rcgpio_EnableInterrupt(RC_SW2_PORT, RC_SW2_PIN, E_RCGPIO_RISING);
 212              		.loc 2 88 0
 213 0024 0220     		movs	r0, #2	@,
 214 0026 0B21     		movs	r1, #11	@,
 215 0028 0022     		movs	r2, #0	@,
 216 002a FFF7FEFF 		bl	rcgpio_EnableInterrupt	@
  89:rc_app.c      **** 	rcgpio_EnableInterrupt(RC_SW2_PORT, RC_SW2_PIN, E_RCGPIO_FALLING);
 217              		.loc 2 89 0
 218 002e 0220     		movs	r0, #2	@,
 219 0030 0B21     		movs	r1, #11	@,
 220 0032 0122     		movs	r2, #1	@,
 221 0034 FFF7FEFF 		bl	rcgpio_EnableInterrupt	@
  90:rc_app.c      **** 	rcgpio_EnableInterrupt(RC_SW3_PORT, RC_SW3_PIN, E_RCGPIO_RISING);
 222              		.loc 2 90 0
 223 0038 0220     		movs	r0, #2	@,
 224 003a 0C21     		movs	r1, #12	@,
 225 003c 0022     		movs	r2, #0	@,
 226 003e FFF7FEFF 		bl	rcgpio_EnableInterrupt	@
  91:rc_app.c      **** 	rcgpio_EnableInterrupt(RC_SW3_PORT, RC_SW3_PIN, E_RCGPIO_FALLING);
 227              		.loc 2 91 0
 228 0042 0220     		movs	r0, #2	@,
 229 0044 0C21     		movs	r1, #12	@,
 230 0046 0122     		movs	r2, #1	@,
 231 0048 FFF7FEFF 		bl	rcgpio_EnableInterrupt	@
  92:rc_app.c      **** 	NVIC_EnableIRQ(EINT3_IRQn);
 232              		.loc 2 92 0
 233 004c 1520     		movs	r0, #21	@,
 234 004e FFF7FEFF 		bl	NVIC_EnableIRQ	@
  93:rc_app.c      **** 	/* Initialize Potentiometer pin */
  94:rc_app.c      **** 	rcpot_Init();
 235              		.loc 2 94 0
 236 0052 FFF7FEFF 		bl	rcpot_Init	@
  95:rc_app.c      **** }
 237              		.loc 2 95 0
 238 0056 80BD     		pop	{r7, pc}	@
 239              		.cfi_endproc
 240              	.LFE57:
ARM GAS  C:\Users\COSMIN~1.MAR\AppData\Local\Temp\ccT2k4Ht.s 			page 23


 241              		.size	rcapp_SetupHardware, .-rcapp_SetupHardware
 242              		.section	.rodata
 243              		.align	2
 244              	.LC0:
 245 0000 4C454473 		.ascii	"LEDs task\000"
 245      20746173 
 245      6B00
 246 000a 0000     		.align	2
 247              	.LC1:
 248 000c 504F5420 		.ascii	"POT task\000"
 248      7461736B 
 248      00
 249 0015 000000   		.section	.text.main,"ax",%progbits
 250              		.align	2
 251              		.global	main
 252              		.thumb
 253              		.thumb_func
 254              		.type	main, %function
 255              	main:
 256              	.LFB58:
  96:rc_app.c      **** 
  97:rc_app.c      **** /**
  98:rc_app.c      **** * @brief 	Main code block
  99:rc_app.c      **** * @details 	Initialize system and create tasks
 100:rc_app.c      **** */
 101:rc_app.c      **** int main(void)
 102:rc_app.c      **** {
 257              		.loc 2 102 0
 258              		.cfi_startproc
 259              		@ args = 0, pretend = 0, frame = 0
 260              		@ frame_needed = 1, uses_anonymous_args = 0
 261 0000 80B5     		push	{r7, lr}	@
 262              		.cfi_def_cfa_offset 8
 263              		.cfi_offset 7, -8
 264              		.cfi_offset 14, -4
 265 0002 84B0     		sub	sp, sp, #16	@,,
 266              		.cfi_def_cfa_offset 24
 267 0004 04AF     		add	r7, sp, #16	@,,
 268              		.cfi_def_cfa 7, 8
 103:rc_app.c      **** 	/* Initialize hardware */
 104:rc_app.c      **** 	rcapp_SetupHardware();
 269              		.loc 2 104 0
 270 0006 FFF7FEFF 		bl	rcapp_SetupHardware	@
 105:rc_app.c      **** 	/* Create application tasks */
 106:rc_app.c      **** //	xTaskCreate(rctask_XBee, (const char *) "XBee task",
 107:rc_app.c      **** //			RC_STACKSIZE_TASK_XBEE, NULL, (tskIDLE_PRIORITY + 1UL),
 108:rc_app.c      **** //			&xHandleXBee);
 109:rc_app.c      **** 	xTaskCreate(rctask_LEDs, (const char *) "LEDs task",
 271              		.loc 2 109 0
 272 000a 0123     		movs	r3, #1	@ tmp112,
 273 000c 0093     		str	r3, [sp]	@ tmp112,
 274 000e 114B     		ldr	r3, .L12	@ tmp113,
 275 0010 0193     		str	r3, [sp, #4]	@ tmp113,
 276 0012 0023     		movs	r3, #0	@ tmp114,
 277 0014 0293     		str	r3, [sp, #8]	@ tmp114,
 278 0016 0023     		movs	r3, #0	@ tmp115,
 279 0018 0393     		str	r3, [sp, #12]	@ tmp115,
ARM GAS  C:\Users\COSMIN~1.MAR\AppData\Local\Temp\ccT2k4Ht.s 			page 24


 280 001a 0F48     		ldr	r0, .L12+4	@,
 281 001c 0F49     		ldr	r1, .L12+8	@,
 282 001e 4FF48072 		mov	r2, #256	@,
 283 0022 0023     		movs	r3, #0	@,
 284 0024 FFF7FEFF 		bl	xTaskGenericCreate	@
 110:rc_app.c      **** 			RC_STACKSIZE_TASK_LEDS, NULL, (tskIDLE_PRIORITY + 1UL),
 111:rc_app.c      **** 			&xHandleLEDs);
 112:rc_app.c      **** 	xTaskCreate(rctask_pot, (const char *) "POT task",
 285              		.loc 2 112 0
 286 0028 0123     		movs	r3, #1	@ tmp116,
 287 002a 0093     		str	r3, [sp]	@ tmp116,
 288 002c 094B     		ldr	r3, .L12	@ tmp117,
 289 002e 0193     		str	r3, [sp, #4]	@ tmp117,
 290 0030 0023     		movs	r3, #0	@ tmp118,
 291 0032 0293     		str	r3, [sp, #8]	@ tmp118,
 292 0034 0023     		movs	r3, #0	@ tmp119,
 293 0036 0393     		str	r3, [sp, #12]	@ tmp119,
 294 0038 0948     		ldr	r0, .L12+12	@,
 295 003a 0A49     		ldr	r1, .L12+16	@,
 296 003c 4FF48072 		mov	r2, #256	@,
 297 0040 0023     		movs	r3, #0	@,
 298 0042 FFF7FEFF 		bl	xTaskGenericCreate	@
 113:rc_app.c      **** 			RC_STACKSIZE_TASK_POT, NULL, (tskIDLE_PRIORITY + 1UL),
 114:rc_app.c      **** 			&xHandleLEDs);
 115:rc_app.c      **** 	/* Start FreeRTOS task scheduler */
 116:rc_app.c      **** 	vTaskStartScheduler();
 299              		.loc 2 116 0
 300 0046 FFF7FEFF 		bl	vTaskStartScheduler	@
 117:rc_app.c      **** 	/* Exit main application */
 118:rc_app.c      **** 	return (int)E_RC_ERROR;
 301              		.loc 2 118 0
 302 004a 0123     		movs	r3, #1	@ D.6333,
 119:rc_app.c      **** }
 303              		.loc 2 119 0
 304 004c 1846     		mov	r0, r3	@, <retval>
 305 004e BD46     		mov	sp, r7	@,
 306              		.cfi_def_cfa_register 13
 307              		@ sp needed	@
 308 0050 80BD     		pop	{r7, pc}	@
 309              	.L13:
 310 0052 00BF     		.align	2
 311              	.L12:
 312 0054 00000000 		.word	xHandleLEDs
 313 0058 00000000 		.word	rctask_LEDs
 314 005c 00000000 		.word	.LC0
 315 0060 00000000 		.word	rctask_pot
 316 0064 0C000000 		.word	.LC1
 317              		.cfi_endproc
 318              	.LFE58:
 319              		.size	main, .-main
 320              		.text
 321              	.Letext0:
 322              		.file 3 "system/LPC17xx.h"
 323              		.file 4 "c:\\gnu tools arm embedded\\4.9 2015q1\\arm-none-eabi\\include\\machine\\_default_types.h
 324              		.file 5 "c:\\gnu tools arm embedded\\4.9 2015q1\\arm-none-eabi\\include\\stdint.h"
 325              		.file 6 "config/rc_stdtypedefs.h"
 326              		.file 7 "drivers/rc_gpio/rc_gpio.h"
ARM GAS  C:\Users\COSMIN~1.MAR\AppData\Local\Temp\ccT2k4Ht.s 			page 25


 327              		.file 8 "FreeRTOS/portable/GCC/ARM_CM3/portmacro.h"
 328              		.file 9 "FreeRTOS/include/task.h"
 329              		.file 10 "tasks/rc_task_leds/rc_task_leds.h"
 330              		.file 11 "tasks/rc_task_pot/rc_task_pot.h"