ARM GAS  C:\Users\COSMIN~1.MAR\AppData\Local\Temp\ccTJ28RH.s 			page 1


   1              		.syntax unified
   2              		.cpu cortex-m3
   3              		.fpu softvfp
   4              		.eabi_attribute 20, 1	@ Tag_ABI_FP_denormal
   5              		.eabi_attribute 21, 1	@ Tag_ABI_FP_exceptions
   6              		.eabi_attribute 23, 3	@ Tag_ABI_FP_number_model
   7              		.eabi_attribute 24, 1	@ Tag_ABI_align8_needed
   8              		.eabi_attribute 25, 1	@ Tag_ABI_align8_preserved
   9              		.eabi_attribute 26, 1	@ Tag_ABI_enum_size
  10              		.eabi_attribute 30, 6	@ Tag_ABI_optimization_goals
  11              		.eabi_attribute 34, 1	@ Tag_CPU_unaligned_access
  12              		.eabi_attribute 18, 4	@ Tag_ABI_PCS_wchar_t
  13              		.file	"rc_adc.c"
  14              	@ GNU C (GNU Tools for ARM Embedded Processors) version 4.9.3 20150303 (release) [ARM/embedded-4_9-
  15              	@	compiled by GNU C version 4.7.4, GMP version 4.3.2, MPFR version 2.4.2, MPC version 0.8.1
  16              	@ GGC heuristics: --param ggc-min-expand=100 --param ggc-min-heapsize=131072
  17              	@ options passed:  -I . -I config -I system -I core -I drivers -I FreeRTOS
  18              	@ -I FreeRTOS/include -I FreeRTOS/portable/GCC/ARM_CM3 -I FreeRTOS/portable
  19              	@ -I tasks/rc_task_leds -I tasks/rc_task_pot -I modules/rc_leds
  20              	@ -I modules/rc_pot -I drivers/rc_system -I drivers/rc_gpio
  21              	@ -I drivers/rc_uart -I drivers/rc_pinsel -I drivers/rc_timer
  22              	@ -I drivers/rc_adc -imultilib armv7-m
  23              	@ -iprefix c:\gnu tools arm embedded\4.9 2015q1\bin\../lib/gcc/arm-none-eabi/4.9.3/
  24              	@ -isysroot c:\gnu tools arm embedded\4.9 2015q1\bin\../arm-none-eabi
  25              	@ -MD out/rc_adc.d -MF out/rc_adc.d -MP -MQ out/rc_adc.o
  26              	@ -D__USES_INITFINI__ drivers/rc_adc/rc_adc.c -mcpu=cortex-m3 -mthumb
  27              	@ -auxbase-strip out/rc_adc.o -g -ggdb3 -O0 -Wall -Wstrict-prototypes
  28              	@ -Wextra -std=gnu90 -ffunction-sections -fdata-sections -fverbose-asm
  29              	@ options enabled:  -faggressive-loop-optimizations -fauto-inc-dec -fcommon
  30              	@ -fdata-sections -fdelete-null-pointer-checks -fdwarf2-cfi-asm
  31              	@ -fearly-inlining -feliminate-unused-debug-types -ffunction-cse
  32              	@ -ffunction-sections -fgcse-lm -fgnu-runtime -fgnu-unique -fident
  33              	@ -finline-atomics -fira-hoist-pressure -fira-share-save-slots
  34              	@ -fira-share-spill-slots -fivopts -fkeep-static-consts
  35              	@ -fleading-underscore -flifetime-dse -fmath-errno -fmerge-debug-strings
  36              	@ -fpeephole -fprefetch-loop-arrays -freg-struct-return
  37              	@ -fsched-critical-path-heuristic -fsched-dep-count-heuristic
  38              	@ -fsched-group-heuristic -fsched-interblock -fsched-last-insn-heuristic
  39              	@ -fsched-rank-heuristic -fsched-spec -fsched-spec-insn-heuristic
  40              	@ -fsched-stalled-insns-dep -fshow-column -fsigned-zeros
  41              	@ -fsplit-ivs-in-unroller -fstrict-volatile-bitfields -fsync-libcalls
  42              	@ -ftrapping-math -ftree-coalesce-vars -ftree-cselim -ftree-forwprop
  43              	@ -ftree-loop-if-convert -ftree-loop-im -ftree-loop-ivcanon
  44              	@ -ftree-loop-optimize -ftree-parallelize-loops= -ftree-phiprop
  45              	@ -ftree-reassoc -ftree-scev-cprop -funit-at-a-time -fverbose-asm
  46              	@ -fzero-initialized-in-bss -mfix-cortex-m3-ldrd -mlittle-endian -mlra
  47              	@ -mpic-data-is-text-relative -msched-prolog -mthumb -munaligned-access
  48              	@ -mvectorize-with-neon-quad
  49              	
  50              		.text
  51              	.Ltext0:
  52              		.cfi_sections	.debug_frame
  53              		.section	.text.rcadc_Init,"ax",%progbits
  54              		.align	2
  55              		.global	rcadc_Init
  56              		.thumb
  57              		.thumb_func
ARM GAS  C:\Users\COSMIN~1.MAR\AppData\Local\Temp\ccTJ28RH.s 			page 2


  58              		.type	rcadc_Init, %function
  59              	rcadc_Init:
  60              	.LFB55:
  61              		.file 1 "drivers/rc_adc/rc_adc.c"
   1:drivers/rc_adc/rc_adc.c **** /**
   2:drivers/rc_adc/rc_adc.c ****  * \file	rc_adc.c
   3:drivers/rc_adc/rc_adc.c ****  * \brief	Analog-to-Digital converter functions
   4:drivers/rc_adc/rc_adc.c ****  * \details	Implements the functions which configures ADC ports
   5:drivers/rc_adc/rc_adc.c ****  * \author	Cosmin Marcu
   6:drivers/rc_adc/rc_adc.c ****  * \date	27.06.2015
   7:drivers/rc_adc/rc_adc.c ****  * \version 1.0.1
   8:drivers/rc_adc/rc_adc.c ****  */
   9:drivers/rc_adc/rc_adc.c **** 
  10:drivers/rc_adc/rc_adc.c **** /* Includes */
  11:drivers/rc_adc/rc_adc.c **** #include "rc_adc.h"
  12:drivers/rc_adc/rc_adc.c **** 
  13:drivers/rc_adc/rc_adc.c **** /* Begin functions implementation */
  14:drivers/rc_adc/rc_adc.c **** 
  15:drivers/rc_adc/rc_adc.c **** /** \defgroup rc_adc ADC driver
  16:drivers/rc_adc/rc_adc.c ****   Contains the functions to configure and read ADC pins
  17:drivers/rc_adc/rc_adc.c **** */
  18:drivers/rc_adc/rc_adc.c **** 
  19:drivers/rc_adc/rc_adc.c **** /**
  20:drivers/rc_adc/rc_adc.c ****  * \ingroup  rc_adc
  21:drivers/rc_adc/rc_adc.c ****  * \defgroup adc_functions ADC Functions
  22:drivers/rc_adc/rc_adc.c ****  *  Functions definitions for the ADC ports
  23:drivers/rc_adc/rc_adc.c ****  *  @{
  24:drivers/rc_adc/rc_adc.c ****  */
  25:drivers/rc_adc/rc_adc.c **** 
  26:drivers/rc_adc/rc_adc.c **** /* ADC functions group: */
  27:drivers/rc_adc/rc_adc.c **** 
  28:drivers/rc_adc/rc_adc.c **** /**
  29:drivers/rc_adc/rc_adc.c ****  * \brief	Initializes ADC peripheral
  30:drivers/rc_adc/rc_adc.c ****  * \param 	ls_Port ADC port structure
  31:drivers/rc_adc/rc_adc.c ****  * \param 	lul_ClockFrequency ADC clock frequency
  32:drivers/rc_adc/rc_adc.c ****  * \return 	none
  33:drivers/rc_adc/rc_adc.c ****  */
  34:drivers/rc_adc/rc_adc.c **** void rcadc_Init(T_RCADC_PORT *ls_Port, T_ULONG lul_ClockFrequency)
  35:drivers/rc_adc/rc_adc.c **** {
  62              		.loc 1 35 0
  63              		.cfi_startproc
  64              		@ args = 0, pretend = 0, frame = 8
  65              		@ frame_needed = 1, uses_anonymous_args = 0
  66 0000 80B5     		push	{r7, lr}	@
  67              		.cfi_def_cfa_offset 8
  68              		.cfi_offset 7, -8
  69              		.cfi_offset 14, -4
  70 0002 82B0     		sub	sp, sp, #8	@,,
  71              		.cfi_def_cfa_offset 16
  72 0004 00AF     		add	r7, sp, #0	@,,
  73              		.cfi_def_cfa_register 7
  74 0006 7860     		str	r0, [r7, #4]	@ ls_Port, ls_Port
  75 0008 3960     		str	r1, [r7]	@ lul_ClockFrequency, lul_ClockFrequency
  36:drivers/rc_adc/rc_adc.c **** 	ADC_Init(ls_Port, lul_ClockFrequency);
  76              		.loc 1 36 0
  77 000a 7868     		ldr	r0, [r7, #4]	@, ls_Port
  78 000c 3968     		ldr	r1, [r7]	@, lul_ClockFrequency
ARM GAS  C:\Users\COSMIN~1.MAR\AppData\Local\Temp\ccTJ28RH.s 			page 3


  79 000e FFF7FEFF 		bl	ADC_Init	@
  37:drivers/rc_adc/rc_adc.c **** }
  80              		.loc 1 37 0
  81 0012 0837     		adds	r7, r7, #8	@,,
  82              		.cfi_def_cfa_offset 8
  83 0014 BD46     		mov	sp, r7	@,
  84              		.cfi_def_cfa_register 13
  85              		@ sp needed	@
  86 0016 80BD     		pop	{r7, pc}	@
  87              		.cfi_endproc
  88              	.LFE55:
  89              		.size	rcadc_Init, .-rcadc_Init
  90              		.section	.text.rcadc_DeInit,"ax",%progbits
  91              		.align	2
  92              		.global	rcadc_DeInit
  93              		.thumb
  94              		.thumb_func
  95              		.type	rcadc_DeInit, %function
  96              	rcadc_DeInit:
  97              	.LFB56:
  38:drivers/rc_adc/rc_adc.c **** 
  39:drivers/rc_adc/rc_adc.c **** /**
  40:drivers/rc_adc/rc_adc.c ****  * \brief	De-initializes ADC peripheral
  41:drivers/rc_adc/rc_adc.c ****  * \param 	ls_Port ADC port structure
  42:drivers/rc_adc/rc_adc.c ****  * \return 	none
  43:drivers/rc_adc/rc_adc.c ****  */
  44:drivers/rc_adc/rc_adc.c **** void rcadc_DeInit(T_RCADC_PORT *ls_Port)
  45:drivers/rc_adc/rc_adc.c **** {
  98              		.loc 1 45 0
  99              		.cfi_startproc
 100              		@ args = 0, pretend = 0, frame = 8
 101              		@ frame_needed = 1, uses_anonymous_args = 0
 102 0000 80B5     		push	{r7, lr}	@
 103              		.cfi_def_cfa_offset 8
 104              		.cfi_offset 7, -8
 105              		.cfi_offset 14, -4
 106 0002 82B0     		sub	sp, sp, #8	@,,
 107              		.cfi_def_cfa_offset 16
 108 0004 00AF     		add	r7, sp, #0	@,,
 109              		.cfi_def_cfa_register 7
 110 0006 7860     		str	r0, [r7, #4]	@ ls_Port, ls_Port
  46:drivers/rc_adc/rc_adc.c **** 	ADC_DeInit(ls_Port);
 111              		.loc 1 46 0
 112 0008 7868     		ldr	r0, [r7, #4]	@, ls_Port
 113 000a FFF7FEFF 		bl	ADC_DeInit	@
  47:drivers/rc_adc/rc_adc.c **** }
 114              		.loc 1 47 0
 115 000e 0837     		adds	r7, r7, #8	@,,
 116              		.cfi_def_cfa_offset 8
 117 0010 BD46     		mov	sp, r7	@,
 118              		.cfi_def_cfa_register 13
 119              		@ sp needed	@
 120 0012 80BD     		pop	{r7, pc}	@
 121              		.cfi_endproc
 122              	.LFE56:
 123              		.size	rcadc_DeInit, .-rcadc_DeInit
 124              		.section	.text.rcadc_ReadChannelData,"ax",%progbits
ARM GAS  C:\Users\COSMIN~1.MAR\AppData\Local\Temp\ccTJ28RH.s 			page 4


 125              		.align	2
 126              		.global	rcadc_ReadChannelData
 127              		.thumb
 128              		.thumb_func
 129              		.type	rcadc_ReadChannelData, %function
 130              	rcadc_ReadChannelData:
 131              	.LFB57:
  48:drivers/rc_adc/rc_adc.c **** 
  49:drivers/rc_adc/rc_adc.c **** /**
  50:drivers/rc_adc/rc_adc.c ****  * \brief	Reads an ADC channel
  51:drivers/rc_adc/rc_adc.c ****  * \param 	ls_Port ADC port structure
  52:drivers/rc_adc/rc_adc.c ****  * \param 	le_Channel ADC channel to read
  53:drivers/rc_adc/rc_adc.c ****  * \return 	none
  54:drivers/rc_adc/rc_adc.c ****  */
  55:drivers/rc_adc/rc_adc.c **** T_UWORD rcadc_ReadChannelData(T_RCADC_PORT *ls_Port, T_E_RCADC_CHANNEL le_Channel)
  56:drivers/rc_adc/rc_adc.c **** {
 132              		.loc 1 56 0
 133              		.cfi_startproc
 134              		@ args = 0, pretend = 0, frame = 8
 135              		@ frame_needed = 1, uses_anonymous_args = 0
 136 0000 80B5     		push	{r7, lr}	@
 137              		.cfi_def_cfa_offset 8
 138              		.cfi_offset 7, -8
 139              		.cfi_offset 14, -4
 140 0002 82B0     		sub	sp, sp, #8	@,,
 141              		.cfi_def_cfa_offset 16
 142 0004 00AF     		add	r7, sp, #0	@,,
 143              		.cfi_def_cfa_register 7
 144 0006 7860     		str	r0, [r7, #4]	@ ls_Port, ls_Port
 145 0008 0B46     		mov	r3, r1	@ tmp112, le_Channel
 146 000a FB70     		strb	r3, [r7, #3]	@ tmp113, le_Channel
  57:drivers/rc_adc/rc_adc.c **** 	return ADC_ChannelGetData(ls_Port, (T_ULONG)le_Channel);
 147              		.loc 1 57 0
 148 000c FB78     		ldrb	r3, [r7, #3]	@ zero_extendqisi2	@ tmp114, le_Channel
 149 000e 7868     		ldr	r0, [r7, #4]	@, ls_Port
 150 0010 1946     		mov	r1, r3	@, tmp114
 151 0012 FFF7FEFF 		bl	ADC_ChannelGetData	@
 152 0016 0346     		mov	r3, r0	@ tmp115,
  58:drivers/rc_adc/rc_adc.c **** }
 153              		.loc 1 58 0
 154 0018 1846     		mov	r0, r3	@, <retval>
 155 001a 0837     		adds	r7, r7, #8	@,,
 156              		.cfi_def_cfa_offset 8
 157 001c BD46     		mov	sp, r7	@,
 158              		.cfi_def_cfa_register 13
 159              		@ sp needed	@
 160 001e 80BD     		pop	{r7, pc}	@
 161              		.cfi_endproc
 162              	.LFE57:
 163              		.size	rcadc_ReadChannelData, .-rcadc_ReadChannelData
 164              		.section	.text.rcadc_ReadChannelStatus,"ax",%progbits
 165              		.align	2
 166              		.global	rcadc_ReadChannelStatus
 167              		.thumb
 168              		.thumb_func
 169              		.type	rcadc_ReadChannelStatus, %function
 170              	rcadc_ReadChannelStatus:
ARM GAS  C:\Users\COSMIN~1.MAR\AppData\Local\Temp\ccTJ28RH.s 			page 5


 171              	.LFB58:
  59:drivers/rc_adc/rc_adc.c **** 
  60:drivers/rc_adc/rc_adc.c **** /**
  61:drivers/rc_adc/rc_adc.c ****  * \brief	Reads an ADC channel status
  62:drivers/rc_adc/rc_adc.c ****  * \param 	ls_Port ADC port structure
  63:drivers/rc_adc/rc_adc.c ****  * \param 	le_Channel ADC channel to read
  64:drivers/rc_adc/rc_adc.c ****  * \param 	le_StatusType Status type of the channel:
  65:drivers/rc_adc/rc_adc.c ****  * 							 - E_RCADC_STATUS_BURST
  66:drivers/rc_adc/rc_adc.c ****  * 							 - E_RCADC_STATUS_DONE
  67:drivers/rc_adc/rc_adc.c ****  * \return 	Status of the channel, based on status type
  68:drivers/rc_adc/rc_adc.c ****  */
  69:drivers/rc_adc/rc_adc.c **** T_E_RC_STATUS rcadc_ReadChannelStatus(T_RCADC_PORT *ls_Port, T_E_RCADC_CHANNEL le_Channel, T_E_RCAD
  70:drivers/rc_adc/rc_adc.c **** {
 172              		.loc 1 70 0
 173              		.cfi_startproc
 174              		@ args = 0, pretend = 0, frame = 8
 175              		@ frame_needed = 1, uses_anonymous_args = 0
 176 0000 80B5     		push	{r7, lr}	@
 177              		.cfi_def_cfa_offset 8
 178              		.cfi_offset 7, -8
 179              		.cfi_offset 14, -4
 180 0002 82B0     		sub	sp, sp, #8	@,,
 181              		.cfi_def_cfa_offset 16
 182 0004 00AF     		add	r7, sp, #0	@,,
 183              		.cfi_def_cfa_register 7
 184 0006 7860     		str	r0, [r7, #4]	@ ls_Port, ls_Port
 185 0008 0B46     		mov	r3, r1	@ tmp113, le_Channel
 186 000a FB70     		strb	r3, [r7, #3]	@ tmp114, le_Channel
 187 000c 1346     		mov	r3, r2	@ tmp116, tmp115
 188 000e BB70     		strb	r3, [r7, #2]	@ tmp116, le_StatusType
  71:drivers/rc_adc/rc_adc.c **** 	return (T_E_RC_STATUS)ADC_ChannelGetStatus(ls_Port, le_Channel, le_StatusType);
 189              		.loc 1 71 0
 190 0010 BB78     		ldrb	r3, [r7, #2]	@ zero_extendqisi2	@ D.5579, le_StatusType
 191 0012 FA78     		ldrb	r2, [r7, #3]	@ zero_extendqisi2	@ tmp117, le_Channel
 192 0014 7868     		ldr	r0, [r7, #4]	@, ls_Port
 193 0016 1146     		mov	r1, r2	@, tmp117
 194 0018 1A46     		mov	r2, r3	@, D.5579
 195 001a FFF7FEFF 		bl	ADC_ChannelGetStatus	@
 196 001e 0346     		mov	r3, r0	@ tmp118,
  72:drivers/rc_adc/rc_adc.c **** }
 197              		.loc 1 72 0
 198 0020 1846     		mov	r0, r3	@, <retval>
 199 0022 0837     		adds	r7, r7, #8	@,,
 200              		.cfi_def_cfa_offset 8
 201 0024 BD46     		mov	sp, r7	@,
 202              		.cfi_def_cfa_register 13
 203              		@ sp needed	@
 204 0026 80BD     		pop	{r7, pc}	@
 205              		.cfi_endproc
 206              	.LFE58:
 207              		.size	rcadc_ReadChannelStatus, .-rcadc_ReadChannelStatus
 208              		.section	.text.rcadc_SetBurstMode,"ax",%progbits
 209              		.align	2
 210              		.global	rcadc_SetBurstMode
 211              		.thumb
 212              		.thumb_func
 213              		.type	rcadc_SetBurstMode, %function
ARM GAS  C:\Users\COSMIN~1.MAR\AppData\Local\Temp\ccTJ28RH.s 			page 6


 214              	rcadc_SetBurstMode:
 215              	.LFB59:
  73:drivers/rc_adc/rc_adc.c **** 
  74:drivers/rc_adc/rc_adc.c **** /**
  75:drivers/rc_adc/rc_adc.c ****  * \brief	Enable/Disable ADC burst mode
  76:drivers/rc_adc/rc_adc.c ****  * \param 	ls_Port ADC port structure
  77:drivers/rc_adc/rc_adc.c ****  * \param 	le_State Burst mode state to set
  78:drivers/rc_adc/rc_adc.c ****  * \return 	none
  79:drivers/rc_adc/rc_adc.c ****  */
  80:drivers/rc_adc/rc_adc.c **** void rcadc_SetBurstMode(T_RCADC_PORT *ls_Port, T_E_RC_ENABLE le_State)
  81:drivers/rc_adc/rc_adc.c **** {
 216              		.loc 1 81 0
 217              		.cfi_startproc
 218              		@ args = 0, pretend = 0, frame = 8
 219              		@ frame_needed = 1, uses_anonymous_args = 0
 220 0000 80B5     		push	{r7, lr}	@
 221              		.cfi_def_cfa_offset 8
 222              		.cfi_offset 7, -8
 223              		.cfi_offset 14, -4
 224 0002 82B0     		sub	sp, sp, #8	@,,
 225              		.cfi_def_cfa_offset 16
 226 0004 00AF     		add	r7, sp, #0	@,,
 227              		.cfi_def_cfa_register 7
 228 0006 7860     		str	r0, [r7, #4]	@ ls_Port, ls_Port
 229 0008 0B46     		mov	r3, r1	@ tmp110, le_State
 230 000a FB70     		strb	r3, [r7, #3]	@ tmp111, le_State
  82:drivers/rc_adc/rc_adc.c **** 	 ADC_BurstCmd(ls_Port, le_State);
 231              		.loc 1 82 0
 232 000c FB78     		ldrb	r3, [r7, #3]	@ zero_extendqisi2	@ tmp112, le_State
 233 000e 7868     		ldr	r0, [r7, #4]	@, ls_Port
 234 0010 1946     		mov	r1, r3	@, tmp112
 235 0012 FFF7FEFF 		bl	ADC_BurstCmd	@
  83:drivers/rc_adc/rc_adc.c **** }
 236              		.loc 1 83 0
 237 0016 0837     		adds	r7, r7, #8	@,,
 238              		.cfi_def_cfa_offset 8
 239 0018 BD46     		mov	sp, r7	@,
 240              		.cfi_def_cfa_register 13
 241              		@ sp needed	@
 242 001a 80BD     		pop	{r7, pc}	@
 243              		.cfi_endproc
 244              	.LFE59:
 245              		.size	rcadc_SetBurstMode, .-rcadc_SetBurstMode
 246              		.section	.text.rcadc_SetStartMode,"ax",%progbits
 247              		.align	2
 248              		.global	rcadc_SetStartMode
 249              		.thumb
 250              		.thumb_func
 251              		.type	rcadc_SetStartMode, %function
 252              	rcadc_SetStartMode:
 253              	.LFB60:
  84:drivers/rc_adc/rc_adc.c **** 
  85:drivers/rc_adc/rc_adc.c **** /**
  86:drivers/rc_adc/rc_adc.c ****  * \brief	Sets ADC start mode
  87:drivers/rc_adc/rc_adc.c ****  * \param 	ls_Port ADC port structure
  88:drivers/rc_adc/rc_adc.c ****  * \param 	le_Mode Start mode
  89:drivers/rc_adc/rc_adc.c ****  * \return 	none
ARM GAS  C:\Users\COSMIN~1.MAR\AppData\Local\Temp\ccTJ28RH.s 			page 7


  90:drivers/rc_adc/rc_adc.c ****  */
  91:drivers/rc_adc/rc_adc.c **** void rcadc_SetStartMode(T_RCADC_PORT *ls_Port, T_E_RCADC_START_MODE le_Mode)
  92:drivers/rc_adc/rc_adc.c **** {
 254              		.loc 1 92 0
 255              		.cfi_startproc
 256              		@ args = 0, pretend = 0, frame = 8
 257              		@ frame_needed = 1, uses_anonymous_args = 0
 258 0000 80B5     		push	{r7, lr}	@
 259              		.cfi_def_cfa_offset 8
 260              		.cfi_offset 7, -8
 261              		.cfi_offset 14, -4
 262 0002 82B0     		sub	sp, sp, #8	@,,
 263              		.cfi_def_cfa_offset 16
 264 0004 00AF     		add	r7, sp, #0	@,,
 265              		.cfi_def_cfa_register 7
 266 0006 7860     		str	r0, [r7, #4]	@ ls_Port, ls_Port
 267 0008 0B46     		mov	r3, r1	@ tmp110, le_Mode
 268 000a FB70     		strb	r3, [r7, #3]	@ tmp111, le_Mode
  93:drivers/rc_adc/rc_adc.c **** 	ADC_StartCmd(ls_Port, le_Mode);
 269              		.loc 1 93 0
 270 000c FB78     		ldrb	r3, [r7, #3]	@ zero_extendqisi2	@ tmp112, le_Mode
 271 000e 7868     		ldr	r0, [r7, #4]	@, ls_Port
 272 0010 1946     		mov	r1, r3	@, tmp112
 273 0012 FFF7FEFF 		bl	ADC_StartCmd	@
  94:drivers/rc_adc/rc_adc.c **** }
 274              		.loc 1 94 0
 275 0016 0837     		adds	r7, r7, #8	@,,
 276              		.cfi_def_cfa_offset 8
 277 0018 BD46     		mov	sp, r7	@,
 278              		.cfi_def_cfa_register 13
 279              		@ sp needed	@
 280 001a 80BD     		pop	{r7, pc}	@
 281              		.cfi_endproc
 282              	.LFE60:
 283              		.size	rcadc_SetStartMode, .-rcadc_SetStartMode
 284              		.section	.text.rcadc_SetInterruptState,"ax",%progbits
 285              		.align	2
 286              		.global	rcadc_SetInterruptState
 287              		.thumb
 288              		.thumb_func
 289              		.type	rcadc_SetInterruptState, %function
 290              	rcadc_SetInterruptState:
 291              	.LFB61:
  95:drivers/rc_adc/rc_adc.c **** 
  96:drivers/rc_adc/rc_adc.c **** /**
  97:drivers/rc_adc/rc_adc.c ****  * \brief	Sets an ADC interrupt state
  98:drivers/rc_adc/rc_adc.c ****  * \param 	ls_Port ADC port structure
  99:drivers/rc_adc/rc_adc.c ****  * \param 	le_IRQType Interrupt type
 100:drivers/rc_adc/rc_adc.c ****  * \param 	le_State Interrupt state
 101:drivers/rc_adc/rc_adc.c ****  * \return 	none
 102:drivers/rc_adc/rc_adc.c ****  */
 103:drivers/rc_adc/rc_adc.c **** void rcadc_SetInterruptState(T_RCADC_PORT *ls_Port, T_E_RCADC_IRQTYPE le_IRQType, T_E_RC_ENABLE le_
 104:drivers/rc_adc/rc_adc.c **** {
 292              		.loc 1 104 0
 293              		.cfi_startproc
 294              		@ args = 0, pretend = 0, frame = 8
 295              		@ frame_needed = 1, uses_anonymous_args = 0
ARM GAS  C:\Users\COSMIN~1.MAR\AppData\Local\Temp\ccTJ28RH.s 			page 8


 296 0000 80B5     		push	{r7, lr}	@
 297              		.cfi_def_cfa_offset 8
 298              		.cfi_offset 7, -8
 299              		.cfi_offset 14, -4
 300 0002 82B0     		sub	sp, sp, #8	@,,
 301              		.cfi_def_cfa_offset 16
 302 0004 00AF     		add	r7, sp, #0	@,,
 303              		.cfi_def_cfa_register 7
 304 0006 7860     		str	r0, [r7, #4]	@ ls_Port, ls_Port
 305 0008 0B46     		mov	r3, r1	@ tmp110, le_IRQType
 306 000a FB70     		strb	r3, [r7, #3]	@ tmp111, le_IRQType
 307 000c 1346     		mov	r3, r2	@ tmp113, tmp112
 308 000e BB70     		strb	r3, [r7, #2]	@ tmp113, le_State
 105:drivers/rc_adc/rc_adc.c **** 	ADC_IntConfig(ls_Port, le_IRQType, le_State);
 309              		.loc 1 105 0
 310 0010 FA78     		ldrb	r2, [r7, #3]	@ zero_extendqisi2	@ tmp114, le_IRQType
 311 0012 BB78     		ldrb	r3, [r7, #2]	@ zero_extendqisi2	@ tmp115, le_State
 312 0014 7868     		ldr	r0, [r7, #4]	@, ls_Port
 313 0016 1146     		mov	r1, r2	@, tmp114
 314 0018 1A46     		mov	r2, r3	@, tmp115
 315 001a FFF7FEFF 		bl	ADC_IntConfig	@
 106:drivers/rc_adc/rc_adc.c **** }
 316              		.loc 1 106 0
 317 001e 0837     		adds	r7, r7, #8	@,,
 318              		.cfi_def_cfa_offset 8
 319 0020 BD46     		mov	sp, r7	@,
 320              		.cfi_def_cfa_register 13
 321              		@ sp needed	@
 322 0022 80BD     		pop	{r7, pc}	@
 323              		.cfi_endproc
 324              	.LFE61:
 325              		.size	rcadc_SetInterruptState, .-rcadc_SetInterruptState
 326              		.section	.text.rcadc_SetChannelState,"ax",%progbits
 327              		.align	2
 328              		.global	rcadc_SetChannelState
 329              		.thumb
 330              		.thumb_func
 331              		.type	rcadc_SetChannelState, %function
 332              	rcadc_SetChannelState:
 333              	.LFB62:
 107:drivers/rc_adc/rc_adc.c **** 
 108:drivers/rc_adc/rc_adc.c **** /**
 109:drivers/rc_adc/rc_adc.c ****  * \brief	Sets an ADC channel state
 110:drivers/rc_adc/rc_adc.c ****  * \param 	ls_Port ADC port structure
 111:drivers/rc_adc/rc_adc.c ****  * \param 	le_Channel Channel number
 112:drivers/rc_adc/rc_adc.c ****  * \param 	le_State Channel state
 113:drivers/rc_adc/rc_adc.c ****  * \return 	none
 114:drivers/rc_adc/rc_adc.c ****  */
 115:drivers/rc_adc/rc_adc.c **** void rcadc_SetChannelState(T_RCADC_PORT *ls_Port, T_E_RCADC_CHANNEL le_Channel, T_E_RC_ENABLE le_St
 116:drivers/rc_adc/rc_adc.c **** {
 334              		.loc 1 116 0
 335              		.cfi_startproc
 336              		@ args = 0, pretend = 0, frame = 8
 337              		@ frame_needed = 1, uses_anonymous_args = 0
 338 0000 80B5     		push	{r7, lr}	@
 339              		.cfi_def_cfa_offset 8
 340              		.cfi_offset 7, -8
ARM GAS  C:\Users\COSMIN~1.MAR\AppData\Local\Temp\ccTJ28RH.s 			page 9


 341              		.cfi_offset 14, -4
 342 0002 82B0     		sub	sp, sp, #8	@,,
 343              		.cfi_def_cfa_offset 16
 344 0004 00AF     		add	r7, sp, #0	@,,
 345              		.cfi_def_cfa_register 7
 346 0006 7860     		str	r0, [r7, #4]	@ ls_Port, ls_Port
 347 0008 0B46     		mov	r3, r1	@ tmp110, le_Channel
 348 000a FB70     		strb	r3, [r7, #3]	@ tmp111, le_Channel
 349 000c 1346     		mov	r3, r2	@ tmp113, tmp112
 350 000e BB70     		strb	r3, [r7, #2]	@ tmp113, le_State
 117:drivers/rc_adc/rc_adc.c **** 	ADC_ChannelCmd(ls_Port, le_Channel, le_State);
 351              		.loc 1 117 0
 352 0010 FA78     		ldrb	r2, [r7, #3]	@ zero_extendqisi2	@ tmp114, le_Channel
 353 0012 BB78     		ldrb	r3, [r7, #2]	@ zero_extendqisi2	@ tmp115, le_State
 354 0014 7868     		ldr	r0, [r7, #4]	@, ls_Port
 355 0016 1146     		mov	r1, r2	@, tmp114
 356 0018 1A46     		mov	r2, r3	@, tmp115
 357 001a FFF7FEFF 		bl	ADC_ChannelCmd	@
 118:drivers/rc_adc/rc_adc.c **** }
 358              		.loc 1 118 0
 359 001e 0837     		adds	r7, r7, #8	@,,
 360              		.cfi_def_cfa_offset 8
 361 0020 BD46     		mov	sp, r7	@,
 362              		.cfi_def_cfa_register 13
 363              		@ sp needed	@
 364 0022 80BD     		pop	{r7, pc}	@
 365              		.cfi_endproc
 366              	.LFE62:
 367              		.size	rcadc_SetChannelState, .-rcadc_SetChannelState
 368              		.section	.text.rcadc_SetEdgeStart,"ax",%progbits
 369              		.align	2
 370              		.global	rcadc_SetEdgeStart
 371              		.thumb
 372              		.thumb_func
 373              		.type	rcadc_SetEdgeStart, %function
 374              	rcadc_SetEdgeStart:
 375              	.LFB63:
 119:drivers/rc_adc/rc_adc.c **** 
 120:drivers/rc_adc/rc_adc.c **** /**
 121:drivers/rc_adc/rc_adc.c ****  * \brief	Configures ADC edge start
 122:drivers/rc_adc/rc_adc.c ****  * \param 	ls_Port ADC port structure
 123:drivers/rc_adc/rc_adc.c ****  * \param 	le_Edge Edge mode:
 124:drivers/rc_adc/rc_adc.c ****  * 					- E_RCADC_EDGE_START_RISING
 125:drivers/rc_adc/rc_adc.c ****  * 					- E_RCADC_EDGE_START_FALLING
 126:drivers/rc_adc/rc_adc.c ****  * \return 	none
 127:drivers/rc_adc/rc_adc.c ****  */
 128:drivers/rc_adc/rc_adc.c **** void rcadc_SetEdgeStart(T_RCADC_PORT *ls_Port, T_E_RCADC_EDGE_START le_Edge)
 129:drivers/rc_adc/rc_adc.c **** {
 376              		.loc 1 129 0
 377              		.cfi_startproc
 378              		@ args = 0, pretend = 0, frame = 8
 379              		@ frame_needed = 1, uses_anonymous_args = 0
 380 0000 80B5     		push	{r7, lr}	@
 381              		.cfi_def_cfa_offset 8
 382              		.cfi_offset 7, -8
 383              		.cfi_offset 14, -4
 384 0002 82B0     		sub	sp, sp, #8	@,,
ARM GAS  C:\Users\COSMIN~1.MAR\AppData\Local\Temp\ccTJ28RH.s 			page 10


 385              		.cfi_def_cfa_offset 16
 386 0004 00AF     		add	r7, sp, #0	@,,
 387              		.cfi_def_cfa_register 7
 388 0006 7860     		str	r0, [r7, #4]	@ ls_Port, ls_Port
 389 0008 0B46     		mov	r3, r1	@ tmp110, le_Edge
 390 000a FB70     		strb	r3, [r7, #3]	@ tmp111, le_Edge
 130:drivers/rc_adc/rc_adc.c **** 	ADC_EdgeStartConfig(ls_Port, le_Edge);
 391              		.loc 1 130 0
 392 000c FB78     		ldrb	r3, [r7, #3]	@ zero_extendqisi2	@ tmp112, le_Edge
 393 000e 7868     		ldr	r0, [r7, #4]	@, ls_Port
 394 0010 1946     		mov	r1, r3	@, tmp112
 395 0012 FFF7FEFF 		bl	ADC_EdgeStartConfig	@
 131:drivers/rc_adc/rc_adc.c **** }
 396              		.loc 1 131 0
 397 0016 0837     		adds	r7, r7, #8	@,,
 398              		.cfi_def_cfa_offset 8
 399 0018 BD46     		mov	sp, r7	@,
 400              		.cfi_def_cfa_register 13
 401              		@ sp needed	@
 402 001a 80BD     		pop	{r7, pc}	@
 403              		.cfi_endproc
 404              	.LFE63:
 405              		.size	rcadc_SetEdgeStart, .-rcadc_SetEdgeStart
 406              		.text
 407              	.Letext0:
 408              		.file 2 "c:\\gnu tools arm embedded\\4.9 2015q1\\arm-none-eabi\\include\\machine\\_default_types.h
 409              		.file 3 "c:\\gnu tools arm embedded\\4.9 2015q1\\arm-none-eabi\\include\\stdint.h"
 410              		.file 4 "system/LPC17xx.h"
 411              		.file 5 "config/rc_stdtypedefs.h"
 412              		.file 6 "drivers/rc_adc/rc_adc.h"
 413              		.file 7 "system/core_cm3.h"