ARM GAS  C:\Users\COSMIN~1.MAR\AppData\Local\Temp\ccJxaxHo.s 			page 1


   1              		.syntax unified
   2              		.cpu cortex-m3
   3              		.fpu softvfp
   4              		.eabi_attribute 20, 1	@ Tag_ABI_FP_denormal
   5              		.eabi_attribute 21, 1	@ Tag_ABI_FP_exceptions
   6              		.eabi_attribute 23, 3	@ Tag_ABI_FP_number_model
   7              		.eabi_attribute 24, 1	@ Tag_ABI_align8_needed
   8              		.eabi_attribute 25, 1	@ Tag_ABI_align8_preserved
   9              		.eabi_attribute 26, 1	@ Tag_ABI_enum_size
  10              		.eabi_attribute 30, 6	@ Tag_ABI_optimization_goals
  11              		.eabi_attribute 34, 1	@ Tag_CPU_unaligned_access
  12              		.eabi_attribute 18, 4	@ Tag_ABI_PCS_wchar_t
  13              		.file	"rc_gpio.c"
  14              	@ GNU C (GNU Tools for ARM Embedded Processors) version 4.9.3 20150303 (release) [ARM/embedded-4_9-
  15              	@	compiled by GNU C version 4.7.4, GMP version 4.3.2, MPFR version 2.4.2, MPC version 0.8.1
  16              	@ GGC heuristics: --param ggc-min-expand=100 --param ggc-min-heapsize=131072
  17              	@ options passed:  -I . -I config -I system -I core -I drivers -I FreeRTOS
  18              	@ -I FreeRTOS/include -I FreeRTOS/portable/GCC/ARM_CM3 -I FreeRTOS/portable
  19              	@ -I tasks/rc_task_leds -I tasks/rc_task_pot -I modules/rc_leds
  20              	@ -I modules/rc_pot -I drivers/rc_system -I drivers/rc_gpio
  21              	@ -I drivers/rc_uart -I drivers/rc_pinsel -I drivers/rc_timer
  22              	@ -I drivers/rc_adc -imultilib armv7-m
  23              	@ -iprefix c:\gnu tools arm embedded\4.9 2015q1\bin\../lib/gcc/arm-none-eabi/4.9.3/
  24              	@ -isysroot c:\gnu tools arm embedded\4.9 2015q1\bin\../arm-none-eabi
  25              	@ -MD out/rc_gpio.d -MF out/rc_gpio.d -MP -MQ out/rc_gpio.o
  26              	@ -D__USES_INITFINI__ drivers/rc_gpio/rc_gpio.c -mcpu=cortex-m3 -mthumb
  27              	@ -auxbase-strip out/rc_gpio.o -g -ggdb3 -O0 -Wall -Wstrict-prototypes
  28              	@ -Wextra -std=gnu90 -ffunction-sections -fdata-sections -fverbose-asm
  29              	@ options enabled:  -faggressive-loop-optimizations -fauto-inc-dec -fcommon
  30              	@ -fdata-sections -fdelete-null-pointer-checks -fdwarf2-cfi-asm
  31              	@ -fearly-inlining -feliminate-unused-debug-types -ffunction-cse
  32              	@ -ffunction-sections -fgcse-lm -fgnu-runtime -fgnu-unique -fident
  33              	@ -finline-atomics -fira-hoist-pressure -fira-share-save-slots
  34              	@ -fira-share-spill-slots -fivopts -fkeep-static-consts
  35              	@ -fleading-underscore -flifetime-dse -fmath-errno -fmerge-debug-strings
  36              	@ -fpeephole -fprefetch-loop-arrays -freg-struct-return
  37              	@ -fsched-critical-path-heuristic -fsched-dep-count-heuristic
  38              	@ -fsched-group-heuristic -fsched-interblock -fsched-last-insn-heuristic
  39              	@ -fsched-rank-heuristic -fsched-spec -fsched-spec-insn-heuristic
  40              	@ -fsched-stalled-insns-dep -fshow-column -fsigned-zeros
  41              	@ -fsplit-ivs-in-unroller -fstrict-volatile-bitfields -fsync-libcalls
  42              	@ -ftrapping-math -ftree-coalesce-vars -ftree-cselim -ftree-forwprop
  43              	@ -ftree-loop-if-convert -ftree-loop-im -ftree-loop-ivcanon
  44              	@ -ftree-loop-optimize -ftree-parallelize-loops= -ftree-phiprop
  45              	@ -ftree-reassoc -ftree-scev-cprop -funit-at-a-time -fverbose-asm
  46              	@ -fzero-initialized-in-bss -mfix-cortex-m3-ldrd -mlittle-endian -mlra
  47              	@ -mpic-data-is-text-relative -msched-prolog -mthumb -munaligned-access
  48              	@ -mvectorize-with-neon-quad
  49              	
  50              		.text
  51              	.Ltext0:
  52              		.cfi_sections	.debug_frame
  53              		.section	.text.rcgpio_SetPin,"ax",%progbits
  54              		.align	2
  55              		.global	rcgpio_SetPin
  56              		.thumb
  57              		.thumb_func
ARM GAS  C:\Users\COSMIN~1.MAR\AppData\Local\Temp\ccJxaxHo.s 			page 2


  58              		.type	rcgpio_SetPin, %function
  59              	rcgpio_SetPin:
  60              	.LFB55:
  61              		.file 1 "drivers/rc_gpio/rc_gpio.c"
   1:drivers/rc_gpio/rc_gpio.c **** /**
   2:drivers/rc_gpio/rc_gpio.c ****  * \file	rc_gpio.c
   3:drivers/rc_gpio/rc_gpio.c ****  * \brief	Implements the interface functions with the GPIO peripheral
   4:drivers/rc_gpio/rc_gpio.c ****  * \details	Implements the functions which communicate directly with the
   5:drivers/rc_gpio/rc_gpio.c ****  * 			GPIO peripheral.
   6:drivers/rc_gpio/rc_gpio.c ****  * \author	Cosmin Marcu
   7:drivers/rc_gpio/rc_gpio.c ****  * \date	29.05.2015
   8:drivers/rc_gpio/rc_gpio.c ****  * \version 1.0.1
   9:drivers/rc_gpio/rc_gpio.c ****  */
  10:drivers/rc_gpio/rc_gpio.c **** 
  11:drivers/rc_gpio/rc_gpio.c **** /* Includes */
  12:drivers/rc_gpio/rc_gpio.c **** #include "rc_gpio.h"
  13:drivers/rc_gpio/rc_gpio.c **** 
  14:drivers/rc_gpio/rc_gpio.c **** /* Begin functions implementation */
  15:drivers/rc_gpio/rc_gpio.c **** 
  16:drivers/rc_gpio/rc_gpio.c **** /** \defgroup rc_gpio GPIO driver
  17:drivers/rc_gpio/rc_gpio.c ****   Contains the functions to set and access GPIO peripheral
  18:drivers/rc_gpio/rc_gpio.c **** */
  19:drivers/rc_gpio/rc_gpio.c **** 
  20:drivers/rc_gpio/rc_gpio.c **** /**
  21:drivers/rc_gpio/rc_gpio.c ****  * \ingroup  rc_gpio
  22:drivers/rc_gpio/rc_gpio.c ****  * \defgroup gpio_functions GPIO Functions
  23:drivers/rc_gpio/rc_gpio.c ****  *  Functions definitions for the GPIO setup
  24:drivers/rc_gpio/rc_gpio.c ****  *  @{
  25:drivers/rc_gpio/rc_gpio.c ****  */
  26:drivers/rc_gpio/rc_gpio.c **** /* GPIO Functions Group: */
  27:drivers/rc_gpio/rc_gpio.c **** /**
  28:drivers/rc_gpio/rc_gpio.c ****  * \brief 	Sets a GPIO pin state to HIGH.
  29:drivers/rc_gpio/rc_gpio.c ****  * \param 	lub_Port	GPIO port number
  30:drivers/rc_gpio/rc_gpio.c ****  * \param 	lub_Pin	GPIO pin number
  31:drivers/rc_gpio/rc_gpio.c ****  * \return 	none
  32:drivers/rc_gpio/rc_gpio.c ****  */
  33:drivers/rc_gpio/rc_gpio.c **** void rcgpio_SetPin(T_UBYTE lub_Port, T_UBYTE lub_Pin)
  34:drivers/rc_gpio/rc_gpio.c **** {
  62              		.loc 1 34 0
  63              		.cfi_startproc
  64              		@ args = 0, pretend = 0, frame = 8
  65              		@ frame_needed = 1, uses_anonymous_args = 0
  66 0000 80B5     		push	{r7, lr}	@
  67              		.cfi_def_cfa_offset 8
  68              		.cfi_offset 7, -8
  69              		.cfi_offset 14, -4
  70 0002 82B0     		sub	sp, sp, #8	@,,
  71              		.cfi_def_cfa_offset 16
  72 0004 00AF     		add	r7, sp, #0	@,,
  73              		.cfi_def_cfa_register 7
  74 0006 0346     		mov	r3, r0	@ tmp113, lub_Port
  75 0008 0A46     		mov	r2, r1	@ tmp115, lub_Pin
  76 000a FB71     		strb	r3, [r7, #7]	@ tmp114, lub_Port
  77 000c 1346     		mov	r3, r2	@ tmp116, tmp115
  78 000e BB71     		strb	r3, [r7, #6]	@ tmp116, lub_Pin
  35:drivers/rc_gpio/rc_gpio.c **** 	GPIO_SetValue((T_ULONG)lub_Port,RCGPIO_PINMASK(lub_Pin));
  79              		.loc 1 35 0
ARM GAS  C:\Users\COSMIN~1.MAR\AppData\Local\Temp\ccJxaxHo.s 			page 3


  80 0010 BB79     		ldrb	r3, [r7, #6]	@ zero_extendqisi2	@ D.5576, lub_Pin
  81 0012 0122     		movs	r2, #1	@ tmp117,
  82 0014 02FA03F3 		lsl	r3, r2, r3	@ D.5576, tmp117, D.5576
  83 0018 1A46     		mov	r2, r3	@ D.5577, D.5576
  84 001a FB79     		ldrb	r3, [r7, #7]	@ zero_extendqisi2	@ tmp118, lub_Port
  85 001c 1846     		mov	r0, r3	@, tmp118
  86 001e 1146     		mov	r1, r2	@, D.5577
  87 0020 FFF7FEFF 		bl	GPIO_SetValue	@
  36:drivers/rc_gpio/rc_gpio.c **** }
  88              		.loc 1 36 0
  89 0024 0837     		adds	r7, r7, #8	@,,
  90              		.cfi_def_cfa_offset 8
  91 0026 BD46     		mov	sp, r7	@,
  92              		.cfi_def_cfa_register 13
  93              		@ sp needed	@
  94 0028 80BD     		pop	{r7, pc}	@
  95              		.cfi_endproc
  96              	.LFE55:
  97              		.size	rcgpio_SetPin, .-rcgpio_SetPin
  98 002a 00BF     		.section	.text.rcgpio_ClearPin,"ax",%progbits
  99              		.align	2
 100              		.global	rcgpio_ClearPin
 101              		.thumb
 102              		.thumb_func
 103              		.type	rcgpio_ClearPin, %function
 104              	rcgpio_ClearPin:
 105              	.LFB56:
  37:drivers/rc_gpio/rc_gpio.c **** 
  38:drivers/rc_gpio/rc_gpio.c **** /**
  39:drivers/rc_gpio/rc_gpio.c ****  * \brief 	Sets a GPIO pin state to LOW.
  40:drivers/rc_gpio/rc_gpio.c ****  * \param 	lub_Port GPIO port number
  41:drivers/rc_gpio/rc_gpio.c ****  * \param 	lub_Pin	GPIO pin number
  42:drivers/rc_gpio/rc_gpio.c ****  * \return	none
  43:drivers/rc_gpio/rc_gpio.c ****  */
  44:drivers/rc_gpio/rc_gpio.c **** void rcgpio_ClearPin(T_UBYTE lub_Port, T_UBYTE lub_Pin)
  45:drivers/rc_gpio/rc_gpio.c **** {
 106              		.loc 1 45 0
 107              		.cfi_startproc
 108              		@ args = 0, pretend = 0, frame = 8
 109              		@ frame_needed = 1, uses_anonymous_args = 0
 110 0000 80B5     		push	{r7, lr}	@
 111              		.cfi_def_cfa_offset 8
 112              		.cfi_offset 7, -8
 113              		.cfi_offset 14, -4
 114 0002 82B0     		sub	sp, sp, #8	@,,
 115              		.cfi_def_cfa_offset 16
 116 0004 00AF     		add	r7, sp, #0	@,,
 117              		.cfi_def_cfa_register 7
 118 0006 0346     		mov	r3, r0	@ tmp113, lub_Port
 119 0008 0A46     		mov	r2, r1	@ tmp115, lub_Pin
 120 000a FB71     		strb	r3, [r7, #7]	@ tmp114, lub_Port
 121 000c 1346     		mov	r3, r2	@ tmp116, tmp115
 122 000e BB71     		strb	r3, [r7, #6]	@ tmp116, lub_Pin
  46:drivers/rc_gpio/rc_gpio.c **** 	GPIO_ClearValue((T_ULONG)lub_Port,RCGPIO_PINMASK(lub_Pin));
 123              		.loc 1 46 0
 124 0010 BB79     		ldrb	r3, [r7, #6]	@ zero_extendqisi2	@ D.5578, lub_Pin
 125 0012 0122     		movs	r2, #1	@ tmp117,
ARM GAS  C:\Users\COSMIN~1.MAR\AppData\Local\Temp\ccJxaxHo.s 			page 4


 126 0014 02FA03F3 		lsl	r3, r2, r3	@ D.5578, tmp117, D.5578
 127 0018 1A46     		mov	r2, r3	@ D.5579, D.5578
 128 001a FB79     		ldrb	r3, [r7, #7]	@ zero_extendqisi2	@ tmp118, lub_Port
 129 001c 1846     		mov	r0, r3	@, tmp118
 130 001e 1146     		mov	r1, r2	@, D.5579
 131 0020 FFF7FEFF 		bl	GPIO_ClearValue	@
  47:drivers/rc_gpio/rc_gpio.c **** }
 132              		.loc 1 47 0
 133 0024 0837     		adds	r7, r7, #8	@,,
 134              		.cfi_def_cfa_offset 8
 135 0026 BD46     		mov	sp, r7	@,
 136              		.cfi_def_cfa_register 13
 137              		@ sp needed	@
 138 0028 80BD     		pop	{r7, pc}	@
 139              		.cfi_endproc
 140              	.LFE56:
 141              		.size	rcgpio_ClearPin, .-rcgpio_ClearPin
 142 002a 00BF     		.section	.text.rcgpio_ReadPin,"ax",%progbits
 143              		.align	2
 144              		.global	rcgpio_ReadPin
 145              		.thumb
 146              		.thumb_func
 147              		.type	rcgpio_ReadPin, %function
 148              	rcgpio_ReadPin:
 149              	.LFB57:
  48:drivers/rc_gpio/rc_gpio.c **** 
  49:drivers/rc_gpio/rc_gpio.c **** /**
  50:drivers/rc_gpio/rc_gpio.c ****  * \brief 	Reads a GPIO pin state.
  51:drivers/rc_gpio/rc_gpio.c ****  * \param 	lub_Port GPIO port number
  52:drivers/rc_gpio/rc_gpio.c ****  * \param 	lub_Pin	GPIO pin number
  53:drivers/rc_gpio/rc_gpio.c ****  * \return	pin state
  54:drivers/rc_gpio/rc_gpio.c ****  */
  55:drivers/rc_gpio/rc_gpio.c **** T_E_RC_SIGNAL_STATE rcgpio_ReadPin(T_UBYTE lub_Port, T_UBYTE lub_Pin)
  56:drivers/rc_gpio/rc_gpio.c **** {
 150              		.loc 1 56 0
 151              		.cfi_startproc
 152              		@ args = 0, pretend = 0, frame = 16
 153              		@ frame_needed = 1, uses_anonymous_args = 0
 154 0000 80B5     		push	{r7, lr}	@
 155              		.cfi_def_cfa_offset 8
 156              		.cfi_offset 7, -8
 157              		.cfi_offset 14, -4
 158 0002 84B0     		sub	sp, sp, #16	@,,
 159              		.cfi_def_cfa_offset 24
 160 0004 00AF     		add	r7, sp, #0	@,,
 161              		.cfi_def_cfa_register 7
 162 0006 0346     		mov	r3, r0	@ tmp116, lub_Port
 163 0008 0A46     		mov	r2, r1	@ tmp118, lub_Pin
 164 000a FB71     		strb	r3, [r7, #7]	@ tmp117, lub_Port
 165 000c 1346     		mov	r3, r2	@ tmp119, tmp118
 166 000e BB71     		strb	r3, [r7, #6]	@ tmp119, lub_Pin
  57:drivers/rc_gpio/rc_gpio.c **** 	T_E_RC_SIGNAL_STATE le_PinState = E_RC_OFF;
 167              		.loc 1 57 0
 168 0010 0023     		movs	r3, #0	@ tmp120,
 169 0012 FB73     		strb	r3, [r7, #15]	@ tmp121, le_PinState
  58:drivers/rc_gpio/rc_gpio.c **** 	/* Read port value */
  59:drivers/rc_gpio/rc_gpio.c **** 	T_ULONG lul_PortValue = GPIO_ReadValue(lub_Port);
ARM GAS  C:\Users\COSMIN~1.MAR\AppData\Local\Temp\ccJxaxHo.s 			page 5


 170              		.loc 1 59 0
 171 0014 FB79     		ldrb	r3, [r7, #7]	@ zero_extendqisi2	@ tmp122, lub_Port
 172 0016 1846     		mov	r0, r3	@, tmp122
 173 0018 FFF7FEFF 		bl	GPIO_ReadValue	@
 174 001c B860     		str	r0, [r7, #8]	@, lul_PortValue
  60:drivers/rc_gpio/rc_gpio.c **** 	/* Check if pin is ON */
  61:drivers/rc_gpio/rc_gpio.c **** 	if(lul_PortValue & (1<<lub_Pin))
 175              		.loc 1 61 0
 176 001e BB79     		ldrb	r3, [r7, #6]	@ zero_extendqisi2	@ D.5580, lub_Pin
 177 0020 0122     		movs	r2, #1	@ tmp123,
 178 0022 02FA03F3 		lsl	r3, r2, r3	@ D.5580, tmp123, D.5580
 179 0026 1A46     		mov	r2, r3	@ D.5581, D.5580
 180 0028 BB68     		ldr	r3, [r7, #8]	@ tmp124, lul_PortValue
 181 002a 1340     		ands	r3, r3, r2	@, D.5581, tmp124, D.5581
 182 002c 002B     		cmp	r3, #0	@ D.5581,
 183 002e 01D0     		beq	.L4	@,
  62:drivers/rc_gpio/rc_gpio.c **** 	{
  63:drivers/rc_gpio/rc_gpio.c **** 		le_PinState = E_RC_ON;
 184              		.loc 1 63 0
 185 0030 0123     		movs	r3, #1	@ tmp125,
 186 0032 FB73     		strb	r3, [r7, #15]	@ tmp126, le_PinState
 187              	.L4:
  64:drivers/rc_gpio/rc_gpio.c **** 	}
  65:drivers/rc_gpio/rc_gpio.c **** 	return le_PinState;
 188              		.loc 1 65 0
 189 0034 FB7B     		ldrb	r3, [r7, #15]	@ zero_extendqisi2	@ D.5582, le_PinState
  66:drivers/rc_gpio/rc_gpio.c **** }
 190              		.loc 1 66 0
 191 0036 1846     		mov	r0, r3	@, <retval>
 192 0038 1037     		adds	r7, r7, #16	@,,
 193              		.cfi_def_cfa_offset 8
 194 003a BD46     		mov	sp, r7	@,
 195              		.cfi_def_cfa_register 13
 196              		@ sp needed	@
 197 003c 80BD     		pop	{r7, pc}	@
 198              		.cfi_endproc
 199              	.LFE57:
 200              		.size	rcgpio_ReadPin, .-rcgpio_ReadPin
 201 003e 00BF     		.section	.text.rcgpio_SwapPin,"ax",%progbits
 202              		.align	2
 203              		.global	rcgpio_SwapPin
 204              		.thumb
 205              		.thumb_func
 206              		.type	rcgpio_SwapPin, %function
 207              	rcgpio_SwapPin:
 208              	.LFB58:
  67:drivers/rc_gpio/rc_gpio.c **** 
  68:drivers/rc_gpio/rc_gpio.c **** /**
  69:drivers/rc_gpio/rc_gpio.c ****  * \brief 	Swaps the current state of a GPIO pin.
  70:drivers/rc_gpio/rc_gpio.c ****  * 		  	If pin is OFF, swaps to ON.
  71:drivers/rc_gpio/rc_gpio.c ****  * 		  	IF pin is ON, swaps to OFF.
  72:drivers/rc_gpio/rc_gpio.c ****  * \param 	lub_Port GPIO port number
  73:drivers/rc_gpio/rc_gpio.c ****  * \param 	lub_Pin	GPIO pin number
  74:drivers/rc_gpio/rc_gpio.c ****  * \return 	none
  75:drivers/rc_gpio/rc_gpio.c ****  */
  76:drivers/rc_gpio/rc_gpio.c **** void rcgpio_SwapPin(T_UBYTE lub_Port, T_UBYTE lub_Pin)
  77:drivers/rc_gpio/rc_gpio.c **** {
ARM GAS  C:\Users\COSMIN~1.MAR\AppData\Local\Temp\ccJxaxHo.s 			page 6


 209              		.loc 1 77 0
 210              		.cfi_startproc
 211              		@ args = 0, pretend = 0, frame = 16
 212              		@ frame_needed = 1, uses_anonymous_args = 0
 213 0000 80B5     		push	{r7, lr}	@
 214              		.cfi_def_cfa_offset 8
 215              		.cfi_offset 7, -8
 216              		.cfi_offset 14, -4
 217 0002 84B0     		sub	sp, sp, #16	@,,
 218              		.cfi_def_cfa_offset 24
 219 0004 00AF     		add	r7, sp, #0	@,,
 220              		.cfi_def_cfa_register 7
 221 0006 0346     		mov	r3, r0	@ tmp110, lub_Port
 222 0008 0A46     		mov	r2, r1	@ tmp112, lub_Pin
 223 000a FB71     		strb	r3, [r7, #7]	@ tmp111, lub_Port
 224 000c 1346     		mov	r3, r2	@ tmp113, tmp112
 225 000e BB71     		strb	r3, [r7, #6]	@ tmp113, lub_Pin
  78:drivers/rc_gpio/rc_gpio.c **** 	/* Read current pin state */
  79:drivers/rc_gpio/rc_gpio.c **** 	T_E_RC_SIGNAL_STATE le_pinState = rcgpio_ReadPin(lub_Port, lub_Pin);
 226              		.loc 1 79 0
 227 0010 FA79     		ldrb	r2, [r7, #7]	@ zero_extendqisi2	@ tmp114, lub_Port
 228 0012 BB79     		ldrb	r3, [r7, #6]	@ zero_extendqisi2	@ tmp115, lub_Pin
 229 0014 1046     		mov	r0, r2	@, tmp114
 230 0016 1946     		mov	r1, r3	@, tmp115
 231 0018 FFF7FEFF 		bl	rcgpio_ReadPin	@
 232 001c 0346     		mov	r3, r0	@ tmp116,
 233 001e FB73     		strb	r3, [r7, #15]	@ tmp117, le_pinState
  80:drivers/rc_gpio/rc_gpio.c **** 	/* Swap pin state */
  81:drivers/rc_gpio/rc_gpio.c **** 	if (E_RC_OFF == le_pinState)
 234              		.loc 1 81 0
 235 0020 FB7B     		ldrb	r3, [r7, #15]	@ zero_extendqisi2	@ tmp118, le_pinState
 236 0022 002B     		cmp	r3, #0	@ tmp118,
 237 0024 06D1     		bne	.L7	@,
  82:drivers/rc_gpio/rc_gpio.c **** 	{
  83:drivers/rc_gpio/rc_gpio.c **** 		/* Set pin state to HIGH */
  84:drivers/rc_gpio/rc_gpio.c **** 		rcgpio_SetPin(lub_Port, lub_Pin);
 238              		.loc 1 84 0
 239 0026 FA79     		ldrb	r2, [r7, #7]	@ zero_extendqisi2	@ tmp119, lub_Port
 240 0028 BB79     		ldrb	r3, [r7, #6]	@ zero_extendqisi2	@ tmp120, lub_Pin
 241 002a 1046     		mov	r0, r2	@, tmp119
 242 002c 1946     		mov	r1, r3	@, tmp120
 243 002e FFF7FEFF 		bl	rcgpio_SetPin	@
 244 0032 05E0     		b	.L6	@
 245              	.L7:
  85:drivers/rc_gpio/rc_gpio.c **** 	}
  86:drivers/rc_gpio/rc_gpio.c **** 	else
  87:drivers/rc_gpio/rc_gpio.c **** 	{
  88:drivers/rc_gpio/rc_gpio.c **** 		/* Set pin state to LOW */
  89:drivers/rc_gpio/rc_gpio.c **** 		rcgpio_ClearPin(lub_Port, lub_Pin);
 246              		.loc 1 89 0
 247 0034 FA79     		ldrb	r2, [r7, #7]	@ zero_extendqisi2	@ tmp121, lub_Port
 248 0036 BB79     		ldrb	r3, [r7, #6]	@ zero_extendqisi2	@ tmp122, lub_Pin
 249 0038 1046     		mov	r0, r2	@, tmp121
 250 003a 1946     		mov	r1, r3	@, tmp122
 251 003c FFF7FEFF 		bl	rcgpio_ClearPin	@
 252              	.L6:
  90:drivers/rc_gpio/rc_gpio.c **** 	}
ARM GAS  C:\Users\COSMIN~1.MAR\AppData\Local\Temp\ccJxaxHo.s 			page 7


  91:drivers/rc_gpio/rc_gpio.c **** }
 253              		.loc 1 91 0
 254 0040 1037     		adds	r7, r7, #16	@,,
 255              		.cfi_def_cfa_offset 8
 256 0042 BD46     		mov	sp, r7	@,
 257              		.cfi_def_cfa_register 13
 258              		@ sp needed	@
 259 0044 80BD     		pop	{r7, pc}	@
 260              		.cfi_endproc
 261              	.LFE58:
 262              		.size	rcgpio_SwapPin, .-rcgpio_SwapPin
 263 0046 00BF     		.section	.text.rcgpio_SetDirection,"ax",%progbits
 264              		.align	2
 265              		.global	rcgpio_SetDirection
 266              		.thumb
 267              		.thumb_func
 268              		.type	rcgpio_SetDirection, %function
 269              	rcgpio_SetDirection:
 270              	.LFB59:
  92:drivers/rc_gpio/rc_gpio.c **** 
  93:drivers/rc_gpio/rc_gpio.c **** /**
  94:drivers/rc_gpio/rc_gpio.c ****  * \brief 	Sets the direction of a GPIO pin.
  95:drivers/rc_gpio/rc_gpio.c ****  * \param 	lub_Port GPIO port number
  96:drivers/rc_gpio/rc_gpio.c ****  * \param 	lub_Pin  GPIO pin number
  97:drivers/rc_gpio/rc_gpio.c ****  * \param 	le_Direction GPIO pin direction (E_RI_INPUT or E_RI_OUTPUT)
  98:drivers/rc_gpio/rc_gpio.c ****  * \return	none
  99:drivers/rc_gpio/rc_gpio.c ****  */
 100:drivers/rc_gpio/rc_gpio.c **** void rcgpio_SetDirection(T_UBYTE lub_Port, T_UBYTE lub_Pin, T_E_RC_SIGNAL_DIRECTION le_Direction)
 101:drivers/rc_gpio/rc_gpio.c **** {
 271              		.loc 1 101 0
 272              		.cfi_startproc
 273              		@ args = 0, pretend = 0, frame = 8
 274              		@ frame_needed = 1, uses_anonymous_args = 0
 275 0000 80B5     		push	{r7, lr}	@
 276              		.cfi_def_cfa_offset 8
 277              		.cfi_offset 7, -8
 278              		.cfi_offset 14, -4
 279 0002 82B0     		sub	sp, sp, #8	@,,
 280              		.cfi_def_cfa_offset 16
 281 0004 00AF     		add	r7, sp, #0	@,,
 282              		.cfi_def_cfa_register 7
 283 0006 0346     		mov	r3, r0	@ tmp113, lub_Port
 284 0008 FB71     		strb	r3, [r7, #7]	@ tmp114, lub_Port
 285 000a 0B46     		mov	r3, r1	@ tmp116, tmp115
 286 000c BB71     		strb	r3, [r7, #6]	@ tmp116, lub_Pin
 287 000e 1346     		mov	r3, r2	@ tmp118, tmp117
 288 0010 7B71     		strb	r3, [r7, #5]	@ tmp118, le_Direction
 102:drivers/rc_gpio/rc_gpio.c **** 	GPIO_SetDir(lub_Port, RCGPIO_PINMASK(lub_Pin), (T_UBYTE)le_Direction);
 289              		.loc 1 102 0
 290 0012 BB79     		ldrb	r3, [r7, #6]	@ zero_extendqisi2	@ D.5583, lub_Pin
 291 0014 0122     		movs	r2, #1	@ tmp119,
 292 0016 02FA03F3 		lsl	r3, r2, r3	@ D.5583, tmp119, D.5583
 293 001a 1946     		mov	r1, r3	@ D.5584, D.5583
 294 001c FA79     		ldrb	r2, [r7, #7]	@ zero_extendqisi2	@ tmp120, lub_Port
 295 001e 7B79     		ldrb	r3, [r7, #5]	@ zero_extendqisi2	@ tmp121, le_Direction
 296 0020 1046     		mov	r0, r2	@, tmp120
 297 0022 1A46     		mov	r2, r3	@, tmp121
ARM GAS  C:\Users\COSMIN~1.MAR\AppData\Local\Temp\ccJxaxHo.s 			page 8


 298 0024 FFF7FEFF 		bl	GPIO_SetDir	@
 103:drivers/rc_gpio/rc_gpio.c **** }
 299              		.loc 1 103 0
 300 0028 0837     		adds	r7, r7, #8	@,,
 301              		.cfi_def_cfa_offset 8
 302 002a BD46     		mov	sp, r7	@,
 303              		.cfi_def_cfa_register 13
 304              		@ sp needed	@
 305 002c 80BD     		pop	{r7, pc}	@
 306              		.cfi_endproc
 307              	.LFE59:
 308              		.size	rcgpio_SetDirection, .-rcgpio_SetDirection
 309 002e 00BF     		.section	.text.rcgpio_EnableInterrupt,"ax",%progbits
 310              		.align	2
 311              		.global	rcgpio_EnableInterrupt
 312              		.thumb
 313              		.thumb_func
 314              		.type	rcgpio_EnableInterrupt, %function
 315              	rcgpio_EnableInterrupt:
 316              	.LFB60:
 104:drivers/rc_gpio/rc_gpio.c **** 
 105:drivers/rc_gpio/rc_gpio.c **** /**
 106:drivers/rc_gpio/rc_gpio.c ****  * \brief 	Enable interrupt on a GPIO pin.
 107:drivers/rc_gpio/rc_gpio.c ****  * \param 	lub_Port 	GPIO port number
 108:drivers/rc_gpio/rc_gpio.c ****  * \param 	lub_Pin	 	GPIO pin number
 109:drivers/rc_gpio/rc_gpio.c ****  * \param 	le_Edge 	Interrupt edge sense mode:
 110:drivers/rc_gpio/rc_gpio.c ****  * 					  	0 - Raising Edge
 111:drivers/rc_gpio/rc_gpio.c ****  * 					  	1 - Falling Edge
 112:drivers/rc_gpio/rc_gpio.c ****  * \return	none
 113:drivers/rc_gpio/rc_gpio.c ****  */
 114:drivers/rc_gpio/rc_gpio.c **** void rcgpio_EnableInterrupt(T_UBYTE lub_Port, T_UBYTE lub_Pin, T_E_RCGPIO_IRQEDGE le_Edge)
 115:drivers/rc_gpio/rc_gpio.c **** {
 317              		.loc 1 115 0
 318              		.cfi_startproc
 319              		@ args = 0, pretend = 0, frame = 8
 320              		@ frame_needed = 1, uses_anonymous_args = 0
 321 0000 80B5     		push	{r7, lr}	@
 322              		.cfi_def_cfa_offset 8
 323              		.cfi_offset 7, -8
 324              		.cfi_offset 14, -4
 325 0002 82B0     		sub	sp, sp, #8	@,,
 326              		.cfi_def_cfa_offset 16
 327 0004 00AF     		add	r7, sp, #0	@,,
 328              		.cfi_def_cfa_register 7
 329 0006 0346     		mov	r3, r0	@ tmp113, lub_Port
 330 0008 FB71     		strb	r3, [r7, #7]	@ tmp114, lub_Port
 331 000a 0B46     		mov	r3, r1	@ tmp116, tmp115
 332 000c BB71     		strb	r3, [r7, #6]	@ tmp116, lub_Pin
 333 000e 1346     		mov	r3, r2	@ tmp118, tmp117
 334 0010 7B71     		strb	r3, [r7, #5]	@ tmp118, le_Edge
 116:drivers/rc_gpio/rc_gpio.c **** 	GPIO_IntCmd(lub_Port, RCGPIO_PINMASK(lub_Pin), (T_UBYTE)le_Edge);
 335              		.loc 1 116 0
 336 0012 BB79     		ldrb	r3, [r7, #6]	@ zero_extendqisi2	@ D.5585, lub_Pin
 337 0014 0122     		movs	r2, #1	@ tmp119,
 338 0016 02FA03F3 		lsl	r3, r2, r3	@ D.5585, tmp119, D.5585
 339 001a 1946     		mov	r1, r3	@ D.5586, D.5585
 340 001c FA79     		ldrb	r2, [r7, #7]	@ zero_extendqisi2	@ tmp120, lub_Port
ARM GAS  C:\Users\COSMIN~1.MAR\AppData\Local\Temp\ccJxaxHo.s 			page 9


 341 001e 7B79     		ldrb	r3, [r7, #5]	@ zero_extendqisi2	@ tmp121, le_Edge
 342 0020 1046     		mov	r0, r2	@, tmp120
 343 0022 1A46     		mov	r2, r3	@, tmp121
 344 0024 FFF7FEFF 		bl	GPIO_IntCmd	@
 117:drivers/rc_gpio/rc_gpio.c **** }
 345              		.loc 1 117 0
 346 0028 0837     		adds	r7, r7, #8	@,,
 347              		.cfi_def_cfa_offset 8
 348 002a BD46     		mov	sp, r7	@,
 349              		.cfi_def_cfa_register 13
 350              		@ sp needed	@
 351 002c 80BD     		pop	{r7, pc}	@
 352              		.cfi_endproc
 353              	.LFE60:
 354              		.size	rcgpio_EnableInterrupt, .-rcgpio_EnableInterrupt
 355 002e 00BF     		.section	.text.rcgpio_ClearInterrupt,"ax",%progbits
 356              		.align	2
 357              		.global	rcgpio_ClearInterrupt
 358              		.thumb
 359              		.thumb_func
 360              		.type	rcgpio_ClearInterrupt, %function
 361              	rcgpio_ClearInterrupt:
 362              	.LFB61:
 118:drivers/rc_gpio/rc_gpio.c **** 
 119:drivers/rc_gpio/rc_gpio.c **** /**
 120:drivers/rc_gpio/rc_gpio.c ****  * \brief 	Clears a pending interrupt on a GPIO pin.
 121:drivers/rc_gpio/rc_gpio.c ****  * \param 	lub_Port GPIO port number
 122:drivers/rc_gpio/rc_gpio.c ****  * \param 	lub_Pin	 GPIO pin number
 123:drivers/rc_gpio/rc_gpio.c ****  * \return 	none
 124:drivers/rc_gpio/rc_gpio.c ****  */
 125:drivers/rc_gpio/rc_gpio.c **** void rcgpio_ClearInterrupt(T_UBYTE lub_Port, T_UBYTE lub_Pin)
 126:drivers/rc_gpio/rc_gpio.c **** {
 363              		.loc 1 126 0
 364              		.cfi_startproc
 365              		@ args = 0, pretend = 0, frame = 8
 366              		@ frame_needed = 1, uses_anonymous_args = 0
 367 0000 80B5     		push	{r7, lr}	@
 368              		.cfi_def_cfa_offset 8
 369              		.cfi_offset 7, -8
 370              		.cfi_offset 14, -4
 371 0002 82B0     		sub	sp, sp, #8	@,,
 372              		.cfi_def_cfa_offset 16
 373 0004 00AF     		add	r7, sp, #0	@,,
 374              		.cfi_def_cfa_register 7
 375 0006 0346     		mov	r3, r0	@ tmp113, lub_Port
 376 0008 0A46     		mov	r2, r1	@ tmp115, lub_Pin
 377 000a FB71     		strb	r3, [r7, #7]	@ tmp114, lub_Port
 378 000c 1346     		mov	r3, r2	@ tmp116, tmp115
 379 000e BB71     		strb	r3, [r7, #6]	@ tmp116, lub_Pin
 127:drivers/rc_gpio/rc_gpio.c **** 	GPIO_ClearInt(lub_Port, RCGPIO_PINMASK(lub_Pin));
 380              		.loc 1 127 0
 381 0010 BB79     		ldrb	r3, [r7, #6]	@ zero_extendqisi2	@ D.5587, lub_Pin
 382 0012 0122     		movs	r2, #1	@ tmp117,
 383 0014 02FA03F3 		lsl	r3, r2, r3	@ D.5587, tmp117, D.5587
 384 0018 1A46     		mov	r2, r3	@ D.5588, D.5587
 385 001a FB79     		ldrb	r3, [r7, #7]	@ zero_extendqisi2	@ tmp118, lub_Port
 386 001c 1846     		mov	r0, r3	@, tmp118
ARM GAS  C:\Users\COSMIN~1.MAR\AppData\Local\Temp\ccJxaxHo.s 			page 10


 387 001e 1146     		mov	r1, r2	@, D.5588
 388 0020 FFF7FEFF 		bl	GPIO_ClearInt	@
 128:drivers/rc_gpio/rc_gpio.c **** }
 389              		.loc 1 128 0
 390 0024 0837     		adds	r7, r7, #8	@,,
 391              		.cfi_def_cfa_offset 8
 392 0026 BD46     		mov	sp, r7	@,
 393              		.cfi_def_cfa_register 13
 394              		@ sp needed	@
 395 0028 80BD     		pop	{r7, pc}	@
 396              		.cfi_endproc
 397              	.LFE61:
 398              		.size	rcgpio_ClearInterrupt, .-rcgpio_ClearInterrupt
 399 002a 00BF     		.section	.text.rcgpio_GetInterruptStatus,"ax",%progbits
 400              		.align	2
 401              		.global	rcgpio_GetInterruptStatus
 402              		.thumb
 403              		.thumb_func
 404              		.type	rcgpio_GetInterruptStatus, %function
 405              	rcgpio_GetInterruptStatus:
 406              	.LFB62:
 129:drivers/rc_gpio/rc_gpio.c **** 
 130:drivers/rc_gpio/rc_gpio.c **** /**
 131:drivers/rc_gpio/rc_gpio.c ****  * \brief 	Gets the interrupt status on a GPIO pin.
 132:drivers/rc_gpio/rc_gpio.c ****  * \param 	lub_Port GPIO port number
 133:drivers/rc_gpio/rc_gpio.c ****  * \param 	lub_Pin	 GPIO pin number
 134:drivers/rc_gpio/rc_gpio.c ****  * \param	le_Edge	 Raising or Falling edge check
 135:drivers/rc_gpio/rc_gpio.c ****  * \return 	interrupt status on the lub_Pin
 136:drivers/rc_gpio/rc_gpio.c ****  */
 137:drivers/rc_gpio/rc_gpio.c **** T_E_RC_BOOL rcgpio_GetInterruptStatus(T_UBYTE lub_Port, T_UBYTE lub_Pin, T_E_RCGPIO_IRQEDGE le_Edge
 138:drivers/rc_gpio/rc_gpio.c **** {
 407              		.loc 1 138 0
 408              		.cfi_startproc
 409              		@ args = 0, pretend = 0, frame = 8
 410              		@ frame_needed = 1, uses_anonymous_args = 0
 411 0000 80B5     		push	{r7, lr}	@
 412              		.cfi_def_cfa_offset 8
 413              		.cfi_offset 7, -8
 414              		.cfi_offset 14, -4
 415 0002 82B0     		sub	sp, sp, #8	@,,
 416              		.cfi_def_cfa_offset 16
 417 0004 00AF     		add	r7, sp, #0	@,,
 418              		.cfi_def_cfa_register 7
 419 0006 0346     		mov	r3, r0	@ tmp113, lub_Port
 420 0008 FB71     		strb	r3, [r7, #7]	@ tmp114, lub_Port
 421 000a 0B46     		mov	r3, r1	@ tmp116, tmp115
 422 000c BB71     		strb	r3, [r7, #6]	@ tmp116, lub_Pin
 423 000e 1346     		mov	r3, r2	@ tmp118, tmp117
 424 0010 7B71     		strb	r3, [r7, #5]	@ tmp118, le_Edge
 139:drivers/rc_gpio/rc_gpio.c **** 	return (T_E_RC_BOOL)GPIO_GetIntStatus(lub_Port, lub_Pin, (T_UBYTE)le_Edge);
 425              		.loc 1 139 0
 426 0012 BA79     		ldrb	r2, [r7, #6]	@ zero_extendqisi2	@ D.5589, lub_Pin
 427 0014 F979     		ldrb	r1, [r7, #7]	@ zero_extendqisi2	@ tmp119, lub_Port
 428 0016 7B79     		ldrb	r3, [r7, #5]	@ zero_extendqisi2	@ tmp120, le_Edge
 429 0018 0846     		mov	r0, r1	@, tmp119
 430 001a 1146     		mov	r1, r2	@, D.5589
 431 001c 1A46     		mov	r2, r3	@, tmp120
ARM GAS  C:\Users\COSMIN~1.MAR\AppData\Local\Temp\ccJxaxHo.s 			page 11


 432 001e FFF7FEFF 		bl	GPIO_GetIntStatus	@
 433 0022 0346     		mov	r3, r0	@ tmp121,
 140:drivers/rc_gpio/rc_gpio.c **** }
 434              		.loc 1 140 0
 435 0024 1846     		mov	r0, r3	@, <retval>
 436 0026 0837     		adds	r7, r7, #8	@,,
 437              		.cfi_def_cfa_offset 8
 438 0028 BD46     		mov	sp, r7	@,
 439              		.cfi_def_cfa_register 13
 440              		@ sp needed	@
 441 002a 80BD     		pop	{r7, pc}	@
 442              		.cfi_endproc
 443              	.LFE62:
 444              		.size	rcgpio_GetInterruptStatus, .-rcgpio_GetInterruptStatus
 445              		.text
 446              	.Letext0:
 447              		.file 2 "c:\\gnu tools arm embedded\\4.9 2015q1\\arm-none-eabi\\include\\machine\\_default_types.h
 448              		.file 3 "c:\\gnu tools arm embedded\\4.9 2015q1\\arm-none-eabi\\include\\stdint.h"
 449              		.file 4 "config/rc_stdtypedefs.h"
 450              		.file 5 "drivers/rc_gpio/rc_gpio.h"
 451              		.file 6 "system/core_cm3.h"