ARM GAS  C:\Users\COSMIN~1.MAR\AppData\Local\Temp\ccOSlrIw.s 			page 1


   1              		.syntax unified
   2              		.cpu cortex-m3
   3              		.fpu softvfp
   4              		.eabi_attribute 20, 1	@ Tag_ABI_FP_denormal
   5              		.eabi_attribute 21, 1	@ Tag_ABI_FP_exceptions
   6              		.eabi_attribute 23, 3	@ Tag_ABI_FP_number_model
   7              		.eabi_attribute 24, 1	@ Tag_ABI_align8_needed
   8              		.eabi_attribute 25, 1	@ Tag_ABI_align8_preserved
   9              		.eabi_attribute 26, 1	@ Tag_ABI_enum_size
  10              		.eabi_attribute 30, 6	@ Tag_ABI_optimization_goals
  11              		.eabi_attribute 34, 1	@ Tag_CPU_unaligned_access
  12              		.eabi_attribute 18, 4	@ Tag_ABI_PCS_wchar_t
  13              		.file	"rc_leds.c"
  14              	@ GNU C (GNU Tools for ARM Embedded Processors) version 4.9.3 20150303 (release) [ARM/embedded-4_9-
  15              	@	compiled by GNU C version 4.7.4, GMP version 4.3.2, MPFR version 2.4.2, MPC version 0.8.1
  16              	@ GGC heuristics: --param ggc-min-expand=100 --param ggc-min-heapsize=131072
  17              	@ options passed:  -I . -I config -I system -I core -I drivers -I FreeRTOS
  18              	@ -I FreeRTOS/include -I FreeRTOS/portable/GCC/ARM_CM3 -I FreeRTOS/portable
  19              	@ -I tasks/rc_task_leds -I tasks/rc_task_pot -I modules/rc_leds
  20              	@ -I modules/rc_pot -I drivers/rc_system -I drivers/rc_gpio
  21              	@ -I drivers/rc_uart -I drivers/rc_pinsel -I drivers/rc_timer
  22              	@ -I drivers/rc_adc -imultilib armv7-m
  23              	@ -iprefix c:\gnu tools arm embedded\4.9 2015q1\bin\../lib/gcc/arm-none-eabi/4.9.3/
  24              	@ -isysroot c:\gnu tools arm embedded\4.9 2015q1\bin\../arm-none-eabi
  25              	@ -MD out/rc_leds.d -MF out/rc_leds.d -MP -MQ out/rc_leds.o
  26              	@ -D__USES_INITFINI__ modules/rc_leds/rc_leds.c -mcpu=cortex-m3 -mthumb
  27              	@ -auxbase-strip out/rc_leds.o -g -ggdb3 -O0 -Wall -Wstrict-prototypes
  28              	@ -Wextra -std=gnu90 -ffunction-sections -fdata-sections -fverbose-asm
  29              	@ options enabled:  -faggressive-loop-optimizations -fauto-inc-dec -fcommon
  30              	@ -fdata-sections -fdelete-null-pointer-checks -fdwarf2-cfi-asm
  31              	@ -fearly-inlining -feliminate-unused-debug-types -ffunction-cse
  32              	@ -ffunction-sections -fgcse-lm -fgnu-runtime -fgnu-unique -fident
  33              	@ -finline-atomics -fira-hoist-pressure -fira-share-save-slots
  34              	@ -fira-share-spill-slots -fivopts -fkeep-static-consts
  35              	@ -fleading-underscore -flifetime-dse -fmath-errno -fmerge-debug-strings
  36              	@ -fpeephole -fprefetch-loop-arrays -freg-struct-return
  37              	@ -fsched-critical-path-heuristic -fsched-dep-count-heuristic
  38              	@ -fsched-group-heuristic -fsched-interblock -fsched-last-insn-heuristic
  39              	@ -fsched-rank-heuristic -fsched-spec -fsched-spec-insn-heuristic
  40              	@ -fsched-stalled-insns-dep -fshow-column -fsigned-zeros
  41              	@ -fsplit-ivs-in-unroller -fstrict-volatile-bitfields -fsync-libcalls
  42              	@ -ftrapping-math -ftree-coalesce-vars -ftree-cselim -ftree-forwprop
  43              	@ -ftree-loop-if-convert -ftree-loop-im -ftree-loop-ivcanon
  44              	@ -ftree-loop-optimize -ftree-parallelize-loops= -ftree-phiprop
  45              	@ -ftree-reassoc -ftree-scev-cprop -funit-at-a-time -fverbose-asm
  46              	@ -fzero-initialized-in-bss -mfix-cortex-m3-ldrd -mlittle-endian -mlra
  47              	@ -mpic-data-is-text-relative -msched-prolog -mthumb -munaligned-access
  48              	@ -mvectorize-with-neon-quad
  49              	
  50              		.text
  51              	.Ltext0:
  52              		.cfi_sections	.debug_frame
  53              		.section	.bss.re_rcleds_state,"aw",%nobits
  54              		.type	re_rcleds_state, %object
  55              		.size	re_rcleds_state, 1
  56              	re_rcleds_state:
  57 0000 00       		.space	1
ARM GAS  C:\Users\COSMIN~1.MAR\AppData\Local\Temp\ccOSlrIw.s 			page 2


  58              		.section	.text.rcleds_Init,"ax",%progbits
  59              		.align	2
  60              		.global	rcleds_Init
  61              		.thumb
  62              		.thumb_func
  63              		.type	rcleds_Init, %function
  64              	rcleds_Init:
  65              	.LFB55:
  66              		.file 1 "modules/rc_leds/rc_leds.c"
   1:modules/rc_leds/rc_leds.c **** /**
   2:modules/rc_leds/rc_leds.c ****  * \file	rc_leds.c
   3:modules/rc_leds/rc_leds.c ****  * \brief	RGB LEDs functions
   4:modules/rc_leds/rc_leds.c ****  * \details	Implements the functions for RGB LEDs
   5:modules/rc_leds/rc_leds.c ****  * \author	Cosmin Marcu
   6:modules/rc_leds/rc_leds.c ****  * \date	Nov 03, 2015
   7:modules/rc_leds/rc_leds.c ****  * \version 1.0.1
   8:modules/rc_leds/rc_leds.c ****  */
   9:modules/rc_leds/rc_leds.c **** 
  10:modules/rc_leds/rc_leds.c **** /* Includes */
  11:modules/rc_leds/rc_leds.c **** #include "rc_leds.h"
  12:modules/rc_leds/rc_leds.c **** 
  13:modules/rc_leds/rc_leds.c **** /* Include module headers */
  14:modules/rc_leds/rc_leds.c **** 
  15:modules/rc_leds/rc_leds.c **** /**
  16:modules/rc_leds/rc_leds.c ****  * \ingroup  rc_leds
  17:modules/rc_leds/rc_leds.c ****  * \defgroup leds_functions LEDs Functions
  18:modules/rc_leds/rc_leds.c ****  *  Functions definitions for RGB LEDs
  19:modules/rc_leds/rc_leds.c ****  *  @{
  20:modules/rc_leds/rc_leds.c ****  */
  21:modules/rc_leds/rc_leds.c **** 
  22:modules/rc_leds/rc_leds.c **** PRIVATE_DATA VOLATILE T_E_RCLEDS_STATE re_rcleds_state = E_RCLEDS_STATE_NONE;			//!< Current state 
  23:modules/rc_leds/rc_leds.c **** 
  24:modules/rc_leds/rc_leds.c **** /**
  25:modules/rc_leds/rc_leds.c ****  * \brief	Initializes LEDs port and pins
  26:modules/rc_leds/rc_leds.c ****  * \return 	none
  27:modules/rc_leds/rc_leds.c ****  */
  28:modules/rc_leds/rc_leds.c **** void rcleds_Init(void)
  29:modules/rc_leds/rc_leds.c **** {
  67              		.loc 1 29 0
  68              		.cfi_startproc
  69              		@ args = 0, pretend = 0, frame = 0
  70              		@ frame_needed = 1, uses_anonymous_args = 0
  71 0000 80B5     		push	{r7, lr}	@
  72              		.cfi_def_cfa_offset 8
  73              		.cfi_offset 7, -8
  74              		.cfi_offset 14, -4
  75 0002 00AF     		add	r7, sp, #0	@,,
  76              		.cfi_def_cfa_register 7
  30:modules/rc_leds/rc_leds.c **** 	/* RGB LEDs */
  31:modules/rc_leds/rc_leds.c **** 	rcgpio_SetDirection(RCLEDS_PORT, RCLEDS_RGB1_RED, E_RC_OUTPUT);
  77              		.loc 1 31 0
  78 0004 0220     		movs	r0, #2	@,
  79 0006 0021     		movs	r1, #0	@,
  80 0008 0122     		movs	r2, #1	@,
  81 000a FFF7FEFF 		bl	rcgpio_SetDirection	@
  32:modules/rc_leds/rc_leds.c **** 	rcgpio_SetDirection(RCLEDS_PORT, RCLEDS_RGB1_BLUE, E_RC_OUTPUT);
  82              		.loc 1 32 0
ARM GAS  C:\Users\COSMIN~1.MAR\AppData\Local\Temp\ccOSlrIw.s 			page 3


  83 000e 0220     		movs	r0, #2	@,
  84 0010 0121     		movs	r1, #1	@,
  85 0012 0122     		movs	r2, #1	@,
  86 0014 FFF7FEFF 		bl	rcgpio_SetDirection	@
  33:modules/rc_leds/rc_leds.c **** 	rcgpio_SetDirection(RCLEDS_PORT, RCLEDS_RGB1_GREEN, E_RC_OUTPUT);
  87              		.loc 1 33 0
  88 0018 0220     		movs	r0, #2	@,
  89 001a 0221     		movs	r1, #2	@,
  90 001c 0122     		movs	r2, #1	@,
  91 001e FFF7FEFF 		bl	rcgpio_SetDirection	@
  34:modules/rc_leds/rc_leds.c **** 	rcgpio_SetDirection(RCLEDS_PORT, RCLEDS_RGB2_RED, E_RC_OUTPUT);
  92              		.loc 1 34 0
  93 0022 0220     		movs	r0, #2	@,
  94 0024 0321     		movs	r1, #3	@,
  95 0026 0122     		movs	r2, #1	@,
  96 0028 FFF7FEFF 		bl	rcgpio_SetDirection	@
  35:modules/rc_leds/rc_leds.c **** 	rcgpio_SetDirection(RCLEDS_PORT, RCLEDS_RGB2_BLUE, E_RC_OUTPUT);
  97              		.loc 1 35 0
  98 002c 0220     		movs	r0, #2	@,
  99 002e 0421     		movs	r1, #4	@,
 100 0030 0122     		movs	r2, #1	@,
 101 0032 FFF7FEFF 		bl	rcgpio_SetDirection	@
  36:modules/rc_leds/rc_leds.c **** 	rcgpio_SetDirection(RCLEDS_PORT, RCLEDS_RGB2_GREEN, E_RC_OUTPUT);
 102              		.loc 1 36 0
 103 0036 0220     		movs	r0, #2	@,
 104 0038 0521     		movs	r1, #5	@,
 105 003a 0122     		movs	r2, #1	@,
 106 003c FFF7FEFF 		bl	rcgpio_SetDirection	@
  37:modules/rc_leds/rc_leds.c **** 	rcgpio_SetPin(RCLEDS_PORT, RCLEDS_RGB1_RED);
 107              		.loc 1 37 0
 108 0040 0220     		movs	r0, #2	@,
 109 0042 0021     		movs	r1, #0	@,
 110 0044 FFF7FEFF 		bl	rcgpio_SetPin	@
  38:modules/rc_leds/rc_leds.c **** 	rcgpio_SetPin(RCLEDS_PORT, RCLEDS_RGB1_BLUE);
 111              		.loc 1 38 0
 112 0048 0220     		movs	r0, #2	@,
 113 004a 0121     		movs	r1, #1	@,
 114 004c FFF7FEFF 		bl	rcgpio_SetPin	@
  39:modules/rc_leds/rc_leds.c **** 	rcgpio_SetPin(RCLEDS_PORT, RCLEDS_RGB1_GREEN);
 115              		.loc 1 39 0
 116 0050 0220     		movs	r0, #2	@,
 117 0052 0221     		movs	r1, #2	@,
 118 0054 FFF7FEFF 		bl	rcgpio_SetPin	@
  40:modules/rc_leds/rc_leds.c **** 	rcgpio_SetPin(RCLEDS_PORT, RCLEDS_RGB2_RED);
 119              		.loc 1 40 0
 120 0058 0220     		movs	r0, #2	@,
 121 005a 0321     		movs	r1, #3	@,
 122 005c FFF7FEFF 		bl	rcgpio_SetPin	@
  41:modules/rc_leds/rc_leds.c **** 	rcgpio_SetPin(RCLEDS_PORT, RCLEDS_RGB2_BLUE);
 123              		.loc 1 41 0
 124 0060 0220     		movs	r0, #2	@,
 125 0062 0421     		movs	r1, #4	@,
 126 0064 FFF7FEFF 		bl	rcgpio_SetPin	@
  42:modules/rc_leds/rc_leds.c **** 	rcgpio_SetPin(RCLEDS_PORT, RCLEDS_RGB2_GREEN);
 127              		.loc 1 42 0
 128 0068 0220     		movs	r0, #2	@,
 129 006a 0521     		movs	r1, #5	@,
ARM GAS  C:\Users\COSMIN~1.MAR\AppData\Local\Temp\ccOSlrIw.s 			page 4


 130 006c FFF7FEFF 		bl	rcgpio_SetPin	@
  43:modules/rc_leds/rc_leds.c **** }
 131              		.loc 1 43 0
 132 0070 80BD     		pop	{r7, pc}	@
 133              		.cfi_endproc
 134              	.LFE55:
 135              		.size	rcleds_Init, .-rcleds_Init
 136 0072 00BF     		.section	.text.rcleds_ClearLEDs,"ax",%progbits
 137              		.align	2
 138              		.global	rcleds_ClearLEDs
 139              		.thumb
 140              		.thumb_func
 141              		.type	rcleds_ClearLEDs, %function
 142              	rcleds_ClearLEDs:
 143              	.LFB56:
  44:modules/rc_leds/rc_leds.c **** 
  45:modules/rc_leds/rc_leds.c **** /**
  46:modules/rc_leds/rc_leds.c ****  * \brief	Clear LEDs
  47:modules/rc_leds/rc_leds.c ****  * \return 	none
  48:modules/rc_leds/rc_leds.c ****  */
  49:modules/rc_leds/rc_leds.c **** void rcleds_ClearLEDs(void)
  50:modules/rc_leds/rc_leds.c **** {
 144              		.loc 1 50 0
 145              		.cfi_startproc
 146              		@ args = 0, pretend = 0, frame = 0
 147              		@ frame_needed = 1, uses_anonymous_args = 0
 148 0000 80B5     		push	{r7, lr}	@
 149              		.cfi_def_cfa_offset 8
 150              		.cfi_offset 7, -8
 151              		.cfi_offset 14, -4
 152 0002 00AF     		add	r7, sp, #0	@,,
 153              		.cfi_def_cfa_register 7
  51:modules/rc_leds/rc_leds.c **** 	rcgpio_SetPin(RCLEDS_PORT, RCLEDS_RGB1_RED);
 154              		.loc 1 51 0
 155 0004 0220     		movs	r0, #2	@,
 156 0006 0021     		movs	r1, #0	@,
 157 0008 FFF7FEFF 		bl	rcgpio_SetPin	@
  52:modules/rc_leds/rc_leds.c **** 	rcgpio_SetPin(RCLEDS_PORT, RCLEDS_RGB1_BLUE);
 158              		.loc 1 52 0
 159 000c 0220     		movs	r0, #2	@,
 160 000e 0121     		movs	r1, #1	@,
 161 0010 FFF7FEFF 		bl	rcgpio_SetPin	@
  53:modules/rc_leds/rc_leds.c **** 	rcgpio_SetPin(RCLEDS_PORT, RCLEDS_RGB1_GREEN);
 162              		.loc 1 53 0
 163 0014 0220     		movs	r0, #2	@,
 164 0016 0221     		movs	r1, #2	@,
 165 0018 FFF7FEFF 		bl	rcgpio_SetPin	@
  54:modules/rc_leds/rc_leds.c **** 	rcgpio_SetPin(RCLEDS_PORT, RCLEDS_RGB2_RED);
 166              		.loc 1 54 0
 167 001c 0220     		movs	r0, #2	@,
 168 001e 0321     		movs	r1, #3	@,
 169 0020 FFF7FEFF 		bl	rcgpio_SetPin	@
  55:modules/rc_leds/rc_leds.c **** 	rcgpio_SetPin(RCLEDS_PORT, RCLEDS_RGB2_BLUE);
 170              		.loc 1 55 0
 171 0024 0220     		movs	r0, #2	@,
 172 0026 0421     		movs	r1, #4	@,
 173 0028 FFF7FEFF 		bl	rcgpio_SetPin	@
ARM GAS  C:\Users\COSMIN~1.MAR\AppData\Local\Temp\ccOSlrIw.s 			page 5


  56:modules/rc_leds/rc_leds.c **** 	rcgpio_SetPin(RCLEDS_PORT, RCLEDS_RGB2_GREEN);
 174              		.loc 1 56 0
 175 002c 0220     		movs	r0, #2	@,
 176 002e 0521     		movs	r1, #5	@,
 177 0030 FFF7FEFF 		bl	rcgpio_SetPin	@
  57:modules/rc_leds/rc_leds.c **** }
 178              		.loc 1 57 0
 179 0034 80BD     		pop	{r7, pc}	@
 180              		.cfi_endproc
 181              	.LFE56:
 182              		.size	rcleds_ClearLEDs, .-rcleds_ClearLEDs
 183 0036 00BF     		.section	.text.rcleds_GetState,"ax",%progbits
 184              		.align	2
 185              		.global	rcleds_GetState
 186              		.thumb
 187              		.thumb_func
 188              		.type	rcleds_GetState, %function
 189              	rcleds_GetState:
 190              	.LFB57:
  58:modules/rc_leds/rc_leds.c **** 
  59:modules/rc_leds/rc_leds.c **** /**
  60:modules/rc_leds/rc_leds.c ****  * \brief	Gets the current LEDs state
  61:modules/rc_leds/rc_leds.c ****  * \return 	LEDs state
  62:modules/rc_leds/rc_leds.c ****  */
  63:modules/rc_leds/rc_leds.c **** T_E_RCLEDS_STATE rcleds_GetState(void)
  64:modules/rc_leds/rc_leds.c **** {
 191              		.loc 1 64 0
 192              		.cfi_startproc
 193              		@ args = 0, pretend = 0, frame = 0
 194              		@ frame_needed = 1, uses_anonymous_args = 0
 195              		@ link register save eliminated.
 196 0000 80B4     		push	{r7}	@
 197              		.cfi_def_cfa_offset 4
 198              		.cfi_offset 7, -4
 199 0002 00AF     		add	r7, sp, #0	@,,
 200              		.cfi_def_cfa_register 7
  65:modules/rc_leds/rc_leds.c **** 	return re_rcleds_state;
 201              		.loc 1 65 0
 202 0004 034B     		ldr	r3, .L5	@ tmp112,
 203 0006 1B78     		ldrb	r3, [r3]	@ tmp113, re_rcleds_state
 204 0008 DBB2     		uxtb	r3, r3	@ D.5537, tmp113
  66:modules/rc_leds/rc_leds.c **** }
 205              		.loc 1 66 0
 206 000a 1846     		mov	r0, r3	@, <retval>
 207 000c BD46     		mov	sp, r7	@,
 208              		.cfi_def_cfa_register 13
 209              		@ sp needed	@
 210 000e 5DF8047B 		ldr	r7, [sp], #4	@,
 211              		.cfi_restore 7
 212              		.cfi_def_cfa_offset 0
 213 0012 7047     		bx	lr	@
 214              	.L6:
 215              		.align	2
 216              	.L5:
 217 0014 00000000 		.word	re_rcleds_state
 218              		.cfi_endproc
 219              	.LFE57:
ARM GAS  C:\Users\COSMIN~1.MAR\AppData\Local\Temp\ccOSlrIw.s 			page 6


 220              		.size	rcleds_GetState, .-rcleds_GetState
 221              		.section	.text.rcleds_SetState,"ax",%progbits
 222              		.align	2
 223              		.global	rcleds_SetState
 224              		.thumb
 225              		.thumb_func
 226              		.type	rcleds_SetState, %function
 227              	rcleds_SetState:
 228              	.LFB58:
  67:modules/rc_leds/rc_leds.c **** 
  68:modules/rc_leds/rc_leds.c **** /**
  69:modules/rc_leds/rc_leds.c ****  * \brief	Sets the current LEDs state
  70:modules/rc_leds/rc_leds.c ****  * \param	le_State new state to be set
  71:modules/rc_leds/rc_leds.c ****  * \return 	none
  72:modules/rc_leds/rc_leds.c ****  */
  73:modules/rc_leds/rc_leds.c **** void rcleds_SetState(T_E_RCLEDS_STATE le_State)
  74:modules/rc_leds/rc_leds.c **** {
 229              		.loc 1 74 0
 230              		.cfi_startproc
 231              		@ args = 0, pretend = 0, frame = 8
 232              		@ frame_needed = 1, uses_anonymous_args = 0
 233              		@ link register save eliminated.
 234 0000 80B4     		push	{r7}	@
 235              		.cfi_def_cfa_offset 4
 236              		.cfi_offset 7, -4
 237 0002 83B0     		sub	sp, sp, #12	@,,
 238              		.cfi_def_cfa_offset 16
 239 0004 00AF     		add	r7, sp, #0	@,,
 240              		.cfi_def_cfa_register 7
 241 0006 0346     		mov	r3, r0	@ tmp110, le_State
 242 0008 FB71     		strb	r3, [r7, #7]	@ tmp111, le_State
  75:modules/rc_leds/rc_leds.c **** 	re_rcleds_state = le_State;
 243              		.loc 1 75 0
 244 000a 044A     		ldr	r2, .L8	@ tmp112,
 245 000c FB79     		ldrb	r3, [r7, #7]	@ tmp113, le_State
 246 000e 1370     		strb	r3, [r2]	@ tmp113, re_rcleds_state
  76:modules/rc_leds/rc_leds.c **** }
 247              		.loc 1 76 0
 248 0010 0C37     		adds	r7, r7, #12	@,,
 249              		.cfi_def_cfa_offset 4
 250 0012 BD46     		mov	sp, r7	@,
 251              		.cfi_def_cfa_register 13
 252              		@ sp needed	@
 253 0014 5DF8047B 		ldr	r7, [sp], #4	@,
 254              		.cfi_restore 7
 255              		.cfi_def_cfa_offset 0
 256 0018 7047     		bx	lr	@
 257              	.L9:
 258 001a 00BF     		.align	2
 259              	.L8:
 260 001c 00000000 		.word	re_rcleds_state
 261              		.cfi_endproc
 262              	.LFE58:
 263              		.size	rcleds_SetState, .-rcleds_SetState
 264              		.text
 265              	.Letext0:
 266              		.file 2 "c:\\gnu tools arm embedded\\4.9 2015q1\\arm-none-eabi\\include\\machine\\_default_types.h
ARM GAS  C:\Users\COSMIN~1.MAR\AppData\Local\Temp\ccOSlrIw.s 			page 7


 267              		.file 3 "c:\\gnu tools arm embedded\\4.9 2015q1\\arm-none-eabi\\include\\stdint.h"
 268              		.file 4 "config/rc_stdtypedefs.h"
 269              		.file 5 "modules/rc_leds/rc_leds.h"
 270              		.file 6 "system/core_cm3.h"