ARM GAS  C:\Users\STUDENT\AppData\Local\Temp\ccSZODy1.s 			page 1


   1              		.syntax unified
   2              		.cpu cortex-m3
   3              		.fpu softvfp
   4              		.eabi_attribute 20, 1	@ Tag_ABI_FP_denormal
   5              		.eabi_attribute 21, 1	@ Tag_ABI_FP_exceptions
   6              		.eabi_attribute 23, 3	@ Tag_ABI_FP_number_model
   7              		.eabi_attribute 24, 1	@ Tag_ABI_align8_needed
   8              		.eabi_attribute 25, 1	@ Tag_ABI_align8_preserved
   9              		.eabi_attribute 26, 1	@ Tag_ABI_enum_size
  10              		.eabi_attribute 30, 6	@ Tag_ABI_optimization_goals
  11              		.eabi_attribute 34, 1	@ Tag_CPU_unaligned_access
  12              		.eabi_attribute 18, 4	@ Tag_ABI_PCS_wchar_t
  13              		.file	"rc_pot.c"
  14              	@ GNU C89 (GNU Tools for ARM Embedded Processors) version 5.4.1 20160919 (release) [ARM/embedded-5-
  15              	@	compiled by GNU C version 4.7.4, GMP version 4.3.2, MPFR version 2.4.2, MPC version 0.8.1
  16              	@ GGC heuristics: --param ggc-min-expand=100 --param ggc-min-heapsize=131072
  17              	@ options passed:  -I . -I config -I system -I core -I drivers -I FreeRTOS
  18              	@ -I FreeRTOS/include -I FreeRTOS/portable/GCC/ARM_CM3 -I FreeRTOS/portable
  19              	@ -I tasks/rc_task_leds -I tasks/rc_task_pot -I modules/rc_leds
  20              	@ -I modules/rc_pot -I drivers/rc_system -I drivers/rc_gpio
  21              	@ -I drivers/rc_uart -I drivers/rc_pinsel -I drivers/rc_timer
  22              	@ -I drivers/rc_adc -imultilib armv7-m
  23              	@ -iprefix c:\program files (x86)\gnu tools arm embedded\5.4 2016q3\bin\../lib/gcc/arm-none-eabi/5.
  24              	@ -isysroot c:\program files (x86)\gnu tools arm embedded\5.4 2016q3\bin\../arm-none-eabi
  25              	@ -MD out/rc_pot.d -MF out/rc_pot.d -MP -MQ out/rc_pot.o
  26              	@ -D__USES_INITFINI__ modules/rc_pot/rc_pot.c -mcpu=cortex-m3 -mthumb
  27              	@ -auxbase-strip out/rc_pot.o -g -ggdb3 -O0 -Wall -Wstrict-prototypes
  28              	@ -Wextra -std=gnu90 -ffunction-sections -fdata-sections -fverbose-asm
  29              	@ options enabled:  -faggressive-loop-optimizations -fauto-inc-dec
  30              	@ -fchkp-check-incomplete-type -fchkp-check-read -fchkp-check-write
  31              	@ -fchkp-instrument-calls -fchkp-narrow-bounds -fchkp-optimize
  32              	@ -fchkp-store-bounds -fchkp-use-static-bounds
  33              	@ -fchkp-use-static-const-bounds -fchkp-use-wrappers -fcommon
  34              	@ -fdata-sections -fdelete-null-pointer-checks -fdwarf2-cfi-asm
  35              	@ -fearly-inlining -feliminate-unused-debug-types -ffunction-cse
  36              	@ -ffunction-sections -fgcse-lm -fgnu-runtime -fgnu-unique -fident
  37              	@ -finline-atomics -fira-hoist-pressure -fira-share-save-slots
  38              	@ -fira-share-spill-slots -fivopts -fkeep-static-consts
  39              	@ -fleading-underscore -flifetime-dse -flto-odr-type-merging -fmath-errno
  40              	@ -fmerge-debug-strings -fpeephole -fprefetch-loop-arrays
  41              	@ -freg-struct-return -fsched-critical-path-heuristic
  42              	@ -fsched-dep-count-heuristic -fsched-group-heuristic -fsched-interblock
  43              	@ -fsched-last-insn-heuristic -fsched-rank-heuristic -fsched-spec
  44              	@ -fsched-spec-insn-heuristic -fsched-stalled-insns-dep
  45              	@ -fsemantic-interposition -fshow-column -fsigned-zeros
  46              	@ -fsplit-ivs-in-unroller -fstdarg-opt -fstrict-volatile-bitfields
  47              	@ -fsync-libcalls -ftrapping-math -ftree-coalesce-vars -ftree-cselim
  48              	@ -ftree-forwprop -ftree-loop-if-convert -ftree-loop-im -ftree-loop-ivcanon
  49              	@ -ftree-loop-optimize -ftree-parallelize-loops= -ftree-phiprop
  50              	@ -ftree-reassoc -ftree-scev-cprop -funit-at-a-time -fverbose-asm
  51              	@ -fzero-initialized-in-bss -masm-syntax-unified -mfix-cortex-m3-ldrd
  52              	@ -mlittle-endian -mpic-data-is-text-relative -msched-prolog -mthumb
  53              	@ -munaligned-access -mvectorize-with-neon-quad
  54              	
  55              		.text
  56              	.Ltext0:
  57              		.cfi_sections	.debug_frame
ARM GAS  C:\Users\STUDENT\AppData\Local\Temp\ccSZODy1.s 			page 2


  58              		.section	.text.rcpot_Init,"ax",%progbits
  59              		.align	2
  60              		.global	rcpot_Init
  61              		.thumb
  62              		.thumb_func
  63              		.type	rcpot_Init, %function
  64              	rcpot_Init:
  65              	.LFB55:
  66              		.file 1 "modules/rc_pot/rc_pot.c"
   1:modules/rc_pot/rc_pot.c **** /**
   2:modules/rc_pot/rc_pot.c ****  * \file	rc_pot.c
   3:modules/rc_pot/rc_pot.c ****  * \brief	Potentiometer functions
   4:modules/rc_pot/rc_pot.c ****  * \details	Implements the functions to init and read on board potentiometer
   5:modules/rc_pot/rc_pot.c ****  * \author	Cosmin Marcu
   6:modules/rc_pot/rc_pot.c ****  * \date	Nov 08, 2015
   7:modules/rc_pot/rc_pot.c ****  * \version 1.0.1
   8:modules/rc_pot/rc_pot.c ****  */
   9:modules/rc_pot/rc_pot.c **** 
  10:modules/rc_pot/rc_pot.c **** /* Includes */
  11:modules/rc_pot/rc_pot.c **** #include "rc_pot.h"
  12:modules/rc_pot/rc_pot.c **** 
  13:modules/rc_pot/rc_pot.c **** /* Include module headers */
  14:modules/rc_pot/rc_pot.c **** 
  15:modules/rc_pot/rc_pot.c **** /**
  16:modules/rc_pot/rc_pot.c ****  * \ingroup  rc_pot
  17:modules/rc_pot/rc_pot.c ****  * \defgroup pot_functions Potentiometer Functions
  18:modules/rc_pot/rc_pot.c ****  *  Functions definitions for built-in Potentiometer
  19:modules/rc_pot/rc_pot.c ****  *  @{
  20:modules/rc_pot/rc_pot.c ****  */
  21:modules/rc_pot/rc_pot.c **** 
  22:modules/rc_pot/rc_pot.c **** /**
  23:modules/rc_pot/rc_pot.c ****  * \brief	Initializes potentiometer analog input
  24:modules/rc_pot/rc_pot.c ****  * \return 	none
  25:modules/rc_pot/rc_pot.c ****  */
  26:modules/rc_pot/rc_pot.c **** void rcpot_Init(void)
  27:modules/rc_pot/rc_pot.c **** {
  67              		.loc 1 27 0
  68              		.cfi_startproc
  69              		@ args = 0, pretend = 0, frame = 8
  70              		@ frame_needed = 1, uses_anonymous_args = 0
  71 0000 80B5     		push	{r7, lr}	@
  72              		.cfi_def_cfa_offset 8
  73              		.cfi_offset 7, -8
  74              		.cfi_offset 14, -4
  75 0002 82B0     		sub	sp, sp, #8	@,,
  76              		.cfi_def_cfa_offset 16
  77 0004 00AF     		add	r7, sp, #0	@,,
  78              		.cfi_def_cfa_register 7
  28:modules/rc_pot/rc_pot.c **** 	T_RCPINSEL_CFG ls_PinselConfig;
  29:modules/rc_pot/rc_pot.c **** 
  30:modules/rc_pot/rc_pot.c **** 	/* Configure potentiometer ADC pin */
  31:modules/rc_pot/rc_pot.c **** 	ls_PinselConfig.e_Port = E_RC_IOPORT1;
  79              		.loc 1 31 0
  80 0006 0123     		movs	r3, #1	@ tmp110,
  81 0008 3B70     		strb	r3, [r7]	@ tmp111, ls_PinselConfig.e_Port
  32:modules/rc_pot/rc_pot.c **** 	ls_PinselConfig.e_Function = E_RCPINSEL_FUNC3;
  82              		.loc 1 32 0
ARM GAS  C:\Users\STUDENT\AppData\Local\Temp\ccSZODy1.s 			page 3


  83 000a 0323     		movs	r3, #3	@ tmp112,
  84 000c BB70     		strb	r3, [r7, #2]	@ tmp113, ls_PinselConfig.e_Function
  33:modules/rc_pot/rc_pot.c **** 	ls_PinselConfig.e_Pin = E_RC_IOPIN31;
  85              		.loc 1 33 0
  86 000e 1F23     		movs	r3, #31	@ tmp114,
  87 0010 7B70     		strb	r3, [r7, #1]	@ tmp115, ls_PinselConfig.e_Pin
  34:modules/rc_pot/rc_pot.c **** 	/* Configure pin 1.31 */
  35:modules/rc_pot/rc_pot.c **** 	rcpinsel_ConfigPin(ls_PinselConfig);
  88              		.loc 1 35 0
  89 0012 3B46     		mov	r3, r7	@ tmp116,
  90 0014 93E80300 		ldmia	r3, {r0, r1}	@ tmp116,,
  91 0018 FFF7FEFF 		bl	rcpinsel_ConfigPin	@
  36:modules/rc_pot/rc_pot.c **** 	/* Init ADC */
  37:modules/rc_pot/rc_pot.c **** 	rcadc_Init(RC_ADC_PORT, RCPOT_CLOCKRATE);
  92              		.loc 1 37 0
  93 001c 0849     		ldr	r1, .L2	@,
  94 001e 0948     		ldr	r0, .L2+4	@,
  95 0020 FFF7FEFF 		bl	rcadc_Init	@
  38:modules/rc_pot/rc_pot.c **** 	rcadc_SetInterruptState(RC_ADC_PORT, E_RCADC_IRQ_CHANNEL5, E_RC_DISABLE);
  96              		.loc 1 38 0
  97 0024 0022     		movs	r2, #0	@,
  98 0026 0521     		movs	r1, #5	@,
  99 0028 0648     		ldr	r0, .L2+4	@,
 100 002a FFF7FEFF 		bl	rcadc_SetInterruptState	@
  39:modules/rc_pot/rc_pot.c **** 	rcadc_SetChannelState(RC_ADC_PORT, E_RCADC_CHANNEL5, E_RC_ENABLE);
 101              		.loc 1 39 0
 102 002e 0122     		movs	r2, #1	@,
 103 0030 0521     		movs	r1, #5	@,
 104 0032 0448     		ldr	r0, .L2+4	@,
 105 0034 FFF7FEFF 		bl	rcadc_SetChannelState	@
  40:modules/rc_pot/rc_pot.c **** }
 106              		.loc 1 40 0
 107 0038 00BF     		nop
 108 003a 0837     		adds	r7, r7, #8	@,,
 109              		.cfi_def_cfa_offset 8
 110 003c BD46     		mov	sp, r7	@,
 111              		.cfi_def_cfa_register 13
 112              		@ sp needed	@
 113 003e 80BD     		pop	{r7, pc}	@
 114              	.L3:
 115              		.align	2
 116              	.L2:
 117 0040 400D0300 		.word	200000
 118 0044 00400340 		.word	1073954816
 119              		.cfi_endproc
 120              	.LFE55:
 121              		.size	rcpot_Init, .-rcpot_Init
 122              		.section	.text.rcpot_StartReading,"ax",%progbits
 123              		.align	2
 124              		.global	rcpot_StartReading
 125              		.thumb
 126              		.thumb_func
 127              		.type	rcpot_StartReading, %function
 128              	rcpot_StartReading:
 129              	.LFB56:
  41:modules/rc_pot/rc_pot.c **** 
  42:modules/rc_pot/rc_pot.c **** /**
ARM GAS  C:\Users\STUDENT\AppData\Local\Temp\ccSZODy1.s 			page 4


  43:modules/rc_pot/rc_pot.c ****  * \brief	Start ADC reading
  44:modules/rc_pot/rc_pot.c ****  * \return 	none
  45:modules/rc_pot/rc_pot.c ****  */
  46:modules/rc_pot/rc_pot.c **** void rcpot_StartReading(void)
  47:modules/rc_pot/rc_pot.c **** {
 130              		.loc 1 47 0
 131              		.cfi_startproc
 132              		@ args = 0, pretend = 0, frame = 0
 133              		@ frame_needed = 1, uses_anonymous_args = 0
 134 0000 80B5     		push	{r7, lr}	@
 135              		.cfi_def_cfa_offset 8
 136              		.cfi_offset 7, -8
 137              		.cfi_offset 14, -4
 138 0002 00AF     		add	r7, sp, #0	@,,
 139              		.cfi_def_cfa_register 7
  48:modules/rc_pot/rc_pot.c **** 	rcadc_SetStartMode(RC_ADC_PORT, E_RCADC_START_NOW);
 140              		.loc 1 48 0
 141 0004 0121     		movs	r1, #1	@,
 142 0006 0248     		ldr	r0, .L5	@,
 143 0008 FFF7FEFF 		bl	rcadc_SetStartMode	@
  49:modules/rc_pot/rc_pot.c **** }
 144              		.loc 1 49 0
 145 000c 00BF     		nop
 146 000e 80BD     		pop	{r7, pc}	@
 147              	.L6:
 148              		.align	2
 149              	.L5:
 150 0010 00400340 		.word	1073954816
 151              		.cfi_endproc
 152              	.LFE56:
 153              		.size	rcpot_StartReading, .-rcpot_StartReading
 154              		.section	.text.rcpot_GetReadingStatus,"ax",%progbits
 155              		.align	2
 156              		.global	rcpot_GetReadingStatus
 157              		.thumb
 158              		.thumb_func
 159              		.type	rcpot_GetReadingStatus, %function
 160              	rcpot_GetReadingStatus:
 161              	.LFB57:
  50:modules/rc_pot/rc_pot.c **** 
  51:modules/rc_pot/rc_pot.c **** /**
  52:modules/rc_pot/rc_pot.c ****  * \brief	Start ADC reading
  53:modules/rc_pot/rc_pot.c ****  * \return 	E_RC_NOTDONE if reading is in progress or unsuccessful
  54:modules/rc_pot/rc_pot.c ****  * 			E_RC_DONE if reading successful
  55:modules/rc_pot/rc_pot.c ****  */
  56:modules/rc_pot/rc_pot.c **** T_E_RC_READ_STATUS rcpot_GetReadingStatus(void)
  57:modules/rc_pot/rc_pot.c **** {
 162              		.loc 1 57 0
 163              		.cfi_startproc
 164              		@ args = 0, pretend = 0, frame = 0
 165              		@ frame_needed = 1, uses_anonymous_args = 0
 166 0000 80B5     		push	{r7, lr}	@
 167              		.cfi_def_cfa_offset 8
 168              		.cfi_offset 7, -8
 169              		.cfi_offset 14, -4
 170 0002 00AF     		add	r7, sp, #0	@,,
 171              		.cfi_def_cfa_register 7
ARM GAS  C:\Users\STUDENT\AppData\Local\Temp\ccSZODy1.s 			page 5


  58:modules/rc_pot/rc_pot.c **** 	return (T_E_RC_READ_STATUS)rcadc_ReadChannelStatus(RC_ADC_PORT, E_RCADC_IRQ_CHANNEL5, E_RCADC_STAT
 172              		.loc 1 58 0
 173 0004 0122     		movs	r2, #1	@,
 174 0006 0521     		movs	r1, #5	@,
 175 0008 0248     		ldr	r0, .L9	@,
 176 000a FFF7FEFF 		bl	rcadc_ReadChannelStatus	@
 177 000e 0346     		mov	r3, r0	@ tmp112,
  59:modules/rc_pot/rc_pot.c **** }
 178              		.loc 1 59 0
 179 0010 1846     		mov	r0, r3	@, <retval>
 180 0012 80BD     		pop	{r7, pc}	@
 181              	.L10:
 182              		.align	2
 183              	.L9:
 184 0014 00400340 		.word	1073954816
 185              		.cfi_endproc
 186              	.LFE57:
 187              		.size	rcpot_GetReadingStatus, .-rcpot_GetReadingStatus
 188              		.section	.text.rcpot_GetVoltageAnalog,"ax",%progbits
 189              		.align	2
 190              		.global	rcpot_GetVoltageAnalog
 191              		.thumb
 192              		.thumb_func
 193              		.type	rcpot_GetVoltageAnalog, %function
 194              	rcpot_GetVoltageAnalog:
 195              	.LFB58:
  60:modules/rc_pot/rc_pot.c **** 
  61:modules/rc_pot/rc_pot.c **** /**
  62:modules/rc_pot/rc_pot.c ****  * \brief	Converts the digital ADC value into analog value (mV)
  63:modules/rc_pot/rc_pot.c ****  * \return 	Analog voltage
  64:modules/rc_pot/rc_pot.c ****  */
  65:modules/rc_pot/rc_pot.c **** T_UWORD rcpot_GetVoltageAnalog(T_UWORD luw_DigitalVoltage)
  66:modules/rc_pot/rc_pot.c **** {
 196              		.loc 1 66 0
 197              		.cfi_startproc
 198              		@ args = 0, pretend = 0, frame = 8
 199              		@ frame_needed = 1, uses_anonymous_args = 0
 200              		@ link register save eliminated.
 201 0000 80B4     		push	{r7}	@
 202              		.cfi_def_cfa_offset 4
 203              		.cfi_offset 7, -4
 204 0002 83B0     		sub	sp, sp, #12	@,,
 205              		.cfi_def_cfa_offset 16
 206 0004 00AF     		add	r7, sp, #0	@,,
 207              		.cfi_def_cfa_register 7
 208 0006 0346     		mov	r3, r0	@ tmp112, luw_DigitalVoltage
 209 0008 FB80     		strh	r3, [r7, #6]	@ movhi	@ tmp113, luw_DigitalVoltage
  67:modules/rc_pot/rc_pot.c **** 	//TBD
  68:modules/rc_pot/rc_pot.c **** 	return 0;
 210              		.loc 1 68 0
 211 000a 0023     		movs	r3, #0	@ D.5690,
  69:modules/rc_pot/rc_pot.c **** }
 212              		.loc 1 69 0
 213 000c 1846     		mov	r0, r3	@, <retval>
 214 000e 0C37     		adds	r7, r7, #12	@,,
 215              		.cfi_def_cfa_offset 4
 216 0010 BD46     		mov	sp, r7	@,
ARM GAS  C:\Users\STUDENT\AppData\Local\Temp\ccSZODy1.s 			page 6


 217              		.cfi_def_cfa_register 13
 218              		@ sp needed	@
 219 0012 80BC     		pop	{r7}	@
 220              		.cfi_restore 7
 221              		.cfi_def_cfa_offset 0
 222 0014 7047     		bx	lr	@
 223              		.cfi_endproc
 224              	.LFE58:
 225              		.size	rcpot_GetVoltageAnalog, .-rcpot_GetVoltageAnalog
 226 0016 00BF     		.section	.text.rcpot_GetVoltageDigital,"ax",%progbits
 227              		.align	2
 228              		.global	rcpot_GetVoltageDigital
 229              		.thumb
 230              		.thumb_func
 231              		.type	rcpot_GetVoltageDigital, %function
 232              	rcpot_GetVoltageDigital:
 233              	.LFB59:
  70:modules/rc_pot/rc_pot.c **** 
  71:modules/rc_pot/rc_pot.c **** /**
  72:modules/rc_pot/rc_pot.c ****  * \brief	Gets the current potentiometer digital value (digits)
  73:modules/rc_pot/rc_pot.c ****  * \return 	Digital voltage
  74:modules/rc_pot/rc_pot.c ****  */
  75:modules/rc_pot/rc_pot.c **** T_UWORD rcpot_GetVoltageDigital(void)
  76:modules/rc_pot/rc_pot.c **** {
 234              		.loc 1 76 0
 235              		.cfi_startproc
 236              		@ args = 0, pretend = 0, frame = 0
 237              		@ frame_needed = 1, uses_anonymous_args = 0
 238 0000 80B5     		push	{r7, lr}	@
 239              		.cfi_def_cfa_offset 8
 240              		.cfi_offset 7, -8
 241              		.cfi_offset 14, -4
 242 0002 00AF     		add	r7, sp, #0	@,,
 243              		.cfi_def_cfa_register 7
  77:modules/rc_pot/rc_pot.c **** 	return rcadc_ReadChannelData(RC_ADC_PORT, E_RCADC_IRQ_CHANNEL5);
 244              		.loc 1 77 0
 245 0004 0521     		movs	r1, #5	@,
 246 0006 0348     		ldr	r0, .L15	@,
 247 0008 FFF7FEFF 		bl	rcadc_ReadChannelData	@
 248 000c 0346     		mov	r3, r0	@ tmp112,
  78:modules/rc_pot/rc_pot.c **** }
 249              		.loc 1 78 0
 250 000e 1846     		mov	r0, r3	@, <retval>
 251 0010 80BD     		pop	{r7, pc}	@
 252              	.L16:
 253 0012 00BF     		.align	2
 254              	.L15:
 255 0014 00400340 		.word	1073954816
 256              		.cfi_endproc
 257              	.LFE59:
 258              		.size	rcpot_GetVoltageDigital, .-rcpot_GetVoltageDigital
 259              		.text
 260              	.Letext0:
 261              		.file 2 "c:\\program files (x86)\\gnu tools arm embedded\\5.4 2016q3\\arm-none-eabi\\include\\mach
 262              		.file 3 "c:\\program files (x86)\\gnu tools arm embedded\\5.4 2016q3\\arm-none-eabi\\include\\sys\
 263              		.file 4 "system/LPC17xx.h"
 264              		.file 5 "config/rc_stdtypedefs.h"
ARM GAS  C:\Users\STUDENT\AppData\Local\Temp\ccSZODy1.s 			page 7


 265              		.file 6 "drivers/rc_adc/rc_adc.h"
 266              		.file 7 "drivers/rc_pinsel/rc_pinsel.h"
 267              		.file 8 "system/core_cm3.h"