ARM GAS  C:\Users\STUDENT\AppData\Local\Temp\ccEWM95F.s 			page 1


   1              		.syntax unified
   2              		.cpu cortex-m3
   3              		.fpu softvfp
   4              		.eabi_attribute 20, 1	@ Tag_ABI_FP_denormal
   5              		.eabi_attribute 21, 1	@ Tag_ABI_FP_exceptions
   6              		.eabi_attribute 23, 3	@ Tag_ABI_FP_number_model
   7              		.eabi_attribute 24, 1	@ Tag_ABI_align8_needed
   8              		.eabi_attribute 25, 1	@ Tag_ABI_align8_preserved
   9              		.eabi_attribute 26, 1	@ Tag_ABI_enum_size
  10              		.eabi_attribute 30, 6	@ Tag_ABI_optimization_goals
  11              		.eabi_attribute 34, 1	@ Tag_CPU_unaligned_access
  12              		.eabi_attribute 18, 4	@ Tag_ABI_PCS_wchar_t
  13              		.file	"rc_task_leds.c"
  14              	@ GNU C89 (GNU Tools for ARM Embedded Processors) version 5.4.1 20160919 (release) [ARM/embedded-5-
  15              	@	compiled by GNU C version 4.7.4, GMP version 4.3.2, MPFR version 2.4.2, MPC version 0.8.1
  16              	@ GGC heuristics: --param ggc-min-expand=100 --param ggc-min-heapsize=131072
  17              	@ options passed:  -I . -I config -I system -I core -I drivers -I FreeRTOS
  18              	@ -I FreeRTOS/include -I FreeRTOS/portable/GCC/ARM_CM3 -I FreeRTOS/portable
  19              	@ -I tasks/rc_task_leds -I tasks/rc_task_pot -I modules/rc_leds
  20              	@ -I modules/rc_pot -I drivers/rc_system -I drivers/rc_gpio
  21              	@ -I drivers/rc_uart -I drivers/rc_pinsel -I drivers/rc_timer
  22              	@ -I drivers/rc_adc -imultilib armv7-m
  23              	@ -iprefix c:\program files (x86)\gnu tools arm embedded\5.4 2016q3\bin\../lib/gcc/arm-none-eabi/5.
  24              	@ -isysroot c:\program files (x86)\gnu tools arm embedded\5.4 2016q3\bin\../arm-none-eabi
  25              	@ -MD out/rc_task_leds.d -MF out/rc_task_leds.d -MP -MQ out/rc_task_leds.o
  26              	@ -D__USES_INITFINI__ tasks/rc_task_leds/rc_task_leds.c -mcpu=cortex-m3
  27              	@ -mthumb -auxbase-strip out/rc_task_leds.o -g -ggdb3 -O0 -Wall
  28              	@ -Wstrict-prototypes -Wextra -std=gnu90 -ffunction-sections
  29              	@ -fdata-sections -fverbose-asm
  30              	@ options enabled:  -faggressive-loop-optimizations -fauto-inc-dec
  31              	@ -fchkp-check-incomplete-type -fchkp-check-read -fchkp-check-write
  32              	@ -fchkp-instrument-calls -fchkp-narrow-bounds -fchkp-optimize
  33              	@ -fchkp-store-bounds -fchkp-use-static-bounds
  34              	@ -fchkp-use-static-const-bounds -fchkp-use-wrappers -fcommon
  35              	@ -fdata-sections -fdelete-null-pointer-checks -fdwarf2-cfi-asm
  36              	@ -fearly-inlining -feliminate-unused-debug-types -ffunction-cse
  37              	@ -ffunction-sections -fgcse-lm -fgnu-runtime -fgnu-unique -fident
  38              	@ -finline-atomics -fira-hoist-pressure -fira-share-save-slots
  39              	@ -fira-share-spill-slots -fivopts -fkeep-static-consts
  40              	@ -fleading-underscore -flifetime-dse -flto-odr-type-merging -fmath-errno
  41              	@ -fmerge-debug-strings -fpeephole -fprefetch-loop-arrays
  42              	@ -freg-struct-return -fsched-critical-path-heuristic
  43              	@ -fsched-dep-count-heuristic -fsched-group-heuristic -fsched-interblock
  44              	@ -fsched-last-insn-heuristic -fsched-rank-heuristic -fsched-spec
  45              	@ -fsched-spec-insn-heuristic -fsched-stalled-insns-dep
  46              	@ -fsemantic-interposition -fshow-column -fsigned-zeros
  47              	@ -fsplit-ivs-in-unroller -fstdarg-opt -fstrict-volatile-bitfields
  48              	@ -fsync-libcalls -ftrapping-math -ftree-coalesce-vars -ftree-cselim
  49              	@ -ftree-forwprop -ftree-loop-if-convert -ftree-loop-im -ftree-loop-ivcanon
  50              	@ -ftree-loop-optimize -ftree-parallelize-loops= -ftree-phiprop
  51              	@ -ftree-reassoc -ftree-scev-cprop -funit-at-a-time -fverbose-asm
  52              	@ -fzero-initialized-in-bss -masm-syntax-unified -mfix-cortex-m3-ldrd
  53              	@ -mlittle-endian -mpic-data-is-text-relative -msched-prolog -mthumb
  54              	@ -munaligned-access -mvectorize-with-neon-quad
  55              	
  56              		.text
  57              	.Ltext0:
ARM GAS  C:\Users\STUDENT\AppData\Local\Temp\ccEWM95F.s 			page 2


  58              		.cfi_sections	.debug_frame
  59              		.comm	xHandleLEDs,4,4
  60              		.section	.text.rctask_LEDs,"ax",%progbits
  61              		.align	2
  62              		.global	rctask_LEDs
  63              		.thumb
  64              		.thumb_func
  65              		.type	rctask_LEDs, %function
  66              	rctask_LEDs:
  67              	.LFB56:
  68              		.file 1 "tasks/rc_task_leds/rc_task_leds.c"
   1:tasks/rc_task_leds/rc_task_leds.c **** /**
   2:tasks/rc_task_leds/rc_task_leds.c ****  * \file	rc_task_leds.c
   3:tasks/rc_task_leds/rc_task_leds.c ****  * \brief	LEDs task
   4:tasks/rc_task_leds/rc_task_leds.c ****  * \details	Implements LEDs functions
   5:tasks/rc_task_leds/rc_task_leds.c ****  * \author	Cosmin Marcu
   6:tasks/rc_task_leds/rc_task_leds.c ****  * \date	Nov 02, 2015
   7:tasks/rc_task_leds/rc_task_leds.c ****  * \version 1.0.1
   8:tasks/rc_task_leds/rc_task_leds.c ****  */
   9:tasks/rc_task_leds/rc_task_leds.c **** 
  10:tasks/rc_task_leds/rc_task_leds.c **** /* System and general headers */
  11:tasks/rc_task_leds/rc_task_leds.c **** #include "rc_task_leds.h"
  12:tasks/rc_task_leds/rc_task_leds.c **** 
  13:tasks/rc_task_leds/rc_task_leds.c **** #include "../../modules/rc_leds/rc_leds.h"
  14:tasks/rc_task_leds/rc_task_leds.c **** #include "rc_stdtypedefs.h"
  15:tasks/rc_task_leds/rc_task_leds.c **** #include "rc_board.h"
  16:tasks/rc_task_leds/rc_task_leds.c **** #include "rc_gpio.h"
  17:tasks/rc_task_leds/rc_task_leds.c **** 
  18:tasks/rc_task_leds/rc_task_leds.c **** /**
  19:tasks/rc_task_leds/rc_task_leds.c ****  * \ingroup  rc_task_leds
  20:tasks/rc_task_leds/rc_task_leds.c ****  * \defgroup Task_LEDs_functions LEDs task
  21:tasks/rc_task_leds/rc_task_leds.c ****  *  FreeRTOS task for LEDs
  22:tasks/rc_task_leds/rc_task_leds.c ****  *  @{
  23:tasks/rc_task_leds/rc_task_leds.c ****  */
  24:tasks/rc_task_leds/rc_task_leds.c **** 
  25:tasks/rc_task_leds/rc_task_leds.c **** /**
  26:tasks/rc_task_leds/rc_task_leds.c **** * \brief 	RTOS LEDs task
  27:tasks/rc_task_leds/rc_task_leds.c **** * \details 	TBD.
  28:tasks/rc_task_leds/rc_task_leds.c **** */
  29:tasks/rc_task_leds/rc_task_leds.c **** void rctask_LEDs(void *pvParameters)
  30:tasks/rc_task_leds/rc_task_leds.c **** {
  69              		.loc 1 30 0
  70              		.cfi_startproc
  71              		@ args = 0, pretend = 0, frame = 16
  72              		@ frame_needed = 1, uses_anonymous_args = 0
  73 0000 80B5     		push	{r7, lr}	@
  74              		.cfi_def_cfa_offset 8
  75              		.cfi_offset 7, -8
  76              		.cfi_offset 14, -4
  77 0002 84B0     		sub	sp, sp, #16	@,,
  78              		.cfi_def_cfa_offset 24
  79 0004 00AF     		add	r7, sp, #0	@,,
  80              		.cfi_def_cfa_register 7
  81 0006 7860     		str	r0, [r7, #4]	@ pvParameters, pvParameters
  31:tasks/rc_task_leds/rc_task_leds.c **** 	T_E_RCLEDS_STATE le_LedsState = E_RCLEDS_STATE_NONE;
  82              		.loc 1 31 0
  83 0008 0023     		movs	r3, #0	@ tmp111,
ARM GAS  C:\Users\STUDENT\AppData\Local\Temp\ccEWM95F.s 			page 3


  84 000a FB73     		strb	r3, [r7, #15]	@ tmp112, le_LedsState
  85              	.L6:
  32:tasks/rc_task_leds/rc_task_leds.c **** 
  33:tasks/rc_task_leds/rc_task_leds.c **** 	if (NULL == pvParameters) {};	//avoid compiler warning
  34:tasks/rc_task_leds/rc_task_leds.c **** 
  35:tasks/rc_task_leds/rc_task_leds.c **** 	while(1)
  36:tasks/rc_task_leds/rc_task_leds.c **** 	{
  37:tasks/rc_task_leds/rc_task_leds.c **** 		//Read current LEDs state
  38:tasks/rc_task_leds/rc_task_leds.c **** 		le_LedsState = rcleds_GetState();
  86              		.loc 1 38 0
  87 000c FFF7FEFF 		bl	rcleds_GetState	@
  88 0010 0346     		mov	r3, r0	@ tmp113,
  89 0012 FB73     		strb	r3, [r7, #15]	@ tmp114, le_LedsState
  39:tasks/rc_task_leds/rc_task_leds.c **** 
  40:tasks/rc_task_leds/rc_task_leds.c **** 		//Check the current state of the task
  41:tasks/rc_task_leds/rc_task_leds.c **** 		switch(le_LedsState)
  90              		.loc 1 41 0
  91 0014 FB7B     		ldrb	r3, [r7, #15]	@ zero_extendqisi2	@ D.5860, le_LedsState
  92 0016 012B     		cmp	r3, #1	@ D.5860,
  93 0018 02D0     		beq	.L3	@,
  94 001a 062B     		cmp	r3, #6	@ D.5860,
  95 001c 0AD0     		beq	.L4	@,
  42:tasks/rc_task_leds/rc_task_leds.c **** 		{
  43:tasks/rc_task_leds/rc_task_leds.c **** 		case E_RCLEDS_STATE_RED1:
  44:tasks/rc_task_leds/rc_task_leds.c **** 			//Turn off all LEDS
  45:tasks/rc_task_leds/rc_task_leds.c **** 			rcleds_ClearLEDs();
  46:tasks/rc_task_leds/rc_task_leds.c **** 			//Turn on RED LED1
  47:tasks/rc_task_leds/rc_task_leds.c **** 			rcgpio_ClearPin(RC_RGBLEDS_PORT, RC_RGBLED1_RED_PIN);
  48:tasks/rc_task_leds/rc_task_leds.c **** 			//Switch to State None
  49:tasks/rc_task_leds/rc_task_leds.c **** 			rcleds_SetState(E_RCLEDS_STATE_NONE);
  50:tasks/rc_task_leds/rc_task_leds.c **** 			break;
  51:tasks/rc_task_leds/rc_task_leds.c **** 		case E_RCLEDS_STATE_BLUE2:
  52:tasks/rc_task_leds/rc_task_leds.c **** 			//Turn off all LEDS
  53:tasks/rc_task_leds/rc_task_leds.c **** 			rcleds_ClearLEDs();
  54:tasks/rc_task_leds/rc_task_leds.c **** 			//Turn on BLUE LED2
  55:tasks/rc_task_leds/rc_task_leds.c **** 			rcgpio_ClearPin(RC_RGBLEDS_PORT, RC_RGBLED2_BLUE_PIN);
  56:tasks/rc_task_leds/rc_task_leds.c **** 			//Switch to State None
  57:tasks/rc_task_leds/rc_task_leds.c **** 			rcleds_SetState(E_RCLEDS_STATE_NONE);
  58:tasks/rc_task_leds/rc_task_leds.c **** 			break;
  59:tasks/rc_task_leds/rc_task_leds.c **** 		default:
  60:tasks/rc_task_leds/rc_task_leds.c **** 			//Do nothing
  61:tasks/rc_task_leds/rc_task_leds.c **** 			break;
  96              		.loc 1 61 0
  97 001e 13E0     		b	.L5	@
  98              	.L3:
  45:tasks/rc_task_leds/rc_task_leds.c **** 			//Turn on RED LED1
  99              		.loc 1 45 0
 100 0020 FFF7FEFF 		bl	rcleds_ClearLEDs	@
  47:tasks/rc_task_leds/rc_task_leds.c **** 			//Switch to State None
 101              		.loc 1 47 0
 102 0024 0021     		movs	r1, #0	@,
 103 0026 0220     		movs	r0, #2	@,
 104 0028 FFF7FEFF 		bl	rcgpio_ClearPin	@
  49:tasks/rc_task_leds/rc_task_leds.c **** 			break;
 105              		.loc 1 49 0
 106 002c 0020     		movs	r0, #0	@,
 107 002e FFF7FEFF 		bl	rcleds_SetState	@
ARM GAS  C:\Users\STUDENT\AppData\Local\Temp\ccEWM95F.s 			page 4


  50:tasks/rc_task_leds/rc_task_leds.c **** 		case E_RCLEDS_STATE_BLUE2:
 108              		.loc 1 50 0
 109 0032 09E0     		b	.L5	@
 110              	.L4:
  53:tasks/rc_task_leds/rc_task_leds.c **** 			//Turn on BLUE LED2
 111              		.loc 1 53 0
 112 0034 FFF7FEFF 		bl	rcleds_ClearLEDs	@
  55:tasks/rc_task_leds/rc_task_leds.c **** 			//Switch to State None
 113              		.loc 1 55 0
 114 0038 0421     		movs	r1, #4	@,
 115 003a 0220     		movs	r0, #2	@,
 116 003c FFF7FEFF 		bl	rcgpio_ClearPin	@
  57:tasks/rc_task_leds/rc_task_leds.c **** 			break;
 117              		.loc 1 57 0
 118 0040 0020     		movs	r0, #0	@,
 119 0042 FFF7FEFF 		bl	rcleds_SetState	@
  58:tasks/rc_task_leds/rc_task_leds.c **** 		default:
 120              		.loc 1 58 0
 121 0046 00BF     		nop
 122              	.L5:
  62:tasks/rc_task_leds/rc_task_leds.c **** 		}
  63:tasks/rc_task_leds/rc_task_leds.c **** 		vTaskDelay(50);
 123              		.loc 1 63 0
 124 0048 3220     		movs	r0, #50	@,
 125 004a FFF7FEFF 		bl	vTaskDelay	@
  64:tasks/rc_task_leds/rc_task_leds.c **** 	}
 126              		.loc 1 64 0
 127 004e DDE7     		b	.L6	@
 128              		.cfi_endproc
 129              	.LFE56:
 130              		.size	rctask_LEDs, .-rctask_LEDs
 131              		.text
 132              	.Letext0:
 133              		.file 2 "c:\\program files (x86)\\gnu tools arm embedded\\5.4 2016q3\\arm-none-eabi\\include\\mach
 134              		.file 3 "c:\\program files (x86)\\gnu tools arm embedded\\5.4 2016q3\\arm-none-eabi\\include\\sys\
 135              		.file 4 "FreeRTOS/include/task.h"
 136              		.file 5 "config/rc_stdtypedefs.h"
 137              		.file 6 "tasks/rc_task_leds/../../modules/rc_leds/rc_leds.h"
 138              		.file 7 "tasks/rc_task_leds/rc_task_leds.h"
 139              		.file 8 "system/core_cm3.h"