ARM GAS  C:\Users\STUDENT\AppData\Local\Temp\ccqXhUYN.s 			page 1


   1              		.syntax unified
   2              		.cpu cortex-m3
   3              		.fpu softvfp
   4              		.eabi_attribute 20, 1	@ Tag_ABI_FP_denormal
   5              		.eabi_attribute 21, 1	@ Tag_ABI_FP_exceptions
   6              		.eabi_attribute 23, 3	@ Tag_ABI_FP_number_model
   7              		.eabi_attribute 24, 1	@ Tag_ABI_align8_needed
   8              		.eabi_attribute 25, 1	@ Tag_ABI_align8_preserved
   9              		.eabi_attribute 26, 1	@ Tag_ABI_enum_size
  10              		.eabi_attribute 30, 6	@ Tag_ABI_optimization_goals
  11              		.eabi_attribute 34, 1	@ Tag_CPU_unaligned_access
  12              		.eabi_attribute 18, 4	@ Tag_ABI_PCS_wchar_t
  13              		.file	"rc_task_pot.c"
  14              	@ GNU C89 (GNU Tools for ARM Embedded Processors) version 5.4.1 20160919 (release) [ARM/embedded-5-
  15              	@	compiled by GNU C version 4.7.4, GMP version 4.3.2, MPFR version 2.4.2, MPC version 0.8.1
  16              	@ GGC heuristics: --param ggc-min-expand=100 --param ggc-min-heapsize=131072
  17              	@ options passed:  -I . -I config -I system -I core -I drivers -I FreeRTOS
  18              	@ -I FreeRTOS/include -I FreeRTOS/portable/GCC/ARM_CM3 -I FreeRTOS/portable
  19              	@ -I tasks/rc_task_leds -I tasks/rc_task_pot -I modules/rc_leds
  20              	@ -I modules/rc_pot -I drivers/rc_system -I drivers/rc_gpio
  21              	@ -I drivers/rc_uart -I drivers/rc_pinsel -I drivers/rc_timer
  22              	@ -I drivers/rc_adc -imultilib armv7-m
  23              	@ -iprefix c:\program files (x86)\gnu tools arm embedded\5.4 2016q3\bin\../lib/gcc/arm-none-eabi/5.
  24              	@ -isysroot c:\program files (x86)\gnu tools arm embedded\5.4 2016q3\bin\../arm-none-eabi
  25              	@ -MD out/rc_task_pot.d -MF out/rc_task_pot.d -MP -MQ out/rc_task_pot.o
  26              	@ -D__USES_INITFINI__ tasks/rc_task_pot/rc_task_pot.c -mcpu=cortex-m3
  27              	@ -mthumb -auxbase-strip out/rc_task_pot.o -g -ggdb3 -O0 -Wall
  28              	@ -Wstrict-prototypes -Wextra -std=gnu90 -ffunction-sections
  29              	@ -fdata-sections -fverbose-asm
  30              	@ options enabled:  -faggressive-loop-optimizations -fauto-inc-dec
  31              	@ -fchkp-check-incomplete-type -fchkp-check-read -fchkp-check-write
  32              	@ -fchkp-instrument-calls -fchkp-narrow-bounds -fchkp-optimize
  33              	@ -fchkp-store-bounds -fchkp-use-static-bounds
  34              	@ -fchkp-use-static-const-bounds -fchkp-use-wrappers -fcommon
  35              	@ -fdata-sections -fdelete-null-pointer-checks -fdwarf2-cfi-asm
  36              	@ -fearly-inlining -feliminate-unused-debug-types -ffunction-cse
  37              	@ -ffunction-sections -fgcse-lm -fgnu-runtime -fgnu-unique -fident
  38              	@ -finline-atomics -fira-hoist-pressure -fira-share-save-slots
  39              	@ -fira-share-spill-slots -fivopts -fkeep-static-consts
  40              	@ -fleading-underscore -flifetime-dse -flto-odr-type-merging -fmath-errno
  41              	@ -fmerge-debug-strings -fpeephole -fprefetch-loop-arrays
  42              	@ -freg-struct-return -fsched-critical-path-heuristic
  43              	@ -fsched-dep-count-heuristic -fsched-group-heuristic -fsched-interblock
  44              	@ -fsched-last-insn-heuristic -fsched-rank-heuristic -fsched-spec
  45              	@ -fsched-spec-insn-heuristic -fsched-stalled-insns-dep
  46              	@ -fsemantic-interposition -fshow-column -fsigned-zeros
  47              	@ -fsplit-ivs-in-unroller -fstdarg-opt -fstrict-volatile-bitfields
  48              	@ -fsync-libcalls -ftrapping-math -ftree-coalesce-vars -ftree-cselim
  49              	@ -ftree-forwprop -ftree-loop-if-convert -ftree-loop-im -ftree-loop-ivcanon
  50              	@ -ftree-loop-optimize -ftree-parallelize-loops= -ftree-phiprop
  51              	@ -ftree-reassoc -ftree-scev-cprop -funit-at-a-time -fverbose-asm
  52              	@ -fzero-initialized-in-bss -masm-syntax-unified -mfix-cortex-m3-ldrd
  53              	@ -mlittle-endian -mpic-data-is-text-relative -msched-prolog -mthumb
  54              	@ -munaligned-access -mvectorize-with-neon-quad
  55              	
  56              		.text
  57              	.Ltext0:
ARM GAS  C:\Users\STUDENT\AppData\Local\Temp\ccqXhUYN.s 			page 2


  58              		.cfi_sections	.debug_frame
  59              		.comm	xHandlePot,4,4
  60              		.section	.text.rctask_pot,"ax",%progbits
  61              		.align	2
  62              		.global	rctask_pot
  63              		.thumb
  64              		.thumb_func
  65              		.type	rctask_pot, %function
  66              	rctask_pot:
  67              	.LFB56:
  68              		.file 1 "tasks/rc_task_pot/rc_task_pot.c"
   1:tasks/rc_task_pot/rc_task_pot.c **** /**
   2:tasks/rc_task_pot/rc_task_pot.c ****  * \file	rc_task_pot.c
   3:tasks/rc_task_pot/rc_task_pot.c ****  * \brief	Potentiometer task
   4:tasks/rc_task_pot/rc_task_pot.c ****  * \details	Implements potentiometer task functions
   5:tasks/rc_task_pot/rc_task_pot.c ****  * \author	Cosmin Marcu
   6:tasks/rc_task_pot/rc_task_pot.c ****  * \date	Nov 08, 2015
   7:tasks/rc_task_pot/rc_task_pot.c ****  * \version 1.0.1
   8:tasks/rc_task_pot/rc_task_pot.c ****  */
   9:tasks/rc_task_pot/rc_task_pot.c **** 
  10:tasks/rc_task_pot/rc_task_pot.c **** /* System and general headers */
  11:tasks/rc_task_pot/rc_task_pot.c **** #include "rc_task_pot.h"
  12:tasks/rc_task_pot/rc_task_pot.c **** 
  13:tasks/rc_task_pot/rc_task_pot.c **** #include "rc_pot.h"
  14:tasks/rc_task_pot/rc_task_pot.c **** #include "rc_leds.h"
  15:tasks/rc_task_pot/rc_task_pot.c **** #include "rc_stdtypedefs.h"
  16:tasks/rc_task_pot/rc_task_pot.c **** #include "rc_board.h"
  17:tasks/rc_task_pot/rc_task_pot.c **** #include "rc_gpio.h"
  18:tasks/rc_task_pot/rc_task_pot.c **** 
  19:tasks/rc_task_pot/rc_task_pot.c **** /**
  20:tasks/rc_task_pot/rc_task_pot.c ****  * \ingroup  rc_task_pot
  21:tasks/rc_task_pot/rc_task_pot.c ****  * \defgroup Task_pot_functions Potentiometer task
  22:tasks/rc_task_pot/rc_task_pot.c ****  *  FreeRTOS task for Potentiometer reading
  23:tasks/rc_task_pot/rc_task_pot.c ****  *  @{
  24:tasks/rc_task_pot/rc_task_pot.c ****  */
  25:tasks/rc_task_pot/rc_task_pot.c **** 
  26:tasks/rc_task_pot/rc_task_pot.c **** /**
  27:tasks/rc_task_pot/rc_task_pot.c **** * \brief 	RTOS Potentiometer task
  28:tasks/rc_task_pot/rc_task_pot.c **** * \details 	TBD.
  29:tasks/rc_task_pot/rc_task_pot.c **** */
  30:tasks/rc_task_pot/rc_task_pot.c **** void rctask_pot(void *pvParameters)
  31:tasks/rc_task_pot/rc_task_pot.c **** {
  69              		.loc 1 31 0
  70              		.cfi_startproc
  71              		@ args = 0, pretend = 0, frame = 16
  72              		@ frame_needed = 1, uses_anonymous_args = 0
  73 0000 80B5     		push	{r7, lr}	@
  74              		.cfi_def_cfa_offset 8
  75              		.cfi_offset 7, -8
  76              		.cfi_offset 14, -4
  77 0002 84B0     		sub	sp, sp, #16	@,,
  78              		.cfi_def_cfa_offset 24
  79 0004 00AF     		add	r7, sp, #0	@,,
  80              		.cfi_def_cfa_register 7
  81 0006 7860     		str	r0, [r7, #4]	@ pvParameters, pvParameters
  32:tasks/rc_task_pot/rc_task_pot.c **** 	T_UWORD	luw_DigitalVoltage = 0u;
  82              		.loc 1 32 0
ARM GAS  C:\Users\STUDENT\AppData\Local\Temp\ccqXhUYN.s 			page 3


  83 0008 0023     		movs	r3, #0	@ tmp112,
  84 000a FB81     		strh	r3, [r7, #14]	@ movhi	@ tmp111, luw_DigitalVoltage
  85              	.L5:
  33:tasks/rc_task_pot/rc_task_pot.c **** 	if (NULL == pvParameters) {};	//avoid compiler warning
  34:tasks/rc_task_pot/rc_task_pot.c **** 
  35:tasks/rc_task_pot/rc_task_pot.c **** 	while(1)
  36:tasks/rc_task_pot/rc_task_pot.c **** 	{
  37:tasks/rc_task_pot/rc_task_pot.c **** 		//Read current Potentiometer (digital) value
  38:tasks/rc_task_pot/rc_task_pot.c **** 		rcpot_StartReading();
  86              		.loc 1 38 0
  87 000c FFF7FEFF 		bl	rcpot_StartReading	@
  39:tasks/rc_task_pot/rc_task_pot.c **** 		vTaskDelay(50);
  88              		.loc 1 39 0
  89 0010 3220     		movs	r0, #50	@,
  90 0012 FFF7FEFF 		bl	vTaskDelay	@
  40:tasks/rc_task_pot/rc_task_pot.c **** 		if (E_RC_DONE == rcpot_GetReadingStatus())
  91              		.loc 1 40 0
  92 0016 FFF7FEFF 		bl	rcpot_GetReadingStatus	@
  93 001a 0346     		mov	r3, r0	@ tmp113,
  94 001c 012B     		cmp	r3, #1	@ D.6084,
  95 001e 03D1     		bne	.L2	@,
  41:tasks/rc_task_pot/rc_task_pot.c **** 		{
  42:tasks/rc_task_pot/rc_task_pot.c **** 			luw_DigitalVoltage = rcpot_GetVoltageDigital();
  96              		.loc 1 42 0
  97 0020 FFF7FEFF 		bl	rcpot_GetVoltageDigital	@
  98 0024 0346     		mov	r3, r0	@ tmp114,
  99 0026 FB81     		strh	r3, [r7, #14]	@ movhi	@ tmp115, luw_DigitalVoltage
 100              	.L2:
  43:tasks/rc_task_pot/rc_task_pot.c **** 		}
  44:tasks/rc_task_pot/rc_task_pot.c **** 
  45:tasks/rc_task_pot/rc_task_pot.c **** 		/* NOTE: luw_DigitalVoltage contains the digital value */
  46:tasks/rc_task_pot/rc_task_pot.c **** 		/* TODO: Add as state for each interval to avoid setting continuous the LEDs state */
  47:tasks/rc_task_pot/rc_task_pot.c **** 		if ((luw_DigitalVoltage >= 0u) && (luw_DigitalVoltage < 500u))
 101              		.loc 1 47 0
 102 0028 FB89     		ldrh	r3, [r7, #14]	@ tmp116, luw_DigitalVoltage
 103 002a B3F5FA7F 		cmp	r3, #500	@ tmp116,
 104 002e 02D2     		bcs	.L3	@,
  48:tasks/rc_task_pot/rc_task_pot.c **** 		{
  49:tasks/rc_task_pot/rc_task_pot.c **** 			rcleds_SetState(E_RCLEDS_STATE_RED1);
 105              		.loc 1 49 0
 106 0030 0120     		movs	r0, #1	@,
 107 0032 FFF7FEFF 		bl	rcleds_SetState	@
 108              	.L3:
  50:tasks/rc_task_pot/rc_task_pot.c **** 		}
  51:tasks/rc_task_pot/rc_task_pot.c **** 		if ((luw_DigitalVoltage >= 3500u) && (luw_DigitalVoltage < 4096u))
 109              		.loc 1 51 0
 110 0036 FB89     		ldrh	r3, [r7, #14]	@ tmp117, luw_DigitalVoltage
 111 0038 40F6AB52 		movw	r2, #3499	@ tmp118,
 112 003c 9342     		cmp	r3, r2	@ tmp117, tmp118
 113 003e 06D9     		bls	.L4	@,
 114              		.loc 1 51 0 is_stmt 0 discriminator 1
 115 0040 FB89     		ldrh	r3, [r7, #14]	@ tmp119, luw_DigitalVoltage
 116 0042 B3F5805F 		cmp	r3, #4096	@ tmp119,
 117 0046 02D2     		bcs	.L4	@,
  52:tasks/rc_task_pot/rc_task_pot.c **** 		{
  53:tasks/rc_task_pot/rc_task_pot.c **** 			rcleds_SetState(E_RCLEDS_STATE_BLUE2);
 118              		.loc 1 53 0 is_stmt 1
ARM GAS  C:\Users\STUDENT\AppData\Local\Temp\ccqXhUYN.s 			page 4


 119 0048 0620     		movs	r0, #6	@,
 120 004a FFF7FEFF 		bl	rcleds_SetState	@
 121              	.L4:
  54:tasks/rc_task_pot/rc_task_pot.c **** 		}
  55:tasks/rc_task_pot/rc_task_pot.c **** 		vTaskDelay(50);
 122              		.loc 1 55 0
 123 004e 3220     		movs	r0, #50	@,
 124 0050 FFF7FEFF 		bl	vTaskDelay	@
  56:tasks/rc_task_pot/rc_task_pot.c **** 	}
 125              		.loc 1 56 0
 126 0054 DAE7     		b	.L5	@
 127              		.cfi_endproc
 128              	.LFE56:
 129              		.size	rctask_pot, .-rctask_pot
 130 0056 00BF     		.text
 131              	.Letext0:
 132              		.file 2 "c:\\program files (x86)\\gnu tools arm embedded\\5.4 2016q3\\arm-none-eabi\\include\\mach
 133              		.file 3 "c:\\program files (x86)\\gnu tools arm embedded\\5.4 2016q3\\arm-none-eabi\\include\\sys\
 134              		.file 4 "FreeRTOS/include/task.h"
 135              		.file 5 "config/rc_stdtypedefs.h"
 136              		.file 6 "modules/rc_leds/rc_leds.h"
 137              		.file 7 "tasks/rc_task_pot/rc_task_pot.h"
 138              		.file 8 "system/core_cm3.h"