ARM GAS  C:\Users\COSMIN~1.MAR\AppData\Local\Temp\ccpiKZLq.s 			page 1


   1              		.syntax unified
   2              		.cpu cortex-m3
   3              		.fpu softvfp
   4              		.eabi_attribute 20, 1	@ Tag_ABI_FP_denormal
   5              		.eabi_attribute 21, 1	@ Tag_ABI_FP_exceptions
   6              		.eabi_attribute 23, 3	@ Tag_ABI_FP_number_model
   7              		.eabi_attribute 24, 1	@ Tag_ABI_align8_needed
   8              		.eabi_attribute 25, 1	@ Tag_ABI_align8_preserved
   9              		.eabi_attribute 26, 1	@ Tag_ABI_enum_size
  10              		.eabi_attribute 30, 6	@ Tag_ABI_optimization_goals
  11              		.eabi_attribute 34, 1	@ Tag_CPU_unaligned_access
  12              		.eabi_attribute 18, 4	@ Tag_ABI_PCS_wchar_t
  13              		.file	"rc_uart.c"
  14              	@ GNU C (GNU Tools for ARM Embedded Processors) version 4.9.3 20150303 (release) [ARM/embedded-4_9-
  15              	@	compiled by GNU C version 4.7.4, GMP version 4.3.2, MPFR version 2.4.2, MPC version 0.8.1
  16              	@ GGC heuristics: --param ggc-min-expand=100 --param ggc-min-heapsize=131072
  17              	@ options passed:  -I . -I config -I system -I core -I drivers -I FreeRTOS
  18              	@ -I FreeRTOS/include -I FreeRTOS/portable/GCC/ARM_CM3 -I FreeRTOS/portable
  19              	@ -I tasks/rc_task_leds -I tasks/rc_task_pot -I modules/rc_leds
  20              	@ -I modules/rc_pot -I drivers/rc_system -I drivers/rc_gpio
  21              	@ -I drivers/rc_uart -I drivers/rc_pinsel -I drivers/rc_timer
  22              	@ -I drivers/rc_adc -imultilib armv7-m
  23              	@ -iprefix c:\gnu tools arm embedded\4.9 2015q1\bin\../lib/gcc/arm-none-eabi/4.9.3/
  24              	@ -isysroot c:\gnu tools arm embedded\4.9 2015q1\bin\../arm-none-eabi
  25              	@ -MD out/rc_uart.d -MF out/rc_uart.d -MP -MQ out/rc_uart.o
  26              	@ -D__USES_INITFINI__ drivers/rc_uart/rc_uart.c -mcpu=cortex-m3 -mthumb
  27              	@ -auxbase-strip out/rc_uart.o -g -ggdb3 -O0 -Wall -Wstrict-prototypes
  28              	@ -Wextra -std=gnu90 -ffunction-sections -fdata-sections -fverbose-asm
  29              	@ options enabled:  -faggressive-loop-optimizations -fauto-inc-dec -fcommon
  30              	@ -fdata-sections -fdelete-null-pointer-checks -fdwarf2-cfi-asm
  31              	@ -fearly-inlining -feliminate-unused-debug-types -ffunction-cse
  32              	@ -ffunction-sections -fgcse-lm -fgnu-runtime -fgnu-unique -fident
  33              	@ -finline-atomics -fira-hoist-pressure -fira-share-save-slots
  34              	@ -fira-share-spill-slots -fivopts -fkeep-static-consts
  35              	@ -fleading-underscore -flifetime-dse -fmath-errno -fmerge-debug-strings
  36              	@ -fpeephole -fprefetch-loop-arrays -freg-struct-return
  37              	@ -fsched-critical-path-heuristic -fsched-dep-count-heuristic
  38              	@ -fsched-group-heuristic -fsched-interblock -fsched-last-insn-heuristic
  39              	@ -fsched-rank-heuristic -fsched-spec -fsched-spec-insn-heuristic
  40              	@ -fsched-stalled-insns-dep -fshow-column -fsigned-zeros
  41              	@ -fsplit-ivs-in-unroller -fstrict-volatile-bitfields -fsync-libcalls
  42              	@ -ftrapping-math -ftree-coalesce-vars -ftree-cselim -ftree-forwprop
  43              	@ -ftree-loop-if-convert -ftree-loop-im -ftree-loop-ivcanon
  44              	@ -ftree-loop-optimize -ftree-parallelize-loops= -ftree-phiprop
  45              	@ -ftree-reassoc -ftree-scev-cprop -funit-at-a-time -fverbose-asm
  46              	@ -fzero-initialized-in-bss -mfix-cortex-m3-ldrd -mlittle-endian -mlra
  47              	@ -mpic-data-is-text-relative -msched-prolog -mthumb -munaligned-access
  48              	@ -mvectorize-with-neon-quad
  49              	
  50              		.text
  51              	.Ltext0:
  52              		.cfi_sections	.debug_frame
  53              		.section	.text.rcuart_Init,"ax",%progbits
  54              		.align	2
  55              		.global	rcuart_Init
  56              		.thumb
  57              		.thumb_func
ARM GAS  C:\Users\COSMIN~1.MAR\AppData\Local\Temp\ccpiKZLq.s 			page 2


  58              		.type	rcuart_Init, %function
  59              	rcuart_Init:
  60              	.LFB55:
  61              		.file 1 "drivers/rc_uart/rc_uart.c"
   1:drivers/rc_uart/rc_uart.c **** /**
   2:drivers/rc_uart/rc_uart.c ****  * \file	rc_uart.c
   3:drivers/rc_uart/rc_uart.c ****  * \brief	Implements the interface functions with the UART peripheral
   4:drivers/rc_uart/rc_uart.c ****  * \details	Implements the functions which communicate directly with the
   5:drivers/rc_uart/rc_uart.c ****  * 			LPC17xx UART peripheral
   6:drivers/rc_uart/rc_uart.c ****  * \author	Cosmin Marcu
   7:drivers/rc_uart/rc_uart.c ****  * \date	29.05.2015
   8:drivers/rc_uart/rc_uart.c ****  * \version 1.0.1
   9:drivers/rc_uart/rc_uart.c ****  */
  10:drivers/rc_uart/rc_uart.c **** 
  11:drivers/rc_uart/rc_uart.c **** /* Includes */
  12:drivers/rc_uart/rc_uart.c **** #include "rc_uart.h"
  13:drivers/rc_uart/rc_uart.c **** 
  14:drivers/rc_uart/rc_uart.c **** /* Begin functions implementation */
  15:drivers/rc_uart/rc_uart.c **** 
  16:drivers/rc_uart/rc_uart.c **** /** \defgroup rc_uart  UART driver
  17:drivers/rc_uart/rc_uart.c ****   Contains the functions to set the pins attributes
  18:drivers/rc_uart/rc_uart.c **** */
  19:drivers/rc_uart/rc_uart.c **** 
  20:drivers/rc_uart/rc_uart.c **** /**
  21:drivers/rc_uart/rc_uart.c ****  * \ingroup  rc_uart
  22:drivers/rc_uart/rc_uart.c ****  * \defgroup uart_functions UART Functions
  23:drivers/rc_uart/rc_uart.c ****  *  Functions definitions for the UART setup
  24:drivers/rc_uart/rc_uart.c ****  *  @{
  25:drivers/rc_uart/rc_uart.c ****  */
  26:drivers/rc_uart/rc_uart.c **** 
  27:drivers/rc_uart/rc_uart.c **** /* UART Functions Group: */
  28:drivers/rc_uart/rc_uart.c **** /**
  29:drivers/rc_uart/rc_uart.c ****  * \brief 	Initializes UART.
  30:drivers/rc_uart/rc_uart.c ****  * \param	ps_Port		Pointer to LPC_UARTx port structure
  31:drivers/rc_uart/rc_uart.c ****  * \param	ls_Config	UART config structure
  32:drivers/rc_uart/rc_uart.c ****  * \return	none
  33:drivers/rc_uart/rc_uart.c ****  */
  34:drivers/rc_uart/rc_uart.c **** void rcuart_Init(T_RCUART_PORT *ps_Port, T_RCUART_CONFIG ls_Config)
  35:drivers/rc_uart/rc_uart.c **** {
  62              		.loc 1 35 0
  63              		.cfi_startproc
  64              		@ args = 0, pretend = 0, frame = 24
  65              		@ frame_needed = 1, uses_anonymous_args = 0
  66 0000 80B5     		push	{r7, lr}	@
  67              		.cfi_def_cfa_offset 8
  68              		.cfi_offset 7, -8
  69              		.cfi_offset 14, -4
  70 0002 86B0     		sub	sp, sp, #24	@,,
  71              		.cfi_def_cfa_offset 32
  72 0004 00AF     		add	r7, sp, #0	@,,
  73              		.cfi_def_cfa_register 7
  74 0006 F860     		str	r0, [r7, #12]	@ ps_Port, ps_Port
  75 0008 3B1D     		adds	r3, r7, #4	@ tmp114,,
  76 000a 83E80600 		stmia	r3, {r1, r2}	@ tmp114,,
  36:drivers/rc_uart/rc_uart.c **** 	UART_CFG_Type UART_ConfigStruct[1u];
  37:drivers/rc_uart/rc_uart.c **** 	/* Fill UART config structure */
  38:drivers/rc_uart/rc_uart.c **** 	UART_ConfigStruct[0].Baud_rate = ls_Config.ul_Baudrate;
ARM GAS  C:\Users\COSMIN~1.MAR\AppData\Local\Temp\ccpiKZLq.s 			page 3


  77              		.loc 1 38 0
  78 000e 7B68     		ldr	r3, [r7, #4]	@ D.5730, ls_Config.ul_Baudrate
  79 0010 3B61     		str	r3, [r7, #16]	@ D.5730, UART_ConfigStruct[0].Baud_rate
  39:drivers/rc_uart/rc_uart.c **** 	UART_ConfigStruct[0].Databits = ls_Config.e_Databit;
  80              		.loc 1 39 0
  81 0012 7B7A     		ldrb	r3, [r7, #9]	@ zero_extendqisi2	@ D.5731, ls_Config.e_Databit
  82 0014 7B75     		strb	r3, [r7, #21]	@ tmp115, UART_ConfigStruct[0].Databits
  40:drivers/rc_uart/rc_uart.c **** 	UART_ConfigStruct[0].Parity = ls_Config.e_Parity;
  83              		.loc 1 40 0
  84 0016 3B7A     		ldrb	r3, [r7, #8]	@ zero_extendqisi2	@ D.5732, ls_Config.e_Parity
  85 0018 3B75     		strb	r3, [r7, #20]	@ tmp116, UART_ConfigStruct[0].Parity
  41:drivers/rc_uart/rc_uart.c **** 	UART_ConfigStruct[0].Stopbits = ls_Config.e_Stopbit;
  86              		.loc 1 41 0
  87 001a BB7A     		ldrb	r3, [r7, #10]	@ zero_extendqisi2	@ D.5733, ls_Config.e_Stopbit
  88 001c BB75     		strb	r3, [r7, #22]	@ tmp117, UART_ConfigStruct[0].Stopbits
  42:drivers/rc_uart/rc_uart.c **** 	/* Call driver initializer */
  43:drivers/rc_uart/rc_uart.c **** 	UART_Init(ps_Port, UART_ConfigStruct);
  89              		.loc 1 43 0
  90 001e 07F11003 		add	r3, r7, #16	@ tmp118,,
  91 0022 F868     		ldr	r0, [r7, #12]	@, ps_Port
  92 0024 1946     		mov	r1, r3	@, tmp118
  93 0026 FFF7FEFF 		bl	UART_Init	@
  44:drivers/rc_uart/rc_uart.c **** }
  94              		.loc 1 44 0
  95 002a 1837     		adds	r7, r7, #24	@,,
  96              		.cfi_def_cfa_offset 8
  97 002c BD46     		mov	sp, r7	@,
  98              		.cfi_def_cfa_register 13
  99              		@ sp needed	@
 100 002e 80BD     		pop	{r7, pc}	@
 101              		.cfi_endproc
 102              	.LFE55:
 103              		.size	rcuart_Init, .-rcuart_Init
 104              		.section	.text.rcuart_DeInit,"ax",%progbits
 105              		.align	2
 106              		.global	rcuart_DeInit
 107              		.thumb
 108              		.thumb_func
 109              		.type	rcuart_DeInit, %function
 110              	rcuart_DeInit:
 111              	.LFB56:
  45:drivers/rc_uart/rc_uart.c **** 
  46:drivers/rc_uart/rc_uart.c **** /**
  47:drivers/rc_uart/rc_uart.c ****  * \brief 	De-Initializes UART.
  48:drivers/rc_uart/rc_uart.c ****  * \param	ps_Port	Pointer to LPC_UARTx port structure
  49:drivers/rc_uart/rc_uart.c ****  * \return	none
  50:drivers/rc_uart/rc_uart.c ****  */
  51:drivers/rc_uart/rc_uart.c **** void rcuart_DeInit(T_RCUART_PORT *ps_Port)
  52:drivers/rc_uart/rc_uart.c **** {
 112              		.loc 1 52 0
 113              		.cfi_startproc
 114              		@ args = 0, pretend = 0, frame = 8
 115              		@ frame_needed = 1, uses_anonymous_args = 0
 116 0000 80B5     		push	{r7, lr}	@
 117              		.cfi_def_cfa_offset 8
 118              		.cfi_offset 7, -8
 119              		.cfi_offset 14, -4
ARM GAS  C:\Users\COSMIN~1.MAR\AppData\Local\Temp\ccpiKZLq.s 			page 4


 120 0002 82B0     		sub	sp, sp, #8	@,,
 121              		.cfi_def_cfa_offset 16
 122 0004 00AF     		add	r7, sp, #0	@,,
 123              		.cfi_def_cfa_register 7
 124 0006 7860     		str	r0, [r7, #4]	@ ps_Port, ps_Port
  53:drivers/rc_uart/rc_uart.c **** 	UART_DeInit(ps_Port);
 125              		.loc 1 53 0
 126 0008 7868     		ldr	r0, [r7, #4]	@, ps_Port
 127 000a FFF7FEFF 		bl	UART_DeInit	@
  54:drivers/rc_uart/rc_uart.c **** }
 128              		.loc 1 54 0
 129 000e 0837     		adds	r7, r7, #8	@,,
 130              		.cfi_def_cfa_offset 8
 131 0010 BD46     		mov	sp, r7	@,
 132              		.cfi_def_cfa_register 13
 133              		@ sp needed	@
 134 0012 80BD     		pop	{r7, pc}	@
 135              		.cfi_endproc
 136              	.LFE56:
 137              		.size	rcuart_DeInit, .-rcuart_DeInit
 138              		.section	.text.rcuart_Send,"ax",%progbits
 139              		.align	2
 140              		.global	rcuart_Send
 141              		.thumb
 142              		.thumb_func
 143              		.type	rcuart_Send, %function
 144              	rcuart_Send:
 145              	.LFB57:
  55:drivers/rc_uart/rc_uart.c **** 
  56:drivers/rc_uart/rc_uart.c **** /**
  57:drivers/rc_uart/rc_uart.c ****  * \brief 	Send a block of data to the UART.
  58:drivers/rc_uart/rc_uart.c ****  * \param	ps_Port				Pointer to LPC_UARTx port structure
  59:drivers/rc_uart/rc_uart.c ****  * \param 	lub_UART_TxBuffer	buffer containing the data to be sent
  60:drivers/rc_uart/rc_uart.c ****  * \param	lul_Length			number of bytes to be sent
  61:drivers/rc_uart/rc_uart.c ****  * \param	le_Transfer			Transfer type (Non Blocking or Blocking)
  62:drivers/rc_uart/rc_uart.c ****  * \return	Transmit status (E_RC_SUCCES if all bytes were transmitted)
  63:drivers/rc_uart/rc_uart.c ****  */
  64:drivers/rc_uart/rc_uart.c **** T_E_RC_ERROR rcuart_Send(T_RCUART_PORT *ps_Port, T_UBYTE *lub_UART_TxBuffer, T_ULONG lul_Length, T_
  65:drivers/rc_uart/rc_uart.c **** {
 146              		.loc 1 65 0
 147              		.cfi_startproc
 148              		@ args = 0, pretend = 0, frame = 32
 149              		@ frame_needed = 1, uses_anonymous_args = 0
 150 0000 80B5     		push	{r7, lr}	@
 151              		.cfi_def_cfa_offset 8
 152              		.cfi_offset 7, -8
 153              		.cfi_offset 14, -4
 154 0002 88B0     		sub	sp, sp, #32	@,,
 155              		.cfi_def_cfa_offset 40
 156 0004 00AF     		add	r7, sp, #0	@,,
 157              		.cfi_def_cfa_register 7
 158 0006 F860     		str	r0, [r7, #12]	@ ps_Port, ps_Port
 159 0008 B960     		str	r1, [r7, #8]	@ lub_UART_TxBuffer, lub_UART_TxBuffer
 160 000a 7A60     		str	r2, [r7, #4]	@ lul_Length, lul_Length
 161 000c FB70     		strb	r3, [r7, #3]	@ tmp115, le_Transfer
  66:drivers/rc_uart/rc_uart.c **** 	T_ULONG lul_BytesTransmitted = 0u;
 162              		.loc 1 66 0
ARM GAS  C:\Users\COSMIN~1.MAR\AppData\Local\Temp\ccpiKZLq.s 			page 5


 163 000e 0023     		movs	r3, #0	@ tmp116,
 164 0010 FB61     		str	r3, [r7, #28]	@ tmp116, lul_BytesTransmitted
  67:drivers/rc_uart/rc_uart.c **** 	T_ULONG lul_TotalBytesTransmitted = 0u;
 165              		.loc 1 67 0
 166 0012 0023     		movs	r3, #0	@ tmp117,
 167 0014 BB61     		str	r3, [r7, #24]	@ tmp117, lul_TotalBytesTransmitted
  68:drivers/rc_uart/rc_uart.c **** 	T_ULONG lul_BytesRemaining = 0u;
 168              		.loc 1 68 0
 169 0016 0023     		movs	r3, #0	@ tmp118,
 170 0018 3B61     		str	r3, [r7, #16]	@ tmp118, lul_BytesRemaining
  69:drivers/rc_uart/rc_uart.c **** 	T_E_RC_ERROR le_Status = E_RC_ERROR;
 171              		.loc 1 69 0
 172 001a 0123     		movs	r3, #1	@ tmp119,
 173 001c FB75     		strb	r3, [r7, #23]	@ tmp120, le_Status
  70:drivers/rc_uart/rc_uart.c **** 
  71:drivers/rc_uart/rc_uart.c **** 	/* Transmit data available in buffer */
  72:drivers/rc_uart/rc_uart.c **** 	while (lul_TotalBytesTransmitted < lul_Length)
 174              		.loc 1 72 0
 175 001e 1FE0     		b	.L4	@
 176              	.L7:
  73:drivers/rc_uart/rc_uart.c **** 	{
  74:drivers/rc_uart/rc_uart.c **** 		lul_BytesRemaining = lul_Length-lul_TotalBytesTransmitted;
 177              		.loc 1 74 0
 178 0020 7A68     		ldr	r2, [r7, #4]	@ tmp122, lul_Length
 179 0022 BB69     		ldr	r3, [r7, #24]	@ tmp123, lul_TotalBytesTransmitted
 180 0024 D31A     		subs	r3, r2, r3	@ tmp121, tmp122, tmp123
 181 0026 3B61     		str	r3, [r7, #16]	@ tmp121, lul_BytesRemaining
  75:drivers/rc_uart/rc_uart.c **** 		/* Send segments of 16 bytes */
  76:drivers/rc_uart/rc_uart.c **** 		if(lul_BytesRemaining > RCUART_FIFO_BUFFER_SIZE)
 182              		.loc 1 76 0
 183 0028 3B69     		ldr	r3, [r7, #16]	@ tmp124, lul_BytesRemaining
 184 002a 102B     		cmp	r3, #16	@ tmp124,
 185 002c 0AD9     		bls	.L5	@,
  77:drivers/rc_uart/rc_uart.c **** 		{
  78:drivers/rc_uart/rc_uart.c **** 			lul_BytesTransmitted = UART_Send(ps_Port, &lub_UART_TxBuffer[lul_TotalBytesTransmitted], RCUART_
 186              		.loc 1 78 0
 187 002e BA68     		ldr	r2, [r7, #8]	@ tmp125, lub_UART_TxBuffer
 188 0030 BB69     		ldr	r3, [r7, #24]	@ tmp126, lul_TotalBytesTransmitted
 189 0032 1A44     		add	r2, r2, r3	@ D.5734, tmp126
 190 0034 FB78     		ldrb	r3, [r7, #3]	@ zero_extendqisi2	@ tmp127, le_Transfer
 191 0036 F868     		ldr	r0, [r7, #12]	@, ps_Port
 192 0038 1146     		mov	r1, r2	@, D.5734
 193 003a 1022     		movs	r2, #16	@,
 194 003c FFF7FEFF 		bl	UART_Send	@
 195 0040 F861     		str	r0, [r7, #28]	@, lul_BytesTransmitted
 196 0042 09E0     		b	.L6	@
 197              	.L5:
  79:drivers/rc_uart/rc_uart.c **** 		}
  80:drivers/rc_uart/rc_uart.c **** 		/* Send last segment */
  81:drivers/rc_uart/rc_uart.c **** 		else
  82:drivers/rc_uart/rc_uart.c **** 		{
  83:drivers/rc_uart/rc_uart.c **** 			lul_BytesTransmitted = UART_Send(ps_Port, &lub_UART_TxBuffer[lul_TotalBytesTransmitted], lul_Byt
 198              		.loc 1 83 0
 199 0044 BA68     		ldr	r2, [r7, #8]	@ tmp128, lub_UART_TxBuffer
 200 0046 BB69     		ldr	r3, [r7, #24]	@ tmp129, lul_TotalBytesTransmitted
 201 0048 1A44     		add	r2, r2, r3	@ D.5734, tmp129
 202 004a FB78     		ldrb	r3, [r7, #3]	@ zero_extendqisi2	@ tmp130, le_Transfer
ARM GAS  C:\Users\COSMIN~1.MAR\AppData\Local\Temp\ccpiKZLq.s 			page 6


 203 004c F868     		ldr	r0, [r7, #12]	@, ps_Port
 204 004e 1146     		mov	r1, r2	@, D.5734
 205 0050 3A69     		ldr	r2, [r7, #16]	@, lul_BytesRemaining
 206 0052 FFF7FEFF 		bl	UART_Send	@
 207 0056 F861     		str	r0, [r7, #28]	@, lul_BytesTransmitted
 208              	.L6:
  84:drivers/rc_uart/rc_uart.c **** 		}
  85:drivers/rc_uart/rc_uart.c **** 		/* Count transmitted bytes */
  86:drivers/rc_uart/rc_uart.c **** 		lul_TotalBytesTransmitted += lul_BytesTransmitted;
 209              		.loc 1 86 0
 210 0058 BA69     		ldr	r2, [r7, #24]	@ tmp132, lul_TotalBytesTransmitted
 211 005a FB69     		ldr	r3, [r7, #28]	@ tmp133, lul_BytesTransmitted
 212 005c 1344     		add	r3, r3, r2	@ tmp131, tmp132
 213 005e BB61     		str	r3, [r7, #24]	@ tmp131, lul_TotalBytesTransmitted
 214              	.L4:
  72:drivers/rc_uart/rc_uart.c **** 	{
 215              		.loc 1 72 0
 216 0060 BA69     		ldr	r2, [r7, #24]	@ tmp134, lul_TotalBytesTransmitted
 217 0062 7B68     		ldr	r3, [r7, #4]	@ tmp135, lul_Length
 218 0064 9A42     		cmp	r2, r3	@ tmp134, tmp135
 219 0066 DBD3     		bcc	.L7	@,
  87:drivers/rc_uart/rc_uart.c **** 	}
  88:drivers/rc_uart/rc_uart.c **** 	/* Check if all bytes were transmitted */
  89:drivers/rc_uart/rc_uart.c **** 	if (lul_TotalBytesTransmitted == lul_Length)
 220              		.loc 1 89 0
 221 0068 BA69     		ldr	r2, [r7, #24]	@ tmp136, lul_TotalBytesTransmitted
 222 006a 7B68     		ldr	r3, [r7, #4]	@ tmp137, lul_Length
 223 006c 9A42     		cmp	r2, r3	@ tmp136, tmp137
 224 006e 01D1     		bne	.L8	@,
  90:drivers/rc_uart/rc_uart.c **** 	{
  91:drivers/rc_uart/rc_uart.c **** 		le_Status = E_RC_SUCCESS;
 225              		.loc 1 91 0
 226 0070 0023     		movs	r3, #0	@ tmp138,
 227 0072 FB75     		strb	r3, [r7, #23]	@ tmp139, le_Status
 228              	.L8:
  92:drivers/rc_uart/rc_uart.c **** 	}
  93:drivers/rc_uart/rc_uart.c **** 	return le_Status;
 229              		.loc 1 93 0
 230 0074 FB7D     		ldrb	r3, [r7, #23]	@ zero_extendqisi2	@ D.5735, le_Status
  94:drivers/rc_uart/rc_uart.c **** }
 231              		.loc 1 94 0
 232 0076 1846     		mov	r0, r3	@, <retval>
 233 0078 2037     		adds	r7, r7, #32	@,,
 234              		.cfi_def_cfa_offset 8
 235 007a BD46     		mov	sp, r7	@,
 236              		.cfi_def_cfa_register 13
 237              		@ sp needed	@
 238 007c 80BD     		pop	{r7, pc}	@
 239              		.cfi_endproc
 240              	.LFE57:
 241              		.size	rcuart_Send, .-rcuart_Send
 242 007e 00BF     		.section	.text.rcuart_Receive,"ax",%progbits
 243              		.align	2
 244              		.global	rcuart_Receive
 245              		.thumb
 246              		.thumb_func
 247              		.type	rcuart_Receive, %function
ARM GAS  C:\Users\COSMIN~1.MAR\AppData\Local\Temp\ccpiKZLq.s 			page 7


 248              	rcuart_Receive:
 249              	.LFB58:
  95:drivers/rc_uart/rc_uart.c **** 
  96:drivers/rc_uart/rc_uart.c **** /**
  97:drivers/rc_uart/rc_uart.c ****  * \brief 	Receives a block of data from UART.
  98:drivers/rc_uart/rc_uart.c ****  * \param	ps_Port				Pointer to LPC_UARTx port structure
  99:drivers/rc_uart/rc_uart.c ****  * \param 	lub_UART_RxBuffer	buffer where data will be saved
 100:drivers/rc_uart/rc_uart.c ****  * \param	lul_Length			number of received bytes
 101:drivers/rc_uart/rc_uart.c ****  * \param	le_Transfer			Transfer type (Non Blocking or Blocking)
 102:drivers/rc_uart/rc_uart.c ****  * \return	Number of transferred bytes
 103:drivers/rc_uart/rc_uart.c ****  */
 104:drivers/rc_uart/rc_uart.c **** T_ULONG rcuart_Receive(T_RCUART_PORT *ps_Port, T_UBYTE *lub_UART_RxBuffer, T_ULONG lul_Length, T_E_
 105:drivers/rc_uart/rc_uart.c **** {
 250              		.loc 1 105 0
 251              		.cfi_startproc
 252              		@ args = 0, pretend = 0, frame = 16
 253              		@ frame_needed = 1, uses_anonymous_args = 0
 254 0000 80B5     		push	{r7, lr}	@
 255              		.cfi_def_cfa_offset 8
 256              		.cfi_offset 7, -8
 257              		.cfi_offset 14, -4
 258 0002 84B0     		sub	sp, sp, #16	@,,
 259              		.cfi_def_cfa_offset 24
 260 0004 00AF     		add	r7, sp, #0	@,,
 261              		.cfi_def_cfa_register 7
 262 0006 F860     		str	r0, [r7, #12]	@ ps_Port, ps_Port
 263 0008 B960     		str	r1, [r7, #8]	@ lub_UART_RxBuffer, lub_UART_RxBuffer
 264 000a 7A60     		str	r2, [r7, #4]	@ lul_Length, lul_Length
 265 000c FB70     		strb	r3, [r7, #3]	@ tmp113, le_Transfer
 106:drivers/rc_uart/rc_uart.c **** 	return UART_Receive(ps_Port, lub_UART_RxBuffer, lul_Length, (TRANSFER_BLOCK_Type)le_Transfer);
 266              		.loc 1 106 0
 267 000e FB78     		ldrb	r3, [r7, #3]	@ zero_extendqisi2	@ tmp114, le_Transfer
 268 0010 F868     		ldr	r0, [r7, #12]	@, ps_Port
 269 0012 B968     		ldr	r1, [r7, #8]	@, lub_UART_RxBuffer
 270 0014 7A68     		ldr	r2, [r7, #4]	@, lul_Length
 271 0016 FFF7FEFF 		bl	UART_Receive	@
 272 001a 0346     		mov	r3, r0	@ D.5736,
 107:drivers/rc_uart/rc_uart.c **** }
 273              		.loc 1 107 0
 274 001c 1846     		mov	r0, r3	@, <retval>
 275 001e 1037     		adds	r7, r7, #16	@,,
 276              		.cfi_def_cfa_offset 8
 277 0020 BD46     		mov	sp, r7	@,
 278              		.cfi_def_cfa_register 13
 279              		@ sp needed	@
 280 0022 80BD     		pop	{r7, pc}	@
 281              		.cfi_endproc
 282              	.LFE58:
 283              		.size	rcuart_Receive, .-rcuart_Receive
 284              		.section	.text.rcuart_SetInterrupt,"ax",%progbits
 285              		.align	2
 286              		.global	rcuart_SetInterrupt
 287              		.thumb
 288              		.thumb_func
 289              		.type	rcuart_SetInterrupt, %function
 290              	rcuart_SetInterrupt:
 291              	.LFB59:
ARM GAS  C:\Users\COSMIN~1.MAR\AppData\Local\Temp\ccpiKZLq.s 			page 8


 108:drivers/rc_uart/rc_uart.c **** 
 109:drivers/rc_uart/rc_uart.c **** /**
 110:drivers/rc_uart/rc_uart.c ****  * \brief 	Configures an interrupt on UART.
 111:drivers/rc_uart/rc_uart.c ****  * \param	ps_Port				Pointer to LPC_UARTx port structure
 112:drivers/rc_uart/rc_uart.c ****  * \param 	le_UART_IRQType		IRQ Type
 113:drivers/rc_uart/rc_uart.c ****  * \param	le_UART_IRQState	IRQ State
 114:drivers/rc_uart/rc_uart.c ****  * \return	none
 115:drivers/rc_uart/rc_uart.c ****  */
 116:drivers/rc_uart/rc_uart.c **** void rcuart_SetInterrupt(T_RCUART_PORT *ps_Port, T_E_RCUART_IRQ le_UART_IRQType, T_E_RC_ENABLE le_U
 117:drivers/rc_uart/rc_uart.c **** {
 292              		.loc 1 117 0
 293              		.cfi_startproc
 294              		@ args = 0, pretend = 0, frame = 8
 295              		@ frame_needed = 1, uses_anonymous_args = 0
 296 0000 80B5     		push	{r7, lr}	@
 297              		.cfi_def_cfa_offset 8
 298              		.cfi_offset 7, -8
 299              		.cfi_offset 14, -4
 300 0002 82B0     		sub	sp, sp, #8	@,,
 301              		.cfi_def_cfa_offset 16
 302 0004 00AF     		add	r7, sp, #0	@,,
 303              		.cfi_def_cfa_register 7
 304 0006 7860     		str	r0, [r7, #4]	@ ps_Port, ps_Port
 305 0008 0B46     		mov	r3, r1	@ tmp110, le_UART_IRQType
 306 000a FB70     		strb	r3, [r7, #3]	@ tmp111, le_UART_IRQType
 307 000c 1346     		mov	r3, r2	@ tmp113, tmp112
 308 000e BB70     		strb	r3, [r7, #2]	@ tmp113, le_UART_IRQState
 118:drivers/rc_uart/rc_uart.c **** 	UART_IntConfig(ps_Port, (UART_INT_Type)le_UART_IRQType, (FunctionalState)le_UART_IRQState);
 309              		.loc 1 118 0
 310 0010 FA78     		ldrb	r2, [r7, #3]	@ zero_extendqisi2	@ tmp114, le_UART_IRQType
 311 0012 BB78     		ldrb	r3, [r7, #2]	@ zero_extendqisi2	@ tmp115, le_UART_IRQState
 312 0014 7868     		ldr	r0, [r7, #4]	@, ps_Port
 313 0016 1146     		mov	r1, r2	@, tmp114
 314 0018 1A46     		mov	r2, r3	@, tmp115
 315 001a FFF7FEFF 		bl	UART_IntConfig	@
 119:drivers/rc_uart/rc_uart.c **** }
 316              		.loc 1 119 0
 317 001e 0837     		adds	r7, r7, #8	@,,
 318              		.cfi_def_cfa_offset 8
 319 0020 BD46     		mov	sp, r7	@,
 320              		.cfi_def_cfa_register 13
 321              		@ sp needed	@
 322 0022 80BD     		pop	{r7, pc}	@
 323              		.cfi_endproc
 324              	.LFE59:
 325              		.size	rcuart_SetInterrupt, .-rcuart_SetInterrupt
 326              		.section	.text.rcuart_TxState,"ax",%progbits
 327              		.align	2
 328              		.global	rcuart_TxState
 329              		.thumb
 330              		.thumb_func
 331              		.type	rcuart_TxState, %function
 332              	rcuart_TxState:
 333              	.LFB60:
 120:drivers/rc_uart/rc_uart.c **** 
 121:drivers/rc_uart/rc_uart.c **** /**
 122:drivers/rc_uart/rc_uart.c ****  * \brief 	Configures UART Transmit state.
ARM GAS  C:\Users\COSMIN~1.MAR\AppData\Local\Temp\ccpiKZLq.s 			page 9


 123:drivers/rc_uart/rc_uart.c ****  * \param	ps_Port		Pointer to LPC_UARTx port structure
 124:drivers/rc_uart/rc_uart.c ****  * \param	le_TxState	New transmit state
 125:drivers/rc_uart/rc_uart.c ****  * \return	none
 126:drivers/rc_uart/rc_uart.c ****  */
 127:drivers/rc_uart/rc_uart.c **** void rcuart_TxState(T_RCUART_PORT *ps_Port, T_E_RC_ENABLE le_TxState)
 128:drivers/rc_uart/rc_uart.c **** {
 334              		.loc 1 128 0
 335              		.cfi_startproc
 336              		@ args = 0, pretend = 0, frame = 8
 337              		@ frame_needed = 1, uses_anonymous_args = 0
 338 0000 80B5     		push	{r7, lr}	@
 339              		.cfi_def_cfa_offset 8
 340              		.cfi_offset 7, -8
 341              		.cfi_offset 14, -4
 342 0002 82B0     		sub	sp, sp, #8	@,,
 343              		.cfi_def_cfa_offset 16
 344 0004 00AF     		add	r7, sp, #0	@,,
 345              		.cfi_def_cfa_register 7
 346 0006 7860     		str	r0, [r7, #4]	@ ps_Port, ps_Port
 347 0008 0B46     		mov	r3, r1	@ tmp110, le_TxState
 348 000a FB70     		strb	r3, [r7, #3]	@ tmp111, le_TxState
 129:drivers/rc_uart/rc_uart.c **** 	UART_TxCmd(ps_Port, (FunctionalState)le_TxState);
 349              		.loc 1 129 0
 350 000c FB78     		ldrb	r3, [r7, #3]	@ zero_extendqisi2	@ tmp112, le_TxState
 351 000e 7868     		ldr	r0, [r7, #4]	@, ps_Port
 352 0010 1946     		mov	r1, r3	@, tmp112
 353 0012 FFF7FEFF 		bl	UART_TxCmd	@
 130:drivers/rc_uart/rc_uart.c **** }
 354              		.loc 1 130 0
 355 0016 0837     		adds	r7, r7, #8	@,,
 356              		.cfi_def_cfa_offset 8
 357 0018 BD46     		mov	sp, r7	@,
 358              		.cfi_def_cfa_register 13
 359              		@ sp needed	@
 360 001a 80BD     		pop	{r7, pc}	@
 361              		.cfi_endproc
 362              	.LFE60:
 363              		.size	rcuart_TxState, .-rcuart_TxState
 364              		.section	.text.rcuart_SetCallback_Function,"ax",%progbits
 365              		.align	2
 366              		.global	rcuart_SetCallback_Function
 367              		.thumb
 368              		.thumb_func
 369              		.type	rcuart_SetCallback_Function, %function
 370              	rcuart_SetCallback_Function:
 371              	.LFB61:
 131:drivers/rc_uart/rc_uart.c **** 
 132:drivers/rc_uart/rc_uart.c **** /**
 133:drivers/rc_uart/rc_uart.c ****  * \brief 	Configures callback functions.
 134:drivers/rc_uart/rc_uart.c ****  * \param	ps_Port				Pointer to LPC_UARTx port structure
 135:drivers/rc_uart/rc_uart.c ****  * \param	le_CBFunctionType	Callback function type
 136:drivers/rc_uart/rc_uart.c ****  * \param	pv_Function			Pointer to callback function
 137:drivers/rc_uart/rc_uart.c ****  * \return	none
 138:drivers/rc_uart/rc_uart.c ****  */
 139:drivers/rc_uart/rc_uart.c **** void rcuart_SetCallback_Function(T_RCUART_PORT *ps_Port, T_E_RCUART_CB_FCT le_CBFunctionType, void 
 140:drivers/rc_uart/rc_uart.c **** {
 372              		.loc 1 140 0
ARM GAS  C:\Users\COSMIN~1.MAR\AppData\Local\Temp\ccpiKZLq.s 			page 10


 373              		.cfi_startproc
 374              		@ args = 0, pretend = 0, frame = 16
 375              		@ frame_needed = 1, uses_anonymous_args = 0
 376 0000 80B5     		push	{r7, lr}	@
 377              		.cfi_def_cfa_offset 8
 378              		.cfi_offset 7, -8
 379              		.cfi_offset 14, -4
 380 0002 84B0     		sub	sp, sp, #16	@,,
 381              		.cfi_def_cfa_offset 24
 382 0004 00AF     		add	r7, sp, #0	@,,
 383              		.cfi_def_cfa_register 7
 384 0006 F860     		str	r0, [r7, #12]	@ ps_Port, ps_Port
 385 0008 0B46     		mov	r3, r1	@ tmp110, le_CBFunctionType
 386 000a 7A60     		str	r2, [r7, #4]	@ pv_Function, pv_Function
 387 000c FB72     		strb	r3, [r7, #11]	@ tmp111, le_CBFunctionType
 141:drivers/rc_uart/rc_uart.c **** 	UART_SetupCbs(ps_Port, (T_UBYTE)le_CBFunctionType, pv_Function);
 388              		.loc 1 141 0
 389 000e FB7A     		ldrb	r3, [r7, #11]	@ zero_extendqisi2	@ tmp112, le_CBFunctionType
 390 0010 F868     		ldr	r0, [r7, #12]	@, ps_Port
 391 0012 1946     		mov	r1, r3	@, tmp112
 392 0014 7A68     		ldr	r2, [r7, #4]	@, pv_Function
 393 0016 FFF7FEFF 		bl	UART_SetupCbs	@
 142:drivers/rc_uart/rc_uart.c **** }
 394              		.loc 1 142 0
 395 001a 1037     		adds	r7, r7, #16	@,,
 396              		.cfi_def_cfa_offset 8
 397 001c BD46     		mov	sp, r7	@,
 398              		.cfi_def_cfa_register 13
 399              		@ sp needed	@
 400 001e 80BD     		pop	{r7, pc}	@
 401              		.cfi_endproc
 402              	.LFE61:
 403              		.size	rcuart_SetCallback_Function, .-rcuart_SetCallback_Function
 404              		.section	.text.rcuart_PORT0_IRQHandler,"ax",%progbits
 405              		.align	2
 406              		.global	rcuart_PORT0_IRQHandler
 407              		.thumb
 408              		.thumb_func
 409              		.type	rcuart_PORT0_IRQHandler, %function
 410              	rcuart_PORT0_IRQHandler:
 411              	.LFB62:
 143:drivers/rc_uart/rc_uart.c **** 
 144:drivers/rc_uart/rc_uart.c **** /**
 145:drivers/rc_uart/rc_uart.c ****  * \brief 	Standard UART0 IRQHandler
 146:drivers/rc_uart/rc_uart.c ****  * \return	none
 147:drivers/rc_uart/rc_uart.c ****  */
 148:drivers/rc_uart/rc_uart.c **** void rcuart_PORT0_IRQHandler(void)
 149:drivers/rc_uart/rc_uart.c **** {
 412              		.loc 1 149 0
 413              		.cfi_startproc
 414              		@ args = 0, pretend = 0, frame = 0
 415              		@ frame_needed = 1, uses_anonymous_args = 0
 416 0000 80B5     		push	{r7, lr}	@
 417              		.cfi_def_cfa_offset 8
 418              		.cfi_offset 7, -8
 419              		.cfi_offset 14, -4
 420 0002 00AF     		add	r7, sp, #0	@,,
ARM GAS  C:\Users\COSMIN~1.MAR\AppData\Local\Temp\ccpiKZLq.s 			page 11


 421              		.cfi_def_cfa_register 7
 150:drivers/rc_uart/rc_uart.c **** 	UART0_StdIntHandler();
 422              		.loc 1 150 0
 423 0004 FFF7FEFF 		bl	UART0_StdIntHandler	@
 151:drivers/rc_uart/rc_uart.c **** }
 424              		.loc 1 151 0
 425 0008 80BD     		pop	{r7, pc}	@
 426              		.cfi_endproc
 427              	.LFE62:
 428              		.size	rcuart_PORT0_IRQHandler, .-rcuart_PORT0_IRQHandler
 429 000a 00BF     		.section	.text.rcuart_PORT1_IRQHandler,"ax",%progbits
 430              		.align	2
 431              		.global	rcuart_PORT1_IRQHandler
 432              		.thumb
 433              		.thumb_func
 434              		.type	rcuart_PORT1_IRQHandler, %function
 435              	rcuart_PORT1_IRQHandler:
 436              	.LFB63:
 152:drivers/rc_uart/rc_uart.c **** 
 153:drivers/rc_uart/rc_uart.c **** /**
 154:drivers/rc_uart/rc_uart.c ****  * \brief 	Standard UART1 IRQHandler
 155:drivers/rc_uart/rc_uart.c ****  * \return	none
 156:drivers/rc_uart/rc_uart.c ****  */
 157:drivers/rc_uart/rc_uart.c **** void rcuart_PORT1_IRQHandler(void)
 158:drivers/rc_uart/rc_uart.c **** {
 437              		.loc 1 158 0
 438              		.cfi_startproc
 439              		@ args = 0, pretend = 0, frame = 0
 440              		@ frame_needed = 1, uses_anonymous_args = 0
 441 0000 80B5     		push	{r7, lr}	@
 442              		.cfi_def_cfa_offset 8
 443              		.cfi_offset 7, -8
 444              		.cfi_offset 14, -4
 445 0002 00AF     		add	r7, sp, #0	@,,
 446              		.cfi_def_cfa_register 7
 159:drivers/rc_uart/rc_uart.c **** 	UART1_StdIntHandler();
 447              		.loc 1 159 0
 448 0004 FFF7FEFF 		bl	UART1_StdIntHandler	@
 160:drivers/rc_uart/rc_uart.c **** }
 449              		.loc 1 160 0
 450 0008 80BD     		pop	{r7, pc}	@
 451              		.cfi_endproc
 452              	.LFE63:
 453              		.size	rcuart_PORT1_IRQHandler, .-rcuart_PORT1_IRQHandler
 454 000a 00BF     		.section	.text.rcuart_PORT2_IRQHandler,"ax",%progbits
 455              		.align	2
 456              		.global	rcuart_PORT2_IRQHandler
 457              		.thumb
 458              		.thumb_func
 459              		.type	rcuart_PORT2_IRQHandler, %function
 460              	rcuart_PORT2_IRQHandler:
 461              	.LFB64:
 161:drivers/rc_uart/rc_uart.c **** 
 162:drivers/rc_uart/rc_uart.c **** /**
 163:drivers/rc_uart/rc_uart.c ****  * \brief 	Standard UART2 IRQHandler
 164:drivers/rc_uart/rc_uart.c ****  * \return	none
 165:drivers/rc_uart/rc_uart.c ****  */
ARM GAS  C:\Users\COSMIN~1.MAR\AppData\Local\Temp\ccpiKZLq.s 			page 12


 166:drivers/rc_uart/rc_uart.c **** void rcuart_PORT2_IRQHandler(void)
 167:drivers/rc_uart/rc_uart.c **** {
 462              		.loc 1 167 0
 463              		.cfi_startproc
 464              		@ args = 0, pretend = 0, frame = 0
 465              		@ frame_needed = 1, uses_anonymous_args = 0
 466 0000 80B5     		push	{r7, lr}	@
 467              		.cfi_def_cfa_offset 8
 468              		.cfi_offset 7, -8
 469              		.cfi_offset 14, -4
 470 0002 00AF     		add	r7, sp, #0	@,,
 471              		.cfi_def_cfa_register 7
 168:drivers/rc_uart/rc_uart.c **** 	UART2_StdIntHandler();
 472              		.loc 1 168 0
 473 0004 FFF7FEFF 		bl	UART2_StdIntHandler	@
 169:drivers/rc_uart/rc_uart.c **** }
 474              		.loc 1 169 0
 475 0008 80BD     		pop	{r7, pc}	@
 476              		.cfi_endproc
 477              	.LFE64:
 478              		.size	rcuart_PORT2_IRQHandler, .-rcuart_PORT2_IRQHandler
 479 000a 00BF     		.section	.text.rcuart_PORT3_IRQHandler,"ax",%progbits
 480              		.align	2
 481              		.global	rcuart_PORT3_IRQHandler
 482              		.thumb
 483              		.thumb_func
 484              		.type	rcuart_PORT3_IRQHandler, %function
 485              	rcuart_PORT3_IRQHandler:
 486              	.LFB65:
 170:drivers/rc_uart/rc_uart.c **** 
 171:drivers/rc_uart/rc_uart.c **** /**
 172:drivers/rc_uart/rc_uart.c ****  * \brief 	Standard UART3 IRQHandler
 173:drivers/rc_uart/rc_uart.c ****  * \return	none
 174:drivers/rc_uart/rc_uart.c ****  */
 175:drivers/rc_uart/rc_uart.c **** void rcuart_PORT3_IRQHandler(void)
 176:drivers/rc_uart/rc_uart.c **** {
 487              		.loc 1 176 0
 488              		.cfi_startproc
 489              		@ args = 0, pretend = 0, frame = 0
 490              		@ frame_needed = 1, uses_anonymous_args = 0
 491 0000 80B5     		push	{r7, lr}	@
 492              		.cfi_def_cfa_offset 8
 493              		.cfi_offset 7, -8
 494              		.cfi_offset 14, -4
 495 0002 00AF     		add	r7, sp, #0	@,,
 496              		.cfi_def_cfa_register 7
 177:drivers/rc_uart/rc_uart.c **** 	UART3_StdIntHandler();
 497              		.loc 1 177 0
 498 0004 FFF7FEFF 		bl	UART3_StdIntHandler	@
 178:drivers/rc_uart/rc_uart.c **** }
 499              		.loc 1 178 0
 500 0008 80BD     		pop	{r7, pc}	@
 501              		.cfi_endproc
 502              	.LFE65:
 503              		.size	rcuart_PORT3_IRQHandler, .-rcuart_PORT3_IRQHandler
 504 000a 00BF     		.text
 505              	.Letext0:
ARM GAS  C:\Users\COSMIN~1.MAR\AppData\Local\Temp\ccpiKZLq.s 			page 13


 506              		.file 2 "c:\\gnu tools arm embedded\\4.9 2015q1\\arm-none-eabi\\include\\machine\\_default_types.h
 507              		.file 3 "c:\\gnu tools arm embedded\\4.9 2015q1\\arm-none-eabi\\include\\stdint.h"
 508              		.file 4 "system/LPC17xx.h"
 509              		.file 5 "core/lpc_types.h"
 510              		.file 6 "config/rc_stdtypedefs.h"
 511              		.file 7 "core/lpc17xx_uart.h"
 512              		.file 8 "drivers/rc_uart/rc_uart.h"
 513              		.file 9 "system/core_cm3.h"