ARM GAS  C:\Users\COSMIN~1.MAR\AppData\Local\Temp\ccJcV6ch.s 			page 1


   1              		.syntax unified
   2              		.cpu cortex-m3
   3              		.fpu softvfp
   4              		.eabi_attribute 20, 1	@ Tag_ABI_FP_denormal
   5              		.eabi_attribute 21, 1	@ Tag_ABI_FP_exceptions
   6              		.eabi_attribute 23, 3	@ Tag_ABI_FP_number_model
   7              		.eabi_attribute 24, 1	@ Tag_ABI_align8_needed
   8              		.eabi_attribute 25, 1	@ Tag_ABI_align8_preserved
   9              		.eabi_attribute 26, 1	@ Tag_ABI_enum_size
  10              		.eabi_attribute 30, 6	@ Tag_ABI_optimization_goals
  11              		.eabi_attribute 34, 1	@ Tag_CPU_unaligned_access
  12              		.eabi_attribute 18, 4	@ Tag_ABI_PCS_wchar_t
  13              		.file	"tasks.c"
  14              	@ GNU C (GNU Tools for ARM Embedded Processors) version 4.9.3 20150303 (release) [ARM/embedded-4_9-
  15              	@	compiled by GNU C version 4.7.4, GMP version 4.3.2, MPFR version 2.4.2, MPC version 0.8.1
  16              	@ GGC heuristics: --param ggc-min-expand=100 --param ggc-min-heapsize=131072
  17              	@ options passed:  -I . -I config -I system -I core -I drivers -I FreeRTOS
  18              	@ -I FreeRTOS/include -I FreeRTOS/portable/GCC/ARM_CM3 -I FreeRTOS/portable
  19              	@ -I tasks/rc_task_leds -I tasks/rc_task_pot -I modules/rc_leds
  20              	@ -I modules/rc_pot -I drivers/rc_system -I drivers/rc_gpio
  21              	@ -I drivers/rc_uart -I drivers/rc_pinsel -I drivers/rc_timer
  22              	@ -I drivers/rc_adc -imultilib armv7-m
  23              	@ -iprefix c:\gnu tools arm embedded\4.9 2015q1\bin\../lib/gcc/arm-none-eabi/4.9.3/
  24              	@ -isysroot c:\gnu tools arm embedded\4.9 2015q1\bin\../arm-none-eabi
  25              	@ -MD out/tasks.d -MF out/tasks.d -MP -MQ out/tasks.o -D__USES_INITFINI__
  26              	@ FreeRTOS/tasks.c -mcpu=cortex-m3 -mthumb -auxbase-strip out/tasks.o -g
  27              	@ -ggdb3 -O0 -Wall -Wstrict-prototypes -Wextra -std=gnu90
  28              	@ -ffunction-sections -fdata-sections -fverbose-asm
  29              	@ options enabled:  -faggressive-loop-optimizations -fauto-inc-dec -fcommon
  30              	@ -fdata-sections -fdelete-null-pointer-checks -fdwarf2-cfi-asm
  31              	@ -fearly-inlining -feliminate-unused-debug-types -ffunction-cse
  32              	@ -ffunction-sections -fgcse-lm -fgnu-runtime -fgnu-unique -fident
  33              	@ -finline-atomics -fira-hoist-pressure -fira-share-save-slots
  34              	@ -fira-share-spill-slots -fivopts -fkeep-static-consts
  35              	@ -fleading-underscore -flifetime-dse -fmath-errno -fmerge-debug-strings
  36              	@ -fpeephole -fprefetch-loop-arrays -freg-struct-return
  37              	@ -fsched-critical-path-heuristic -fsched-dep-count-heuristic
  38              	@ -fsched-group-heuristic -fsched-interblock -fsched-last-insn-heuristic
  39              	@ -fsched-rank-heuristic -fsched-spec -fsched-spec-insn-heuristic
  40              	@ -fsched-stalled-insns-dep -fshow-column -fsigned-zeros
  41              	@ -fsplit-ivs-in-unroller -fstrict-volatile-bitfields -fsync-libcalls
  42              	@ -ftrapping-math -ftree-coalesce-vars -ftree-cselim -ftree-forwprop
  43              	@ -ftree-loop-if-convert -ftree-loop-im -ftree-loop-ivcanon
  44              	@ -ftree-loop-optimize -ftree-parallelize-loops= -ftree-phiprop
  45              	@ -ftree-reassoc -ftree-scev-cprop -funit-at-a-time -fverbose-asm
  46              	@ -fzero-initialized-in-bss -mfix-cortex-m3-ldrd -mlittle-endian -mlra
  47              	@ -mpic-data-is-text-relative -msched-prolog -mthumb -munaligned-access
  48              	@ -mvectorize-with-neon-quad
  49              	
  50              		.text
  51              	.Ltext0:
  52              		.cfi_sections	.debug_frame
  53              		.global	pxCurrentTCB
  54              		.section	.bss.pxCurrentTCB,"aw",%nobits
  55              		.align	2
  56              		.type	pxCurrentTCB, %object
  57              		.size	pxCurrentTCB, 4
ARM GAS  C:\Users\COSMIN~1.MAR\AppData\Local\Temp\ccJcV6ch.s 			page 2


  58              	pxCurrentTCB:
  59 0000 00000000 		.space	4
  60              		.section	.bss.pxReadyTasksLists,"aw",%nobits
  61              		.align	2
  62              		.type	pxReadyTasksLists, %object
  63              		.size	pxReadyTasksLists, 160
  64              	pxReadyTasksLists:
  65 0000 00000000 		.space	160
  65      00000000 
  65      00000000 
  65      00000000 
  65      00000000 
  66              		.section	.bss.xDelayedTaskList1,"aw",%nobits
  67              		.align	2
  68              		.type	xDelayedTaskList1, %object
  69              		.size	xDelayedTaskList1, 20
  70              	xDelayedTaskList1:
  71 0000 00000000 		.space	20
  71      00000000 
  71      00000000 
  71      00000000 
  71      00000000 
  72              		.section	.bss.xDelayedTaskList2,"aw",%nobits
  73              		.align	2
  74              		.type	xDelayedTaskList2, %object
  75              		.size	xDelayedTaskList2, 20
  76              	xDelayedTaskList2:
  77 0000 00000000 		.space	20
  77      00000000 
  77      00000000 
  77      00000000 
  77      00000000 
  78              		.section	.bss.pxDelayedTaskList,"aw",%nobits
  79              		.align	2
  80              		.type	pxDelayedTaskList, %object
  81              		.size	pxDelayedTaskList, 4
  82              	pxDelayedTaskList:
  83 0000 00000000 		.space	4
  84              		.section	.bss.pxOverflowDelayedTaskList,"aw",%nobits
  85              		.align	2
  86              		.type	pxOverflowDelayedTaskList, %object
  87              		.size	pxOverflowDelayedTaskList, 4
  88              	pxOverflowDelayedTaskList:
  89 0000 00000000 		.space	4
  90              		.section	.bss.xPendingReadyList,"aw",%nobits
  91              		.align	2
  92              		.type	xPendingReadyList, %object
  93              		.size	xPendingReadyList, 20
  94              	xPendingReadyList:
  95 0000 00000000 		.space	20
  95      00000000 
  95      00000000 
  95      00000000 
  95      00000000 
  96              		.section	.bss.xTasksWaitingTermination,"aw",%nobits
  97              		.align	2
  98              		.type	xTasksWaitingTermination, %object
ARM GAS  C:\Users\COSMIN~1.MAR\AppData\Local\Temp\ccJcV6ch.s 			page 3


  99              		.size	xTasksWaitingTermination, 20
 100              	xTasksWaitingTermination:
 101 0000 00000000 		.space	20
 101      00000000 
 101      00000000 
 101      00000000 
 101      00000000 
 102              		.section	.bss.uxTasksDeleted,"aw",%nobits
 103              		.align	2
 104              		.type	uxTasksDeleted, %object
 105              		.size	uxTasksDeleted, 4
 106              	uxTasksDeleted:
 107 0000 00000000 		.space	4
 108              		.section	.bss.xSuspendedTaskList,"aw",%nobits
 109              		.align	2
 110              		.type	xSuspendedTaskList, %object
 111              		.size	xSuspendedTaskList, 20
 112              	xSuspendedTaskList:
 113 0000 00000000 		.space	20
 113      00000000 
 113      00000000 
 113      00000000 
 113      00000000 
 114              		.section	.bss.uxCurrentNumberOfTasks,"aw",%nobits
 115              		.align	2
 116              		.type	uxCurrentNumberOfTasks, %object
 117              		.size	uxCurrentNumberOfTasks, 4
 118              	uxCurrentNumberOfTasks:
 119 0000 00000000 		.space	4
 120              		.section	.bss.xTickCount,"aw",%nobits
 121              		.align	2
 122              		.type	xTickCount, %object
 123              		.size	xTickCount, 4
 124              	xTickCount:
 125 0000 00000000 		.space	4
 126              		.section	.bss.uxTopReadyPriority,"aw",%nobits
 127              		.align	2
 128              		.type	uxTopReadyPriority, %object
 129              		.size	uxTopReadyPriority, 4
 130              	uxTopReadyPriority:
 131 0000 00000000 		.space	4
 132              		.section	.bss.xSchedulerRunning,"aw",%nobits
 133              		.align	2
 134              		.type	xSchedulerRunning, %object
 135              		.size	xSchedulerRunning, 4
 136              	xSchedulerRunning:
 137 0000 00000000 		.space	4
 138              		.section	.bss.uxPendedTicks,"aw",%nobits
 139              		.align	2
 140              		.type	uxPendedTicks, %object
 141              		.size	uxPendedTicks, 4
 142              	uxPendedTicks:
 143 0000 00000000 		.space	4
 144              		.section	.bss.xYieldPending,"aw",%nobits
 145              		.align	2
 146              		.type	xYieldPending, %object
 147              		.size	xYieldPending, 4
ARM GAS  C:\Users\COSMIN~1.MAR\AppData\Local\Temp\ccJcV6ch.s 			page 4


 148              	xYieldPending:
 149 0000 00000000 		.space	4
 150              		.section	.bss.xNumOfOverflows,"aw",%nobits
 151              		.align	2
 152              		.type	xNumOfOverflows, %object
 153              		.size	xNumOfOverflows, 4
 154              	xNumOfOverflows:
 155 0000 00000000 		.space	4
 156              		.section	.bss.uxTaskNumber,"aw",%nobits
 157              		.align	2
 158              		.type	uxTaskNumber, %object
 159              		.size	uxTaskNumber, 4
 160              	uxTaskNumber:
 161 0000 00000000 		.space	4
 162              		.section	.data.xNextTaskUnblockTime,"aw",%progbits
 163              		.align	2
 164              		.type	xNextTaskUnblockTime, %object
 165              		.size	xNextTaskUnblockTime, 4
 166              	xNextTaskUnblockTime:
 167 0000 FFFFFFFF 		.word	-1
 168              		.section	.bss.uxSchedulerSuspended,"aw",%nobits
 169              		.align	2
 170              		.type	uxSchedulerSuspended, %object
 171              		.size	uxSchedulerSuspended, 4
 172              	uxSchedulerSuspended:
 173 0000 00000000 		.space	4
 174              		.section	.text.xTaskGenericCreate,"ax",%progbits
 175              		.align	2
 176              		.global	xTaskGenericCreate
 177              		.thumb
 178              		.thumb_func
 179              		.type	xTaskGenericCreate, %function
 180              	xTaskGenericCreate:
 181              	.LFB1:
 182              		.file 1 "FreeRTOS/tasks.c"
   1:FreeRTOS/tasks.c **** /*
   2:FreeRTOS/tasks.c ****     FreeRTOS V8.1.2 - Copyright (C) 2014 Real Time Engineers Ltd.
   3:FreeRTOS/tasks.c ****     All rights reserved
   4:FreeRTOS/tasks.c **** 
   5:FreeRTOS/tasks.c ****     VISIT http://www.FreeRTOS.org TO ENSURE YOU ARE USING THE LATEST VERSION.
   6:FreeRTOS/tasks.c **** 
   7:FreeRTOS/tasks.c ****     ***************************************************************************
   8:FreeRTOS/tasks.c ****      *                                                                       *
   9:FreeRTOS/tasks.c ****      *    FreeRTOS provides completely free yet professionally developed,    *
  10:FreeRTOS/tasks.c ****      *    robust, strictly quality controlled, supported, and cross          *
  11:FreeRTOS/tasks.c ****      *    platform software that has become a de facto standard.             *
  12:FreeRTOS/tasks.c ****      *                                                                       *
  13:FreeRTOS/tasks.c ****      *    Help yourself get started quickly and support the FreeRTOS         *
  14:FreeRTOS/tasks.c ****      *    project by purchasing a FreeRTOS tutorial book, reference          *
  15:FreeRTOS/tasks.c ****      *    manual, or both from: http://www.FreeRTOS.org/Documentation        *
  16:FreeRTOS/tasks.c ****      *                                                                       *
  17:FreeRTOS/tasks.c ****      *    Thank you!                                                         *
  18:FreeRTOS/tasks.c ****      *                                                                       *
  19:FreeRTOS/tasks.c ****     ***************************************************************************
  20:FreeRTOS/tasks.c **** 
  21:FreeRTOS/tasks.c ****     This file is part of the FreeRTOS distribution.
  22:FreeRTOS/tasks.c **** 
ARM GAS  C:\Users\COSMIN~1.MAR\AppData\Local\Temp\ccJcV6ch.s 			page 5


  23:FreeRTOS/tasks.c ****     FreeRTOS is free software; you can redistribute it and/or modify it under
  24:FreeRTOS/tasks.c ****     the terms of the GNU General Public License (version 2) as published by the
  25:FreeRTOS/tasks.c ****     Free Software Foundation >>!AND MODIFIED BY!<< the FreeRTOS exception.
  26:FreeRTOS/tasks.c **** 
  27:FreeRTOS/tasks.c ****     >>!   NOTE: The modification to the GPL is included to allow you to     !<<
  28:FreeRTOS/tasks.c ****     >>!   distribute a combined work that includes FreeRTOS without being   !<<
  29:FreeRTOS/tasks.c ****     >>!   obliged to provide the source code for proprietary components     !<<
  30:FreeRTOS/tasks.c ****     >>!   outside of the FreeRTOS kernel.                                   !<<
  31:FreeRTOS/tasks.c **** 
  32:FreeRTOS/tasks.c ****     FreeRTOS is distributed in the hope that it will be useful, but WITHOUT ANY
  33:FreeRTOS/tasks.c ****     WARRANTY; without even the implied warranty of MERCHANTABILITY or FITNESS
  34:FreeRTOS/tasks.c ****     FOR A PARTICULAR PURPOSE.  Full license text is available from the following
  35:FreeRTOS/tasks.c ****     link: http://www.freertos.org/a00114.html
  36:FreeRTOS/tasks.c **** 
  37:FreeRTOS/tasks.c ****     1 tab == 4 spaces!
  38:FreeRTOS/tasks.c **** 
  39:FreeRTOS/tasks.c ****     ***************************************************************************
  40:FreeRTOS/tasks.c ****      *                                                                       *
  41:FreeRTOS/tasks.c ****      *    Having a problem?  Start by reading the FAQ "My application does   *
  42:FreeRTOS/tasks.c ****      *    not run, what could be wrong?"                                     *
  43:FreeRTOS/tasks.c ****      *                                                                       *
  44:FreeRTOS/tasks.c ****      *    http://www.FreeRTOS.org/FAQHelp.html                               *
  45:FreeRTOS/tasks.c ****      *                                                                       *
  46:FreeRTOS/tasks.c ****     ***************************************************************************
  47:FreeRTOS/tasks.c **** 
  48:FreeRTOS/tasks.c ****     http://www.FreeRTOS.org - Documentation, books, training, latest versions,
  49:FreeRTOS/tasks.c ****     license and Real Time Engineers Ltd. contact details.
  50:FreeRTOS/tasks.c **** 
  51:FreeRTOS/tasks.c ****     http://www.FreeRTOS.org/plus - A selection of FreeRTOS ecosystem products,
  52:FreeRTOS/tasks.c ****     including FreeRTOS+Trace - an indispensable productivity tool, a DOS
  53:FreeRTOS/tasks.c ****     compatible FAT file system, and our tiny thread aware UDP/IP stack.
  54:FreeRTOS/tasks.c **** 
  55:FreeRTOS/tasks.c ****     http://www.OpenRTOS.com - Real Time Engineers ltd license FreeRTOS to High
  56:FreeRTOS/tasks.c ****     Integrity Systems to sell under the OpenRTOS brand.  Low cost OpenRTOS
  57:FreeRTOS/tasks.c ****     licenses offer ticketed support, indemnification and middleware.
  58:FreeRTOS/tasks.c **** 
  59:FreeRTOS/tasks.c ****     http://www.SafeRTOS.com - High Integrity Systems also provide a safety
  60:FreeRTOS/tasks.c ****     engineered and independently SIL3 certified version for use in safety and
  61:FreeRTOS/tasks.c ****     mission critical applications that require provable dependability.
  62:FreeRTOS/tasks.c **** 
  63:FreeRTOS/tasks.c ****     1 tab == 4 spaces!
  64:FreeRTOS/tasks.c **** */
  65:FreeRTOS/tasks.c **** 
  66:FreeRTOS/tasks.c **** /* Standard includes. */
  67:FreeRTOS/tasks.c **** #include <stdlib.h>
  68:FreeRTOS/tasks.c **** #include <string.h>
  69:FreeRTOS/tasks.c **** 
  70:FreeRTOS/tasks.c **** /* Defining MPU_WRAPPERS_INCLUDED_FROM_API_FILE prevents task.h from redefining
  71:FreeRTOS/tasks.c **** all the API functions to use the MPU wrappers.  That should only be done when
  72:FreeRTOS/tasks.c **** task.h is included from an application file. */
  73:FreeRTOS/tasks.c **** #define MPU_WRAPPERS_INCLUDED_FROM_API_FILE
  74:FreeRTOS/tasks.c **** 
  75:FreeRTOS/tasks.c **** /* FreeRTOS includes. */
  76:FreeRTOS/tasks.c **** #include "FreeRTOS.h"
  77:FreeRTOS/tasks.c **** #include "task.h"
  78:FreeRTOS/tasks.c **** #include "timers.h"
  79:FreeRTOS/tasks.c **** #include "StackMacros.h"
ARM GAS  C:\Users\COSMIN~1.MAR\AppData\Local\Temp\ccJcV6ch.s 			page 6


  80:FreeRTOS/tasks.c **** 
  81:FreeRTOS/tasks.c **** /* Lint e961 and e750 are suppressed as a MISRA exception justified because the
  82:FreeRTOS/tasks.c **** MPU ports require MPU_WRAPPERS_INCLUDED_FROM_API_FILE to be defined for the
  83:FreeRTOS/tasks.c **** header files above, but not in this file, in order to generate the correct
  84:FreeRTOS/tasks.c **** privileged Vs unprivileged linkage and placement. */
  85:FreeRTOS/tasks.c **** #undef MPU_WRAPPERS_INCLUDED_FROM_API_FILE /*lint !e961 !e750. */
  86:FreeRTOS/tasks.c **** 
  87:FreeRTOS/tasks.c **** #if ( configUSE_STATS_FORMATTING_FUNCTIONS == 1 )
  88:FreeRTOS/tasks.c **** 	/* At the bottom of this file are two optional functions that can be used
  89:FreeRTOS/tasks.c **** 	to generate human readable text from the raw data generated by the
  90:FreeRTOS/tasks.c **** 	uxTaskGetSystemState() function.  Note the formatting functions are provided
  91:FreeRTOS/tasks.c **** 	for convenience only, and are NOT considered part of the kernel. */
  92:FreeRTOS/tasks.c **** 	#include <stdio.h>
  93:FreeRTOS/tasks.c **** #endif /* configUSE_STATS_FORMATTING_FUNCTIONS == 1 ) */
  94:FreeRTOS/tasks.c **** 
  95:FreeRTOS/tasks.c **** /* Sanity check the configuration. */
  96:FreeRTOS/tasks.c **** #if configUSE_TICKLESS_IDLE != 0
  97:FreeRTOS/tasks.c **** 	#if INCLUDE_vTaskSuspend != 1
  98:FreeRTOS/tasks.c **** 		#error INCLUDE_vTaskSuspend must be set to 1 if configUSE_TICKLESS_IDLE is not set to 0
  99:FreeRTOS/tasks.c **** 	#endif /* INCLUDE_vTaskSuspend */
 100:FreeRTOS/tasks.c **** #endif /* configUSE_TICKLESS_IDLE */
 101:FreeRTOS/tasks.c **** 
 102:FreeRTOS/tasks.c **** /*
 103:FreeRTOS/tasks.c ****  * Defines the size, in words, of the stack allocated to the idle task.
 104:FreeRTOS/tasks.c ****  */
 105:FreeRTOS/tasks.c **** #define tskIDLE_STACK_SIZE	configMINIMAL_STACK_SIZE
 106:FreeRTOS/tasks.c **** 
 107:FreeRTOS/tasks.c **** #if( configUSE_PREEMPTION == 0 )
 108:FreeRTOS/tasks.c **** 	/* If the cooperative scheduler is being used then a yield should not be
 109:FreeRTOS/tasks.c **** 	performed just because a higher priority task has been woken. */
 110:FreeRTOS/tasks.c **** 	#define taskYIELD_IF_USING_PREEMPTION()
 111:FreeRTOS/tasks.c **** #else
 112:FreeRTOS/tasks.c **** 	#define taskYIELD_IF_USING_PREEMPTION() portYIELD_WITHIN_API()
 113:FreeRTOS/tasks.c **** #endif
 114:FreeRTOS/tasks.c **** 
 115:FreeRTOS/tasks.c **** /*
 116:FreeRTOS/tasks.c ****  * Task control block.  A task control block (TCB) is allocated for each task,
 117:FreeRTOS/tasks.c ****  * and stores task state information, including a pointer to the task's context
 118:FreeRTOS/tasks.c ****  * (the task's run time environment, including register values)
 119:FreeRTOS/tasks.c ****  */
 120:FreeRTOS/tasks.c **** typedef struct tskTaskControlBlock
 121:FreeRTOS/tasks.c **** {
 122:FreeRTOS/tasks.c **** 	volatile StackT_t	*pxTopOfStack;	/*< Points to the location of the last item placed on the tasks s
 123:FreeRTOS/tasks.c **** 
 124:FreeRTOS/tasks.c **** 	#if ( portUSING_MPU_WRAPPERS == 1 )
 125:FreeRTOS/tasks.c **** 		xMPU_SETTINGS	xMPUSettings;		/*< The MPU settings are defined as part of the port layer.  THIS MU
 126:FreeRTOS/tasks.c **** 	#endif
 127:FreeRTOS/tasks.c **** 
 128:FreeRTOS/tasks.c **** 	ListItem_t			xGenericListItem;	/*< The list that the state list item of a task is reference from d
 129:FreeRTOS/tasks.c **** 	ListItem_t			xEventListItem;		/*< Used to reference a task from an event list. */
 130:FreeRTOS/tasks.c **** 	UBaseT_t			uxPriority;			/*< The priority of the task.  0 is the lowest priority. */
 131:FreeRTOS/tasks.c **** 	StackT_t			*pxStack;			/*< Points to the start of the stack. */
 132:FreeRTOS/tasks.c **** 	char				pcTaskName[ configMAX_TASK_NAME_LEN ];/*< Descriptive name given to the task when created.
 133:FreeRTOS/tasks.c **** 
 134:FreeRTOS/tasks.c **** 	#if ( portSTACK_GROWTH > 0 )
 135:FreeRTOS/tasks.c **** 		StackT_t		*pxEndOfStack;		/*< Points to the end of the stack on architectures where the stack gro
 136:FreeRTOS/tasks.c **** 	#endif
ARM GAS  C:\Users\COSMIN~1.MAR\AppData\Local\Temp\ccJcV6ch.s 			page 7


 137:FreeRTOS/tasks.c **** 
 138:FreeRTOS/tasks.c **** 	#if ( portCRITICAL_NESTING_IN_TCB == 1 )
 139:FreeRTOS/tasks.c **** 		UBaseT_t 	uxCriticalNesting; 	/*< Holds the critical section nesting depth for ports that do not 
 140:FreeRTOS/tasks.c **** 	#endif
 141:FreeRTOS/tasks.c **** 
 142:FreeRTOS/tasks.c **** 	#if ( configUSE_TRACE_FACILITY == 1 )
 143:FreeRTOS/tasks.c **** 		UBaseT_t		uxTCBNumber;		/*< Stores a number that increments each time a TCB is created.  It allow
 144:FreeRTOS/tasks.c **** 		UBaseT_t  	uxTaskNumber;		/*< Stores a number specifically for use by third party trace code. */
 145:FreeRTOS/tasks.c **** 	#endif
 146:FreeRTOS/tasks.c **** 
 147:FreeRTOS/tasks.c **** 	#if ( configUSE_MUTEXES == 1 )
 148:FreeRTOS/tasks.c **** 		UBaseT_t 	uxBasePriority;		/*< The priority last assigned to the task - used by the priority inhe
 149:FreeRTOS/tasks.c **** 		UBaseT_t 	uxMutexesHeld;
 150:FreeRTOS/tasks.c **** 	#endif
 151:FreeRTOS/tasks.c **** 
 152:FreeRTOS/tasks.c **** 	#if ( configUSE_APPLICATION_TASK_TAG == 1 )
 153:FreeRTOS/tasks.c **** 		TaskHookFunction_t pxTaskTag;
 154:FreeRTOS/tasks.c **** 	#endif
 155:FreeRTOS/tasks.c **** 
 156:FreeRTOS/tasks.c **** 	#if ( configGENERATE_RUN_TIME_STATS == 1 )
 157:FreeRTOS/tasks.c **** 		uint32_t		ulRunTimeCounter;	/*< Stores the amount of time the task has spent in the Running state
 158:FreeRTOS/tasks.c **** 	#endif
 159:FreeRTOS/tasks.c **** 
 160:FreeRTOS/tasks.c **** 	#if ( configUSE_NEWLIB_REENTRANT == 1 )
 161:FreeRTOS/tasks.c **** 		/* Allocate a Newlib reent structure that is specific to this task.
 162:FreeRTOS/tasks.c **** 		Note Newlib support has been included by popular demand, but is not
 163:FreeRTOS/tasks.c **** 		used by the FreeRTOS maintainers themselves.  FreeRTOS is not
 164:FreeRTOS/tasks.c **** 		responsible for resulting newlib operation.  User must be familiar with
 165:FreeRTOS/tasks.c **** 		newlib and must provide system-wide implementations of the necessary
 166:FreeRTOS/tasks.c **** 		stubs. Be warned that (at the time of writing) the current newlib design
 167:FreeRTOS/tasks.c **** 		implements a system-wide malloc() that must be provided with locks. */
 168:FreeRTOS/tasks.c **** 		struct 	_reent xNewLib_reent;
 169:FreeRTOS/tasks.c **** 	#endif
 170:FreeRTOS/tasks.c **** 
 171:FreeRTOS/tasks.c **** } tskTCB;
 172:FreeRTOS/tasks.c **** 
 173:FreeRTOS/tasks.c **** /* The old tskTCB name is maintained above then typedefed to the new TCB_t name
 174:FreeRTOS/tasks.c **** below to enable the use of older kernel aware debuggers. */
 175:FreeRTOS/tasks.c **** typedef tskTCB TCB_t;
 176:FreeRTOS/tasks.c **** 
 177:FreeRTOS/tasks.c **** /*
 178:FreeRTOS/tasks.c ****  * Some kernel aware debuggers require the data the debugger needs access to to
 179:FreeRTOS/tasks.c ****  * be global, rather than file scope.
 180:FreeRTOS/tasks.c ****  */
 181:FreeRTOS/tasks.c **** #ifdef portREMOVE_STATIC_QUALIFIER
 182:FreeRTOS/tasks.c **** 	#define static
 183:FreeRTOS/tasks.c **** #endif
 184:FreeRTOS/tasks.c **** 
 185:FreeRTOS/tasks.c **** /*lint -e956 A manual analysis and inspection has been used to determine which
 186:FreeRTOS/tasks.c **** static variables must be declared volatile. */
 187:FreeRTOS/tasks.c **** 
 188:FreeRTOS/tasks.c **** PRIVILEGED_DATA TCB_t * volatile pxCurrentTCB = NULL;
 189:FreeRTOS/tasks.c **** 
 190:FreeRTOS/tasks.c **** /* Lists for ready and blocked tasks. --------------------*/
 191:FreeRTOS/tasks.c **** PRIVILEGED_DATA static List_t pxReadyTasksLists[ configMAX_PRIORITIES ];/*< Prioritised ready tasks
 192:FreeRTOS/tasks.c **** PRIVILEGED_DATA static List_t xDelayedTaskList1;						/*< Delayed tasks. */
 193:FreeRTOS/tasks.c **** PRIVILEGED_DATA static List_t xDelayedTaskList2;						/*< Delayed tasks (two lists are used - one f
ARM GAS  C:\Users\COSMIN~1.MAR\AppData\Local\Temp\ccJcV6ch.s 			page 8


 194:FreeRTOS/tasks.c **** PRIVILEGED_DATA static List_t * volatile pxDelayedTaskList;				/*< Points to the delayed task list 
 195:FreeRTOS/tasks.c **** PRIVILEGED_DATA static List_t * volatile pxOverflowDelayedTaskList;		/*< Points to the delayed task
 196:FreeRTOS/tasks.c **** PRIVILEGED_DATA static List_t xPendingReadyList;						/*< Tasks that have been readied while the sc
 197:FreeRTOS/tasks.c **** 
 198:FreeRTOS/tasks.c **** #if ( INCLUDE_vTaskDelete == 1 )
 199:FreeRTOS/tasks.c **** 
 200:FreeRTOS/tasks.c **** 	PRIVILEGED_DATA static List_t xTasksWaitingTermination;				/*< Tasks that have been deleted - but 
 201:FreeRTOS/tasks.c **** 	PRIVILEGED_DATA static volatile UBaseT_t uxTasksDeleted = ( UBaseT_t ) 0U;
 202:FreeRTOS/tasks.c **** 
 203:FreeRTOS/tasks.c **** #endif
 204:FreeRTOS/tasks.c **** 
 205:FreeRTOS/tasks.c **** #if ( INCLUDE_vTaskSuspend == 1 )
 206:FreeRTOS/tasks.c **** 
 207:FreeRTOS/tasks.c **** 	PRIVILEGED_DATA static List_t xSuspendedTaskList;					/*< Tasks that are currently suspended. */
 208:FreeRTOS/tasks.c **** 
 209:FreeRTOS/tasks.c **** #endif
 210:FreeRTOS/tasks.c **** 
 211:FreeRTOS/tasks.c **** #if ( INCLUDE_xTaskGetIdleTaskHandle == 1 )
 212:FreeRTOS/tasks.c **** 
 213:FreeRTOS/tasks.c **** 	PRIVILEGED_DATA static TaskHandle_t xIdleTaskHandle = NULL;			/*< Holds the handle of the idle tas
 214:FreeRTOS/tasks.c **** 
 215:FreeRTOS/tasks.c **** #endif
 216:FreeRTOS/tasks.c **** 
 217:FreeRTOS/tasks.c **** /* Other file private variables. --------------------------------*/
 218:FreeRTOS/tasks.c **** PRIVILEGED_DATA static volatile UBaseT_t uxCurrentNumberOfTasks 	= ( UBaseT_t ) 0U;
 219:FreeRTOS/tasks.c **** PRIVILEGED_DATA static volatile TickT_t xTickCount 				= ( TickT_t ) 0U;
 220:FreeRTOS/tasks.c **** PRIVILEGED_DATA static volatile UBaseT_t uxTopReadyPriority 		= tskIDLE_PRIORITY;
 221:FreeRTOS/tasks.c **** PRIVILEGED_DATA static volatile BaseT_t xSchedulerRunning 		= pdFALSE;
 222:FreeRTOS/tasks.c **** PRIVILEGED_DATA static volatile UBaseT_t uxPendedTicks 			= ( UBaseT_t ) 0U;
 223:FreeRTOS/tasks.c **** PRIVILEGED_DATA static volatile BaseT_t xYieldPending 			= pdFALSE;
 224:FreeRTOS/tasks.c **** PRIVILEGED_DATA static volatile BaseT_t xNumOfOverflows 			= ( BaseT_t ) 0;
 225:FreeRTOS/tasks.c **** PRIVILEGED_DATA static UBaseT_t uxTaskNumber 					= ( UBaseT_t ) 0U;
 226:FreeRTOS/tasks.c **** PRIVILEGED_DATA static volatile TickT_t xNextTaskUnblockTime		= portMAX_DELAY;
 227:FreeRTOS/tasks.c **** 
 228:FreeRTOS/tasks.c **** /* Context switches are held pending while the scheduler is suspended.  Also,
 229:FreeRTOS/tasks.c **** interrupts must not manipulate the xStateListItem of a TCB, or any of the
 230:FreeRTOS/tasks.c **** lists the xStateListItem can be referenced from, if the scheduler is suspended.
 231:FreeRTOS/tasks.c **** If an interrupt needs to unblock a task while the scheduler is suspended then it
 232:FreeRTOS/tasks.c **** moves the task's event list item into the xPendingReadyList, ready for the
 233:FreeRTOS/tasks.c **** kernel to move the task from the pending ready list into the real ready list
 234:FreeRTOS/tasks.c **** when the scheduler is unsuspended.  The pending ready list itself can only be
 235:FreeRTOS/tasks.c **** accessed from a critical section. */
 236:FreeRTOS/tasks.c **** PRIVILEGED_DATA static volatile UBaseT_t uxSchedulerSuspended	= ( UBaseT_t ) pdFALSE;
 237:FreeRTOS/tasks.c **** 
 238:FreeRTOS/tasks.c **** #if ( configGENERATE_RUN_TIME_STATS == 1 )
 239:FreeRTOS/tasks.c **** 
 240:FreeRTOS/tasks.c **** 	PRIVILEGED_DATA static uint32_t ulTaskSwitchedInTime = 0UL;	/*< Holds the value of a timer/counter
 241:FreeRTOS/tasks.c **** 	PRIVILEGED_DATA static uint32_t ulTotalRunTime = 0UL;		/*< Holds the total amount of execution tim
 242:FreeRTOS/tasks.c **** 
 243:FreeRTOS/tasks.c **** #endif
 244:FreeRTOS/tasks.c **** 
 245:FreeRTOS/tasks.c **** /*lint +e956 */
 246:FreeRTOS/tasks.c **** 
 247:FreeRTOS/tasks.c **** /* Debugging and trace facilities private variables and macros. ------------*/
 248:FreeRTOS/tasks.c **** 
 249:FreeRTOS/tasks.c **** /*
 250:FreeRTOS/tasks.c ****  * The value used to fill the stack of a task when the task is created.  This
ARM GAS  C:\Users\COSMIN~1.MAR\AppData\Local\Temp\ccJcV6ch.s 			page 9


 251:FreeRTOS/tasks.c ****  * is used purely for checking the high water mark for tasks.
 252:FreeRTOS/tasks.c ****  */
 253:FreeRTOS/tasks.c **** #define tskSTACK_FILL_BYTE	( 0xa5U )
 254:FreeRTOS/tasks.c **** 
 255:FreeRTOS/tasks.c **** /*
 256:FreeRTOS/tasks.c ****  * Macros used by vListTask to indicate which state a task is in.
 257:FreeRTOS/tasks.c ****  */
 258:FreeRTOS/tasks.c **** #define tskBLOCKED_CHAR		( 'B' )
 259:FreeRTOS/tasks.c **** #define tskREADY_CHAR		( 'R' )
 260:FreeRTOS/tasks.c **** #define tskDELETED_CHAR		( 'D' )
 261:FreeRTOS/tasks.c **** #define tskSUSPENDED_CHAR	( 'S' )
 262:FreeRTOS/tasks.c **** 
 263:FreeRTOS/tasks.c **** /*-----------------------------------------------------------*/
 264:FreeRTOS/tasks.c **** 
 265:FreeRTOS/tasks.c **** #if ( configUSE_PORT_OPTIMISED_TASK_SELECTION == 0 )
 266:FreeRTOS/tasks.c **** 
 267:FreeRTOS/tasks.c **** 	/* If configUSE_PORT_OPTIMISED_TASK_SELECTION is 0 then task selection is
 268:FreeRTOS/tasks.c **** 	performed in a generic way that is not optimised to any particular
 269:FreeRTOS/tasks.c **** 	microcontroller architecture. */
 270:FreeRTOS/tasks.c **** 
 271:FreeRTOS/tasks.c **** 	/* uxTopReadyPriority holds the priority of the highest priority ready
 272:FreeRTOS/tasks.c **** 	state task. */
 273:FreeRTOS/tasks.c **** 	#define taskRECORD_READY_PRIORITY( uxPriority )														\
 274:FreeRTOS/tasks.c **** 	{																									\
 275:FreeRTOS/tasks.c **** 		if( ( uxPriority ) > uxTopReadyPriority )														\
 276:FreeRTOS/tasks.c **** 		{																								\
 277:FreeRTOS/tasks.c **** 			uxTopReadyPriority = ( uxPriority );														\
 278:FreeRTOS/tasks.c **** 		}																								\
 279:FreeRTOS/tasks.c **** 	} /* taskRECORD_READY_PRIORITY */
 280:FreeRTOS/tasks.c **** 
 281:FreeRTOS/tasks.c **** 	/*-----------------------------------------------------------*/
 282:FreeRTOS/tasks.c **** 
 283:FreeRTOS/tasks.c **** 	#define taskSELECT_HIGHEST_PRIORITY_TASK()															\
 284:FreeRTOS/tasks.c **** 	{																									\
 285:FreeRTOS/tasks.c **** 		/* Find the highest priority queue that contains ready tasks. */								\
 286:FreeRTOS/tasks.c **** 		while( listLIST_IS_EMPTY( &( pxReadyTasksLists[ uxTopReadyPriority ] ) ) )						\
 287:FreeRTOS/tasks.c **** 		{																								\
 288:FreeRTOS/tasks.c **** 			configASSERT( uxTopReadyPriority );															\
 289:FreeRTOS/tasks.c **** 			--uxTopReadyPriority;																		\
 290:FreeRTOS/tasks.c **** 		}																								\
 291:FreeRTOS/tasks.c **** 																										\
 292:FreeRTOS/tasks.c **** 		/* listGET_OWNER_OF_NEXT_ENTRY indexes through the list, so the tasks of						\
 293:FreeRTOS/tasks.c **** 		the	same priority get an equal share of the processor time. */									\
 294:FreeRTOS/tasks.c **** 		listGET_OWNER_OF_NEXT_ENTRY( pxCurrentTCB, &( pxReadyTasksLists[ uxTopReadyPriority ] ) );		\
 295:FreeRTOS/tasks.c **** 	} /* taskSELECT_HIGHEST_PRIORITY_TASK */
 296:FreeRTOS/tasks.c **** 
 297:FreeRTOS/tasks.c **** 	/*-----------------------------------------------------------*/
 298:FreeRTOS/tasks.c **** 
 299:FreeRTOS/tasks.c **** 	/* Define away taskRESET_READY_PRIORITY() and portRESET_READY_PRIORITY() as
 300:FreeRTOS/tasks.c **** 	they are only required when a port optimised method of task selection is
 301:FreeRTOS/tasks.c **** 	being used. */
 302:FreeRTOS/tasks.c **** 	#define taskRESET_READY_PRIORITY( uxPriority )
 303:FreeRTOS/tasks.c **** 	#define portRESET_READY_PRIORITY( uxPriority, uxTopReadyPriority )
 304:FreeRTOS/tasks.c **** 
 305:FreeRTOS/tasks.c **** #else /* configUSE_PORT_OPTIMISED_TASK_SELECTION */
 306:FreeRTOS/tasks.c **** 
 307:FreeRTOS/tasks.c **** 	/* If configUSE_PORT_OPTIMISED_TASK_SELECTION is 1 then task selection is
ARM GAS  C:\Users\COSMIN~1.MAR\AppData\Local\Temp\ccJcV6ch.s 			page 10


 308:FreeRTOS/tasks.c **** 	performed in a way that is tailored to the particular microcontroller
 309:FreeRTOS/tasks.c **** 	architecture being used. */
 310:FreeRTOS/tasks.c **** 
 311:FreeRTOS/tasks.c **** 	/* A port optimised version is provided.  Call the port defined macros. */
 312:FreeRTOS/tasks.c **** 	#define taskRECORD_READY_PRIORITY( uxPriority )	portRECORD_READY_PRIORITY( uxPriority, uxTopReadyP
 313:FreeRTOS/tasks.c **** 
 314:FreeRTOS/tasks.c **** 	/*-----------------------------------------------------------*/
 315:FreeRTOS/tasks.c **** 
 316:FreeRTOS/tasks.c **** 	#define taskSELECT_HIGHEST_PRIORITY_TASK()														\
 317:FreeRTOS/tasks.c **** 	{																								\
 318:FreeRTOS/tasks.c **** 	UBaseT_t uxTopPriority;																		\
 319:FreeRTOS/tasks.c **** 																									\
 320:FreeRTOS/tasks.c **** 		/* Find the highest priority queue that contains ready tasks. */							\
 321:FreeRTOS/tasks.c **** 		portGET_HIGHEST_PRIORITY( uxTopPriority, uxTopReadyPriority );								\
 322:FreeRTOS/tasks.c **** 		configASSERT( listCURRENT_LIST_LENGTH( &( pxReadyTasksLists[ uxTopPriority ] ) ) > 0 );		\
 323:FreeRTOS/tasks.c **** 		listGET_OWNER_OF_NEXT_ENTRY( pxCurrentTCB, &( pxReadyTasksLists[ uxTopPriority ] ) );		\
 324:FreeRTOS/tasks.c **** 	} /* taskSELECT_HIGHEST_PRIORITY_TASK() */
 325:FreeRTOS/tasks.c **** 
 326:FreeRTOS/tasks.c **** 	/*-----------------------------------------------------------*/
 327:FreeRTOS/tasks.c **** 
 328:FreeRTOS/tasks.c **** 	/* A port optimised version is provided, call it only if the TCB being reset
 329:FreeRTOS/tasks.c **** 	is being referenced from a ready list.  If it is referenced from a delayed
 330:FreeRTOS/tasks.c **** 	or suspended list then it won't be in a ready list. */
 331:FreeRTOS/tasks.c **** 	#define taskRESET_READY_PRIORITY( uxPriority )														\
 332:FreeRTOS/tasks.c **** 	{																									\
 333:FreeRTOS/tasks.c **** 		if( listCURRENT_LIST_LENGTH( &( pxReadyTasksLists[ ( uxPriority ) ] ) ) == ( UBaseT_t ) 0 )	\
 334:FreeRTOS/tasks.c **** 		{																								\
 335:FreeRTOS/tasks.c **** 			portRESET_READY_PRIORITY( ( uxPriority ), ( uxTopReadyPriority ) );							\
 336:FreeRTOS/tasks.c **** 		}																								\
 337:FreeRTOS/tasks.c **** 	}
 338:FreeRTOS/tasks.c **** 
 339:FreeRTOS/tasks.c **** #endif /* configUSE_PORT_OPTIMISED_TASK_SELECTION */
 340:FreeRTOS/tasks.c **** 
 341:FreeRTOS/tasks.c **** /*-----------------------------------------------------------*/
 342:FreeRTOS/tasks.c **** 
 343:FreeRTOS/tasks.c **** /* pxDelayedTaskList and pxOverflowDelayedTaskList are switched when the tick
 344:FreeRTOS/tasks.c **** count overflows. */
 345:FreeRTOS/tasks.c **** #define taskSWITCH_DELAYED_LISTS()																	\
 346:FreeRTOS/tasks.c **** {																									\
 347:FreeRTOS/tasks.c **** 	List_t *pxTemp;																					\
 348:FreeRTOS/tasks.c **** 																									\
 349:FreeRTOS/tasks.c **** 	/* The delayed tasks list should be empty when the lists are switched. */						\
 350:FreeRTOS/tasks.c **** 	configASSERT( ( listLIST_IS_EMPTY( pxDelayedTaskList ) ) );										\
 351:FreeRTOS/tasks.c **** 																									\
 352:FreeRTOS/tasks.c **** 	pxTemp = pxDelayedTaskList;																		\
 353:FreeRTOS/tasks.c **** 	pxDelayedTaskList = pxOverflowDelayedTaskList;													\
 354:FreeRTOS/tasks.c **** 	pxOverflowDelayedTaskList = pxTemp;																\
 355:FreeRTOS/tasks.c **** 	xNumOfOverflows++;																				\
 356:FreeRTOS/tasks.c **** 	prvResetNextTaskUnblockTime();																	\
 357:FreeRTOS/tasks.c **** }
 358:FreeRTOS/tasks.c **** 
 359:FreeRTOS/tasks.c **** /*-----------------------------------------------------------*/
 360:FreeRTOS/tasks.c **** 
 361:FreeRTOS/tasks.c **** /*
 362:FreeRTOS/tasks.c ****  * Place the task represented by pxTCB into the appropriate ready list for
 363:FreeRTOS/tasks.c ****  * the task.  It is inserted at the end of the list.
 364:FreeRTOS/tasks.c ****  */
ARM GAS  C:\Users\COSMIN~1.MAR\AppData\Local\Temp\ccJcV6ch.s 			page 11


 365:FreeRTOS/tasks.c **** #define prvAddTaskToReadyList( pxTCB )																\
 366:FreeRTOS/tasks.c **** 	traceMOVED_TASK_TO_READY_STATE( pxTCB )															\
 367:FreeRTOS/tasks.c **** 	taskRECORD_READY_PRIORITY( ( pxTCB )->uxPriority );												\
 368:FreeRTOS/tasks.c **** 	vListInsertEnd( &( pxReadyTasksLists[ ( pxTCB )->uxPriority ] ), &( ( pxTCB )->xGenericListItem ) 
 369:FreeRTOS/tasks.c **** /*-----------------------------------------------------------*/
 370:FreeRTOS/tasks.c **** 
 371:FreeRTOS/tasks.c **** /*
 372:FreeRTOS/tasks.c ****  * Several functions take an TaskHandle_t parameter that can optionally be NULL,
 373:FreeRTOS/tasks.c ****  * where NULL is used to indicate that the handle of the currently executing
 374:FreeRTOS/tasks.c ****  * task should be used in place of the parameter.  This macro simply checks to
 375:FreeRTOS/tasks.c ****  * see if the parameter is NULL and returns a pointer to the appropriate TCB.
 376:FreeRTOS/tasks.c ****  */
 377:FreeRTOS/tasks.c **** #define prvGetTCBFromHandle( pxHandle ) ( ( ( pxHandle ) == NULL ) ? ( TCB_t * ) pxCurrentTCB : ( T
 378:FreeRTOS/tasks.c **** 
 379:FreeRTOS/tasks.c **** /* The item value of the event list item is normally used to hold the priority
 380:FreeRTOS/tasks.c **** of the task to which it belongs (coded to allow it to be held in reverse
 381:FreeRTOS/tasks.c **** priority order).  However, it is occasionally borrowed for other purposes.  It
 382:FreeRTOS/tasks.c **** is important its value is not updated due to a task priority change while it is
 383:FreeRTOS/tasks.c **** being used for another purpose.  The following bit definition is used to inform
 384:FreeRTOS/tasks.c **** the scheduler that the value should not be changed - in which case it is the
 385:FreeRTOS/tasks.c **** responsibility of whichever module is using the value to ensure it gets set back
 386:FreeRTOS/tasks.c **** to its original value when it is released. */
 387:FreeRTOS/tasks.c **** #if configUSE_16_BIT_TICKS == 1
 388:FreeRTOS/tasks.c **** 	#define taskEVENT_LIST_ITEM_VALUE_IN_USE	0x8000U
 389:FreeRTOS/tasks.c **** #else
 390:FreeRTOS/tasks.c **** 	#define taskEVENT_LIST_ITEM_VALUE_IN_USE	0x80000000UL
 391:FreeRTOS/tasks.c **** #endif
 392:FreeRTOS/tasks.c **** 
 393:FreeRTOS/tasks.c **** /* Callback function prototypes. --------------------------*/
 394:FreeRTOS/tasks.c **** #if configCHECK_FOR_STACK_OVERFLOW > 0
 395:FreeRTOS/tasks.c **** 	extern void vApplicationStackOverflowHook( TaskHandle_t xTask, char *pcTaskName );
 396:FreeRTOS/tasks.c **** #endif
 397:FreeRTOS/tasks.c **** 
 398:FreeRTOS/tasks.c **** #if configUSE_TICK_HOOK > 0
 399:FreeRTOS/tasks.c **** 	extern void vApplicationTickHook( void );
 400:FreeRTOS/tasks.c **** #endif
 401:FreeRTOS/tasks.c **** 
 402:FreeRTOS/tasks.c **** /* File private functions. --------------------------------*/
 403:FreeRTOS/tasks.c **** 
 404:FreeRTOS/tasks.c **** /*
 405:FreeRTOS/tasks.c ****  * Utility to ready a TCB for a given task.  Mainly just copies the parameters
 406:FreeRTOS/tasks.c ****  * into the TCB structure.
 407:FreeRTOS/tasks.c ****  */
 408:FreeRTOS/tasks.c **** static void prvInitialiseTCBVariables( TCB_t * const pxTCB, const char * const pcName, UBaseT_t uxP
 409:FreeRTOS/tasks.c **** 
 410:FreeRTOS/tasks.c **** /**
 411:FreeRTOS/tasks.c ****  * Utility task that simply returns pdTRUE if the task referenced by xTask is
 412:FreeRTOS/tasks.c ****  * currently in the Suspended state, or pdFALSE if the task referenced by xTask
 413:FreeRTOS/tasks.c ****  * is in any other state.
 414:FreeRTOS/tasks.c ****  */
 415:FreeRTOS/tasks.c **** static BaseT_t prvTaskIsTaskSuspended( const TaskHandle_t xTask ) PRIVILEGED_FUNCTION;
 416:FreeRTOS/tasks.c **** 
 417:FreeRTOS/tasks.c **** /*
 418:FreeRTOS/tasks.c ****  * Utility to ready all the lists used by the scheduler.  This is called
 419:FreeRTOS/tasks.c ****  * automatically upon the creation of the first task.
 420:FreeRTOS/tasks.c ****  */
 421:FreeRTOS/tasks.c **** static void prvInitialiseTaskLists( void ) PRIVILEGED_FUNCTION;
ARM GAS  C:\Users\COSMIN~1.MAR\AppData\Local\Temp\ccJcV6ch.s 			page 12


 422:FreeRTOS/tasks.c **** 
 423:FreeRTOS/tasks.c **** /*
 424:FreeRTOS/tasks.c ****  * The idle task, which as all tasks is implemented as a never ending loop.
 425:FreeRTOS/tasks.c ****  * The idle task is automatically created and added to the ready lists upon
 426:FreeRTOS/tasks.c ****  * creation of the first user task.
 427:FreeRTOS/tasks.c ****  *
 428:FreeRTOS/tasks.c ****  * The portTASK_FUNCTION_PROTO() macro is used to allow port/compiler specific
 429:FreeRTOS/tasks.c ****  * language extensions.  The equivalent prototype for this function is:
 430:FreeRTOS/tasks.c ****  *
 431:FreeRTOS/tasks.c ****  * void prvIdleTask( void *pvParameters );
 432:FreeRTOS/tasks.c ****  *
 433:FreeRTOS/tasks.c ****  */
 434:FreeRTOS/tasks.c **** static portTASK_FUNCTION_PROTO( prvIdleTask, pvParameters );
 435:FreeRTOS/tasks.c **** 
 436:FreeRTOS/tasks.c **** /*
 437:FreeRTOS/tasks.c ****  * Utility to free all memory allocated by the scheduler to hold a TCB,
 438:FreeRTOS/tasks.c ****  * including the stack pointed to by the TCB.
 439:FreeRTOS/tasks.c ****  *
 440:FreeRTOS/tasks.c ****  * This does not free memory allocated by the task itself (i.e. memory
 441:FreeRTOS/tasks.c ****  * allocated by calls to pvPortMalloc from within the tasks application code).
 442:FreeRTOS/tasks.c ****  */
 443:FreeRTOS/tasks.c **** #if ( INCLUDE_vTaskDelete == 1 )
 444:FreeRTOS/tasks.c **** 
 445:FreeRTOS/tasks.c **** 	static void prvDeleteTCB( TCB_t *pxTCB ) PRIVILEGED_FUNCTION;
 446:FreeRTOS/tasks.c **** 
 447:FreeRTOS/tasks.c **** #endif
 448:FreeRTOS/tasks.c **** 
 449:FreeRTOS/tasks.c **** /*
 450:FreeRTOS/tasks.c ****  * Used only by the idle task.  This checks to see if anything has been placed
 451:FreeRTOS/tasks.c ****  * in the list of tasks waiting to be deleted.  If so the task is cleaned up
 452:FreeRTOS/tasks.c ****  * and its TCB deleted.
 453:FreeRTOS/tasks.c ****  */
 454:FreeRTOS/tasks.c **** static void prvCheckTasksWaitingTermination( void ) PRIVILEGED_FUNCTION;
 455:FreeRTOS/tasks.c **** 
 456:FreeRTOS/tasks.c **** /*
 457:FreeRTOS/tasks.c ****  * The currently executing task is entering the Blocked state.  Add the task to
 458:FreeRTOS/tasks.c ****  * either the current or the overflow delayed task list.
 459:FreeRTOS/tasks.c ****  */
 460:FreeRTOS/tasks.c **** static void prvAddCurrentTaskToDelayedList( const TickT_t xTimeToWake ) PRIVILEGED_FUNCTION;
 461:FreeRTOS/tasks.c **** 
 462:FreeRTOS/tasks.c **** /*
 463:FreeRTOS/tasks.c ****  * Allocates memory from the heap for a TCB and associated stack.  Checks the
 464:FreeRTOS/tasks.c ****  * allocation was successful.
 465:FreeRTOS/tasks.c ****  */
 466:FreeRTOS/tasks.c **** static TCB_t *prvAllocateTCBAndStack( const uint16_t usStackDepth, StackT_t * const puxStackBuffer 
 467:FreeRTOS/tasks.c **** 
 468:FreeRTOS/tasks.c **** /*
 469:FreeRTOS/tasks.c ****  * Fills an TaskStatus_t structure with information on each task that is
 470:FreeRTOS/tasks.c ****  * referenced from the pxList list (which may be a ready list, a delayed list,
 471:FreeRTOS/tasks.c ****  * a suspended list, etc.).
 472:FreeRTOS/tasks.c ****  *
 473:FreeRTOS/tasks.c ****  * THIS FUNCTION IS INTENDED FOR DEBUGGING ONLY, AND SHOULD NOT BE CALLED FROM
 474:FreeRTOS/tasks.c ****  * NORMAL APPLICATION CODE.
 475:FreeRTOS/tasks.c ****  */
 476:FreeRTOS/tasks.c **** #if ( configUSE_TRACE_FACILITY == 1 )
 477:FreeRTOS/tasks.c **** 
 478:FreeRTOS/tasks.c **** 	static UBaseT_t prvListTaskWithinSingleList( TaskStatus_t *pxTaskStatusArray, List_t *pxList, eTas
ARM GAS  C:\Users\COSMIN~1.MAR\AppData\Local\Temp\ccJcV6ch.s 			page 13


 479:FreeRTOS/tasks.c **** 
 480:FreeRTOS/tasks.c **** #endif
 481:FreeRTOS/tasks.c **** 
 482:FreeRTOS/tasks.c **** /*
 483:FreeRTOS/tasks.c ****  * When a task is created, the stack of the task is filled with a known value.
 484:FreeRTOS/tasks.c ****  * This function determines the 'high water mark' of the task stack by
 485:FreeRTOS/tasks.c ****  * determining how much of the stack remains at the original preset value.
 486:FreeRTOS/tasks.c ****  */
 487:FreeRTOS/tasks.c **** #if ( ( configUSE_TRACE_FACILITY == 1 ) || ( INCLUDE_uxTaskGetStackHighWaterMark == 1 ) )
 488:FreeRTOS/tasks.c **** 
 489:FreeRTOS/tasks.c **** 	static uint16_t prvTaskCheckFreeStackSpace( const uint8_t * pucStackByte ) PRIVILEGED_FUNCTION;
 490:FreeRTOS/tasks.c **** 
 491:FreeRTOS/tasks.c **** #endif
 492:FreeRTOS/tasks.c **** 
 493:FreeRTOS/tasks.c **** /*
 494:FreeRTOS/tasks.c ****  * Return the amount of time, in ticks, that will pass before the kernel will
 495:FreeRTOS/tasks.c ****  * next move a task from the Blocked state to the Running state.
 496:FreeRTOS/tasks.c ****  *
 497:FreeRTOS/tasks.c ****  * This conditional compilation should use inequality to 0, not equality to 1.
 498:FreeRTOS/tasks.c ****  * This is to ensure portSUPPRESS_TICKS_AND_SLEEP() can be called when user
 499:FreeRTOS/tasks.c ****  * defined low power mode implementations require configUSE_TICKLESS_IDLE to be
 500:FreeRTOS/tasks.c ****  * set to a value other than 1.
 501:FreeRTOS/tasks.c ****  */
 502:FreeRTOS/tasks.c **** #if ( configUSE_TICKLESS_IDLE != 0 )
 503:FreeRTOS/tasks.c **** 
 504:FreeRTOS/tasks.c **** 	static TickT_t prvGetExpectedIdleTime( void ) PRIVILEGED_FUNCTION;
 505:FreeRTOS/tasks.c **** 
 506:FreeRTOS/tasks.c **** #endif
 507:FreeRTOS/tasks.c **** 
 508:FreeRTOS/tasks.c **** /*
 509:FreeRTOS/tasks.c ****  * Set xNextTaskUnblockTime to the time at which the next Blocked state task
 510:FreeRTOS/tasks.c ****  * will exit the Blocked state.
 511:FreeRTOS/tasks.c ****  */
 512:FreeRTOS/tasks.c **** static void prvResetNextTaskUnblockTime( void );
 513:FreeRTOS/tasks.c **** 
 514:FreeRTOS/tasks.c **** /*-----------------------------------------------------------*/
 515:FreeRTOS/tasks.c **** 
 516:FreeRTOS/tasks.c **** BaseT_t xTaskGenericCreate( TaskFunction_t pxTaskCode, const char * const pcName, const uint16_t us
 517:FreeRTOS/tasks.c **** {
 183              		.loc 1 517 0
 184              		.cfi_startproc
 185              		@ args = 16, pretend = 0, frame = 32
 186              		@ frame_needed = 1, uses_anonymous_args = 0
 187 0000 80B5     		push	{r7, lr}	@
 188              		.cfi_def_cfa_offset 8
 189              		.cfi_offset 7, -8
 190              		.cfi_offset 14, -4
 191 0002 8AB0     		sub	sp, sp, #40	@,,
 192              		.cfi_def_cfa_offset 48
 193 0004 02AF     		add	r7, sp, #8	@,,
 194              		.cfi_def_cfa 7, 40
 195 0006 F860     		str	r0, [r7, #12]	@ pxTaskCode, pxTaskCode
 196 0008 B960     		str	r1, [r7, #8]	@ pcName, pcName
 197 000a 3B60     		str	r3, [r7]	@ pvParameters, pvParameters
 198 000c 1346     		mov	r3, r2	@ movhi	@ tmp143, tmp142
 199 000e FB80     		strh	r3, [r7, #6]	@ movhi	@ tmp143, usStackDepth
 518:FreeRTOS/tasks.c **** BaseT_t xReturn;
ARM GAS  C:\Users\COSMIN~1.MAR\AppData\Local\Temp\ccJcV6ch.s 			page 14


 519:FreeRTOS/tasks.c **** TCB_t * pxNewTCB;
 520:FreeRTOS/tasks.c **** 
 521:FreeRTOS/tasks.c **** 	configASSERT( pxTaskCode );
 200              		.loc 1 521 0
 201 0010 FB68     		ldr	r3, [r7, #12]	@ tmp144, pxTaskCode
 202 0012 002B     		cmp	r3, #0	@ tmp144,
 203 0014 02D1     		bne	.L2	@,
 204              		.loc 1 521 0 is_stmt 0 discriminator 1
 205 0016 FFF7FEFF 		bl	ulPortSetInterruptMask	@
 206              	.L3:
 207 001a FEE7     		b	.L3	@
 208              	.L2:
 522:FreeRTOS/tasks.c **** 	configASSERT( ( ( uxPriority & ( ~portPRIVILEGE_BIT ) ) < configMAX_PRIORITIES ) );
 209              		.loc 1 522 0 is_stmt 1
 210 001c BB6A     		ldr	r3, [r7, #40]	@ tmp145, uxPriority
 211 001e 072B     		cmp	r3, #7	@ tmp145,
 212 0020 02D9     		bls	.L4	@,
 213              		.loc 1 522 0 is_stmt 0 discriminator 1
 214 0022 FFF7FEFF 		bl	ulPortSetInterruptMask	@
 215              	.L5:
 216              		.loc 1 522 0 discriminator 2
 217 0026 FEE7     		b	.L5	@
 218              	.L4:
 523:FreeRTOS/tasks.c **** 
 524:FreeRTOS/tasks.c **** 	/* Allocate the memory required by the TCB and stack for the new task,
 525:FreeRTOS/tasks.c **** 	checking that the allocation was successful. */
 526:FreeRTOS/tasks.c **** 	pxNewTCB = prvAllocateTCBAndStack( usStackDepth, puxStackBuffer );
 219              		.loc 1 526 0 is_stmt 1
 220 0028 FB88     		ldrh	r3, [r7, #6]	@ tmp146, usStackDepth
 221 002a 1846     		mov	r0, r3	@, tmp146
 222 002c 396B     		ldr	r1, [r7, #48]	@, puxStackBuffer
 223 002e FFF7FEFF 		bl	prvAllocateTCBAndStack	@
 224 0032 B861     		str	r0, [r7, #24]	@, pxNewTCB
 527:FreeRTOS/tasks.c **** 
 528:FreeRTOS/tasks.c **** 	if( pxNewTCB != NULL )
 225              		.loc 1 528 0
 226 0034 BB69     		ldr	r3, [r7, #24]	@ tmp147, pxNewTCB
 227 0036 002B     		cmp	r3, #0	@ tmp147,
 228 0038 73D0     		beq	.L6	@,
 229              	.LBB6:
 529:FreeRTOS/tasks.c **** 	{
 530:FreeRTOS/tasks.c **** 		StackT_t *pxTopOfStack;
 531:FreeRTOS/tasks.c **** 
 532:FreeRTOS/tasks.c **** 		#if( portUSING_MPU_WRAPPERS == 1 )
 533:FreeRTOS/tasks.c **** 			/* Should the task be created in privileged mode? */
 534:FreeRTOS/tasks.c **** 			BaseT_t xRunPrivileged;
 535:FreeRTOS/tasks.c **** 			if( ( uxPriority & portPRIVILEGE_BIT ) != 0U )
 536:FreeRTOS/tasks.c **** 			{
 537:FreeRTOS/tasks.c **** 				xRunPrivileged = pdTRUE;
 538:FreeRTOS/tasks.c **** 			}
 539:FreeRTOS/tasks.c **** 			else
 540:FreeRTOS/tasks.c **** 			{
 541:FreeRTOS/tasks.c **** 				xRunPrivileged = pdFALSE;
 542:FreeRTOS/tasks.c **** 			}
 543:FreeRTOS/tasks.c **** 			uxPriority &= ~portPRIVILEGE_BIT;
 544:FreeRTOS/tasks.c **** 		#endif /* portUSING_MPU_WRAPPERS == 1 */
 545:FreeRTOS/tasks.c **** 
ARM GAS  C:\Users\COSMIN~1.MAR\AppData\Local\Temp\ccJcV6ch.s 			page 15


 546:FreeRTOS/tasks.c **** 		/* Calculate the top of stack address.  This depends on whether the
 547:FreeRTOS/tasks.c **** 		stack grows from high memory to low (as per the 80x86) or vice versa.
 548:FreeRTOS/tasks.c **** 		portSTACK_GROWTH is used to make the result positive or negative as
 549:FreeRTOS/tasks.c **** 		required by the port. */
 550:FreeRTOS/tasks.c **** 		#if( portSTACK_GROWTH < 0 )
 551:FreeRTOS/tasks.c **** 		{
 552:FreeRTOS/tasks.c **** 			pxTopOfStack = pxNewTCB->pxStack + ( usStackDepth - ( uint16_t ) 1 );
 230              		.loc 1 552 0
 231 003a BB69     		ldr	r3, [r7, #24]	@ tmp148, pxNewTCB
 232 003c 1A6B     		ldr	r2, [r3, #48]	@ D.6463, pxNewTCB_6->pxStack
 233 003e FB88     		ldrh	r3, [r7, #6]	@ D.6464, usStackDepth
 234 0040 03F18043 		add	r3, r3, #1073741824	@ D.6464, D.6464,
 235 0044 013B     		subs	r3, r3, #1	@ D.6464, D.6464,
 236 0046 9B00     		lsls	r3, r3, #2	@ D.6464, D.6464,
 237 0048 1344     		add	r3, r3, r2	@ tmp149, D.6463
 238 004a 7B61     		str	r3, [r7, #20]	@ tmp149, pxTopOfStack
 553:FreeRTOS/tasks.c **** 			pxTopOfStack = ( StackT_t * ) ( ( ( portPOINTER_SIZE_TYPE ) pxTopOfStack ) & ( ( portPOINTER_SIZ
 239              		.loc 1 553 0
 240 004c 7B69     		ldr	r3, [r7, #20]	@ D.6465, pxTopOfStack
 241 004e 23F00703 		bic	r3, r3, #7	@ D.6465, D.6465,
 242 0052 7B61     		str	r3, [r7, #20]	@ D.6465, pxTopOfStack
 554:FreeRTOS/tasks.c **** 
 555:FreeRTOS/tasks.c **** 			/* Check the alignment of the calculated top of stack is correct. */
 556:FreeRTOS/tasks.c **** 			configASSERT( ( ( ( portPOINTER_SIZE_TYPE ) pxTopOfStack & ( portPOINTER_SIZE_TYPE ) portBYTE_AL
 243              		.loc 1 556 0
 244 0054 7B69     		ldr	r3, [r7, #20]	@ D.6465, pxTopOfStack
 245 0056 03F00703 		and	r3, r3, #7	@ D.6465, D.6465,
 246 005a 002B     		cmp	r3, #0	@ D.6465,
 247 005c 02D0     		beq	.L7	@,
 248              		.loc 1 556 0 is_stmt 0 discriminator 1
 249 005e FFF7FEFF 		bl	ulPortSetInterruptMask	@
 250              	.L8:
 251              		.loc 1 556 0 discriminator 3
 252 0062 FEE7     		b	.L8	@
 253              	.L7:
 557:FreeRTOS/tasks.c **** 		}
 558:FreeRTOS/tasks.c **** 		#else /* portSTACK_GROWTH */
 559:FreeRTOS/tasks.c **** 		{
 560:FreeRTOS/tasks.c **** 			pxTopOfStack = pxNewTCB->pxStack;
 561:FreeRTOS/tasks.c **** 
 562:FreeRTOS/tasks.c **** 			/* Check the alignment of the stack buffer is correct. */
 563:FreeRTOS/tasks.c **** 			configASSERT( ( ( ( portPOINTER_SIZE_TYPE ) pxNewTCB->pxStack & ( portPOINTER_SIZE_TYPE ) portBY
 564:FreeRTOS/tasks.c **** 
 565:FreeRTOS/tasks.c **** 			/* If we want to use stack checking on architectures that use
 566:FreeRTOS/tasks.c **** 			a positive stack growth direction then we also need to store the
 567:FreeRTOS/tasks.c **** 			other extreme of the stack space. */
 568:FreeRTOS/tasks.c **** 			pxNewTCB->pxEndOfStack = pxNewTCB->pxStack + ( usStackDepth - 1 );
 569:FreeRTOS/tasks.c **** 		}
 570:FreeRTOS/tasks.c **** 		#endif /* portSTACK_GROWTH */
 571:FreeRTOS/tasks.c **** 
 572:FreeRTOS/tasks.c **** 		/* Setup the newly allocated TCB with the initial state of the task. */
 573:FreeRTOS/tasks.c **** 		prvInitialiseTCBVariables( pxNewTCB, pcName, uxPriority, xRegions, usStackDepth );
 254              		.loc 1 573 0 is_stmt 1
 255 0064 FB88     		ldrh	r3, [r7, #6]	@ tmp150, usStackDepth
 256 0066 0093     		str	r3, [sp]	@ tmp150,
 257 0068 B869     		ldr	r0, [r7, #24]	@, pxNewTCB
 258 006a B968     		ldr	r1, [r7, #8]	@, pcName
ARM GAS  C:\Users\COSMIN~1.MAR\AppData\Local\Temp\ccJcV6ch.s 			page 16


 259 006c BA6A     		ldr	r2, [r7, #40]	@, uxPriority
 260 006e 7B6B     		ldr	r3, [r7, #52]	@, xRegions
 261 0070 FFF7FEFF 		bl	prvInitialiseTCBVariables	@
 574:FreeRTOS/tasks.c **** 
 575:FreeRTOS/tasks.c **** 		/* Initialize the TCB stack to look as if the task was already running,
 576:FreeRTOS/tasks.c **** 		but had been interrupted by the scheduler.  The return address is set
 577:FreeRTOS/tasks.c **** 		to the start of the task function. Once the stack has been initialised
 578:FreeRTOS/tasks.c **** 		the	top of stack variable is updated. */
 579:FreeRTOS/tasks.c **** 		#if( portUSING_MPU_WRAPPERS == 1 )
 580:FreeRTOS/tasks.c **** 		{
 581:FreeRTOS/tasks.c **** 			pxNewTCB->pxTopOfStack = pxPortInitialiseStack( pxTopOfStack, pxTaskCode, pvParameters, xRunPriv
 582:FreeRTOS/tasks.c **** 		}
 583:FreeRTOS/tasks.c **** 		#else /* portUSING_MPU_WRAPPERS */
 584:FreeRTOS/tasks.c **** 		{
 585:FreeRTOS/tasks.c **** 			pxNewTCB->pxTopOfStack = pxPortInitialiseStack( pxTopOfStack, pxTaskCode, pvParameters );
 262              		.loc 1 585 0
 263 0074 7869     		ldr	r0, [r7, #20]	@, pxTopOfStack
 264 0076 F968     		ldr	r1, [r7, #12]	@, pxTaskCode
 265 0078 3A68     		ldr	r2, [r7]	@, pvParameters
 266 007a FFF7FEFF 		bl	pxPortInitialiseStack	@
 267 007e 0246     		mov	r2, r0	@ D.6463,
 268 0080 BB69     		ldr	r3, [r7, #24]	@ tmp151, pxNewTCB
 269 0082 1A60     		str	r2, [r3]	@ D.6463, pxNewTCB_6->pxTopOfStack
 586:FreeRTOS/tasks.c **** 		}
 587:FreeRTOS/tasks.c **** 		#endif /* portUSING_MPU_WRAPPERS */
 588:FreeRTOS/tasks.c **** 
 589:FreeRTOS/tasks.c **** 		if( ( void * ) pxCreatedTask != NULL )
 270              		.loc 1 589 0
 271 0084 FB6A     		ldr	r3, [r7, #44]	@ tmp152, pxCreatedTask
 272 0086 002B     		cmp	r3, #0	@ tmp152,
 273 0088 02D0     		beq	.L9	@,
 590:FreeRTOS/tasks.c **** 		{
 591:FreeRTOS/tasks.c **** 			/* Pass the TCB out - in an anonymous way.  The calling function/
 592:FreeRTOS/tasks.c **** 			task can use this as a handle to delete the task later if
 593:FreeRTOS/tasks.c **** 			required.*/
 594:FreeRTOS/tasks.c **** 			*pxCreatedTask = ( TaskHandle_t ) pxNewTCB;
 274              		.loc 1 594 0
 275 008a FB6A     		ldr	r3, [r7, #44]	@ tmp153, pxCreatedTask
 276 008c BA69     		ldr	r2, [r7, #24]	@ tmp154, pxNewTCB
 277 008e 1A60     		str	r2, [r3]	@ tmp154, *pxCreatedTask_21(D)
 278              	.L9:
 595:FreeRTOS/tasks.c **** 		}
 596:FreeRTOS/tasks.c **** 		else
 597:FreeRTOS/tasks.c **** 		{
 598:FreeRTOS/tasks.c **** 			mtCOVERAGE_TEST_MARKER();
 599:FreeRTOS/tasks.c **** 		}
 600:FreeRTOS/tasks.c **** 
 601:FreeRTOS/tasks.c **** 		/* Ensure interrupts don't access the task lists while they are being
 602:FreeRTOS/tasks.c **** 		updated. */
 603:FreeRTOS/tasks.c **** 		taskENTER_CRITICAL();
 279              		.loc 1 603 0
 280 0090 FFF7FEFF 		bl	vPortEnterCritical	@
 604:FreeRTOS/tasks.c **** 		{
 605:FreeRTOS/tasks.c **** 			uxCurrentNumberOfTasks++;
 281              		.loc 1 605 0
 282 0094 2E4B     		ldr	r3, .L15	@ tmp155,
 283 0096 1B68     		ldr	r3, [r3]	@ D.6465, uxCurrentNumberOfTasks
ARM GAS  C:\Users\COSMIN~1.MAR\AppData\Local\Temp\ccJcV6ch.s 			page 17


 284 0098 0133     		adds	r3, r3, #1	@ D.6465, D.6465,
 285 009a 2D4A     		ldr	r2, .L15	@ tmp156,
 286 009c 1360     		str	r3, [r2]	@ D.6465, uxCurrentNumberOfTasks
 606:FreeRTOS/tasks.c **** 			if( pxCurrentTCB == NULL )
 287              		.loc 1 606 0
 288 009e 2D4B     		ldr	r3, .L15+4	@ tmp157,
 289 00a0 1B68     		ldr	r3, [r3]	@ D.6466, pxCurrentTCB
 290 00a2 002B     		cmp	r3, #0	@ D.6466,
 291 00a4 09D1     		bne	.L10	@,
 607:FreeRTOS/tasks.c **** 			{
 608:FreeRTOS/tasks.c **** 				/* There are no other tasks, or all the other tasks are in
 609:FreeRTOS/tasks.c **** 				the suspended state - make this the current task. */
 610:FreeRTOS/tasks.c **** 				pxCurrentTCB =  pxNewTCB;
 292              		.loc 1 610 0
 293 00a6 2B4A     		ldr	r2, .L15+4	@ tmp158,
 294 00a8 BB69     		ldr	r3, [r7, #24]	@ tmp159, pxNewTCB
 295 00aa 1360     		str	r3, [r2]	@ tmp159, pxCurrentTCB
 611:FreeRTOS/tasks.c **** 
 612:FreeRTOS/tasks.c **** 				if( uxCurrentNumberOfTasks == ( UBaseT_t ) 1 )
 296              		.loc 1 612 0
 297 00ac 284B     		ldr	r3, .L15	@ tmp160,
 298 00ae 1B68     		ldr	r3, [r3]	@ D.6465, uxCurrentNumberOfTasks
 299 00b0 012B     		cmp	r3, #1	@ D.6465,
 300 00b2 0FD1     		bne	.L11	@,
 613:FreeRTOS/tasks.c **** 				{
 614:FreeRTOS/tasks.c **** 					/* This is the first task to be created so do the preliminary
 615:FreeRTOS/tasks.c **** 					initialisation required.  We will not recover if this call
 616:FreeRTOS/tasks.c **** 					fails, but we will report the failure. */
 617:FreeRTOS/tasks.c **** 					prvInitialiseTaskLists();
 301              		.loc 1 617 0
 302 00b4 FFF7FEFF 		bl	prvInitialiseTaskLists	@
 303 00b8 0CE0     		b	.L11	@
 304              	.L10:
 618:FreeRTOS/tasks.c **** 				}
 619:FreeRTOS/tasks.c **** 				else
 620:FreeRTOS/tasks.c **** 				{
 621:FreeRTOS/tasks.c **** 					mtCOVERAGE_TEST_MARKER();
 622:FreeRTOS/tasks.c **** 				}
 623:FreeRTOS/tasks.c **** 			}
 624:FreeRTOS/tasks.c **** 			else
 625:FreeRTOS/tasks.c **** 			{
 626:FreeRTOS/tasks.c **** 				/* If the scheduler is not already running, make this task the
 627:FreeRTOS/tasks.c **** 				current task if it is the highest priority task to be created
 628:FreeRTOS/tasks.c **** 				so far. */
 629:FreeRTOS/tasks.c **** 				if( xSchedulerRunning == pdFALSE )
 305              		.loc 1 629 0
 306 00ba 274B     		ldr	r3, .L15+8	@ tmp161,
 307 00bc 1B68     		ldr	r3, [r3]	@ D.6467, xSchedulerRunning
 308 00be 002B     		cmp	r3, #0	@ D.6467,
 309 00c0 08D1     		bne	.L11	@,
 630:FreeRTOS/tasks.c **** 				{
 631:FreeRTOS/tasks.c **** 					if( pxCurrentTCB->uxPriority <= uxPriority )
 310              		.loc 1 631 0
 311 00c2 244B     		ldr	r3, .L15+4	@ tmp162,
 312 00c4 1B68     		ldr	r3, [r3]	@ D.6466, pxCurrentTCB
 313 00c6 DA6A     		ldr	r2, [r3, #44]	@ D.6465, _27->uxPriority
 314 00c8 BB6A     		ldr	r3, [r7, #40]	@ tmp163, uxPriority
ARM GAS  C:\Users\COSMIN~1.MAR\AppData\Local\Temp\ccJcV6ch.s 			page 18


 315 00ca 9A42     		cmp	r2, r3	@ D.6465, tmp163
 316 00cc 02D8     		bhi	.L11	@,
 632:FreeRTOS/tasks.c **** 					{
 633:FreeRTOS/tasks.c **** 						pxCurrentTCB = pxNewTCB;
 317              		.loc 1 633 0
 318 00ce 214A     		ldr	r2, .L15+4	@ tmp164,
 319 00d0 BB69     		ldr	r3, [r7, #24]	@ tmp165, pxNewTCB
 320 00d2 1360     		str	r3, [r2]	@ tmp165, pxCurrentTCB
 321              	.L11:
 634:FreeRTOS/tasks.c **** 					}
 635:FreeRTOS/tasks.c **** 					else
 636:FreeRTOS/tasks.c **** 					{
 637:FreeRTOS/tasks.c **** 						mtCOVERAGE_TEST_MARKER();
 638:FreeRTOS/tasks.c **** 					}
 639:FreeRTOS/tasks.c **** 				}
 640:FreeRTOS/tasks.c **** 				else
 641:FreeRTOS/tasks.c **** 				{
 642:FreeRTOS/tasks.c **** 					mtCOVERAGE_TEST_MARKER();
 643:FreeRTOS/tasks.c **** 				}
 644:FreeRTOS/tasks.c **** 			}
 645:FreeRTOS/tasks.c **** 
 646:FreeRTOS/tasks.c **** 			uxTaskNumber++;
 322              		.loc 1 646 0
 323 00d4 214B     		ldr	r3, .L15+12	@ tmp166,
 324 00d6 1B68     		ldr	r3, [r3]	@ D.6465, uxTaskNumber
 325 00d8 0133     		adds	r3, r3, #1	@ D.6465, D.6465,
 326 00da 204A     		ldr	r2, .L15+12	@ tmp167,
 327 00dc 1360     		str	r3, [r2]	@ D.6465, uxTaskNumber
 647:FreeRTOS/tasks.c **** 
 648:FreeRTOS/tasks.c **** 			#if ( configUSE_TRACE_FACILITY == 1 )
 649:FreeRTOS/tasks.c **** 			{
 650:FreeRTOS/tasks.c **** 				/* Add a counter into the TCB for tracing only. */
 651:FreeRTOS/tasks.c **** 				pxNewTCB->uxTCBNumber = uxTaskNumber;
 328              		.loc 1 651 0
 329 00de 1F4B     		ldr	r3, .L15+12	@ tmp168,
 330 00e0 1A68     		ldr	r2, [r3]	@ D.6465, uxTaskNumber
 331 00e2 BB69     		ldr	r3, [r7, #24]	@ tmp169, pxNewTCB
 332 00e4 1A64     		str	r2, [r3, #64]	@ D.6465, pxNewTCB_6->uxTCBNumber
 652:FreeRTOS/tasks.c **** 			}
 653:FreeRTOS/tasks.c **** 			#endif /* configUSE_TRACE_FACILITY */
 654:FreeRTOS/tasks.c **** 			traceTASK_CREATE( pxNewTCB );
 655:FreeRTOS/tasks.c **** 
 656:FreeRTOS/tasks.c **** 			prvAddTaskToReadyList( pxNewTCB );
 333              		.loc 1 656 0
 334 00e6 BB69     		ldr	r3, [r7, #24]	@ tmp170, pxNewTCB
 335 00e8 DB6A     		ldr	r3, [r3, #44]	@ D.6465, pxNewTCB_6->uxPriority
 336 00ea 1A46     		mov	r2, r3	@ D.6468, D.6465
 337 00ec 0123     		movs	r3, #1	@ tmp171,
 338 00ee 03FA02F2 		lsl	r2, r3, r2	@ D.6465, tmp171, D.6468
 339 00f2 1B4B     		ldr	r3, .L15+16	@ tmp172,
 340 00f4 1B68     		ldr	r3, [r3]	@ D.6465, uxTopReadyPriority
 341 00f6 1343     		orrs	r3, r3, r2	@, D.6465, D.6465, D.6465
 342 00f8 194A     		ldr	r2, .L15+16	@ tmp173,
 343 00fa 1360     		str	r3, [r2]	@ D.6465, uxTopReadyPriority
 344 00fc BB69     		ldr	r3, [r7, #24]	@ tmp174, pxNewTCB
 345 00fe DA6A     		ldr	r2, [r3, #44]	@ D.6465, pxNewTCB_6->uxPriority
 346 0100 1346     		mov	r3, r2	@ tmp175, D.6465
ARM GAS  C:\Users\COSMIN~1.MAR\AppData\Local\Temp\ccJcV6ch.s 			page 19


 347 0102 9B00     		lsls	r3, r3, #2	@ tmp175, tmp175,
 348 0104 1344     		add	r3, r3, r2	@ tmp175, D.6465
 349 0106 9B00     		lsls	r3, r3, #2	@ tmp176, tmp175,
 350 0108 164A     		ldr	r2, .L15+20	@ tmp177,
 351 010a 1A44     		add	r2, r2, r3	@ D.6469, tmp175
 352 010c BB69     		ldr	r3, [r7, #24]	@ tmp178, pxNewTCB
 353 010e 0433     		adds	r3, r3, #4	@ D.6470, tmp178,
 354 0110 1046     		mov	r0, r2	@, D.6469
 355 0112 1946     		mov	r1, r3	@, D.6470
 356 0114 FFF7FEFF 		bl	vListInsertEnd	@
 657:FreeRTOS/tasks.c **** 
 658:FreeRTOS/tasks.c **** 			xReturn = pdPASS;
 357              		.loc 1 658 0
 358 0118 0123     		movs	r3, #1	@ tmp179,
 359 011a FB61     		str	r3, [r7, #28]	@ tmp179, xReturn
 659:FreeRTOS/tasks.c **** 			portSETUP_TCB( pxNewTCB );
 660:FreeRTOS/tasks.c **** 		}
 661:FreeRTOS/tasks.c **** 		taskEXIT_CRITICAL();
 360              		.loc 1 661 0
 361 011c FFF7FEFF 		bl	vPortExitCritical	@
 362              	.LBE6:
 363 0120 02E0     		b	.L12	@
 364              	.L6:
 662:FreeRTOS/tasks.c **** 	}
 663:FreeRTOS/tasks.c **** 	else
 664:FreeRTOS/tasks.c **** 	{
 665:FreeRTOS/tasks.c **** 		xReturn = errCOULD_NOT_ALLOCATE_REQUIRED_MEMORY;
 365              		.loc 1 665 0
 366 0122 4FF0FF33 		mov	r3, #-1	@ tmp180,
 367 0126 FB61     		str	r3, [r7, #28]	@ tmp180, xReturn
 368              	.L12:
 666:FreeRTOS/tasks.c **** 		traceTASK_CREATE_FAILED();
 667:FreeRTOS/tasks.c **** 	}
 668:FreeRTOS/tasks.c **** 
 669:FreeRTOS/tasks.c **** 	if( xReturn == pdPASS )
 369              		.loc 1 669 0
 370 0128 FB69     		ldr	r3, [r7, #28]	@ tmp181, xReturn
 371 012a 012B     		cmp	r3, #1	@ tmp181,
 372 012c 0BD1     		bne	.L13	@,
 670:FreeRTOS/tasks.c **** 	{
 671:FreeRTOS/tasks.c **** 		if( xSchedulerRunning != pdFALSE )
 373              		.loc 1 671 0
 374 012e 0A4B     		ldr	r3, .L15+8	@ tmp182,
 375 0130 1B68     		ldr	r3, [r3]	@ D.6467, xSchedulerRunning
 376 0132 002B     		cmp	r3, #0	@ D.6467,
 377 0134 07D0     		beq	.L13	@,
 672:FreeRTOS/tasks.c **** 		{
 673:FreeRTOS/tasks.c **** 			/* If the created task is of a higher priority than the current task
 674:FreeRTOS/tasks.c **** 			then it should run now. */
 675:FreeRTOS/tasks.c **** 			if( pxCurrentTCB->uxPriority < uxPriority )
 378              		.loc 1 675 0
 379 0136 074B     		ldr	r3, .L15+4	@ tmp183,
 380 0138 1B68     		ldr	r3, [r3]	@ D.6466, pxCurrentTCB
 381 013a DA6A     		ldr	r2, [r3, #44]	@ D.6465, _43->uxPriority
 382 013c BB6A     		ldr	r3, [r7, #40]	@ tmp184, uxPriority
 383 013e 9A42     		cmp	r2, r3	@ D.6465, tmp184
 384 0140 01D2     		bcs	.L13	@,
ARM GAS  C:\Users\COSMIN~1.MAR\AppData\Local\Temp\ccJcV6ch.s 			page 20


 676:FreeRTOS/tasks.c **** 			{
 677:FreeRTOS/tasks.c **** 				taskYIELD_IF_USING_PREEMPTION();
 385              		.loc 1 677 0
 386 0142 FFF7FEFF 		bl	vPortYield	@
 387              	.L13:
 678:FreeRTOS/tasks.c **** 			}
 679:FreeRTOS/tasks.c **** 			else
 680:FreeRTOS/tasks.c **** 			{
 681:FreeRTOS/tasks.c **** 				mtCOVERAGE_TEST_MARKER();
 682:FreeRTOS/tasks.c **** 			}
 683:FreeRTOS/tasks.c **** 		}
 684:FreeRTOS/tasks.c **** 		else
 685:FreeRTOS/tasks.c **** 		{
 686:FreeRTOS/tasks.c **** 			mtCOVERAGE_TEST_MARKER();
 687:FreeRTOS/tasks.c **** 		}
 688:FreeRTOS/tasks.c **** 	}
 689:FreeRTOS/tasks.c **** 
 690:FreeRTOS/tasks.c **** 	return xReturn;
 388              		.loc 1 690 0
 389 0146 FB69     		ldr	r3, [r7, #28]	@ D.6471, xReturn
 691:FreeRTOS/tasks.c **** }
 390              		.loc 1 691 0
 391 0148 1846     		mov	r0, r3	@, <retval>
 392 014a 2037     		adds	r7, r7, #32	@,,
 393              		.cfi_def_cfa_offset 8
 394 014c BD46     		mov	sp, r7	@,
 395              		.cfi_def_cfa_register 13
 396              		@ sp needed	@
 397 014e 80BD     		pop	{r7, pc}	@
 398              	.L16:
 399              		.align	2
 400              	.L15:
 401 0150 00000000 		.word	uxCurrentNumberOfTasks
 402 0154 00000000 		.word	pxCurrentTCB
 403 0158 00000000 		.word	xSchedulerRunning
 404 015c 00000000 		.word	uxTaskNumber
 405 0160 00000000 		.word	uxTopReadyPriority
 406 0164 00000000 		.word	pxReadyTasksLists
 407              		.cfi_endproc
 408              	.LFE1:
 409              		.size	xTaskGenericCreate, .-xTaskGenericCreate
 410              		.section	.text.vTaskDelete,"ax",%progbits
 411              		.align	2
 412              		.global	vTaskDelete
 413              		.thumb
 414              		.thumb_func
 415              		.type	vTaskDelete, %function
 416              	vTaskDelete:
 417              	.LFB2:
 692:FreeRTOS/tasks.c **** /*-----------------------------------------------------------*/
 693:FreeRTOS/tasks.c **** 
 694:FreeRTOS/tasks.c **** #if ( INCLUDE_vTaskDelete == 1 )
 695:FreeRTOS/tasks.c **** 
 696:FreeRTOS/tasks.c **** 	void vTaskDelete( TaskHandle_t xTaskToDelete )
 697:FreeRTOS/tasks.c **** 	{
 418              		.loc 1 697 0
 419              		.cfi_startproc
ARM GAS  C:\Users\COSMIN~1.MAR\AppData\Local\Temp\ccJcV6ch.s 			page 21


 420              		@ args = 0, pretend = 0, frame = 16
 421              		@ frame_needed = 1, uses_anonymous_args = 0
 422 0000 80B5     		push	{r7, lr}	@
 423              		.cfi_def_cfa_offset 8
 424              		.cfi_offset 7, -8
 425              		.cfi_offset 14, -4
 426 0002 84B0     		sub	sp, sp, #16	@,,
 427              		.cfi_def_cfa_offset 24
 428 0004 00AF     		add	r7, sp, #0	@,,
 429              		.cfi_def_cfa_register 7
 430 0006 7860     		str	r0, [r7, #4]	@ xTaskToDelete, xTaskToDelete
 698:FreeRTOS/tasks.c **** 	TCB_t *pxTCB;
 699:FreeRTOS/tasks.c **** 
 700:FreeRTOS/tasks.c **** 		taskENTER_CRITICAL();
 431              		.loc 1 700 0
 432 0008 FFF7FEFF 		bl	vPortEnterCritical	@
 701:FreeRTOS/tasks.c **** 		{
 702:FreeRTOS/tasks.c **** 			/* If null is passed in here then it is the calling task that is
 703:FreeRTOS/tasks.c **** 			being deleted. */
 704:FreeRTOS/tasks.c **** 			pxTCB = prvGetTCBFromHandle( xTaskToDelete );
 433              		.loc 1 704 0
 434 000c 7B68     		ldr	r3, [r7, #4]	@ tmp131, xTaskToDelete
 435 000e 002B     		cmp	r3, #0	@ tmp131,
 436 0010 02D1     		bne	.L18	@,
 437              		.loc 1 704 0 is_stmt 0 discriminator 1
 438 0012 2D4B     		ldr	r3, .L27	@ tmp132,
 439 0014 1B68     		ldr	r3, [r3]	@ D.6472, pxCurrentTCB
 440 0016 00E0     		b	.L19	@
 441              	.L18:
 442              		.loc 1 704 0 discriminator 2
 443 0018 7B68     		ldr	r3, [r7, #4]	@ D.6472, xTaskToDelete
 444              	.L19:
 445              		.loc 1 704 0 discriminator 4
 446 001a FB60     		str	r3, [r7, #12]	@ D.6472, pxTCB
 705:FreeRTOS/tasks.c **** 
 706:FreeRTOS/tasks.c **** 			/* Remove task from the ready list and place in the	termination list.
 707:FreeRTOS/tasks.c **** 			This will stop the task from be scheduled.  The idle task will check
 708:FreeRTOS/tasks.c **** 			the termination list and free up any memory allocated by the
 709:FreeRTOS/tasks.c **** 			scheduler for the TCB and stack. */
 710:FreeRTOS/tasks.c **** 			if( uxListRemove( &( pxTCB->xGenericListItem ) ) == ( UBaseT_t ) 0 )
 447              		.loc 1 710 0 is_stmt 1 discriminator 4
 448 001c FB68     		ldr	r3, [r7, #12]	@ tmp133, pxTCB
 449 001e 0433     		adds	r3, r3, #4	@ D.6473, tmp133,
 450 0020 1846     		mov	r0, r3	@, D.6473
 451 0022 FFF7FEFF 		bl	uxListRemove	@
 452 0026 0346     		mov	r3, r0	@ D.6474,
 453 0028 002B     		cmp	r3, #0	@ D.6474,
 454 002a 15D1     		bne	.L20	@,
 711:FreeRTOS/tasks.c **** 			{
 712:FreeRTOS/tasks.c **** 				taskRESET_READY_PRIORITY( pxTCB->uxPriority );
 455              		.loc 1 712 0
 456 002c FB68     		ldr	r3, [r7, #12]	@ tmp134, pxTCB
 457 002e DA6A     		ldr	r2, [r3, #44]	@ D.6474, pxTCB_5->uxPriority
 458 0030 2649     		ldr	r1, .L27+4	@ tmp135,
 459 0032 1346     		mov	r3, r2	@ tmp136, D.6474
 460 0034 9B00     		lsls	r3, r3, #2	@ tmp136, tmp136,
 461 0036 1344     		add	r3, r3, r2	@ tmp136, D.6474
ARM GAS  C:\Users\COSMIN~1.MAR\AppData\Local\Temp\ccJcV6ch.s 			page 22


 462 0038 9B00     		lsls	r3, r3, #2	@ tmp137, tmp136,
 463 003a 0B44     		add	r3, r3, r1	@ tmp138, tmp135
 464 003c 1B68     		ldr	r3, [r3]	@ D.6474, pxReadyTasksLists[_8].uxNumberOfItems
 465 003e 002B     		cmp	r3, #0	@ D.6474,
 466 0040 0AD1     		bne	.L20	@,
 467              		.loc 1 712 0 is_stmt 0 discriminator 1
 468 0042 FB68     		ldr	r3, [r7, #12]	@ tmp139, pxTCB
 469 0044 DB6A     		ldr	r3, [r3, #44]	@ D.6474, pxTCB_5->uxPriority
 470 0046 1A46     		mov	r2, r3	@ D.6475, D.6474
 471 0048 0123     		movs	r3, #1	@ tmp140,
 472 004a 9340     		lsls	r3, r3, r2	@ D.6474, tmp140, D.6475
 473 004c DA43     		mvns	r2, r3	@ D.6474, D.6474
 474 004e 204B     		ldr	r3, .L27+8	@ tmp141,
 475 0050 1B68     		ldr	r3, [r3]	@ D.6474, uxTopReadyPriority
 476 0052 1340     		ands	r3, r3, r2	@, D.6474, D.6474, D.6474
 477 0054 1E4A     		ldr	r2, .L27+8	@ tmp142,
 478 0056 1360     		str	r3, [r2]	@ D.6474, uxTopReadyPriority
 479              	.L20:
 713:FreeRTOS/tasks.c **** 			}
 714:FreeRTOS/tasks.c **** 			else
 715:FreeRTOS/tasks.c **** 			{
 716:FreeRTOS/tasks.c **** 				mtCOVERAGE_TEST_MARKER();
 717:FreeRTOS/tasks.c **** 			}
 718:FreeRTOS/tasks.c **** 
 719:FreeRTOS/tasks.c **** 			/* Is the task waiting on an event also? */
 720:FreeRTOS/tasks.c **** 			if( listLIST_ITEM_CONTAINER( &( pxTCB->xEventListItem ) ) != NULL )
 480              		.loc 1 720 0 is_stmt 1
 481 0058 FB68     		ldr	r3, [r7, #12]	@ tmp143, pxTCB
 482 005a 9B6A     		ldr	r3, [r3, #40]	@ D.6476, pxTCB_5->xEventListItem.pvContainer
 483 005c 002B     		cmp	r3, #0	@ D.6476,
 484 005e 04D0     		beq	.L22	@,
 721:FreeRTOS/tasks.c **** 			{
 722:FreeRTOS/tasks.c **** 				( void ) uxListRemove( &( pxTCB->xEventListItem ) );
 485              		.loc 1 722 0
 486 0060 FB68     		ldr	r3, [r7, #12]	@ tmp144, pxTCB
 487 0062 1833     		adds	r3, r3, #24	@ D.6473, tmp144,
 488 0064 1846     		mov	r0, r3	@, D.6473
 489 0066 FFF7FEFF 		bl	uxListRemove	@
 490              	.L22:
 723:FreeRTOS/tasks.c **** 			}
 724:FreeRTOS/tasks.c **** 			else
 725:FreeRTOS/tasks.c **** 			{
 726:FreeRTOS/tasks.c **** 				mtCOVERAGE_TEST_MARKER();
 727:FreeRTOS/tasks.c **** 			}
 728:FreeRTOS/tasks.c **** 
 729:FreeRTOS/tasks.c **** 			vListInsertEnd( &xTasksWaitingTermination, &( pxTCB->xGenericListItem ) );
 491              		.loc 1 729 0
 492 006a FB68     		ldr	r3, [r7, #12]	@ tmp145, pxTCB
 493 006c 0433     		adds	r3, r3, #4	@ D.6473, tmp145,
 494 006e 1948     		ldr	r0, .L27+12	@,
 495 0070 1946     		mov	r1, r3	@, D.6473
 496 0072 FFF7FEFF 		bl	vListInsertEnd	@
 730:FreeRTOS/tasks.c **** 
 731:FreeRTOS/tasks.c **** 			/* Increment the ucTasksDeleted variable so the idle task knows
 732:FreeRTOS/tasks.c **** 			there is a task that has been deleted and that it should therefore
 733:FreeRTOS/tasks.c **** 			check the xTasksWaitingTermination list. */
 734:FreeRTOS/tasks.c **** 			++uxTasksDeleted;
ARM GAS  C:\Users\COSMIN~1.MAR\AppData\Local\Temp\ccJcV6ch.s 			page 23


 497              		.loc 1 734 0
 498 0076 184B     		ldr	r3, .L27+16	@ tmp146,
 499 0078 1B68     		ldr	r3, [r3]	@ D.6474, uxTasksDeleted
 500 007a 0133     		adds	r3, r3, #1	@ D.6474, D.6474,
 501 007c 164A     		ldr	r2, .L27+16	@ tmp147,
 502 007e 1360     		str	r3, [r2]	@ D.6474, uxTasksDeleted
 735:FreeRTOS/tasks.c **** 
 736:FreeRTOS/tasks.c **** 			/* Increment the uxTaskNumberVariable also so kernel aware debuggers
 737:FreeRTOS/tasks.c **** 			can detect that the task lists need re-generating. */
 738:FreeRTOS/tasks.c **** 			uxTaskNumber++;
 503              		.loc 1 738 0
 504 0080 164B     		ldr	r3, .L27+20	@ tmp148,
 505 0082 1B68     		ldr	r3, [r3]	@ D.6474, uxTaskNumber
 506 0084 0133     		adds	r3, r3, #1	@ D.6474, D.6474,
 507 0086 154A     		ldr	r2, .L27+20	@ tmp149,
 508 0088 1360     		str	r3, [r2]	@ D.6474, uxTaskNumber
 739:FreeRTOS/tasks.c **** 
 740:FreeRTOS/tasks.c **** 			traceTASK_DELETE( pxTCB );
 741:FreeRTOS/tasks.c **** 		}
 742:FreeRTOS/tasks.c **** 		taskEXIT_CRITICAL();
 509              		.loc 1 742 0
 510 008a FFF7FEFF 		bl	vPortExitCritical	@
 743:FreeRTOS/tasks.c **** 
 744:FreeRTOS/tasks.c **** 		/* Force a reschedule if it is the currently running task that has just
 745:FreeRTOS/tasks.c **** 		been deleted. */
 746:FreeRTOS/tasks.c **** 		if( xSchedulerRunning != pdFALSE )
 511              		.loc 1 746 0
 512 008e 144B     		ldr	r3, .L27+24	@ tmp150,
 513 0090 1B68     		ldr	r3, [r3]	@ D.6477, xSchedulerRunning
 514 0092 002B     		cmp	r3, #0	@ D.6477,
 515 0094 14D0     		beq	.L17	@,
 747:FreeRTOS/tasks.c **** 		{
 748:FreeRTOS/tasks.c **** 			if( pxTCB == pxCurrentTCB )
 516              		.loc 1 748 0
 517 0096 0C4B     		ldr	r3, .L27	@ tmp151,
 518 0098 1B68     		ldr	r3, [r3]	@ D.6478, pxCurrentTCB
 519 009a FA68     		ldr	r2, [r7, #12]	@ tmp152, pxTCB
 520 009c 9A42     		cmp	r2, r3	@ tmp152, D.6478
 521 009e 09D1     		bne	.L24	@,
 749:FreeRTOS/tasks.c **** 			{
 750:FreeRTOS/tasks.c **** 				configASSERT( uxSchedulerSuspended == 0 );
 522              		.loc 1 750 0
 523 00a0 104B     		ldr	r3, .L27+28	@ tmp153,
 524 00a2 1B68     		ldr	r3, [r3]	@ D.6474, uxSchedulerSuspended
 525 00a4 002B     		cmp	r3, #0	@ D.6474,
 526 00a6 02D0     		beq	.L25	@,
 527              		.loc 1 750 0 is_stmt 0 discriminator 1
 528 00a8 FFF7FEFF 		bl	ulPortSetInterruptMask	@
 529              	.L26:
 530 00ac FEE7     		b	.L26	@
 531              	.L25:
 751:FreeRTOS/tasks.c **** 
 752:FreeRTOS/tasks.c **** 				/* The pre-delete hook is primarily for the Windows simulator,
 753:FreeRTOS/tasks.c **** 				in which Windows specific clean up operations are performed,
 754:FreeRTOS/tasks.c **** 				after which it is not possible to yield away from this task -
 755:FreeRTOS/tasks.c **** 				hence xYieldPending is used to latch that a context switch is
 756:FreeRTOS/tasks.c **** 				required. */
ARM GAS  C:\Users\COSMIN~1.MAR\AppData\Local\Temp\ccJcV6ch.s 			page 24


 757:FreeRTOS/tasks.c **** 				portPRE_TASK_DELETE_HOOK( pxTCB, &xYieldPending );
 758:FreeRTOS/tasks.c **** 				portYIELD_WITHIN_API();
 532              		.loc 1 758 0 is_stmt 1
 533 00ae FFF7FEFF 		bl	vPortYield	@
 534 00b2 05E0     		b	.L17	@
 535              	.L24:
 759:FreeRTOS/tasks.c **** 			}
 760:FreeRTOS/tasks.c **** 			else
 761:FreeRTOS/tasks.c **** 			{
 762:FreeRTOS/tasks.c **** 				/* Reset the next expected unblock time in case it referred to
 763:FreeRTOS/tasks.c **** 				the task that has just been deleted. */
 764:FreeRTOS/tasks.c **** 				taskENTER_CRITICAL();
 536              		.loc 1 764 0
 537 00b4 FFF7FEFF 		bl	vPortEnterCritical	@
 765:FreeRTOS/tasks.c **** 				{
 766:FreeRTOS/tasks.c **** 					prvResetNextTaskUnblockTime();
 538              		.loc 1 766 0
 539 00b8 FFF7FEFF 		bl	prvResetNextTaskUnblockTime	@
 767:FreeRTOS/tasks.c **** 				}
 768:FreeRTOS/tasks.c **** 				taskEXIT_CRITICAL();
 540              		.loc 1 768 0
 541 00bc FFF7FEFF 		bl	vPortExitCritical	@
 542              	.L17:
 769:FreeRTOS/tasks.c **** 			}
 770:FreeRTOS/tasks.c **** 		}
 771:FreeRTOS/tasks.c **** 	}
 543              		.loc 1 771 0
 544 00c0 1037     		adds	r7, r7, #16	@,,
 545              		.cfi_def_cfa_offset 8
 546 00c2 BD46     		mov	sp, r7	@,
 547              		.cfi_def_cfa_register 13
 548              		@ sp needed	@
 549 00c4 80BD     		pop	{r7, pc}	@
 550              	.L28:
 551 00c6 00BF     		.align	2
 552              	.L27:
 553 00c8 00000000 		.word	pxCurrentTCB
 554 00cc 00000000 		.word	pxReadyTasksLists
 555 00d0 00000000 		.word	uxTopReadyPriority
 556 00d4 00000000 		.word	xTasksWaitingTermination
 557 00d8 00000000 		.word	uxTasksDeleted
 558 00dc 00000000 		.word	uxTaskNumber
 559 00e0 00000000 		.word	xSchedulerRunning
 560 00e4 00000000 		.word	uxSchedulerSuspended
 561              		.cfi_endproc
 562              	.LFE2:
 563              		.size	vTaskDelete, .-vTaskDelete
 564              		.section	.text.vTaskDelayUntil,"ax",%progbits
 565              		.align	2
 566              		.global	vTaskDelayUntil
 567              		.thumb
 568              		.thumb_func
 569              		.type	vTaskDelayUntil, %function
 570              	vTaskDelayUntil:
 571              	.LFB3:
 772:FreeRTOS/tasks.c **** 
 773:FreeRTOS/tasks.c **** #endif /* INCLUDE_vTaskDelete */
ARM GAS  C:\Users\COSMIN~1.MAR\AppData\Local\Temp\ccJcV6ch.s 			page 25


 774:FreeRTOS/tasks.c **** /*-----------------------------------------------------------*/
 775:FreeRTOS/tasks.c **** 
 776:FreeRTOS/tasks.c **** #if ( INCLUDE_vTaskDelayUntil == 1 )
 777:FreeRTOS/tasks.c **** 
 778:FreeRTOS/tasks.c **** 	void vTaskDelayUntil( TickT_t * const pxPreviousWakeTime, const TickT_t xTimeIncrement )
 779:FreeRTOS/tasks.c **** 	{
 572              		.loc 1 779 0
 573              		.cfi_startproc
 574              		@ args = 0, pretend = 0, frame = 24
 575              		@ frame_needed = 1, uses_anonymous_args = 0
 576 0000 80B5     		push	{r7, lr}	@
 577              		.cfi_def_cfa_offset 8
 578              		.cfi_offset 7, -8
 579              		.cfi_offset 14, -4
 580 0002 86B0     		sub	sp, sp, #24	@,,
 581              		.cfi_def_cfa_offset 32
 582 0004 00AF     		add	r7, sp, #0	@,,
 583              		.cfi_def_cfa_register 7
 584 0006 7860     		str	r0, [r7, #4]	@ pxPreviousWakeTime, pxPreviousWakeTime
 585 0008 3960     		str	r1, [r7]	@ xTimeIncrement, xTimeIncrement
 780:FreeRTOS/tasks.c **** 	TickT_t xTimeToWake;
 781:FreeRTOS/tasks.c **** 	BaseT_t xAlreadyYielded, xShouldDelay = pdFALSE;
 586              		.loc 1 781 0
 587 000a 0023     		movs	r3, #0	@ tmp125,
 588 000c 7B61     		str	r3, [r7, #20]	@ tmp125, xShouldDelay
 782:FreeRTOS/tasks.c **** 
 783:FreeRTOS/tasks.c **** 		configASSERT( pxPreviousWakeTime );
 589              		.loc 1 783 0
 590 000e 7B68     		ldr	r3, [r7, #4]	@ tmp126, pxPreviousWakeTime
 591 0010 002B     		cmp	r3, #0	@ tmp126,
 592 0012 02D1     		bne	.L30	@,
 593              		.loc 1 783 0 is_stmt 0 discriminator 1
 594 0014 FFF7FEFF 		bl	ulPortSetInterruptMask	@
 595              	.L31:
 596 0018 FEE7     		b	.L31	@
 597              	.L30:
 784:FreeRTOS/tasks.c **** 		configASSERT( ( xTimeIncrement > 0U ) );
 598              		.loc 1 784 0 is_stmt 1
 599 001a 3B68     		ldr	r3, [r7]	@ tmp127, xTimeIncrement
 600 001c 002B     		cmp	r3, #0	@ tmp127,
 601 001e 02D1     		bne	.L32	@,
 602              		.loc 1 784 0 is_stmt 0 discriminator 1
 603 0020 FFF7FEFF 		bl	ulPortSetInterruptMask	@
 604              	.L33:
 605              		.loc 1 784 0 discriminator 2
 606 0024 FEE7     		b	.L33	@
 607              	.L32:
 785:FreeRTOS/tasks.c **** 		configASSERT( uxSchedulerSuspended == 0 );
 608              		.loc 1 785 0 is_stmt 1
 609 0026 2B4B     		ldr	r3, .L42	@ tmp128,
 610 0028 1B68     		ldr	r3, [r3]	@ D.6479, uxSchedulerSuspended
 611 002a 002B     		cmp	r3, #0	@ D.6479,
 612 002c 02D0     		beq	.L34	@,
 613              		.loc 1 785 0 is_stmt 0 discriminator 1
 614 002e FFF7FEFF 		bl	ulPortSetInterruptMask	@
 615              	.L35:
 616              		.loc 1 785 0 discriminator 3
ARM GAS  C:\Users\COSMIN~1.MAR\AppData\Local\Temp\ccJcV6ch.s 			page 26


 617 0032 FEE7     		b	.L35	@
 618              	.L34:
 786:FreeRTOS/tasks.c **** 
 787:FreeRTOS/tasks.c **** 		vTaskSuspendAll();
 619              		.loc 1 787 0 is_stmt 1
 620 0034 FFF7FEFF 		bl	vTaskSuspendAll	@
 621              	.LBB7:
 788:FreeRTOS/tasks.c **** 		{
 789:FreeRTOS/tasks.c **** 			/* Minor optimisation.  The tick count cannot change in this
 790:FreeRTOS/tasks.c **** 			block. */
 791:FreeRTOS/tasks.c **** 			const TickT_t xConstTickCount = xTickCount;
 622              		.loc 1 791 0
 623 0038 274B     		ldr	r3, .L42+4	@ tmp129,
 624 003a 1B68     		ldr	r3, [r3]	@ tmp130, xTickCount
 625 003c 3B61     		str	r3, [r7, #16]	@ tmp130, xConstTickCount
 792:FreeRTOS/tasks.c **** 
 793:FreeRTOS/tasks.c **** 			/* Generate the tick time at which the task wants to wake. */
 794:FreeRTOS/tasks.c **** 			xTimeToWake = *pxPreviousWakeTime + xTimeIncrement;
 626              		.loc 1 794 0
 627 003e 7B68     		ldr	r3, [r7, #4]	@ tmp131, pxPreviousWakeTime
 628 0040 1A68     		ldr	r2, [r3]	@ D.6479, *pxPreviousWakeTime_3(D)
 629 0042 3B68     		ldr	r3, [r7]	@ tmp133, xTimeIncrement
 630 0044 1344     		add	r3, r3, r2	@ tmp132, D.6479
 631 0046 FB60     		str	r3, [r7, #12]	@ tmp132, xTimeToWake
 795:FreeRTOS/tasks.c **** 
 796:FreeRTOS/tasks.c **** 			if( xConstTickCount < *pxPreviousWakeTime )
 632              		.loc 1 796 0
 633 0048 7B68     		ldr	r3, [r7, #4]	@ tmp134, pxPreviousWakeTime
 634 004a 1A68     		ldr	r2, [r3]	@ D.6479, *pxPreviousWakeTime_3(D)
 635 004c 3B69     		ldr	r3, [r7, #16]	@ tmp135, xConstTickCount
 636 004e 9A42     		cmp	r2, r3	@ D.6479, tmp135
 637 0050 0BD9     		bls	.L36	@,
 797:FreeRTOS/tasks.c **** 			{
 798:FreeRTOS/tasks.c **** 				/* The tick count has overflowed since this function was
 799:FreeRTOS/tasks.c **** 				lasted called.  In this case the only time we should ever
 800:FreeRTOS/tasks.c **** 				actually delay is if the wake time has also	overflowed,
 801:FreeRTOS/tasks.c **** 				and the wake time is greater than the tick time.  When this
 802:FreeRTOS/tasks.c **** 				is the case it is as if neither time had overflowed. */
 803:FreeRTOS/tasks.c **** 				if( ( xTimeToWake < *pxPreviousWakeTime ) && ( xTimeToWake > xConstTickCount ) )
 638              		.loc 1 803 0
 639 0052 7B68     		ldr	r3, [r7, #4]	@ tmp136, pxPreviousWakeTime
 640 0054 1A68     		ldr	r2, [r3]	@ D.6479, *pxPreviousWakeTime_3(D)
 641 0056 FB68     		ldr	r3, [r7, #12]	@ tmp137, xTimeToWake
 642 0058 9A42     		cmp	r2, r3	@ D.6479, tmp137
 643 005a 11D9     		bls	.L37	@,
 644              		.loc 1 803 0 is_stmt 0 discriminator 1
 645 005c FA68     		ldr	r2, [r7, #12]	@ tmp138, xTimeToWake
 646 005e 3B69     		ldr	r3, [r7, #16]	@ tmp139, xConstTickCount
 647 0060 9A42     		cmp	r2, r3	@ tmp138, tmp139
 648 0062 0DD9     		bls	.L37	@,
 804:FreeRTOS/tasks.c **** 				{
 805:FreeRTOS/tasks.c **** 					xShouldDelay = pdTRUE;
 649              		.loc 1 805 0 is_stmt 1
 650 0064 0123     		movs	r3, #1	@ tmp140,
 651 0066 7B61     		str	r3, [r7, #20]	@ tmp140, xShouldDelay
 652 0068 0AE0     		b	.L37	@
 653              	.L36:
ARM GAS  C:\Users\COSMIN~1.MAR\AppData\Local\Temp\ccJcV6ch.s 			page 27


 806:FreeRTOS/tasks.c **** 				}
 807:FreeRTOS/tasks.c **** 				else
 808:FreeRTOS/tasks.c **** 				{
 809:FreeRTOS/tasks.c **** 					mtCOVERAGE_TEST_MARKER();
 810:FreeRTOS/tasks.c **** 				}
 811:FreeRTOS/tasks.c **** 			}
 812:FreeRTOS/tasks.c **** 			else
 813:FreeRTOS/tasks.c **** 			{
 814:FreeRTOS/tasks.c **** 				/* The tick time has not overflowed.  In this case we will
 815:FreeRTOS/tasks.c **** 				delay if either the wake time has overflowed, and/or the
 816:FreeRTOS/tasks.c **** 				tick time is less than the wake time. */
 817:FreeRTOS/tasks.c **** 				if( ( xTimeToWake < *pxPreviousWakeTime ) || ( xTimeToWake > xConstTickCount ) )
 654              		.loc 1 817 0
 655 006a 7B68     		ldr	r3, [r7, #4]	@ tmp141, pxPreviousWakeTime
 656 006c 1A68     		ldr	r2, [r3]	@ D.6479, *pxPreviousWakeTime_3(D)
 657 006e FB68     		ldr	r3, [r7, #12]	@ tmp142, xTimeToWake
 658 0070 9A42     		cmp	r2, r3	@ D.6479, tmp142
 659 0072 03D8     		bhi	.L38	@,
 660              		.loc 1 817 0 is_stmt 0 discriminator 1
 661 0074 FA68     		ldr	r2, [r7, #12]	@ tmp143, xTimeToWake
 662 0076 3B69     		ldr	r3, [r7, #16]	@ tmp144, xConstTickCount
 663 0078 9A42     		cmp	r2, r3	@ tmp143, tmp144
 664 007a 01D9     		bls	.L37	@,
 665              	.L38:
 818:FreeRTOS/tasks.c **** 				{
 819:FreeRTOS/tasks.c **** 					xShouldDelay = pdTRUE;
 666              		.loc 1 819 0 is_stmt 1
 667 007c 0123     		movs	r3, #1	@ tmp145,
 668 007e 7B61     		str	r3, [r7, #20]	@ tmp145, xShouldDelay
 669              	.L37:
 820:FreeRTOS/tasks.c **** 				}
 821:FreeRTOS/tasks.c **** 				else
 822:FreeRTOS/tasks.c **** 				{
 823:FreeRTOS/tasks.c **** 					mtCOVERAGE_TEST_MARKER();
 824:FreeRTOS/tasks.c **** 				}
 825:FreeRTOS/tasks.c **** 			}
 826:FreeRTOS/tasks.c **** 
 827:FreeRTOS/tasks.c **** 			/* Update the wake time ready for the next call. */
 828:FreeRTOS/tasks.c **** 			*pxPreviousWakeTime = xTimeToWake;
 670              		.loc 1 828 0
 671 0080 7B68     		ldr	r3, [r7, #4]	@ tmp146, pxPreviousWakeTime
 672 0082 FA68     		ldr	r2, [r7, #12]	@ tmp147, xTimeToWake
 673 0084 1A60     		str	r2, [r3]	@ tmp147, *pxPreviousWakeTime_3(D)
 829:FreeRTOS/tasks.c **** 
 830:FreeRTOS/tasks.c **** 			if( xShouldDelay != pdFALSE )
 674              		.loc 1 830 0
 675 0086 7B69     		ldr	r3, [r7, #20]	@ tmp148, xShouldDelay
 676 0088 002B     		cmp	r3, #0	@ tmp148,
 677 008a 17D0     		beq	.L39	@,
 831:FreeRTOS/tasks.c **** 			{
 832:FreeRTOS/tasks.c **** 				traceTASK_DELAY_UNTIL();
 833:FreeRTOS/tasks.c **** 
 834:FreeRTOS/tasks.c **** 				/* Remove the task from the ready list before adding it to the
 835:FreeRTOS/tasks.c **** 				blocked list as the same list item is used for both lists. */
 836:FreeRTOS/tasks.c **** 				if( uxListRemove( &( pxCurrentTCB->xGenericListItem ) ) == ( UBaseT_t ) 0 )
 678              		.loc 1 836 0
 679 008c 134B     		ldr	r3, .L42+8	@ tmp149,
ARM GAS  C:\Users\COSMIN~1.MAR\AppData\Local\Temp\ccJcV6ch.s 			page 28


 680 008e 1B68     		ldr	r3, [r3]	@ D.6480, pxCurrentTCB
 681 0090 0433     		adds	r3, r3, #4	@ D.6481, D.6480,
 682 0092 1846     		mov	r0, r3	@, D.6481
 683 0094 FFF7FEFF 		bl	uxListRemove	@
 684 0098 0346     		mov	r3, r0	@ D.6479,
 685 009a 002B     		cmp	r3, #0	@ D.6479,
 686 009c 0BD1     		bne	.L40	@,
 837:FreeRTOS/tasks.c **** 				{
 838:FreeRTOS/tasks.c **** 					/* The current task must be in a ready list, so there is
 839:FreeRTOS/tasks.c **** 					no need to check, and the port reset macro can be called
 840:FreeRTOS/tasks.c **** 					directly. */
 841:FreeRTOS/tasks.c **** 					portRESET_READY_PRIORITY( pxCurrentTCB->uxPriority, uxTopReadyPriority );
 687              		.loc 1 841 0
 688 009e 0F4B     		ldr	r3, .L42+8	@ tmp150,
 689 00a0 1B68     		ldr	r3, [r3]	@ D.6480, pxCurrentTCB
 690 00a2 DB6A     		ldr	r3, [r3, #44]	@ D.6479, _17->uxPriority
 691 00a4 1A46     		mov	r2, r3	@ D.6482, D.6479
 692 00a6 0123     		movs	r3, #1	@ tmp151,
 693 00a8 9340     		lsls	r3, r3, r2	@ D.6479, tmp151, D.6482
 694 00aa DA43     		mvns	r2, r3	@ D.6479, D.6479
 695 00ac 0C4B     		ldr	r3, .L42+12	@ tmp152,
 696 00ae 1B68     		ldr	r3, [r3]	@ D.6479, uxTopReadyPriority
 697 00b0 1340     		ands	r3, r3, r2	@, D.6479, D.6479, D.6479
 698 00b2 0B4A     		ldr	r2, .L42+12	@ tmp153,
 699 00b4 1360     		str	r3, [r2]	@ D.6479, uxTopReadyPriority
 700              	.L40:
 842:FreeRTOS/tasks.c **** 				}
 843:FreeRTOS/tasks.c **** 				else
 844:FreeRTOS/tasks.c **** 				{
 845:FreeRTOS/tasks.c **** 					mtCOVERAGE_TEST_MARKER();
 846:FreeRTOS/tasks.c **** 				}
 847:FreeRTOS/tasks.c **** 
 848:FreeRTOS/tasks.c **** 				prvAddCurrentTaskToDelayedList( xTimeToWake );
 701              		.loc 1 848 0
 702 00b6 F868     		ldr	r0, [r7, #12]	@, xTimeToWake
 703 00b8 FFF7FEFF 		bl	prvAddCurrentTaskToDelayedList	@
 704              	.L39:
 705              	.LBE7:
 849:FreeRTOS/tasks.c **** 			}
 850:FreeRTOS/tasks.c **** 			else
 851:FreeRTOS/tasks.c **** 			{
 852:FreeRTOS/tasks.c **** 				mtCOVERAGE_TEST_MARKER();
 853:FreeRTOS/tasks.c **** 			}
 854:FreeRTOS/tasks.c **** 		}
 855:FreeRTOS/tasks.c **** 		xAlreadyYielded = xTaskResumeAll();
 706              		.loc 1 855 0
 707 00bc FFF7FEFF 		bl	xTaskResumeAll	@
 708 00c0 B860     		str	r0, [r7, #8]	@, xAlreadyYielded
 856:FreeRTOS/tasks.c **** 
 857:FreeRTOS/tasks.c **** 		/* Force a reschedule if xTaskResumeAll has not already done so, we may
 858:FreeRTOS/tasks.c **** 		have put ourselves to sleep. */
 859:FreeRTOS/tasks.c **** 		if( xAlreadyYielded == pdFALSE )
 709              		.loc 1 859 0
 710 00c2 BB68     		ldr	r3, [r7, #8]	@ tmp154, xAlreadyYielded
 711 00c4 002B     		cmp	r3, #0	@ tmp154,
 712 00c6 01D1     		bne	.L29	@,
 860:FreeRTOS/tasks.c **** 		{
ARM GAS  C:\Users\COSMIN~1.MAR\AppData\Local\Temp\ccJcV6ch.s 			page 29


 861:FreeRTOS/tasks.c **** 			portYIELD_WITHIN_API();
 713              		.loc 1 861 0
 714 00c8 FFF7FEFF 		bl	vPortYield	@
 715              	.L29:
 862:FreeRTOS/tasks.c **** 		}
 863:FreeRTOS/tasks.c **** 		else
 864:FreeRTOS/tasks.c **** 		{
 865:FreeRTOS/tasks.c **** 			mtCOVERAGE_TEST_MARKER();
 866:FreeRTOS/tasks.c **** 		}
 867:FreeRTOS/tasks.c **** 	}
 716              		.loc 1 867 0
 717 00cc 1837     		adds	r7, r7, #24	@,,
 718              		.cfi_def_cfa_offset 8
 719 00ce BD46     		mov	sp, r7	@,
 720              		.cfi_def_cfa_register 13
 721              		@ sp needed	@
 722 00d0 80BD     		pop	{r7, pc}	@
 723              	.L43:
 724 00d2 00BF     		.align	2
 725              	.L42:
 726 00d4 00000000 		.word	uxSchedulerSuspended
 727 00d8 00000000 		.word	xTickCount
 728 00dc 00000000 		.word	pxCurrentTCB
 729 00e0 00000000 		.word	uxTopReadyPriority
 730              		.cfi_endproc
 731              	.LFE3:
 732              		.size	vTaskDelayUntil, .-vTaskDelayUntil
 733              		.section	.text.vTaskDelay,"ax",%progbits
 734              		.align	2
 735              		.global	vTaskDelay
 736              		.thumb
 737              		.thumb_func
 738              		.type	vTaskDelay, %function
 739              	vTaskDelay:
 740              	.LFB4:
 868:FreeRTOS/tasks.c **** 
 869:FreeRTOS/tasks.c **** #endif /* INCLUDE_vTaskDelayUntil */
 870:FreeRTOS/tasks.c **** /*-----------------------------------------------------------*/
 871:FreeRTOS/tasks.c **** 
 872:FreeRTOS/tasks.c **** #if ( INCLUDE_vTaskDelay == 1 )
 873:FreeRTOS/tasks.c **** 
 874:FreeRTOS/tasks.c **** 	void vTaskDelay( const TickT_t xTicksToDelay )
 875:FreeRTOS/tasks.c **** 	{
 741              		.loc 1 875 0
 742              		.cfi_startproc
 743              		@ args = 0, pretend = 0, frame = 16
 744              		@ frame_needed = 1, uses_anonymous_args = 0
 745 0000 80B5     		push	{r7, lr}	@
 746              		.cfi_def_cfa_offset 8
 747              		.cfi_offset 7, -8
 748              		.cfi_offset 14, -4
 749 0002 84B0     		sub	sp, sp, #16	@,,
 750              		.cfi_def_cfa_offset 24
 751 0004 00AF     		add	r7, sp, #0	@,,
 752              		.cfi_def_cfa_register 7
 753 0006 7860     		str	r0, [r7, #4]	@ xTicksToDelay, xTicksToDelay
 876:FreeRTOS/tasks.c **** 	TickT_t xTimeToWake;
ARM GAS  C:\Users\COSMIN~1.MAR\AppData\Local\Temp\ccJcV6ch.s 			page 30


 877:FreeRTOS/tasks.c **** 	BaseT_t xAlreadyYielded = pdFALSE;
 754              		.loc 1 877 0
 755 0008 0023     		movs	r3, #0	@ tmp122,
 756 000a FB60     		str	r3, [r7, #12]	@ tmp122, xAlreadyYielded
 878:FreeRTOS/tasks.c **** 
 879:FreeRTOS/tasks.c **** 
 880:FreeRTOS/tasks.c **** 		/* A delay time of zero just forces a reschedule. */
 881:FreeRTOS/tasks.c **** 		if( xTicksToDelay > ( TickT_t ) 0U )
 757              		.loc 1 881 0
 758 000c 7B68     		ldr	r3, [r7, #4]	@ tmp123, xTicksToDelay
 759 000e 002B     		cmp	r3, #0	@ tmp123,
 760 0010 28D0     		beq	.L45	@,
 882:FreeRTOS/tasks.c **** 		{
 883:FreeRTOS/tasks.c **** 			configASSERT( uxSchedulerSuspended == 0 );
 761              		.loc 1 883 0
 762 0012 184B     		ldr	r3, .L50	@ tmp124,
 763 0014 1B68     		ldr	r3, [r3]	@ D.6483, uxSchedulerSuspended
 764 0016 002B     		cmp	r3, #0	@ D.6483,
 765 0018 02D0     		beq	.L46	@,
 766              		.loc 1 883 0 is_stmt 0 discriminator 1
 767 001a FFF7FEFF 		bl	ulPortSetInterruptMask	@
 768              	.L47:
 769 001e FEE7     		b	.L47	@
 770              	.L46:
 884:FreeRTOS/tasks.c **** 			vTaskSuspendAll();
 771              		.loc 1 884 0 is_stmt 1
 772 0020 FFF7FEFF 		bl	vTaskSuspendAll	@
 885:FreeRTOS/tasks.c **** 			{
 886:FreeRTOS/tasks.c **** 				traceTASK_DELAY();
 887:FreeRTOS/tasks.c **** 
 888:FreeRTOS/tasks.c **** 				/* A task that is removed from the event list while the
 889:FreeRTOS/tasks.c **** 				scheduler is suspended will not get placed in the ready
 890:FreeRTOS/tasks.c **** 				list or removed from the blocked list until the scheduler
 891:FreeRTOS/tasks.c **** 				is resumed.
 892:FreeRTOS/tasks.c **** 
 893:FreeRTOS/tasks.c **** 				This task cannot be in an event list as it is the currently
 894:FreeRTOS/tasks.c **** 				executing task. */
 895:FreeRTOS/tasks.c **** 
 896:FreeRTOS/tasks.c **** 				/* Calculate the time to wake - this may overflow but this is
 897:FreeRTOS/tasks.c **** 				not a problem. */
 898:FreeRTOS/tasks.c **** 				xTimeToWake = xTickCount + xTicksToDelay;
 773              		.loc 1 898 0
 774 0024 144B     		ldr	r3, .L50+4	@ tmp125,
 775 0026 1A68     		ldr	r2, [r3]	@ D.6483, xTickCount
 776 0028 7B68     		ldr	r3, [r7, #4]	@ tmp127, xTicksToDelay
 777 002a 1344     		add	r3, r3, r2	@ tmp126, D.6483
 778 002c BB60     		str	r3, [r7, #8]	@ tmp126, xTimeToWake
 899:FreeRTOS/tasks.c **** 
 900:FreeRTOS/tasks.c **** 				/* We must remove ourselves from the ready list before adding
 901:FreeRTOS/tasks.c **** 				ourselves to the blocked list as the same list item is used for
 902:FreeRTOS/tasks.c **** 				both lists. */
 903:FreeRTOS/tasks.c **** 				if( uxListRemove( &( pxCurrentTCB->xGenericListItem ) ) == ( UBaseT_t ) 0 )
 779              		.loc 1 903 0
 780 002e 134B     		ldr	r3, .L50+8	@ tmp128,
 781 0030 1B68     		ldr	r3, [r3]	@ D.6484, pxCurrentTCB
 782 0032 0433     		adds	r3, r3, #4	@ D.6485, D.6484,
 783 0034 1846     		mov	r0, r3	@, D.6485
ARM GAS  C:\Users\COSMIN~1.MAR\AppData\Local\Temp\ccJcV6ch.s 			page 31


 784 0036 FFF7FEFF 		bl	uxListRemove	@
 785 003a 0346     		mov	r3, r0	@ D.6483,
 786 003c 002B     		cmp	r3, #0	@ D.6483,
 787 003e 0BD1     		bne	.L48	@,
 904:FreeRTOS/tasks.c **** 				{
 905:FreeRTOS/tasks.c **** 					/* The current task must be in a ready list, so there is
 906:FreeRTOS/tasks.c **** 					no need to check, and the port reset macro can be called
 907:FreeRTOS/tasks.c **** 					directly. */
 908:FreeRTOS/tasks.c **** 					portRESET_READY_PRIORITY( pxCurrentTCB->uxPriority, uxTopReadyPriority );
 788              		.loc 1 908 0
 789 0040 0E4B     		ldr	r3, .L50+8	@ tmp129,
 790 0042 1B68     		ldr	r3, [r3]	@ D.6484, pxCurrentTCB
 791 0044 DB6A     		ldr	r3, [r3, #44]	@ D.6483, _10->uxPriority
 792 0046 1A46     		mov	r2, r3	@ D.6486, D.6483
 793 0048 0123     		movs	r3, #1	@ tmp130,
 794 004a 9340     		lsls	r3, r3, r2	@ D.6483, tmp130, D.6486
 795 004c DA43     		mvns	r2, r3	@ D.6483, D.6483
 796 004e 0C4B     		ldr	r3, .L50+12	@ tmp131,
 797 0050 1B68     		ldr	r3, [r3]	@ D.6483, uxTopReadyPriority
 798 0052 1340     		ands	r3, r3, r2	@, D.6483, D.6483, D.6483
 799 0054 0A4A     		ldr	r2, .L50+12	@ tmp132,
 800 0056 1360     		str	r3, [r2]	@ D.6483, uxTopReadyPriority
 801              	.L48:
 909:FreeRTOS/tasks.c **** 				}
 910:FreeRTOS/tasks.c **** 				else
 911:FreeRTOS/tasks.c **** 				{
 912:FreeRTOS/tasks.c **** 					mtCOVERAGE_TEST_MARKER();
 913:FreeRTOS/tasks.c **** 				}
 914:FreeRTOS/tasks.c **** 				prvAddCurrentTaskToDelayedList( xTimeToWake );
 802              		.loc 1 914 0
 803 0058 B868     		ldr	r0, [r7, #8]	@, xTimeToWake
 804 005a FFF7FEFF 		bl	prvAddCurrentTaskToDelayedList	@
 915:FreeRTOS/tasks.c **** 			}
 916:FreeRTOS/tasks.c **** 			xAlreadyYielded = xTaskResumeAll();
 805              		.loc 1 916 0
 806 005e FFF7FEFF 		bl	xTaskResumeAll	@
 807 0062 F860     		str	r0, [r7, #12]	@, xAlreadyYielded
 808              	.L45:
 917:FreeRTOS/tasks.c **** 		}
 918:FreeRTOS/tasks.c **** 		else
 919:FreeRTOS/tasks.c **** 		{
 920:FreeRTOS/tasks.c **** 			mtCOVERAGE_TEST_MARKER();
 921:FreeRTOS/tasks.c **** 		}
 922:FreeRTOS/tasks.c **** 
 923:FreeRTOS/tasks.c **** 		/* Force a reschedule if xTaskResumeAll has not already done so, we may
 924:FreeRTOS/tasks.c **** 		have put ourselves to sleep. */
 925:FreeRTOS/tasks.c **** 		if( xAlreadyYielded == pdFALSE )
 809              		.loc 1 925 0
 810 0064 FB68     		ldr	r3, [r7, #12]	@ tmp133, xAlreadyYielded
 811 0066 002B     		cmp	r3, #0	@ tmp133,
 812 0068 01D1     		bne	.L44	@,
 926:FreeRTOS/tasks.c **** 		{
 927:FreeRTOS/tasks.c **** 			portYIELD_WITHIN_API();
 813              		.loc 1 927 0
 814 006a FFF7FEFF 		bl	vPortYield	@
 815              	.L44:
 928:FreeRTOS/tasks.c **** 		}
ARM GAS  C:\Users\COSMIN~1.MAR\AppData\Local\Temp\ccJcV6ch.s 			page 32


 929:FreeRTOS/tasks.c **** 		else
 930:FreeRTOS/tasks.c **** 		{
 931:FreeRTOS/tasks.c **** 			mtCOVERAGE_TEST_MARKER();
 932:FreeRTOS/tasks.c **** 		}
 933:FreeRTOS/tasks.c **** 	}
 816              		.loc 1 933 0
 817 006e 1037     		adds	r7, r7, #16	@,,
 818              		.cfi_def_cfa_offset 8
 819 0070 BD46     		mov	sp, r7	@,
 820              		.cfi_def_cfa_register 13
 821              		@ sp needed	@
 822 0072 80BD     		pop	{r7, pc}	@
 823              	.L51:
 824              		.align	2
 825              	.L50:
 826 0074 00000000 		.word	uxSchedulerSuspended
 827 0078 00000000 		.word	xTickCount
 828 007c 00000000 		.word	pxCurrentTCB
 829 0080 00000000 		.word	uxTopReadyPriority
 830              		.cfi_endproc
 831              	.LFE4:
 832              		.size	vTaskDelay, .-vTaskDelay
 833              		.section	.text.uxTaskPriorityGet,"ax",%progbits
 834              		.align	2
 835              		.global	uxTaskPriorityGet
 836              		.thumb
 837              		.thumb_func
 838              		.type	uxTaskPriorityGet, %function
 839              	uxTaskPriorityGet:
 840              	.LFB5:
 934:FreeRTOS/tasks.c **** 
 935:FreeRTOS/tasks.c **** #endif /* INCLUDE_vTaskDelay */
 936:FreeRTOS/tasks.c **** /*-----------------------------------------------------------*/
 937:FreeRTOS/tasks.c **** 
 938:FreeRTOS/tasks.c **** #if ( INCLUDE_eTaskGetState == 1 )
 939:FreeRTOS/tasks.c **** 
 940:FreeRTOS/tasks.c **** 	eTaskState eTaskGetState( TaskHandle_t xTask )
 941:FreeRTOS/tasks.c **** 	{
 942:FreeRTOS/tasks.c **** 	eTaskState eReturn;
 943:FreeRTOS/tasks.c **** 	List_t *pxStateList;
 944:FreeRTOS/tasks.c **** 	const TCB_t * const pxTCB = ( TCB_t * ) xTask;
 945:FreeRTOS/tasks.c **** 
 946:FreeRTOS/tasks.c **** 		configASSERT( pxTCB );
 947:FreeRTOS/tasks.c **** 
 948:FreeRTOS/tasks.c **** 		if( pxTCB == pxCurrentTCB )
 949:FreeRTOS/tasks.c **** 		{
 950:FreeRTOS/tasks.c **** 			/* The task calling this function is querying its own state. */
 951:FreeRTOS/tasks.c **** 			eReturn = eRunning;
 952:FreeRTOS/tasks.c **** 		}
 953:FreeRTOS/tasks.c **** 		else
 954:FreeRTOS/tasks.c **** 		{
 955:FreeRTOS/tasks.c **** 			taskENTER_CRITICAL();
 956:FreeRTOS/tasks.c **** 			{
 957:FreeRTOS/tasks.c **** 				pxStateList = ( List_t * ) listLIST_ITEM_CONTAINER( &( pxTCB->xGenericListItem ) );
 958:FreeRTOS/tasks.c **** 			}
 959:FreeRTOS/tasks.c **** 			taskEXIT_CRITICAL();
 960:FreeRTOS/tasks.c **** 
ARM GAS  C:\Users\COSMIN~1.MAR\AppData\Local\Temp\ccJcV6ch.s 			page 33


 961:FreeRTOS/tasks.c **** 			if( ( pxStateList == pxDelayedTaskList ) || ( pxStateList == pxOverflowDelayedTaskList ) )
 962:FreeRTOS/tasks.c **** 			{
 963:FreeRTOS/tasks.c **** 				/* The task being queried is referenced from one of the Blocked
 964:FreeRTOS/tasks.c **** 				lists. */
 965:FreeRTOS/tasks.c **** 				eReturn = eBlocked;
 966:FreeRTOS/tasks.c **** 			}
 967:FreeRTOS/tasks.c **** 
 968:FreeRTOS/tasks.c **** 			#if ( INCLUDE_vTaskSuspend == 1 )
 969:FreeRTOS/tasks.c **** 				else if( pxStateList == &xSuspendedTaskList )
 970:FreeRTOS/tasks.c **** 				{
 971:FreeRTOS/tasks.c **** 					/* The task being queried is referenced from the suspended
 972:FreeRTOS/tasks.c **** 					list.  Is it genuinely suspended or is it block
 973:FreeRTOS/tasks.c **** 					indefinitely? */
 974:FreeRTOS/tasks.c **** 					if( listLIST_ITEM_CONTAINER( &( pxTCB->xEventListItem ) ) == NULL )
 975:FreeRTOS/tasks.c **** 					{
 976:FreeRTOS/tasks.c **** 						eReturn = eSuspended;
 977:FreeRTOS/tasks.c **** 					}
 978:FreeRTOS/tasks.c **** 					else
 979:FreeRTOS/tasks.c **** 					{
 980:FreeRTOS/tasks.c **** 						eReturn = eBlocked;
 981:FreeRTOS/tasks.c **** 					}
 982:FreeRTOS/tasks.c **** 				}
 983:FreeRTOS/tasks.c **** 			#endif
 984:FreeRTOS/tasks.c **** 
 985:FreeRTOS/tasks.c **** 			#if ( INCLUDE_vTaskDelete == 1 )
 986:FreeRTOS/tasks.c **** 				else if( pxStateList == &xTasksWaitingTermination )
 987:FreeRTOS/tasks.c **** 				{
 988:FreeRTOS/tasks.c **** 					/* The task being queried is referenced from the deleted
 989:FreeRTOS/tasks.c **** 					tasks list. */
 990:FreeRTOS/tasks.c **** 					eReturn = eDeleted;
 991:FreeRTOS/tasks.c **** 				}
 992:FreeRTOS/tasks.c **** 			#endif
 993:FreeRTOS/tasks.c **** 
 994:FreeRTOS/tasks.c **** 			else
 995:FreeRTOS/tasks.c **** 			{
 996:FreeRTOS/tasks.c **** 				/* If the task is not in any other state, it must be in the
 997:FreeRTOS/tasks.c **** 				Ready (including pending ready) state. */
 998:FreeRTOS/tasks.c **** 				eReturn = eReady;
 999:FreeRTOS/tasks.c **** 			}
1000:FreeRTOS/tasks.c **** 		}
1001:FreeRTOS/tasks.c **** 
1002:FreeRTOS/tasks.c **** 		return eReturn;
1003:FreeRTOS/tasks.c **** 	} /*lint !e818 xTask cannot be a pointer to const because it is a typedef. */
1004:FreeRTOS/tasks.c **** 
1005:FreeRTOS/tasks.c **** #endif /* INCLUDE_eTaskGetState */
1006:FreeRTOS/tasks.c **** /*-----------------------------------------------------------*/
1007:FreeRTOS/tasks.c **** 
1008:FreeRTOS/tasks.c **** #if ( INCLUDE_uxTaskPriorityGet == 1 )
1009:FreeRTOS/tasks.c **** 
1010:FreeRTOS/tasks.c **** 	UBaseT_t uxTaskPriorityGet( TaskHandle_t xTask )
1011:FreeRTOS/tasks.c **** 	{
 841              		.loc 1 1011 0
 842              		.cfi_startproc
 843              		@ args = 0, pretend = 0, frame = 16
 844              		@ frame_needed = 1, uses_anonymous_args = 0
 845 0000 80B5     		push	{r7, lr}	@
 846              		.cfi_def_cfa_offset 8
ARM GAS  C:\Users\COSMIN~1.MAR\AppData\Local\Temp\ccJcV6ch.s 			page 34


 847              		.cfi_offset 7, -8
 848              		.cfi_offset 14, -4
 849 0002 84B0     		sub	sp, sp, #16	@,,
 850              		.cfi_def_cfa_offset 24
 851 0004 00AF     		add	r7, sp, #0	@,,
 852              		.cfi_def_cfa_register 7
 853 0006 7860     		str	r0, [r7, #4]	@ xTask, xTask
1012:FreeRTOS/tasks.c **** 	TCB_t *pxTCB;
1013:FreeRTOS/tasks.c **** 	UBaseT_t uxReturn;
1014:FreeRTOS/tasks.c **** 
1015:FreeRTOS/tasks.c **** 		taskENTER_CRITICAL();
 854              		.loc 1 1015 0
 855 0008 FFF7FEFF 		bl	vPortEnterCritical	@
1016:FreeRTOS/tasks.c **** 		{
1017:FreeRTOS/tasks.c **** 			/* If null is passed in here then we are changing the
1018:FreeRTOS/tasks.c **** 			priority of the calling function. */
1019:FreeRTOS/tasks.c **** 			pxTCB = prvGetTCBFromHandle( xTask );
 856              		.loc 1 1019 0
 857 000c 7B68     		ldr	r3, [r7, #4]	@ tmp113, xTask
 858 000e 002B     		cmp	r3, #0	@ tmp113,
 859 0010 02D1     		bne	.L53	@,
 860              		.loc 1 1019 0 is_stmt 0 discriminator 1
 861 0012 074B     		ldr	r3, .L56	@ tmp114,
 862 0014 1B68     		ldr	r3, [r3]	@ D.6487, pxCurrentTCB
 863 0016 00E0     		b	.L54	@
 864              	.L53:
 865              		.loc 1 1019 0 discriminator 2
 866 0018 7B68     		ldr	r3, [r7, #4]	@ D.6487, xTask
 867              	.L54:
 868              		.loc 1 1019 0 discriminator 4
 869 001a FB60     		str	r3, [r7, #12]	@ D.6487, pxTCB
1020:FreeRTOS/tasks.c **** 			uxReturn = pxTCB->uxPriority;
 870              		.loc 1 1020 0 is_stmt 1 discriminator 4
 871 001c FB68     		ldr	r3, [r7, #12]	@ tmp115, pxTCB
 872 001e DB6A     		ldr	r3, [r3, #44]	@ tmp116, pxTCB_5->uxPriority
 873 0020 BB60     		str	r3, [r7, #8]	@ tmp116, uxReturn
1021:FreeRTOS/tasks.c **** 		}
1022:FreeRTOS/tasks.c **** 		taskEXIT_CRITICAL();
 874              		.loc 1 1022 0 discriminator 4
 875 0022 FFF7FEFF 		bl	vPortExitCritical	@
1023:FreeRTOS/tasks.c **** 
1024:FreeRTOS/tasks.c **** 		return uxReturn;
 876              		.loc 1 1024 0 discriminator 4
 877 0026 BB68     		ldr	r3, [r7, #8]	@ D.6488, uxReturn
1025:FreeRTOS/tasks.c **** 	}
 878              		.loc 1 1025 0 discriminator 4
 879 0028 1846     		mov	r0, r3	@, <retval>
 880 002a 1037     		adds	r7, r7, #16	@,,
 881              		.cfi_def_cfa_offset 8
 882 002c BD46     		mov	sp, r7	@,
 883              		.cfi_def_cfa_register 13
 884              		@ sp needed	@
 885 002e 80BD     		pop	{r7, pc}	@
 886              	.L57:
 887              		.align	2
 888              	.L56:
 889 0030 00000000 		.word	pxCurrentTCB
ARM GAS  C:\Users\COSMIN~1.MAR\AppData\Local\Temp\ccJcV6ch.s 			page 35


 890              		.cfi_endproc
 891              	.LFE5:
 892              		.size	uxTaskPriorityGet, .-uxTaskPriorityGet
 893              		.section	.text.vTaskPrioritySet,"ax",%progbits
 894              		.align	2
 895              		.global	vTaskPrioritySet
 896              		.thumb
 897              		.thumb_func
 898              		.type	vTaskPrioritySet, %function
 899              	vTaskPrioritySet:
 900              	.LFB6:
1026:FreeRTOS/tasks.c **** 
1027:FreeRTOS/tasks.c **** #endif /* INCLUDE_uxTaskPriorityGet */
1028:FreeRTOS/tasks.c **** /*-----------------------------------------------------------*/
1029:FreeRTOS/tasks.c **** 
1030:FreeRTOS/tasks.c **** #if ( INCLUDE_vTaskPrioritySet == 1 )
1031:FreeRTOS/tasks.c **** 
1032:FreeRTOS/tasks.c **** 	void vTaskPrioritySet( TaskHandle_t xTask, UBaseT_t uxNewPriority )
1033:FreeRTOS/tasks.c **** 	{
 901              		.loc 1 1033 0
 902              		.cfi_startproc
 903              		@ args = 0, pretend = 0, frame = 24
 904              		@ frame_needed = 1, uses_anonymous_args = 0
 905 0000 80B5     		push	{r7, lr}	@
 906              		.cfi_def_cfa_offset 8
 907              		.cfi_offset 7, -8
 908              		.cfi_offset 14, -4
 909 0002 86B0     		sub	sp, sp, #24	@,,
 910              		.cfi_def_cfa_offset 32
 911 0004 00AF     		add	r7, sp, #0	@,,
 912              		.cfi_def_cfa_register 7
 913 0006 7860     		str	r0, [r7, #4]	@ xTask, xTask
 914 0008 3960     		str	r1, [r7]	@ uxNewPriority, uxNewPriority
1034:FreeRTOS/tasks.c **** 	TCB_t *pxTCB;
1035:FreeRTOS/tasks.c **** 	UBaseT_t uxCurrentBasePriority, uxPriorityUsedOnEntry;
1036:FreeRTOS/tasks.c **** 	BaseT_t xYieldRequired = pdFALSE;
 915              		.loc 1 1036 0
 916 000a 0023     		movs	r3, #0	@ tmp138,
 917 000c 7B61     		str	r3, [r7, #20]	@ tmp138, xYieldRequired
1037:FreeRTOS/tasks.c **** 
1038:FreeRTOS/tasks.c **** 		configASSERT( ( uxNewPriority < configMAX_PRIORITIES ) );
 918              		.loc 1 1038 0
 919 000e 3B68     		ldr	r3, [r7]	@ tmp139, uxNewPriority
 920 0010 072B     		cmp	r3, #7	@ tmp139,
 921 0012 02D9     		bls	.L59	@,
 922              		.loc 1 1038 0 is_stmt 0 discriminator 1
 923 0014 FFF7FEFF 		bl	ulPortSetInterruptMask	@
 924              	.L60:
 925 0018 FEE7     		b	.L60	@
 926              	.L59:
1039:FreeRTOS/tasks.c **** 
1040:FreeRTOS/tasks.c **** 		/* Ensure the new priority is valid. */
1041:FreeRTOS/tasks.c **** 		if( uxNewPriority >= ( UBaseT_t ) configMAX_PRIORITIES )
 927              		.loc 1 1041 0 is_stmt 1
 928 001a 3B68     		ldr	r3, [r7]	@ tmp140, uxNewPriority
 929 001c 072B     		cmp	r3, #7	@ tmp140,
 930 001e 01D9     		bls	.L61	@,
ARM GAS  C:\Users\COSMIN~1.MAR\AppData\Local\Temp\ccJcV6ch.s 			page 36


1042:FreeRTOS/tasks.c **** 		{
1043:FreeRTOS/tasks.c **** 			uxNewPriority = ( UBaseT_t ) configMAX_PRIORITIES - ( UBaseT_t ) 1U;
 931              		.loc 1 1043 0
 932 0020 0723     		movs	r3, #7	@ tmp141,
 933 0022 3B60     		str	r3, [r7]	@ tmp141, uxNewPriority
 934              	.L61:
1044:FreeRTOS/tasks.c **** 		}
1045:FreeRTOS/tasks.c **** 		else
1046:FreeRTOS/tasks.c **** 		{
1047:FreeRTOS/tasks.c **** 			mtCOVERAGE_TEST_MARKER();
1048:FreeRTOS/tasks.c **** 		}
1049:FreeRTOS/tasks.c **** 
1050:FreeRTOS/tasks.c **** 		taskENTER_CRITICAL();
 935              		.loc 1 1050 0
 936 0024 FFF7FEFF 		bl	vPortEnterCritical	@
1051:FreeRTOS/tasks.c **** 		{
1052:FreeRTOS/tasks.c **** 			/* If null is passed in here then it is the priority of the calling
1053:FreeRTOS/tasks.c **** 			task that is being changed. */
1054:FreeRTOS/tasks.c **** 			pxTCB = prvGetTCBFromHandle( xTask );
 937              		.loc 1 1054 0
 938 0028 7B68     		ldr	r3, [r7, #4]	@ tmp142, xTask
 939 002a 002B     		cmp	r3, #0	@ tmp142,
 940 002c 02D1     		bne	.L62	@,
 941              		.loc 1 1054 0 is_stmt 0 discriminator 1
 942 002e 414B     		ldr	r3, .L73	@ tmp143,
 943 0030 1B68     		ldr	r3, [r3]	@ D.6489, pxCurrentTCB
 944 0032 00E0     		b	.L63	@
 945              	.L62:
 946              		.loc 1 1054 0 discriminator 2
 947 0034 7B68     		ldr	r3, [r7, #4]	@ D.6489, xTask
 948              	.L63:
 949              		.loc 1 1054 0 discriminator 4
 950 0036 3B61     		str	r3, [r7, #16]	@ D.6489, pxTCB
1055:FreeRTOS/tasks.c **** 
1056:FreeRTOS/tasks.c **** 			traceTASK_PRIORITY_SET( pxTCB, uxNewPriority );
1057:FreeRTOS/tasks.c **** 
1058:FreeRTOS/tasks.c **** 			#if ( configUSE_MUTEXES == 1 )
1059:FreeRTOS/tasks.c **** 			{
1060:FreeRTOS/tasks.c **** 				uxCurrentBasePriority = pxTCB->uxBasePriority;
 951              		.loc 1 1060 0 is_stmt 1 discriminator 4
 952 0038 3B69     		ldr	r3, [r7, #16]	@ tmp144, pxTCB
 953 003a 9B6C     		ldr	r3, [r3, #72]	@ tmp145, pxTCB_11->uxBasePriority
 954 003c FB60     		str	r3, [r7, #12]	@ tmp145, uxCurrentBasePriority
1061:FreeRTOS/tasks.c **** 			}
1062:FreeRTOS/tasks.c **** 			#else
1063:FreeRTOS/tasks.c **** 			{
1064:FreeRTOS/tasks.c **** 				uxCurrentBasePriority = pxTCB->uxPriority;
1065:FreeRTOS/tasks.c **** 			}
1066:FreeRTOS/tasks.c **** 			#endif
1067:FreeRTOS/tasks.c **** 
1068:FreeRTOS/tasks.c **** 			if( uxCurrentBasePriority != uxNewPriority )
 955              		.loc 1 1068 0 discriminator 4
 956 003e FA68     		ldr	r2, [r7, #12]	@ tmp146, uxCurrentBasePriority
 957 0040 3B68     		ldr	r3, [r7]	@ tmp147, uxNewPriority
 958 0042 9A42     		cmp	r2, r3	@ tmp146, tmp147
 959 0044 70D0     		beq	.L64	@,
1069:FreeRTOS/tasks.c **** 			{
ARM GAS  C:\Users\COSMIN~1.MAR\AppData\Local\Temp\ccJcV6ch.s 			page 37


1070:FreeRTOS/tasks.c **** 				/* The priority change may have readied a task of higher
1071:FreeRTOS/tasks.c **** 				priority than the calling task. */
1072:FreeRTOS/tasks.c **** 				if( uxNewPriority > uxCurrentBasePriority )
 960              		.loc 1 1072 0
 961 0046 3A68     		ldr	r2, [r7]	@ tmp148, uxNewPriority
 962 0048 FB68     		ldr	r3, [r7, #12]	@ tmp149, uxCurrentBasePriority
 963 004a 9A42     		cmp	r2, r3	@ tmp148, tmp149
 964 004c 0DD9     		bls	.L65	@,
1073:FreeRTOS/tasks.c **** 				{
1074:FreeRTOS/tasks.c **** 					if( pxTCB != pxCurrentTCB )
 965              		.loc 1 1074 0
 966 004e 394B     		ldr	r3, .L73	@ tmp150,
 967 0050 1B68     		ldr	r3, [r3]	@ D.6491, pxCurrentTCB
 968 0052 3A69     		ldr	r2, [r7, #16]	@ tmp151, pxTCB
 969 0054 9A42     		cmp	r2, r3	@ tmp151, D.6491
 970 0056 0FD0     		beq	.L66	@,
1075:FreeRTOS/tasks.c **** 					{
1076:FreeRTOS/tasks.c **** 						/* The priority of a task other than the currently
1077:FreeRTOS/tasks.c **** 						running task is being raised.  Is the priority being
1078:FreeRTOS/tasks.c **** 						raised above that of the running task? */
1079:FreeRTOS/tasks.c **** 						if( uxNewPriority >= pxCurrentTCB->uxPriority )
 971              		.loc 1 1079 0
 972 0058 364B     		ldr	r3, .L73	@ tmp152,
 973 005a 1B68     		ldr	r3, [r3]	@ D.6491, pxCurrentTCB
 974 005c DA6A     		ldr	r2, [r3, #44]	@ D.6492, _14->uxPriority
 975 005e 3B68     		ldr	r3, [r7]	@ tmp153, uxNewPriority
 976 0060 9A42     		cmp	r2, r3	@ D.6492, tmp153
 977 0062 09D8     		bhi	.L66	@,
1080:FreeRTOS/tasks.c **** 						{
1081:FreeRTOS/tasks.c **** 							xYieldRequired = pdTRUE;
 978              		.loc 1 1081 0
 979 0064 0123     		movs	r3, #1	@ tmp154,
 980 0066 7B61     		str	r3, [r7, #20]	@ tmp154, xYieldRequired
 981 0068 06E0     		b	.L66	@
 982              	.L65:
1082:FreeRTOS/tasks.c **** 						}
1083:FreeRTOS/tasks.c **** 						else
1084:FreeRTOS/tasks.c **** 						{
1085:FreeRTOS/tasks.c **** 							mtCOVERAGE_TEST_MARKER();
1086:FreeRTOS/tasks.c **** 						}
1087:FreeRTOS/tasks.c **** 					}
1088:FreeRTOS/tasks.c **** 					else
1089:FreeRTOS/tasks.c **** 					{
1090:FreeRTOS/tasks.c **** 						/* The priority of the running task is being raised,
1091:FreeRTOS/tasks.c **** 						but the running task must already be the highest
1092:FreeRTOS/tasks.c **** 						priority task able to run so no yield is required. */
1093:FreeRTOS/tasks.c **** 					}
1094:FreeRTOS/tasks.c **** 				}
1095:FreeRTOS/tasks.c **** 				else if( pxTCB == pxCurrentTCB )
 983              		.loc 1 1095 0
 984 006a 324B     		ldr	r3, .L73	@ tmp155,
 985 006c 1B68     		ldr	r3, [r3]	@ D.6491, pxCurrentTCB
 986 006e 3A69     		ldr	r2, [r7, #16]	@ tmp156, pxTCB
 987 0070 9A42     		cmp	r2, r3	@ tmp156, D.6491
 988 0072 01D1     		bne	.L66	@,
1096:FreeRTOS/tasks.c **** 				{
1097:FreeRTOS/tasks.c **** 					/* Setting the priority of the running task down means
ARM GAS  C:\Users\COSMIN~1.MAR\AppData\Local\Temp\ccJcV6ch.s 			page 38


1098:FreeRTOS/tasks.c **** 					there may now be another task of higher priority that
1099:FreeRTOS/tasks.c **** 					is ready to execute. */
1100:FreeRTOS/tasks.c **** 					xYieldRequired = pdTRUE;
 989              		.loc 1 1100 0
 990 0074 0123     		movs	r3, #1	@ tmp157,
 991 0076 7B61     		str	r3, [r7, #20]	@ tmp157, xYieldRequired
 992              	.L66:
1101:FreeRTOS/tasks.c **** 				}
1102:FreeRTOS/tasks.c **** 				else
1103:FreeRTOS/tasks.c **** 				{
1104:FreeRTOS/tasks.c **** 					/* Setting the priority of any other task down does not
1105:FreeRTOS/tasks.c **** 					require a yield as the running task must be above the
1106:FreeRTOS/tasks.c **** 					new priority of the task being modified. */
1107:FreeRTOS/tasks.c **** 				}
1108:FreeRTOS/tasks.c **** 
1109:FreeRTOS/tasks.c **** 				/* Remember the ready list the task might be referenced from
1110:FreeRTOS/tasks.c **** 				before its uxPriority member is changed so the
1111:FreeRTOS/tasks.c **** 				taskRESET_READY_PRIORITY() macro can function correctly. */
1112:FreeRTOS/tasks.c **** 				uxPriorityUsedOnEntry = pxTCB->uxPriority;
 993              		.loc 1 1112 0
 994 0078 3B69     		ldr	r3, [r7, #16]	@ tmp158, pxTCB
 995 007a DB6A     		ldr	r3, [r3, #44]	@ tmp159, pxTCB_11->uxPriority
 996 007c BB60     		str	r3, [r7, #8]	@ tmp159, uxPriorityUsedOnEntry
1113:FreeRTOS/tasks.c **** 
1114:FreeRTOS/tasks.c **** 				#if ( configUSE_MUTEXES == 1 )
1115:FreeRTOS/tasks.c **** 				{
1116:FreeRTOS/tasks.c **** 					/* Only change the priority being used if the task is not
1117:FreeRTOS/tasks.c **** 					currently using an inherited priority. */
1118:FreeRTOS/tasks.c **** 					if( pxTCB->uxBasePriority == pxTCB->uxPriority )
 997              		.loc 1 1118 0
 998 007e 3B69     		ldr	r3, [r7, #16]	@ tmp160, pxTCB
 999 0080 9A6C     		ldr	r2, [r3, #72]	@ D.6492, pxTCB_11->uxBasePriority
 1000 0082 3B69     		ldr	r3, [r7, #16]	@ tmp161, pxTCB
 1001 0084 DB6A     		ldr	r3, [r3, #44]	@ D.6492, pxTCB_11->uxPriority
 1002 0086 9A42     		cmp	r2, r3	@ D.6492, D.6492
 1003 0088 02D1     		bne	.L67	@,
1119:FreeRTOS/tasks.c **** 					{
1120:FreeRTOS/tasks.c **** 						pxTCB->uxPriority = uxNewPriority;
 1004              		.loc 1 1120 0
 1005 008a 3B69     		ldr	r3, [r7, #16]	@ tmp162, pxTCB
 1006 008c 3A68     		ldr	r2, [r7]	@ tmp163, uxNewPriority
 1007 008e DA62     		str	r2, [r3, #44]	@ tmp163, pxTCB_11->uxPriority
 1008              	.L67:
1121:FreeRTOS/tasks.c **** 					}
1122:FreeRTOS/tasks.c **** 					else
1123:FreeRTOS/tasks.c **** 					{
1124:FreeRTOS/tasks.c **** 						mtCOVERAGE_TEST_MARKER();
1125:FreeRTOS/tasks.c **** 					}
1126:FreeRTOS/tasks.c **** 
1127:FreeRTOS/tasks.c **** 					/* The base priority gets set whatever. */
1128:FreeRTOS/tasks.c **** 					pxTCB->uxBasePriority = uxNewPriority;
 1009              		.loc 1 1128 0
 1010 0090 3B69     		ldr	r3, [r7, #16]	@ tmp164, pxTCB
 1011 0092 3A68     		ldr	r2, [r7]	@ tmp165, uxNewPriority
 1012 0094 9A64     		str	r2, [r3, #72]	@ tmp165, pxTCB_11->uxBasePriority
1129:FreeRTOS/tasks.c **** 				}
1130:FreeRTOS/tasks.c **** 				#else
ARM GAS  C:\Users\COSMIN~1.MAR\AppData\Local\Temp\ccJcV6ch.s 			page 39


1131:FreeRTOS/tasks.c **** 				{
1132:FreeRTOS/tasks.c **** 					pxTCB->uxPriority = uxNewPriority;
1133:FreeRTOS/tasks.c **** 				}
1134:FreeRTOS/tasks.c **** 				#endif
1135:FreeRTOS/tasks.c **** 
1136:FreeRTOS/tasks.c **** 				/* Only reset the event list item value if the value is not
1137:FreeRTOS/tasks.c **** 				being used for anything else. */
1138:FreeRTOS/tasks.c **** 				if( ( listGET_LIST_ITEM_VALUE( &( pxTCB->xEventListItem ) ) & taskEVENT_LIST_ITEM_VALUE_IN_USE 
 1013              		.loc 1 1138 0
 1014 0096 3B69     		ldr	r3, [r7, #16]	@ tmp166, pxTCB
 1015 0098 9B69     		ldr	r3, [r3, #24]	@ D.6492, pxTCB_11->xEventListItem.xItemValue
 1016 009a 002B     		cmp	r3, #0	@ D.6493,
 1017 009c 04DB     		blt	.L68	@,
1139:FreeRTOS/tasks.c **** 				{
1140:FreeRTOS/tasks.c **** 					listSET_LIST_ITEM_VALUE( &( pxTCB->xEventListItem ), ( ( TickT_t ) configMAX_PRIORITIES - ( Ti
 1018              		.loc 1 1140 0
 1019 009e 3B68     		ldr	r3, [r7]	@ tmp167, uxNewPriority
 1020 00a0 C3F10802 		rsb	r2, r3, #8	@ D.6492, tmp167,
 1021 00a4 3B69     		ldr	r3, [r7, #16]	@ tmp168, pxTCB
 1022 00a6 9A61     		str	r2, [r3, #24]	@ D.6492, pxTCB_11->xEventListItem.xItemValue
 1023              	.L68:
1141:FreeRTOS/tasks.c **** 				}
1142:FreeRTOS/tasks.c **** 				else
1143:FreeRTOS/tasks.c **** 				{
1144:FreeRTOS/tasks.c **** 					mtCOVERAGE_TEST_MARKER();
1145:FreeRTOS/tasks.c **** 				}
1146:FreeRTOS/tasks.c **** 
1147:FreeRTOS/tasks.c **** 				/* If the task is in the blocked or suspended list we need do
1148:FreeRTOS/tasks.c **** 				nothing more than change it's priority variable. However, if
1149:FreeRTOS/tasks.c **** 				the task is in a ready list it needs to be removed and placed
1150:FreeRTOS/tasks.c **** 				in the list appropriate to its new priority. */
1151:FreeRTOS/tasks.c **** 				if( listIS_CONTAINED_WITHIN( &( pxReadyTasksLists[ uxPriorityUsedOnEntry ] ), &( pxTCB->xGeneri
 1024              		.loc 1 1151 0
 1025 00a8 3B69     		ldr	r3, [r7, #16]	@ tmp169, pxTCB
 1026 00aa 5969     		ldr	r1, [r3, #20]	@ D.6494, pxTCB_11->xGenericListItem.pvContainer
 1027 00ac BA68     		ldr	r2, [r7, #8]	@ tmp170, uxPriorityUsedOnEntry
 1028 00ae 1346     		mov	r3, r2	@ tmp171, tmp170
 1029 00b0 9B00     		lsls	r3, r3, #2	@ tmp171, tmp171,
 1030 00b2 1344     		add	r3, r3, r2	@ tmp171, tmp170
 1031 00b4 9B00     		lsls	r3, r3, #2	@ tmp172, tmp171,
 1032 00b6 204A     		ldr	r2, .L73+4	@ tmp173,
 1033 00b8 1344     		add	r3, r3, r2	@ D.6495, tmp173
 1034 00ba 9942     		cmp	r1, r3	@ D.6494, D.6495
 1035 00bc 01D1     		bne	.L69	@,
 1036              		.loc 1 1151 0 is_stmt 0 discriminator 1
 1037 00be 0123     		movs	r3, #1	@ D.6490,
 1038 00c0 00E0     		b	.L70	@
 1039              	.L69:
 1040              		.loc 1 1151 0 discriminator 2
 1041 00c2 0023     		movs	r3, #0	@ D.6490,
 1042              	.L70:
 1043              		.loc 1 1151 0 discriminator 4
 1044 00c4 002B     		cmp	r3, #0	@ D.6490,
 1045 00c6 2AD0     		beq	.L71	@,
1152:FreeRTOS/tasks.c **** 				{
1153:FreeRTOS/tasks.c **** 					/* The task is currently in its ready list - remove before adding
1154:FreeRTOS/tasks.c **** 					it to it's new ready list.  As we are in a critical section we
ARM GAS  C:\Users\COSMIN~1.MAR\AppData\Local\Temp\ccJcV6ch.s 			page 40


1155:FreeRTOS/tasks.c **** 					can do this even if the scheduler is suspended. */
1156:FreeRTOS/tasks.c **** 					if( uxListRemove( &( pxTCB->xGenericListItem ) ) == ( UBaseT_t ) 0 )
 1046              		.loc 1 1156 0 is_stmt 1
 1047 00c8 3B69     		ldr	r3, [r7, #16]	@ tmp174, pxTCB
 1048 00ca 0433     		adds	r3, r3, #4	@ D.6496, tmp174,
 1049 00cc 1846     		mov	r0, r3	@, D.6496
 1050 00ce FFF7FEFF 		bl	uxListRemove	@
 1051 00d2 0346     		mov	r3, r0	@ D.6492,
 1052 00d4 002B     		cmp	r3, #0	@ D.6492,
 1053 00d6 09D1     		bne	.L72	@,
1157:FreeRTOS/tasks.c **** 					{
1158:FreeRTOS/tasks.c **** 						/* It is known that the task is in its ready list so
1159:FreeRTOS/tasks.c **** 						there is no need to check again and the port level
1160:FreeRTOS/tasks.c **** 						reset macro can be called directly. */
1161:FreeRTOS/tasks.c **** 						portRESET_READY_PRIORITY( uxPriorityUsedOnEntry, uxTopReadyPriority );
 1054              		.loc 1 1161 0
 1055 00d8 BB68     		ldr	r3, [r7, #8]	@ D.6497, uxPriorityUsedOnEntry
 1056 00da 0122     		movs	r2, #1	@ tmp175,
 1057 00dc 02FA03F3 		lsl	r3, r2, r3	@ D.6492, tmp175, D.6497
 1058 00e0 DA43     		mvns	r2, r3	@ D.6492, D.6492
 1059 00e2 164B     		ldr	r3, .L73+8	@ tmp176,
 1060 00e4 1B68     		ldr	r3, [r3]	@ D.6492, uxTopReadyPriority
 1061 00e6 1340     		ands	r3, r3, r2	@, D.6492, D.6492, D.6492
 1062 00e8 144A     		ldr	r2, .L73+8	@ tmp177,
 1063 00ea 1360     		str	r3, [r2]	@ D.6492, uxTopReadyPriority
 1064              	.L72:
1162:FreeRTOS/tasks.c **** 					}
1163:FreeRTOS/tasks.c **** 					else
1164:FreeRTOS/tasks.c **** 					{
1165:FreeRTOS/tasks.c **** 						mtCOVERAGE_TEST_MARKER();
1166:FreeRTOS/tasks.c **** 					}
1167:FreeRTOS/tasks.c **** 					prvAddTaskToReadyList( pxTCB );
 1065              		.loc 1 1167 0
 1066 00ec 3B69     		ldr	r3, [r7, #16]	@ tmp178, pxTCB
 1067 00ee DB6A     		ldr	r3, [r3, #44]	@ D.6492, pxTCB_11->uxPriority
 1068 00f0 1A46     		mov	r2, r3	@ D.6497, D.6492
 1069 00f2 0123     		movs	r3, #1	@ tmp179,
 1070 00f4 03FA02F2 		lsl	r2, r3, r2	@ D.6492, tmp179, D.6497
 1071 00f8 104B     		ldr	r3, .L73+8	@ tmp180,
 1072 00fa 1B68     		ldr	r3, [r3]	@ D.6492, uxTopReadyPriority
 1073 00fc 1343     		orrs	r3, r3, r2	@, D.6492, D.6492, D.6492
 1074 00fe 0F4A     		ldr	r2, .L73+8	@ tmp181,
 1075 0100 1360     		str	r3, [r2]	@ D.6492, uxTopReadyPriority
 1076 0102 3B69     		ldr	r3, [r7, #16]	@ tmp182, pxTCB
 1077 0104 DA6A     		ldr	r2, [r3, #44]	@ D.6492, pxTCB_11->uxPriority
 1078 0106 1346     		mov	r3, r2	@ tmp183, D.6492
 1079 0108 9B00     		lsls	r3, r3, #2	@ tmp183, tmp183,
 1080 010a 1344     		add	r3, r3, r2	@ tmp183, D.6492
 1081 010c 9B00     		lsls	r3, r3, #2	@ tmp184, tmp183,
 1082 010e 0A4A     		ldr	r2, .L73+4	@ tmp185,
 1083 0110 1A44     		add	r2, r2, r3	@ D.6495, tmp183
 1084 0112 3B69     		ldr	r3, [r7, #16]	@ tmp186, pxTCB
 1085 0114 0433     		adds	r3, r3, #4	@ D.6496, tmp186,
 1086 0116 1046     		mov	r0, r2	@, D.6495
 1087 0118 1946     		mov	r1, r3	@, D.6496
 1088 011a FFF7FEFF 		bl	vListInsertEnd	@
 1089              	.L71:
ARM GAS  C:\Users\COSMIN~1.MAR\AppData\Local\Temp\ccJcV6ch.s 			page 41


1168:FreeRTOS/tasks.c **** 				}
1169:FreeRTOS/tasks.c **** 				else
1170:FreeRTOS/tasks.c **** 				{
1171:FreeRTOS/tasks.c **** 					mtCOVERAGE_TEST_MARKER();
1172:FreeRTOS/tasks.c **** 				}
1173:FreeRTOS/tasks.c **** 
1174:FreeRTOS/tasks.c **** 				if( xYieldRequired == pdTRUE )
 1090              		.loc 1 1174 0
 1091 011e 7B69     		ldr	r3, [r7, #20]	@ tmp187, xYieldRequired
 1092 0120 012B     		cmp	r3, #1	@ tmp187,
 1093 0122 01D1     		bne	.L64	@,
1175:FreeRTOS/tasks.c **** 				{
1176:FreeRTOS/tasks.c **** 					taskYIELD_IF_USING_PREEMPTION();
 1094              		.loc 1 1176 0
 1095 0124 FFF7FEFF 		bl	vPortYield	@
 1096              	.L64:
1177:FreeRTOS/tasks.c **** 				}
1178:FreeRTOS/tasks.c **** 				else
1179:FreeRTOS/tasks.c **** 				{
1180:FreeRTOS/tasks.c **** 					mtCOVERAGE_TEST_MARKER();
1181:FreeRTOS/tasks.c **** 				}
1182:FreeRTOS/tasks.c **** 
1183:FreeRTOS/tasks.c **** 				/* Remove compiler warning about unused variables when the port
1184:FreeRTOS/tasks.c **** 				optimised task selection is not being used. */
1185:FreeRTOS/tasks.c **** 				( void ) uxPriorityUsedOnEntry;
1186:FreeRTOS/tasks.c **** 			}
1187:FreeRTOS/tasks.c **** 		}
1188:FreeRTOS/tasks.c **** 		taskEXIT_CRITICAL();
 1097              		.loc 1 1188 0
 1098 0128 FFF7FEFF 		bl	vPortExitCritical	@
1189:FreeRTOS/tasks.c **** 	}
 1099              		.loc 1 1189 0
 1100 012c 1837     		adds	r7, r7, #24	@,,
 1101              		.cfi_def_cfa_offset 8
 1102 012e BD46     		mov	sp, r7	@,
 1103              		.cfi_def_cfa_register 13
 1104              		@ sp needed	@
 1105 0130 80BD     		pop	{r7, pc}	@
 1106              	.L74:
 1107 0132 00BF     		.align	2
 1108              	.L73:
 1109 0134 00000000 		.word	pxCurrentTCB
 1110 0138 00000000 		.word	pxReadyTasksLists
 1111 013c 00000000 		.word	uxTopReadyPriority
 1112              		.cfi_endproc
 1113              	.LFE6:
 1114              		.size	vTaskPrioritySet, .-vTaskPrioritySet
 1115              		.section	.text.vTaskSuspend,"ax",%progbits
 1116              		.align	2
 1117              		.global	vTaskSuspend
 1118              		.thumb
 1119              		.thumb_func
 1120              		.type	vTaskSuspend, %function
 1121              	vTaskSuspend:
 1122              	.LFB7:
1190:FreeRTOS/tasks.c **** 
1191:FreeRTOS/tasks.c **** #endif /* INCLUDE_vTaskPrioritySet */
ARM GAS  C:\Users\COSMIN~1.MAR\AppData\Local\Temp\ccJcV6ch.s 			page 42


1192:FreeRTOS/tasks.c **** /*-----------------------------------------------------------*/
1193:FreeRTOS/tasks.c **** 
1194:FreeRTOS/tasks.c **** #if ( INCLUDE_vTaskSuspend == 1 )
1195:FreeRTOS/tasks.c **** 
1196:FreeRTOS/tasks.c **** 	void vTaskSuspend( TaskHandle_t xTaskToSuspend )
1197:FreeRTOS/tasks.c **** 	{
 1123              		.loc 1 1197 0
 1124              		.cfi_startproc
 1125              		@ args = 0, pretend = 0, frame = 16
 1126              		@ frame_needed = 1, uses_anonymous_args = 0
 1127 0000 80B5     		push	{r7, lr}	@
 1128              		.cfi_def_cfa_offset 8
 1129              		.cfi_offset 7, -8
 1130              		.cfi_offset 14, -4
 1131 0002 84B0     		sub	sp, sp, #16	@,,
 1132              		.cfi_def_cfa_offset 24
 1133 0004 00AF     		add	r7, sp, #0	@,,
 1134              		.cfi_def_cfa_register 7
 1135 0006 7860     		str	r0, [r7, #4]	@ xTaskToSuspend, xTaskToSuspend
1198:FreeRTOS/tasks.c **** 	TCB_t *pxTCB;
1199:FreeRTOS/tasks.c **** 
1200:FreeRTOS/tasks.c **** 		taskENTER_CRITICAL();
 1136              		.loc 1 1200 0
 1137 0008 FFF7FEFF 		bl	vPortEnterCritical	@
1201:FreeRTOS/tasks.c **** 		{
1202:FreeRTOS/tasks.c **** 			/* If null is passed in here then it is the running task that is
1203:FreeRTOS/tasks.c **** 			being suspended. */
1204:FreeRTOS/tasks.c **** 			pxTCB = prvGetTCBFromHandle( xTaskToSuspend );
 1138              		.loc 1 1204 0
 1139 000c 7B68     		ldr	r3, [r7, #4]	@ tmp130, xTaskToSuspend
 1140 000e 002B     		cmp	r3, #0	@ tmp130,
 1141 0010 02D1     		bne	.L76	@,
 1142              		.loc 1 1204 0 is_stmt 0 discriminator 1
 1143 0012 304B     		ldr	r3, .L88	@ tmp131,
 1144 0014 1B68     		ldr	r3, [r3]	@ D.6498, pxCurrentTCB
 1145 0016 00E0     		b	.L77	@
 1146              	.L76:
 1147              		.loc 1 1204 0 discriminator 2
 1148 0018 7B68     		ldr	r3, [r7, #4]	@ D.6498, xTaskToSuspend
 1149              	.L77:
 1150              		.loc 1 1204 0 discriminator 4
 1151 001a FB60     		str	r3, [r7, #12]	@ D.6498, pxTCB
1205:FreeRTOS/tasks.c **** 
1206:FreeRTOS/tasks.c **** 			traceTASK_SUSPEND( pxTCB );
1207:FreeRTOS/tasks.c **** 
1208:FreeRTOS/tasks.c **** 			/* Remove task from the ready/delayed list and place in the
1209:FreeRTOS/tasks.c **** 			suspended list. */
1210:FreeRTOS/tasks.c **** 			if( uxListRemove( &( pxTCB->xGenericListItem ) ) == ( UBaseT_t ) 0 )
 1152              		.loc 1 1210 0 is_stmt 1 discriminator 4
 1153 001c FB68     		ldr	r3, [r7, #12]	@ tmp132, pxTCB
 1154 001e 0433     		adds	r3, r3, #4	@ D.6499, tmp132,
 1155 0020 1846     		mov	r0, r3	@, D.6499
 1156 0022 FFF7FEFF 		bl	uxListRemove	@
 1157 0026 0346     		mov	r3, r0	@ D.6500,
 1158 0028 002B     		cmp	r3, #0	@ D.6500,
 1159 002a 15D1     		bne	.L78	@,
1211:FreeRTOS/tasks.c **** 			{
ARM GAS  C:\Users\COSMIN~1.MAR\AppData\Local\Temp\ccJcV6ch.s 			page 43


1212:FreeRTOS/tasks.c **** 				taskRESET_READY_PRIORITY( pxTCB->uxPriority );
 1160              		.loc 1 1212 0
 1161 002c FB68     		ldr	r3, [r7, #12]	@ tmp133, pxTCB
 1162 002e DA6A     		ldr	r2, [r3, #44]	@ D.6500, pxTCB_5->uxPriority
 1163 0030 2949     		ldr	r1, .L88+4	@ tmp134,
 1164 0032 1346     		mov	r3, r2	@ tmp135, D.6500
 1165 0034 9B00     		lsls	r3, r3, #2	@ tmp135, tmp135,
 1166 0036 1344     		add	r3, r3, r2	@ tmp135, D.6500
 1167 0038 9B00     		lsls	r3, r3, #2	@ tmp136, tmp135,
 1168 003a 0B44     		add	r3, r3, r1	@ tmp137, tmp134
 1169 003c 1B68     		ldr	r3, [r3]	@ D.6500, pxReadyTasksLists[_8].uxNumberOfItems
 1170 003e 002B     		cmp	r3, #0	@ D.6500,
 1171 0040 0AD1     		bne	.L78	@,
 1172              		.loc 1 1212 0 is_stmt 0 discriminator 1
 1173 0042 FB68     		ldr	r3, [r7, #12]	@ tmp138, pxTCB
 1174 0044 DB6A     		ldr	r3, [r3, #44]	@ D.6500, pxTCB_5->uxPriority
 1175 0046 1A46     		mov	r2, r3	@ D.6501, D.6500
 1176 0048 0123     		movs	r3, #1	@ tmp139,
 1177 004a 9340     		lsls	r3, r3, r2	@ D.6500, tmp139, D.6501
 1178 004c DA43     		mvns	r2, r3	@ D.6500, D.6500
 1179 004e 234B     		ldr	r3, .L88+8	@ tmp140,
 1180 0050 1B68     		ldr	r3, [r3]	@ D.6500, uxTopReadyPriority
 1181 0052 1340     		ands	r3, r3, r2	@, D.6500, D.6500, D.6500
 1182 0054 214A     		ldr	r2, .L88+8	@ tmp141,
 1183 0056 1360     		str	r3, [r2]	@ D.6500, uxTopReadyPriority
 1184              	.L78:
1213:FreeRTOS/tasks.c **** 			}
1214:FreeRTOS/tasks.c **** 			else
1215:FreeRTOS/tasks.c **** 			{
1216:FreeRTOS/tasks.c **** 				mtCOVERAGE_TEST_MARKER();
1217:FreeRTOS/tasks.c **** 			}
1218:FreeRTOS/tasks.c **** 
1219:FreeRTOS/tasks.c **** 			/* Is the task waiting on an event also? */
1220:FreeRTOS/tasks.c **** 			if( listLIST_ITEM_CONTAINER( &( pxTCB->xEventListItem ) ) != NULL )
 1185              		.loc 1 1220 0 is_stmt 1
 1186 0058 FB68     		ldr	r3, [r7, #12]	@ tmp142, pxTCB
 1187 005a 9B6A     		ldr	r3, [r3, #40]	@ D.6502, pxTCB_5->xEventListItem.pvContainer
 1188 005c 002B     		cmp	r3, #0	@ D.6502,
 1189 005e 04D0     		beq	.L80	@,
1221:FreeRTOS/tasks.c **** 			{
1222:FreeRTOS/tasks.c **** 				( void ) uxListRemove( &( pxTCB->xEventListItem ) );
 1190              		.loc 1 1222 0
 1191 0060 FB68     		ldr	r3, [r7, #12]	@ tmp143, pxTCB
 1192 0062 1833     		adds	r3, r3, #24	@ D.6499, tmp143,
 1193 0064 1846     		mov	r0, r3	@, D.6499
 1194 0066 FFF7FEFF 		bl	uxListRemove	@
 1195              	.L80:
1223:FreeRTOS/tasks.c **** 			}
1224:FreeRTOS/tasks.c **** 			else
1225:FreeRTOS/tasks.c **** 			{
1226:FreeRTOS/tasks.c **** 				mtCOVERAGE_TEST_MARKER();
1227:FreeRTOS/tasks.c **** 			}
1228:FreeRTOS/tasks.c **** 
1229:FreeRTOS/tasks.c **** 			vListInsertEnd( &xSuspendedTaskList, &( pxTCB->xGenericListItem ) );
 1196              		.loc 1 1229 0
 1197 006a FB68     		ldr	r3, [r7, #12]	@ tmp144, pxTCB
 1198 006c 0433     		adds	r3, r3, #4	@ D.6499, tmp144,
ARM GAS  C:\Users\COSMIN~1.MAR\AppData\Local\Temp\ccJcV6ch.s 			page 44


 1199 006e 1C48     		ldr	r0, .L88+12	@,
 1200 0070 1946     		mov	r1, r3	@, D.6499
 1201 0072 FFF7FEFF 		bl	vListInsertEnd	@
1230:FreeRTOS/tasks.c **** 		}
1231:FreeRTOS/tasks.c **** 		taskEXIT_CRITICAL();
 1202              		.loc 1 1231 0
 1203 0076 FFF7FEFF 		bl	vPortExitCritical	@
1232:FreeRTOS/tasks.c **** 
1233:FreeRTOS/tasks.c **** 		if( pxTCB == pxCurrentTCB )
 1204              		.loc 1 1233 0
 1205 007a 164B     		ldr	r3, .L88	@ tmp145,
 1206 007c 1B68     		ldr	r3, [r3]	@ D.6503, pxCurrentTCB
 1207 007e FA68     		ldr	r2, [r7, #12]	@ tmp146, pxTCB
 1208 0080 9A42     		cmp	r2, r3	@ tmp146, D.6503
 1209 0082 1AD1     		bne	.L81	@,
1234:FreeRTOS/tasks.c **** 		{
1235:FreeRTOS/tasks.c **** 			if( xSchedulerRunning != pdFALSE )
 1210              		.loc 1 1235 0
 1211 0084 174B     		ldr	r3, .L88+16	@ tmp147,
 1212 0086 1B68     		ldr	r3, [r3]	@ D.6504, xSchedulerRunning
 1213 0088 002B     		cmp	r3, #0	@ D.6504,
 1214 008a 09D0     		beq	.L82	@,
1236:FreeRTOS/tasks.c **** 			{
1237:FreeRTOS/tasks.c **** 				/* The current task has just been suspended. */
1238:FreeRTOS/tasks.c **** 				configASSERT( uxSchedulerSuspended == 0 );
 1215              		.loc 1 1238 0
 1216 008c 164B     		ldr	r3, .L88+20	@ tmp148,
 1217 008e 1B68     		ldr	r3, [r3]	@ D.6500, uxSchedulerSuspended
 1218 0090 002B     		cmp	r3, #0	@ D.6500,
 1219 0092 02D0     		beq	.L83	@,
 1220              		.loc 1 1238 0 is_stmt 0 discriminator 1
 1221 0094 FFF7FEFF 		bl	ulPortSetInterruptMask	@
 1222              	.L84:
 1223 0098 FEE7     		b	.L84	@
 1224              	.L83:
1239:FreeRTOS/tasks.c **** 				portYIELD_WITHIN_API();
 1225              		.loc 1 1239 0 is_stmt 1
 1226 009a FFF7FEFF 		bl	vPortYield	@
 1227 009e 16E0     		b	.L75	@
 1228              	.L82:
1240:FreeRTOS/tasks.c **** 			}
1241:FreeRTOS/tasks.c **** 			else
1242:FreeRTOS/tasks.c **** 			{
1243:FreeRTOS/tasks.c **** 				/* The scheduler is not running, but the task that was pointed
1244:FreeRTOS/tasks.c **** 				to by pxCurrentTCB has just been suspended and pxCurrentTCB
1245:FreeRTOS/tasks.c **** 				must be adjusted to point to a different task. */
1246:FreeRTOS/tasks.c **** 				if( listCURRENT_LIST_LENGTH( &xSuspendedTaskList ) == uxCurrentNumberOfTasks )
 1229              		.loc 1 1246 0
 1230 00a0 0F4B     		ldr	r3, .L88+12	@ tmp149,
 1231 00a2 1A68     		ldr	r2, [r3]	@ D.6500, xSuspendedTaskList.uxNumberOfItems
 1232 00a4 114B     		ldr	r3, .L88+24	@ tmp150,
 1233 00a6 1B68     		ldr	r3, [r3]	@ D.6500, uxCurrentNumberOfTasks
 1234 00a8 9A42     		cmp	r2, r3	@ D.6500, D.6500
 1235 00aa 03D1     		bne	.L86	@,
1247:FreeRTOS/tasks.c **** 				{
1248:FreeRTOS/tasks.c **** 					/* No other tasks are ready, so set pxCurrentTCB back to
1249:FreeRTOS/tasks.c **** 					NULL so when the next task is created pxCurrentTCB will
ARM GAS  C:\Users\COSMIN~1.MAR\AppData\Local\Temp\ccJcV6ch.s 			page 45


1250:FreeRTOS/tasks.c **** 					be set to point to it no matter what its relative priority
1251:FreeRTOS/tasks.c **** 					is. */
1252:FreeRTOS/tasks.c **** 					pxCurrentTCB = NULL;
 1236              		.loc 1 1252 0
 1237 00ac 094B     		ldr	r3, .L88	@ tmp151,
 1238 00ae 0022     		movs	r2, #0	@ tmp152,
 1239 00b0 1A60     		str	r2, [r3]	@ tmp152, pxCurrentTCB
 1240 00b2 0CE0     		b	.L75	@
 1241              	.L86:
1253:FreeRTOS/tasks.c **** 				}
1254:FreeRTOS/tasks.c **** 				else
1255:FreeRTOS/tasks.c **** 				{
1256:FreeRTOS/tasks.c **** 					vTaskSwitchContext();
 1242              		.loc 1 1256 0
 1243 00b4 FFF7FEFF 		bl	vTaskSwitchContext	@
 1244 00b8 09E0     		b	.L75	@
 1245              	.L81:
1257:FreeRTOS/tasks.c **** 				}
1258:FreeRTOS/tasks.c **** 			}
1259:FreeRTOS/tasks.c **** 		}
1260:FreeRTOS/tasks.c **** 		else
1261:FreeRTOS/tasks.c **** 		{
1262:FreeRTOS/tasks.c **** 			if( xSchedulerRunning != pdFALSE )
 1246              		.loc 1 1262 0
 1247 00ba 0A4B     		ldr	r3, .L88+16	@ tmp153,
 1248 00bc 1B68     		ldr	r3, [r3]	@ D.6504, xSchedulerRunning
 1249 00be 002B     		cmp	r3, #0	@ D.6504,
 1250 00c0 05D0     		beq	.L75	@,
1263:FreeRTOS/tasks.c **** 			{
1264:FreeRTOS/tasks.c **** 				/* A task other than the currently running task was suspended,
1265:FreeRTOS/tasks.c **** 				reset the next expected unblock time in case it referred to the
1266:FreeRTOS/tasks.c **** 				task that is now in the Suspended state. */
1267:FreeRTOS/tasks.c **** 				taskENTER_CRITICAL();
 1251              		.loc 1 1267 0
 1252 00c2 FFF7FEFF 		bl	vPortEnterCritical	@
1268:FreeRTOS/tasks.c **** 				{
1269:FreeRTOS/tasks.c **** 					prvResetNextTaskUnblockTime();
 1253              		.loc 1 1269 0
 1254 00c6 FFF7FEFF 		bl	prvResetNextTaskUnblockTime	@
1270:FreeRTOS/tasks.c **** 				}
1271:FreeRTOS/tasks.c **** 				taskEXIT_CRITICAL();
 1255              		.loc 1 1271 0
 1256 00ca FFF7FEFF 		bl	vPortExitCritical	@
 1257              	.L75:
1272:FreeRTOS/tasks.c **** 			}
1273:FreeRTOS/tasks.c **** 			else
1274:FreeRTOS/tasks.c **** 			{
1275:FreeRTOS/tasks.c **** 				mtCOVERAGE_TEST_MARKER();
1276:FreeRTOS/tasks.c **** 			}
1277:FreeRTOS/tasks.c **** 		}
1278:FreeRTOS/tasks.c **** 	}
 1258              		.loc 1 1278 0
 1259 00ce 1037     		adds	r7, r7, #16	@,,
 1260              		.cfi_def_cfa_offset 8
 1261 00d0 BD46     		mov	sp, r7	@,
 1262              		.cfi_def_cfa_register 13
 1263              		@ sp needed	@
ARM GAS  C:\Users\COSMIN~1.MAR\AppData\Local\Temp\ccJcV6ch.s 			page 46


 1264 00d2 80BD     		pop	{r7, pc}	@
 1265              	.L89:
 1266              		.align	2
 1267              	.L88:
 1268 00d4 00000000 		.word	pxCurrentTCB
 1269 00d8 00000000 		.word	pxReadyTasksLists
 1270 00dc 00000000 		.word	uxTopReadyPriority
 1271 00e0 00000000 		.word	xSuspendedTaskList
 1272 00e4 00000000 		.word	xSchedulerRunning
 1273 00e8 00000000 		.word	uxSchedulerSuspended
 1274 00ec 00000000 		.word	uxCurrentNumberOfTasks
 1275              		.cfi_endproc
 1276              	.LFE7:
 1277              		.size	vTaskSuspend, .-vTaskSuspend
 1278              		.section	.text.prvTaskIsTaskSuspended,"ax",%progbits
 1279              		.align	2
 1280              		.thumb
 1281              		.thumb_func
 1282              		.type	prvTaskIsTaskSuspended, %function
 1283              	prvTaskIsTaskSuspended:
 1284              	.LFB8:
1279:FreeRTOS/tasks.c **** 
1280:FreeRTOS/tasks.c **** #endif /* INCLUDE_vTaskSuspend */
1281:FreeRTOS/tasks.c **** /*-----------------------------------------------------------*/
1282:FreeRTOS/tasks.c **** 
1283:FreeRTOS/tasks.c **** #if ( INCLUDE_vTaskSuspend == 1 )
1284:FreeRTOS/tasks.c **** 
1285:FreeRTOS/tasks.c **** 	static BaseT_t prvTaskIsTaskSuspended( const TaskHandle_t xTask )
1286:FreeRTOS/tasks.c **** 	{
 1285              		.loc 1 1286 0
 1286              		.cfi_startproc
 1287              		@ args = 0, pretend = 0, frame = 16
 1288              		@ frame_needed = 1, uses_anonymous_args = 0
 1289 0000 80B5     		push	{r7, lr}	@
 1290              		.cfi_def_cfa_offset 8
 1291              		.cfi_offset 7, -8
 1292              		.cfi_offset 14, -4
 1293 0002 84B0     		sub	sp, sp, #16	@,,
 1294              		.cfi_def_cfa_offset 24
 1295 0004 00AF     		add	r7, sp, #0	@,,
 1296              		.cfi_def_cfa_register 7
 1297 0006 7860     		str	r0, [r7, #4]	@ xTask, xTask
1287:FreeRTOS/tasks.c **** 	BaseT_t xReturn = pdFALSE;
 1298              		.loc 1 1287 0
 1299 0008 0023     		movs	r3, #0	@ tmp117,
 1300 000a FB60     		str	r3, [r7, #12]	@ tmp117, xReturn
1288:FreeRTOS/tasks.c **** 	const TCB_t * const pxTCB = ( TCB_t * ) xTask;
 1301              		.loc 1 1288 0
 1302 000c 7B68     		ldr	r3, [r7, #4]	@ tmp118, xTask
 1303 000e BB60     		str	r3, [r7, #8]	@ tmp118, pxTCB
1289:FreeRTOS/tasks.c **** 
1290:FreeRTOS/tasks.c **** 		/* Accesses xPendingReadyList so must be called from a critical
1291:FreeRTOS/tasks.c **** 		section. */
1292:FreeRTOS/tasks.c **** 
1293:FreeRTOS/tasks.c **** 		/* It does not make sense to check if the calling task is suspended. */
1294:FreeRTOS/tasks.c **** 		configASSERT( xTask );
 1304              		.loc 1 1294 0
ARM GAS  C:\Users\COSMIN~1.MAR\AppData\Local\Temp\ccJcV6ch.s 			page 47


 1305 0010 7B68     		ldr	r3, [r7, #4]	@ tmp119, xTask
 1306 0012 002B     		cmp	r3, #0	@ tmp119,
 1307 0014 02D1     		bne	.L91	@,
 1308              		.loc 1 1294 0 is_stmt 0 discriminator 1
 1309 0016 FFF7FEFF 		bl	ulPortSetInterruptMask	@
 1310              	.L92:
 1311 001a FEE7     		b	.L92	@
 1312              	.L91:
1295:FreeRTOS/tasks.c **** 
1296:FreeRTOS/tasks.c **** 		/* Is the task being resumed actually in the suspended list? */
1297:FreeRTOS/tasks.c **** 		if( listIS_CONTAINED_WITHIN( &xSuspendedTaskList, &( pxTCB->xGenericListItem ) ) != pdFALSE )
 1313              		.loc 1 1297 0 is_stmt 1
 1314 001c BB68     		ldr	r3, [r7, #8]	@ tmp120, pxTCB
 1315 001e 5B69     		ldr	r3, [r3, #20]	@ D.6506, pxTCB_6->xGenericListItem.pvContainer
 1316 0020 0E4A     		ldr	r2, .L99	@ tmp121,
 1317 0022 9342     		cmp	r3, r2	@ D.6506, tmp121
 1318 0024 01D1     		bne	.L93	@,
 1319              		.loc 1 1297 0 is_stmt 0 discriminator 1
 1320 0026 0123     		movs	r3, #1	@ D.6505,
 1321 0028 00E0     		b	.L94	@
 1322              	.L93:
 1323              		.loc 1 1297 0 discriminator 2
 1324 002a 0023     		movs	r3, #0	@ D.6505,
 1325              	.L94:
 1326              		.loc 1 1297 0 discriminator 4
 1327 002c 002B     		cmp	r3, #0	@ D.6505,
 1328 002e 0FD0     		beq	.L95	@,
1298:FreeRTOS/tasks.c **** 		{
1299:FreeRTOS/tasks.c **** 			/* Has the task already been resumed from within an ISR? */
1300:FreeRTOS/tasks.c **** 			if( listIS_CONTAINED_WITHIN( &xPendingReadyList, &( pxTCB->xEventListItem ) ) == pdFALSE )
 1329              		.loc 1 1300 0 is_stmt 1
 1330 0030 BB68     		ldr	r3, [r7, #8]	@ tmp122, pxTCB
 1331 0032 9B6A     		ldr	r3, [r3, #40]	@ D.6506, pxTCB_6->xEventListItem.pvContainer
 1332 0034 0A4A     		ldr	r2, .L99+4	@ tmp123,
 1333 0036 9342     		cmp	r3, r2	@ D.6506, tmp123
 1334 0038 0AD0     		beq	.L95	@,
1301:FreeRTOS/tasks.c **** 			{
1302:FreeRTOS/tasks.c **** 				/* Is it in the suspended list because it is in the	Suspended
1303:FreeRTOS/tasks.c **** 				state, or because is is blocked with no timeout? */
1304:FreeRTOS/tasks.c **** 				if( listIS_CONTAINED_WITHIN( NULL, &( pxTCB->xEventListItem ) ) != pdFALSE )
 1335              		.loc 1 1304 0
 1336 003a BB68     		ldr	r3, [r7, #8]	@ tmp124, pxTCB
 1337 003c 9B6A     		ldr	r3, [r3, #40]	@ D.6506, pxTCB_6->xEventListItem.pvContainer
 1338 003e 002B     		cmp	r3, #0	@ D.6506,
 1339 0040 01D1     		bne	.L96	@,
 1340              		.loc 1 1304 0 is_stmt 0 discriminator 1
 1341 0042 0123     		movs	r3, #1	@ D.6505,
 1342 0044 00E0     		b	.L97	@
 1343              	.L96:
 1344              		.loc 1 1304 0 discriminator 2
 1345 0046 0023     		movs	r3, #0	@ D.6505,
 1346              	.L97:
 1347              		.loc 1 1304 0 discriminator 4
 1348 0048 002B     		cmp	r3, #0	@ D.6505,
 1349 004a 01D0     		beq	.L95	@,
1305:FreeRTOS/tasks.c **** 				{
1306:FreeRTOS/tasks.c **** 					xReturn = pdTRUE;
ARM GAS  C:\Users\COSMIN~1.MAR\AppData\Local\Temp\ccJcV6ch.s 			page 48


 1350              		.loc 1 1306 0 is_stmt 1
 1351 004c 0123     		movs	r3, #1	@ tmp125,
 1352 004e FB60     		str	r3, [r7, #12]	@ tmp125, xReturn
 1353              	.L95:
1307:FreeRTOS/tasks.c **** 				}
1308:FreeRTOS/tasks.c **** 				else
1309:FreeRTOS/tasks.c **** 				{
1310:FreeRTOS/tasks.c **** 					mtCOVERAGE_TEST_MARKER();
1311:FreeRTOS/tasks.c **** 				}
1312:FreeRTOS/tasks.c **** 			}
1313:FreeRTOS/tasks.c **** 			else
1314:FreeRTOS/tasks.c **** 			{
1315:FreeRTOS/tasks.c **** 				mtCOVERAGE_TEST_MARKER();
1316:FreeRTOS/tasks.c **** 			}
1317:FreeRTOS/tasks.c **** 		}
1318:FreeRTOS/tasks.c **** 		else
1319:FreeRTOS/tasks.c **** 		{
1320:FreeRTOS/tasks.c **** 			mtCOVERAGE_TEST_MARKER();
1321:FreeRTOS/tasks.c **** 		}
1322:FreeRTOS/tasks.c **** 
1323:FreeRTOS/tasks.c **** 		return xReturn;
 1354              		.loc 1 1323 0
 1355 0050 FB68     		ldr	r3, [r7, #12]	@ D.6507, xReturn
1324:FreeRTOS/tasks.c **** 	} /*lint !e818 xTask cannot be a pointer to const because it is a typedef. */
 1356              		.loc 1 1324 0
 1357 0052 1846     		mov	r0, r3	@, <retval>
 1358 0054 1037     		adds	r7, r7, #16	@,,
 1359              		.cfi_def_cfa_offset 8
 1360 0056 BD46     		mov	sp, r7	@,
 1361              		.cfi_def_cfa_register 13
 1362              		@ sp needed	@
 1363 0058 80BD     		pop	{r7, pc}	@
 1364              	.L100:
 1365 005a 00BF     		.align	2
 1366              	.L99:
 1367 005c 00000000 		.word	xSuspendedTaskList
 1368 0060 00000000 		.word	xPendingReadyList
 1369              		.cfi_endproc
 1370              	.LFE8:
 1371              		.size	prvTaskIsTaskSuspended, .-prvTaskIsTaskSuspended
 1372              		.section	.text.vTaskResume,"ax",%progbits
 1373              		.align	2
 1374              		.global	vTaskResume
 1375              		.thumb
 1376              		.thumb_func
 1377              		.type	vTaskResume, %function
 1378              	vTaskResume:
 1379              	.LFB9:
1325:FreeRTOS/tasks.c **** 
1326:FreeRTOS/tasks.c **** #endif /* INCLUDE_vTaskSuspend */
1327:FreeRTOS/tasks.c **** /*-----------------------------------------------------------*/
1328:FreeRTOS/tasks.c **** 
1329:FreeRTOS/tasks.c **** #if ( INCLUDE_vTaskSuspend == 1 )
1330:FreeRTOS/tasks.c **** 
1331:FreeRTOS/tasks.c **** 	void vTaskResume( TaskHandle_t xTaskToResume )
1332:FreeRTOS/tasks.c **** 	{
 1380              		.loc 1 1332 0
ARM GAS  C:\Users\COSMIN~1.MAR\AppData\Local\Temp\ccJcV6ch.s 			page 49


 1381              		.cfi_startproc
 1382              		@ args = 0, pretend = 0, frame = 16
 1383              		@ frame_needed = 1, uses_anonymous_args = 0
 1384 0000 80B5     		push	{r7, lr}	@
 1385              		.cfi_def_cfa_offset 8
 1386              		.cfi_offset 7, -8
 1387              		.cfi_offset 14, -4
 1388 0002 84B0     		sub	sp, sp, #16	@,,
 1389              		.cfi_def_cfa_offset 24
 1390 0004 00AF     		add	r7, sp, #0	@,,
 1391              		.cfi_def_cfa_register 7
 1392 0006 7860     		str	r0, [r7, #4]	@ xTaskToResume, xTaskToResume
1333:FreeRTOS/tasks.c **** 	TCB_t * const pxTCB = ( TCB_t * ) xTaskToResume;
 1393              		.loc 1 1333 0
 1394 0008 7B68     		ldr	r3, [r7, #4]	@ tmp124, xTaskToResume
 1395 000a FB60     		str	r3, [r7, #12]	@ tmp124, pxTCB
1334:FreeRTOS/tasks.c **** 
1335:FreeRTOS/tasks.c **** 		/* It does not make sense to resume the calling task. */
1336:FreeRTOS/tasks.c **** 		configASSERT( xTaskToResume );
 1396              		.loc 1 1336 0
 1397 000c 7B68     		ldr	r3, [r7, #4]	@ tmp125, xTaskToResume
 1398 000e 002B     		cmp	r3, #0	@ tmp125,
 1399 0010 02D1     		bne	.L102	@,
 1400              		.loc 1 1336 0 is_stmt 0 discriminator 1
 1401 0012 FFF7FEFF 		bl	ulPortSetInterruptMask	@
 1402              	.L103:
 1403 0016 FEE7     		b	.L103	@
 1404              	.L102:
1337:FreeRTOS/tasks.c **** 
1338:FreeRTOS/tasks.c **** 		/* The parameter cannot be NULL as it is impossible to resume the
1339:FreeRTOS/tasks.c **** 		currently executing task. */
1340:FreeRTOS/tasks.c **** 		if( ( pxTCB != NULL ) && ( pxTCB != pxCurrentTCB ) )
 1405              		.loc 1 1340 0 is_stmt 1
 1406 0018 FB68     		ldr	r3, [r7, #12]	@ tmp126, pxTCB
 1407 001a 002B     		cmp	r3, #0	@ tmp126,
 1408 001c 35D0     		beq	.L101	@,
 1409              		.loc 1 1340 0 is_stmt 0 discriminator 1
 1410 001e 1C4B     		ldr	r3, .L106	@ tmp127,
 1411 0020 1B68     		ldr	r3, [r3]	@ D.6508, pxCurrentTCB
 1412 0022 FA68     		ldr	r2, [r7, #12]	@ tmp128, pxTCB
 1413 0024 9A42     		cmp	r2, r3	@ tmp128, D.6508
 1414 0026 30D0     		beq	.L101	@,
1341:FreeRTOS/tasks.c **** 		{
1342:FreeRTOS/tasks.c **** 			taskENTER_CRITICAL();
 1415              		.loc 1 1342 0 is_stmt 1
 1416 0028 FFF7FEFF 		bl	vPortEnterCritical	@
1343:FreeRTOS/tasks.c **** 			{
1344:FreeRTOS/tasks.c **** 				if( prvTaskIsTaskSuspended( pxTCB ) == pdTRUE )
 1417              		.loc 1 1344 0
 1418 002c F868     		ldr	r0, [r7, #12]	@, pxTCB
 1419 002e FFF7FEFF 		bl	prvTaskIsTaskSuspended	@
 1420 0032 0346     		mov	r3, r0	@ D.6509,
 1421 0034 012B     		cmp	r3, #1	@ D.6509,
 1422 0036 26D1     		bne	.L105	@,
1345:FreeRTOS/tasks.c **** 				{
1346:FreeRTOS/tasks.c **** 					traceTASK_RESUME( pxTCB );
1347:FreeRTOS/tasks.c **** 
ARM GAS  C:\Users\COSMIN~1.MAR\AppData\Local\Temp\ccJcV6ch.s 			page 50


1348:FreeRTOS/tasks.c **** 					/* As we are in a critical section we can access the ready
1349:FreeRTOS/tasks.c **** 					lists even if the scheduler is suspended. */
1350:FreeRTOS/tasks.c **** 					( void ) uxListRemove(  &( pxTCB->xGenericListItem ) );
 1423              		.loc 1 1350 0
 1424 0038 FB68     		ldr	r3, [r7, #12]	@ tmp129, pxTCB
 1425 003a 0433     		adds	r3, r3, #4	@ D.6510, tmp129,
 1426 003c 1846     		mov	r0, r3	@, D.6510
 1427 003e FFF7FEFF 		bl	uxListRemove	@
1351:FreeRTOS/tasks.c **** 					prvAddTaskToReadyList( pxTCB );
 1428              		.loc 1 1351 0
 1429 0042 FB68     		ldr	r3, [r7, #12]	@ tmp130, pxTCB
 1430 0044 DB6A     		ldr	r3, [r3, #44]	@ D.6511, pxTCB_2->uxPriority
 1431 0046 1A46     		mov	r2, r3	@ D.6512, D.6511
 1432 0048 0123     		movs	r3, #1	@ tmp131,
 1433 004a 03FA02F2 		lsl	r2, r3, r2	@ D.6511, tmp131, D.6512
 1434 004e 114B     		ldr	r3, .L106+4	@ tmp132,
 1435 0050 1B68     		ldr	r3, [r3]	@ D.6511, uxTopReadyPriority
 1436 0052 1343     		orrs	r3, r3, r2	@, D.6511, D.6511, D.6511
 1437 0054 0F4A     		ldr	r2, .L106+4	@ tmp133,
 1438 0056 1360     		str	r3, [r2]	@ D.6511, uxTopReadyPriority
 1439 0058 FB68     		ldr	r3, [r7, #12]	@ tmp134, pxTCB
 1440 005a DA6A     		ldr	r2, [r3, #44]	@ D.6511, pxTCB_2->uxPriority
 1441 005c 1346     		mov	r3, r2	@ tmp135, D.6511
 1442 005e 9B00     		lsls	r3, r3, #2	@ tmp135, tmp135,
 1443 0060 1344     		add	r3, r3, r2	@ tmp135, D.6511
 1444 0062 9B00     		lsls	r3, r3, #2	@ tmp136, tmp135,
 1445 0064 0C4A     		ldr	r2, .L106+8	@ tmp137,
 1446 0066 1A44     		add	r2, r2, r3	@ D.6513, tmp135
 1447 0068 FB68     		ldr	r3, [r7, #12]	@ tmp138, pxTCB
 1448 006a 0433     		adds	r3, r3, #4	@ D.6510, tmp138,
 1449 006c 1046     		mov	r0, r2	@, D.6513
 1450 006e 1946     		mov	r1, r3	@, D.6510
 1451 0070 FFF7FEFF 		bl	vListInsertEnd	@
1352:FreeRTOS/tasks.c **** 
1353:FreeRTOS/tasks.c **** 					/* We may have just resumed a higher priority task. */
1354:FreeRTOS/tasks.c **** 					if( pxTCB->uxPriority >= pxCurrentTCB->uxPriority )
 1452              		.loc 1 1354 0
 1453 0074 FB68     		ldr	r3, [r7, #12]	@ tmp139, pxTCB
 1454 0076 DA6A     		ldr	r2, [r3, #44]	@ D.6511, pxTCB_2->uxPriority
 1455 0078 054B     		ldr	r3, .L106	@ tmp140,
 1456 007a 1B68     		ldr	r3, [r3]	@ D.6508, pxCurrentTCB
 1457 007c DB6A     		ldr	r3, [r3, #44]	@ D.6511, _15->uxPriority
 1458 007e 9A42     		cmp	r2, r3	@ D.6511, D.6511
 1459 0080 01D3     		bcc	.L105	@,
1355:FreeRTOS/tasks.c **** 					{
1356:FreeRTOS/tasks.c **** 						/* This yield may not cause the task just resumed to run,
1357:FreeRTOS/tasks.c **** 						but will leave the lists in the correct state for the
1358:FreeRTOS/tasks.c **** 						next yield. */
1359:FreeRTOS/tasks.c **** 						taskYIELD_IF_USING_PREEMPTION();
 1460              		.loc 1 1359 0
 1461 0082 FFF7FEFF 		bl	vPortYield	@
 1462              	.L105:
1360:FreeRTOS/tasks.c **** 					}
1361:FreeRTOS/tasks.c **** 					else
1362:FreeRTOS/tasks.c **** 					{
1363:FreeRTOS/tasks.c **** 						mtCOVERAGE_TEST_MARKER();
1364:FreeRTOS/tasks.c **** 					}
ARM GAS  C:\Users\COSMIN~1.MAR\AppData\Local\Temp\ccJcV6ch.s 			page 51


1365:FreeRTOS/tasks.c **** 				}
1366:FreeRTOS/tasks.c **** 				else
1367:FreeRTOS/tasks.c **** 				{
1368:FreeRTOS/tasks.c **** 					mtCOVERAGE_TEST_MARKER();
1369:FreeRTOS/tasks.c **** 				}
1370:FreeRTOS/tasks.c **** 			}
1371:FreeRTOS/tasks.c **** 			taskEXIT_CRITICAL();
 1463              		.loc 1 1371 0
 1464 0086 FFF7FEFF 		bl	vPortExitCritical	@
 1465              	.L101:
1372:FreeRTOS/tasks.c **** 		}
1373:FreeRTOS/tasks.c **** 		else
1374:FreeRTOS/tasks.c **** 		{
1375:FreeRTOS/tasks.c **** 			mtCOVERAGE_TEST_MARKER();
1376:FreeRTOS/tasks.c **** 		}
1377:FreeRTOS/tasks.c **** 	}
 1466              		.loc 1 1377 0
 1467 008a 1037     		adds	r7, r7, #16	@,,
 1468              		.cfi_def_cfa_offset 8
 1469 008c BD46     		mov	sp, r7	@,
 1470              		.cfi_def_cfa_register 13
 1471              		@ sp needed	@
 1472 008e 80BD     		pop	{r7, pc}	@
 1473              	.L107:
 1474              		.align	2
 1475              	.L106:
 1476 0090 00000000 		.word	pxCurrentTCB
 1477 0094 00000000 		.word	uxTopReadyPriority
 1478 0098 00000000 		.word	pxReadyTasksLists
 1479              		.cfi_endproc
 1480              	.LFE9:
 1481              		.size	vTaskResume, .-vTaskResume
 1482              		.section	.text.xTaskResumeFromISR,"ax",%progbits
 1483              		.align	2
 1484              		.global	xTaskResumeFromISR
 1485              		.thumb
 1486              		.thumb_func
 1487              		.type	xTaskResumeFromISR, %function
 1488              	xTaskResumeFromISR:
 1489              	.LFB10:
1378:FreeRTOS/tasks.c **** 
1379:FreeRTOS/tasks.c **** #endif /* INCLUDE_vTaskSuspend */
1380:FreeRTOS/tasks.c **** 
1381:FreeRTOS/tasks.c **** /*-----------------------------------------------------------*/
1382:FreeRTOS/tasks.c **** 
1383:FreeRTOS/tasks.c **** #if ( ( INCLUDE_xTaskResumeFromISR == 1 ) && ( INCLUDE_vTaskSuspend == 1 ) )
1384:FreeRTOS/tasks.c **** 
1385:FreeRTOS/tasks.c **** 	BaseT_t xTaskResumeFromISR( TaskHandle_t xTaskToResume )
1386:FreeRTOS/tasks.c **** 	{
 1490              		.loc 1 1386 0
 1491              		.cfi_startproc
 1492              		@ args = 0, pretend = 0, frame = 24
 1493              		@ frame_needed = 1, uses_anonymous_args = 0
 1494 0000 80B5     		push	{r7, lr}	@
 1495              		.cfi_def_cfa_offset 8
 1496              		.cfi_offset 7, -8
 1497              		.cfi_offset 14, -4
ARM GAS  C:\Users\COSMIN~1.MAR\AppData\Local\Temp\ccJcV6ch.s 			page 52


 1498 0002 86B0     		sub	sp, sp, #24	@,,
 1499              		.cfi_def_cfa_offset 32
 1500 0004 00AF     		add	r7, sp, #0	@,,
 1501              		.cfi_def_cfa_register 7
 1502 0006 7860     		str	r0, [r7, #4]	@ xTaskToResume, xTaskToResume
1387:FreeRTOS/tasks.c **** 	BaseT_t xYieldRequired = pdFALSE;
 1503              		.loc 1 1387 0
 1504 0008 0023     		movs	r3, #0	@ tmp127,
 1505 000a 7B61     		str	r3, [r7, #20]	@ tmp127, xYieldRequired
1388:FreeRTOS/tasks.c **** 	TCB_t * const pxTCB = ( TCB_t * ) xTaskToResume;
 1506              		.loc 1 1388 0
 1507 000c 7B68     		ldr	r3, [r7, #4]	@ tmp128, xTaskToResume
 1508 000e 3B61     		str	r3, [r7, #16]	@ tmp128, pxTCB
1389:FreeRTOS/tasks.c **** 	UBaseT_t uxSavedInterruptStatus;
1390:FreeRTOS/tasks.c **** 
1391:FreeRTOS/tasks.c **** 		configASSERT( xTaskToResume );
 1509              		.loc 1 1391 0
 1510 0010 7B68     		ldr	r3, [r7, #4]	@ tmp129, xTaskToResume
 1511 0012 002B     		cmp	r3, #0	@ tmp129,
 1512 0014 02D1     		bne	.L109	@,
 1513              		.loc 1 1391 0 is_stmt 0 discriminator 1
 1514 0016 FFF7FEFF 		bl	ulPortSetInterruptMask	@
 1515              	.L110:
 1516 001a FEE7     		b	.L110	@
 1517              	.L109:
1392:FreeRTOS/tasks.c **** 
1393:FreeRTOS/tasks.c **** 		/* RTOS ports that support interrupt nesting have the concept of a
1394:FreeRTOS/tasks.c **** 		maximum	system call (or maximum API call) interrupt priority.
1395:FreeRTOS/tasks.c **** 		Interrupts that are	above the maximum system call priority are keep
1396:FreeRTOS/tasks.c **** 		permanently enabled, even when the RTOS kernel is in a critical section,
1397:FreeRTOS/tasks.c **** 		but cannot make any calls to FreeRTOS API functions.  If configASSERT()
1398:FreeRTOS/tasks.c **** 		is defined in FreeRTOSConfig.h then
1399:FreeRTOS/tasks.c **** 		portASSERT_IF_INTERRUPT_PRIORITY_INVALID() will result in an assertion
1400:FreeRTOS/tasks.c **** 		failure if a FreeRTOS API function is called from an interrupt that has
1401:FreeRTOS/tasks.c **** 		been assigned a priority above the configured maximum system call
1402:FreeRTOS/tasks.c **** 		priority.  Only FreeRTOS functions that end in FromISR can be called
1403:FreeRTOS/tasks.c **** 		from interrupts	that have been assigned a priority at or (logically)
1404:FreeRTOS/tasks.c **** 		below the maximum system call interrupt priority.  FreeRTOS maintains a
1405:FreeRTOS/tasks.c **** 		separate interrupt safe API to ensure interrupt entry is as fast and as
1406:FreeRTOS/tasks.c **** 		simple as possible.  More information (albeit Cortex-M specific) is
1407:FreeRTOS/tasks.c **** 		provided on the following link:
1408:FreeRTOS/tasks.c **** 		http://www.freertos.org/RTOS-Cortex-M3-M4.html */
1409:FreeRTOS/tasks.c **** 		portASSERT_IF_INTERRUPT_PRIORITY_INVALID();
 1518              		.loc 1 1409 0 is_stmt 1
 1519 001c FFF7FEFF 		bl	vPortValidateInterruptPriority	@
1410:FreeRTOS/tasks.c **** 
1411:FreeRTOS/tasks.c **** 		uxSavedInterruptStatus = portSET_INTERRUPT_MASK_FROM_ISR();
 1520              		.loc 1 1411 0
 1521 0020 FFF7FEFF 		bl	ulPortSetInterruptMask	@
 1522 0024 F860     		str	r0, [r7, #12]	@, uxSavedInterruptStatus
1412:FreeRTOS/tasks.c **** 		{
1413:FreeRTOS/tasks.c **** 			if( prvTaskIsTaskSuspended( pxTCB ) == pdTRUE )
 1523              		.loc 1 1413 0
 1524 0026 3869     		ldr	r0, [r7, #16]	@, pxTCB
 1525 0028 FFF7FEFF 		bl	prvTaskIsTaskSuspended	@
 1526 002c 0346     		mov	r3, r0	@ D.6514,
 1527 002e 012B     		cmp	r3, #1	@ D.6514,
ARM GAS  C:\Users\COSMIN~1.MAR\AppData\Local\Temp\ccJcV6ch.s 			page 53


 1528 0030 31D1     		bne	.L111	@,
1414:FreeRTOS/tasks.c **** 			{
1415:FreeRTOS/tasks.c **** 				traceTASK_RESUME_FROM_ISR( pxTCB );
1416:FreeRTOS/tasks.c **** 
1417:FreeRTOS/tasks.c **** 				/* Check the ready lists can be accessed. */
1418:FreeRTOS/tasks.c **** 				if( uxSchedulerSuspended == ( UBaseT_t ) pdFALSE )
 1529              		.loc 1 1418 0
 1530 0032 1D4B     		ldr	r3, .L116	@ tmp130,
 1531 0034 1B68     		ldr	r3, [r3]	@ D.6515, uxSchedulerSuspended
 1532 0036 002B     		cmp	r3, #0	@ D.6515,
 1533 0038 27D1     		bne	.L112	@,
1419:FreeRTOS/tasks.c **** 				{
1420:FreeRTOS/tasks.c **** 					/* Ready lists can be accessed so move the task from the
1421:FreeRTOS/tasks.c **** 					suspended list to the ready list directly. */
1422:FreeRTOS/tasks.c **** 					if( pxTCB->uxPriority >= pxCurrentTCB->uxPriority )
 1534              		.loc 1 1422 0
 1535 003a 3B69     		ldr	r3, [r7, #16]	@ tmp131, pxTCB
 1536 003c DA6A     		ldr	r2, [r3, #44]	@ D.6515, pxTCB_6->uxPriority
 1537 003e 1B4B     		ldr	r3, .L116+4	@ tmp132,
 1538 0040 1B68     		ldr	r3, [r3]	@ D.6516, pxCurrentTCB
 1539 0042 DB6A     		ldr	r3, [r3, #44]	@ D.6515, _11->uxPriority
 1540 0044 9A42     		cmp	r2, r3	@ D.6515, D.6515
 1541 0046 01D3     		bcc	.L113	@,
1423:FreeRTOS/tasks.c **** 					{
1424:FreeRTOS/tasks.c **** 						xYieldRequired = pdTRUE;
 1542              		.loc 1 1424 0
 1543 0048 0123     		movs	r3, #1	@ tmp133,
 1544 004a 7B61     		str	r3, [r7, #20]	@ tmp133, xYieldRequired
 1545              	.L113:
1425:FreeRTOS/tasks.c **** 					}
1426:FreeRTOS/tasks.c **** 					else
1427:FreeRTOS/tasks.c **** 					{
1428:FreeRTOS/tasks.c **** 						mtCOVERAGE_TEST_MARKER();
1429:FreeRTOS/tasks.c **** 					}
1430:FreeRTOS/tasks.c **** 
1431:FreeRTOS/tasks.c **** 					( void ) uxListRemove(  &( pxTCB->xGenericListItem ) );
 1546              		.loc 1 1431 0
 1547 004c 3B69     		ldr	r3, [r7, #16]	@ tmp134, pxTCB
 1548 004e 0433     		adds	r3, r3, #4	@ D.6517, tmp134,
 1549 0050 1846     		mov	r0, r3	@, D.6517
 1550 0052 FFF7FEFF 		bl	uxListRemove	@
1432:FreeRTOS/tasks.c **** 					prvAddTaskToReadyList( pxTCB );
 1551              		.loc 1 1432 0
 1552 0056 3B69     		ldr	r3, [r7, #16]	@ tmp135, pxTCB
 1553 0058 DB6A     		ldr	r3, [r3, #44]	@ D.6515, pxTCB_6->uxPriority
 1554 005a 1A46     		mov	r2, r3	@ D.6518, D.6515
 1555 005c 0123     		movs	r3, #1	@ tmp136,
 1556 005e 03FA02F2 		lsl	r2, r3, r2	@ D.6515, tmp136, D.6518
 1557 0062 134B     		ldr	r3, .L116+8	@ tmp137,
 1558 0064 1B68     		ldr	r3, [r3]	@ D.6515, uxTopReadyPriority
 1559 0066 1343     		orrs	r3, r3, r2	@, D.6515, D.6515, D.6515
 1560 0068 114A     		ldr	r2, .L116+8	@ tmp138,
 1561 006a 1360     		str	r3, [r2]	@ D.6515, uxTopReadyPriority
 1562 006c 3B69     		ldr	r3, [r7, #16]	@ tmp139, pxTCB
 1563 006e DA6A     		ldr	r2, [r3, #44]	@ D.6515, pxTCB_6->uxPriority
 1564 0070 1346     		mov	r3, r2	@ tmp140, D.6515
 1565 0072 9B00     		lsls	r3, r3, #2	@ tmp140, tmp140,
ARM GAS  C:\Users\COSMIN~1.MAR\AppData\Local\Temp\ccJcV6ch.s 			page 54


 1566 0074 1344     		add	r3, r3, r2	@ tmp140, D.6515
 1567 0076 9B00     		lsls	r3, r3, #2	@ tmp141, tmp140,
 1568 0078 0E4A     		ldr	r2, .L116+12	@ tmp142,
 1569 007a 1A44     		add	r2, r2, r3	@ D.6519, tmp140
 1570 007c 3B69     		ldr	r3, [r7, #16]	@ tmp143, pxTCB
 1571 007e 0433     		adds	r3, r3, #4	@ D.6517, tmp143,
 1572 0080 1046     		mov	r0, r2	@, D.6519
 1573 0082 1946     		mov	r1, r3	@, D.6517
 1574 0084 FFF7FEFF 		bl	vListInsertEnd	@
 1575 0088 05E0     		b	.L111	@
 1576              	.L112:
1433:FreeRTOS/tasks.c **** 				}
1434:FreeRTOS/tasks.c **** 				else
1435:FreeRTOS/tasks.c **** 				{
1436:FreeRTOS/tasks.c **** 					/* The delayed or ready lists cannot be accessed so the task
1437:FreeRTOS/tasks.c **** 					is held in the pending ready list until the scheduler is
1438:FreeRTOS/tasks.c **** 					unsuspended. */
1439:FreeRTOS/tasks.c **** 					vListInsertEnd( &( xPendingReadyList ), &( pxTCB->xEventListItem ) );
 1577              		.loc 1 1439 0
 1578 008a 3B69     		ldr	r3, [r7, #16]	@ tmp144, pxTCB
 1579 008c 1833     		adds	r3, r3, #24	@ D.6517, tmp144,
 1580 008e 0A48     		ldr	r0, .L116+16	@,
 1581 0090 1946     		mov	r1, r3	@, D.6517
 1582 0092 FFF7FEFF 		bl	vListInsertEnd	@
 1583              	.L111:
1440:FreeRTOS/tasks.c **** 				}
1441:FreeRTOS/tasks.c **** 			}
1442:FreeRTOS/tasks.c **** 			else
1443:FreeRTOS/tasks.c **** 			{
1444:FreeRTOS/tasks.c **** 				mtCOVERAGE_TEST_MARKER();
1445:FreeRTOS/tasks.c **** 			}
1446:FreeRTOS/tasks.c **** 		}
1447:FreeRTOS/tasks.c **** 		portCLEAR_INTERRUPT_MASK_FROM_ISR( uxSavedInterruptStatus );
 1584              		.loc 1 1447 0
 1585 0096 F868     		ldr	r0, [r7, #12]	@, uxSavedInterruptStatus
 1586 0098 FFF7FEFF 		bl	vPortClearInterruptMask	@
1448:FreeRTOS/tasks.c **** 
1449:FreeRTOS/tasks.c **** 		return xYieldRequired;
 1587              		.loc 1 1449 0
 1588 009c 7B69     		ldr	r3, [r7, #20]	@ D.6520, xYieldRequired
1450:FreeRTOS/tasks.c **** 	}
 1589              		.loc 1 1450 0
 1590 009e 1846     		mov	r0, r3	@, <retval>
 1591 00a0 1837     		adds	r7, r7, #24	@,,
 1592              		.cfi_def_cfa_offset 8
 1593 00a2 BD46     		mov	sp, r7	@,
 1594              		.cfi_def_cfa_register 13
 1595              		@ sp needed	@
 1596 00a4 80BD     		pop	{r7, pc}	@
 1597              	.L117:
 1598 00a6 00BF     		.align	2
 1599              	.L116:
 1600 00a8 00000000 		.word	uxSchedulerSuspended
 1601 00ac 00000000 		.word	pxCurrentTCB
 1602 00b0 00000000 		.word	uxTopReadyPriority
 1603 00b4 00000000 		.word	pxReadyTasksLists
 1604 00b8 00000000 		.word	xPendingReadyList
ARM GAS  C:\Users\COSMIN~1.MAR\AppData\Local\Temp\ccJcV6ch.s 			page 55


 1605              		.cfi_endproc
 1606              	.LFE10:
 1607              		.size	xTaskResumeFromISR, .-xTaskResumeFromISR
 1608              		.section	.rodata
 1609              		.align	2
 1610              	.LC0:
 1611 0000 49444C45 		.ascii	"IDLE\000"
 1611      00
 1612 0005 000000   		.section	.text.vTaskStartScheduler,"ax",%progbits
 1613              		.align	2
 1614              		.global	vTaskStartScheduler
 1615              		.thumb
 1616              		.thumb_func
 1617              		.type	vTaskStartScheduler, %function
 1618              	vTaskStartScheduler:
 1619              	.LFB11:
1451:FreeRTOS/tasks.c **** 
1452:FreeRTOS/tasks.c **** #endif /* ( ( INCLUDE_xTaskResumeFromISR == 1 ) && ( INCLUDE_vTaskSuspend == 1 ) ) */
1453:FreeRTOS/tasks.c **** /*-----------------------------------------------------------*/
1454:FreeRTOS/tasks.c **** 
1455:FreeRTOS/tasks.c **** void vTaskStartScheduler( void )
1456:FreeRTOS/tasks.c **** {
 1620              		.loc 1 1456 0
 1621              		.cfi_startproc
 1622              		@ args = 0, pretend = 0, frame = 8
 1623              		@ frame_needed = 1, uses_anonymous_args = 0
 1624 0000 80B5     		push	{r7, lr}	@
 1625              		.cfi_def_cfa_offset 8
 1626              		.cfi_offset 7, -8
 1627              		.cfi_offset 14, -4
 1628 0002 86B0     		sub	sp, sp, #24	@,,
 1629              		.cfi_def_cfa_offset 32
 1630 0004 04AF     		add	r7, sp, #16	@,,
 1631              		.cfi_def_cfa 7, 16
1457:FreeRTOS/tasks.c **** BaseT_t xReturn;
1458:FreeRTOS/tasks.c **** 
1459:FreeRTOS/tasks.c **** 	/* Add the idle task at the lowest priority. */
1460:FreeRTOS/tasks.c **** 	#if ( INCLUDE_xTaskGetIdleTaskHandle == 1 )
1461:FreeRTOS/tasks.c **** 	{
1462:FreeRTOS/tasks.c **** 		/* Create the idle task, storing its handle in xIdleTaskHandle so it can
1463:FreeRTOS/tasks.c **** 		be returned by the xTaskGetIdleTaskHandle() function. */
1464:FreeRTOS/tasks.c **** 		xReturn = xTaskCreate( prvIdleTask, "IDLE", tskIDLE_STACK_SIZE, ( void * ) NULL, ( tskIDLE_PRIORI
1465:FreeRTOS/tasks.c **** 	}
1466:FreeRTOS/tasks.c **** 	#else
1467:FreeRTOS/tasks.c **** 	{
1468:FreeRTOS/tasks.c **** 		/* Create the idle task without storing its handle. */
1469:FreeRTOS/tasks.c **** 		xReturn = xTaskCreate( prvIdleTask, "IDLE", tskIDLE_STACK_SIZE, ( void * ) NULL, ( tskIDLE_PRIORI
 1632              		.loc 1 1469 0
 1633 0006 0023     		movs	r3, #0	@ tmp111,
 1634 0008 0093     		str	r3, [sp]	@ tmp111,
 1635 000a 0023     		movs	r3, #0	@ tmp112,
 1636 000c 0193     		str	r3, [sp, #4]	@ tmp112,
 1637 000e 0023     		movs	r3, #0	@ tmp113,
 1638 0010 0293     		str	r3, [sp, #8]	@ tmp113,
 1639 0012 0023     		movs	r3, #0	@ tmp114,
 1640 0014 0393     		str	r3, [sp, #12]	@ tmp114,
 1641 0016 0F48     		ldr	r0, .L122	@,
ARM GAS  C:\Users\COSMIN~1.MAR\AppData\Local\Temp\ccJcV6ch.s 			page 56


 1642 0018 0F49     		ldr	r1, .L122+4	@,
 1643 001a 4FF48072 		mov	r2, #256	@,
 1644 001e 0023     		movs	r3, #0	@,
 1645 0020 FFF7FEFF 		bl	xTaskGenericCreate	@
 1646 0024 7860     		str	r0, [r7, #4]	@, xReturn
1470:FreeRTOS/tasks.c **** 	}
1471:FreeRTOS/tasks.c **** 	#endif /* INCLUDE_xTaskGetIdleTaskHandle */
1472:FreeRTOS/tasks.c **** 
1473:FreeRTOS/tasks.c **** 	#if ( configUSE_TIMERS == 1 )
1474:FreeRTOS/tasks.c **** 	{
1475:FreeRTOS/tasks.c **** 		if( xReturn == pdPASS )
1476:FreeRTOS/tasks.c **** 		{
1477:FreeRTOS/tasks.c **** 			xReturn = xTimerCreateTimerTask();
1478:FreeRTOS/tasks.c **** 		}
1479:FreeRTOS/tasks.c **** 		else
1480:FreeRTOS/tasks.c **** 		{
1481:FreeRTOS/tasks.c **** 			mtCOVERAGE_TEST_MARKER();
1482:FreeRTOS/tasks.c **** 		}
1483:FreeRTOS/tasks.c **** 	}
1484:FreeRTOS/tasks.c **** 	#endif /* configUSE_TIMERS */
1485:FreeRTOS/tasks.c **** 
1486:FreeRTOS/tasks.c **** 	if( xReturn == pdPASS )
 1647              		.loc 1 1486 0
 1648 0026 7B68     		ldr	r3, [r7, #4]	@ tmp115, xReturn
 1649 0028 012B     		cmp	r3, #1	@ tmp115,
 1650 002a 0AD1     		bne	.L119	@,
1487:FreeRTOS/tasks.c **** 	{
1488:FreeRTOS/tasks.c **** 		/* Interrupts are turned off here, to ensure a tick does not occur
1489:FreeRTOS/tasks.c **** 		before or during the call to xPortStartScheduler().  The stacks of
1490:FreeRTOS/tasks.c **** 		the created tasks contain a status word with interrupts switched on
1491:FreeRTOS/tasks.c **** 		so interrupts will automatically get re-enabled when the first task
1492:FreeRTOS/tasks.c **** 		starts to run. */
1493:FreeRTOS/tasks.c **** 		portDISABLE_INTERRUPTS();
 1651              		.loc 1 1493 0
 1652 002c FFF7FEFF 		bl	ulPortSetInterruptMask	@
1494:FreeRTOS/tasks.c **** 
1495:FreeRTOS/tasks.c **** 		#if ( configUSE_NEWLIB_REENTRANT == 1 )
1496:FreeRTOS/tasks.c **** 		{
1497:FreeRTOS/tasks.c **** 			/* Switch Newlib's _impure_ptr variable to point to the _reent
1498:FreeRTOS/tasks.c **** 			structure specific to the task that will run first. */
1499:FreeRTOS/tasks.c **** 			_impure_ptr = &( pxCurrentTCB->xNewLib_reent );
1500:FreeRTOS/tasks.c **** 		}
1501:FreeRTOS/tasks.c **** 		#endif /* configUSE_NEWLIB_REENTRANT */
1502:FreeRTOS/tasks.c **** 
1503:FreeRTOS/tasks.c **** 		xSchedulerRunning = pdTRUE;
 1653              		.loc 1 1503 0
 1654 0030 0A4B     		ldr	r3, .L122+8	@ tmp116,
 1655 0032 0122     		movs	r2, #1	@ tmp117,
 1656 0034 1A60     		str	r2, [r3]	@ tmp117, xSchedulerRunning
1504:FreeRTOS/tasks.c **** 		xTickCount = ( TickT_t ) 0U;
 1657              		.loc 1 1504 0
 1658 0036 0A4B     		ldr	r3, .L122+12	@ tmp118,
 1659 0038 0022     		movs	r2, #0	@ tmp119,
 1660 003a 1A60     		str	r2, [r3]	@ tmp119, xTickCount
1505:FreeRTOS/tasks.c **** 
1506:FreeRTOS/tasks.c **** 		/* If configGENERATE_RUN_TIME_STATS is defined then the following
1507:FreeRTOS/tasks.c **** 		macro must be defined to configure the timer/counter used to generate
ARM GAS  C:\Users\COSMIN~1.MAR\AppData\Local\Temp\ccJcV6ch.s 			page 57


1508:FreeRTOS/tasks.c **** 		the run time counter time base. */
1509:FreeRTOS/tasks.c **** 		portCONFIGURE_TIMER_FOR_RUN_TIME_STATS();
1510:FreeRTOS/tasks.c **** 
1511:FreeRTOS/tasks.c **** 		/* Setting up the timer tick is hardware specific and thus in the
1512:FreeRTOS/tasks.c **** 		portable interface. */
1513:FreeRTOS/tasks.c **** 		if( xPortStartScheduler() != pdFALSE )
 1661              		.loc 1 1513 0
 1662 003c FFF7FEFF 		bl	xPortStartScheduler	@
 1663 0040 05E0     		b	.L118	@
 1664              	.L119:
1514:FreeRTOS/tasks.c **** 		{
1515:FreeRTOS/tasks.c **** 			/* Should not reach here as if the scheduler is running the
1516:FreeRTOS/tasks.c **** 			function will not return. */
1517:FreeRTOS/tasks.c **** 		}
1518:FreeRTOS/tasks.c **** 		else
1519:FreeRTOS/tasks.c **** 		{
1520:FreeRTOS/tasks.c **** 			/* Should only reach here if a task calls xTaskEndScheduler(). */
1521:FreeRTOS/tasks.c **** 		}
1522:FreeRTOS/tasks.c **** 	}
1523:FreeRTOS/tasks.c **** 	else
1524:FreeRTOS/tasks.c **** 	{
1525:FreeRTOS/tasks.c **** 		/* This line will only be reached if the kernel could not be started,
1526:FreeRTOS/tasks.c **** 		because there was not enough FreeRTOS heap to create the idle task
1527:FreeRTOS/tasks.c **** 		or the timer task. */
1528:FreeRTOS/tasks.c **** 		configASSERT( xReturn );
 1665              		.loc 1 1528 0
 1666 0042 7B68     		ldr	r3, [r7, #4]	@ tmp120, xReturn
 1667 0044 002B     		cmp	r3, #0	@ tmp120,
 1668 0046 02D1     		bne	.L118	@,
 1669              		.loc 1 1528 0 is_stmt 0 discriminator 1
 1670 0048 FFF7FEFF 		bl	ulPortSetInterruptMask	@
 1671              	.L121:
 1672              		.loc 1 1528 0 discriminator 2
 1673 004c FEE7     		b	.L121	@
 1674              	.L118:
1529:FreeRTOS/tasks.c **** 	}
1530:FreeRTOS/tasks.c **** }
 1675              		.loc 1 1530 0 is_stmt 1
 1676 004e 0837     		adds	r7, r7, #8	@,,
 1677              		.cfi_def_cfa_offset 8
 1678 0050 BD46     		mov	sp, r7	@,
 1679              		.cfi_def_cfa_register 13
 1680              		@ sp needed	@
 1681 0052 80BD     		pop	{r7, pc}	@
 1682              	.L123:
 1683              		.align	2
 1684              	.L122:
 1685 0054 00000000 		.word	prvIdleTask
 1686 0058 00000000 		.word	.LC0
 1687 005c 00000000 		.word	xSchedulerRunning
 1688 0060 00000000 		.word	xTickCount
 1689              		.cfi_endproc
 1690              	.LFE11:
 1691              		.size	vTaskStartScheduler, .-vTaskStartScheduler
 1692              		.section	.text.vTaskEndScheduler,"ax",%progbits
 1693              		.align	2
 1694              		.global	vTaskEndScheduler
ARM GAS  C:\Users\COSMIN~1.MAR\AppData\Local\Temp\ccJcV6ch.s 			page 58


 1695              		.thumb
 1696              		.thumb_func
 1697              		.type	vTaskEndScheduler, %function
 1698              	vTaskEndScheduler:
 1699              	.LFB12:
1531:FreeRTOS/tasks.c **** /*-----------------------------------------------------------*/
1532:FreeRTOS/tasks.c **** 
1533:FreeRTOS/tasks.c **** void vTaskEndScheduler( void )
1534:FreeRTOS/tasks.c **** {
 1700              		.loc 1 1534 0
 1701              		.cfi_startproc
 1702              		@ args = 0, pretend = 0, frame = 0
 1703              		@ frame_needed = 1, uses_anonymous_args = 0
 1704 0000 80B5     		push	{r7, lr}	@
 1705              		.cfi_def_cfa_offset 8
 1706              		.cfi_offset 7, -8
 1707              		.cfi_offset 14, -4
 1708 0002 00AF     		add	r7, sp, #0	@,,
 1709              		.cfi_def_cfa_register 7
1535:FreeRTOS/tasks.c **** 	/* Stop the scheduler interrupts and call the portable scheduler end
1536:FreeRTOS/tasks.c **** 	routine so the original ISRs can be restored if necessary.  The port
1537:FreeRTOS/tasks.c **** 	layer must ensure interrupts enable	bit is left in the correct state. */
1538:FreeRTOS/tasks.c **** 	portDISABLE_INTERRUPTS();
 1710              		.loc 1 1538 0
 1711 0004 FFF7FEFF 		bl	ulPortSetInterruptMask	@
1539:FreeRTOS/tasks.c **** 	xSchedulerRunning = pdFALSE;
 1712              		.loc 1 1539 0
 1713 0008 024B     		ldr	r3, .L125	@ tmp110,
 1714 000a 0022     		movs	r2, #0	@ tmp111,
 1715 000c 1A60     		str	r2, [r3]	@ tmp111, xSchedulerRunning
1540:FreeRTOS/tasks.c **** 	vPortEndScheduler();
 1716              		.loc 1 1540 0
 1717 000e FFF7FEFF 		bl	vPortEndScheduler	@
1541:FreeRTOS/tasks.c **** }
 1718              		.loc 1 1541 0
 1719 0012 80BD     		pop	{r7, pc}	@
 1720              	.L126:
 1721              		.align	2
 1722              	.L125:
 1723 0014 00000000 		.word	xSchedulerRunning
 1724              		.cfi_endproc
 1725              	.LFE12:
 1726              		.size	vTaskEndScheduler, .-vTaskEndScheduler
 1727              		.section	.text.vTaskSuspendAll,"ax",%progbits
 1728              		.align	2
 1729              		.global	vTaskSuspendAll
 1730              		.thumb
 1731              		.thumb_func
 1732              		.type	vTaskSuspendAll, %function
 1733              	vTaskSuspendAll:
 1734              	.LFB13:
1542:FreeRTOS/tasks.c **** /*----------------------------------------------------------*/
1543:FreeRTOS/tasks.c **** 
1544:FreeRTOS/tasks.c **** void vTaskSuspendAll( void )
1545:FreeRTOS/tasks.c **** {
 1735              		.loc 1 1545 0
 1736              		.cfi_startproc
ARM GAS  C:\Users\COSMIN~1.MAR\AppData\Local\Temp\ccJcV6ch.s 			page 59


 1737              		@ args = 0, pretend = 0, frame = 0
 1738              		@ frame_needed = 1, uses_anonymous_args = 0
 1739              		@ link register save eliminated.
 1740 0000 80B4     		push	{r7}	@
 1741              		.cfi_def_cfa_offset 4
 1742              		.cfi_offset 7, -4
 1743 0002 00AF     		add	r7, sp, #0	@,,
 1744              		.cfi_def_cfa_register 7
1546:FreeRTOS/tasks.c **** 	/* A critical section is not required as the variable is of type
1547:FreeRTOS/tasks.c **** 	BaseT_t.  Please read Richard Barry's reply in the following link to a
1548:FreeRTOS/tasks.c **** 	post in the FreeRTOS support forum before reporting this as a bug! -
1549:FreeRTOS/tasks.c **** 	http://goo.gl/wu4acr */
1550:FreeRTOS/tasks.c **** 	++uxSchedulerSuspended;
 1745              		.loc 1 1550 0
 1746 0004 044B     		ldr	r3, .L128	@ tmp112,
 1747 0006 1B68     		ldr	r3, [r3]	@ D.6523, uxSchedulerSuspended
 1748 0008 0133     		adds	r3, r3, #1	@ D.6523, D.6523,
 1749 000a 034A     		ldr	r2, .L128	@ tmp113,
 1750 000c 1360     		str	r3, [r2]	@ D.6523, uxSchedulerSuspended
1551:FreeRTOS/tasks.c **** }
 1751              		.loc 1 1551 0
 1752 000e BD46     		mov	sp, r7	@,
 1753              		.cfi_def_cfa_register 13
 1754              		@ sp needed	@
 1755 0010 5DF8047B 		ldr	r7, [sp], #4	@,
 1756              		.cfi_restore 7
 1757              		.cfi_def_cfa_offset 0
 1758 0014 7047     		bx	lr	@
 1759              	.L129:
 1760 0016 00BF     		.align	2
 1761              	.L128:
 1762 0018 00000000 		.word	uxSchedulerSuspended
 1763              		.cfi_endproc
 1764              	.LFE13:
 1765              		.size	vTaskSuspendAll, .-vTaskSuspendAll
 1766              		.section	.text.xTaskResumeAll,"ax",%progbits
 1767              		.align	2
 1768              		.global	xTaskResumeAll
 1769              		.thumb
 1770              		.thumb_func
 1771              		.type	xTaskResumeAll, %function
 1772              	xTaskResumeAll:
 1773              	.LFB14:
1552:FreeRTOS/tasks.c **** /*----------------------------------------------------------*/
1553:FreeRTOS/tasks.c **** 
1554:FreeRTOS/tasks.c **** #if ( configUSE_TICKLESS_IDLE != 0 )
1555:FreeRTOS/tasks.c **** 
1556:FreeRTOS/tasks.c **** 	static TickT_t prvGetExpectedIdleTime( void )
1557:FreeRTOS/tasks.c **** 	{
1558:FreeRTOS/tasks.c **** 	TickT_t xReturn;
1559:FreeRTOS/tasks.c **** 
1560:FreeRTOS/tasks.c **** 		if( pxCurrentTCB->uxPriority > tskIDLE_PRIORITY )
1561:FreeRTOS/tasks.c **** 		{
1562:FreeRTOS/tasks.c **** 			xReturn = 0;
1563:FreeRTOS/tasks.c **** 		}
1564:FreeRTOS/tasks.c **** 		else if( listCURRENT_LIST_LENGTH( &( pxReadyTasksLists[ tskIDLE_PRIORITY ] ) ) > 1 )
1565:FreeRTOS/tasks.c **** 		{
ARM GAS  C:\Users\COSMIN~1.MAR\AppData\Local\Temp\ccJcV6ch.s 			page 60


1566:FreeRTOS/tasks.c **** 			/* There are other idle priority tasks in the ready state.  If
1567:FreeRTOS/tasks.c **** 			time slicing is used then the very next tick interrupt must be
1568:FreeRTOS/tasks.c **** 			processed. */
1569:FreeRTOS/tasks.c **** 			xReturn = 0;
1570:FreeRTOS/tasks.c **** 		}
1571:FreeRTOS/tasks.c **** 		else
1572:FreeRTOS/tasks.c **** 		{
1573:FreeRTOS/tasks.c **** 			xReturn = xNextTaskUnblockTime - xTickCount;
1574:FreeRTOS/tasks.c **** 		}
1575:FreeRTOS/tasks.c **** 
1576:FreeRTOS/tasks.c **** 		return xReturn;
1577:FreeRTOS/tasks.c **** 	}
1578:FreeRTOS/tasks.c **** 
1579:FreeRTOS/tasks.c **** #endif /* configUSE_TICKLESS_IDLE */
1580:FreeRTOS/tasks.c **** /*----------------------------------------------------------*/
1581:FreeRTOS/tasks.c **** 
1582:FreeRTOS/tasks.c **** BaseT_t xTaskResumeAll( void )
1583:FreeRTOS/tasks.c **** {
 1774              		.loc 1 1583 0
 1775              		.cfi_startproc
 1776              		@ args = 0, pretend = 0, frame = 8
 1777              		@ frame_needed = 1, uses_anonymous_args = 0
 1778 0000 80B5     		push	{r7, lr}	@
 1779              		.cfi_def_cfa_offset 8
 1780              		.cfi_offset 7, -8
 1781              		.cfi_offset 14, -4
 1782 0002 82B0     		sub	sp, sp, #8	@,,
 1783              		.cfi_def_cfa_offset 16
 1784 0004 00AF     		add	r7, sp, #0	@,,
 1785              		.cfi_def_cfa_register 7
1584:FreeRTOS/tasks.c **** TCB_t *pxTCB;
1585:FreeRTOS/tasks.c **** BaseT_t xAlreadyYielded = pdFALSE;
 1786              		.loc 1 1585 0
 1787 0006 0023     		movs	r3, #0	@ tmp138,
 1788 0008 7B60     		str	r3, [r7, #4]	@ tmp138, xAlreadyYielded
1586:FreeRTOS/tasks.c **** 
1587:FreeRTOS/tasks.c **** 	/* If uxSchedulerSuspended is zero then this function does not match a
1588:FreeRTOS/tasks.c **** 	previous call to vTaskSuspendAll(). */
1589:FreeRTOS/tasks.c **** 	configASSERT( uxSchedulerSuspended );
 1789              		.loc 1 1589 0
 1790 000a 384B     		ldr	r3, .L141	@ tmp139,
 1791 000c 1B68     		ldr	r3, [r3]	@ D.6524, uxSchedulerSuspended
 1792 000e 002B     		cmp	r3, #0	@ D.6524,
 1793 0010 02D1     		bne	.L131	@,
 1794              		.loc 1 1589 0 is_stmt 0 discriminator 1
 1795 0012 FFF7FEFF 		bl	ulPortSetInterruptMask	@
 1796              	.L132:
 1797 0016 FEE7     		b	.L132	@
 1798              	.L131:
1590:FreeRTOS/tasks.c **** 
1591:FreeRTOS/tasks.c **** 	/* It is possible that an ISR caused a task to be removed from an event
1592:FreeRTOS/tasks.c **** 	list while the scheduler was suspended.  If this was the case then the
1593:FreeRTOS/tasks.c **** 	removed task will have been added to the xPendingReadyList.  Once the
1594:FreeRTOS/tasks.c **** 	scheduler has been resumed it is safe to move all the pending ready
1595:FreeRTOS/tasks.c **** 	tasks from this list into their appropriate ready list. */
1596:FreeRTOS/tasks.c **** 	taskENTER_CRITICAL();
 1799              		.loc 1 1596 0 is_stmt 1
ARM GAS  C:\Users\COSMIN~1.MAR\AppData\Local\Temp\ccJcV6ch.s 			page 61


 1800 0018 FFF7FEFF 		bl	vPortEnterCritical	@
1597:FreeRTOS/tasks.c **** 	{
1598:FreeRTOS/tasks.c **** 		--uxSchedulerSuspended;
 1801              		.loc 1 1598 0
 1802 001c 334B     		ldr	r3, .L141	@ tmp140,
 1803 001e 1B68     		ldr	r3, [r3]	@ D.6524, uxSchedulerSuspended
 1804 0020 013B     		subs	r3, r3, #1	@ D.6524, D.6524,
 1805 0022 324A     		ldr	r2, .L141	@ tmp141,
 1806 0024 1360     		str	r3, [r2]	@ D.6524, uxSchedulerSuspended
1599:FreeRTOS/tasks.c **** 
1600:FreeRTOS/tasks.c **** 		if( uxSchedulerSuspended == ( UBaseT_t ) pdFALSE )
 1807              		.loc 1 1600 0
 1808 0026 314B     		ldr	r3, .L141	@ tmp142,
 1809 0028 1B68     		ldr	r3, [r3]	@ D.6524, uxSchedulerSuspended
 1810 002a 002B     		cmp	r3, #0	@ D.6524,
 1811 002c 57D1     		bne	.L133	@,
1601:FreeRTOS/tasks.c **** 		{
1602:FreeRTOS/tasks.c **** 			if( uxCurrentNumberOfTasks > ( UBaseT_t ) 0U )
 1812              		.loc 1 1602 0
 1813 002e 304B     		ldr	r3, .L141+4	@ tmp143,
 1814 0030 1B68     		ldr	r3, [r3]	@ D.6524, uxCurrentNumberOfTasks
 1815 0032 002B     		cmp	r3, #0	@ D.6524,
 1816 0034 53D0     		beq	.L133	@,
1603:FreeRTOS/tasks.c **** 			{
1604:FreeRTOS/tasks.c **** 				/* Move any readied tasks from the pending list into the
1605:FreeRTOS/tasks.c **** 				appropriate ready list. */
1606:FreeRTOS/tasks.c **** 				while( listLIST_IS_EMPTY( &xPendingReadyList ) == pdFALSE )
 1817              		.loc 1 1606 0
 1818 0036 30E0     		b	.L134	@
 1819              	.L135:
1607:FreeRTOS/tasks.c **** 				{
1608:FreeRTOS/tasks.c **** 					pxTCB = ( TCB_t * ) listGET_OWNER_OF_HEAD_ENTRY( ( &xPendingReadyList ) );
 1820              		.loc 1 1608 0
 1821 0038 2E4B     		ldr	r3, .L141+8	@ tmp144,
 1822 003a DB68     		ldr	r3, [r3, #12]	@ D.6525, xPendingReadyList.xListEnd.pxNext
 1823 003c DB68     		ldr	r3, [r3, #12]	@ tmp145, _9->pvOwner
 1824 003e 3B60     		str	r3, [r7]	@ tmp145, pxTCB
1609:FreeRTOS/tasks.c **** 					( void ) uxListRemove( &( pxTCB->xEventListItem ) );
 1825              		.loc 1 1609 0
 1826 0040 3B68     		ldr	r3, [r7]	@ tmp146, pxTCB
 1827 0042 1833     		adds	r3, r3, #24	@ D.6526, tmp146,
 1828 0044 1846     		mov	r0, r3	@, D.6526
 1829 0046 FFF7FEFF 		bl	uxListRemove	@
1610:FreeRTOS/tasks.c **** 					( void ) uxListRemove( &( pxTCB->xGenericListItem ) );
 1830              		.loc 1 1610 0
 1831 004a 3B68     		ldr	r3, [r7]	@ tmp147, pxTCB
 1832 004c 0433     		adds	r3, r3, #4	@ D.6526, tmp147,
 1833 004e 1846     		mov	r0, r3	@, D.6526
 1834 0050 FFF7FEFF 		bl	uxListRemove	@
1611:FreeRTOS/tasks.c **** 					prvAddTaskToReadyList( pxTCB );
 1835              		.loc 1 1611 0
 1836 0054 3B68     		ldr	r3, [r7]	@ tmp148, pxTCB
 1837 0056 DB6A     		ldr	r3, [r3, #44]	@ D.6524, pxTCB_10->uxPriority
 1838 0058 1A46     		mov	r2, r3	@ D.6527, D.6524
 1839 005a 0123     		movs	r3, #1	@ tmp149,
 1840 005c 03FA02F2 		lsl	r2, r3, r2	@ D.6524, tmp149, D.6527
 1841 0060 254B     		ldr	r3, .L141+12	@ tmp150,
ARM GAS  C:\Users\COSMIN~1.MAR\AppData\Local\Temp\ccJcV6ch.s 			page 62


 1842 0062 1B68     		ldr	r3, [r3]	@ D.6524, uxTopReadyPriority
 1843 0064 1343     		orrs	r3, r3, r2	@, D.6524, D.6524, D.6524
 1844 0066 244A     		ldr	r2, .L141+12	@ tmp151,
 1845 0068 1360     		str	r3, [r2]	@ D.6524, uxTopReadyPriority
 1846 006a 3B68     		ldr	r3, [r7]	@ tmp152, pxTCB
 1847 006c DA6A     		ldr	r2, [r3, #44]	@ D.6524, pxTCB_10->uxPriority
 1848 006e 1346     		mov	r3, r2	@ tmp153, D.6524
 1849 0070 9B00     		lsls	r3, r3, #2	@ tmp153, tmp153,
 1850 0072 1344     		add	r3, r3, r2	@ tmp153, D.6524
 1851 0074 9B00     		lsls	r3, r3, #2	@ tmp154, tmp153,
 1852 0076 214A     		ldr	r2, .L141+16	@ tmp155,
 1853 0078 1A44     		add	r2, r2, r3	@ D.6528, tmp153
 1854 007a 3B68     		ldr	r3, [r7]	@ tmp156, pxTCB
 1855 007c 0433     		adds	r3, r3, #4	@ D.6526, tmp156,
 1856 007e 1046     		mov	r0, r2	@, D.6528
 1857 0080 1946     		mov	r1, r3	@, D.6526
 1858 0082 FFF7FEFF 		bl	vListInsertEnd	@
1612:FreeRTOS/tasks.c **** 
1613:FreeRTOS/tasks.c **** 					/* If we have moved a task that has a priority higher than
1614:FreeRTOS/tasks.c **** 					the current task then we should yield. */
1615:FreeRTOS/tasks.c **** 					if( pxTCB->uxPriority >= pxCurrentTCB->uxPriority )
 1859              		.loc 1 1615 0
 1860 0086 3B68     		ldr	r3, [r7]	@ tmp157, pxTCB
 1861 0088 DA6A     		ldr	r2, [r3, #44]	@ D.6524, pxTCB_10->uxPriority
 1862 008a 1D4B     		ldr	r3, .L141+20	@ tmp158,
 1863 008c 1B68     		ldr	r3, [r3]	@ D.6529, pxCurrentTCB
 1864 008e DB6A     		ldr	r3, [r3, #44]	@ D.6524, _22->uxPriority
 1865 0090 9A42     		cmp	r2, r3	@ D.6524, D.6524
 1866 0092 02D3     		bcc	.L134	@,
1616:FreeRTOS/tasks.c **** 					{
1617:FreeRTOS/tasks.c **** 						xYieldPending = pdTRUE;
 1867              		.loc 1 1617 0
 1868 0094 1B4B     		ldr	r3, .L141+24	@ tmp159,
 1869 0096 0122     		movs	r2, #1	@ tmp160,
 1870 0098 1A60     		str	r2, [r3]	@ tmp160, xYieldPending
 1871              	.L134:
1606:FreeRTOS/tasks.c **** 				{
 1872              		.loc 1 1606 0
 1873 009a 164B     		ldr	r3, .L141+8	@ tmp161,
 1874 009c 1B68     		ldr	r3, [r3]	@ D.6524, xPendingReadyList.uxNumberOfItems
 1875 009e 002B     		cmp	r3, #0	@ D.6524,
 1876 00a0 CAD1     		bne	.L135	@,
1618:FreeRTOS/tasks.c **** 					}
1619:FreeRTOS/tasks.c **** 					else
1620:FreeRTOS/tasks.c **** 					{
1621:FreeRTOS/tasks.c **** 						mtCOVERAGE_TEST_MARKER();
1622:FreeRTOS/tasks.c **** 					}
1623:FreeRTOS/tasks.c **** 				}
1624:FreeRTOS/tasks.c **** 
1625:FreeRTOS/tasks.c **** 				/* If any ticks occurred while the scheduler was suspended then
1626:FreeRTOS/tasks.c **** 				they should be processed now.  This ensures the tick count does
1627:FreeRTOS/tasks.c **** 				not	slip, and that any delayed tasks are resumed at the correct
1628:FreeRTOS/tasks.c **** 				time. */
1629:FreeRTOS/tasks.c **** 				if( uxPendedTicks > ( UBaseT_t ) 0U )
 1877              		.loc 1 1629 0
 1878 00a2 194B     		ldr	r3, .L141+28	@ tmp162,
 1879 00a4 1B68     		ldr	r3, [r3]	@ D.6524, uxPendedTicks
ARM GAS  C:\Users\COSMIN~1.MAR\AppData\Local\Temp\ccJcV6ch.s 			page 63


 1880 00a6 002B     		cmp	r3, #0	@ D.6524,
 1881 00a8 11D0     		beq	.L136	@,
1630:FreeRTOS/tasks.c **** 				{
1631:FreeRTOS/tasks.c **** 					while( uxPendedTicks > ( UBaseT_t ) 0U )
 1882              		.loc 1 1631 0
 1883 00aa 0CE0     		b	.L137	@
 1884              	.L139:
1632:FreeRTOS/tasks.c **** 					{
1633:FreeRTOS/tasks.c **** 						if( xTaskIncrementTick() != pdFALSE )
 1885              		.loc 1 1633 0
 1886 00ac FFF7FEFF 		bl	xTaskIncrementTick	@
 1887 00b0 0346     		mov	r3, r0	@ D.6530,
 1888 00b2 002B     		cmp	r3, #0	@ D.6530,
 1889 00b4 02D0     		beq	.L138	@,
1634:FreeRTOS/tasks.c **** 						{
1635:FreeRTOS/tasks.c **** 							xYieldPending = pdTRUE;
 1890              		.loc 1 1635 0
 1891 00b6 134B     		ldr	r3, .L141+24	@ tmp163,
 1892 00b8 0122     		movs	r2, #1	@ tmp164,
 1893 00ba 1A60     		str	r2, [r3]	@ tmp164, xYieldPending
 1894              	.L138:
1636:FreeRTOS/tasks.c **** 						}
1637:FreeRTOS/tasks.c **** 						else
1638:FreeRTOS/tasks.c **** 						{
1639:FreeRTOS/tasks.c **** 							mtCOVERAGE_TEST_MARKER();
1640:FreeRTOS/tasks.c **** 						}
1641:FreeRTOS/tasks.c **** 						--uxPendedTicks;
 1895              		.loc 1 1641 0
 1896 00bc 124B     		ldr	r3, .L141+28	@ tmp165,
 1897 00be 1B68     		ldr	r3, [r3]	@ D.6524, uxPendedTicks
 1898 00c0 013B     		subs	r3, r3, #1	@ D.6524, D.6524,
 1899 00c2 114A     		ldr	r2, .L141+28	@ tmp166,
 1900 00c4 1360     		str	r3, [r2]	@ D.6524, uxPendedTicks
 1901              	.L137:
1631:FreeRTOS/tasks.c **** 					{
 1902              		.loc 1 1631 0
 1903 00c6 104B     		ldr	r3, .L141+28	@ tmp167,
 1904 00c8 1B68     		ldr	r3, [r3]	@ D.6524, uxPendedTicks
 1905 00ca 002B     		cmp	r3, #0	@ D.6524,
 1906 00cc EED1     		bne	.L139	@,
 1907              	.L136:
1642:FreeRTOS/tasks.c **** 					}
1643:FreeRTOS/tasks.c **** 				}
1644:FreeRTOS/tasks.c **** 				else
1645:FreeRTOS/tasks.c **** 				{
1646:FreeRTOS/tasks.c **** 					mtCOVERAGE_TEST_MARKER();
1647:FreeRTOS/tasks.c **** 				}
1648:FreeRTOS/tasks.c **** 
1649:FreeRTOS/tasks.c **** 				if( xYieldPending == pdTRUE )
 1908              		.loc 1 1649 0
 1909 00ce 0D4B     		ldr	r3, .L141+24	@ tmp168,
 1910 00d0 1B68     		ldr	r3, [r3]	@ D.6530, xYieldPending
 1911 00d2 012B     		cmp	r3, #1	@ D.6530,
 1912 00d4 03D1     		bne	.L133	@,
1650:FreeRTOS/tasks.c **** 				{
1651:FreeRTOS/tasks.c **** 					#if( configUSE_PREEMPTION != 0 )
1652:FreeRTOS/tasks.c **** 					{
ARM GAS  C:\Users\COSMIN~1.MAR\AppData\Local\Temp\ccJcV6ch.s 			page 64


1653:FreeRTOS/tasks.c **** 						xAlreadyYielded = pdTRUE;
 1913              		.loc 1 1653 0
 1914 00d6 0123     		movs	r3, #1	@ tmp169,
 1915 00d8 7B60     		str	r3, [r7, #4]	@ tmp169, xAlreadyYielded
1654:FreeRTOS/tasks.c **** 					}
1655:FreeRTOS/tasks.c **** 					#endif
1656:FreeRTOS/tasks.c **** 					taskYIELD_IF_USING_PREEMPTION();
 1916              		.loc 1 1656 0
 1917 00da FFF7FEFF 		bl	vPortYield	@
 1918              	.L133:
1657:FreeRTOS/tasks.c **** 				}
1658:FreeRTOS/tasks.c **** 				else
1659:FreeRTOS/tasks.c **** 				{
1660:FreeRTOS/tasks.c **** 					mtCOVERAGE_TEST_MARKER();
1661:FreeRTOS/tasks.c **** 				}
1662:FreeRTOS/tasks.c **** 			}
1663:FreeRTOS/tasks.c **** 		}
1664:FreeRTOS/tasks.c **** 		else
1665:FreeRTOS/tasks.c **** 		{
1666:FreeRTOS/tasks.c **** 			mtCOVERAGE_TEST_MARKER();
1667:FreeRTOS/tasks.c **** 		}
1668:FreeRTOS/tasks.c **** 	}
1669:FreeRTOS/tasks.c **** 	taskEXIT_CRITICAL();
 1919              		.loc 1 1669 0
 1920 00de FFF7FEFF 		bl	vPortExitCritical	@
1670:FreeRTOS/tasks.c **** 
1671:FreeRTOS/tasks.c **** 	return xAlreadyYielded;
 1921              		.loc 1 1671 0
 1922 00e2 7B68     		ldr	r3, [r7, #4]	@ D.6531, xAlreadyYielded
1672:FreeRTOS/tasks.c **** }
 1923              		.loc 1 1672 0
 1924 00e4 1846     		mov	r0, r3	@, <retval>
 1925 00e6 0837     		adds	r7, r7, #8	@,,
 1926              		.cfi_def_cfa_offset 8
 1927 00e8 BD46     		mov	sp, r7	@,
 1928              		.cfi_def_cfa_register 13
 1929              		@ sp needed	@
 1930 00ea 80BD     		pop	{r7, pc}	@
 1931              	.L142:
 1932              		.align	2
 1933              	.L141:
 1934 00ec 00000000 		.word	uxSchedulerSuspended
 1935 00f0 00000000 		.word	uxCurrentNumberOfTasks
 1936 00f4 00000000 		.word	xPendingReadyList
 1937 00f8 00000000 		.word	uxTopReadyPriority
 1938 00fc 00000000 		.word	pxReadyTasksLists
 1939 0100 00000000 		.word	pxCurrentTCB
 1940 0104 00000000 		.word	xYieldPending
 1941 0108 00000000 		.word	uxPendedTicks
 1942              		.cfi_endproc
 1943              	.LFE14:
 1944              		.size	xTaskResumeAll, .-xTaskResumeAll
 1945              		.section	.text.xTaskGetTickCount,"ax",%progbits
 1946              		.align	2
 1947              		.global	xTaskGetTickCount
 1948              		.thumb
 1949              		.thumb_func
ARM GAS  C:\Users\COSMIN~1.MAR\AppData\Local\Temp\ccJcV6ch.s 			page 65


 1950              		.type	xTaskGetTickCount, %function
 1951              	xTaskGetTickCount:
 1952              	.LFB15:
1673:FreeRTOS/tasks.c **** /*-----------------------------------------------------------*/
1674:FreeRTOS/tasks.c **** 
1675:FreeRTOS/tasks.c **** TickT_t xTaskGetTickCount( void )
1676:FreeRTOS/tasks.c **** {
 1953              		.loc 1 1676 0
 1954              		.cfi_startproc
 1955              		@ args = 0, pretend = 0, frame = 8
 1956              		@ frame_needed = 1, uses_anonymous_args = 0
 1957 0000 80B5     		push	{r7, lr}	@
 1958              		.cfi_def_cfa_offset 8
 1959              		.cfi_offset 7, -8
 1960              		.cfi_offset 14, -4
 1961 0002 82B0     		sub	sp, sp, #8	@,,
 1962              		.cfi_def_cfa_offset 16
 1963 0004 00AF     		add	r7, sp, #0	@,,
 1964              		.cfi_def_cfa_register 7
1677:FreeRTOS/tasks.c **** TickT_t xTicks;
1678:FreeRTOS/tasks.c **** 
1679:FreeRTOS/tasks.c **** 	/* Critical section required if running on a 16 bit processor. */
1680:FreeRTOS/tasks.c **** 	taskENTER_CRITICAL();
 1965              		.loc 1 1680 0
 1966 0006 FFF7FEFF 		bl	vPortEnterCritical	@
1681:FreeRTOS/tasks.c **** 	{
1682:FreeRTOS/tasks.c **** 		xTicks = xTickCount;
 1967              		.loc 1 1682 0
 1968 000a 054B     		ldr	r3, .L145	@ tmp112,
 1969 000c 1B68     		ldr	r3, [r3]	@ tmp113, xTickCount
 1970 000e 7B60     		str	r3, [r7, #4]	@ tmp113, xTicks
1683:FreeRTOS/tasks.c **** 	}
1684:FreeRTOS/tasks.c **** 	taskEXIT_CRITICAL();
 1971              		.loc 1 1684 0
 1972 0010 FFF7FEFF 		bl	vPortExitCritical	@
1685:FreeRTOS/tasks.c **** 
1686:FreeRTOS/tasks.c **** 	return xTicks;
 1973              		.loc 1 1686 0
 1974 0014 7B68     		ldr	r3, [r7, #4]	@ D.6532, xTicks
1687:FreeRTOS/tasks.c **** }
 1975              		.loc 1 1687 0
 1976 0016 1846     		mov	r0, r3	@, <retval>
 1977 0018 0837     		adds	r7, r7, #8	@,,
 1978              		.cfi_def_cfa_offset 8
 1979 001a BD46     		mov	sp, r7	@,
 1980              		.cfi_def_cfa_register 13
 1981              		@ sp needed	@
 1982 001c 80BD     		pop	{r7, pc}	@
 1983              	.L146:
 1984 001e 00BF     		.align	2
 1985              	.L145:
 1986 0020 00000000 		.word	xTickCount
 1987              		.cfi_endproc
 1988              	.LFE15:
 1989              		.size	xTaskGetTickCount, .-xTaskGetTickCount
 1990              		.section	.text.xTaskGetTickCountFromISR,"ax",%progbits
 1991              		.align	2
ARM GAS  C:\Users\COSMIN~1.MAR\AppData\Local\Temp\ccJcV6ch.s 			page 66


 1992              		.global	xTaskGetTickCountFromISR
 1993              		.thumb
 1994              		.thumb_func
 1995              		.type	xTaskGetTickCountFromISR, %function
 1996              	xTaskGetTickCountFromISR:
 1997              	.LFB16:
1688:FreeRTOS/tasks.c **** /*-----------------------------------------------------------*/
1689:FreeRTOS/tasks.c **** 
1690:FreeRTOS/tasks.c **** TickT_t xTaskGetTickCountFromISR( void )
1691:FreeRTOS/tasks.c **** {
 1998              		.loc 1 1691 0
 1999              		.cfi_startproc
 2000              		@ args = 0, pretend = 0, frame = 8
 2001              		@ frame_needed = 1, uses_anonymous_args = 0
 2002 0000 80B5     		push	{r7, lr}	@
 2003              		.cfi_def_cfa_offset 8
 2004              		.cfi_offset 7, -8
 2005              		.cfi_offset 14, -4
 2006 0002 82B0     		sub	sp, sp, #8	@,,
 2007              		.cfi_def_cfa_offset 16
 2008 0004 00AF     		add	r7, sp, #0	@,,
 2009              		.cfi_def_cfa_register 7
1692:FreeRTOS/tasks.c **** TickT_t xReturn;
1693:FreeRTOS/tasks.c **** UBaseT_t uxSavedInterruptStatus;
1694:FreeRTOS/tasks.c **** 
1695:FreeRTOS/tasks.c **** 	/* RTOS ports that support interrupt nesting have the concept of a maximum
1696:FreeRTOS/tasks.c **** 	system call (or maximum API call) interrupt priority.  Interrupts that are
1697:FreeRTOS/tasks.c **** 	above the maximum system call priority are kept permanently enabled, even
1698:FreeRTOS/tasks.c **** 	when the RTOS kernel is in a critical section, but cannot make any calls to
1699:FreeRTOS/tasks.c **** 	FreeRTOS API functions.  If configASSERT() is defined in FreeRTOSConfig.h
1700:FreeRTOS/tasks.c **** 	then portASSERT_IF_INTERRUPT_PRIORITY_INVALID() will result in an assertion
1701:FreeRTOS/tasks.c **** 	failure if a FreeRTOS API function is called from an interrupt that has been
1702:FreeRTOS/tasks.c **** 	assigned a priority above the configured maximum system call priority.
1703:FreeRTOS/tasks.c **** 	Only FreeRTOS functions that end in FromISR can be called from interrupts
1704:FreeRTOS/tasks.c **** 	that have been assigned a priority at or (logically) below the maximum
1705:FreeRTOS/tasks.c **** 	system call	interrupt priority.  FreeRTOS maintains a separate interrupt
1706:FreeRTOS/tasks.c **** 	safe API to ensure interrupt entry is as fast and as simple as possible.
1707:FreeRTOS/tasks.c **** 	More information (albeit Cortex-M specific) is provided on the following
1708:FreeRTOS/tasks.c **** 	link: http://www.freertos.org/RTOS-Cortex-M3-M4.html */
1709:FreeRTOS/tasks.c **** 	portASSERT_IF_INTERRUPT_PRIORITY_INVALID();
 2010              		.loc 1 1709 0
 2011 0006 FFF7FEFF 		bl	vPortValidateInterruptPriority	@
1710:FreeRTOS/tasks.c **** 
1711:FreeRTOS/tasks.c **** 	uxSavedInterruptStatus = portSET_INTERRUPT_MASK_FROM_ISR();
 2012              		.loc 1 1711 0
 2013 000a FFF7FEFF 		bl	ulPortSetInterruptMask	@
 2014 000e 7860     		str	r0, [r7, #4]	@, uxSavedInterruptStatus
1712:FreeRTOS/tasks.c **** 	{
1713:FreeRTOS/tasks.c **** 		xReturn = xTickCount;
 2015              		.loc 1 1713 0
 2016 0010 054B     		ldr	r3, .L149	@ tmp112,
 2017 0012 1B68     		ldr	r3, [r3]	@ tmp113, xTickCount
 2018 0014 3B60     		str	r3, [r7]	@ tmp113, xReturn
1714:FreeRTOS/tasks.c **** 	}
1715:FreeRTOS/tasks.c **** 	portCLEAR_INTERRUPT_MASK_FROM_ISR( uxSavedInterruptStatus );
 2019              		.loc 1 1715 0
 2020 0016 7868     		ldr	r0, [r7, #4]	@, uxSavedInterruptStatus
ARM GAS  C:\Users\COSMIN~1.MAR\AppData\Local\Temp\ccJcV6ch.s 			page 67


 2021 0018 FFF7FEFF 		bl	vPortClearInterruptMask	@
1716:FreeRTOS/tasks.c **** 
1717:FreeRTOS/tasks.c **** 	return xReturn;
 2022              		.loc 1 1717 0
 2023 001c 3B68     		ldr	r3, [r7]	@ D.6533, xReturn
1718:FreeRTOS/tasks.c **** }
 2024              		.loc 1 1718 0
 2025 001e 1846     		mov	r0, r3	@, <retval>
 2026 0020 0837     		adds	r7, r7, #8	@,,
 2027              		.cfi_def_cfa_offset 8
 2028 0022 BD46     		mov	sp, r7	@,
 2029              		.cfi_def_cfa_register 13
 2030              		@ sp needed	@
 2031 0024 80BD     		pop	{r7, pc}	@
 2032              	.L150:
 2033 0026 00BF     		.align	2
 2034              	.L149:
 2035 0028 00000000 		.word	xTickCount
 2036              		.cfi_endproc
 2037              	.LFE16:
 2038              		.size	xTaskGetTickCountFromISR, .-xTaskGetTickCountFromISR
 2039              		.section	.text.uxTaskGetNumberOfTasks,"ax",%progbits
 2040              		.align	2
 2041              		.global	uxTaskGetNumberOfTasks
 2042              		.thumb
 2043              		.thumb_func
 2044              		.type	uxTaskGetNumberOfTasks, %function
 2045              	uxTaskGetNumberOfTasks:
 2046              	.LFB17:
1719:FreeRTOS/tasks.c **** /*-----------------------------------------------------------*/
1720:FreeRTOS/tasks.c **** 
1721:FreeRTOS/tasks.c **** UBaseT_t uxTaskGetNumberOfTasks( void )
1722:FreeRTOS/tasks.c **** {
 2047              		.loc 1 1722 0
 2048              		.cfi_startproc
 2049              		@ args = 0, pretend = 0, frame = 0
 2050              		@ frame_needed = 1, uses_anonymous_args = 0
 2051              		@ link register save eliminated.
 2052 0000 80B4     		push	{r7}	@
 2053              		.cfi_def_cfa_offset 4
 2054              		.cfi_offset 7, -4
 2055 0002 00AF     		add	r7, sp, #0	@,,
 2056              		.cfi_def_cfa_register 7
1723:FreeRTOS/tasks.c **** 	/* A critical section is not required because the variables are of type
1724:FreeRTOS/tasks.c **** 	BaseT_t. */
1725:FreeRTOS/tasks.c **** 	return uxCurrentNumberOfTasks;
 2057              		.loc 1 1725 0
 2058 0004 034B     		ldr	r3, .L153	@ tmp112,
 2059 0006 1B68     		ldr	r3, [r3]	@ D.6534, uxCurrentNumberOfTasks
1726:FreeRTOS/tasks.c **** }
 2060              		.loc 1 1726 0
 2061 0008 1846     		mov	r0, r3	@, <retval>
 2062 000a BD46     		mov	sp, r7	@,
 2063              		.cfi_def_cfa_register 13
 2064              		@ sp needed	@
 2065 000c 5DF8047B 		ldr	r7, [sp], #4	@,
 2066              		.cfi_restore 7
ARM GAS  C:\Users\COSMIN~1.MAR\AppData\Local\Temp\ccJcV6ch.s 			page 68


 2067              		.cfi_def_cfa_offset 0
 2068 0010 7047     		bx	lr	@
 2069              	.L154:
 2070 0012 00BF     		.align	2
 2071              	.L153:
 2072 0014 00000000 		.word	uxCurrentNumberOfTasks
 2073              		.cfi_endproc
 2074              	.LFE17:
 2075              		.size	uxTaskGetNumberOfTasks, .-uxTaskGetNumberOfTasks
 2076              		.section	.text.uxTaskGetSystemState,"ax",%progbits
 2077              		.align	2
 2078              		.global	uxTaskGetSystemState
 2079              		.thumb
 2080              		.thumb_func
 2081              		.type	uxTaskGetSystemState, %function
 2082              	uxTaskGetSystemState:
 2083              	.LFB18:
1727:FreeRTOS/tasks.c **** /*-----------------------------------------------------------*/
1728:FreeRTOS/tasks.c **** 
1729:FreeRTOS/tasks.c **** #if ( INCLUDE_pcTaskGetTaskName == 1 )
1730:FreeRTOS/tasks.c **** 
1731:FreeRTOS/tasks.c **** 	char *pcTaskGetTaskName( TaskHandle_t xTaskToQuery ) /*lint !e971 Unqualified char types are allow
1732:FreeRTOS/tasks.c **** 	{
1733:FreeRTOS/tasks.c **** 	TCB_t *pxTCB;
1734:FreeRTOS/tasks.c **** 
1735:FreeRTOS/tasks.c **** 		/* If null is passed in here then the name of the calling task is being queried. */
1736:FreeRTOS/tasks.c **** 		pxTCB = prvGetTCBFromHandle( xTaskToQuery );
1737:FreeRTOS/tasks.c **** 		configASSERT( pxTCB );
1738:FreeRTOS/tasks.c **** 		return &( pxTCB->pcTaskName[ 0 ] );
1739:FreeRTOS/tasks.c **** 	}
1740:FreeRTOS/tasks.c **** 
1741:FreeRTOS/tasks.c **** #endif /* INCLUDE_pcTaskGetTaskName */
1742:FreeRTOS/tasks.c **** /*-----------------------------------------------------------*/
1743:FreeRTOS/tasks.c **** 
1744:FreeRTOS/tasks.c **** #if ( configUSE_TRACE_FACILITY == 1 )
1745:FreeRTOS/tasks.c **** 
1746:FreeRTOS/tasks.c **** 	UBaseT_t uxTaskGetSystemState( TaskStatus_t * const pxTaskStatusArray, const UBaseT_t uxArraySize,
1747:FreeRTOS/tasks.c **** 	{
 2084              		.loc 1 1747 0
 2085              		.cfi_startproc
 2086              		@ args = 0, pretend = 0, frame = 24
 2087              		@ frame_needed = 1, uses_anonymous_args = 0
 2088 0000 80B5     		push	{r7, lr}	@
 2089              		.cfi_def_cfa_offset 8
 2090              		.cfi_offset 7, -8
 2091              		.cfi_offset 14, -4
 2092 0002 86B0     		sub	sp, sp, #24	@,,
 2093              		.cfi_def_cfa_offset 32
 2094 0004 00AF     		add	r7, sp, #0	@,,
 2095              		.cfi_def_cfa_register 7
 2096 0006 F860     		str	r0, [r7, #12]	@ pxTaskStatusArray, pxTaskStatusArray
 2097 0008 B960     		str	r1, [r7, #8]	@ uxArraySize, uxArraySize
 2098 000a 7A60     		str	r2, [r7, #4]	@ pulTotalRunTime, pulTotalRunTime
1748:FreeRTOS/tasks.c **** 	UBaseT_t uxTask = 0, uxQueue = configMAX_PRIORITIES;
 2099              		.loc 1 1748 0
 2100 000c 0023     		movs	r3, #0	@ tmp131,
 2101 000e 7B61     		str	r3, [r7, #20]	@ tmp131, uxTask
ARM GAS  C:\Users\COSMIN~1.MAR\AppData\Local\Temp\ccJcV6ch.s 			page 69


 2102 0010 0823     		movs	r3, #8	@ tmp132,
 2103 0012 3B61     		str	r3, [r7, #16]	@ tmp132, uxQueue
1749:FreeRTOS/tasks.c **** 
1750:FreeRTOS/tasks.c **** 		vTaskSuspendAll();
 2104              		.loc 1 1750 0
 2105 0014 FFF7FEFF 		bl	vTaskSuspendAll	@
1751:FreeRTOS/tasks.c **** 		{
1752:FreeRTOS/tasks.c **** 			/* Is there a space in the array for each task in the system? */
1753:FreeRTOS/tasks.c **** 			if( uxArraySize >= uxCurrentNumberOfTasks )
 2106              		.loc 1 1753 0
 2107 0018 314B     		ldr	r3, .L160	@ tmp133,
 2108 001a 1B68     		ldr	r3, [r3]	@ D.6535, uxCurrentNumberOfTasks
 2109 001c BA68     		ldr	r2, [r7, #8]	@ tmp134, uxArraySize
 2110 001e 9A42     		cmp	r2, r3	@ tmp134, D.6535
 2111 0020 57D3     		bcc	.L156	@,
 2112              	.L157:
1754:FreeRTOS/tasks.c **** 			{
1755:FreeRTOS/tasks.c **** 				/* Fill in an TaskStatus_t structure with information on each
1756:FreeRTOS/tasks.c **** 				task in the Ready state. */
1757:FreeRTOS/tasks.c **** 				do
1758:FreeRTOS/tasks.c **** 				{
1759:FreeRTOS/tasks.c **** 					uxQueue--;
 2113              		.loc 1 1759 0 discriminator 1
 2114 0022 3B69     		ldr	r3, [r7, #16]	@ tmp136, uxQueue
 2115 0024 013B     		subs	r3, r3, #1	@ tmp135, tmp136,
 2116 0026 3B61     		str	r3, [r7, #16]	@ tmp135, uxQueue
1760:FreeRTOS/tasks.c **** 					uxTask += prvListTaskWithinSingleList( &( pxTaskStatusArray[ uxTask ] ), &( pxReadyTasksLists[
 2117              		.loc 1 1760 0 discriminator 1
 2118 0028 7B69     		ldr	r3, [r7, #20]	@ tmp137, uxTask
 2119 002a 5B01     		lsls	r3, r3, #5	@ D.6535, tmp137,
 2120 002c FA68     		ldr	r2, [r7, #12]	@ tmp138, pxTaskStatusArray
 2121 002e D118     		adds	r1, r2, r3	@ D.6536, tmp138, D.6535
 2122 0030 3A69     		ldr	r2, [r7, #16]	@ tmp139, uxQueue
 2123 0032 1346     		mov	r3, r2	@ tmp140, tmp139
 2124 0034 9B00     		lsls	r3, r3, #2	@ tmp140, tmp140,
 2125 0036 1344     		add	r3, r3, r2	@ tmp140, tmp139
 2126 0038 9B00     		lsls	r3, r3, #2	@ tmp141, tmp140,
 2127 003a 2A4A     		ldr	r2, .L160+4	@ tmp142,
 2128 003c 1344     		add	r3, r3, r2	@ D.6537, tmp142
 2129 003e 0846     		mov	r0, r1	@, D.6536
 2130 0040 1946     		mov	r1, r3	@, D.6537
 2131 0042 0122     		movs	r2, #1	@,
 2132 0044 FFF7FEFF 		bl	prvListTaskWithinSingleList	@
 2133 0048 0246     		mov	r2, r0	@ D.6535,
 2134 004a 7B69     		ldr	r3, [r7, #20]	@ tmp144, uxTask
 2135 004c 1344     		add	r3, r3, r2	@ tmp143, D.6535
 2136 004e 7B61     		str	r3, [r7, #20]	@ tmp143, uxTask
1761:FreeRTOS/tasks.c **** 
1762:FreeRTOS/tasks.c **** 				} while( uxQueue > ( UBaseT_t ) tskIDLE_PRIORITY ); /*lint !e961 MISRA exception as the casts a
 2137              		.loc 1 1762 0 discriminator 1
 2138 0050 3B69     		ldr	r3, [r7, #16]	@ tmp145, uxQueue
 2139 0052 002B     		cmp	r3, #0	@ tmp145,
 2140 0054 E5D1     		bne	.L157	@,
1763:FreeRTOS/tasks.c **** 
1764:FreeRTOS/tasks.c **** 				/* Fill in an TaskStatus_t structure with information on each
1765:FreeRTOS/tasks.c **** 				task in the Blocked state. */
1766:FreeRTOS/tasks.c **** 				uxTask += prvListTaskWithinSingleList( &( pxTaskStatusArray[ uxTask ] ), ( List_t * ) pxDelayed
ARM GAS  C:\Users\COSMIN~1.MAR\AppData\Local\Temp\ccJcV6ch.s 			page 70


 2141              		.loc 1 1766 0
 2142 0056 7B69     		ldr	r3, [r7, #20]	@ tmp146, uxTask
 2143 0058 5B01     		lsls	r3, r3, #5	@ D.6535, tmp146,
 2144 005a FA68     		ldr	r2, [r7, #12]	@ tmp147, pxTaskStatusArray
 2145 005c 1A44     		add	r2, r2, r3	@ D.6536, D.6535
 2146 005e 224B     		ldr	r3, .L160+8	@ tmp148,
 2147 0060 1B68     		ldr	r3, [r3]	@ D.6537, pxDelayedTaskList
 2148 0062 1046     		mov	r0, r2	@, D.6536
 2149 0064 1946     		mov	r1, r3	@, D.6537
 2150 0066 0222     		movs	r2, #2	@,
 2151 0068 FFF7FEFF 		bl	prvListTaskWithinSingleList	@
 2152 006c 0246     		mov	r2, r0	@ D.6535,
 2153 006e 7B69     		ldr	r3, [r7, #20]	@ tmp150, uxTask
 2154 0070 1344     		add	r3, r3, r2	@ tmp149, D.6535
 2155 0072 7B61     		str	r3, [r7, #20]	@ tmp149, uxTask
1767:FreeRTOS/tasks.c **** 				uxTask += prvListTaskWithinSingleList( &( pxTaskStatusArray[ uxTask ] ), ( List_t * ) pxOverflo
 2156              		.loc 1 1767 0
 2157 0074 7B69     		ldr	r3, [r7, #20]	@ tmp151, uxTask
 2158 0076 5B01     		lsls	r3, r3, #5	@ D.6535, tmp151,
 2159 0078 FA68     		ldr	r2, [r7, #12]	@ tmp152, pxTaskStatusArray
 2160 007a 1A44     		add	r2, r2, r3	@ D.6536, D.6535
 2161 007c 1B4B     		ldr	r3, .L160+12	@ tmp153,
 2162 007e 1B68     		ldr	r3, [r3]	@ D.6537, pxOverflowDelayedTaskList
 2163 0080 1046     		mov	r0, r2	@, D.6536
 2164 0082 1946     		mov	r1, r3	@, D.6537
 2165 0084 0222     		movs	r2, #2	@,
 2166 0086 FFF7FEFF 		bl	prvListTaskWithinSingleList	@
 2167 008a 0246     		mov	r2, r0	@ D.6535,
 2168 008c 7B69     		ldr	r3, [r7, #20]	@ tmp155, uxTask
 2169 008e 1344     		add	r3, r3, r2	@ tmp154, D.6535
 2170 0090 7B61     		str	r3, [r7, #20]	@ tmp154, uxTask
1768:FreeRTOS/tasks.c **** 
1769:FreeRTOS/tasks.c **** 				#if( INCLUDE_vTaskDelete == 1 )
1770:FreeRTOS/tasks.c **** 				{
1771:FreeRTOS/tasks.c **** 					/* Fill in an TaskStatus_t structure with information on
1772:FreeRTOS/tasks.c **** 					each task that has been deleted but not yet cleaned up. */
1773:FreeRTOS/tasks.c **** 					uxTask += prvListTaskWithinSingleList( &( pxTaskStatusArray[ uxTask ] ), &xTasksWaitingTermina
 2171              		.loc 1 1773 0
 2172 0092 7B69     		ldr	r3, [r7, #20]	@ tmp156, uxTask
 2173 0094 5B01     		lsls	r3, r3, #5	@ D.6535, tmp156,
 2174 0096 FA68     		ldr	r2, [r7, #12]	@ tmp157, pxTaskStatusArray
 2175 0098 1344     		add	r3, r3, r2	@ D.6536, tmp157
 2176 009a 1846     		mov	r0, r3	@, D.6536
 2177 009c 1449     		ldr	r1, .L160+16	@,
 2178 009e 0422     		movs	r2, #4	@,
 2179 00a0 FFF7FEFF 		bl	prvListTaskWithinSingleList	@
 2180 00a4 0246     		mov	r2, r0	@ D.6535,
 2181 00a6 7B69     		ldr	r3, [r7, #20]	@ tmp159, uxTask
 2182 00a8 1344     		add	r3, r3, r2	@ tmp158, D.6535
 2183 00aa 7B61     		str	r3, [r7, #20]	@ tmp158, uxTask
1774:FreeRTOS/tasks.c **** 				}
1775:FreeRTOS/tasks.c **** 				#endif
1776:FreeRTOS/tasks.c **** 
1777:FreeRTOS/tasks.c **** 				#if ( INCLUDE_vTaskSuspend == 1 )
1778:FreeRTOS/tasks.c **** 				{
1779:FreeRTOS/tasks.c **** 					/* Fill in an TaskStatus_t structure with information on
1780:FreeRTOS/tasks.c **** 					each task in the Suspended state. */
ARM GAS  C:\Users\COSMIN~1.MAR\AppData\Local\Temp\ccJcV6ch.s 			page 71


1781:FreeRTOS/tasks.c **** 					uxTask += prvListTaskWithinSingleList( &( pxTaskStatusArray[ uxTask ] ), &xSuspendedTaskList, 
 2184              		.loc 1 1781 0
 2185 00ac 7B69     		ldr	r3, [r7, #20]	@ tmp160, uxTask
 2186 00ae 5B01     		lsls	r3, r3, #5	@ D.6535, tmp160,
 2187 00b0 FA68     		ldr	r2, [r7, #12]	@ tmp161, pxTaskStatusArray
 2188 00b2 1344     		add	r3, r3, r2	@ D.6536, tmp161
 2189 00b4 1846     		mov	r0, r3	@, D.6536
 2190 00b6 0F49     		ldr	r1, .L160+20	@,
 2191 00b8 0322     		movs	r2, #3	@,
 2192 00ba FFF7FEFF 		bl	prvListTaskWithinSingleList	@
 2193 00be 0246     		mov	r2, r0	@ D.6535,
 2194 00c0 7B69     		ldr	r3, [r7, #20]	@ tmp163, uxTask
 2195 00c2 1344     		add	r3, r3, r2	@ tmp162, D.6535
 2196 00c4 7B61     		str	r3, [r7, #20]	@ tmp162, uxTask
1782:FreeRTOS/tasks.c **** 				}
1783:FreeRTOS/tasks.c **** 				#endif
1784:FreeRTOS/tasks.c **** 
1785:FreeRTOS/tasks.c **** 				#if ( configGENERATE_RUN_TIME_STATS == 1)
1786:FreeRTOS/tasks.c **** 				{
1787:FreeRTOS/tasks.c **** 					if( pulTotalRunTime != NULL )
1788:FreeRTOS/tasks.c **** 					{
1789:FreeRTOS/tasks.c **** 						#ifdef portALT_GET_RUN_TIME_COUNTER_VALUE
1790:FreeRTOS/tasks.c **** 							portALT_GET_RUN_TIME_COUNTER_VALUE( ( *pulTotalRunTime ) );
1791:FreeRTOS/tasks.c **** 						#else
1792:FreeRTOS/tasks.c **** 							*pulTotalRunTime = portGET_RUN_TIME_COUNTER_VALUE();
1793:FreeRTOS/tasks.c **** 						#endif
1794:FreeRTOS/tasks.c **** 					}
1795:FreeRTOS/tasks.c **** 				}
1796:FreeRTOS/tasks.c **** 				#else
1797:FreeRTOS/tasks.c **** 				{
1798:FreeRTOS/tasks.c **** 					if( pulTotalRunTime != NULL )
 2197              		.loc 1 1798 0
 2198 00c6 7B68     		ldr	r3, [r7, #4]	@ tmp164, pulTotalRunTime
 2199 00c8 002B     		cmp	r3, #0	@ tmp164,
 2200 00ca 02D0     		beq	.L156	@,
1799:FreeRTOS/tasks.c **** 					{
1800:FreeRTOS/tasks.c **** 						*pulTotalRunTime = 0;
 2201              		.loc 1 1800 0
 2202 00cc 7B68     		ldr	r3, [r7, #4]	@ tmp165, pulTotalRunTime
 2203 00ce 0022     		movs	r2, #0	@ tmp166,
 2204 00d0 1A60     		str	r2, [r3]	@ tmp166, *pulTotalRunTime_33(D)
 2205              	.L156:
1801:FreeRTOS/tasks.c **** 					}
1802:FreeRTOS/tasks.c **** 				}
1803:FreeRTOS/tasks.c **** 				#endif
1804:FreeRTOS/tasks.c **** 			}
1805:FreeRTOS/tasks.c **** 			else
1806:FreeRTOS/tasks.c **** 			{
1807:FreeRTOS/tasks.c **** 				mtCOVERAGE_TEST_MARKER();
1808:FreeRTOS/tasks.c **** 			}
1809:FreeRTOS/tasks.c **** 		}
1810:FreeRTOS/tasks.c **** 		( void ) xTaskResumeAll();
 2206              		.loc 1 1810 0
 2207 00d2 FFF7FEFF 		bl	xTaskResumeAll	@
1811:FreeRTOS/tasks.c **** 
1812:FreeRTOS/tasks.c **** 		return uxTask;
 2208              		.loc 1 1812 0
ARM GAS  C:\Users\COSMIN~1.MAR\AppData\Local\Temp\ccJcV6ch.s 			page 72


 2209 00d6 7B69     		ldr	r3, [r7, #20]	@ D.6538, uxTask
1813:FreeRTOS/tasks.c **** 	}
 2210              		.loc 1 1813 0
 2211 00d8 1846     		mov	r0, r3	@, <retval>
 2212 00da 1837     		adds	r7, r7, #24	@,,
 2213              		.cfi_def_cfa_offset 8
 2214 00dc BD46     		mov	sp, r7	@,
 2215              		.cfi_def_cfa_register 13
 2216              		@ sp needed	@
 2217 00de 80BD     		pop	{r7, pc}	@
 2218              	.L161:
 2219              		.align	2
 2220              	.L160:
 2221 00e0 00000000 		.word	uxCurrentNumberOfTasks
 2222 00e4 00000000 		.word	pxReadyTasksLists
 2223 00e8 00000000 		.word	pxDelayedTaskList
 2224 00ec 00000000 		.word	pxOverflowDelayedTaskList
 2225 00f0 00000000 		.word	xTasksWaitingTermination
 2226 00f4 00000000 		.word	xSuspendedTaskList
 2227              		.cfi_endproc
 2228              	.LFE18:
 2229              		.size	uxTaskGetSystemState, .-uxTaskGetSystemState
 2230              		.section	.text.xTaskIncrementTick,"ax",%progbits
 2231              		.align	2
 2232              		.global	xTaskIncrementTick
 2233              		.thumb
 2234              		.thumb_func
 2235              		.type	xTaskIncrementTick, %function
 2236              	xTaskIncrementTick:
 2237              	.LFB19:
1814:FreeRTOS/tasks.c **** 
1815:FreeRTOS/tasks.c **** #endif /* configUSE_TRACE_FACILITY */
1816:FreeRTOS/tasks.c **** /*----------------------------------------------------------*/
1817:FreeRTOS/tasks.c **** 
1818:FreeRTOS/tasks.c **** #if ( INCLUDE_xTaskGetIdleTaskHandle == 1 )
1819:FreeRTOS/tasks.c **** 
1820:FreeRTOS/tasks.c **** 	TaskHandle_t xTaskGetIdleTaskHandle( void )
1821:FreeRTOS/tasks.c **** 	{
1822:FreeRTOS/tasks.c **** 		/* If xTaskGetIdleTaskHandle() is called before the scheduler has been
1823:FreeRTOS/tasks.c **** 		started, then xIdleTaskHandle will be NULL. */
1824:FreeRTOS/tasks.c **** 		configASSERT( ( xIdleTaskHandle != NULL ) );
1825:FreeRTOS/tasks.c **** 		return xIdleTaskHandle;
1826:FreeRTOS/tasks.c **** 	}
1827:FreeRTOS/tasks.c **** 
1828:FreeRTOS/tasks.c **** #endif /* INCLUDE_xTaskGetIdleTaskHandle */
1829:FreeRTOS/tasks.c **** /*----------------------------------------------------------*/
1830:FreeRTOS/tasks.c **** 
1831:FreeRTOS/tasks.c **** /* This conditional compilation should use inequality to 0, not equality to 1.
1832:FreeRTOS/tasks.c **** This is to ensure vTaskStepTick() is available when user defined low power mode
1833:FreeRTOS/tasks.c **** implementations require configUSE_TICKLESS_IDLE to be set to a value other than
1834:FreeRTOS/tasks.c **** 1. */
1835:FreeRTOS/tasks.c **** #if ( configUSE_TICKLESS_IDLE != 0 )
1836:FreeRTOS/tasks.c **** 
1837:FreeRTOS/tasks.c **** 	void vTaskStepTick( const TickT_t xTicksToJump )
1838:FreeRTOS/tasks.c **** 	{
1839:FreeRTOS/tasks.c **** 		/* Correct the tick count value after a period during which the tick
1840:FreeRTOS/tasks.c **** 		was suppressed.  Note this does *not* call the tick hook function for
ARM GAS  C:\Users\COSMIN~1.MAR\AppData\Local\Temp\ccJcV6ch.s 			page 73


1841:FreeRTOS/tasks.c **** 		each stepped tick. */
1842:FreeRTOS/tasks.c **** 		configASSERT( ( xTickCount + xTicksToJump ) <= xNextTaskUnblockTime );
1843:FreeRTOS/tasks.c **** 		xTickCount += xTicksToJump;
1844:FreeRTOS/tasks.c **** 		traceINCREASE_TICK_COUNT( xTicksToJump );
1845:FreeRTOS/tasks.c **** 	}
1846:FreeRTOS/tasks.c **** 
1847:FreeRTOS/tasks.c **** #endif /* configUSE_TICKLESS_IDLE */
1848:FreeRTOS/tasks.c **** /*----------------------------------------------------------*/
1849:FreeRTOS/tasks.c **** 
1850:FreeRTOS/tasks.c **** BaseT_t xTaskIncrementTick( void )
1851:FreeRTOS/tasks.c **** {
 2238              		.loc 1 1851 0
 2239              		.cfi_startproc
 2240              		@ args = 0, pretend = 0, frame = 24
 2241              		@ frame_needed = 1, uses_anonymous_args = 0
 2242 0000 80B5     		push	{r7, lr}	@
 2243              		.cfi_def_cfa_offset 8
 2244              		.cfi_offset 7, -8
 2245              		.cfi_offset 14, -4
 2246 0002 86B0     		sub	sp, sp, #24	@,,
 2247              		.cfi_def_cfa_offset 32
 2248 0004 00AF     		add	r7, sp, #0	@,,
 2249              		.cfi_def_cfa_register 7
1852:FreeRTOS/tasks.c **** TCB_t * pxTCB;
1853:FreeRTOS/tasks.c **** TickT_t xItemValue;
1854:FreeRTOS/tasks.c **** BaseT_t xSwitchRequired = pdFALSE;
 2250              		.loc 1 1854 0
 2251 0006 0023     		movs	r3, #0	@ tmp147,
 2252 0008 7B61     		str	r3, [r7, #20]	@ tmp147, xSwitchRequired
1855:FreeRTOS/tasks.c **** 
1856:FreeRTOS/tasks.c **** 	/* Called by the portable layer each time a tick interrupt occurs.
1857:FreeRTOS/tasks.c **** 	Increments the tick then checks to see if the new tick value will cause any
1858:FreeRTOS/tasks.c **** 	tasks to be unblocked. */
1859:FreeRTOS/tasks.c **** 	traceTASK_INCREMENT_TICK( xTickCount );
1860:FreeRTOS/tasks.c **** 	if( uxSchedulerSuspended == ( UBaseT_t ) pdFALSE )
 2253              		.loc 1 1860 0
 2254 000a 524B     		ldr	r3, .L179	@ tmp148,
 2255 000c 1B68     		ldr	r3, [r3]	@ D.6540, uxSchedulerSuspended
 2256 000e 002B     		cmp	r3, #0	@ D.6540,
 2257 0010 40F08E80 		bne	.L163	@,
1861:FreeRTOS/tasks.c **** 	{
1862:FreeRTOS/tasks.c **** 		/* Increment the RTOS tick, switching the delayed and overflowed
1863:FreeRTOS/tasks.c **** 		delayed lists if it wraps to 0. */
1864:FreeRTOS/tasks.c **** 		++xTickCount;
 2258              		.loc 1 1864 0
 2259 0014 504B     		ldr	r3, .L179+4	@ tmp149,
 2260 0016 1B68     		ldr	r3, [r3]	@ D.6540, xTickCount
 2261 0018 0133     		adds	r3, r3, #1	@ D.6540, D.6540,
 2262 001a 4F4A     		ldr	r2, .L179+4	@ tmp150,
 2263 001c 1360     		str	r3, [r2]	@ D.6540, xTickCount
 2264              	.LBB8:
1865:FreeRTOS/tasks.c **** 
1866:FreeRTOS/tasks.c **** 		{
1867:FreeRTOS/tasks.c **** 			/* Minor optimisation.  The tick count cannot change in this
1868:FreeRTOS/tasks.c **** 			block. */
1869:FreeRTOS/tasks.c **** 			const TickT_t xConstTickCount = xTickCount;
 2265              		.loc 1 1869 0
ARM GAS  C:\Users\COSMIN~1.MAR\AppData\Local\Temp\ccJcV6ch.s 			page 74


 2266 001e 4E4B     		ldr	r3, .L179+4	@ tmp151,
 2267 0020 1B68     		ldr	r3, [r3]	@ tmp152, xTickCount
 2268 0022 3B61     		str	r3, [r7, #16]	@ tmp152, xConstTickCount
1870:FreeRTOS/tasks.c **** 
1871:FreeRTOS/tasks.c **** 			if( xConstTickCount == ( TickT_t ) 0U )
 2269              		.loc 1 1871 0
 2270 0024 3B69     		ldr	r3, [r7, #16]	@ tmp153, xConstTickCount
 2271 0026 002B     		cmp	r3, #0	@ tmp153,
 2272 0028 18D1     		bne	.L164	@,
 2273              	.LBB9:
1872:FreeRTOS/tasks.c **** 			{
1873:FreeRTOS/tasks.c **** 				taskSWITCH_DELAYED_LISTS();
 2274              		.loc 1 1873 0
 2275 002a 4C4B     		ldr	r3, .L179+8	@ tmp154,
 2276 002c 1B68     		ldr	r3, [r3]	@ D.6541, pxDelayedTaskList
 2277 002e 1B68     		ldr	r3, [r3]	@ D.6540, _13->uxNumberOfItems
 2278 0030 002B     		cmp	r3, #0	@ D.6540,
 2279 0032 02D0     		beq	.L165	@,
 2280              		.loc 1 1873 0 is_stmt 0 discriminator 1
 2281 0034 FFF7FEFF 		bl	ulPortSetInterruptMask	@
 2282              	.L166:
 2283 0038 FEE7     		b	.L166	@
 2284              	.L165:
 2285              		.loc 1 1873 0 discriminator 2
 2286 003a 484B     		ldr	r3, .L179+8	@ tmp155,
 2287 003c 1B68     		ldr	r3, [r3]	@ tmp156, pxDelayedTaskList
 2288 003e FB60     		str	r3, [r7, #12]	@ tmp156, pxTemp
 2289 0040 474B     		ldr	r3, .L179+12	@ tmp157,
 2290 0042 1B68     		ldr	r3, [r3]	@ D.6541, pxOverflowDelayedTaskList
 2291 0044 454A     		ldr	r2, .L179+8	@ tmp158,
 2292 0046 1360     		str	r3, [r2]	@ D.6541, pxDelayedTaskList
 2293 0048 454A     		ldr	r2, .L179+12	@ tmp159,
 2294 004a FB68     		ldr	r3, [r7, #12]	@ tmp160, pxTemp
 2295 004c 1360     		str	r3, [r2]	@ tmp160, pxOverflowDelayedTaskList
 2296 004e 454B     		ldr	r3, .L179+16	@ tmp161,
 2297 0050 1B68     		ldr	r3, [r3]	@ D.6542, xNumOfOverflows
 2298 0052 0133     		adds	r3, r3, #1	@ D.6542, D.6542,
 2299 0054 434A     		ldr	r2, .L179+16	@ tmp162,
 2300 0056 1360     		str	r3, [r2]	@ D.6542, xNumOfOverflows
 2301 0058 FFF7FEFF 		bl	prvResetNextTaskUnblockTime	@
 2302              	.L164:
 2303              	.LBE9:
1874:FreeRTOS/tasks.c **** 			}
1875:FreeRTOS/tasks.c **** 			else
1876:FreeRTOS/tasks.c **** 			{
1877:FreeRTOS/tasks.c **** 				mtCOVERAGE_TEST_MARKER();
1878:FreeRTOS/tasks.c **** 			}
1879:FreeRTOS/tasks.c **** 
1880:FreeRTOS/tasks.c **** 			/* See if this tick has made a timeout expire.  Tasks are stored in
1881:FreeRTOS/tasks.c **** 			the	queue in the order of their wake time - meaning once one task
1882:FreeRTOS/tasks.c **** 			has been found whose block time has not expired there is no need to
1883:FreeRTOS/tasks.c **** 			look any further	down the list. */
1884:FreeRTOS/tasks.c **** 			if( xConstTickCount >= xNextTaskUnblockTime )
 2304              		.loc 1 1884 0 is_stmt 1
 2305 005c 424B     		ldr	r3, .L179+20	@ tmp163,
 2306 005e 1B68     		ldr	r3, [r3]	@ D.6540, xNextTaskUnblockTime
 2307 0060 3A69     		ldr	r2, [r7, #16]	@ tmp164, xConstTickCount
ARM GAS  C:\Users\COSMIN~1.MAR\AppData\Local\Temp\ccJcV6ch.s 			page 75


 2308 0062 9A42     		cmp	r2, r3	@ tmp164, D.6540
 2309 0064 4FD3     		bcc	.L167	@,
 2310              	.L174:
1885:FreeRTOS/tasks.c **** 			{
1886:FreeRTOS/tasks.c **** 				for( ;; )
1887:FreeRTOS/tasks.c **** 				{
1888:FreeRTOS/tasks.c **** 					if( listLIST_IS_EMPTY( pxDelayedTaskList ) != pdFALSE )
 2311              		.loc 1 1888 0
 2312 0066 3D4B     		ldr	r3, .L179+8	@ tmp165,
 2313 0068 1B68     		ldr	r3, [r3]	@ D.6541, pxDelayedTaskList
 2314 006a 1B68     		ldr	r3, [r3]	@ D.6540, _20->uxNumberOfItems
 2315 006c 002B     		cmp	r3, #0	@ D.6540,
 2316 006e 01D1     		bne	.L168	@,
 2317              		.loc 1 1888 0 is_stmt 0 discriminator 1
 2318 0070 0123     		movs	r3, #1	@ D.6539,
 2319 0072 00E0     		b	.L169	@
 2320              	.L168:
 2321              		.loc 1 1888 0 discriminator 2
 2322 0074 0023     		movs	r3, #0	@ D.6539,
 2323              	.L169:
 2324              		.loc 1 1888 0 discriminator 4
 2325 0076 002B     		cmp	r3, #0	@ D.6539,
 2326 0078 04D0     		beq	.L170	@,
1889:FreeRTOS/tasks.c **** 					{
1890:FreeRTOS/tasks.c **** 						/* The delayed list is empty.  Set xNextTaskUnblockTime
1891:FreeRTOS/tasks.c **** 						to the maximum possible value so it is extremely
1892:FreeRTOS/tasks.c **** 						unlikely that the
1893:FreeRTOS/tasks.c **** 						if( xTickCount >= xNextTaskUnblockTime ) test will pass
1894:FreeRTOS/tasks.c **** 						next time through. */
1895:FreeRTOS/tasks.c **** 						xNextTaskUnblockTime = portMAX_DELAY;
 2327              		.loc 1 1895 0 is_stmt 1
 2328 007a 3B4B     		ldr	r3, .L179+20	@ tmp166,
 2329 007c 4FF0FF32 		mov	r2, #-1	@ tmp167,
 2330 0080 1A60     		str	r2, [r3]	@ tmp167, xNextTaskUnblockTime
1896:FreeRTOS/tasks.c **** 						break;
 2331              		.loc 1 1896 0
 2332 0082 40E0     		b	.L167	@
 2333              	.L170:
1897:FreeRTOS/tasks.c **** 					}
1898:FreeRTOS/tasks.c **** 					else
1899:FreeRTOS/tasks.c **** 					{
1900:FreeRTOS/tasks.c **** 						/* The delayed list is not empty, get the value of the
1901:FreeRTOS/tasks.c **** 						item at the head of the delayed list.  This is the time
1902:FreeRTOS/tasks.c **** 						at which the task at the head of the delayed list must
1903:FreeRTOS/tasks.c **** 						be removed from the Blocked state. */
1904:FreeRTOS/tasks.c **** 						pxTCB = ( TCB_t * ) listGET_OWNER_OF_HEAD_ENTRY( pxDelayedTaskList );
 2334              		.loc 1 1904 0
 2335 0084 354B     		ldr	r3, .L179+8	@ tmp168,
 2336 0086 1B68     		ldr	r3, [r3]	@ D.6541, pxDelayedTaskList
 2337 0088 DB68     		ldr	r3, [r3, #12]	@ D.6543, _24->xListEnd.pxNext
 2338 008a DB68     		ldr	r3, [r3, #12]	@ tmp169, _25->pvOwner
 2339 008c BB60     		str	r3, [r7, #8]	@ tmp169, pxTCB
1905:FreeRTOS/tasks.c **** 						xItemValue = listGET_LIST_ITEM_VALUE( &( pxTCB->xGenericListItem ) );
 2340              		.loc 1 1905 0
 2341 008e BB68     		ldr	r3, [r7, #8]	@ tmp170, pxTCB
 2342 0090 5B68     		ldr	r3, [r3, #4]	@ tmp171, pxTCB_26->xGenericListItem.xItemValue
 2343 0092 7B60     		str	r3, [r7, #4]	@ tmp171, xItemValue
ARM GAS  C:\Users\COSMIN~1.MAR\AppData\Local\Temp\ccJcV6ch.s 			page 76


1906:FreeRTOS/tasks.c **** 
1907:FreeRTOS/tasks.c **** 						if( xConstTickCount < xItemValue )
 2344              		.loc 1 1907 0
 2345 0094 3A69     		ldr	r2, [r7, #16]	@ tmp172, xConstTickCount
 2346 0096 7B68     		ldr	r3, [r7, #4]	@ tmp173, xItemValue
 2347 0098 9A42     		cmp	r2, r3	@ tmp172, tmp173
 2348 009a 03D2     		bcs	.L171	@,
1908:FreeRTOS/tasks.c **** 						{
1909:FreeRTOS/tasks.c **** 							/* It is not time to unblock this item yet, but the
1910:FreeRTOS/tasks.c **** 							item value is the time at which the task at the head
1911:FreeRTOS/tasks.c **** 							of the blocked list must be removed from the Blocked
1912:FreeRTOS/tasks.c **** 							state -	so record the item value in
1913:FreeRTOS/tasks.c **** 							xNextTaskUnblockTime. */
1914:FreeRTOS/tasks.c **** 							xNextTaskUnblockTime = xItemValue;
 2349              		.loc 1 1914 0
 2350 009c 324A     		ldr	r2, .L179+20	@ tmp174,
 2351 009e 7B68     		ldr	r3, [r7, #4]	@ tmp175, xItemValue
 2352 00a0 1360     		str	r3, [r2]	@ tmp175, xNextTaskUnblockTime
1915:FreeRTOS/tasks.c **** 							break;
 2353              		.loc 1 1915 0
 2354 00a2 30E0     		b	.L167	@
 2355              	.L171:
1916:FreeRTOS/tasks.c **** 						}
1917:FreeRTOS/tasks.c **** 						else
1918:FreeRTOS/tasks.c **** 						{
1919:FreeRTOS/tasks.c **** 							mtCOVERAGE_TEST_MARKER();
1920:FreeRTOS/tasks.c **** 						}
1921:FreeRTOS/tasks.c **** 
1922:FreeRTOS/tasks.c **** 						/* It is time to remove the item from the Blocked state. */
1923:FreeRTOS/tasks.c **** 						( void ) uxListRemove( &( pxTCB->xGenericListItem ) );
 2356              		.loc 1 1923 0
 2357 00a4 BB68     		ldr	r3, [r7, #8]	@ tmp176, pxTCB
 2358 00a6 0433     		adds	r3, r3, #4	@ D.6544, tmp176,
 2359 00a8 1846     		mov	r0, r3	@, D.6544
 2360 00aa FFF7FEFF 		bl	uxListRemove	@
1924:FreeRTOS/tasks.c **** 
1925:FreeRTOS/tasks.c **** 						/* Is the task waiting on an event also?  If so remove
1926:FreeRTOS/tasks.c **** 						it from the event list. */
1927:FreeRTOS/tasks.c **** 						if( listLIST_ITEM_CONTAINER( &( pxTCB->xEventListItem ) ) != NULL )
 2361              		.loc 1 1927 0
 2362 00ae BB68     		ldr	r3, [r7, #8]	@ tmp177, pxTCB
 2363 00b0 9B6A     		ldr	r3, [r3, #40]	@ D.6545, pxTCB_26->xEventListItem.pvContainer
 2364 00b2 002B     		cmp	r3, #0	@ D.6545,
 2365 00b4 04D0     		beq	.L172	@,
1928:FreeRTOS/tasks.c **** 						{
1929:FreeRTOS/tasks.c **** 							( void ) uxListRemove( &( pxTCB->xEventListItem ) );
 2366              		.loc 1 1929 0
 2367 00b6 BB68     		ldr	r3, [r7, #8]	@ tmp178, pxTCB
 2368 00b8 1833     		adds	r3, r3, #24	@ D.6544, tmp178,
 2369 00ba 1846     		mov	r0, r3	@, D.6544
 2370 00bc FFF7FEFF 		bl	uxListRemove	@
 2371              	.L172:
1930:FreeRTOS/tasks.c **** 						}
1931:FreeRTOS/tasks.c **** 						else
1932:FreeRTOS/tasks.c **** 						{
1933:FreeRTOS/tasks.c **** 							mtCOVERAGE_TEST_MARKER();
1934:FreeRTOS/tasks.c **** 						}
ARM GAS  C:\Users\COSMIN~1.MAR\AppData\Local\Temp\ccJcV6ch.s 			page 77


1935:FreeRTOS/tasks.c **** 
1936:FreeRTOS/tasks.c **** 						/* Place the unblocked task into the appropriate ready
1937:FreeRTOS/tasks.c **** 						list. */
1938:FreeRTOS/tasks.c **** 						prvAddTaskToReadyList( pxTCB );
 2372              		.loc 1 1938 0
 2373 00c0 BB68     		ldr	r3, [r7, #8]	@ tmp179, pxTCB
 2374 00c2 DB6A     		ldr	r3, [r3, #44]	@ D.6540, pxTCB_26->uxPriority
 2375 00c4 1A46     		mov	r2, r3	@ D.6546, D.6540
 2376 00c6 0123     		movs	r3, #1	@ tmp180,
 2377 00c8 03FA02F2 		lsl	r2, r3, r2	@ D.6540, tmp180, D.6546
 2378 00cc 274B     		ldr	r3, .L179+24	@ tmp181,
 2379 00ce 1B68     		ldr	r3, [r3]	@ D.6540, uxTopReadyPriority
 2380 00d0 1343     		orrs	r3, r3, r2	@, D.6540, D.6540, D.6540
 2381 00d2 264A     		ldr	r2, .L179+24	@ tmp182,
 2382 00d4 1360     		str	r3, [r2]	@ D.6540, uxTopReadyPriority
 2383 00d6 BB68     		ldr	r3, [r7, #8]	@ tmp183, pxTCB
 2384 00d8 DA6A     		ldr	r2, [r3, #44]	@ D.6540, pxTCB_26->uxPriority
 2385 00da 1346     		mov	r3, r2	@ tmp184, D.6540
 2386 00dc 9B00     		lsls	r3, r3, #2	@ tmp184, tmp184,
 2387 00de 1344     		add	r3, r3, r2	@ tmp184, D.6540
 2388 00e0 9B00     		lsls	r3, r3, #2	@ tmp185, tmp184,
 2389 00e2 234A     		ldr	r2, .L179+28	@ tmp186,
 2390 00e4 1A44     		add	r2, r2, r3	@ D.6541, tmp184
 2391 00e6 BB68     		ldr	r3, [r7, #8]	@ tmp187, pxTCB
 2392 00e8 0433     		adds	r3, r3, #4	@ D.6544, tmp187,
 2393 00ea 1046     		mov	r0, r2	@, D.6541
 2394 00ec 1946     		mov	r1, r3	@, D.6544
 2395 00ee FFF7FEFF 		bl	vListInsertEnd	@
1939:FreeRTOS/tasks.c **** 
1940:FreeRTOS/tasks.c **** 						/* A task being unblocked cannot cause an immediate
1941:FreeRTOS/tasks.c **** 						context switch if preemption is turned off. */
1942:FreeRTOS/tasks.c **** 						#if (  configUSE_PREEMPTION == 1 )
1943:FreeRTOS/tasks.c **** 						{
1944:FreeRTOS/tasks.c **** 							/* Preemption is on, but a context switch should
1945:FreeRTOS/tasks.c **** 							only be performed if the unblocked task has a
1946:FreeRTOS/tasks.c **** 							priority that is equal to or higher than the
1947:FreeRTOS/tasks.c **** 							currently executing task. */
1948:FreeRTOS/tasks.c **** 							if( pxTCB->uxPriority >= pxCurrentTCB->uxPriority )
 2396              		.loc 1 1948 0
 2397 00f2 BB68     		ldr	r3, [r7, #8]	@ tmp188, pxTCB
 2398 00f4 DA6A     		ldr	r2, [r3, #44]	@ D.6540, pxTCB_26->uxPriority
 2399 00f6 1F4B     		ldr	r3, .L179+32	@ tmp189,
 2400 00f8 1B68     		ldr	r3, [r3]	@ D.6547, pxCurrentTCB
 2401 00fa DB6A     		ldr	r3, [r3, #44]	@ D.6540, _40->uxPriority
 2402 00fc 9A42     		cmp	r2, r3	@ D.6540, D.6540
 2403 00fe 01D3     		bcc	.L173	@,
1949:FreeRTOS/tasks.c **** 							{
1950:FreeRTOS/tasks.c **** 								xSwitchRequired = pdTRUE;
 2404              		.loc 1 1950 0
 2405 0100 0123     		movs	r3, #1	@ tmp190,
 2406 0102 7B61     		str	r3, [r7, #20]	@ tmp190, xSwitchRequired
 2407              	.L173:
1951:FreeRTOS/tasks.c **** 							}
1952:FreeRTOS/tasks.c **** 							else
1953:FreeRTOS/tasks.c **** 							{
1954:FreeRTOS/tasks.c **** 								mtCOVERAGE_TEST_MARKER();
1955:FreeRTOS/tasks.c **** 							}
ARM GAS  C:\Users\COSMIN~1.MAR\AppData\Local\Temp\ccJcV6ch.s 			page 78


1956:FreeRTOS/tasks.c **** 						}
1957:FreeRTOS/tasks.c **** 						#endif /* configUSE_PREEMPTION */
1958:FreeRTOS/tasks.c **** 					}
1959:FreeRTOS/tasks.c **** 				}
 2408              		.loc 1 1959 0
 2409 0104 AFE7     		b	.L174	@
 2410              	.L167:
 2411              	.LBE8:
1960:FreeRTOS/tasks.c **** 			}
1961:FreeRTOS/tasks.c **** 		}
1962:FreeRTOS/tasks.c **** 
1963:FreeRTOS/tasks.c **** 		/* Tasks of equal priority to the currently running task will share
1964:FreeRTOS/tasks.c **** 		processing time (time slice) if preemption is on, and the application
1965:FreeRTOS/tasks.c **** 		writer has not explicitly turned time slicing off. */
1966:FreeRTOS/tasks.c **** 		#if ( ( configUSE_PREEMPTION == 1 ) && ( configUSE_TIME_SLICING == 1 ) )
1967:FreeRTOS/tasks.c **** 		{
1968:FreeRTOS/tasks.c **** 			if( listCURRENT_LIST_LENGTH( &( pxReadyTasksLists[ pxCurrentTCB->uxPriority ] ) ) > ( UBaseT_t )
 2412              		.loc 1 1968 0
 2413 0106 1B4B     		ldr	r3, .L179+32	@ tmp191,
 2414 0108 1B68     		ldr	r3, [r3]	@ D.6547, pxCurrentTCB
 2415 010a DA6A     		ldr	r2, [r3, #44]	@ D.6540, _43->uxPriority
 2416 010c 1849     		ldr	r1, .L179+28	@ tmp192,
 2417 010e 1346     		mov	r3, r2	@ tmp193, D.6540
 2418 0110 9B00     		lsls	r3, r3, #2	@ tmp193, tmp193,
 2419 0112 1344     		add	r3, r3, r2	@ tmp193, D.6540
 2420 0114 9B00     		lsls	r3, r3, #2	@ tmp194, tmp193,
 2421 0116 0B44     		add	r3, r3, r1	@ tmp195, tmp192
 2422 0118 1B68     		ldr	r3, [r3]	@ D.6540, pxReadyTasksLists[_44].uxNumberOfItems
 2423 011a 012B     		cmp	r3, #1	@ D.6540,
 2424 011c 01D9     		bls	.L175	@,
1969:FreeRTOS/tasks.c **** 			{
1970:FreeRTOS/tasks.c **** 				xSwitchRequired = pdTRUE;
 2425              		.loc 1 1970 0
 2426 011e 0123     		movs	r3, #1	@ tmp196,
 2427 0120 7B61     		str	r3, [r7, #20]	@ tmp196, xSwitchRequired
 2428              	.L175:
1971:FreeRTOS/tasks.c **** 			}
1972:FreeRTOS/tasks.c **** 			else
1973:FreeRTOS/tasks.c **** 			{
1974:FreeRTOS/tasks.c **** 				mtCOVERAGE_TEST_MARKER();
1975:FreeRTOS/tasks.c **** 			}
1976:FreeRTOS/tasks.c **** 		}
1977:FreeRTOS/tasks.c **** 		#endif /* ( ( configUSE_PREEMPTION == 1 ) && ( configUSE_TIME_SLICING == 1 ) ) */
1978:FreeRTOS/tasks.c **** 
1979:FreeRTOS/tasks.c **** 		#if ( configUSE_TICK_HOOK == 1 )
1980:FreeRTOS/tasks.c **** 		{
1981:FreeRTOS/tasks.c **** 			/* Guard against the tick hook being called when the pended tick
1982:FreeRTOS/tasks.c **** 			count is being unwound (when the scheduler is being unlocked). */
1983:FreeRTOS/tasks.c **** 			if( uxPendedTicks == ( UBaseT_t ) 0U )
 2429              		.loc 1 1983 0
 2430 0122 154B     		ldr	r3, .L179+36	@ tmp197,
 2431 0124 1B68     		ldr	r3, [r3]	@ D.6540, uxPendedTicks
 2432 0126 002B     		cmp	r3, #0	@ D.6540,
 2433 0128 09D1     		bne	.L176	@,
1984:FreeRTOS/tasks.c **** 			{
1985:FreeRTOS/tasks.c **** 				vApplicationTickHook();
 2434              		.loc 1 1985 0
ARM GAS  C:\Users\COSMIN~1.MAR\AppData\Local\Temp\ccJcV6ch.s 			page 79


 2435 012a FFF7FEFF 		bl	vApplicationTickHook	@
 2436 012e 06E0     		b	.L176	@
 2437              	.L163:
1986:FreeRTOS/tasks.c **** 			}
1987:FreeRTOS/tasks.c **** 			else
1988:FreeRTOS/tasks.c **** 			{
1989:FreeRTOS/tasks.c **** 				mtCOVERAGE_TEST_MARKER();
1990:FreeRTOS/tasks.c **** 			}
1991:FreeRTOS/tasks.c **** 		}
1992:FreeRTOS/tasks.c **** 		#endif /* configUSE_TICK_HOOK */
1993:FreeRTOS/tasks.c **** 	}
1994:FreeRTOS/tasks.c **** 	else
1995:FreeRTOS/tasks.c **** 	{
1996:FreeRTOS/tasks.c **** 		++uxPendedTicks;
 2438              		.loc 1 1996 0
 2439 0130 114B     		ldr	r3, .L179+36	@ tmp198,
 2440 0132 1B68     		ldr	r3, [r3]	@ D.6540, uxPendedTicks
 2441 0134 0133     		adds	r3, r3, #1	@ D.6540, D.6540,
 2442 0136 104A     		ldr	r2, .L179+36	@ tmp199,
 2443 0138 1360     		str	r3, [r2]	@ D.6540, uxPendedTicks
1997:FreeRTOS/tasks.c **** 
1998:FreeRTOS/tasks.c **** 		/* The tick hook gets called at regular intervals, even if the
1999:FreeRTOS/tasks.c **** 		scheduler is locked. */
2000:FreeRTOS/tasks.c **** 		#if ( configUSE_TICK_HOOK == 1 )
2001:FreeRTOS/tasks.c **** 		{
2002:FreeRTOS/tasks.c **** 			vApplicationTickHook();
 2444              		.loc 1 2002 0
 2445 013a FFF7FEFF 		bl	vApplicationTickHook	@
 2446              	.L176:
2003:FreeRTOS/tasks.c **** 		}
2004:FreeRTOS/tasks.c **** 		#endif
2005:FreeRTOS/tasks.c **** 	}
2006:FreeRTOS/tasks.c **** 
2007:FreeRTOS/tasks.c **** 	#if ( configUSE_PREEMPTION == 1 )
2008:FreeRTOS/tasks.c **** 	{
2009:FreeRTOS/tasks.c **** 		if( xYieldPending != pdFALSE )
 2447              		.loc 1 2009 0
 2448 013e 0F4B     		ldr	r3, .L179+40	@ tmp200,
 2449 0140 1B68     		ldr	r3, [r3]	@ D.6542, xYieldPending
 2450 0142 002B     		cmp	r3, #0	@ D.6542,
 2451 0144 01D0     		beq	.L177	@,
2010:FreeRTOS/tasks.c **** 		{
2011:FreeRTOS/tasks.c **** 			xSwitchRequired = pdTRUE;
 2452              		.loc 1 2011 0
 2453 0146 0123     		movs	r3, #1	@ tmp201,
 2454 0148 7B61     		str	r3, [r7, #20]	@ tmp201, xSwitchRequired
 2455              	.L177:
2012:FreeRTOS/tasks.c **** 		}
2013:FreeRTOS/tasks.c **** 		else
2014:FreeRTOS/tasks.c **** 		{
2015:FreeRTOS/tasks.c **** 			mtCOVERAGE_TEST_MARKER();
2016:FreeRTOS/tasks.c **** 		}
2017:FreeRTOS/tasks.c **** 	}
2018:FreeRTOS/tasks.c **** 	#endif /* configUSE_PREEMPTION */
2019:FreeRTOS/tasks.c **** 
2020:FreeRTOS/tasks.c **** 	return xSwitchRequired;
 2456              		.loc 1 2020 0
ARM GAS  C:\Users\COSMIN~1.MAR\AppData\Local\Temp\ccJcV6ch.s 			page 80


 2457 014a 7B69     		ldr	r3, [r7, #20]	@ D.6548, xSwitchRequired
2021:FreeRTOS/tasks.c **** }
 2458              		.loc 1 2021 0
 2459 014c 1846     		mov	r0, r3	@, <retval>
 2460 014e 1837     		adds	r7, r7, #24	@,,
 2461              		.cfi_def_cfa_offset 8
 2462 0150 BD46     		mov	sp, r7	@,
 2463              		.cfi_def_cfa_register 13
 2464              		@ sp needed	@
 2465 0152 80BD     		pop	{r7, pc}	@
 2466              	.L180:
 2467              		.align	2
 2468              	.L179:
 2469 0154 00000000 		.word	uxSchedulerSuspended
 2470 0158 00000000 		.word	xTickCount
 2471 015c 00000000 		.word	pxDelayedTaskList
 2472 0160 00000000 		.word	pxOverflowDelayedTaskList
 2473 0164 00000000 		.word	xNumOfOverflows
 2474 0168 00000000 		.word	xNextTaskUnblockTime
 2475 016c 00000000 		.word	uxTopReadyPriority
 2476 0170 00000000 		.word	pxReadyTasksLists
 2477 0174 00000000 		.word	pxCurrentTCB
 2478 0178 00000000 		.word	uxPendedTicks
 2479 017c 00000000 		.word	xYieldPending
 2480              		.cfi_endproc
 2481              	.LFE19:
 2482              		.size	xTaskIncrementTick, .-xTaskIncrementTick
 2483              		.section	.text.vTaskSwitchContext,"ax",%progbits
 2484              		.align	2
 2485              		.global	vTaskSwitchContext
 2486              		.thumb
 2487              		.thumb_func
 2488              		.type	vTaskSwitchContext, %function
 2489              	vTaskSwitchContext:
 2490              	.LFB20:
2022:FreeRTOS/tasks.c **** /*-----------------------------------------------------------*/
2023:FreeRTOS/tasks.c **** 
2024:FreeRTOS/tasks.c **** #if ( configUSE_APPLICATION_TASK_TAG == 1 )
2025:FreeRTOS/tasks.c **** 
2026:FreeRTOS/tasks.c **** 	void vTaskSetApplicationTaskTag( TaskHandle_t xTask, TaskHookFunction_t pxHookFunction )
2027:FreeRTOS/tasks.c **** 	{
2028:FreeRTOS/tasks.c **** 	TCB_t *xTCB;
2029:FreeRTOS/tasks.c **** 
2030:FreeRTOS/tasks.c **** 		/* If xTask is NULL then it is the task hook of the calling task that is
2031:FreeRTOS/tasks.c **** 		getting set. */
2032:FreeRTOS/tasks.c **** 		if( xTask == NULL )
2033:FreeRTOS/tasks.c **** 		{
2034:FreeRTOS/tasks.c **** 			xTCB = ( TCB_t * ) pxCurrentTCB;
2035:FreeRTOS/tasks.c **** 		}
2036:FreeRTOS/tasks.c **** 		else
2037:FreeRTOS/tasks.c **** 		{
2038:FreeRTOS/tasks.c **** 			xTCB = ( TCB_t * ) xTask;
2039:FreeRTOS/tasks.c **** 		}
2040:FreeRTOS/tasks.c **** 
2041:FreeRTOS/tasks.c **** 		/* Save the hook function in the TCB.  A critical section is required as
2042:FreeRTOS/tasks.c **** 		the value can be accessed from an interrupt. */
2043:FreeRTOS/tasks.c **** 		taskENTER_CRITICAL();
ARM GAS  C:\Users\COSMIN~1.MAR\AppData\Local\Temp\ccJcV6ch.s 			page 81


2044:FreeRTOS/tasks.c **** 			xTCB->pxTaskTag = pxHookFunction;
2045:FreeRTOS/tasks.c **** 		taskEXIT_CRITICAL();
2046:FreeRTOS/tasks.c **** 	}
2047:FreeRTOS/tasks.c **** 
2048:FreeRTOS/tasks.c **** #endif /* configUSE_APPLICATION_TASK_TAG */
2049:FreeRTOS/tasks.c **** /*-----------------------------------------------------------*/
2050:FreeRTOS/tasks.c **** 
2051:FreeRTOS/tasks.c **** #if ( configUSE_APPLICATION_TASK_TAG == 1 )
2052:FreeRTOS/tasks.c **** 
2053:FreeRTOS/tasks.c **** 	TaskHookFunction_t xTaskGetApplicationTaskTag( TaskHandle_t xTask )
2054:FreeRTOS/tasks.c **** 	{
2055:FreeRTOS/tasks.c **** 	TCB_t *xTCB;
2056:FreeRTOS/tasks.c **** 	TaskHookFunction_t xReturn;
2057:FreeRTOS/tasks.c **** 
2058:FreeRTOS/tasks.c **** 		/* If xTask is NULL then we are setting our own task hook. */
2059:FreeRTOS/tasks.c **** 		if( xTask == NULL )
2060:FreeRTOS/tasks.c **** 		{
2061:FreeRTOS/tasks.c **** 			xTCB = ( TCB_t * ) pxCurrentTCB;
2062:FreeRTOS/tasks.c **** 		}
2063:FreeRTOS/tasks.c **** 		else
2064:FreeRTOS/tasks.c **** 		{
2065:FreeRTOS/tasks.c **** 			xTCB = ( TCB_t * ) xTask;
2066:FreeRTOS/tasks.c **** 		}
2067:FreeRTOS/tasks.c **** 
2068:FreeRTOS/tasks.c **** 		/* Save the hook function in the TCB.  A critical section is required as
2069:FreeRTOS/tasks.c **** 		the value can be accessed from an interrupt. */
2070:FreeRTOS/tasks.c **** 		taskENTER_CRITICAL();
2071:FreeRTOS/tasks.c **** 		{
2072:FreeRTOS/tasks.c **** 			xReturn = xTCB->pxTaskTag;
2073:FreeRTOS/tasks.c **** 		}
2074:FreeRTOS/tasks.c **** 		taskEXIT_CRITICAL();
2075:FreeRTOS/tasks.c **** 
2076:FreeRTOS/tasks.c **** 		return xReturn;
2077:FreeRTOS/tasks.c **** 	}
2078:FreeRTOS/tasks.c **** 
2079:FreeRTOS/tasks.c **** #endif /* configUSE_APPLICATION_TASK_TAG */
2080:FreeRTOS/tasks.c **** /*-----------------------------------------------------------*/
2081:FreeRTOS/tasks.c **** 
2082:FreeRTOS/tasks.c **** #if ( configUSE_APPLICATION_TASK_TAG == 1 )
2083:FreeRTOS/tasks.c **** 
2084:FreeRTOS/tasks.c **** 	BaseT_t xTaskCallApplicationTaskHook( TaskHandle_t xTask, void *pvParameter )
2085:FreeRTOS/tasks.c **** 	{
2086:FreeRTOS/tasks.c **** 	TCB_t *xTCB;
2087:FreeRTOS/tasks.c **** 	BaseT_t xReturn;
2088:FreeRTOS/tasks.c **** 
2089:FreeRTOS/tasks.c **** 		/* If xTask is NULL then we are calling our own task hook. */
2090:FreeRTOS/tasks.c **** 		if( xTask == NULL )
2091:FreeRTOS/tasks.c **** 		{
2092:FreeRTOS/tasks.c **** 			xTCB = ( TCB_t * ) pxCurrentTCB;
2093:FreeRTOS/tasks.c **** 		}
2094:FreeRTOS/tasks.c **** 		else
2095:FreeRTOS/tasks.c **** 		{
2096:FreeRTOS/tasks.c **** 			xTCB = ( TCB_t * ) xTask;
2097:FreeRTOS/tasks.c **** 		}
2098:FreeRTOS/tasks.c **** 
2099:FreeRTOS/tasks.c **** 		if( xTCB->pxTaskTag != NULL )
2100:FreeRTOS/tasks.c **** 		{
ARM GAS  C:\Users\COSMIN~1.MAR\AppData\Local\Temp\ccJcV6ch.s 			page 82


2101:FreeRTOS/tasks.c **** 			xReturn = xTCB->pxTaskTag( pvParameter );
2102:FreeRTOS/tasks.c **** 		}
2103:FreeRTOS/tasks.c **** 		else
2104:FreeRTOS/tasks.c **** 		{
2105:FreeRTOS/tasks.c **** 			xReturn = pdFAIL;
2106:FreeRTOS/tasks.c **** 		}
2107:FreeRTOS/tasks.c **** 
2108:FreeRTOS/tasks.c **** 		return xReturn;
2109:FreeRTOS/tasks.c **** 	}
2110:FreeRTOS/tasks.c **** 
2111:FreeRTOS/tasks.c **** #endif /* configUSE_APPLICATION_TASK_TAG */
2112:FreeRTOS/tasks.c **** /*-----------------------------------------------------------*/
2113:FreeRTOS/tasks.c **** 
2114:FreeRTOS/tasks.c **** void vTaskSwitchContext( void )
2115:FreeRTOS/tasks.c **** {
 2491              		.loc 1 2115 0
 2492              		.cfi_startproc
 2493              		@ args = 0, pretend = 0, frame = 16
 2494              		@ frame_needed = 1, uses_anonymous_args = 0
 2495 0000 80B5     		push	{r7, lr}	@
 2496              		.cfi_def_cfa_offset 8
 2497              		.cfi_offset 7, -8
 2498              		.cfi_offset 14, -4
 2499 0002 84B0     		sub	sp, sp, #16	@,,
 2500              		.cfi_def_cfa_offset 24
 2501 0004 00AF     		add	r7, sp, #0	@,,
 2502              		.cfi_def_cfa_register 7
2116:FreeRTOS/tasks.c **** 	if( uxSchedulerSuspended != ( UBaseT_t ) pdFALSE )
 2503              		.loc 1 2116 0
 2504 0006 214B     		ldr	r3, .L188	@ tmp124,
 2505 0008 1B68     		ldr	r3, [r3]	@ D.6549, uxSchedulerSuspended
 2506 000a 002B     		cmp	r3, #0	@ D.6549,
 2507 000c 03D0     		beq	.L182	@,
2117:FreeRTOS/tasks.c **** 	{
2118:FreeRTOS/tasks.c **** 		/* The scheduler is currently suspended - do not allow a context
2119:FreeRTOS/tasks.c **** 		switch. */
