ARM GAS  C:\Users\COSMIN~1.MAR\AppData\Local\Temp\ccyAlg2e.s 			page 1


   1              		.syntax unified
   2              		.cpu cortex-m3
   3              		.fpu softvfp
   4              		.eabi_attribute 20, 1	@ Tag_ABI_FP_denormal
   5              		.eabi_attribute 21, 1	@ Tag_ABI_FP_exceptions
   6              		.eabi_attribute 23, 3	@ Tag_ABI_FP_number_model
   7              		.eabi_attribute 24, 1	@ Tag_ABI_align8_needed
   8              		.eabi_attribute 25, 1	@ Tag_ABI_align8_preserved
   9              		.eabi_attribute 26, 1	@ Tag_ABI_enum_size
  10              		.eabi_attribute 30, 6	@ Tag_ABI_optimization_goals
  11              		.eabi_attribute 34, 1	@ Tag_CPU_unaligned_access
  12              		.eabi_attribute 18, 4	@ Tag_ABI_PCS_wchar_t
  13              		.file	"event_groups.c"
  14              	@ GNU C (GNU Tools for ARM Embedded Processors) version 4.9.3 20150303 (release) [ARM/embedded-4_9-
  15              	@	compiled by GNU C version 4.7.4, GMP version 4.3.2, MPFR version 2.4.2, MPC version 0.8.1
  16              	@ GGC heuristics: --param ggc-min-expand=100 --param ggc-min-heapsize=131072
  17              	@ options passed:  -I . -I config -I system -I core -I drivers -I FreeRTOS
  18              	@ -I FreeRTOS/include -I FreeRTOS/portable/GCC/ARM_CM3 -I FreeRTOS/portable
  19              	@ -I tasks/rc_task_leds -I modules/rc_leds -I drivers/rc_system
  20              	@ -I drivers/rc_gpio -I drivers/rc_uart -I drivers/rc_pinsel
  21              	@ -I drivers/rc_timer -I drivers/rc_adc -imultilib armv7-m
  22              	@ -iprefix c:\gnu tools arm embedded\4.9 2015q1\bin\../lib/gcc/arm-none-eabi/4.9.3/
  23              	@ -isysroot c:\gnu tools arm embedded\4.9 2015q1\bin\../arm-none-eabi
  24              	@ -MD out/event_groups.d -MF out/event_groups.d -MP -MQ out/event_groups.o
  25              	@ -D__USES_INITFINI__ FreeRTOS/event_groups.c -mcpu=cortex-m3 -mthumb
  26              	@ -auxbase-strip out/event_groups.o -g -ggdb3 -O0 -Wall -Wstrict-prototypes
  27              	@ -Wextra -std=gnu90 -ffunction-sections -fdata-sections -fverbose-asm
  28              	@ options enabled:  -faggressive-loop-optimizations -fauto-inc-dec -fcommon
  29              	@ -fdata-sections -fdelete-null-pointer-checks -fdwarf2-cfi-asm
  30              	@ -fearly-inlining -feliminate-unused-debug-types -ffunction-cse
  31              	@ -ffunction-sections -fgcse-lm -fgnu-runtime -fgnu-unique -fident
  32              	@ -finline-atomics -fira-hoist-pressure -fira-share-save-slots
  33              	@ -fira-share-spill-slots -fivopts -fkeep-static-consts
  34              	@ -fleading-underscore -flifetime-dse -fmath-errno -fmerge-debug-strings
  35              	@ -fpeephole -fprefetch-loop-arrays -freg-struct-return
  36              	@ -fsched-critical-path-heuristic -fsched-dep-count-heuristic
  37              	@ -fsched-group-heuristic -fsched-interblock -fsched-last-insn-heuristic
  38              	@ -fsched-rank-heuristic -fsched-spec -fsched-spec-insn-heuristic
  39              	@ -fsched-stalled-insns-dep -fshow-column -fsigned-zeros
  40              	@ -fsplit-ivs-in-unroller -fstrict-volatile-bitfields -fsync-libcalls
  41              	@ -ftrapping-math -ftree-coalesce-vars -ftree-cselim -ftree-forwprop
  42              	@ -ftree-loop-if-convert -ftree-loop-im -ftree-loop-ivcanon
  43              	@ -ftree-loop-optimize -ftree-parallelize-loops= -ftree-phiprop
  44              	@ -ftree-reassoc -ftree-scev-cprop -funit-at-a-time -fverbose-asm
  45              	@ -fzero-initialized-in-bss -mfix-cortex-m3-ldrd -mlittle-endian -mlra
  46              	@ -mpic-data-is-text-relative -msched-prolog -mthumb -munaligned-access
  47              	@ -mvectorize-with-neon-quad
  48              	
  49              		.text
  50              	.Ltext0:
  51              		.cfi_sections	.debug_frame
  52              		.section	.text.xEventGroupCreate,"ax",%progbits
  53              		.align	2
  54              		.global	xEventGroupCreate
  55              		.thumb
  56              		.thumb_func
  57              		.type	xEventGroupCreate, %function
ARM GAS  C:\Users\COSMIN~1.MAR\AppData\Local\Temp\ccyAlg2e.s 			page 2


  58              	xEventGroupCreate:
  59              	.LFB1:
  60              		.file 1 "FreeRTOS/event_groups.c"
   1:FreeRTOS/event_groups.c **** /*
   2:FreeRTOS/event_groups.c ****     FreeRTOS V8.1.2 - Copyright (C) 2014 Real Time Engineers Ltd.
   3:FreeRTOS/event_groups.c ****     All rights reserved
   4:FreeRTOS/event_groups.c **** 
   5:FreeRTOS/event_groups.c ****     VISIT http://www.FreeRTOS.org TO ENSURE YOU ARE USING THE LATEST VERSION.
   6:FreeRTOS/event_groups.c **** 
   7:FreeRTOS/event_groups.c ****     ***************************************************************************
   8:FreeRTOS/event_groups.c ****      *                                                                       *
   9:FreeRTOS/event_groups.c ****      *    FreeRTOS provides completely free yet professionally developed,    *
  10:FreeRTOS/event_groups.c ****      *    robust, strictly quality controlled, supported, and cross          *
  11:FreeRTOS/event_groups.c ****      *    platform software that has become a de facto standard.             *
  12:FreeRTOS/event_groups.c ****      *                                                                       *
  13:FreeRTOS/event_groups.c ****      *    Help yourself get started quickly and support the FreeRTOS         *
  14:FreeRTOS/event_groups.c ****      *    project by purchasing a FreeRTOS tutorial book, reference          *
  15:FreeRTOS/event_groups.c ****      *    manual, or both from: http://www.FreeRTOS.org/Documentation        *
  16:FreeRTOS/event_groups.c ****      *                                                                       *
  17:FreeRTOS/event_groups.c ****      *    Thank you!                                                         *
  18:FreeRTOS/event_groups.c ****      *                                                                       *
  19:FreeRTOS/event_groups.c ****     ***************************************************************************
  20:FreeRTOS/event_groups.c **** 
  21:FreeRTOS/event_groups.c ****     This file is part of the FreeRTOS distribution.
  22:FreeRTOS/event_groups.c **** 
  23:FreeRTOS/event_groups.c ****     FreeRTOS is free software; you can redistribute it and/or modify it under
  24:FreeRTOS/event_groups.c ****     the terms of the GNU General Public License (version 2) as published by the
  25:FreeRTOS/event_groups.c ****     Free Software Foundation >>!AND MODIFIED BY!<< the FreeRTOS exception.
  26:FreeRTOS/event_groups.c **** 
  27:FreeRTOS/event_groups.c ****     >>!   NOTE: The modification to the GPL is included to allow you to     !<<
  28:FreeRTOS/event_groups.c ****     >>!   distribute a combined work that includes FreeRTOS without being   !<<
  29:FreeRTOS/event_groups.c ****     >>!   obliged to provide the source code for proprietary components     !<<
  30:FreeRTOS/event_groups.c ****     >>!   outside of the FreeRTOS kernel.                                   !<<
  31:FreeRTOS/event_groups.c **** 
  32:FreeRTOS/event_groups.c ****     FreeRTOS is distributed in the hope that it will be useful, but WITHOUT ANY
  33:FreeRTOS/event_groups.c ****     WARRANTY; without even the implied warranty of MERCHANTABILITY or FITNESS
  34:FreeRTOS/event_groups.c ****     FOR A PARTICULAR PURPOSE.  Full license text is available from the following
  35:FreeRTOS/event_groups.c ****     link: http://www.freertos.org/a00114.html
  36:FreeRTOS/event_groups.c **** 
  37:FreeRTOS/event_groups.c ****     1 tab == 4 spaces!
  38:FreeRTOS/event_groups.c **** 
  39:FreeRTOS/event_groups.c ****     ***************************************************************************
  40:FreeRTOS/event_groups.c ****      *                                                                       *
  41:FreeRTOS/event_groups.c ****      *    Having a problem?  Start by reading the FAQ "My application does   *
  42:FreeRTOS/event_groups.c ****      *    not run, what could be wrong?"                                     *
  43:FreeRTOS/event_groups.c ****      *                                                                       *
  44:FreeRTOS/event_groups.c ****      *    http://www.FreeRTOS.org/FAQHelp.html                               *
  45:FreeRTOS/event_groups.c ****      *                                                                       *
  46:FreeRTOS/event_groups.c ****     ***************************************************************************
  47:FreeRTOS/event_groups.c **** 
  48:FreeRTOS/event_groups.c ****     http://www.FreeRTOS.org - Documentation, books, training, latest versions,
  49:FreeRTOS/event_groups.c ****     license and Real Time Engineers Ltd. contact details.
  50:FreeRTOS/event_groups.c **** 
  51:FreeRTOS/event_groups.c ****     http://www.FreeRTOS.org/plus - A selection of FreeRTOS ecosystem products,
  52:FreeRTOS/event_groups.c ****     including FreeRTOS+Trace - an indispensable productivity tool, a DOS
  53:FreeRTOS/event_groups.c ****     compatible FAT file system, and our tiny thread aware UDP/IP stack.
  54:FreeRTOS/event_groups.c **** 
ARM GAS  C:\Users\COSMIN~1.MAR\AppData\Local\Temp\ccyAlg2e.s 			page 3


  55:FreeRTOS/event_groups.c ****     http://www.OpenRTOS.com - Real Time Engineers ltd license FreeRTOS to High
  56:FreeRTOS/event_groups.c ****     Integrity Systems to sell under the OpenRTOS brand.  Low cost OpenRTOS
  57:FreeRTOS/event_groups.c ****     licenses offer ticketed support, indemnification and middleware.
  58:FreeRTOS/event_groups.c **** 
  59:FreeRTOS/event_groups.c ****     http://www.SafeRTOS.com - High Integrity Systems also provide a safety
  60:FreeRTOS/event_groups.c ****     engineered and independently SIL3 certified version for use in safety and
  61:FreeRTOS/event_groups.c ****     mission critical applications that require provable dependability.
  62:FreeRTOS/event_groups.c **** 
  63:FreeRTOS/event_groups.c ****     1 tab == 4 spaces!
  64:FreeRTOS/event_groups.c **** */
  65:FreeRTOS/event_groups.c **** 
  66:FreeRTOS/event_groups.c **** /* Standard includes. */
  67:FreeRTOS/event_groups.c **** #include <stdlib.h>
  68:FreeRTOS/event_groups.c **** 
  69:FreeRTOS/event_groups.c **** /* Defining MPU_WRAPPERS_INCLUDED_FROM_API_FILE prevents task.h from redefining
  70:FreeRTOS/event_groups.c **** all the API functions to use the MPU wrappers.  That should only be done when
  71:FreeRTOS/event_groups.c **** task.h is included from an application file. */
  72:FreeRTOS/event_groups.c **** #define MPU_WRAPPERS_INCLUDED_FROM_API_FILE
  73:FreeRTOS/event_groups.c **** 
  74:FreeRTOS/event_groups.c **** /* FreeRTOS includes. */
  75:FreeRTOS/event_groups.c **** #include "FreeRTOS.h"
  76:FreeRTOS/event_groups.c **** #include "task.h"
  77:FreeRTOS/event_groups.c **** #include "timers.h"
  78:FreeRTOS/event_groups.c **** #include "event_groups.h"
  79:FreeRTOS/event_groups.c **** 
  80:FreeRTOS/event_groups.c **** /* Lint e961 and e750 are suppressed as a MISRA exception justified because the
  81:FreeRTOS/event_groups.c **** MPU ports require MPU_WRAPPERS_INCLUDED_FROM_API_FILE to be defined for the
  82:FreeRTOS/event_groups.c **** header files above, but not in this file, in order to generate the correct
  83:FreeRTOS/event_groups.c **** privileged Vs unprivileged linkage and placement. */
  84:FreeRTOS/event_groups.c **** #undef MPU_WRAPPERS_INCLUDED_FROM_API_FILE /*lint !e961 !e750. */
  85:FreeRTOS/event_groups.c **** 
  86:FreeRTOS/event_groups.c **** #if ( INCLUDE_xEventGroupSetBitFromISR == 1 ) && ( configUSE_TIMERS == 0 )
  87:FreeRTOS/event_groups.c **** 	#error configUSE_TIMERS must be set to 1 to make the xEventGroupSetBitFromISR() function available
  88:FreeRTOS/event_groups.c **** #endif
  89:FreeRTOS/event_groups.c **** 
  90:FreeRTOS/event_groups.c **** #if ( INCLUDE_xEventGroupSetBitFromISR == 1 ) && ( INCLUDE_xTimerPendFunctionCall == 0 )
  91:FreeRTOS/event_groups.c **** 	#error INCLUDE_xTimerPendFunctionCall must also be set to one to make the xEventGroupSetBitFromISR
  92:FreeRTOS/event_groups.c **** #endif
  93:FreeRTOS/event_groups.c **** 
  94:FreeRTOS/event_groups.c **** /* The following bit fields convey control information in a task's event list
  95:FreeRTOS/event_groups.c **** item value.  It is important they don't clash with the
  96:FreeRTOS/event_groups.c **** taskEVENT_LIST_ITEM_VALUE_IN_USE definition. */
  97:FreeRTOS/event_groups.c **** #if configUSE_16_BIT_TICKS == 1
  98:FreeRTOS/event_groups.c **** 	#define eventCLEAR_EVENTS_ON_EXIT_BIT	0x0100U
  99:FreeRTOS/event_groups.c **** 	#define eventUNBLOCKED_DUE_TO_BIT_SET	0x0200U
 100:FreeRTOS/event_groups.c **** 	#define eventWAIT_FOR_ALL_BITS			0x0400U
 101:FreeRTOS/event_groups.c **** 	#define eventEVENT_BITS_CONTROL_BYTES	0xff00U
 102:FreeRTOS/event_groups.c **** #else
 103:FreeRTOS/event_groups.c **** 	#define eventCLEAR_EVENTS_ON_EXIT_BIT	0x01000000UL
 104:FreeRTOS/event_groups.c **** 	#define eventUNBLOCKED_DUE_TO_BIT_SET	0x02000000UL
 105:FreeRTOS/event_groups.c **** 	#define eventWAIT_FOR_ALL_BITS			0x04000000UL
 106:FreeRTOS/event_groups.c **** 	#define eventEVENT_BITS_CONTROL_BYTES	0xff000000UL
 107:FreeRTOS/event_groups.c **** #endif
 108:FreeRTOS/event_groups.c **** 
 109:FreeRTOS/event_groups.c **** typedef struct xEventGroupDefinition
 110:FreeRTOS/event_groups.c **** {
 111:FreeRTOS/event_groups.c **** 	EventBits_t uxEventBits;
ARM GAS  C:\Users\COSMIN~1.MAR\AppData\Local\Temp\ccyAlg2e.s 			page 4


 112:FreeRTOS/event_groups.c **** 	List_t xTasksWaitingForBits;		/*< List of tasks waiting for a bit to be set. */
 113:FreeRTOS/event_groups.c **** 
 114:FreeRTOS/event_groups.c **** 	#if( configUSE_TRACE_FACILITY == 1 )
 115:FreeRTOS/event_groups.c **** 		UBaseT_t uxEventGroupNumber;
 116:FreeRTOS/event_groups.c **** 	#endif
 117:FreeRTOS/event_groups.c **** 
 118:FreeRTOS/event_groups.c **** } EventGroup_t;
 119:FreeRTOS/event_groups.c **** 
 120:FreeRTOS/event_groups.c **** /*-----------------------------------------------------------*/
 121:FreeRTOS/event_groups.c **** 
 122:FreeRTOS/event_groups.c **** /*
 123:FreeRTOS/event_groups.c ****  * Test the bits set in uxCurrentEventBits to see if the wait condition is met.
 124:FreeRTOS/event_groups.c ****  * The wait condition is defined by xWaitForAllBits.  If xWaitForAllBits is
 125:FreeRTOS/event_groups.c ****  * pdTRUE then the wait condition is met if all the bits set in uxBitsToWaitFor
 126:FreeRTOS/event_groups.c ****  * are also set in uxCurrentEventBits.  If xWaitForAllBits is pdFALSE then the
 127:FreeRTOS/event_groups.c ****  * wait condition is met if any of the bits set in uxBitsToWait for are also set
 128:FreeRTOS/event_groups.c ****  * in uxCurrentEventBits.
 129:FreeRTOS/event_groups.c ****  */
 130:FreeRTOS/event_groups.c **** static BaseT_t prvTestWaitCondition( const EventBits_t uxCurrentEventBits, const EventBits_t uxBits
 131:FreeRTOS/event_groups.c **** 
 132:FreeRTOS/event_groups.c **** /*-----------------------------------------------------------*/
 133:FreeRTOS/event_groups.c **** 
 134:FreeRTOS/event_groups.c **** EventGroupHandle_t xEventGroupCreate( void )
 135:FreeRTOS/event_groups.c **** {
  61              		.loc 1 135 0
  62              		.cfi_startproc
  63              		@ args = 0, pretend = 0, frame = 8
  64              		@ frame_needed = 1, uses_anonymous_args = 0
  65 0000 80B5     		push	{r7, lr}	@
  66              		.cfi_def_cfa_offset 8
  67              		.cfi_offset 7, -8
  68              		.cfi_offset 14, -4
  69 0002 82B0     		sub	sp, sp, #8	@,,
  70              		.cfi_def_cfa_offset 16
  71 0004 00AF     		add	r7, sp, #0	@,,
  72              		.cfi_def_cfa_register 7
 136:FreeRTOS/event_groups.c **** EventGroup_t *pxEventBits;
 137:FreeRTOS/event_groups.c **** 
 138:FreeRTOS/event_groups.c **** 	pxEventBits = pvPortMalloc( sizeof( EventGroup_t ) );
  73              		.loc 1 138 0
  74 0006 1C20     		movs	r0, #28	@,
  75 0008 FFF7FEFF 		bl	pvPortMalloc	@
  76 000c 7860     		str	r0, [r7, #4]	@, pxEventBits
 139:FreeRTOS/event_groups.c **** 	if( pxEventBits != NULL )
  77              		.loc 1 139 0
  78 000e 7B68     		ldr	r3, [r7, #4]	@ tmp113, pxEventBits
  79 0010 002B     		cmp	r3, #0	@ tmp113,
  80 0012 07D0     		beq	.L2	@,
 140:FreeRTOS/event_groups.c **** 	{
 141:FreeRTOS/event_groups.c **** 		pxEventBits->uxEventBits = 0;
  81              		.loc 1 141 0
  82 0014 7B68     		ldr	r3, [r7, #4]	@ tmp114, pxEventBits
  83 0016 0022     		movs	r2, #0	@ tmp115,
  84 0018 1A60     		str	r2, [r3]	@ tmp115, pxEventBits_1->uxEventBits
 142:FreeRTOS/event_groups.c **** 		vListInitialise( &( pxEventBits->xTasksWaitingForBits ) );
  85              		.loc 1 142 0
  86 001a 7B68     		ldr	r3, [r7, #4]	@ tmp116, pxEventBits
ARM GAS  C:\Users\COSMIN~1.MAR\AppData\Local\Temp\ccyAlg2e.s 			page 5


  87 001c 0433     		adds	r3, r3, #4	@ D.5279, tmp116,
  88 001e 1846     		mov	r0, r3	@, D.5279
  89 0020 FFF7FEFF 		bl	vListInitialise	@
  90              	.L2:
 143:FreeRTOS/event_groups.c **** 		traceEVENT_GROUP_CREATE( pxEventBits );
 144:FreeRTOS/event_groups.c **** 	}
 145:FreeRTOS/event_groups.c **** 	else
 146:FreeRTOS/event_groups.c **** 	{
 147:FreeRTOS/event_groups.c **** 		traceEVENT_GROUP_CREATE_FAILED();
 148:FreeRTOS/event_groups.c **** 	}
 149:FreeRTOS/event_groups.c **** 
 150:FreeRTOS/event_groups.c **** 	return ( EventGroupHandle_t ) pxEventBits;
  91              		.loc 1 150 0
  92 0024 7B68     		ldr	r3, [r7, #4]	@ D.5280, pxEventBits
 151:FreeRTOS/event_groups.c **** }
  93              		.loc 1 151 0
  94 0026 1846     		mov	r0, r3	@, <retval>
  95 0028 0837     		adds	r7, r7, #8	@,,
  96              		.cfi_def_cfa_offset 8
  97 002a BD46     		mov	sp, r7	@,
  98              		.cfi_def_cfa_register 13
  99              		@ sp needed	@
 100 002c 80BD     		pop	{r7, pc}	@
 101              		.cfi_endproc
 102              	.LFE1:
 103              		.size	xEventGroupCreate, .-xEventGroupCreate
 104 002e 00BF     		.section	.text.xEventGroupSync,"ax",%progbits
 105              		.align	2
 106              		.global	xEventGroupSync
 107              		.thumb
 108              		.thumb_func
 109              		.type	xEventGroupSync, %function
 110              	xEventGroupSync:
 111              	.LFB2:
 152:FreeRTOS/event_groups.c **** /*-----------------------------------------------------------*/
 153:FreeRTOS/event_groups.c **** 
 154:FreeRTOS/event_groups.c **** EventBits_t xEventGroupSync( EventGroupHandle_t xEventGroup, const EventBits_t uxBitsToSet, const E
 155:FreeRTOS/event_groups.c **** {
 112              		.loc 1 155 0
 113              		.cfi_startproc
 114              		@ args = 0, pretend = 0, frame = 40
 115              		@ frame_needed = 1, uses_anonymous_args = 0
 116 0000 80B5     		push	{r7, lr}	@
 117              		.cfi_def_cfa_offset 8
 118              		.cfi_offset 7, -8
 119              		.cfi_offset 14, -4
 120 0002 8AB0     		sub	sp, sp, #40	@,,
 121              		.cfi_def_cfa_offset 48
 122 0004 00AF     		add	r7, sp, #0	@,,
 123              		.cfi_def_cfa_register 7
 124 0006 F860     		str	r0, [r7, #12]	@ xEventGroup, xEventGroup
 125 0008 B960     		str	r1, [r7, #8]	@ uxBitsToSet, uxBitsToSet
 126 000a 7A60     		str	r2, [r7, #4]	@ uxBitsToWaitFor, uxBitsToWaitFor
 127 000c 3B60     		str	r3, [r7]	@ xTicksToWait, xTicksToWait
 156:FreeRTOS/event_groups.c **** EventBits_t uxOriginalBitValue, uxReturn;
 157:FreeRTOS/event_groups.c **** EventGroup_t *pxEventBits = ( EventGroup_t * ) xEventGroup;
 128              		.loc 1 157 0
ARM GAS  C:\Users\COSMIN~1.MAR\AppData\Local\Temp\ccyAlg2e.s 			page 6


 129 000e FB68     		ldr	r3, [r7, #12]	@ tmp125, xEventGroup
 130 0010 3B62     		str	r3, [r7, #32]	@ tmp125, pxEventBits
 158:FreeRTOS/event_groups.c **** BaseT_t xAlreadyYielded;
 159:FreeRTOS/event_groups.c **** BaseT_t xTimeoutOccurred = pdFALSE;
 131              		.loc 1 159 0
 132 0012 0023     		movs	r3, #0	@ tmp126,
 133 0014 FB61     		str	r3, [r7, #28]	@ tmp126, xTimeoutOccurred
 160:FreeRTOS/event_groups.c **** 
 161:FreeRTOS/event_groups.c **** 	configASSERT( ( uxBitsToWaitFor & eventEVENT_BITS_CONTROL_BYTES ) == 0 );
 134              		.loc 1 161 0
 135 0016 7B68     		ldr	r3, [r7, #4]	@ tmp127, uxBitsToWaitFor
 136 0018 03F07F43 		and	r3, r3, #-16777216	@ D.5281, tmp127,
 137 001c 002B     		cmp	r3, #0	@ D.5281,
 138 001e 02D0     		beq	.L5	@,
 139              		.loc 1 161 0 is_stmt 0 discriminator 1
 140 0020 FFF7FEFF 		bl	ulPortSetInterruptMask	@
 141              	.L6:
 142 0024 FEE7     		b	.L6	@
 143              	.L5:
 162:FreeRTOS/event_groups.c **** 	configASSERT( uxBitsToWaitFor != 0 );
 144              		.loc 1 162 0 is_stmt 1
 145 0026 7B68     		ldr	r3, [r7, #4]	@ tmp128, uxBitsToWaitFor
 146 0028 002B     		cmp	r3, #0	@ tmp128,
 147 002a 02D1     		bne	.L7	@,
 148              		.loc 1 162 0 is_stmt 0 discriminator 1
 149 002c FFF7FEFF 		bl	ulPortSetInterruptMask	@
 150              	.L8:
 151              		.loc 1 162 0 discriminator 2
 152 0030 FEE7     		b	.L8	@
 153              	.L7:
 163:FreeRTOS/event_groups.c **** 	#if ( ( INCLUDE_xTaskGetSchedulerState == 1 ) || ( configUSE_TIMERS == 1 ) )
 164:FreeRTOS/event_groups.c **** 	{
 165:FreeRTOS/event_groups.c **** 		configASSERT( !( ( xTaskGetSchedulerState() == taskSCHEDULER_SUSPENDED ) && ( xTicksToWait != 0 )
 166:FreeRTOS/event_groups.c **** 	}
 167:FreeRTOS/event_groups.c **** 	#endif
 168:FreeRTOS/event_groups.c **** 
 169:FreeRTOS/event_groups.c **** 	vTaskSuspendAll();
 154              		.loc 1 169 0 is_stmt 1
 155 0032 FFF7FEFF 		bl	vTaskSuspendAll	@
 170:FreeRTOS/event_groups.c **** 	{
 171:FreeRTOS/event_groups.c **** 		uxOriginalBitValue = pxEventBits->uxEventBits;
 156              		.loc 1 171 0
 157 0036 3B6A     		ldr	r3, [r7, #32]	@ tmp129, pxEventBits
 158 0038 1B68     		ldr	r3, [r3]	@ tmp130, pxEventBits_6->uxEventBits
 159 003a BB61     		str	r3, [r7, #24]	@ tmp130, uxOriginalBitValue
 172:FreeRTOS/event_groups.c **** 
 173:FreeRTOS/event_groups.c **** 		( void ) xEventGroupSetBits( xEventGroup, uxBitsToSet );
 160              		.loc 1 173 0
 161 003c F868     		ldr	r0, [r7, #12]	@, xEventGroup
 162 003e B968     		ldr	r1, [r7, #8]	@, uxBitsToSet
 163 0040 FFF7FEFF 		bl	xEventGroupSetBits	@
 174:FreeRTOS/event_groups.c **** 
 175:FreeRTOS/event_groups.c **** 		if( ( ( uxOriginalBitValue | uxBitsToSet ) & uxBitsToWaitFor ) == uxBitsToWaitFor )
 164              		.loc 1 175 0
 165 0044 BA69     		ldr	r2, [r7, #24]	@ tmp131, uxOriginalBitValue
 166 0046 BB68     		ldr	r3, [r7, #8]	@ tmp132, uxBitsToSet
 167 0048 1A43     		orrs	r2, r2, r3	@, D.5281, tmp131, tmp132
ARM GAS  C:\Users\COSMIN~1.MAR\AppData\Local\Temp\ccyAlg2e.s 			page 7


 168 004a 7B68     		ldr	r3, [r7, #4]	@ tmp133, uxBitsToWaitFor
 169 004c 1A40     		ands	r2, r2, r3	@, D.5281, D.5281, tmp133
 170 004e 7B68     		ldr	r3, [r7, #4]	@ tmp134, uxBitsToWaitFor
 171 0050 9A42     		cmp	r2, r3	@ D.5281, tmp134
 172 0052 0DD1     		bne	.L9	@,
 176:FreeRTOS/event_groups.c **** 		{
 177:FreeRTOS/event_groups.c **** 			/* All the rendezvous bits are now set - no need to block. */
 178:FreeRTOS/event_groups.c **** 			uxReturn = ( uxOriginalBitValue | uxBitsToSet );
 173              		.loc 1 178 0
 174 0054 BA69     		ldr	r2, [r7, #24]	@ tmp136, uxOriginalBitValue
 175 0056 BB68     		ldr	r3, [r7, #8]	@ tmp137, uxBitsToSet
 176 0058 1343     		orrs	r3, r3, r2	@, tmp135, tmp137, tmp136
 177 005a 7B62     		str	r3, [r7, #36]	@ tmp135, uxReturn
 179:FreeRTOS/event_groups.c **** 
 180:FreeRTOS/event_groups.c **** 			/* Rendezvous always clear the bits.  They will have been cleared
 181:FreeRTOS/event_groups.c **** 			already unless this is the only task in the rendezvous. */
 182:FreeRTOS/event_groups.c **** 			pxEventBits->uxEventBits &= ~uxBitsToWaitFor;
 178              		.loc 1 182 0
 179 005c 3B6A     		ldr	r3, [r7, #32]	@ tmp138, pxEventBits
 180 005e 1A68     		ldr	r2, [r3]	@ D.5281, pxEventBits_6->uxEventBits
 181 0060 7B68     		ldr	r3, [r7, #4]	@ tmp139, uxBitsToWaitFor
 182 0062 DB43     		mvns	r3, r3	@ D.5281, tmp139
 183 0064 1A40     		ands	r2, r2, r3	@, D.5281, D.5281, D.5281
 184 0066 3B6A     		ldr	r3, [r7, #32]	@ tmp140, pxEventBits
 185 0068 1A60     		str	r2, [r3]	@ D.5281, pxEventBits_6->uxEventBits
 183:FreeRTOS/event_groups.c **** 
 184:FreeRTOS/event_groups.c **** 			xTicksToWait = 0;
 186              		.loc 1 184 0
 187 006a 0023     		movs	r3, #0	@ tmp141,
 188 006c 3B60     		str	r3, [r7]	@ tmp141, xTicksToWait
 189 006e 12E0     		b	.L10	@
 190              	.L9:
 185:FreeRTOS/event_groups.c **** 		}
 186:FreeRTOS/event_groups.c **** 		else
 187:FreeRTOS/event_groups.c **** 		{
 188:FreeRTOS/event_groups.c **** 			if( xTicksToWait != ( TickT_t ) 0 )
 191              		.loc 1 188 0
 192 0070 3B68     		ldr	r3, [r7]	@ tmp142, xTicksToWait
 193 0072 002B     		cmp	r3, #0	@ tmp142,
 194 0074 0CD0     		beq	.L11	@,
 189:FreeRTOS/event_groups.c **** 			{
 190:FreeRTOS/event_groups.c **** 				traceEVENT_GROUP_SYNC_BLOCK( xEventGroup, uxBitsToSet, uxBitsToWaitFor );
 191:FreeRTOS/event_groups.c **** 
 192:FreeRTOS/event_groups.c **** 				/* Store the bits that the calling task is waiting for in the
 193:FreeRTOS/event_groups.c **** 				task's event list item so the kernel knows when a match is
 194:FreeRTOS/event_groups.c **** 				found.  Then enter the blocked state. */
 195:FreeRTOS/event_groups.c **** 				vTaskPlaceOnUnorderedEventList( &( pxEventBits->xTasksWaitingForBits ), ( uxBitsToWaitFor | eve
 195              		.loc 1 195 0
 196 0076 3B6A     		ldr	r3, [r7, #32]	@ tmp143, pxEventBits
 197 0078 1A1D     		adds	r2, r3, #4	@ D.5282, tmp143,
 198 007a 7B68     		ldr	r3, [r7, #4]	@ tmp144, uxBitsToWaitFor
 199 007c 43F0A063 		orr	r3, r3, #83886080	@ D.5281, tmp144,
 200 0080 1046     		mov	r0, r2	@, D.5282
 201 0082 1946     		mov	r1, r3	@, D.5281
 202 0084 3A68     		ldr	r2, [r7]	@, xTicksToWait
 203 0086 FFF7FEFF 		bl	vTaskPlaceOnUnorderedEventList	@
 196:FreeRTOS/event_groups.c **** 
ARM GAS  C:\Users\COSMIN~1.MAR\AppData\Local\Temp\ccyAlg2e.s 			page 8


 197:FreeRTOS/event_groups.c **** 				/* This assignment is obsolete as uxReturn will get set after
 198:FreeRTOS/event_groups.c **** 				the task unblocks, but some compilers mistakenly generate a
 199:FreeRTOS/event_groups.c **** 				warning about uxReturn being returned without being set if the
 200:FreeRTOS/event_groups.c **** 				assignment is omitted. */
 201:FreeRTOS/event_groups.c **** 				uxReturn = 0;
 204              		.loc 1 201 0
 205 008a 0023     		movs	r3, #0	@ tmp145,
 206 008c 7B62     		str	r3, [r7, #36]	@ tmp145, uxReturn
 207 008e 02E0     		b	.L10	@
 208              	.L11:
 202:FreeRTOS/event_groups.c **** 			}
 203:FreeRTOS/event_groups.c **** 			else
 204:FreeRTOS/event_groups.c **** 			{
 205:FreeRTOS/event_groups.c **** 				/* The rendezvous bits were not set, but no block time was
 206:FreeRTOS/event_groups.c **** 				specified - just return the current event bit value. */
 207:FreeRTOS/event_groups.c **** 				uxReturn = pxEventBits->uxEventBits;
 209              		.loc 1 207 0
 210 0090 3B6A     		ldr	r3, [r7, #32]	@ tmp146, pxEventBits
 211 0092 1B68     		ldr	r3, [r3]	@ tmp147, pxEventBits_6->uxEventBits
 212 0094 7B62     		str	r3, [r7, #36]	@ tmp147, uxReturn
 213              	.L10:
 208:FreeRTOS/event_groups.c **** 			}
 209:FreeRTOS/event_groups.c **** 		}
 210:FreeRTOS/event_groups.c **** 	}
 211:FreeRTOS/event_groups.c **** 	xAlreadyYielded = xTaskResumeAll();
 214              		.loc 1 211 0
 215 0096 FFF7FEFF 		bl	xTaskResumeAll	@
 216 009a 7861     		str	r0, [r7, #20]	@, xAlreadyYielded
 212:FreeRTOS/event_groups.c **** 
 213:FreeRTOS/event_groups.c **** 	if( xTicksToWait != ( TickT_t ) 0 )
 217              		.loc 1 213 0
 218 009c 3B68     		ldr	r3, [r7]	@ tmp148, xTicksToWait
 219 009e 002B     		cmp	r3, #0	@ tmp148,
 220 00a0 26D0     		beq	.L12	@,
 214:FreeRTOS/event_groups.c **** 	{
 215:FreeRTOS/event_groups.c **** 		if( xAlreadyYielded == pdFALSE )
 221              		.loc 1 215 0
 222 00a2 7B69     		ldr	r3, [r7, #20]	@ tmp149, xAlreadyYielded
 223 00a4 002B     		cmp	r3, #0	@ tmp149,
 224 00a6 01D1     		bne	.L13	@,
 216:FreeRTOS/event_groups.c **** 		{
 217:FreeRTOS/event_groups.c **** 			portYIELD_WITHIN_API();
 225              		.loc 1 217 0
 226 00a8 FFF7FEFF 		bl	vPortYield	@
 227              	.L13:
 218:FreeRTOS/event_groups.c **** 		}
 219:FreeRTOS/event_groups.c **** 		else
 220:FreeRTOS/event_groups.c **** 		{
 221:FreeRTOS/event_groups.c **** 			mtCOVERAGE_TEST_MARKER();
 222:FreeRTOS/event_groups.c **** 		}
 223:FreeRTOS/event_groups.c **** 
 224:FreeRTOS/event_groups.c **** 		/* The task blocked to wait for its required bits to be set - at this
 225:FreeRTOS/event_groups.c **** 		point either the required bits were set or the block time expired.  If
 226:FreeRTOS/event_groups.c **** 		the required bits were set they will have been stored in the task's
 227:FreeRTOS/event_groups.c **** 		event list item, and they should now be retrieved then cleared. */
 228:FreeRTOS/event_groups.c **** 		uxReturn = uxTaskResetEventItemValue();
 228              		.loc 1 228 0
ARM GAS  C:\Users\COSMIN~1.MAR\AppData\Local\Temp\ccyAlg2e.s 			page 9


 229 00ac FFF7FEFF 		bl	uxTaskResetEventItemValue	@
 230 00b0 7862     		str	r0, [r7, #36]	@, uxReturn
 229:FreeRTOS/event_groups.c **** 
 230:FreeRTOS/event_groups.c **** 		if( ( uxReturn & eventUNBLOCKED_DUE_TO_BIT_SET ) == ( EventBits_t ) 0 )
 231              		.loc 1 230 0
 232 00b2 7B6A     		ldr	r3, [r7, #36]	@ tmp150, uxReturn
 233 00b4 03F00073 		and	r3, r3, #33554432	@ D.5281, tmp150,
 234 00b8 002B     		cmp	r3, #0	@ D.5281,
 235 00ba 15D1     		bne	.L14	@,
 231:FreeRTOS/event_groups.c **** 		{
 232:FreeRTOS/event_groups.c **** 			/* The task timed out, just return the current event bit value. */
 233:FreeRTOS/event_groups.c **** 			taskENTER_CRITICAL();
 236              		.loc 1 233 0
 237 00bc FFF7FEFF 		bl	vPortEnterCritical	@
 234:FreeRTOS/event_groups.c **** 			{
 235:FreeRTOS/event_groups.c **** 				uxReturn = pxEventBits->uxEventBits;
 238              		.loc 1 235 0
 239 00c0 3B6A     		ldr	r3, [r7, #32]	@ tmp151, pxEventBits
 240 00c2 1B68     		ldr	r3, [r3]	@ tmp152, pxEventBits_6->uxEventBits
 241 00c4 7B62     		str	r3, [r7, #36]	@ tmp152, uxReturn
 236:FreeRTOS/event_groups.c **** 
 237:FreeRTOS/event_groups.c **** 				/* Although the task got here because it timed out before the
 238:FreeRTOS/event_groups.c **** 				bits it was waiting for were set, it is possible that since it
 239:FreeRTOS/event_groups.c **** 				unblocked another task has set the bits.  If this is the case
 240:FreeRTOS/event_groups.c **** 				then it needs to clear the bits before exiting. */
 241:FreeRTOS/event_groups.c **** 				if( ( uxReturn & uxBitsToWaitFor ) == uxBitsToWaitFor )
 242              		.loc 1 241 0
 243 00c6 7A6A     		ldr	r2, [r7, #36]	@ tmp153, uxReturn
 244 00c8 7B68     		ldr	r3, [r7, #4]	@ tmp154, uxBitsToWaitFor
 245 00ca 1A40     		ands	r2, r2, r3	@, D.5281, tmp153, tmp154
 246 00cc 7B68     		ldr	r3, [r7, #4]	@ tmp155, uxBitsToWaitFor
 247 00ce 9A42     		cmp	r2, r3	@ D.5281, tmp155
 248 00d0 06D1     		bne	.L15	@,
 242:FreeRTOS/event_groups.c **** 				{
 243:FreeRTOS/event_groups.c **** 					pxEventBits->uxEventBits &= ~uxBitsToWaitFor;
 249              		.loc 1 243 0
 250 00d2 3B6A     		ldr	r3, [r7, #32]	@ tmp156, pxEventBits
 251 00d4 1A68     		ldr	r2, [r3]	@ D.5281, pxEventBits_6->uxEventBits
 252 00d6 7B68     		ldr	r3, [r7, #4]	@ tmp157, uxBitsToWaitFor
 253 00d8 DB43     		mvns	r3, r3	@ D.5281, tmp157
 254 00da 1A40     		ands	r2, r2, r3	@, D.5281, D.5281, D.5281
 255 00dc 3B6A     		ldr	r3, [r7, #32]	@ tmp158, pxEventBits
 256 00de 1A60     		str	r2, [r3]	@ D.5281, pxEventBits_6->uxEventBits
 257              	.L15:
 244:FreeRTOS/event_groups.c **** 				}
 245:FreeRTOS/event_groups.c **** 				else
 246:FreeRTOS/event_groups.c **** 				{
 247:FreeRTOS/event_groups.c **** 					mtCOVERAGE_TEST_MARKER();
 248:FreeRTOS/event_groups.c **** 				}
 249:FreeRTOS/event_groups.c **** 			}
 250:FreeRTOS/event_groups.c **** 			taskEXIT_CRITICAL();
 258              		.loc 1 250 0
 259 00e0 FFF7FEFF 		bl	vPortExitCritical	@
 251:FreeRTOS/event_groups.c **** 
 252:FreeRTOS/event_groups.c **** 			xTimeoutOccurred = pdTRUE;
 260              		.loc 1 252 0
 261 00e4 0123     		movs	r3, #1	@ tmp159,
ARM GAS  C:\Users\COSMIN~1.MAR\AppData\Local\Temp\ccyAlg2e.s 			page 10


 262 00e6 FB61     		str	r3, [r7, #28]	@ tmp159, xTimeoutOccurred
 263              	.L14:
 253:FreeRTOS/event_groups.c **** 		}
 254:FreeRTOS/event_groups.c **** 		else
 255:FreeRTOS/event_groups.c **** 		{
 256:FreeRTOS/event_groups.c **** 			/* The task unblocked because the bits were set. */
 257:FreeRTOS/event_groups.c **** 		}
 258:FreeRTOS/event_groups.c **** 
 259:FreeRTOS/event_groups.c **** 		/* Control bits might be set as the task had blocked should not be
 260:FreeRTOS/event_groups.c **** 		returned. */
 261:FreeRTOS/event_groups.c **** 		uxReturn &= ~eventEVENT_BITS_CONTROL_BYTES;
 264              		.loc 1 261 0
 265 00e8 7B6A     		ldr	r3, [r7, #36]	@ tmp161, uxReturn
 266 00ea 23F07F43 		bic	r3, r3, #-16777216	@ tmp160, tmp161,
 267 00ee 7B62     		str	r3, [r7, #36]	@ tmp160, uxReturn
 268              	.L12:
 262:FreeRTOS/event_groups.c **** 	}
 263:FreeRTOS/event_groups.c **** 
 264:FreeRTOS/event_groups.c **** 	traceEVENT_GROUP_SYNC_END( xEventGroup, uxBitsToSet, uxBitsToWaitFor, xTimeoutOccurred );
 265:FreeRTOS/event_groups.c **** 
 266:FreeRTOS/event_groups.c **** 	return uxReturn;
 269              		.loc 1 266 0
 270 00f0 7B6A     		ldr	r3, [r7, #36]	@ D.5283, uxReturn
 267:FreeRTOS/event_groups.c **** }
 271              		.loc 1 267 0
 272 00f2 1846     		mov	r0, r3	@, <retval>
 273 00f4 2837     		adds	r7, r7, #40	@,,
 274              		.cfi_def_cfa_offset 8
 275 00f6 BD46     		mov	sp, r7	@,
 276              		.cfi_def_cfa_register 13
 277              		@ sp needed	@
 278 00f8 80BD     		pop	{r7, pc}	@
 279              		.cfi_endproc
 280              	.LFE2:
 281              		.size	xEventGroupSync, .-xEventGroupSync
 282 00fa 00BF     		.section	.text.xEventGroupWaitBits,"ax",%progbits
 283              		.align	2
 284              		.global	xEventGroupWaitBits
 285              		.thumb
 286              		.thumb_func
 287              		.type	xEventGroupWaitBits, %function
 288              	xEventGroupWaitBits:
 289              	.LFB3:
 268:FreeRTOS/event_groups.c **** /*-----------------------------------------------------------*/
 269:FreeRTOS/event_groups.c **** 
 270:FreeRTOS/event_groups.c **** EventBits_t xEventGroupWaitBits( EventGroupHandle_t xEventGroup, const EventBits_t uxBitsToWaitFor,
 271:FreeRTOS/event_groups.c **** {
 290              		.loc 1 271 0
 291              		.cfi_startproc
 292              		@ args = 4, pretend = 0, frame = 48
 293              		@ frame_needed = 1, uses_anonymous_args = 0
 294 0000 80B5     		push	{r7, lr}	@
 295              		.cfi_def_cfa_offset 8
 296              		.cfi_offset 7, -8
 297              		.cfi_offset 14, -4
 298 0002 8CB0     		sub	sp, sp, #48	@,,
 299              		.cfi_def_cfa_offset 56
ARM GAS  C:\Users\COSMIN~1.MAR\AppData\Local\Temp\ccyAlg2e.s 			page 11


 300 0004 00AF     		add	r7, sp, #0	@,,
 301              		.cfi_def_cfa_register 7
 302 0006 F860     		str	r0, [r7, #12]	@ xEventGroup, xEventGroup
 303 0008 B960     		str	r1, [r7, #8]	@ uxBitsToWaitFor, uxBitsToWaitFor
 304 000a 7A60     		str	r2, [r7, #4]	@ xClearOnExit, xClearOnExit
 305 000c 3B60     		str	r3, [r7]	@ xWaitForAllBits, xWaitForAllBits
 272:FreeRTOS/event_groups.c **** EventGroup_t *pxEventBits = ( EventGroup_t * ) xEventGroup;
 306              		.loc 1 272 0
 307 000e FB68     		ldr	r3, [r7, #12]	@ tmp123, xEventGroup
 308 0010 7B62     		str	r3, [r7, #36]	@ tmp123, pxEventBits
 273:FreeRTOS/event_groups.c **** EventBits_t uxReturn, uxControlBits = 0;
 309              		.loc 1 273 0
 310 0012 0023     		movs	r3, #0	@ tmp124,
 311 0014 BB62     		str	r3, [r7, #40]	@ tmp124, uxControlBits
 274:FreeRTOS/event_groups.c **** BaseT_t xWaitConditionMet, xAlreadyYielded;
 275:FreeRTOS/event_groups.c **** BaseT_t xTimeoutOccurred = pdFALSE;
 312              		.loc 1 275 0
 313 0016 0023     		movs	r3, #0	@ tmp125,
 314 0018 3B62     		str	r3, [r7, #32]	@ tmp125, xTimeoutOccurred
 276:FreeRTOS/event_groups.c **** 
 277:FreeRTOS/event_groups.c **** 	/* Check the user is not attempting to wait on the bits used by the kernel
 278:FreeRTOS/event_groups.c **** 	itself, and that at least one bit is being requested. */
 279:FreeRTOS/event_groups.c **** 	configASSERT( ( uxBitsToWaitFor & eventEVENT_BITS_CONTROL_BYTES ) == 0 );
 315              		.loc 1 279 0
 316 001a BB68     		ldr	r3, [r7, #8]	@ tmp126, uxBitsToWaitFor
 317 001c 03F07F43 		and	r3, r3, #-16777216	@ D.5284, tmp126,
 318 0020 002B     		cmp	r3, #0	@ D.5284,
 319 0022 02D0     		beq	.L18	@,
 320              		.loc 1 279 0 is_stmt 0 discriminator 1
 321 0024 FFF7FEFF 		bl	ulPortSetInterruptMask	@
 322              	.L19:
 323 0028 FEE7     		b	.L19	@
 324              	.L18:
 280:FreeRTOS/event_groups.c **** 	configASSERT( uxBitsToWaitFor != 0 );
 325              		.loc 1 280 0 is_stmt 1
 326 002a BB68     		ldr	r3, [r7, #8]	@ tmp127, uxBitsToWaitFor
 327 002c 002B     		cmp	r3, #0	@ tmp127,
 328 002e 02D1     		bne	.L20	@,
 329              		.loc 1 280 0 is_stmt 0 discriminator 1
 330 0030 FFF7FEFF 		bl	ulPortSetInterruptMask	@
 331              	.L21:
 332              		.loc 1 280 0 discriminator 2
 333 0034 FEE7     		b	.L21	@
 334              	.L20:
 281:FreeRTOS/event_groups.c **** 	#if ( ( INCLUDE_xTaskGetSchedulerState == 1 ) || ( configUSE_TIMERS == 1 ) )
 282:FreeRTOS/event_groups.c **** 	{
 283:FreeRTOS/event_groups.c **** 		configASSERT( !( ( xTaskGetSchedulerState() == taskSCHEDULER_SUSPENDED ) && ( xTicksToWait != 0 )
 284:FreeRTOS/event_groups.c **** 	}
 285:FreeRTOS/event_groups.c **** 	#endif
 286:FreeRTOS/event_groups.c **** 
 287:FreeRTOS/event_groups.c **** 	vTaskSuspendAll();
 335              		.loc 1 287 0 is_stmt 1
 336 0036 FFF7FEFF 		bl	vTaskSuspendAll	@
 337              	.LBB2:
 288:FreeRTOS/event_groups.c **** 	{
 289:FreeRTOS/event_groups.c **** 		const EventBits_t uxCurrentEventBits = pxEventBits->uxEventBits;
 338              		.loc 1 289 0
ARM GAS  C:\Users\COSMIN~1.MAR\AppData\Local\Temp\ccyAlg2e.s 			page 12


 339 003a 7B6A     		ldr	r3, [r7, #36]	@ tmp128, pxEventBits
 340 003c 1B68     		ldr	r3, [r3]	@ tmp129, pxEventBits_8->uxEventBits
 341 003e FB61     		str	r3, [r7, #28]	@ tmp129, uxCurrentEventBits
 290:FreeRTOS/event_groups.c **** 
 291:FreeRTOS/event_groups.c **** 		/* Check to see if the wait condition is already met or not. */
 292:FreeRTOS/event_groups.c **** 		xWaitConditionMet = prvTestWaitCondition( uxCurrentEventBits, uxBitsToWaitFor, xWaitForAllBits );
 342              		.loc 1 292 0
 343 0040 F869     		ldr	r0, [r7, #28]	@, uxCurrentEventBits
 344 0042 B968     		ldr	r1, [r7, #8]	@, uxBitsToWaitFor
 345 0044 3A68     		ldr	r2, [r7]	@, xWaitForAllBits
 346 0046 FFF7FEFF 		bl	prvTestWaitCondition	@
 347 004a B861     		str	r0, [r7, #24]	@, xWaitConditionMet
 293:FreeRTOS/event_groups.c **** 
 294:FreeRTOS/event_groups.c **** 		if( xWaitConditionMet != pdFALSE )
 348              		.loc 1 294 0
 349 004c BB69     		ldr	r3, [r7, #24]	@ tmp130, xWaitConditionMet
 350 004e 002B     		cmp	r3, #0	@ tmp130,
 351 0050 0ED0     		beq	.L22	@,
 295:FreeRTOS/event_groups.c **** 		{
 296:FreeRTOS/event_groups.c **** 			/* The wait condition has already been met so there is no need to
 297:FreeRTOS/event_groups.c **** 			block. */
 298:FreeRTOS/event_groups.c **** 			uxReturn = uxCurrentEventBits;
 352              		.loc 1 298 0
 353 0052 FB69     		ldr	r3, [r7, #28]	@ tmp131, uxCurrentEventBits
 354 0054 FB62     		str	r3, [r7, #44]	@ tmp131, uxReturn
 299:FreeRTOS/event_groups.c **** 			xTicksToWait = ( TickT_t ) 0;
 355              		.loc 1 299 0
 356 0056 0023     		movs	r3, #0	@ tmp132,
 357 0058 BB63     		str	r3, [r7, #56]	@ tmp132, xTicksToWait
 300:FreeRTOS/event_groups.c **** 
 301:FreeRTOS/event_groups.c **** 			/* Clear the wait bits if requested to do so. */
 302:FreeRTOS/event_groups.c **** 			if( xClearOnExit != pdFALSE )
 358              		.loc 1 302 0
 359 005a 7B68     		ldr	r3, [r7, #4]	@ tmp133, xClearOnExit
 360 005c 002B     		cmp	r3, #0	@ tmp133,
 361 005e 27D0     		beq	.L23	@,
 303:FreeRTOS/event_groups.c **** 			{
 304:FreeRTOS/event_groups.c **** 				pxEventBits->uxEventBits &= ~uxBitsToWaitFor;
 362              		.loc 1 304 0
 363 0060 7B6A     		ldr	r3, [r7, #36]	@ tmp134, pxEventBits
 364 0062 1A68     		ldr	r2, [r3]	@ D.5284, pxEventBits_8->uxEventBits
 365 0064 BB68     		ldr	r3, [r7, #8]	@ tmp135, uxBitsToWaitFor
 366 0066 DB43     		mvns	r3, r3	@ D.5284, tmp135
 367 0068 1A40     		ands	r2, r2, r3	@, D.5284, D.5284, D.5284
 368 006a 7B6A     		ldr	r3, [r7, #36]	@ tmp136, pxEventBits
 369 006c 1A60     		str	r2, [r3]	@ D.5284, pxEventBits_8->uxEventBits
 370 006e 1FE0     		b	.L23	@
 371              	.L22:
 305:FreeRTOS/event_groups.c **** 			}
 306:FreeRTOS/event_groups.c **** 			else
 307:FreeRTOS/event_groups.c **** 			{
 308:FreeRTOS/event_groups.c **** 				mtCOVERAGE_TEST_MARKER();
 309:FreeRTOS/event_groups.c **** 			}
 310:FreeRTOS/event_groups.c **** 		}
 311:FreeRTOS/event_groups.c **** 		else if( xTicksToWait == ( TickT_t ) 0 )
 372              		.loc 1 311 0
 373 0070 BB6B     		ldr	r3, [r7, #56]	@ tmp137, xTicksToWait
ARM GAS  C:\Users\COSMIN~1.MAR\AppData\Local\Temp\ccyAlg2e.s 			page 13


 374 0072 002B     		cmp	r3, #0	@ tmp137,
 375 0074 02D1     		bne	.L24	@,
 312:FreeRTOS/event_groups.c **** 		{
 313:FreeRTOS/event_groups.c **** 			/* The wait condition has not been met, but no block time was
 314:FreeRTOS/event_groups.c **** 			specified, so just return the current value. */
 315:FreeRTOS/event_groups.c **** 			uxReturn = uxCurrentEventBits;
 376              		.loc 1 315 0
 377 0076 FB69     		ldr	r3, [r7, #28]	@ tmp138, uxCurrentEventBits
 378 0078 FB62     		str	r3, [r7, #44]	@ tmp138, uxReturn
 379 007a 19E0     		b	.L23	@
 380              	.L24:
 316:FreeRTOS/event_groups.c **** 		}
 317:FreeRTOS/event_groups.c **** 		else
 318:FreeRTOS/event_groups.c **** 		{
 319:FreeRTOS/event_groups.c **** 			/* The task is going to block to wait for its required bits to be
 320:FreeRTOS/event_groups.c **** 			set.  uxControlBits are used to remember the specified behaviour of
 321:FreeRTOS/event_groups.c **** 			this call to xEventGroupWaitBits() - for use when the event bits
 322:FreeRTOS/event_groups.c **** 			unblock the task. */
 323:FreeRTOS/event_groups.c **** 			if( xClearOnExit != pdFALSE )
 381              		.loc 1 323 0
 382 007c 7B68     		ldr	r3, [r7, #4]	@ tmp139, xClearOnExit
 383 007e 002B     		cmp	r3, #0	@ tmp139,
 384 0080 03D0     		beq	.L25	@,
 324:FreeRTOS/event_groups.c **** 			{
 325:FreeRTOS/event_groups.c **** 				uxControlBits |= eventCLEAR_EVENTS_ON_EXIT_BIT;
 385              		.loc 1 325 0
 386 0082 BB6A     		ldr	r3, [r7, #40]	@ tmp141, uxControlBits
 387 0084 43F08073 		orr	r3, r3, #16777216	@ tmp140, tmp141,
 388 0088 BB62     		str	r3, [r7, #40]	@ tmp140, uxControlBits
 389              	.L25:
 326:FreeRTOS/event_groups.c **** 			}
 327:FreeRTOS/event_groups.c **** 			else
 328:FreeRTOS/event_groups.c **** 			{
 329:FreeRTOS/event_groups.c **** 				mtCOVERAGE_TEST_MARKER();
 330:FreeRTOS/event_groups.c **** 			}
 331:FreeRTOS/event_groups.c **** 
 332:FreeRTOS/event_groups.c **** 			if( xWaitForAllBits != pdFALSE )
 390              		.loc 1 332 0
 391 008a 3B68     		ldr	r3, [r7]	@ tmp142, xWaitForAllBits
 392 008c 002B     		cmp	r3, #0	@ tmp142,
 393 008e 03D0     		beq	.L26	@,
 333:FreeRTOS/event_groups.c **** 			{
 334:FreeRTOS/event_groups.c **** 				uxControlBits |= eventWAIT_FOR_ALL_BITS;
 394              		.loc 1 334 0
 395 0090 BB6A     		ldr	r3, [r7, #40]	@ tmp144, uxControlBits
 396 0092 43F08063 		orr	r3, r3, #67108864	@ tmp143, tmp144,
 397 0096 BB62     		str	r3, [r7, #40]	@ tmp143, uxControlBits
 398              	.L26:
 335:FreeRTOS/event_groups.c **** 			}
 336:FreeRTOS/event_groups.c **** 			else
 337:FreeRTOS/event_groups.c **** 			{
 338:FreeRTOS/event_groups.c **** 				mtCOVERAGE_TEST_MARKER();
 339:FreeRTOS/event_groups.c **** 			}
 340:FreeRTOS/event_groups.c **** 
 341:FreeRTOS/event_groups.c **** 			/* Store the bits that the calling task is waiting for in the
 342:FreeRTOS/event_groups.c **** 			task's event list item so the kernel knows when a match is
 343:FreeRTOS/event_groups.c **** 			found.  Then enter the blocked state. */
ARM GAS  C:\Users\COSMIN~1.MAR\AppData\Local\Temp\ccyAlg2e.s 			page 14


 344:FreeRTOS/event_groups.c **** 			vTaskPlaceOnUnorderedEventList( &( pxEventBits->xTasksWaitingForBits ), ( uxBitsToWaitFor | uxCo
 399              		.loc 1 344 0
 400 0098 7B6A     		ldr	r3, [r7, #36]	@ tmp145, pxEventBits
 401 009a 191D     		adds	r1, r3, #4	@ D.5285, tmp145,
 402 009c BA68     		ldr	r2, [r7, #8]	@ tmp146, uxBitsToWaitFor
 403 009e BB6A     		ldr	r3, [r7, #40]	@ tmp147, uxControlBits
 404 00a0 1343     		orrs	r3, r3, r2	@, D.5284, tmp147, tmp146
 405 00a2 0846     		mov	r0, r1	@, D.5285
 406 00a4 1946     		mov	r1, r3	@, D.5284
 407 00a6 BA6B     		ldr	r2, [r7, #56]	@, xTicksToWait
 408 00a8 FFF7FEFF 		bl	vTaskPlaceOnUnorderedEventList	@
 345:FreeRTOS/event_groups.c **** 
 346:FreeRTOS/event_groups.c **** 			/* This is obsolete as it will get set after the task unblocks, but
 347:FreeRTOS/event_groups.c **** 			some compilers mistakenly generate a warning about the variable
 348:FreeRTOS/event_groups.c **** 			being returned without being set if it is not done. */
 349:FreeRTOS/event_groups.c **** 			uxReturn = 0;
 409              		.loc 1 349 0
 410 00ac 0023     		movs	r3, #0	@ tmp148,
 411 00ae FB62     		str	r3, [r7, #44]	@ tmp148, uxReturn
 412              	.L23:
 413              	.LBE2:
 350:FreeRTOS/event_groups.c **** 
 351:FreeRTOS/event_groups.c **** 			traceEVENT_GROUP_WAIT_BITS_BLOCK( xEventGroup, uxBitsToWaitFor );
 352:FreeRTOS/event_groups.c **** 		}
 353:FreeRTOS/event_groups.c **** 	}
 354:FreeRTOS/event_groups.c **** 	xAlreadyYielded = xTaskResumeAll();
 414              		.loc 1 354 0
 415 00b0 FFF7FEFF 		bl	xTaskResumeAll	@
 416 00b4 7861     		str	r0, [r7, #20]	@, xAlreadyYielded
 355:FreeRTOS/event_groups.c **** 
 356:FreeRTOS/event_groups.c **** 	if( xTicksToWait != ( TickT_t ) 0 )
 417              		.loc 1 356 0
 418 00b6 BB6B     		ldr	r3, [r7, #56]	@ tmp149, xTicksToWait
 419 00b8 002B     		cmp	r3, #0	@ tmp149,
 420 00ba 2BD0     		beq	.L27	@,
 357:FreeRTOS/event_groups.c **** 	{
 358:FreeRTOS/event_groups.c **** 		if( xAlreadyYielded == pdFALSE )
 421              		.loc 1 358 0
 422 00bc 7B69     		ldr	r3, [r7, #20]	@ tmp150, xAlreadyYielded
 423 00be 002B     		cmp	r3, #0	@ tmp150,
 424 00c0 01D1     		bne	.L28	@,
 359:FreeRTOS/event_groups.c **** 		{
 360:FreeRTOS/event_groups.c **** 			portYIELD_WITHIN_API();
 425              		.loc 1 360 0
 426 00c2 FFF7FEFF 		bl	vPortYield	@
 427              	.L28:
 361:FreeRTOS/event_groups.c **** 		}
 362:FreeRTOS/event_groups.c **** 		else
 363:FreeRTOS/event_groups.c **** 		{
 364:FreeRTOS/event_groups.c **** 			mtCOVERAGE_TEST_MARKER();
 365:FreeRTOS/event_groups.c **** 		}
 366:FreeRTOS/event_groups.c **** 
 367:FreeRTOS/event_groups.c **** 		/* The task blocked to wait for its required bits to be set - at this
 368:FreeRTOS/event_groups.c **** 		point either the required bits were set or the block time expired.  If
 369:FreeRTOS/event_groups.c **** 		the required bits were set they will have been stored in the task's
 370:FreeRTOS/event_groups.c **** 		event list item, and they should now be retrieved then cleared. */
 371:FreeRTOS/event_groups.c **** 		uxReturn = uxTaskResetEventItemValue();
ARM GAS  C:\Users\COSMIN~1.MAR\AppData\Local\Temp\ccyAlg2e.s 			page 15


 428              		.loc 1 371 0
 429 00c6 FFF7FEFF 		bl	uxTaskResetEventItemValue	@
 430 00ca F862     		str	r0, [r7, #44]	@, uxReturn
 372:FreeRTOS/event_groups.c **** 
 373:FreeRTOS/event_groups.c **** 		if( ( uxReturn & eventUNBLOCKED_DUE_TO_BIT_SET ) == ( EventBits_t ) 0 )
 431              		.loc 1 373 0
 432 00cc FB6A     		ldr	r3, [r7, #44]	@ tmp151, uxReturn
 433 00ce 03F00073 		and	r3, r3, #33554432	@ D.5284, tmp151,
 434 00d2 002B     		cmp	r3, #0	@ D.5284,
 435 00d4 1AD1     		bne	.L29	@,
 374:FreeRTOS/event_groups.c **** 		{
 375:FreeRTOS/event_groups.c **** 			taskENTER_CRITICAL();
 436              		.loc 1 375 0
 437 00d6 FFF7FEFF 		bl	vPortEnterCritical	@
 376:FreeRTOS/event_groups.c **** 			{
 377:FreeRTOS/event_groups.c **** 				/* The task timed out, just return the current event bit value. */
 378:FreeRTOS/event_groups.c **** 				uxReturn = pxEventBits->uxEventBits;
 438              		.loc 1 378 0
 439 00da 7B6A     		ldr	r3, [r7, #36]	@ tmp152, pxEventBits
 440 00dc 1B68     		ldr	r3, [r3]	@ tmp153, pxEventBits_8->uxEventBits
 441 00de FB62     		str	r3, [r7, #44]	@ tmp153, uxReturn
 379:FreeRTOS/event_groups.c **** 
 380:FreeRTOS/event_groups.c **** 				/* It is possible that the event bits were updated between this
 381:FreeRTOS/event_groups.c **** 				task leaving the Blocked state and running again. */
 382:FreeRTOS/event_groups.c **** 				if( prvTestWaitCondition( uxReturn, uxBitsToWaitFor, xWaitForAllBits ) != pdFALSE )
 442              		.loc 1 382 0
 443 00e0 F86A     		ldr	r0, [r7, #44]	@, uxReturn
 444 00e2 B968     		ldr	r1, [r7, #8]	@, uxBitsToWaitFor
 445 00e4 3A68     		ldr	r2, [r7]	@, xWaitForAllBits
 446 00e6 FFF7FEFF 		bl	prvTestWaitCondition	@
 447 00ea 0346     		mov	r3, r0	@ D.5286,
 448 00ec 002B     		cmp	r3, #0	@ D.5286,
 449 00ee 09D0     		beq	.L30	@,
 383:FreeRTOS/event_groups.c **** 				{
 384:FreeRTOS/event_groups.c **** 					if( xClearOnExit != pdFALSE )
 450              		.loc 1 384 0
 451 00f0 7B68     		ldr	r3, [r7, #4]	@ tmp154, xClearOnExit
 452 00f2 002B     		cmp	r3, #0	@ tmp154,
 453 00f4 06D0     		beq	.L30	@,
 385:FreeRTOS/event_groups.c **** 					{
 386:FreeRTOS/event_groups.c **** 						pxEventBits->uxEventBits &= ~uxBitsToWaitFor;
 454              		.loc 1 386 0
 455 00f6 7B6A     		ldr	r3, [r7, #36]	@ tmp155, pxEventBits
 456 00f8 1A68     		ldr	r2, [r3]	@ D.5284, pxEventBits_8->uxEventBits
 457 00fa BB68     		ldr	r3, [r7, #8]	@ tmp156, uxBitsToWaitFor
 458 00fc DB43     		mvns	r3, r3	@ D.5284, tmp156
 459 00fe 1A40     		ands	r2, r2, r3	@, D.5284, D.5284, D.5284
 460 0100 7B6A     		ldr	r3, [r7, #36]	@ tmp157, pxEventBits
 461 0102 1A60     		str	r2, [r3]	@ D.5284, pxEventBits_8->uxEventBits
 462              	.L30:
 387:FreeRTOS/event_groups.c **** 					}
 388:FreeRTOS/event_groups.c **** 					else
 389:FreeRTOS/event_groups.c **** 					{
 390:FreeRTOS/event_groups.c **** 						mtCOVERAGE_TEST_MARKER();
 391:FreeRTOS/event_groups.c **** 					}
 392:FreeRTOS/event_groups.c **** 				}
 393:FreeRTOS/event_groups.c **** 				else
ARM GAS  C:\Users\COSMIN~1.MAR\AppData\Local\Temp\ccyAlg2e.s 			page 16


 394:FreeRTOS/event_groups.c **** 				{
 395:FreeRTOS/event_groups.c **** 					mtCOVERAGE_TEST_MARKER();
 396:FreeRTOS/event_groups.c **** 				}
 397:FreeRTOS/event_groups.c **** 			}
 398:FreeRTOS/event_groups.c **** 			taskEXIT_CRITICAL();
 463              		.loc 1 398 0
 464 0104 FFF7FEFF 		bl	vPortExitCritical	@
 399:FreeRTOS/event_groups.c **** 
 400:FreeRTOS/event_groups.c **** 			/* Prevent compiler warnings when trace macros are not used. */
 401:FreeRTOS/event_groups.c **** 			xTimeoutOccurred = pdFALSE;
 465              		.loc 1 401 0
 466 0108 0023     		movs	r3, #0	@ tmp158,
 467 010a 3B62     		str	r3, [r7, #32]	@ tmp158, xTimeoutOccurred
 468              	.L29:
 402:FreeRTOS/event_groups.c **** 		}
 403:FreeRTOS/event_groups.c **** 		else
 404:FreeRTOS/event_groups.c **** 		{
 405:FreeRTOS/event_groups.c **** 			/* The task unblocked because the bits were set. */
 406:FreeRTOS/event_groups.c **** 		}
 407:FreeRTOS/event_groups.c **** 
 408:FreeRTOS/event_groups.c **** 		/* The task blocked so control bits may have been set. */
 409:FreeRTOS/event_groups.c **** 		uxReturn &= ~eventEVENT_BITS_CONTROL_BYTES;
 469              		.loc 1 409 0
 470 010c FB6A     		ldr	r3, [r7, #44]	@ tmp160, uxReturn
 471 010e 23F07F43 		bic	r3, r3, #-16777216	@ tmp159, tmp160,
 472 0112 FB62     		str	r3, [r7, #44]	@ tmp159, uxReturn
 473              	.L27:
 410:FreeRTOS/event_groups.c **** 	}
 411:FreeRTOS/event_groups.c **** 	traceEVENT_GROUP_WAIT_BITS_END( xEventGroup, uxBitsToWaitFor, xTimeoutOccurred );
 412:FreeRTOS/event_groups.c **** 
 413:FreeRTOS/event_groups.c **** 	return uxReturn;
 474              		.loc 1 413 0
 475 0114 FB6A     		ldr	r3, [r7, #44]	@ D.5287, uxReturn
 414:FreeRTOS/event_groups.c **** }
 476              		.loc 1 414 0
 477 0116 1846     		mov	r0, r3	@, <retval>
 478 0118 3037     		adds	r7, r7, #48	@,,
 479              		.cfi_def_cfa_offset 8
 480 011a BD46     		mov	sp, r7	@,
 481              		.cfi_def_cfa_register 13
 482              		@ sp needed	@
 483 011c 80BD     		pop	{r7, pc}	@
 484              		.cfi_endproc
 485              	.LFE3:
 486              		.size	xEventGroupWaitBits, .-xEventGroupWaitBits
 487 011e 00BF     		.section	.text.xEventGroupClearBits,"ax",%progbits
 488              		.align	2
 489              		.global	xEventGroupClearBits
 490              		.thumb
 491              		.thumb_func
 492              		.type	xEventGroupClearBits, %function
 493              	xEventGroupClearBits:
 494              	.LFB4:
 415:FreeRTOS/event_groups.c **** /*-----------------------------------------------------------*/
 416:FreeRTOS/event_groups.c **** 
 417:FreeRTOS/event_groups.c **** EventBits_t xEventGroupClearBits( EventGroupHandle_t xEventGroup, const EventBits_t uxBitsToClear )
 418:FreeRTOS/event_groups.c **** {
ARM GAS  C:\Users\COSMIN~1.MAR\AppData\Local\Temp\ccyAlg2e.s 			page 17


 495              		.loc 1 418 0
 496              		.cfi_startproc
 497              		@ args = 0, pretend = 0, frame = 16
 498              		@ frame_needed = 1, uses_anonymous_args = 0
 499 0000 80B5     		push	{r7, lr}	@
 500              		.cfi_def_cfa_offset 8
 501              		.cfi_offset 7, -8
 502              		.cfi_offset 14, -4
 503 0002 84B0     		sub	sp, sp, #16	@,,
 504              		.cfi_def_cfa_offset 24
 505 0004 00AF     		add	r7, sp, #0	@,,
 506              		.cfi_def_cfa_register 7
 507 0006 7860     		str	r0, [r7, #4]	@ xEventGroup, xEventGroup
 508 0008 3960     		str	r1, [r7]	@ uxBitsToClear, uxBitsToClear
 419:FreeRTOS/event_groups.c **** EventGroup_t *pxEventBits = ( EventGroup_t * ) xEventGroup;
 509              		.loc 1 419 0
 510 000a 7B68     		ldr	r3, [r7, #4]	@ tmp116, xEventGroup
 511 000c FB60     		str	r3, [r7, #12]	@ tmp116, pxEventBits
 420:FreeRTOS/event_groups.c **** EventBits_t uxReturn;
 421:FreeRTOS/event_groups.c **** 
 422:FreeRTOS/event_groups.c **** 	/* Check the user is not attempting to clear the bits used by the kernel
 423:FreeRTOS/event_groups.c **** 	itself. */
 424:FreeRTOS/event_groups.c **** 	configASSERT( ( uxBitsToClear & eventEVENT_BITS_CONTROL_BYTES ) == 0 );
 512              		.loc 1 424 0
 513 000e 3B68     		ldr	r3, [r7]	@ tmp117, uxBitsToClear
 514 0010 03F07F43 		and	r3, r3, #-16777216	@ D.5288, tmp117,
 515 0014 002B     		cmp	r3, #0	@ D.5288,
 516 0016 02D0     		beq	.L33	@,
 517              		.loc 1 424 0 is_stmt 0 discriminator 1
 518 0018 FFF7FEFF 		bl	ulPortSetInterruptMask	@
 519              	.L34:
 520 001c FEE7     		b	.L34	@
 521              	.L33:
 425:FreeRTOS/event_groups.c **** 
 426:FreeRTOS/event_groups.c **** 	taskENTER_CRITICAL();
 522              		.loc 1 426 0 is_stmt 1
 523 001e FFF7FEFF 		bl	vPortEnterCritical	@
 427:FreeRTOS/event_groups.c **** 	{
 428:FreeRTOS/event_groups.c **** 		traceEVENT_GROUP_CLEAR_BITS( xEventGroup, uxBitsToClear );
 429:FreeRTOS/event_groups.c **** 
 430:FreeRTOS/event_groups.c **** 		/* The value returned is the event group value prior to the bits being
 431:FreeRTOS/event_groups.c **** 		cleared. */
 432:FreeRTOS/event_groups.c **** 		uxReturn = pxEventBits->uxEventBits;
 524              		.loc 1 432 0
 525 0022 FB68     		ldr	r3, [r7, #12]	@ tmp118, pxEventBits
 526 0024 1B68     		ldr	r3, [r3]	@ tmp119, pxEventBits_2->uxEventBits
 527 0026 BB60     		str	r3, [r7, #8]	@ tmp119, uxReturn
 433:FreeRTOS/event_groups.c **** 
 434:FreeRTOS/event_groups.c **** 		/* Clear the bits. */
 435:FreeRTOS/event_groups.c **** 		pxEventBits->uxEventBits &= ~uxBitsToClear;
 528              		.loc 1 435 0
 529 0028 FB68     		ldr	r3, [r7, #12]	@ tmp120, pxEventBits
 530 002a 1A68     		ldr	r2, [r3]	@ D.5288, pxEventBits_2->uxEventBits
 531 002c 3B68     		ldr	r3, [r7]	@ tmp121, uxBitsToClear
 532 002e DB43     		mvns	r3, r3	@ D.5288, tmp121
 533 0030 1A40     		ands	r2, r2, r3	@, D.5288, D.5288, D.5288
 534 0032 FB68     		ldr	r3, [r7, #12]	@ tmp122, pxEventBits
ARM GAS  C:\Users\COSMIN~1.MAR\AppData\Local\Temp\ccyAlg2e.s 			page 18


 535 0034 1A60     		str	r2, [r3]	@ D.5288, pxEventBits_2->uxEventBits
 436:FreeRTOS/event_groups.c **** 	}
 437:FreeRTOS/event_groups.c **** 	taskEXIT_CRITICAL();
 536              		.loc 1 437 0
 537 0036 FFF7FEFF 		bl	vPortExitCritical	@
 438:FreeRTOS/event_groups.c **** 
 439:FreeRTOS/event_groups.c **** 	return uxReturn;
 538              		.loc 1 439 0
 539 003a BB68     		ldr	r3, [r7, #8]	@ D.5289, uxReturn
 440:FreeRTOS/event_groups.c **** }
 540              		.loc 1 440 0
 541 003c 1846     		mov	r0, r3	@, <retval>
 542 003e 1037     		adds	r7, r7, #16	@,,
 543              		.cfi_def_cfa_offset 8
 544 0040 BD46     		mov	sp, r7	@,
 545              		.cfi_def_cfa_register 13
 546              		@ sp needed	@
 547 0042 80BD     		pop	{r7, pc}	@
 548              		.cfi_endproc
 549              	.LFE4:
 550              		.size	xEventGroupClearBits, .-xEventGroupClearBits
 551              		.section	.text.xEventGroupGetBitsFromISR,"ax",%progbits
 552              		.align	2
 553              		.global	xEventGroupGetBitsFromISR
 554              		.thumb
 555              		.thumb_func
 556              		.type	xEventGroupGetBitsFromISR, %function
 557              	xEventGroupGetBitsFromISR:
 558              	.LFB5:
 441:FreeRTOS/event_groups.c **** /*-----------------------------------------------------------*/
 442:FreeRTOS/event_groups.c **** 
 443:FreeRTOS/event_groups.c **** #if ( ( configUSE_TRACE_FACILITY == 1 ) && ( INCLUDE_xTimerPendFunctionCall == 1 ) && ( configUSE_T
 444:FreeRTOS/event_groups.c **** 
 445:FreeRTOS/event_groups.c **** 	BaseT_t xEventGroupClearBitsFromISR( EventGroupHandle_t xEventGroup, const EventBits_t uxBitsToCle
 446:FreeRTOS/event_groups.c **** 	{
 447:FreeRTOS/event_groups.c **** 		BaseT_t xReturn;
 448:FreeRTOS/event_groups.c **** 
 449:FreeRTOS/event_groups.c **** 		traceEVENT_GROUP_CLEAR_BITS_FROM_ISR( xEventGroup, uxBitsToClear );
 450:FreeRTOS/event_groups.c **** 		xReturn = xTimerPendFunctionCallFromISR( vEventGroupClearBitsCallback, ( void * ) xEventGroup, ( 
 451:FreeRTOS/event_groups.c **** 
 452:FreeRTOS/event_groups.c **** 		return xReturn;
 453:FreeRTOS/event_groups.c **** 	}
 454:FreeRTOS/event_groups.c **** 
 455:FreeRTOS/event_groups.c **** #endif
 456:FreeRTOS/event_groups.c **** /*-----------------------------------------------------------*/
 457:FreeRTOS/event_groups.c **** 
 458:FreeRTOS/event_groups.c **** EventBits_t xEventGroupGetBitsFromISR( EventGroupHandle_t xEventGroup )
 459:FreeRTOS/event_groups.c **** {
 559              		.loc 1 459 0
 560              		.cfi_startproc
 561              		@ args = 0, pretend = 0, frame = 24
 562              		@ frame_needed = 1, uses_anonymous_args = 0
 563 0000 80B5     		push	{r7, lr}	@
 564              		.cfi_def_cfa_offset 8
 565              		.cfi_offset 7, -8
 566              		.cfi_offset 14, -4
 567 0002 86B0     		sub	sp, sp, #24	@,,
ARM GAS  C:\Users\COSMIN~1.MAR\AppData\Local\Temp\ccyAlg2e.s 			page 19


 568              		.cfi_def_cfa_offset 32
 569 0004 00AF     		add	r7, sp, #0	@,,
 570              		.cfi_def_cfa_register 7
 571 0006 7860     		str	r0, [r7, #4]	@ xEventGroup, xEventGroup
 460:FreeRTOS/event_groups.c **** UBaseT_t uxSavedInterruptStatus;
 461:FreeRTOS/event_groups.c **** EventGroup_t *pxEventBits = ( EventGroup_t * ) xEventGroup;
 572              		.loc 1 461 0
 573 0008 7B68     		ldr	r3, [r7, #4]	@ tmp112, xEventGroup
 574 000a 7B61     		str	r3, [r7, #20]	@ tmp112, pxEventBits
 462:FreeRTOS/event_groups.c **** EventBits_t uxReturn;
 463:FreeRTOS/event_groups.c **** 
 464:FreeRTOS/event_groups.c **** 	uxSavedInterruptStatus = portSET_INTERRUPT_MASK_FROM_ISR();
 575              		.loc 1 464 0
 576 000c FFF7FEFF 		bl	ulPortSetInterruptMask	@
 577 0010 3861     		str	r0, [r7, #16]	@, uxSavedInterruptStatus
 465:FreeRTOS/event_groups.c **** 	{
 466:FreeRTOS/event_groups.c **** 		uxReturn = pxEventBits->uxEventBits;
 578              		.loc 1 466 0
 579 0012 7B69     		ldr	r3, [r7, #20]	@ tmp113, pxEventBits
 580 0014 1B68     		ldr	r3, [r3]	@ tmp114, pxEventBits_2->uxEventBits
 581 0016 FB60     		str	r3, [r7, #12]	@ tmp114, uxReturn
 467:FreeRTOS/event_groups.c **** 	}
 468:FreeRTOS/event_groups.c **** 	portCLEAR_INTERRUPT_MASK_FROM_ISR( uxSavedInterruptStatus );
 582              		.loc 1 468 0
 583 0018 3869     		ldr	r0, [r7, #16]	@, uxSavedInterruptStatus
 584 001a FFF7FEFF 		bl	vPortClearInterruptMask	@
 469:FreeRTOS/event_groups.c **** 
 470:FreeRTOS/event_groups.c **** 	return uxReturn;
 585              		.loc 1 470 0
 586 001e FB68     		ldr	r3, [r7, #12]	@ D.5290, uxReturn
 471:FreeRTOS/event_groups.c **** }
 587              		.loc 1 471 0
 588 0020 1846     		mov	r0, r3	@, <retval>
 589 0022 1837     		adds	r7, r7, #24	@,,
 590              		.cfi_def_cfa_offset 8
 591 0024 BD46     		mov	sp, r7	@,
 592              		.cfi_def_cfa_register 13
 593              		@ sp needed	@
 594 0026 80BD     		pop	{r7, pc}	@
 595              		.cfi_endproc
 596              	.LFE5:
 597              		.size	xEventGroupGetBitsFromISR, .-xEventGroupGetBitsFromISR
 598              		.section	.text.xEventGroupSetBits,"ax",%progbits
 599              		.align	2
 600              		.global	xEventGroupSetBits
 601              		.thumb
 602              		.thumb_func
 603              		.type	xEventGroupSetBits, %function
 604              	xEventGroupSetBits:
 605              	.LFB6:
 472:FreeRTOS/event_groups.c **** /*-----------------------------------------------------------*/
 473:FreeRTOS/event_groups.c **** 
 474:FreeRTOS/event_groups.c **** EventBits_t xEventGroupSetBits( EventGroupHandle_t xEventGroup, const EventBits_t uxBitsToSet )
 475:FreeRTOS/event_groups.c **** {
 606              		.loc 1 475 0
 607              		.cfi_startproc
 608              		@ args = 0, pretend = 0, frame = 48
ARM GAS  C:\Users\COSMIN~1.MAR\AppData\Local\Temp\ccyAlg2e.s 			page 20


 609              		@ frame_needed = 1, uses_anonymous_args = 0
 610 0000 80B5     		push	{r7, lr}	@
 611              		.cfi_def_cfa_offset 8
 612              		.cfi_offset 7, -8
 613              		.cfi_offset 14, -4
 614 0002 8CB0     		sub	sp, sp, #48	@,,
 615              		.cfi_def_cfa_offset 56
 616 0004 00AF     		add	r7, sp, #0	@,,
 617              		.cfi_def_cfa_register 7
 618 0006 7860     		str	r0, [r7, #4]	@ xEventGroup, xEventGroup
 619 0008 3960     		str	r1, [r7]	@ uxBitsToSet, uxBitsToSet
 476:FreeRTOS/event_groups.c **** ListItem_t *pxListItem, *pxNext;
 477:FreeRTOS/event_groups.c **** ListItem_t const *pxListEnd;
 478:FreeRTOS/event_groups.c **** List_t *pxList;
 479:FreeRTOS/event_groups.c **** EventBits_t uxBitsToClear = 0, uxBitsWaitedFor, uxControlBits;
 620              		.loc 1 479 0
 621 000a 0023     		movs	r3, #0	@ tmp126,
 622 000c BB62     		str	r3, [r7, #40]	@ tmp126, uxBitsToClear
 480:FreeRTOS/event_groups.c **** EventGroup_t *pxEventBits = ( EventGroup_t * ) xEventGroup;
 623              		.loc 1 480 0
 624 000e 7B68     		ldr	r3, [r7, #4]	@ tmp127, xEventGroup
 625 0010 3B62     		str	r3, [r7, #32]	@ tmp127, pxEventBits
 481:FreeRTOS/event_groups.c **** BaseT_t xMatchFound = pdFALSE;
 626              		.loc 1 481 0
 627 0012 0023     		movs	r3, #0	@ tmp128,
 628 0014 7B62     		str	r3, [r7, #36]	@ tmp128, xMatchFound
 482:FreeRTOS/event_groups.c **** 
 483:FreeRTOS/event_groups.c **** 	/* Check the user is not attempting to set the bits used by the kernel
 484:FreeRTOS/event_groups.c **** 	itself. */
 485:FreeRTOS/event_groups.c **** 	configASSERT( ( uxBitsToSet & eventEVENT_BITS_CONTROL_BYTES ) == 0 );
 629              		.loc 1 485 0
 630 0016 3B68     		ldr	r3, [r7]	@ tmp129, uxBitsToSet
 631 0018 03F07F43 		and	r3, r3, #-16777216	@ D.5291, tmp129,
 632 001c 002B     		cmp	r3, #0	@ D.5291,
 633 001e 02D0     		beq	.L39	@,
 634              		.loc 1 485 0 is_stmt 0 discriminator 1
 635 0020 FFF7FEFF 		bl	ulPortSetInterruptMask	@
 636              	.L40:
 637 0024 FEE7     		b	.L40	@
 638              	.L39:
 486:FreeRTOS/event_groups.c **** 
 487:FreeRTOS/event_groups.c **** 	pxList = &( pxEventBits->xTasksWaitingForBits );
 639              		.loc 1 487 0 is_stmt 1
 640 0026 3B6A     		ldr	r3, [r7, #32]	@ tmp131, pxEventBits
 641 0028 0433     		adds	r3, r3, #4	@ tmp130, tmp131,
 642 002a FB61     		str	r3, [r7, #28]	@ tmp130, pxList
 488:FreeRTOS/event_groups.c **** 	pxListEnd = listGET_END_MARKER( pxList ); /*lint !e826 !e740 The mini list structure is used as th
 643              		.loc 1 488 0
 644 002c FB69     		ldr	r3, [r7, #28]	@ tmp133, pxList
 645 002e 0833     		adds	r3, r3, #8	@ tmp132, tmp133,
 646 0030 BB61     		str	r3, [r7, #24]	@ tmp132, pxListEnd
 489:FreeRTOS/event_groups.c **** 	vTaskSuspendAll();
 647              		.loc 1 489 0
 648 0032 FFF7FEFF 		bl	vTaskSuspendAll	@
 490:FreeRTOS/event_groups.c **** 	{
 491:FreeRTOS/event_groups.c **** 		traceEVENT_GROUP_SET_BITS( xEventGroup, uxBitsToSet );
 492:FreeRTOS/event_groups.c **** 
ARM GAS  C:\Users\COSMIN~1.MAR\AppData\Local\Temp\ccyAlg2e.s 			page 21


 493:FreeRTOS/event_groups.c **** 		pxListItem = listGET_HEAD_ENTRY( pxList );
 649              		.loc 1 493 0
 650 0036 FB69     		ldr	r3, [r7, #28]	@ tmp134, pxList
 651 0038 DB68     		ldr	r3, [r3, #12]	@ tmp135, pxList_12->xListEnd.pxNext
 652 003a FB62     		str	r3, [r7, #44]	@ tmp135, pxListItem
 494:FreeRTOS/event_groups.c **** 
 495:FreeRTOS/event_groups.c **** 		/* Set the bits. */
 496:FreeRTOS/event_groups.c **** 		pxEventBits->uxEventBits |= uxBitsToSet;
 653              		.loc 1 496 0
 654 003c 3B6A     		ldr	r3, [r7, #32]	@ tmp136, pxEventBits
 655 003e 1A68     		ldr	r2, [r3]	@ D.5291, pxEventBits_8->uxEventBits
 656 0040 3B68     		ldr	r3, [r7]	@ tmp137, uxBitsToSet
 657 0042 1A43     		orrs	r2, r2, r3	@, D.5291, D.5291, tmp137
 658 0044 3B6A     		ldr	r3, [r7, #32]	@ tmp138, pxEventBits
 659 0046 1A60     		str	r2, [r3]	@ D.5291, pxEventBits_8->uxEventBits
 497:FreeRTOS/event_groups.c **** 
 498:FreeRTOS/event_groups.c **** 		/* See if the new bit value should unblock any tasks. */
 499:FreeRTOS/event_groups.c **** 		while( pxListItem != pxListEnd )
 660              		.loc 1 499 0
 661 0048 3CE0     		b	.L41	@
 662              	.L46:
 500:FreeRTOS/event_groups.c **** 		{
 501:FreeRTOS/event_groups.c **** 			pxNext = listGET_NEXT( pxListItem );
 663              		.loc 1 501 0
 664 004a FB6A     		ldr	r3, [r7, #44]	@ tmp139, pxListItem
 665 004c 5B68     		ldr	r3, [r3, #4]	@ tmp140, pxListItem_1->pxNext
 666 004e 7B61     		str	r3, [r7, #20]	@ tmp140, pxNext
 502:FreeRTOS/event_groups.c **** 			uxBitsWaitedFor = listGET_LIST_ITEM_VALUE( pxListItem );
 667              		.loc 1 502 0
 668 0050 FB6A     		ldr	r3, [r7, #44]	@ tmp141, pxListItem
 669 0052 1B68     		ldr	r3, [r3]	@ tmp142, pxListItem_1->xItemValue
 670 0054 3B61     		str	r3, [r7, #16]	@ tmp142, uxBitsWaitedFor
 503:FreeRTOS/event_groups.c **** 			xMatchFound = pdFALSE;
 671              		.loc 1 503 0
 672 0056 0023     		movs	r3, #0	@ tmp143,
 673 0058 7B62     		str	r3, [r7, #36]	@ tmp143, xMatchFound
 504:FreeRTOS/event_groups.c **** 
 505:FreeRTOS/event_groups.c **** 			/* Split the bits waited for from the control bits. */
 506:FreeRTOS/event_groups.c **** 			uxControlBits = uxBitsWaitedFor & eventEVENT_BITS_CONTROL_BYTES;
 674              		.loc 1 506 0
 675 005a 3B69     		ldr	r3, [r7, #16]	@ tmp145, uxBitsWaitedFor
 676 005c 03F07F43 		and	r3, r3, #-16777216	@ tmp144, tmp145,
 677 0060 FB60     		str	r3, [r7, #12]	@ tmp144, uxControlBits
 507:FreeRTOS/event_groups.c **** 			uxBitsWaitedFor &= ~eventEVENT_BITS_CONTROL_BYTES;
 678              		.loc 1 507 0
 679 0062 3B69     		ldr	r3, [r7, #16]	@ tmp147, uxBitsWaitedFor
 680 0064 23F07F43 		bic	r3, r3, #-16777216	@ tmp146, tmp147,
 681 0068 3B61     		str	r3, [r7, #16]	@ tmp146, uxBitsWaitedFor
 508:FreeRTOS/event_groups.c **** 
 509:FreeRTOS/event_groups.c **** 			if( ( uxControlBits & eventWAIT_FOR_ALL_BITS ) == ( EventBits_t ) 0 )
 682              		.loc 1 509 0
 683 006a FB68     		ldr	r3, [r7, #12]	@ tmp148, uxControlBits
 684 006c 03F08063 		and	r3, r3, #67108864	@ D.5291, tmp148,
 685 0070 002B     		cmp	r3, #0	@ D.5291,
 686 0072 08D1     		bne	.L42	@,
 510:FreeRTOS/event_groups.c **** 			{
 511:FreeRTOS/event_groups.c **** 				/* Just looking for single bit being set. */
ARM GAS  C:\Users\COSMIN~1.MAR\AppData\Local\Temp\ccyAlg2e.s 			page 22


 512:FreeRTOS/event_groups.c **** 				if( ( uxBitsWaitedFor & pxEventBits->uxEventBits ) != ( EventBits_t ) 0 )
 687              		.loc 1 512 0
 688 0074 3B6A     		ldr	r3, [r7, #32]	@ tmp149, pxEventBits
 689 0076 1A68     		ldr	r2, [r3]	@ D.5291, pxEventBits_8->uxEventBits
 690 0078 3B69     		ldr	r3, [r7, #16]	@ tmp150, uxBitsWaitedFor
 691 007a 1340     		ands	r3, r3, r2	@, D.5291, tmp150, D.5291
 692 007c 002B     		cmp	r3, #0	@ D.5291,
 693 007e 0BD0     		beq	.L43	@,
 513:FreeRTOS/event_groups.c **** 				{
 514:FreeRTOS/event_groups.c **** 					xMatchFound = pdTRUE;
 694              		.loc 1 514 0
 695 0080 0123     		movs	r3, #1	@ tmp151,
 696 0082 7B62     		str	r3, [r7, #36]	@ tmp151, xMatchFound
 697 0084 08E0     		b	.L43	@
 698              	.L42:
 515:FreeRTOS/event_groups.c **** 				}
 516:FreeRTOS/event_groups.c **** 				else
 517:FreeRTOS/event_groups.c **** 				{
 518:FreeRTOS/event_groups.c **** 					mtCOVERAGE_TEST_MARKER();
 519:FreeRTOS/event_groups.c **** 				}
 520:FreeRTOS/event_groups.c **** 			}
 521:FreeRTOS/event_groups.c **** 			else if( ( uxBitsWaitedFor & pxEventBits->uxEventBits ) == uxBitsWaitedFor )
 699              		.loc 1 521 0
 700 0086 3B6A     		ldr	r3, [r7, #32]	@ tmp152, pxEventBits
 701 0088 1A68     		ldr	r2, [r3]	@ D.5291, pxEventBits_8->uxEventBits
 702 008a 3B69     		ldr	r3, [r7, #16]	@ tmp153, uxBitsWaitedFor
 703 008c 1A40     		ands	r2, r2, r3	@, D.5291, D.5291, tmp153
 704 008e 3B69     		ldr	r3, [r7, #16]	@ tmp154, uxBitsWaitedFor
 705 0090 9A42     		cmp	r2, r3	@ D.5291, tmp154
 706 0092 01D1     		bne	.L43	@,
 522:FreeRTOS/event_groups.c **** 			{
 523:FreeRTOS/event_groups.c **** 				/* All bits are set. */
 524:FreeRTOS/event_groups.c **** 				xMatchFound = pdTRUE;
 707              		.loc 1 524 0
 708 0094 0123     		movs	r3, #1	@ tmp155,
 709 0096 7B62     		str	r3, [r7, #36]	@ tmp155, xMatchFound
 710              	.L43:
 525:FreeRTOS/event_groups.c **** 			}
 526:FreeRTOS/event_groups.c **** 			else
 527:FreeRTOS/event_groups.c **** 			{
 528:FreeRTOS/event_groups.c **** 				/* Need all bits to be set, but not all the bits were set. */
 529:FreeRTOS/event_groups.c **** 			}
 530:FreeRTOS/event_groups.c **** 
 531:FreeRTOS/event_groups.c **** 			if( xMatchFound != pdFALSE )
 711              		.loc 1 531 0
 712 0098 7B6A     		ldr	r3, [r7, #36]	@ tmp156, xMatchFound
 713 009a 002B     		cmp	r3, #0	@ tmp156,
 714 009c 10D0     		beq	.L44	@,
 532:FreeRTOS/event_groups.c **** 			{
 533:FreeRTOS/event_groups.c **** 				/* The bits match.  Should the bits be cleared on exit? */
 534:FreeRTOS/event_groups.c **** 				if( ( uxControlBits & eventCLEAR_EVENTS_ON_EXIT_BIT ) != ( EventBits_t ) 0 )
 715              		.loc 1 534 0
 716 009e FB68     		ldr	r3, [r7, #12]	@ tmp157, uxControlBits
 717 00a0 03F08073 		and	r3, r3, #16777216	@ D.5291, tmp157,
 718 00a4 002B     		cmp	r3, #0	@ D.5291,
 719 00a6 03D0     		beq	.L45	@,
 535:FreeRTOS/event_groups.c **** 				{
ARM GAS  C:\Users\COSMIN~1.MAR\AppData\Local\Temp\ccyAlg2e.s 			page 23


 536:FreeRTOS/event_groups.c **** 					uxBitsToClear |= uxBitsWaitedFor;
 720              		.loc 1 536 0
 721 00a8 BA6A     		ldr	r2, [r7, #40]	@ tmp159, uxBitsToClear
 722 00aa 3B69     		ldr	r3, [r7, #16]	@ tmp160, uxBitsWaitedFor
 723 00ac 1343     		orrs	r3, r3, r2	@, tmp158, tmp160, tmp159
 724 00ae BB62     		str	r3, [r7, #40]	@ tmp158, uxBitsToClear
 725              	.L45:
 537:FreeRTOS/event_groups.c **** 				}
 538:FreeRTOS/event_groups.c **** 				else
 539:FreeRTOS/event_groups.c **** 				{
 540:FreeRTOS/event_groups.c **** 					mtCOVERAGE_TEST_MARKER();
 541:FreeRTOS/event_groups.c **** 				}
 542:FreeRTOS/event_groups.c **** 
 543:FreeRTOS/event_groups.c **** 				/* Store the actual event flag value in the task's event list
 544:FreeRTOS/event_groups.c **** 				item before removing the task from the event list.  The
 545:FreeRTOS/event_groups.c **** 				eventUNBLOCKED_DUE_TO_BIT_SET bit is set so the task knows
 546:FreeRTOS/event_groups.c **** 				that is was unblocked due to its required bits matching, rather
 547:FreeRTOS/event_groups.c **** 				than because it timed out. */
 548:FreeRTOS/event_groups.c **** 				( void ) xTaskRemoveFromUnorderedEventList( pxListItem, pxEventBits->uxEventBits | eventUNBLOCK
 726              		.loc 1 548 0
 727 00b0 3B6A     		ldr	r3, [r7, #32]	@ tmp161, pxEventBits
 728 00b2 1B68     		ldr	r3, [r3]	@ D.5291, pxEventBits_8->uxEventBits
 729 00b4 43F00073 		orr	r3, r3, #33554432	@ D.5291, D.5291,
 730 00b8 F86A     		ldr	r0, [r7, #44]	@, pxListItem
 731 00ba 1946     		mov	r1, r3	@, D.5291
 732 00bc FFF7FEFF 		bl	xTaskRemoveFromUnorderedEventList	@
 733              	.L44:
 549:FreeRTOS/event_groups.c **** 			}
 550:FreeRTOS/event_groups.c **** 
 551:FreeRTOS/event_groups.c **** 			/* Move onto the next list item.  Note pxListItem->pxNext is not
 552:FreeRTOS/event_groups.c **** 			used here as the list item may have been removed from the event list
 553:FreeRTOS/event_groups.c **** 			and inserted into the ready/pending reading list. */
 554:FreeRTOS/event_groups.c **** 			pxListItem = pxNext;
 734              		.loc 1 554 0
 735 00c0 7B69     		ldr	r3, [r7, #20]	@ tmp162, pxNext
 736 00c2 FB62     		str	r3, [r7, #44]	@ tmp162, pxListItem
 737              	.L41:
 499:FreeRTOS/event_groups.c **** 		{
 738              		.loc 1 499 0
 739 00c4 FA6A     		ldr	r2, [r7, #44]	@ tmp163, pxListItem
 740 00c6 BB69     		ldr	r3, [r7, #24]	@ tmp164, pxListEnd
 741 00c8 9A42     		cmp	r2, r3	@ tmp163, tmp164
 742 00ca BED1     		bne	.L46	@,
 555:FreeRTOS/event_groups.c **** 		}
 556:FreeRTOS/event_groups.c **** 
 557:FreeRTOS/event_groups.c **** 		/* Clear any bits that matched when the eventCLEAR_EVENTS_ON_EXIT_BIT
 558:FreeRTOS/event_groups.c **** 		bit was set in the control word. */
 559:FreeRTOS/event_groups.c **** 		pxEventBits->uxEventBits &= ~uxBitsToClear;
 743              		.loc 1 559 0
 744 00cc 3B6A     		ldr	r3, [r7, #32]	@ tmp165, pxEventBits
 745 00ce 1A68     		ldr	r2, [r3]	@ D.5291, pxEventBits_8->uxEventBits
 746 00d0 BB6A     		ldr	r3, [r7, #40]	@ tmp166, uxBitsToClear
 747 00d2 DB43     		mvns	r3, r3	@ D.5291, tmp166
 748 00d4 1A40     		ands	r2, r2, r3	@, D.5291, D.5291, D.5291
 749 00d6 3B6A     		ldr	r3, [r7, #32]	@ tmp167, pxEventBits
 750 00d8 1A60     		str	r2, [r3]	@ D.5291, pxEventBits_8->uxEventBits
 560:FreeRTOS/event_groups.c **** 	}
ARM GAS  C:\Users\COSMIN~1.MAR\AppData\Local\Temp\ccyAlg2e.s 			page 24


 561:FreeRTOS/event_groups.c **** 	( void ) xTaskResumeAll();
 751              		.loc 1 561 0
 752 00da FFF7FEFF 		bl	xTaskResumeAll	@
 562:FreeRTOS/event_groups.c **** 
 563:FreeRTOS/event_groups.c **** 	return pxEventBits->uxEventBits;
 753              		.loc 1 563 0
 754 00de 3B6A     		ldr	r3, [r7, #32]	@ tmp168, pxEventBits
 755 00e0 1B68     		ldr	r3, [r3]	@ D.5292, pxEventBits_8->uxEventBits
 564:FreeRTOS/event_groups.c **** }
 756              		.loc 1 564 0
 757 00e2 1846     		mov	r0, r3	@, <retval>
 758 00e4 3037     		adds	r7, r7, #48	@,,
 759              		.cfi_def_cfa_offset 8
 760 00e6 BD46     		mov	sp, r7	@,
 761              		.cfi_def_cfa_register 13
 762              		@ sp needed	@
 763 00e8 80BD     		pop	{r7, pc}	@
 764              		.cfi_endproc
 765              	.LFE6:
 766              		.size	xEventGroupSetBits, .-xEventGroupSetBits
 767 00ea 00BF     		.section	.text.vEventGroupDelete,"ax",%progbits
 768              		.align	2
 769              		.global	vEventGroupDelete
 770              		.thumb
 771              		.thumb_func
 772              		.type	vEventGroupDelete, %function
 773              	vEventGroupDelete:
 774              	.LFB7:
 565:FreeRTOS/event_groups.c **** /*-----------------------------------------------------------*/
 566:FreeRTOS/event_groups.c **** 
 567:FreeRTOS/event_groups.c **** void vEventGroupDelete( EventGroupHandle_t xEventGroup )
 568:FreeRTOS/event_groups.c **** {
 775              		.loc 1 568 0
 776              		.cfi_startproc
 777              		@ args = 0, pretend = 0, frame = 16
 778              		@ frame_needed = 1, uses_anonymous_args = 0
 779 0000 80B5     		push	{r7, lr}	@
 780              		.cfi_def_cfa_offset 8
 781              		.cfi_offset 7, -8
 782              		.cfi_offset 14, -4
 783 0002 84B0     		sub	sp, sp, #16	@,,
 784              		.cfi_def_cfa_offset 24
 785 0004 00AF     		add	r7, sp, #0	@,,
 786              		.cfi_def_cfa_register 7
 787 0006 7860     		str	r0, [r7, #4]	@ xEventGroup, xEventGroup
 569:FreeRTOS/event_groups.c **** EventGroup_t *pxEventBits = ( EventGroup_t * ) xEventGroup;
 788              		.loc 1 569 0
 789 0008 7B68     		ldr	r3, [r7, #4]	@ tmp114, xEventGroup
 790 000a FB60     		str	r3, [r7, #12]	@ tmp114, pxEventBits
 570:FreeRTOS/event_groups.c **** const List_t *pxTasksWaitingForBits = &( pxEventBits->xTasksWaitingForBits );
 791              		.loc 1 570 0
 792 000c FB68     		ldr	r3, [r7, #12]	@ tmp116, pxEventBits
 793 000e 0433     		adds	r3, r3, #4	@ tmp115, tmp116,
 794 0010 BB60     		str	r3, [r7, #8]	@ tmp115, pxTasksWaitingForBits
 571:FreeRTOS/event_groups.c **** 
 572:FreeRTOS/event_groups.c **** 	vTaskSuspendAll();
 795              		.loc 1 572 0
ARM GAS  C:\Users\COSMIN~1.MAR\AppData\Local\Temp\ccyAlg2e.s 			page 25


 796 0012 FFF7FEFF 		bl	vTaskSuspendAll	@
 573:FreeRTOS/event_groups.c **** 	{
 574:FreeRTOS/event_groups.c **** 		traceEVENT_GROUP_DELETE( xEventGroup );
 575:FreeRTOS/event_groups.c **** 
 576:FreeRTOS/event_groups.c **** 		while( listCURRENT_LIST_LENGTH( pxTasksWaitingForBits ) > ( UBaseT_t ) 0 )
 797              		.loc 1 576 0
 798 0016 0FE0     		b	.L49	@
 799              	.L52:
 577:FreeRTOS/event_groups.c **** 		{
 578:FreeRTOS/event_groups.c **** 			/* Unblock the task, returning 0 as the event list is being deleted
 579:FreeRTOS/event_groups.c **** 			and	cannot therefore have any bits set. */
 580:FreeRTOS/event_groups.c **** 			configASSERT( pxTasksWaitingForBits->xListEnd.pxNext != ( ListItem_t * ) &( pxTasksWaitingForBit
 800              		.loc 1 580 0
 801 0018 BB68     		ldr	r3, [r7, #8]	@ tmp117, pxTasksWaitingForBits
 802 001a DA68     		ldr	r2, [r3, #12]	@ D.5294, pxTasksWaitingForBits_3->xListEnd.pxNext
 803 001c BB68     		ldr	r3, [r7, #8]	@ tmp118, pxTasksWaitingForBits
 804 001e 0833     		adds	r3, r3, #8	@ D.5295, tmp118,
 805 0020 9A42     		cmp	r2, r3	@ D.5294, D.5295
 806 0022 02D1     		bne	.L50	@,
 807              		.loc 1 580 0 is_stmt 0 discriminator 1
 808 0024 FFF7FEFF 		bl	ulPortSetInterruptMask	@
 809              	.L51:
 810 0028 FEE7     		b	.L51	@
 811              	.L50:
 581:FreeRTOS/event_groups.c **** 			( void ) xTaskRemoveFromUnorderedEventList( pxTasksWaitingForBits->xListEnd.pxNext, eventUNBLOCK
 812              		.loc 1 581 0 is_stmt 1
 813 002a BB68     		ldr	r3, [r7, #8]	@ tmp119, pxTasksWaitingForBits
 814 002c DB68     		ldr	r3, [r3, #12]	@ D.5294, pxTasksWaitingForBits_3->xListEnd.pxNext
 815 002e 1846     		mov	r0, r3	@, D.5294
 816 0030 4FF00071 		mov	r1, #33554432	@,
 817 0034 FFF7FEFF 		bl	xTaskRemoveFromUnorderedEventList	@
 818              	.L49:
 576:FreeRTOS/event_groups.c **** 		{
 819              		.loc 1 576 0
 820 0038 BB68     		ldr	r3, [r7, #8]	@ tmp120, pxTasksWaitingForBits
 821 003a 1B68     		ldr	r3, [r3]	@ D.5293, pxTasksWaitingForBits_3->uxNumberOfItems
 822 003c 002B     		cmp	r3, #0	@ D.5293,
 823 003e EBD1     		bne	.L52	@,
 582:FreeRTOS/event_groups.c **** 		}
 583:FreeRTOS/event_groups.c **** 
 584:FreeRTOS/event_groups.c **** 		vPortFree( pxEventBits );
 824              		.loc 1 584 0
 825 0040 F868     		ldr	r0, [r7, #12]	@, pxEventBits
 826 0042 FFF7FEFF 		bl	vPortFree	@
 585:FreeRTOS/event_groups.c **** 	}
 586:FreeRTOS/event_groups.c **** 	( void ) xTaskResumeAll();
 827              		.loc 1 586 0
 828 0046 FFF7FEFF 		bl	xTaskResumeAll	@
 587:FreeRTOS/event_groups.c **** }
 829              		.loc 1 587 0
 830 004a 1037     		adds	r7, r7, #16	@,,
 831              		.cfi_def_cfa_offset 8
 832 004c BD46     		mov	sp, r7	@,
 833              		.cfi_def_cfa_register 13
 834              		@ sp needed	@
 835 004e 80BD     		pop	{r7, pc}	@
 836              		.cfi_endproc
ARM GAS  C:\Users\COSMIN~1.MAR\AppData\Local\Temp\ccyAlg2e.s 			page 26


 837              	.LFE7:
 838              		.size	vEventGroupDelete, .-vEventGroupDelete
 839              		.section	.text.vEventGroupSetBitsCallback,"ax",%progbits
 840              		.align	2
 841              		.global	vEventGroupSetBitsCallback
 842              		.thumb
 843              		.thumb_func
 844              		.type	vEventGroupSetBitsCallback, %function
 845              	vEventGroupSetBitsCallback:
 846              	.LFB8:
 588:FreeRTOS/event_groups.c **** /*-----------------------------------------------------------*/
 589:FreeRTOS/event_groups.c **** 
 590:FreeRTOS/event_groups.c **** /* For internal use only - execute a 'set bits' command that was pended from
 591:FreeRTOS/event_groups.c **** an interrupt. */
 592:FreeRTOS/event_groups.c **** void vEventGroupSetBitsCallback( void *pvEventGroup, const uint32_t ulBitsToSet )
 593:FreeRTOS/event_groups.c **** {
 847              		.loc 1 593 0
 848              		.cfi_startproc
 849              		@ args = 0, pretend = 0, frame = 8
 850              		@ frame_needed = 1, uses_anonymous_args = 0
 851 0000 80B5     		push	{r7, lr}	@
 852              		.cfi_def_cfa_offset 8
 853              		.cfi_offset 7, -8
 854              		.cfi_offset 14, -4
 855 0002 82B0     		sub	sp, sp, #8	@,,
 856              		.cfi_def_cfa_offset 16
 857 0004 00AF     		add	r7, sp, #0	@,,
 858              		.cfi_def_cfa_register 7
 859 0006 7860     		str	r0, [r7, #4]	@ pvEventGroup, pvEventGroup
 860 0008 3960     		str	r1, [r7]	@ ulBitsToSet, ulBitsToSet
 594:FreeRTOS/event_groups.c **** 	( void ) xEventGroupSetBits( pvEventGroup, ( EventBits_t ) ulBitsToSet );
 861              		.loc 1 594 0
 862 000a 7868     		ldr	r0, [r7, #4]	@, pvEventGroup
 863 000c 3968     		ldr	r1, [r7]	@, ulBitsToSet
 864 000e FFF7FEFF 		bl	xEventGroupSetBits	@
 595:FreeRTOS/event_groups.c **** }
 865              		.loc 1 595 0
 866 0012 0837     		adds	r7, r7, #8	@,,
 867              		.cfi_def_cfa_offset 8
 868 0014 BD46     		mov	sp, r7	@,
 869              		.cfi_def_cfa_register 13
 870              		@ sp needed	@
 871 0016 80BD     		pop	{r7, pc}	@
 872              		.cfi_endproc
 873              	.LFE8:
 874              		.size	vEventGroupSetBitsCallback, .-vEventGroupSetBitsCallback
 875              		.section	.text.vEventGroupClearBitsCallback,"ax",%progbits
 876              		.align	2
 877              		.global	vEventGroupClearBitsCallback
 878              		.thumb
 879              		.thumb_func
 880              		.type	vEventGroupClearBitsCallback, %function
 881              	vEventGroupClearBitsCallback:
 882              	.LFB9:
 596:FreeRTOS/event_groups.c **** /*-----------------------------------------------------------*/
 597:FreeRTOS/event_groups.c **** 
 598:FreeRTOS/event_groups.c **** /* For internal use only - execute a 'clear bits' command that was pended from
ARM GAS  C:\Users\COSMIN~1.MAR\AppData\Local\Temp\ccyAlg2e.s 			page 27


 599:FreeRTOS/event_groups.c **** an interrupt. */
 600:FreeRTOS/event_groups.c **** void vEventGroupClearBitsCallback( void *pvEventGroup, const uint32_t ulBitsToClear )
 601:FreeRTOS/event_groups.c **** {
 883              		.loc 1 601 0
 884              		.cfi_startproc
 885              		@ args = 0, pretend = 0, frame = 8
 886              		@ frame_needed = 1, uses_anonymous_args = 0
 887 0000 80B5     		push	{r7, lr}	@
 888              		.cfi_def_cfa_offset 8
 889              		.cfi_offset 7, -8
 890              		.cfi_offset 14, -4
 891 0002 82B0     		sub	sp, sp, #8	@,,
 892              		.cfi_def_cfa_offset 16
 893 0004 00AF     		add	r7, sp, #0	@,,
 894              		.cfi_def_cfa_register 7
 895 0006 7860     		str	r0, [r7, #4]	@ pvEventGroup, pvEventGroup
 896 0008 3960     		str	r1, [r7]	@ ulBitsToClear, ulBitsToClear
 602:FreeRTOS/event_groups.c **** 	( void ) xEventGroupClearBits( pvEventGroup, ( EventBits_t ) ulBitsToClear );
 897              		.loc 1 602 0
 898 000a 7868     		ldr	r0, [r7, #4]	@, pvEventGroup
 899 000c 3968     		ldr	r1, [r7]	@, ulBitsToClear
 900 000e FFF7FEFF 		bl	xEventGroupClearBits	@
 603:FreeRTOS/event_groups.c **** }
 901              		.loc 1 603 0
 902 0012 0837     		adds	r7, r7, #8	@,,
 903              		.cfi_def_cfa_offset 8
 904 0014 BD46     		mov	sp, r7	@,
 905              		.cfi_def_cfa_register 13
 906              		@ sp needed	@
 907 0016 80BD     		pop	{r7, pc}	@
 908              		.cfi_endproc
 909              	.LFE9:
 910              		.size	vEventGroupClearBitsCallback, .-vEventGroupClearBitsCallback
 911              		.section	.text.prvTestWaitCondition,"ax",%progbits
 912              		.align	2
 913              		.thumb
 914              		.thumb_func
 915              		.type	prvTestWaitCondition, %function
 916              	prvTestWaitCondition:
 917              	.LFB10:
 604:FreeRTOS/event_groups.c **** /*-----------------------------------------------------------*/
 605:FreeRTOS/event_groups.c **** 
 606:FreeRTOS/event_groups.c **** static BaseT_t prvTestWaitCondition( const EventBits_t uxCurrentEventBits, const EventBits_t uxBits
 607:FreeRTOS/event_groups.c **** {
 918              		.loc 1 607 0
 919              		.cfi_startproc
 920              		@ args = 0, pretend = 0, frame = 24
 921              		@ frame_needed = 1, uses_anonymous_args = 0
 922              		@ link register save eliminated.
 923 0000 80B4     		push	{r7}	@
 924              		.cfi_def_cfa_offset 4
 925              		.cfi_offset 7, -4
 926 0002 87B0     		sub	sp, sp, #28	@,,
 927              		.cfi_def_cfa_offset 32
 928 0004 00AF     		add	r7, sp, #0	@,,
 929              		.cfi_def_cfa_register 7
 930 0006 F860     		str	r0, [r7, #12]	@ uxCurrentEventBits, uxCurrentEventBits
ARM GAS  C:\Users\COSMIN~1.MAR\AppData\Local\Temp\ccyAlg2e.s 			page 28


 931 0008 B960     		str	r1, [r7, #8]	@ uxBitsToWaitFor, uxBitsToWaitFor
 932 000a 7A60     		str	r2, [r7, #4]	@ xWaitForAllBits, xWaitForAllBits
 608:FreeRTOS/event_groups.c **** BaseT_t xWaitConditionMet = pdFALSE;
 933              		.loc 1 608 0
 934 000c 0023     		movs	r3, #0	@ tmp114,
 935 000e 7B61     		str	r3, [r7, #20]	@ tmp114, xWaitConditionMet
 609:FreeRTOS/event_groups.c **** 
 610:FreeRTOS/event_groups.c **** 	if( xWaitForAllBits == pdFALSE )
 936              		.loc 1 610 0
 937 0010 7B68     		ldr	r3, [r7, #4]	@ tmp115, xWaitForAllBits
 938 0012 002B     		cmp	r3, #0	@ tmp115,
 939 0014 07D1     		bne	.L56	@,
 611:FreeRTOS/event_groups.c **** 	{
 612:FreeRTOS/event_groups.c **** 		/* Task only has to wait for one bit within uxBitsToWaitFor to be
 613:FreeRTOS/event_groups.c **** 		set.  Is one already set? */
 614:FreeRTOS/event_groups.c **** 		if( ( uxCurrentEventBits & uxBitsToWaitFor ) != ( EventBits_t ) 0 )
 940              		.loc 1 614 0
 941 0016 FA68     		ldr	r2, [r7, #12]	@ tmp116, uxCurrentEventBits
 942 0018 BB68     		ldr	r3, [r7, #8]	@ tmp117, uxBitsToWaitFor
 943 001a 1340     		ands	r3, r3, r2	@, D.5296, tmp117, tmp116
 944 001c 002B     		cmp	r3, #0	@ D.5296,
 945 001e 0AD0     		beq	.L57	@,
 615:FreeRTOS/event_groups.c **** 		{
 616:FreeRTOS/event_groups.c **** 			xWaitConditionMet = pdTRUE;
 946              		.loc 1 616 0
 947 0020 0123     		movs	r3, #1	@ tmp118,
 948 0022 7B61     		str	r3, [r7, #20]	@ tmp118, xWaitConditionMet
 949 0024 07E0     		b	.L57	@
 950              	.L56:
 617:FreeRTOS/event_groups.c **** 		}
 618:FreeRTOS/event_groups.c **** 		else
 619:FreeRTOS/event_groups.c **** 		{
 620:FreeRTOS/event_groups.c **** 			mtCOVERAGE_TEST_MARKER();
 621:FreeRTOS/event_groups.c **** 		}
 622:FreeRTOS/event_groups.c **** 	}
 623:FreeRTOS/event_groups.c **** 	else
 624:FreeRTOS/event_groups.c **** 	{
 625:FreeRTOS/event_groups.c **** 		/* Task has to wait for all the bits in uxBitsToWaitFor to be set.
 626:FreeRTOS/event_groups.c **** 		Are they set already? */
 627:FreeRTOS/event_groups.c **** 		if( ( uxCurrentEventBits & uxBitsToWaitFor ) == uxBitsToWaitFor )
 951              		.loc 1 627 0
 952 0026 FA68     		ldr	r2, [r7, #12]	@ tmp119, uxCurrentEventBits
 953 0028 BB68     		ldr	r3, [r7, #8]	@ tmp120, uxBitsToWaitFor
 954 002a 1A40     		ands	r2, r2, r3	@, D.5296, tmp119, tmp120
 955 002c BB68     		ldr	r3, [r7, #8]	@ tmp121, uxBitsToWaitFor
 956 002e 9A42     		cmp	r2, r3	@ D.5296, tmp121
 957 0030 01D1     		bne	.L57	@,
 628:FreeRTOS/event_groups.c **** 		{
 629:FreeRTOS/event_groups.c **** 			xWaitConditionMet = pdTRUE;
 958              		.loc 1 629 0
 959 0032 0123     		movs	r3, #1	@ tmp122,
 960 0034 7B61     		str	r3, [r7, #20]	@ tmp122, xWaitConditionMet
 961              	.L57:
 630:FreeRTOS/event_groups.c **** 		}
 631:FreeRTOS/event_groups.c **** 		else
 632:FreeRTOS/event_groups.c **** 		{
 633:FreeRTOS/event_groups.c **** 			mtCOVERAGE_TEST_MARKER();
ARM GAS  C:\Users\COSMIN~1.MAR\AppData\Local\Temp\ccyAlg2e.s 			page 29


 634:FreeRTOS/event_groups.c **** 		}
 635:FreeRTOS/event_groups.c **** 	}
 636:FreeRTOS/event_groups.c **** 
 637:FreeRTOS/event_groups.c **** 	return xWaitConditionMet;
 962              		.loc 1 637 0
 963 0036 7B69     		ldr	r3, [r7, #20]	@ D.5297, xWaitConditionMet
 638:FreeRTOS/event_groups.c **** }
 964              		.loc 1 638 0
 965 0038 1846     		mov	r0, r3	@, <retval>
 966 003a 1C37     		adds	r7, r7, #28	@,,
 967              		.cfi_def_cfa_offset 4
 968 003c BD46     		mov	sp, r7	@,
 969              		.cfi_def_cfa_register 13
 970              		@ sp needed	@
 971 003e 5DF8047B 		ldr	r7, [sp], #4	@,
 972              		.cfi_restore 7
 973              		.cfi_def_cfa_offset 0
 974 0042 7047     		bx	lr	@
 975              		.cfi_endproc
 976              	.LFE10:
 977              		.size	prvTestWaitCondition, .-prvTestWaitCondition
 978              		.section	.text.uxEventGroupGetNumber,"ax",%progbits
 979              		.align	2
 980              		.global	uxEventGroupGetNumber
 981              		.thumb
 982              		.thumb_func
 983              		.type	uxEventGroupGetNumber, %function
 984              	uxEventGroupGetNumber:
 985              	.LFB11:
 639:FreeRTOS/event_groups.c **** /*-----------------------------------------------------------*/
 640:FreeRTOS/event_groups.c **** 
 641:FreeRTOS/event_groups.c **** #if ( ( configUSE_TRACE_FACILITY == 1 ) && ( INCLUDE_xTimerPendFunctionCall == 1 ) && ( configUSE_T
 642:FreeRTOS/event_groups.c **** 
 643:FreeRTOS/event_groups.c **** 	BaseT_t xEventGroupSetBitsFromISR( EventGroupHandle_t xEventGroup, const EventBits_t uxBitsToSet, 
 644:FreeRTOS/event_groups.c **** 	{
 645:FreeRTOS/event_groups.c **** 	BaseT_t xReturn;
 646:FreeRTOS/event_groups.c **** 
 647:FreeRTOS/event_groups.c **** 		traceEVENT_GROUP_SET_BITS_FROM_ISR( xEventGroup, uxBitsToSet );
 648:FreeRTOS/event_groups.c **** 		xReturn = xTimerPendFunctionCallFromISR( vEventGroupSetBitsCallback, ( void * ) xEventGroup, ( ui
 649:FreeRTOS/event_groups.c **** 
 650:FreeRTOS/event_groups.c **** 		return xReturn;
 651:FreeRTOS/event_groups.c **** 	}
 652:FreeRTOS/event_groups.c **** 
 653:FreeRTOS/event_groups.c **** #endif
 654:FreeRTOS/event_groups.c **** /*-----------------------------------------------------------*/
 655:FreeRTOS/event_groups.c **** 
 656:FreeRTOS/event_groups.c **** #if (configUSE_TRACE_FACILITY == 1)
 657:FreeRTOS/event_groups.c **** 
 658:FreeRTOS/event_groups.c **** 	UBaseT_t uxEventGroupGetNumber( void* xEventGroup )
 659:FreeRTOS/event_groups.c **** 	{
 986              		.loc 1 659 0
 987              		.cfi_startproc
 988              		@ args = 0, pretend = 0, frame = 16
 989              		@ frame_needed = 1, uses_anonymous_args = 0
 990              		@ link register save eliminated.
 991 0000 80B4     		push	{r7}	@
 992              		.cfi_def_cfa_offset 4
ARM GAS  C:\Users\COSMIN~1.MAR\AppData\Local\Temp\ccyAlg2e.s 			page 30


 993              		.cfi_offset 7, -4
 994 0002 85B0     		sub	sp, sp, #20	@,,
 995              		.cfi_def_cfa_offset 24
 996 0004 00AF     		add	r7, sp, #0	@,,
 997              		.cfi_def_cfa_register 7
 998 0006 7860     		str	r0, [r7, #4]	@ xEventGroup, xEventGroup
 660:FreeRTOS/event_groups.c **** 	UBaseT_t xReturn;
 661:FreeRTOS/event_groups.c **** 	EventGroup_t *pxEventBits = ( EventGroup_t * ) xEventGroup;
 999              		.loc 1 661 0
 1000 0008 7B68     		ldr	r3, [r7, #4]	@ tmp112, xEventGroup
 1001 000a BB60     		str	r3, [r7, #8]	@ tmp112, pxEventBits
 662:FreeRTOS/event_groups.c **** 
 663:FreeRTOS/event_groups.c **** 		if( xEventGroup == NULL )
 1002              		.loc 1 663 0
 1003 000c 7B68     		ldr	r3, [r7, #4]	@ tmp113, xEventGroup
 1004 000e 002B     		cmp	r3, #0	@ tmp113,
 1005 0010 02D1     		bne	.L60	@,
 664:FreeRTOS/event_groups.c **** 		{
 665:FreeRTOS/event_groups.c **** 			xReturn = 0;
 1006              		.loc 1 665 0
 1007 0012 0023     		movs	r3, #0	@ tmp114,
 1008 0014 FB60     		str	r3, [r7, #12]	@ tmp114, xReturn
 1009 0016 02E0     		b	.L61	@
 1010              	.L60:
 666:FreeRTOS/event_groups.c **** 		}
 667:FreeRTOS/event_groups.c **** 		else
 668:FreeRTOS/event_groups.c **** 		{
 669:FreeRTOS/event_groups.c **** 			xReturn = pxEventBits->uxEventGroupNumber;
 1011              		.loc 1 669 0
 1012 0018 BB68     		ldr	r3, [r7, #8]	@ tmp115, pxEventBits
 1013 001a 9B69     		ldr	r3, [r3, #24]	@ tmp116, pxEventBits_3->uxEventGroupNumber
 1014 001c FB60     		str	r3, [r7, #12]	@ tmp116, xReturn
 1015              	.L61:
 670:FreeRTOS/event_groups.c **** 		}
 671:FreeRTOS/event_groups.c **** 
 672:FreeRTOS/event_groups.c **** 		return xReturn;
 1016              		.loc 1 672 0
 1017 001e FB68     		ldr	r3, [r7, #12]	@ D.5298, xReturn
 673:FreeRTOS/event_groups.c **** 	}
 1018              		.loc 1 673 0
 1019 0020 1846     		mov	r0, r3	@, <retval>
 1020 0022 1437     		adds	r7, r7, #20	@,,
 1021              		.cfi_def_cfa_offset 4
 1022 0024 BD46     		mov	sp, r7	@,
 1023              		.cfi_def_cfa_register 13
 1024              		@ sp needed	@
 1025 0026 5DF8047B 		ldr	r7, [sp], #4	@,
 1026              		.cfi_restore 7
 1027              		.cfi_def_cfa_offset 0
 1028 002a 7047     		bx	lr	@
 1029              		.cfi_endproc
 1030              	.LFE11:
 1031              		.size	uxEventGroupGetNumber, .-uxEventGroupGetNumber
 1032              		.text
 1033              	.Letext0:
 1034              		.file 2 "c:\\gnu tools arm embedded\\4.9 2015q1\\arm-none-eabi\\include\\machine\\_default_types.h
 1035              		.file 3 "c:\\gnu tools arm embedded\\4.9 2015q1\\arm-none-eabi\\include\\stdint.h"
ARM GAS  C:\Users\COSMIN~1.MAR\AppData\Local\Temp\ccyAlg2e.s 			page 31


 1036              		.file 4 "FreeRTOS/portable/GCC/ARM_CM3/portmacro.h"
 1037              		.file 5 "FreeRTOS/include/list.h"
 1038              		.file 6 "FreeRTOS/include/event_groups.h"