ARM GAS  C:\Users\STUDENT\AppData\Local\Temp\ccFRnYLD.s 			page 1


   1              		.syntax unified
   2              		.cpu cortex-m3
   3              		.fpu softvfp
   4              		.eabi_attribute 20, 1	@ Tag_ABI_FP_denormal
   5              		.eabi_attribute 21, 1	@ Tag_ABI_FP_exceptions
   6              		.eabi_attribute 23, 3	@ Tag_ABI_FP_number_model
   7              		.eabi_attribute 24, 1	@ Tag_ABI_align8_needed
   8              		.eabi_attribute 25, 1	@ Tag_ABI_align8_preserved
   9              		.eabi_attribute 26, 1	@ Tag_ABI_enum_size
  10              		.eabi_attribute 30, 6	@ Tag_ABI_optimization_goals
  11              		.eabi_attribute 34, 1	@ Tag_CPU_unaligned_access
  12              		.eabi_attribute 18, 4	@ Tag_ABI_PCS_wchar_t
  13              		.file	"hooks.c"
  14              	@ GNU C89 (GNU Tools for ARM Embedded Processors) version 5.4.1 20160919 (release) [ARM/embedded-5-
  15              	@	compiled by GNU C version 4.7.4, GMP version 4.3.2, MPFR version 2.4.2, MPC version 0.8.1
  16              	@ GGC heuristics: --param ggc-min-expand=100 --param ggc-min-heapsize=131072
  17              	@ options passed:  -I . -I config -I system -I core -I drivers -I FreeRTOS
  18              	@ -I FreeRTOS/include -I FreeRTOS/portable/GCC/ARM_CM3 -I FreeRTOS/portable
  19              	@ -I tasks/rc_task_leds -I modules/rc_leds -I drivers/rc_system
  20              	@ -I drivers/rc_gpio -I drivers/rc_uart -I drivers/rc_pinsel
  21              	@ -I drivers/rc_timer -I drivers/rc_adc -imultilib armv7-m
  22              	@ -iprefix c:\program files (x86)\gnu tools arm embedded\5.4 2016q3\bin\../lib/gcc/arm-none-eabi/5.
  23              	@ -isysroot c:\program files (x86)\gnu tools arm embedded\5.4 2016q3\bin\../arm-none-eabi
  24              	@ -MD out/hooks.d -MF out/hooks.d -MP -MQ out/hooks.o -D__USES_INITFINI__
  25              	@ FreeRTOS/hooks.c -mcpu=cortex-m3 -mthumb -auxbase-strip out/hooks.o -g
  26              	@ -ggdb3 -O0 -Wall -Wstrict-prototypes -Wextra -std=gnu90
  27              	@ -ffunction-sections -fdata-sections -fverbose-asm
  28              	@ options enabled:  -faggressive-loop-optimizations -fauto-inc-dec
  29              	@ -fchkp-check-incomplete-type -fchkp-check-read -fchkp-check-write
  30              	@ -fchkp-instrument-calls -fchkp-narrow-bounds -fchkp-optimize
  31              	@ -fchkp-store-bounds -fchkp-use-static-bounds
  32              	@ -fchkp-use-static-const-bounds -fchkp-use-wrappers -fcommon
  33              	@ -fdata-sections -fdelete-null-pointer-checks -fdwarf2-cfi-asm
  34              	@ -fearly-inlining -feliminate-unused-debug-types -ffunction-cse
  35              	@ -ffunction-sections -fgcse-lm -fgnu-runtime -fgnu-unique -fident
  36              	@ -finline-atomics -fira-hoist-pressure -fira-share-save-slots
  37              	@ -fira-share-spill-slots -fivopts -fkeep-static-consts
  38              	@ -fleading-underscore -flifetime-dse -flto-odr-type-merging -fmath-errno
  39              	@ -fmerge-debug-strings -fpeephole -fprefetch-loop-arrays
  40              	@ -freg-struct-return -fsched-critical-path-heuristic
  41              	@ -fsched-dep-count-heuristic -fsched-group-heuristic -fsched-interblock
  42              	@ -fsched-last-insn-heuristic -fsched-rank-heuristic -fsched-spec
  43              	@ -fsched-spec-insn-heuristic -fsched-stalled-insns-dep
  44              	@ -fsemantic-interposition -fshow-column -fsigned-zeros
  45              	@ -fsplit-ivs-in-unroller -fstdarg-opt -fstrict-volatile-bitfields
  46              	@ -fsync-libcalls -ftrapping-math -ftree-coalesce-vars -ftree-cselim
  47              	@ -ftree-forwprop -ftree-loop-if-convert -ftree-loop-im -ftree-loop-ivcanon
  48              	@ -ftree-loop-optimize -ftree-parallelize-loops= -ftree-phiprop
  49              	@ -ftree-reassoc -ftree-scev-cprop -funit-at-a-time -fverbose-asm
  50              	@ -fzero-initialized-in-bss -masm-syntax-unified -mfix-cortex-m3-ldrd
  51              	@ -mlittle-endian -mpic-data-is-text-relative -msched-prolog -mthumb
  52              	@ -munaligned-access -mvectorize-with-neon-quad
  53              	
  54              		.text
  55              	.Ltext0:
  56              		.cfi_sections	.debug_frame
  57              		.section	.text.vApplicationIdleHook,"ax",%progbits
ARM GAS  C:\Users\STUDENT\AppData\Local\Temp\ccFRnYLD.s 			page 2


  58              		.align	2
  59              		.global	vApplicationIdleHook
  60              		.thumb
  61              		.thumb_func
  62              		.type	vApplicationIdleHook, %function
  63              	vApplicationIdleHook:
  64              	.LFB0:
  65              		.file 1 "FreeRTOS/hooks.c"
   1:FreeRTOS/hooks.c **** /**\file 	hooks.c
   2:FreeRTOS/hooks.c ****  * \brief 	RTOS hooks
   3:FreeRTOS/hooks.c ****  * \details RTOS events hooks functions
   4:FreeRTOS/hooks.c ****  * \author 	Cosmin Marcu
   5:FreeRTOS/hooks.c ****  * \date 	20.12.2014
   6:FreeRTOS/hooks.c ****  */
   7:FreeRTOS/hooks.c **** 
   8:FreeRTOS/hooks.c **** //TODO: config assert
   9:FreeRTOS/hooks.c **** #include <assert.h>
  10:FreeRTOS/hooks.c **** 
  11:FreeRTOS/hooks.c **** /**
  12:FreeRTOS/hooks.c **** * \brief 	Free RTOS idle hook
  13:FreeRTOS/hooks.c **** * \details 	TBD.
  14:FreeRTOS/hooks.c **** */
  15:FreeRTOS/hooks.c **** void vApplicationIdleHook(void)
  16:FreeRTOS/hooks.c **** {
  66              		.loc 1 16 0
  67              		.cfi_startproc
  68              		@ args = 0, pretend = 0, frame = 0
  69              		@ frame_needed = 1, uses_anonymous_args = 0
  70              		@ link register save eliminated.
  71 0000 80B4     		push	{r7}	@
  72              		.cfi_def_cfa_offset 4
  73              		.cfi_offset 7, -4
  74 0002 00AF     		add	r7, sp, #0	@,,
  75              		.cfi_def_cfa_register 7
  17:FreeRTOS/hooks.c **** 	assert(1);
  18:FreeRTOS/hooks.c **** }
  76              		.loc 1 18 0
  77 0004 00BF     		nop
  78 0006 BD46     		mov	sp, r7	@,
  79              		.cfi_def_cfa_register 13
  80              		@ sp needed	@
  81 0008 80BC     		pop	{r7}	@
  82              		.cfi_restore 7
  83              		.cfi_def_cfa_offset 0
  84 000a 7047     		bx	lr	@
  85              		.cfi_endproc
  86              	.LFE0:
  87              		.size	vApplicationIdleHook, .-vApplicationIdleHook
  88              		.section	.text.vApplicationTickHook,"ax",%progbits
  89              		.align	2
  90              		.global	vApplicationTickHook
  91              		.thumb
  92              		.thumb_func
  93              		.type	vApplicationTickHook, %function
  94              	vApplicationTickHook:
  95              	.LFB1:
  19:FreeRTOS/hooks.c **** 
ARM GAS  C:\Users\STUDENT\AppData\Local\Temp\ccFRnYLD.s 			page 3


  20:FreeRTOS/hooks.c **** /**
  21:FreeRTOS/hooks.c **** * \brief 	Free RTOS tick hook
  22:FreeRTOS/hooks.c **** * \details 	TBD.
  23:FreeRTOS/hooks.c **** */
  24:FreeRTOS/hooks.c **** void vApplicationTickHook(void)
  25:FreeRTOS/hooks.c **** {
  96              		.loc 1 25 0
  97              		.cfi_startproc
  98              		@ args = 0, pretend = 0, frame = 0
  99              		@ frame_needed = 1, uses_anonymous_args = 0
 100              		@ link register save eliminated.
 101 0000 80B4     		push	{r7}	@
 102              		.cfi_def_cfa_offset 4
 103              		.cfi_offset 7, -4
 104 0002 00AF     		add	r7, sp, #0	@,,
 105              		.cfi_def_cfa_register 7
  26:FreeRTOS/hooks.c **** 
  27:FreeRTOS/hooks.c **** }
 106              		.loc 1 27 0
 107 0004 00BF     		nop
 108 0006 BD46     		mov	sp, r7	@,
 109              		.cfi_def_cfa_register 13
 110              		@ sp needed	@
 111 0008 80BC     		pop	{r7}	@
 112              		.cfi_restore 7
 113              		.cfi_def_cfa_offset 0
 114 000a 7047     		bx	lr	@
 115              		.cfi_endproc
 116              	.LFE1:
 117              		.size	vApplicationTickHook, .-vApplicationTickHook
 118              		.section	.text.vApplicationMallocFailedHook,"ax",%progbits
 119              		.align	2
 120              		.global	vApplicationMallocFailedHook
 121              		.thumb
 122              		.thumb_func
 123              		.type	vApplicationMallocFailedHook, %function
 124              	vApplicationMallocFailedHook:
 125              	.LFB2:
  28:FreeRTOS/hooks.c **** 
  29:FreeRTOS/hooks.c **** /**
  30:FreeRTOS/hooks.c **** * \brief 	Free RTOS memory allocation fail hook
  31:FreeRTOS/hooks.c **** * \details 	TBD.
  32:FreeRTOS/hooks.c **** */
  33:FreeRTOS/hooks.c **** void vApplicationMallocFailedHook(void)
  34:FreeRTOS/hooks.c **** {
 126              		.loc 1 34 0
 127              		.cfi_startproc
 128              		@ args = 0, pretend = 0, frame = 0
 129              		@ frame_needed = 1, uses_anonymous_args = 0
 130              		@ link register save eliminated.
 131 0000 80B4     		push	{r7}	@
 132              		.cfi_def_cfa_offset 4
 133              		.cfi_offset 7, -4
 134 0002 00AF     		add	r7, sp, #0	@,,
 135              		.cfi_def_cfa_register 7
  35:FreeRTOS/hooks.c **** 
  36:FreeRTOS/hooks.c **** }
ARM GAS  C:\Users\STUDENT\AppData\Local\Temp\ccFRnYLD.s 			page 4


 136              		.loc 1 36 0
 137 0004 00BF     		nop
 138 0006 BD46     		mov	sp, r7	@,
 139              		.cfi_def_cfa_register 13
 140              		@ sp needed	@
 141 0008 80BC     		pop	{r7}	@
 142              		.cfi_restore 7
 143              		.cfi_def_cfa_offset 0
 144 000a 7047     		bx	lr	@
 145              		.cfi_endproc
 146              	.LFE2:
 147              		.size	vApplicationMallocFailedHook, .-vApplicationMallocFailedHook
 148              		.text
 149              	.Letext0:
 150              		.section	.debug_info,"",%progbits
 151              	.Ldebug_info0:
 152 0000 8F000000 		.4byte	0x8f
 153 0004 0400     		.2byte	0x4
 154 0006 00000000 		.4byte	.Ldebug_abbrev0
 155 000a 04       		.byte	0x4
 156 000b 01       		.uleb128 0x1
 157 000c 8F260000 		.4byte	.LASF435
 158 0010 01       		.byte	0x1
 159 0011 6D230000 		.4byte	.LASF436
 160 0015 5F260000 		.4byte	.LASF437
 161 0019 00000000 		.4byte	.Ldebug_ranges0+0
 162 001d 00000000 		.4byte	0
 163 0021 00000000 		.4byte	.Ldebug_line0
 164 0025 00000000 		.4byte	.Ldebug_macro0
 165 0029 02       		.uleb128 0x2
 166 002a 12070000 		.4byte	.LASF438
 167 002e 01       		.byte	0x1
 168 002f 0F       		.byte	0xf
 169 0030 00000000 		.4byte	.LFB0
 170 0034 0C000000 		.4byte	.LFE0-.LFB0
 171 0038 01       		.uleb128 0x1
 172 0039 9C       		.byte	0x9c
 173 003a 48000000 		.4byte	0x48
 174 003e 03       		.uleb128 0x3
 175 003f 74010000 		.4byte	.LASF439
 176 0043 6B000000 		.4byte	0x6b
 177 0047 00       		.byte	0
 178 0048 04       		.uleb128 0x4
 179 0049 66000000 		.4byte	0x66
 180 004d 58000000 		.4byte	0x58
 181 0051 05       		.uleb128 0x5
 182 0052 58000000 		.4byte	0x58
 183 0056 14       		.byte	0x14
 184 0057 00       		.byte	0
 185 0058 06       		.uleb128 0x6
 186 0059 04       		.byte	0x4
 187 005a 07       		.byte	0x7
 188 005b B9220000 		.4byte	.LASF431
 189 005f 06       		.uleb128 0x6
 190 0060 01       		.byte	0x1
 191 0061 08       		.byte	0x8
 192 0062 31010000 		.4byte	.LASF432
ARM GAS  C:\Users\STUDENT\AppData\Local\Temp\ccFRnYLD.s 			page 5


 193 0066 07       		.uleb128 0x7
 194 0067 5F000000 		.4byte	0x5f
 195 006b 07       		.uleb128 0x7
 196 006c 48000000 		.4byte	0x48
 197 0070 08       		.uleb128 0x8
 198 0071 1D150000 		.4byte	.LASF433
 199 0075 01       		.byte	0x1
 200 0076 18       		.byte	0x18
 201 0077 00000000 		.4byte	.LFB1
 202 007b 0C000000 		.4byte	.LFE1-.LFB1
 203 007f 01       		.uleb128 0x1
 204 0080 9C       		.byte	0x9c
 205 0081 08       		.uleb128 0x8
 206 0082 44100000 		.4byte	.LASF434
 207 0086 01       		.byte	0x1
 208 0087 21       		.byte	0x21
 209 0088 00000000 		.4byte	.LFB2
 210 008c 0C000000 		.4byte	.LFE2-.LFB2
 211 0090 01       		.uleb128 0x1
 212 0091 9C       		.byte	0x9c
 213 0092 00       		.byte	0
 214              		.section	.debug_abbrev,"",%progbits
 215              	.Ldebug_abbrev0:
 216 0000 01       		.uleb128 0x1
 217 0001 11       		.uleb128 0x11
 218 0002 01       		.byte	0x1
 219 0003 25       		.uleb128 0x25
 220 0004 0E       		.uleb128 0xe
 221 0005 13       		.uleb128 0x13
 222 0006 0B       		.uleb128 0xb
 223 0007 03       		.uleb128 0x3
 224 0008 0E       		.uleb128 0xe
 225 0009 1B       		.uleb128 0x1b
 226 000a 0E       		.uleb128 0xe
 227 000b 55       		.uleb128 0x55
 228 000c 17       		.uleb128 0x17
 229 000d 11       		.uleb128 0x11
 230 000e 01       		.uleb128 0x1
 231 000f 10       		.uleb128 0x10
 232 0010 17       		.uleb128 0x17
 233 0011 9942     		.uleb128 0x2119
 234 0013 17       		.uleb128 0x17
 235 0014 00       		.byte	0
 236 0015 00       		.byte	0
 237 0016 02       		.uleb128 0x2
 238 0017 2E       		.uleb128 0x2e
 239 0018 01       		.byte	0x1
 240 0019 3F       		.uleb128 0x3f
 241 001a 19       		.uleb128 0x19
 242 001b 03       		.uleb128 0x3
 243 001c 0E       		.uleb128 0xe
 244 001d 3A       		.uleb128 0x3a
 245 001e 0B       		.uleb128 0xb
 246 001f 3B       		.uleb128 0x3b
 247 0020 0B       		.uleb128 0xb
 248 0021 27       		.uleb128 0x27
 249 0022 19       		.uleb128 0x19
ARM GAS  C:\Users\STUDENT\AppData\Local\Temp\ccFRnYLD.s 			page 6


 250 0023 11       		.uleb128 0x11
 251 0024 01       		.uleb128 0x1
 252 0025 12       		.uleb128 0x12
 253 0026 06       		.uleb128 0x6
 254 0027 40       		.uleb128 0x40
 255 0028 18       		.uleb128 0x18
 256 0029 9742     		.uleb128 0x2117
 257 002b 19       		.uleb128 0x19
 258 002c 01       		.uleb128 0x1
 259 002d 13       		.uleb128 0x13
 260 002e 00       		.byte	0
 261 002f 00       		.byte	0
 262 0030 03       		.uleb128 0x3
 263 0031 34       		.uleb128 0x34
 264 0032 00       		.byte	0
 265 0033 03       		.uleb128 0x3
 266 0034 0E       		.uleb128 0xe
 267 0035 49       		.uleb128 0x49
 268 0036 13       		.uleb128 0x13
 269 0037 34       		.uleb128 0x34
 270 0038 19       		.uleb128 0x19
 271 0039 00       		.byte	0
 272 003a 00       		.byte	0
 273 003b 04       		.uleb128 0x4
 274 003c 01       		.uleb128 0x1
 275 003d 01       		.byte	0x1
 276 003e 49       		.uleb128 0x49
 277 003f 13       		.uleb128 0x13
 278 0040 01       		.uleb128 0x1
 279 0041 13       		.uleb128 0x13
 280 0042 00       		.byte	0
 281 0043 00       		.byte	0
 282 0044 05       		.uleb128 0x5
 283 0045 21       		.uleb128 0x21
 284 0046 00       		.byte	0
 285 0047 49       		.uleb128 0x49
 286 0048 13       		.uleb128 0x13
 287 0049 2F       		.uleb128 0x2f
 288 004a 0B       		.uleb128 0xb
 289 004b 00       		.byte	0
 290 004c 00       		.byte	0
 291 004d 06       		.uleb128 0x6
 292 004e 24       		.uleb128 0x24
 293 004f 00       		.byte	0
 294 0050 0B       		.uleb128 0xb
 295 0051 0B       		.uleb128 0xb
 296 0052 3E       		.uleb128 0x3e
 297 0053 0B       		.uleb128 0xb
 298 0054 03       		.uleb128 0x3
 299 0055 0E       		.uleb128 0xe
 300 0056 00       		.byte	0
 301 0057 00       		.byte	0
 302 0058 07       		.uleb128 0x7
 303 0059 26       		.uleb128 0x26
 304 005a 00       		.byte	0
 305 005b 49       		.uleb128 0x49
 306 005c 13       		.uleb128 0x13
ARM GAS  C:\Users\STUDENT\AppData\Local\Temp\ccFRnYLD.s 			page 7


 307 005d 00       		.byte	0
 308 005e 00       		.byte	0
 309 005f 08       		.uleb128 0x8
 310 0060 2E       		.uleb128 0x2e
 311 0061 00       		.byte	0
 312 0062 3F       		.uleb128 0x3f
 313 0063 19       		.uleb128 0x19
 314 0064 03       		.uleb128 0x3
 315 0065 0E       		.uleb128 0xe
 316 0066 3A       		.uleb128 0x3a
 317 0067 0B       		.uleb128 0xb
 318 0068 3B       		.uleb128 0x3b
 319 0069 0B       		.uleb128 0xb
 320 006a 27       		.uleb128 0x27
 321 006b 19       		.uleb128 0x19
 322 006c 11       		.uleb128 0x11
 323 006d 01       		.uleb128 0x1
 324 006e 12       		.uleb128 0x12
 325 006f 06       		.uleb128 0x6
 326 0070 40       		.uleb128 0x40
 327 0071 18       		.uleb128 0x18
 328 0072 9742     		.uleb128 0x2117
 329 0074 19       		.uleb128 0x19
 330 0075 00       		.byte	0
 331 0076 00       		.byte	0
 332 0077 00       		.byte	0
 333              		.section	.debug_aranges,"",%progbits
 334 0000 2C000000 		.4byte	0x2c
 335 0004 0200     		.2byte	0x2
 336 0006 00000000 		.4byte	.Ldebug_info0
 337 000a 04       		.byte	0x4
 338 000b 00       		.byte	0
 339 000c 0000     		.2byte	0
 340 000e 0000     		.2byte	0
 341 0010 00000000 		.4byte	.LFB0
 342 0014 0C000000 		.4byte	.LFE0-.LFB0
 343 0018 00000000 		.4byte	.LFB1
 344 001c 0C000000 		.4byte	.LFE1-.LFB1
 345 0020 00000000 		.4byte	.LFB2
 346 0024 0C000000 		.4byte	.LFE2-.LFB2
 347 0028 00000000 		.4byte	0
 348 002c 00000000 		.4byte	0
 349              		.section	.debug_ranges,"",%progbits
 350              	.Ldebug_ranges0:
 351 0000 00000000 		.4byte	.LFB0
 352 0004 0C000000 		.4byte	.LFE0
 353 0008 00000000 		.4byte	.LFB1
 354 000c 0C000000 		.4byte	.LFE1
 355 0010 00000000 		.4byte	.LFB2
 356 0014 0C000000 		.4byte	.LFE2
 357 0018 00000000 		.4byte	0
 358 001c 00000000 		.4byte	0
 359              		.section	.debug_macro,"",%progbits
 360              	.Ldebug_macro0:
 361 0000 0400     		.2byte	0x4
 362 0002 02       		.byte	0x2
 363 0003 00000000 		.4byte	.Ldebug_line0
ARM GAS  C:\Users\STUDENT\AppData\Local\Temp\ccFRnYLD.s 			page 8


 364 0007 07       		.byte	0x7
 365 0008 00000000 		.4byte	.Ldebug_macro1
 366 000c 03       		.byte	0x3
 367 000d 00       		.uleb128 0
 368 000e 01       		.uleb128 0x1
 369              		.file 2 "c:\\program files (x86)\\gnu tools arm embedded\\5.4 2016q3\\arm-none-eabi\\include\\asse
 370 000f 03       		.byte	0x3
 371 0010 09       		.uleb128 0x9
 372 0011 02       		.uleb128 0x2
 373              		.file 3 "c:\\program files (x86)\\gnu tools arm embedded\\5.4 2016q3\\arm-none-eabi\\include\\_ans
 374 0012 03       		.byte	0x3
 375 0013 09       		.uleb128 0x9
 376 0014 03       		.uleb128 0x3
 377 0015 05       		.byte	0x5
 378 0016 0D       		.uleb128 0xd
 379 0017 470C0000 		.4byte	.LASF355
 380              		.file 4 "c:\\program files (x86)\\gnu tools arm embedded\\5.4 2016q3\\arm-none-eabi\\include\\newl
 381 001b 03       		.byte	0x3
 382 001c 0F       		.uleb128 0xf
 383 001d 04       		.uleb128 0x4
 384 001e 05       		.byte	0x5
 385 001f 08       		.uleb128 0x8
 386 0020 6D270000 		.4byte	.LASF356
 387              		.file 5 "c:\\program files (x86)\\gnu tools arm embedded\\5.4 2016q3\\arm-none-eabi\\include\\_new
 388 0024 03       		.byte	0x3
 389 0025 0E       		.uleb128 0xe
 390 0026 05       		.uleb128 0x5
 391 0027 07       		.byte	0x7
 392 0028 00000000 		.4byte	.Ldebug_macro2
 393 002c 04       		.byte	0x4
 394 002d 07       		.byte	0x7
 395 002e 00000000 		.4byte	.Ldebug_macro3
 396 0032 04       		.byte	0x4
 397              		.file 6 "c:\\program files (x86)\\gnu tools arm embedded\\5.4 2016q3\\arm-none-eabi\\include\\sys\
 398 0033 03       		.byte	0x3
 399 0034 10       		.uleb128 0x10
 400 0035 06       		.uleb128 0x6
 401 0036 05       		.byte	0x5
 402 0037 02       		.uleb128 0x2
 403 0038 45010000 		.4byte	.LASF374
 404              		.file 7 "c:\\program files (x86)\\gnu tools arm embedded\\5.4 2016q3\\arm-none-eabi\\include\\mach
 405 003c 03       		.byte	0x3
 406 003d 04       		.uleb128 0x4
 407 003e 07       		.uleb128 0x7
 408 003f 05       		.byte	0x5
 409 0040 3C       		.uleb128 0x3c
 410 0041 F1150000 		.4byte	.LASF375
 411 0045 04       		.byte	0x4
 412              		.file 8 "c:\\program files (x86)\\gnu tools arm embedded\\5.4 2016q3\\arm-none-eabi\\include\\sys\
 413 0046 03       		.byte	0x3
 414 0047 05       		.uleb128 0x5
 415 0048 08       		.uleb128 0x8
 416 0049 07       		.byte	0x7
 417 004a 00000000 		.4byte	.Ldebug_macro4
 418 004e 04       		.byte	0x4
 419 004f 07       		.byte	0x7
 420 0050 00000000 		.4byte	.Ldebug_macro5
ARM GAS  C:\Users\STUDENT\AppData\Local\Temp\ccFRnYLD.s 			page 9


 421 0054 04       		.byte	0x4
 422 0055 07       		.byte	0x7
 423 0056 00000000 		.4byte	.Ldebug_macro6
 424 005a 04       		.byte	0x4
 425 005b 07       		.byte	0x7
 426 005c 00000000 		.4byte	.Ldebug_macro7
 427 0060 04       		.byte	0x4
 428 0061 04       		.byte	0x4
 429 0062 00       		.byte	0
 430              		.section	.debug_macro,"G",%progbits,wm4.0.c0d9c46791312c607b68c96c4ad07fb1,comdat
 431              	.Ldebug_macro1:
 432 0000 0400     		.2byte	0x4
 433 0002 00       		.byte	0
 434 0003 05       		.byte	0x5
 435 0004 00       		.uleb128 0
 436 0005 0A180000 		.4byte	.LASF0
 437 0009 05       		.byte	0x5
 438 000a 00       		.uleb128 0
 439 000b 99230000 		.4byte	.LASF1
 440 000f 05       		.byte	0x5
 441 0010 00       		.uleb128 0
 442 0011 130F0000 		.4byte	.LASF2
 443 0015 05       		.byte	0x5
 444 0016 00       		.uleb128 0
 445 0017 09030000 		.4byte	.LASF3
 446 001b 05       		.byte	0x5
 447 001c 00       		.uleb128 0
 448 001d 2C190000 		.4byte	.LASF4
 449 0021 05       		.byte	0x5
 450 0022 00       		.uleb128 0
 451 0023 DA110000 		.4byte	.LASF5
 452 0027 05       		.byte	0x5
 453 0028 00       		.uleb128 0
 454 0029 BE070000 		.4byte	.LASF6
 455 002d 05       		.byte	0x5
 456 002e 00       		.uleb128 0
 457 002f AD050000 		.4byte	.LASF7
 458 0033 05       		.byte	0x5
 459 0034 00       		.uleb128 0
 460 0035 F7170000 		.4byte	.LASF8
 461 0039 05       		.byte	0x5
 462 003a 00       		.uleb128 0
 463 003b EE040000 		.4byte	.LASF9
 464 003f 05       		.byte	0x5
 465 0040 00       		.uleb128 0
 466 0041 84240000 		.4byte	.LASF10
 467 0045 05       		.byte	0x5
 468 0046 00       		.uleb128 0
 469 0047 4D180000 		.4byte	.LASF11
 470 004b 05       		.byte	0x5
 471 004c 00       		.uleb128 0
 472 004d A2160000 		.4byte	.LASF12
 473 0051 05       		.byte	0x5
 474 0052 00       		.uleb128 0
 475 0053 7C270000 		.4byte	.LASF13
 476 0057 05       		.byte	0x5
 477 0058 00       		.uleb128 0
ARM GAS  C:\Users\STUDENT\AppData\Local\Temp\ccFRnYLD.s 			page 10


 478 0059 66050000 		.4byte	.LASF14
 479 005d 05       		.byte	0x5
 480 005e 00       		.uleb128 0
 481 005f BD200000 		.4byte	.LASF15
 482 0063 05       		.byte	0x5
 483 0064 00       		.uleb128 0
 484 0065 DB050000 		.4byte	.LASF16
 485 0069 05       		.byte	0x5
 486 006a 00       		.uleb128 0
 487 006b BD0E0000 		.4byte	.LASF17
 488 006f 05       		.byte	0x5
 489 0070 00       		.uleb128 0
 490 0071 18190000 		.4byte	.LASF18
 491 0075 05       		.byte	0x5
 492 0076 00       		.uleb128 0
 493 0077 99030000 		.4byte	.LASF19
 494 007b 05       		.byte	0x5
 495 007c 00       		.uleb128 0
 496 007d 62030000 		.4byte	.LASF20
 497 0081 05       		.byte	0x5
 498 0082 00       		.uleb128 0
 499 0083 2F160000 		.4byte	.LASF21
 500 0087 05       		.byte	0x5
 501 0088 00       		.uleb128 0
 502 0089 3B0F0000 		.4byte	.LASF22
 503 008d 05       		.byte	0x5
 504 008e 00       		.uleb128 0
 505 008f A00F0000 		.4byte	.LASF23
 506 0093 05       		.byte	0x5
 507 0094 00       		.uleb128 0
 508 0095 CF030000 		.4byte	.LASF24
 509 0099 05       		.byte	0x5
 510 009a 00       		.uleb128 0
 511 009b 081D0000 		.4byte	.LASF25
 512 009f 05       		.byte	0x5
 513 00a0 00       		.uleb128 0
 514 00a1 49060000 		.4byte	.LASF26
 515 00a5 05       		.byte	0x5
 516 00a6 00       		.uleb128 0
 517 00a7 951A0000 		.4byte	.LASF27
 518 00ab 05       		.byte	0x5
 519 00ac 00       		.uleb128 0
 520 00ad 9D210000 		.4byte	.LASF28
 521 00b1 05       		.byte	0x5
 522 00b2 00       		.uleb128 0
 523 00b3 00260000 		.4byte	.LASF29
 524 00b7 05       		.byte	0x5
 525 00b8 00       		.uleb128 0
 526 00b9 01050000 		.4byte	.LASF30
 527 00bd 05       		.byte	0x5
 528 00be 00       		.uleb128 0
 529 00bf DB180000 		.4byte	.LASF31
 530 00c3 05       		.byte	0x5
 531 00c4 00       		.uleb128 0
 532 00c5 7E180000 		.4byte	.LASF32
 533 00c9 05       		.byte	0x5
 534 00ca 00       		.uleb128 0
ARM GAS  C:\Users\STUDENT\AppData\Local\Temp\ccFRnYLD.s 			page 11


 535 00cb 60180000 		.4byte	.LASF33
 536 00cf 05       		.byte	0x5
 537 00d0 00       		.uleb128 0
 538 00d1 F3000000 		.4byte	.LASF34
 539 00d5 05       		.byte	0x5
 540 00d6 00       		.uleb128 0
 541 00d7 76030000 		.4byte	.LASF35
 542 00db 05       		.byte	0x5
 543 00dc 00       		.uleb128 0
 544 00dd 961B0000 		.4byte	.LASF36
 545 00e1 05       		.byte	0x5
 546 00e2 00       		.uleb128 0
 547 00e3 8D2A0000 		.4byte	.LASF37
 548 00e7 05       		.byte	0x5
 549 00e8 00       		.uleb128 0
 550 00e9 371F0000 		.4byte	.LASF38
 551 00ed 05       		.byte	0x5
 552 00ee 00       		.uleb128 0
 553 00ef 24050000 		.4byte	.LASF39
 554 00f3 05       		.byte	0x5
 555 00f4 00       		.uleb128 0
 556 00f5 031E0000 		.4byte	.LASF40
 557 00f9 05       		.byte	0x5
 558 00fa 00       		.uleb128 0
 559 00fb 7D190000 		.4byte	.LASF41
 560 00ff 05       		.byte	0x5
 561 0100 00       		.uleb128 0
 562 0101 E3200000 		.4byte	.LASF42
 563 0105 05       		.byte	0x5
 564 0106 00       		.uleb128 0
 565 0107 89100000 		.4byte	.LASF43
 566 010b 05       		.byte	0x5
 567 010c 00       		.uleb128 0
 568 010d 60210000 		.4byte	.LASF44
 569 0111 05       		.byte	0x5
 570 0112 00       		.uleb128 0
 571 0113 39280000 		.4byte	.LASF45
 572 0117 05       		.byte	0x5
 573 0118 00       		.uleb128 0
 574 0119 3E160000 		.4byte	.LASF46
 575 011d 05       		.byte	0x5
 576 011e 00       		.uleb128 0
 577 011f EB140000 		.4byte	.LASF47
 578 0123 05       		.byte	0x5
 579 0124 00       		.uleb128 0
 580 0125 D1070000 		.4byte	.LASF48
 581 0129 05       		.byte	0x5
 582 012a 00       		.uleb128 0
 583 012b 27210000 		.4byte	.LASF49
 584 012f 05       		.byte	0x5
 585 0130 00       		.uleb128 0
 586 0131 94250000 		.4byte	.LASF50
 587 0135 05       		.byte	0x5
 588 0136 00       		.uleb128 0
 589 0137 27110000 		.4byte	.LASF51
 590 013b 05       		.byte	0x5
 591 013c 00       		.uleb128 0
ARM GAS  C:\Users\STUDENT\AppData\Local\Temp\ccFRnYLD.s 			page 12


 592 013d 6B1C0000 		.4byte	.LASF52
 593 0141 05       		.byte	0x5
 594 0142 00       		.uleb128 0
 595 0143 52040000 		.4byte	.LASF53
 596 0147 05       		.byte	0x5
 597 0148 00       		.uleb128 0
 598 0149 8A0C0000 		.4byte	.LASF54
 599 014d 05       		.byte	0x5
 600 014e 00       		.uleb128 0
 601 014f 61100000 		.4byte	.LASF55
 602 0153 05       		.byte	0x5
 603 0154 00       		.uleb128 0
 604 0155 55270000 		.4byte	.LASF56
 605 0159 05       		.byte	0x5
 606 015a 00       		.uleb128 0
 607 015b C4080000 		.4byte	.LASF57
 608 015f 05       		.byte	0x5
 609 0160 00       		.uleb128 0
 610 0161 75000000 		.4byte	.LASF58
 611 0165 05       		.byte	0x5
 612 0166 00       		.uleb128 0
 613 0167 B90C0000 		.4byte	.LASF59
 614 016b 05       		.byte	0x5
 615 016c 00       		.uleb128 0
 616 016d 1B1E0000 		.4byte	.LASF60
 617 0171 05       		.byte	0x5
 618 0172 00       		.uleb128 0
 619 0173 97240000 		.4byte	.LASF61
 620 0177 05       		.byte	0x5
 621 0178 00       		.uleb128 0
 622 0179 34250000 		.4byte	.LASF62
 623 017d 05       		.byte	0x5
 624 017e 00       		.uleb128 0
 625 017f 32090000 		.4byte	.LASF63
 626 0183 05       		.byte	0x5
 627 0184 00       		.uleb128 0
 628 0185 ED230000 		.4byte	.LASF64
 629 0189 05       		.byte	0x5
 630 018a 00       		.uleb128 0
 631 018b A9010000 		.4byte	.LASF65
 632 018f 05       		.byte	0x5
 633 0190 00       		.uleb128 0
 634 0191 FF0F0000 		.4byte	.LASF66
 635 0195 05       		.byte	0x5
 636 0196 00       		.uleb128 0
 637 0197 27070000 		.4byte	.LASF67
 638 019b 05       		.byte	0x5
 639 019c 00       		.uleb128 0
 640 019d F41C0000 		.4byte	.LASF68
 641 01a1 05       		.byte	0x5
 642 01a2 00       		.uleb128 0
 643 01a3 D7040000 		.4byte	.LASF69
 644 01a7 05       		.byte	0x5
 645 01a8 00       		.uleb128 0
 646 01a9 99180000 		.4byte	.LASF70
 647 01ad 05       		.byte	0x5
 648 01ae 00       		.uleb128 0
ARM GAS  C:\Users\STUDENT\AppData\Local\Temp\ccFRnYLD.s 			page 13


 649 01af 00110000 		.4byte	.LASF71
 650 01b3 05       		.byte	0x5
 651 01b4 00       		.uleb128 0
 652 01b5 A3200000 		.4byte	.LASF72
 653 01b9 05       		.byte	0x5
 654 01ba 00       		.uleb128 0
 655 01bb 2D270000 		.4byte	.LASF73
 656 01bf 05       		.byte	0x5
 657 01c0 00       		.uleb128 0
 658 01c1 511F0000 		.4byte	.LASF74
 659 01c5 05       		.byte	0x5
 660 01c6 00       		.uleb128 0
 661 01c7 E5020000 		.4byte	.LASF75
 662 01cb 05       		.byte	0x5
 663 01cc 00       		.uleb128 0
 664 01cd AE0A0000 		.4byte	.LASF76
 665 01d1 05       		.byte	0x5
 666 01d2 00       		.uleb128 0
 667 01d3 EF070000 		.4byte	.LASF77
 668 01d7 05       		.byte	0x5
 669 01d8 00       		.uleb128 0
 670 01d9 610D0000 		.4byte	.LASF78
 671 01dd 05       		.byte	0x5
 672 01de 00       		.uleb128 0
 673 01df B0270000 		.4byte	.LASF79
 674 01e3 05       		.byte	0x5
 675 01e4 00       		.uleb128 0
 676 01e5 23230000 		.4byte	.LASF80
 677 01e9 05       		.byte	0x5
 678 01ea 00       		.uleb128 0
 679 01eb 31060000 		.4byte	.LASF81
 680 01ef 05       		.byte	0x5
 681 01f0 00       		.uleb128 0
 682 01f1 00000000 		.4byte	.LASF82
 683 01f5 05       		.byte	0x5
 684 01f6 00       		.uleb128 0
 685 01f7 201B0000 		.4byte	.LASF83
 686 01fb 05       		.byte	0x5
 687 01fc 00       		.uleb128 0
 688 01fd 840B0000 		.4byte	.LASF84
 689 0201 05       		.byte	0x5
 690 0202 00       		.uleb128 0
 691 0203 B2180000 		.4byte	.LASF85
 692 0207 05       		.byte	0x5
 693 0208 00       		.uleb128 0
 694 0209 5B1D0000 		.4byte	.LASF86
 695 020d 05       		.byte	0x5
 696 020e 00       		.uleb128 0
 697 020f 610B0000 		.4byte	.LASF87
 698 0213 05       		.byte	0x5
 699 0214 00       		.uleb128 0
 700 0215 39140000 		.4byte	.LASF88
 701 0219 05       		.byte	0x5
 702 021a 00       		.uleb128 0
 703 021b 65140000 		.4byte	.LASF89
 704 021f 05       		.byte	0x5
 705 0220 00       		.uleb128 0
ARM GAS  C:\Users\STUDENT\AppData\Local\Temp\ccFRnYLD.s 			page 14


 706 0221 361A0000 		.4byte	.LASF90
 707 0225 05       		.byte	0x5
 708 0226 00       		.uleb128 0
 709 0227 8C170000 		.4byte	.LASF91
 710 022b 05       		.byte	0x5
 711 022c 00       		.uleb128 0
 712 022d 04060000 		.4byte	.LASF92
 713 0231 05       		.byte	0x5
 714 0232 00       		.uleb128 0
 715 0233 ED080000 		.4byte	.LASF93
 716 0237 05       		.byte	0x5
 717 0238 00       		.uleb128 0
 718 0239 F7060000 		.4byte	.LASF94
 719 023d 05       		.byte	0x5
 720 023e 00       		.uleb128 0
 721 023f C0050000 		.4byte	.LASF95
 722 0243 05       		.byte	0x5
 723 0244 00       		.uleb128 0
 724 0245 182A0000 		.4byte	.LASF96
 725 0249 05       		.byte	0x5
 726 024a 00       		.uleb128 0
 727 024b 69290000 		.4byte	.LASF97
 728 024f 05       		.byte	0x5
 729 0250 00       		.uleb128 0
 730 0251 78130000 		.4byte	.LASF98
 731 0255 05       		.byte	0x5
 732 0256 00       		.uleb128 0
 733 0257 3B200000 		.4byte	.LASF99
 734 025b 05       		.byte	0x5
 735 025c 00       		.uleb128 0
 736 025d 480B0000 		.4byte	.LASF100
 737 0261 05       		.byte	0x5
 738 0262 00       		.uleb128 0
 739 0263 36010000 		.4byte	.LASF101
 740 0267 05       		.byte	0x5
 741 0268 00       		.uleb128 0
 742 0269 F12A0000 		.4byte	.LASF102
 743 026d 05       		.byte	0x5
 744 026e 00       		.uleb128 0
 745 026f 44030000 		.4byte	.LASF103
 746 0273 05       		.byte	0x5
 747 0274 00       		.uleb128 0
 748 0275 CE1E0000 		.4byte	.LASF104
 749 0279 05       		.byte	0x5
 750 027a 00       		.uleb128 0
 751 027b ED0E0000 		.4byte	.LASF105
 752 027f 05       		.byte	0x5
 753 0280 00       		.uleb128 0
 754 0281 F30B0000 		.4byte	.LASF106
 755 0285 05       		.byte	0x5
 756 0286 00       		.uleb128 0
 757 0287 69220000 		.4byte	.LASF107
 758 028b 05       		.byte	0x5
 759 028c 00       		.uleb128 0
 760 028d B2030000 		.4byte	.LASF108
 761 0291 05       		.byte	0x5
 762 0292 00       		.uleb128 0
ARM GAS  C:\Users\STUDENT\AppData\Local\Temp\ccFRnYLD.s 			page 15


 763 0293 99290000 		.4byte	.LASF109
 764 0297 05       		.byte	0x5
 765 0298 00       		.uleb128 0
 766 0299 D9170000 		.4byte	.LASF110
 767 029d 05       		.byte	0x5
 768 029e 00       		.uleb128 0
 769 029f AE090000 		.4byte	.LASF111
 770 02a3 05       		.byte	0x5
 771 02a4 00       		.uleb128 0
 772 02a5 810F0000 		.4byte	.LASF112
 773 02a9 05       		.byte	0x5
 774 02aa 00       		.uleb128 0
 775 02ab C6120000 		.4byte	.LASF113
 776 02af 05       		.byte	0x5
 777 02b0 00       		.uleb128 0
 778 02b1 08200000 		.4byte	.LASF114
 779 02b5 05       		.byte	0x5
 780 02b6 00       		.uleb128 0
 781 02b7 DE1F0000 		.4byte	.LASF115
 782 02bb 05       		.byte	0x5
 783 02bc 00       		.uleb128 0
 784 02bd AB230000 		.4byte	.LASF116
 785 02c1 05       		.byte	0x5
 786 02c2 00       		.uleb128 0
 787 02c3 7D290000 		.4byte	.LASF117
 788 02c7 05       		.byte	0x5
 789 02c8 00       		.uleb128 0
 790 02c9 DB140000 		.4byte	.LASF118
 791 02cd 05       		.byte	0x5
 792 02ce 00       		.uleb128 0
 793 02cf 1E1A0000 		.4byte	.LASF119
 794 02d3 05       		.byte	0x5
 795 02d4 00       		.uleb128 0
 796 02d5 53130000 		.4byte	.LASF120
 797 02d9 05       		.byte	0x5
 798 02da 00       		.uleb128 0
 799 02db 54250000 		.4byte	.LASF121
 800 02df 05       		.byte	0x5
 801 02e0 00       		.uleb128 0
 802 02e1 1E0C0000 		.4byte	.LASF122
 803 02e5 05       		.byte	0x5
 804 02e6 00       		.uleb128 0
 805 02e7 40120000 		.4byte	.LASF123
 806 02eb 05       		.byte	0x5
 807 02ec 00       		.uleb128 0
 808 02ed D6090000 		.4byte	.LASF124
 809 02f1 05       		.byte	0x5
 810 02f2 00       		.uleb128 0
 811 02f3 C0280000 		.4byte	.LASF125
 812 02f7 05       		.byte	0x5
 813 02f8 00       		.uleb128 0
 814 02f9 96000000 		.4byte	.LASF126
 815 02fd 05       		.byte	0x5
 816 02fe 00       		.uleb128 0
 817 02ff 70240000 		.4byte	.LASF127
 818 0303 05       		.byte	0x5
 819 0304 00       		.uleb128 0
ARM GAS  C:\Users\STUDENT\AppData\Local\Temp\ccFRnYLD.s 			page 16


 820 0305 50110000 		.4byte	.LASF128
 821 0309 05       		.byte	0x5
 822 030a 00       		.uleb128 0
 823 030b 451D0000 		.4byte	.LASF129
 824 030f 05       		.byte	0x5
 825 0310 00       		.uleb128 0
 826 0311 DC250000 		.4byte	.LASF130
 827 0315 05       		.byte	0x5
 828 0316 00       		.uleb128 0
 829 0317 84150000 		.4byte	.LASF131
 830 031b 05       		.byte	0x5
 831 031c 00       		.uleb128 0
 832 031d 00210000 		.4byte	.LASF132
 833 0321 05       		.byte	0x5
 834 0322 00       		.uleb128 0
 835 0323 201C0000 		.4byte	.LASF133
 836 0327 05       		.byte	0x5
 837 0328 00       		.uleb128 0
 838 0329 442B0000 		.4byte	.LASF134
 839 032d 05       		.byte	0x5
 840 032e 00       		.uleb128 0
 841 032f 6F080000 		.4byte	.LASF135
 842 0333 05       		.byte	0x5
 843 0334 00       		.uleb128 0
 844 0335 730E0000 		.4byte	.LASF136
 845 0339 05       		.byte	0x5
 846 033a 00       		.uleb128 0
 847 033b 3E040000 		.4byte	.LASF137
 848 033f 05       		.byte	0x5
 849 0340 00       		.uleb128 0
 850 0341 33170000 		.4byte	.LASF138
 851 0345 05       		.byte	0x5
 852 0346 00       		.uleb128 0
 853 0347 91010000 		.4byte	.LASF139
 854 034b 05       		.byte	0x5
 855 034c 00       		.uleb128 0
 856 034d E6120000 		.4byte	.LASF140
 857 0351 05       		.byte	0x5
 858 0352 00       		.uleb128 0
 859 0353 28180000 		.4byte	.LASF141
 860 0357 05       		.byte	0x5
 861 0358 00       		.uleb128 0
 862 0359 60280000 		.4byte	.LASF142
 863 035d 05       		.byte	0x5
 864 035e 00       		.uleb128 0
 865 035f 5E000000 		.4byte	.LASF143
 866 0363 05       		.byte	0x5
 867 0364 00       		.uleb128 0
 868 0365 8F020000 		.4byte	.LASF144
 869 0369 05       		.byte	0x5
 870 036a 00       		.uleb128 0
 871 036b 22240000 		.4byte	.LASF145
 872 036f 05       		.byte	0x5
 873 0370 00       		.uleb128 0
 874 0371 E4090000 		.4byte	.LASF146
 875 0375 05       		.byte	0x5
 876 0376 00       		.uleb128 0
ARM GAS  C:\Users\STUDENT\AppData\Local\Temp\ccFRnYLD.s 			page 17


 877 0377 03280000 		.4byte	.LASF147
 878 037b 05       		.byte	0x5
 879 037c 00       		.uleb128 0
 880 037d 97060000 		.4byte	.LASF148
 881 0381 05       		.byte	0x5
 882 0382 00       		.uleb128 0
 883 0383 3E270000 		.4byte	.LASF149
 884 0387 05       		.byte	0x5
 885 0388 00       		.uleb128 0
 886 0389 9B120000 		.4byte	.LASF150
 887 038d 05       		.byte	0x5
 888 038e 00       		.uleb128 0
 889 038f DE160000 		.4byte	.LASF151
 890 0393 05       		.byte	0x5
 891 0394 00       		.uleb128 0
 892 0395 56050000 		.4byte	.LASF152
 893 0399 05       		.byte	0x5
 894 039a 00       		.uleb128 0
 895 039b 521A0000 		.4byte	.LASF153
 896 039f 05       		.byte	0x5
 897 03a0 00       		.uleb128 0
 898 03a1 82210000 		.4byte	.LASF154
 899 03a5 05       		.byte	0x5
 900 03a6 00       		.uleb128 0
 901 03a7 521E0000 		.4byte	.LASF155
 902 03ab 05       		.byte	0x5
 903 03ac 00       		.uleb128 0
 904 03ad 6C1B0000 		.4byte	.LASF156
 905 03b1 05       		.byte	0x5
 906 03b2 00       		.uleb128 0
 907 03b3 38290000 		.4byte	.LASF157
 908 03b7 05       		.byte	0x5
 909 03b8 00       		.uleb128 0
 910 03b9 7C160000 		.4byte	.LASF158
 911 03bd 05       		.byte	0x5
 912 03be 00       		.uleb128 0
 913 03bf E0190000 		.4byte	.LASF159
 914 03c3 05       		.byte	0x5
 915 03c4 00       		.uleb128 0
 916 03c5 0B250000 		.4byte	.LASF160
 917 03c9 05       		.byte	0x5
 918 03ca 00       		.uleb128 0
 919 03cb B40D0000 		.4byte	.LASF161
 920 03cf 05       		.byte	0x5
 921 03d0 00       		.uleb128 0
 922 03d1 DB2A0000 		.4byte	.LASF162
 923 03d5 05       		.byte	0x5
 924 03d6 00       		.uleb128 0
 925 03d7 061A0000 		.4byte	.LASF163
 926 03db 05       		.byte	0x5
 927 03dc 00       		.uleb128 0
 928 03dd 1E1F0000 		.4byte	.LASF164
 929 03e1 05       		.byte	0x5
 930 03e2 00       		.uleb128 0
 931 03e3 F21A0000 		.4byte	.LASF165
 932 03e7 05       		.byte	0x5
 933 03e8 00       		.uleb128 0
ARM GAS  C:\Users\STUDENT\AppData\Local\Temp\ccFRnYLD.s 			page 18


 934 03e9 C3240000 		.4byte	.LASF166
 935 03ed 05       		.byte	0x5
 936 03ee 00       		.uleb128 0
 937 03ef DB240000 		.4byte	.LASF167
 938 03f3 05       		.byte	0x5
 939 03f4 00       		.uleb128 0
 940 03f5 7A0A0000 		.4byte	.LASF168
 941 03f9 05       		.byte	0x5
 942 03fa 00       		.uleb128 0
 943 03fb BF140000 		.4byte	.LASF169
 944 03ff 05       		.byte	0x5
 945 0400 00       		.uleb128 0
 946 0401 3D050000 		.4byte	.LASF170
 947 0405 05       		.byte	0x5
 948 0406 00       		.uleb128 0
 949 0407 70060000 		.4byte	.LASF171
 950 040b 05       		.byte	0x5
 951 040c 00       		.uleb128 0
 952 040d 2E2B0000 		.4byte	.LASF172
 953 0411 05       		.byte	0x5
 954 0412 00       		.uleb128 0
 955 0413 071B0000 		.4byte	.LASF173
 956 0417 05       		.byte	0x5
 957 0418 00       		.uleb128 0
 958 0419 DD1D0000 		.4byte	.LASF174
 959 041d 05       		.byte	0x5
 960 041e 00       		.uleb128 0
 961 041f 4C2A0000 		.4byte	.LASF175
 962 0423 05       		.byte	0x5
 963 0424 00       		.uleb128 0
 964 0425 030D0000 		.4byte	.LASF176
 965 0429 05       		.byte	0x5
 966 042a 00       		.uleb128 0
 967 042b BA000000 		.4byte	.LASF177
 968 042f 05       		.byte	0x5
 969 0430 00       		.uleb128 0
 970 0431 2D000000 		.4byte	.LASF178
 971 0435 05       		.byte	0x5
 972 0436 00       		.uleb128 0
 973 0437 B7250000 		.4byte	.LASF179
 974 043b 05       		.byte	0x5
 975 043c 00       		.uleb128 0
 976 043d BF110000 		.4byte	.LASF180
 977 0441 05       		.byte	0x5
 978 0442 00       		.uleb128 0
 979 0443 A01E0000 		.4byte	.LASF181
 980 0447 05       		.byte	0x5
 981 0448 00       		.uleb128 0
 982 0449 15040000 		.4byte	.LASF182
 983 044d 05       		.byte	0x5
 984 044e 00       		.uleb128 0
 985 044f D7280000 		.4byte	.LASF183
 986 0453 05       		.byte	0x5
 987 0454 00       		.uleb128 0
 988 0455 751D0000 		.4byte	.LASF184
 989 0459 05       		.byte	0x5
 990 045a 00       		.uleb128 0
ARM GAS  C:\Users\STUDENT\AppData\Local\Temp\ccFRnYLD.s 			page 19


 991 045b 4F070000 		.4byte	.LASF185
 992 045f 05       		.byte	0x5
 993 0460 00       		.uleb128 0
 994 0461 841B0000 		.4byte	.LASF186
 995 0465 05       		.byte	0x5
 996 0466 00       		.uleb128 0
 997 0467 B81B0000 		.4byte	.LASF187
 998 046b 05       		.byte	0x5
 999 046c 00       		.uleb128 0
 1000 046d 320E0000 		.4byte	.LASF188
 1001 0471 05       		.byte	0x5
 1002 0472 00       		.uleb128 0
 1003 0473 0F0B0000 		.4byte	.LASF189
 1004 0477 05       		.byte	0x5
 1005 0478 00       		.uleb128 0
 1006 0479 9D220000 		.4byte	.LASF190
 1007 047d 05       		.byte	0x5
 1008 047e 00       		.uleb128 0
 1009 047f 28200000 		.4byte	.LASF191
 1010 0483 05       		.byte	0x5
 1011 0484 00       		.uleb128 0
 1012 0485 81250000 		.4byte	.LASF192
 1013 0489 05       		.byte	0x5
 1014 048a 00       		.uleb128 0
 1015 048b CE020000 		.4byte	.LASF193
 1016 048f 05       		.byte	0x5
 1017 0490 00       		.uleb128 0
 1018 0491 660F0000 		.4byte	.LASF194
 1019 0495 05       		.byte	0x5
 1020 0496 00       		.uleb128 0
 1021 0497 A21F0000 		.4byte	.LASF195
 1022 049b 05       		.byte	0x5
 1023 049c 00       		.uleb128 0
 1024 049d 41130000 		.4byte	.LASF196
 1025 04a1 05       		.byte	0x5
 1026 04a2 00       		.uleb128 0
 1027 04a3 CF190000 		.4byte	.LASF197
 1028 04a7 05       		.byte	0x5
 1029 04a8 00       		.uleb128 0
 1030 04a9 290D0000 		.4byte	.LASF198
 1031 04ad 05       		.byte	0x5
 1032 04ae 00       		.uleb128 0
 1033 04af 63190000 		.4byte	.LASF199
 1034 04b3 05       		.byte	0x5
 1035 04b4 00       		.uleb128 0
 1036 04b5 7E230000 		.4byte	.LASF200
 1037 04b9 05       		.byte	0x5
 1038 04ba 00       		.uleb128 0
 1039 04bb D9100000 		.4byte	.LASF201
 1040 04bf 05       		.byte	0x5
 1041 04c0 00       		.uleb128 0
 1042 04c1 E01A0000 		.4byte	.LASF202
 1043 04c5 05       		.byte	0x5
 1044 04c6 00       		.uleb128 0
 1045 04c7 AE190000 		.4byte	.LASF203
 1046 04cb 05       		.byte	0x5
 1047 04cc 00       		.uleb128 0
ARM GAS  C:\Users\STUDENT\AppData\Local\Temp\ccFRnYLD.s 			page 20


 1048 04cd F30A0000 		.4byte	.LASF204
 1049 04d1 05       		.byte	0x5
 1050 04d2 00       		.uleb128 0
 1051 04d3 67150000 		.4byte	.LASF205
 1052 04d7 05       		.byte	0x5
 1053 04d8 00       		.uleb128 0
 1054 04d9 0A150000 		.4byte	.LASF206
 1055 04dd 05       		.byte	0x5
 1056 04de 00       		.uleb128 0
 1057 04df AC060000 		.4byte	.LASF207
 1058 04e3 05       		.byte	0x5
 1059 04e4 00       		.uleb128 0
 1060 04e5 DB010000 		.4byte	.LASF208
 1061 04e9 05       		.byte	0x5
 1062 04ea 00       		.uleb128 0
 1063 04eb F8290000 		.4byte	.LASF209
 1064 04ef 05       		.byte	0x5
 1065 04f0 00       		.uleb128 0
 1066 04f1 6D0C0000 		.4byte	.LASF210
 1067 04f5 05       		.byte	0x5
 1068 04f6 00       		.uleb128 0
 1069 04f7 C7180000 		.4byte	.LASF211
 1070 04fb 05       		.byte	0x5
 1071 04fc 00       		.uleb128 0
 1072 04fd C40B0000 		.4byte	.LASF212
 1073 0501 05       		.byte	0x5
 1074 0502 00       		.uleb128 0
 1075 0503 29120000 		.4byte	.LASF213
 1076 0507 05       		.byte	0x5
 1077 0508 00       		.uleb128 0
 1078 0509 E2210000 		.4byte	.LASF214
 1079 050d 05       		.byte	0x5
 1080 050e 00       		.uleb128 0
 1081 050f 960B0000 		.4byte	.LASF215
 1082 0513 05       		.byte	0x5
 1083 0514 00       		.uleb128 0
 1084 0515 00140000 		.4byte	.LASF216
 1085 0519 05       		.byte	0x5
 1086 051a 00       		.uleb128 0
 1087 051b 600E0000 		.4byte	.LASF217
 1088 051f 05       		.byte	0x5
 1089 0520 00       		.uleb128 0
 1090 0521 78050000 		.4byte	.LASF218
 1091 0525 05       		.byte	0x5
 1092 0526 00       		.uleb128 0
 1093 0527 84090000 		.4byte	.LASF219
 1094 052b 05       		.byte	0x5
 1095 052c 00       		.uleb128 0
 1096 052d 4D1B0000 		.4byte	.LASF220
 1097 0531 05       		.byte	0x5
 1098 0532 00       		.uleb128 0
 1099 0533 6B1A0000 		.4byte	.LASF221
 1100 0537 05       		.byte	0x5
 1101 0538 00       		.uleb128 0
 1102 0539 94070000 		.4byte	.LASF222
 1103 053d 05       		.byte	0x5
 1104 053e 00       		.uleb128 0
ARM GAS  C:\Users\STUDENT\AppData\Local\Temp\ccFRnYLD.s 			page 21


 1105 053f 2E0C0000 		.4byte	.LASF223
 1106 0543 05       		.byte	0x5
 1107 0544 00       		.uleb128 0
 1108 0545 E9030000 		.4byte	.LASF224
 1109 0549 05       		.byte	0x5
 1110 054a 00       		.uleb128 0
 1111 054b BA2A0000 		.4byte	.LASF225
 1112 054f 05       		.byte	0x5
 1113 0550 00       		.uleb128 0
 1114 0551 DB0C0000 		.4byte	.LASF226
 1115 0555 05       		.byte	0x5
 1116 0556 00       		.uleb128 0
 1117 0557 EE0D0000 		.4byte	.LASF227
 1118 055b 05       		.byte	0x5
 1119 055c 00       		.uleb128 0
 1120 055d 26220000 		.4byte	.LASF228
 1121 0561 05       		.byte	0x5
 1122 0562 00       		.uleb128 0
 1123 0563 B9160000 		.4byte	.LASF229
 1124 0567 05       		.byte	0x5
 1125 0568 00       		.uleb128 0
 1126 0569 28100000 		.4byte	.LASF230
 1127 056d 05       		.byte	0x5
 1128 056e 00       		.uleb128 0
 1129 056f 771E0000 		.4byte	.LASF231
 1130 0573 05       		.byte	0x5
 1131 0574 00       		.uleb128 0
 1132 0575 00130000 		.4byte	.LASF232
 1133 0579 05       		.byte	0x5
 1134 057a 00       		.uleb128 0
 1135 057b 6A250000 		.4byte	.LASF233
 1136 057f 05       		.byte	0x5
 1137 0580 00       		.uleb128 0
 1138 0581 D00E0000 		.4byte	.LASF234
 1139 0585 05       		.byte	0x5
 1140 0586 00       		.uleb128 0
 1141 0587 900A0000 		.4byte	.LASF235
 1142 058b 05       		.byte	0x5
 1143 058c 00       		.uleb128 0
 1144 058d B9130000 		.4byte	.LASF236
 1145 0591 05       		.byte	0x5
 1146 0592 00       		.uleb128 0
 1147 0593 A20D0000 		.4byte	.LASF237
 1148 0597 05       		.byte	0x5
 1149 0598 00       		.uleb128 0
 1150 0599 F7180000 		.4byte	.LASF238
 1151 059d 05       		.byte	0x5
 1152 059e 00       		.uleb128 0
 1153 059f C21A0000 		.4byte	.LASF239
 1154 05a3 05       		.byte	0x5
 1155 05a4 00       		.uleb128 0
 1156 05a5 C6150000 		.4byte	.LASF240
 1157 05a9 05       		.byte	0x5
 1158 05aa 00       		.uleb128 0
 1159 05ab 15180000 		.4byte	.LASF241
 1160 05af 05       		.byte	0x5
 1161 05b0 00       		.uleb128 0
ARM GAS  C:\Users\STUDENT\AppData\Local\Temp\ccFRnYLD.s 			page 22


 1162 05b1 B3120000 		.4byte	.LASF242
 1163 05b5 05       		.byte	0x5
 1164 05b6 00       		.uleb128 0
 1165 05b7 14140000 		.4byte	.LASF243
 1166 05bb 05       		.byte	0x5
 1167 05bc 00       		.uleb128 0
 1168 05bd B21D0000 		.4byte	.LASF244
 1169 05c1 05       		.byte	0x5
 1170 05c2 00       		.uleb128 0
 1171 05c3 850D0000 		.4byte	.LASF245
 1172 05c7 05       		.byte	0x5
 1173 05c8 00       		.uleb128 0
 1174 05c9 54150000 		.4byte	.LASF246
 1175 05cd 05       		.byte	0x5
 1176 05ce 00       		.uleb128 0
 1177 05cf 530F0000 		.4byte	.LASF247
 1178 05d3 05       		.byte	0x5
 1179 05d4 00       		.uleb128 0
 1180 05d5 08080000 		.4byte	.LASF248
 1181 05d9 05       		.byte	0x5
 1182 05da 00       		.uleb128 0
 1183 05db B1170000 		.4byte	.LASF249
 1184 05df 05       		.byte	0x5
 1185 05e0 00       		.uleb128 0
 1186 05e1 80220000 		.4byte	.LASF250
 1187 05e5 05       		.byte	0x5
 1188 05e6 00       		.uleb128 0
 1189 05e7 9A190000 		.4byte	.LASF251
 1190 05eb 05       		.byte	0x5
 1191 05ec 00       		.uleb128 0
 1192 05ed EC130000 		.4byte	.LASF252
 1193 05f1 05       		.byte	0x5
 1194 05f2 00       		.uleb128 0
 1195 05f3 58080000 		.4byte	.LASF253
 1196 05f7 05       		.byte	0x5
 1197 05f8 00       		.uleb128 0
 1198 05f9 C90A0000 		.4byte	.LASF254
 1199 05fd 05       		.byte	0x5
 1200 05fe 00       		.uleb128 0
 1201 05ff D4000000 		.4byte	.LASF255
 1202 0603 05       		.byte	0x5
 1203 0604 00       		.uleb128 0
 1204 0605 382A0000 		.4byte	.LASF256
 1205 0609 05       		.byte	0x5
 1206 060a 00       		.uleb128 0
 1207 060b 99050000 		.4byte	.LASF257
 1208 060f 05       		.byte	0x5
 1209 0610 00       		.uleb128 0
 1210 0611 BD0F0000 		.4byte	.LASF258
 1211 0615 05       		.byte	0x5
 1212 0616 00       		.uleb128 0
 1213 0617 66110000 		.4byte	.LASF259
 1214 061b 05       		.byte	0x5
 1215 061c 00       		.uleb128 0
 1216 061d 90110000 		.4byte	.LASF260
 1217 0621 05       		.byte	0x5
 1218 0622 00       		.uleb128 0
ARM GAS  C:\Users\STUDENT\AppData\Local\Temp\ccFRnYLD.s 			page 23


 1219 0623 2B260000 		.4byte	.LASF261
 1220 0627 05       		.byte	0x5
 1221 0628 00       		.uleb128 0
 1222 0629 3A070000 		.4byte	.LASF262
 1223 062d 05       		.byte	0x5
 1224 062e 00       		.uleb128 0
 1225 062f 19090000 		.4byte	.LASF263
 1226 0633 05       		.byte	0x5
 1227 0634 00       		.uleb128 0
 1228 0635 2C080000 		.4byte	.LASF264
 1229 0639 05       		.byte	0x5
 1230 063a 00       		.uleb128 0
 1231 063b 0D2B0000 		.4byte	.LASF265
 1232 063f 05       		.byte	0x5
 1233 0640 00       		.uleb128 0
 1234 0641 9D280000 		.4byte	.LASF266
 1235 0645 05       		.byte	0x5
 1236 0646 00       		.uleb128 0
 1237 0647 57010000 		.4byte	.LASF267
 1238 064b 05       		.byte	0x5
 1239 064c 00       		.uleb128 0
 1240 064d 50200000 		.4byte	.LASF268
 1241 0651 05       		.byte	0x5
 1242 0652 00       		.uleb128 0
 1243 0653 D61B0000 		.4byte	.LASF269
 1244 0657 05       		.byte	0x5
 1245 0658 00       		.uleb128 0
 1246 0659 681E0000 		.4byte	.LASF270
 1247 065d 05       		.byte	0x5
 1248 065e 00       		.uleb128 0
 1249 065f 371D0000 		.4byte	.LASF271
 1250 0663 05       		.byte	0x5
 1251 0664 00       		.uleb128 0
 1252 0665 931C0000 		.4byte	.LASF272
 1253 0669 05       		.byte	0x5
 1254 066a 00       		.uleb128 0
 1255 066b CE250000 		.4byte	.LASF273
 1256 066f 05       		.byte	0x5
 1257 0670 00       		.uleb128 0
 1258 0671 921F0000 		.4byte	.LASF274
 1259 0675 05       		.byte	0x5
 1260 0676 00       		.uleb128 0
 1261 0677 05170000 		.4byte	.LASF275
 1262 067b 05       		.byte	0x5
 1263 067c 00       		.uleb128 0
 1264 067d 901D0000 		.4byte	.LASF276
 1265 0681 05       		.byte	0x5
 1266 0682 00       		.uleb128 0
 1267 0683 D4200000 		.4byte	.LASF277
 1268 0687 05       		.byte	0x5
 1269 0688 00       		.uleb128 0
 1270 0689 F31D0000 		.4byte	.LASF278
 1271 068d 05       		.byte	0x5
 1272 068e 00       		.uleb128 0
 1273 068f CA100000 		.4byte	.LASF279
 1274 0693 05       		.byte	0x5
 1275 0694 00       		.uleb128 0
ARM GAS  C:\Users\STUDENT\AppData\Local\Temp\ccFRnYLD.s 			page 24


 1276 0695 C2220000 		.4byte	.LASF280
 1277 0699 05       		.byte	0x5
 1278 069a 00       		.uleb128 0
 1279 069b 54120000 		.4byte	.LASF281
 1280 069f 05       		.byte	0x5
 1281 06a0 00       		.uleb128 0
 1282 06a1 E1150000 		.4byte	.LASF282
 1283 06a5 05       		.byte	0x5
 1284 06a6 00       		.uleb128 0
 1285 06a7 65010000 		.4byte	.LASF283
 1286 06ab 05       		.byte	0x5
 1287 06ac 00       		.uleb128 0
 1288 06ad 1E160000 		.4byte	.LASF284
 1289 06b1 05       		.byte	0x5
 1290 06b2 00       		.uleb128 0
 1291 06b3 D70B0000 		.4byte	.LASF285
 1292 06b7 05       		.byte	0x5
 1293 06b8 00       		.uleb128 0
 1294 06b9 04220000 		.4byte	.LASF286
 1295 06bd 05       		.byte	0x5
 1296 06be 00       		.uleb128 0
 1297 06bf D2220000 		.4byte	.LASF287
 1298 06c3 05       		.byte	0x5
 1299 06c4 00       		.uleb128 0
 1300 06c5 F00F0000 		.4byte	.LASF288
 1301 06c9 05       		.byte	0x5
 1302 06ca 00       		.uleb128 0
 1303 06cb 75090000 		.4byte	.LASF289
 1304 06cf 05       		.byte	0x5
 1305 06d0 00       		.uleb128 0
 1306 06d1 3B0A0000 		.4byte	.LASF290
 1307 06d5 05       		.byte	0x5
 1308 06d6 00       		.uleb128 0
 1309 06d7 2C0F0000 		.4byte	.LASF291
 1310 06db 05       		.byte	0x5
 1311 06dc 00       		.uleb128 0
 1312 06dd 1E000000 		.4byte	.LASF292
 1313 06e1 05       		.byte	0x5
 1314 06e2 00       		.uleb128 0
 1315 06e3 8E280000 		.4byte	.LASF293
 1316 06e7 05       		.byte	0x5
 1317 06e8 00       		.uleb128 0
 1318 06e9 13170000 		.4byte	.LASF294
 1319 06ed 05       		.byte	0x5
 1320 06ee 00       		.uleb128 0
 1321 06ef A21C0000 		.4byte	.LASF295
 1322 06f3 05       		.byte	0x5
 1323 06f4 00       		.uleb128 0
 1324 06f5 29140000 		.4byte	.LASF296
 1325 06f9 05       		.byte	0x5
 1326 06fa 00       		.uleb128 0
 1327 06fb 500E0000 		.4byte	.LASF297
 1328 06ff 05       		.byte	0x5
 1329 0700 00       		.uleb128 0
 1330 0701 030F0000 		.4byte	.LASF298
 1331 0705 05       		.byte	0x5
 1332 0706 00       		.uleb128 0
ARM GAS  C:\Users\STUDENT\AppData\Local\Temp\ccFRnYLD.s 			page 25


 1333 0707 B4080000 		.4byte	.LASF299
 1334 070b 05       		.byte	0x5
 1335 070c 00       		.uleb128 0
 1336 070d 2E040000 		.4byte	.LASF300
 1337 0711 05       		.byte	0x5
 1338 0712 00       		.uleb128 0
 1339 0713 D4290000 		.4byte	.LASF301
 1340 0717 05       		.byte	0x5
 1341 0718 00       		.uleb128 0
 1342 0719 1C060000 		.4byte	.LASF302
 1343 071d 05       		.byte	0x5
 1344 071e 00       		.uleb128 0
 1345 071f 091C0000 		.4byte	.LASF303
 1346 0723 05       		.byte	0x5
 1347 0724 00       		.uleb128 0
 1348 0725 8A1E0000 		.4byte	.LASF304
 1349 0729 05       		.byte	0x5
 1350 072a 00       		.uleb128 0
 1351 072b AF110000 		.4byte	.LASF305
 1352 072f 05       		.byte	0x5
 1353 0730 00       		.uleb128 0
 1354 0731 CA1F0000 		.4byte	.LASF306
 1355 0735 05       		.byte	0x5
 1356 0736 00       		.uleb128 0
 1357 0737 50090000 		.4byte	.LASF307
 1358 073b 05       		.byte	0x5
 1359 073c 00       		.uleb128 0
 1360 073d 160A0000 		.4byte	.LASF308
 1361 0741 05       		.byte	0x5
 1362 0742 00       		.uleb128 0
 1363 0743 63120000 		.4byte	.LASF309
 1364 0747 05       		.byte	0x5
 1365 0748 00       		.uleb128 0
 1366 0749 5E160000 		.4byte	.LASF310
 1367 074d 05       		.byte	0x5
 1368 074e 00       		.uleb128 0
 1369 074f AC100000 		.4byte	.LASF311
 1370 0753 05       		.byte	0x5
 1371 0754 00       		.uleb128 0
 1372 0755 32150000 		.4byte	.LASF312
 1373 0759 05       		.byte	0x5
 1374 075a 00       		.uleb128 0
 1375 075b EF220000 		.4byte	.LASF313
 1376 075f 05       		.byte	0x5
 1377 0760 00       		.uleb128 0
 1378 0761 CB130000 		.4byte	.LASF314
 1379 0765 05       		.byte	0x5
 1380 0766 00       		.uleb128 0
 1381 0767 40260000 		.4byte	.LASF315
 1382 076b 05       		.byte	0x5
 1383 076c 00       		.uleb128 0
 1384 076d 440D0000 		.4byte	.LASF316
 1385 0771 05       		.byte	0x5
 1386 0772 00       		.uleb128 0
 1387 0773 A8150000 		.4byte	.LASF317
 1388 0777 05       		.byte	0x5
 1389 0778 00       		.uleb128 0
ARM GAS  C:\Users\STUDENT\AppData\Local\Temp\ccFRnYLD.s 			page 26


 1390 0779 51240000 		.4byte	.LASF318
 1391 077d 05       		.byte	0x5
 1392 077e 00       		.uleb128 0
 1393 077f 4C170000 		.4byte	.LASF319
 1394 0783 05       		.byte	0x5
 1395 0784 00       		.uleb128 0
 1396 0785 48220000 		.4byte	.LASF320
 1397 0789 05       		.byte	0x5
 1398 078a 00       		.uleb128 0
 1399 078b 70170000 		.4byte	.LASF321
 1400 078f 05       		.byte	0x5
 1401 0790 00       		.uleb128 0
 1402 0791 712A0000 		.4byte	.LASF322
 1403 0795 05       		.byte	0x5
 1404 0796 00       		.uleb128 0
 1405 0797 801A0000 		.4byte	.LASF323
 1406 079b 05       		.byte	0x5
 1407 079c 00       		.uleb128 0
 1408 079d 27020000 		.4byte	.LASF324
 1409 07a1 05       		.byte	0x5
 1410 07a2 00       		.uleb128 0
 1411 07a3 000E0000 		.4byte	.LASF325
 1412 07a7 05       		.byte	0x5
 1413 07a8 00       		.uleb128 0
 1414 07a9 A52A0000 		.4byte	.LASF326
 1415 07ad 05       		.byte	0x5
 1416 07ae 00       		.uleb128 0
 1417 07af E4290000 		.4byte	.LASF327
 1418 07b3 05       		.byte	0x5
 1419 07b4 00       		.uleb128 0
 1420 07b5 8B0E0000 		.4byte	.LASF328
 1421 07b9 05       		.byte	0x5
 1422 07ba 00       		.uleb128 0
 1423 07bb F5020000 		.4byte	.LASF329
 1424 07bf 05       		.byte	0x5
 1425 07c0 00       		.uleb128 0
 1426 07c1 B11C0000 		.4byte	.LASF330
 1427 07c5 05       		.byte	0x5
 1428 07c6 00       		.uleb128 0
 1429 07c7 EC100000 		.4byte	.LASF331
 1430 07cb 05       		.byte	0x5
 1431 07cc 00       		.uleb128 0
 1432 07cd 4A0A0000 		.4byte	.LASF332
 1433 07d1 05       		.byte	0x5
 1434 07d2 00       		.uleb128 0
 1435 07d3 F9010000 		.4byte	.LASF333
 1436 07d7 05       		.byte	0x5
 1437 07d8 00       		.uleb128 0
 1438 07d9 ED0C0000 		.4byte	.LASF334
 1439 07dd 05       		.byte	0x5
 1440 07de 00       		.uleb128 0
 1441 07df D4160000 		.4byte	.LASF335
 1442 07e3 05       		.byte	0x5
 1443 07e4 00       		.uleb128 0
 1444 07e5 EA060000 		.4byte	.LASF336
 1445 07e9 05       		.byte	0x5
 1446 07ea 00       		.uleb128 0
ARM GAS  C:\Users\STUDENT\AppData\Local\Temp\ccFRnYLD.s 			page 27


 1447 07eb C6270000 		.4byte	.LASF337
 1448 07ef 05       		.byte	0x5
 1449 07f0 00       		.uleb128 0
 1450 07f1 121F0000 		.4byte	.LASF338
 1451 07f5 05       		.byte	0x5
 1452 07f6 00       		.uleb128 0
 1453 07f7 FB080000 		.4byte	.LASF339
 1454 07fb 05       		.byte	0x5
 1455 07fc 00       		.uleb128 0
 1456 07fd 07160000 		.4byte	.LASF340
 1457 0801 05       		.byte	0x5
 1458 0802 00       		.uleb128 0
 1459 0803 A8080000 		.4byte	.LASF341
 1460 0807 05       		.byte	0x5
 1461 0808 00       		.uleb128 0
 1462 0809 1E0F0000 		.4byte	.LASF342
 1463 080d 05       		.byte	0x5
 1464 080e 00       		.uleb128 0
 1465 080f 15240000 		.4byte	.LASF343
 1466 0813 05       		.byte	0x5
 1467 0814 00       		.uleb128 0
 1468 0815 B2210000 		.4byte	.LASF344
 1469 0819 05       		.byte	0x5
 1470 081a 00       		.uleb128 0
 1471 081b 2B130000 		.4byte	.LASF345
 1472 081f 05       		.byte	0x5
 1473 0820 00       		.uleb128 0
 1474 0821 11230000 		.4byte	.LASF346
 1475 0825 05       		.byte	0x5
 1476 0826 00       		.uleb128 0
 1477 0827 CA1B0000 		.4byte	.LASF347
 1478 082b 05       		.byte	0x5
 1479 082c 00       		.uleb128 0
 1480 082d 280B0000 		.4byte	.LASF348
 1481 0831 05       		.byte	0x5
 1482 0832 00       		.uleb128 0
 1483 0833 550C0000 		.4byte	.LASF349
 1484 0837 05       		.byte	0x5
 1485 0838 00       		.uleb128 0
 1486 0839 3D1E0000 		.4byte	.LASF350
 1487 083d 05       		.byte	0x5
 1488 083e 00       		.uleb128 0
 1489 083f 1A030000 		.4byte	.LASF351
 1490 0843 05       		.byte	0x5
 1491 0844 00       		.uleb128 0
 1492 0845 42190000 		.4byte	.LASF352
 1493 0849 05       		.byte	0x5
 1494 084a 00       		.uleb128 0
 1495 084b 42170000 		.4byte	.LASF353
 1496 084f 05       		.byte	0x5
 1497 0850 00       		.uleb128 0
 1498 0851 660A0000 		.4byte	.LASF354
 1499 0855 00       		.byte	0
 1500              		.section	.debug_macro,"G",%progbits,wm4._newlib_version.h.4.ad342815780c8db09778091a421b5b5b,comda
 1501              	.Ldebug_macro2:
 1502 0000 0400     		.2byte	0x4
 1503 0002 00       		.byte	0
ARM GAS  C:\Users\STUDENT\AppData\Local\Temp\ccFRnYLD.s 			page 28


 1504 0003 05       		.byte	0x5
 1505 0004 04       		.uleb128 0x4
 1506 0005 EE050000 		.4byte	.LASF357
 1507 0009 05       		.byte	0x5
 1508 000a 06       		.uleb128 0x6
 1509 000b A10C0000 		.4byte	.LASF358
 1510 000f 05       		.byte	0x5
 1511 0010 07       		.uleb128 0x7
 1512 0011 E60B0000 		.4byte	.LASF359
 1513 0015 05       		.byte	0x5
 1514 0016 08       		.uleb128 0x8
 1515 0017 95080000 		.4byte	.LASF360
 1516 001b 05       		.byte	0x5
 1517 001c 09       		.uleb128 0x9
 1518 001d 13130000 		.4byte	.LASF361
 1519 0021 00       		.byte	0
 1520              		.section	.debug_macro,"G",%progbits,wm4.newlib.h.21.0b9fc973bddc8b940a18de2b6ea6adc7,comdat
 1521              	.Ldebug_macro3:
 1522 0000 0400     		.2byte	0x4
 1523 0002 00       		.byte	0
 1524 0003 05       		.byte	0x5
 1525 0004 15       		.uleb128 0x15
 1526 0005 AB280000 		.4byte	.LASF362
 1527 0009 05       		.byte	0x5
 1528 000a 18       		.uleb128 0x18
 1529 000b 1B010000 		.4byte	.LASF363
 1530 000f 05       		.byte	0x5
 1531 0010 28       		.uleb128 0x28
 1532 0011 16050000 		.4byte	.LASF364
 1533 0015 05       		.byte	0x5
 1534 0016 32       		.uleb128 0x32
 1535 0017 A8070000 		.4byte	.LASF365
 1536 001b 05       		.byte	0x5
 1537 001c 36       		.uleb128 0x36
 1538 001d A1130000 		.4byte	.LASF366
 1539 0021 05       		.byte	0x5
 1540 0022 39       		.uleb128 0x39
 1541 0023 82140000 		.4byte	.LASF367
 1542 0027 05       		.byte	0x5
 1543 0028 3C       		.uleb128 0x3c
 1544 0029 8D270000 		.4byte	.LASF368
 1545 002d 05       		.byte	0x5
 1546 002e 3F       		.uleb128 0x3f
 1547 002f 69130000 		.4byte	.LASF369
 1548 0033 05       		.byte	0x5
 1549 0034 42       		.uleb128 0x42
 1550 0035 77280000 		.4byte	.LASF370
 1551 0039 05       		.byte	0x5
 1552 003a 45       		.uleb128 0x45
 1553 003b B81E0000 		.4byte	.LASF371
 1554 003f 05       		.byte	0x5
 1555 0040 48       		.uleb128 0x48
 1556 0041 B50B0000 		.4byte	.LASF372
 1557 0045 05       		.byte	0x5
 1558 0046 4B       		.uleb128 0x4b
 1559 0047 12220000 		.4byte	.LASF373
 1560 004b 00       		.byte	0
ARM GAS  C:\Users\STUDENT\AppData\Local\Temp\ccFRnYLD.s 			page 29


 1561              		.section	.debug_macro,"G",%progbits,wm4.features.h.22.692cd1f2e947ca7b8fea300222f5f1f2,comdat
 1562              	.Ldebug_macro4:
 1563 0000 0400     		.2byte	0x4
 1564 0002 00       		.byte	0
 1565 0003 05       		.byte	0x5
 1566 0004 16       		.uleb128 0x16
 1567 0005 370B0000 		.4byte	.LASF376
 1568 0009 05       		.byte	0x5
 1569 000a 21       		.uleb128 0x21
 1570 000b 3B020000 		.4byte	.LASF377
 1571 000f 05       		.byte	0x5
 1572 0010 28       		.uleb128 0x28
 1573 0011 C71C0000 		.4byte	.LASF378
 1574 0015 06       		.byte	0x6
 1575 0016 8001     		.uleb128 0x80
 1576 0018 3D180000 		.4byte	.LASF379
 1577 001c 05       		.byte	0x5
 1578 001d 8101     		.uleb128 0x81
 1579 001f 16100000 		.4byte	.LASF380
 1580 0023 06       		.byte	0x6
 1581 0024 8501     		.uleb128 0x85
 1582 0026 54030000 		.4byte	.LASF381
 1583 002a 05       		.byte	0x5
 1584 002b 8601     		.uleb128 0x86
 1585 002d 1B260000 		.4byte	.LASF382
 1586 0031 06       		.byte	0x6
 1587 0032 8701     		.uleb128 0x87
 1588 0034 BE020000 		.4byte	.LASF383
 1589 0038 05       		.byte	0x5
 1590 0039 8801     		.uleb128 0x88
 1591 003b A50E0000 		.4byte	.LASF384
 1592 003f 06       		.byte	0x6
 1593 0040 9B01     		.uleb128 0x9b
 1594 0042 86080000 		.4byte	.LASF385
 1595 0046 05       		.byte	0x5
 1596 0047 9C01     		.uleb128 0x9c
 1597 0049 08090000 		.4byte	.LASF386
 1598 004d 05       		.byte	0x5
 1599 004e F201     		.uleb128 0xf2
 1600 0050 9F1D0000 		.4byte	.LASF387
 1601 0054 05       		.byte	0x5
 1602 0055 F801     		.uleb128 0xf8
 1603 0057 BE060000 		.4byte	.LASF388
 1604 005b 05       		.byte	0x5
 1605 005c 8002     		.uleb128 0x100
 1606 005e 79100000 		.4byte	.LASF389
 1607 0062 05       		.byte	0x5
 1608 0063 8802     		.uleb128 0x108
 1609 0065 221D0000 		.4byte	.LASF390
 1610 0069 05       		.byte	0x5
 1611 006a 9002     		.uleb128 0x110
 1612 006c 7C1F0000 		.4byte	.LASF391
 1613 0070 05       		.byte	0x5
 1614 0071 9402     		.uleb128 0x114
 1615 0073 F0240000 		.4byte	.LASF392
 1616 0077 05       		.byte	0x5
 1617 0078 9A02     		.uleb128 0x11a
ARM GAS  C:\Users\STUDENT\AppData\Local\Temp\ccFRnYLD.s 			page 30


 1618 007a 10020000 		.4byte	.LASF393
 1619 007e 05       		.byte	0x5
 1620 007f AA02     		.uleb128 0x12a
 1621 0081 22170000 		.4byte	.LASF394
 1622 0085 05       		.byte	0x5
 1623 0086 BA02     		.uleb128 0x13a
 1624 0088 81010000 		.4byte	.LASF395
 1625 008c 00       		.byte	0
 1626              		.section	.debug_macro,"G",%progbits,wm4.config.h.219.65a553ab5bef5482f0d7880b0d33015e,comdat
 1627              	.Ldebug_macro5:
 1628 0000 0400     		.2byte	0x4
 1629 0002 00       		.byte	0
 1630 0003 05       		.byte	0x5
 1631 0004 DB01     		.uleb128 0xdb
 1632 0006 6A1F0000 		.4byte	.LASF396
 1633 000a 06       		.byte	0x6
 1634 000b E101     		.uleb128 0xe1
 1635 000d D21D0000 		.4byte	.LASF397
 1636 0011 05       		.byte	0x5
 1637 0012 E501     		.uleb128 0xe5
 1638 0014 4A210000 		.4byte	.LASF398
 1639 0018 05       		.byte	0x5
 1640 0019 F401     		.uleb128 0xf4
 1641 001b C01F0000 		.4byte	.LASF399
 1642 001f 05       		.byte	0x5
 1643 0020 F801     		.uleb128 0xf8
 1644 0022 2E290000 		.4byte	.LASF400
 1645 0026 05       		.byte	0x5
 1646 0027 FF01     		.uleb128 0xff
 1647 0029 CE060000 		.4byte	.LASF401
 1648 002d 05       		.byte	0x5
 1649 002e 8502     		.uleb128 0x105
 1650 0030 B7290000 		.4byte	.LASF402
 1651 0034 00       		.byte	0
 1652              		.section	.debug_macro,"G",%progbits,wm4._ansi.h.23.84af8eb8cd468d25cc5f45f5eb13ec51,comdat
 1653              	.Ldebug_macro6:
 1654 0000 0400     		.2byte	0x4
 1655 0002 00       		.byte	0
 1656 0003 05       		.byte	0x5
 1657 0004 17       		.uleb128 0x17
 1658 0005 48250000 		.4byte	.LASF403
 1659 0009 05       		.byte	0x5
 1660 000a 2C       		.uleb128 0x2c
 1661 000b 632A0000 		.4byte	.LASF404
 1662 000f 05       		.byte	0x5
 1663 0010 2D       		.uleb128 0x2d
 1664 0011 CF050000 		.4byte	.LASF405
 1665 0015 05       		.byte	0x5
 1666 0016 2E       		.uleb128 0x2e
 1667 0017 01250000 		.4byte	.LASF406
 1668 001b 05       		.byte	0x5
 1669 001c 32       		.uleb128 0x32
 1670 001d E40F0000 		.4byte	.LASF407
 1671 0021 05       		.byte	0x5
 1672 0022 33       		.uleb128 0x33
 1673 0023 7B140000 		.4byte	.LASF408
 1674 0027 05       		.byte	0x5
ARM GAS  C:\Users\STUDENT\AppData\Local\Temp\ccFRnYLD.s 			page 31


 1675 0028 34       		.uleb128 0x34
 1676 0029 37030000 		.4byte	.LASF409
 1677 002d 05       		.byte	0x5
 1678 002e 35       		.uleb128 0x35
 1679 002f E10D0000 		.4byte	.LASF410
 1680 0033 05       		.byte	0x5
 1681 0034 36       		.uleb128 0x36
 1682 0035 88120000 		.4byte	.LASF411
 1683 0039 05       		.byte	0x5
 1684 003a 37       		.uleb128 0x37
 1685 003b E0220000 		.4byte	.LASF412
 1686 003f 05       		.byte	0x5
 1687 0040 38       		.uleb128 0x38
 1688 0041 C3190000 		.4byte	.LASF413
 1689 0045 05       		.byte	0x5
 1690 0046 39       		.uleb128 0x39
 1691 0047 AF000000 		.4byte	.LASF414
 1692 004b 05       		.byte	0x5
 1693 004c 40       		.uleb128 0x40
 1694 004d D4270000 		.4byte	.LASF415
 1695 0051 05       		.byte	0x5
 1696 0052 41       		.uleb128 0x41
 1697 0053 4B290000 		.4byte	.LASF416
 1698 0057 05       		.byte	0x5
 1699 0058 42       		.uleb128 0x42
 1700 0059 BF210000 		.4byte	.LASF417
 1701 005d 05       		.byte	0x5
 1702 005e 43       		.uleb128 0x43
 1703 005f 49230000 		.4byte	.LASF418
 1704 0063 05       		.byte	0x5
 1705 0064 45       		.uleb128 0x45
 1706 0065 E41B0000 		.4byte	.LASF419
 1707 0069 05       		.byte	0x5
 1708 006a 46       		.uleb128 0x46
 1709 006b 4B1C0000 		.4byte	.LASF420
 1710 006f 05       		.byte	0x5
 1711 0070 47       		.uleb128 0x47
 1712 0071 F3160000 		.4byte	.LASF421
 1713 0075 05       		.byte	0x5
 1714 0076 49       		.uleb128 0x49
 1715 0077 4C140000 		.4byte	.LASF422
 1716 007b 05       		.byte	0x5
 1717 007c 4C       		.uleb128 0x4c
 1718 007d 11290000 		.4byte	.LASF423
 1719 0081 05       		.byte	0x5
 1720 0082 65       		.uleb128 0x65
 1721 0083 C5230000 		.4byte	.LASF424
 1722 0087 05       		.byte	0x5
 1723 0088 7B       		.uleb128 0x7b
 1724 0089 5F200000 		.4byte	.LASF425
 1725 008d 05       		.byte	0x5
 1726 008e 8301     		.uleb128 0x83
 1727 0090 96140000 		.4byte	.LASF426
 1728 0094 05       		.byte	0x5
 1729 0095 8401     		.uleb128 0x84
 1730 0097 F01E0000 		.4byte	.LASF427
 1731 009b 00       		.byte	0
ARM GAS  C:\Users\STUDENT\AppData\Local\Temp\ccFRnYLD.s 			page 32


 1732              		.section	.debug_macro,"G",%progbits,wm4.assert.h.11.f9b6feb3ce5083ec030f5895cd9c4353,comdat
 1733              	.Ldebug_macro7:
 1734 0000 0400     		.2byte	0x4
 1735 0002 00       		.byte	0
 1736 0003 06       		.byte	0x6
 1737 0004 0B       		.uleb128 0xb
 1738 0005 E6080000 		.4byte	.LASF428
 1739 0009 05       		.byte	0x5
 1740 000a 10       		.uleb128 0x10
 1741 000b 7F040000 		.4byte	.LASF429
 1742 000f 05       		.byte	0x5
 1743 0010 1E       		.uleb128 0x1e
 1744 0011 170E0000 		.4byte	.LASF430
 1745 0015 00       		.byte	0
 1746              		.section	.debug_line,"",%progbits
 1747              	.Ldebug_line0:
 1748 0000 B4010000 		.section	.debug_str,"MS",%progbits,1
 1748      02007E01 
 1748      00000201 
 1748      FB0E0D00 
 1748      01010101 
 1749              	.LASF82:
 1750 0000 5F5F5349 		.ascii	"__SIG_ATOMIC_MAX__ 0x7fffffff\000"
 1750      475F4154 
 1750      4F4D4943 
 1750      5F4D4158 
 1750      5F5F2030 
 1751              	.LASF292:
 1752 001e 5F5F5441 		.ascii	"__TA_FBIT__ 63\000"
 1752      5F464249 
 1752      545F5F20 
 1752      363300
 1753              	.LASF178:
 1754 002d 5F5F4445 		.ascii	"__DEC64_SUBNORMAL_MIN__ 0.000000000000001E-383DD\000"
 1754      4336345F 
 1754      5355424E 
 1754      4F524D41 
 1754      4C5F4D49 
 1755              	.LASF143:
 1756 005e 5F5F4442 		.ascii	"__DBL_DECIMAL_DIG__ 17\000"
 1756      4C5F4445 
 1756      43494D41 
 1756      4C5F4449 
 1756      475F5F20 
 1757              	.LASF58:
 1758 0075 5F5F5549 		.ascii	"__UINT_FAST8_TYPE__ unsigned int\000"
 1758      4E545F46 
 1758      41535438 
 1758      5F545950 
 1758      455F5F20 
 1759              	.LASF126:
 1760 0096 5F5F464C 		.ascii	"__FLT_MIN_10_EXP__ (-37)\000"
 1760      545F4D49 
 1760      4E5F3130 
 1760      5F455850 
 1760      5F5F2028 
 1761              	.LASF414:
ARM GAS  C:\Users\STUDENT\AppData\Local\Temp\ccFRnYLD.s 			page 33


 1762 00af 5F564F49 		.ascii	"_VOID void\000"
 1762      4420766F 
 1762      696400
 1763              	.LASF177:
 1764 00ba 5F5F4445 		.ascii	"__DEC64_EPSILON__ 1E-15DD\000"
 1764      4336345F 
 1764      45505349 
 1764      4C4F4E5F 
 1764      5F203145 
 1765              	.LASF255:
 1766 00d4 5F5F554C 		.ascii	"__ULACCUM_EPSILON__ 0x1P-32ULK\000"
 1766      41434355 
 1766      4D5F4550 
 1766      53494C4F 
 1766      4E5F5F20 
 1767              	.LASF34:
 1768 00f3 5F5F5549 		.ascii	"__UINTMAX_TYPE__ long long unsigned int\000"
 1768      4E544D41 
 1768      585F5459 
 1768      50455F5F 
 1768      206C6F6E 
 1769              	.LASF363:
 1770 011b 5F57414E 		.ascii	"_WANT_REGISTER_FINI 1\000"
 1770      545F5245 
 1770      47495354 
 1770      45525F46 
 1770      494E4920 
 1771              	.LASF432:
 1772 0131 63686172 		.ascii	"char\000"
 1772      00
 1773              	.LASF101:
 1774 0136 5F5F5549 		.ascii	"__UINT8_C(c) c\000"
 1774      4E54385F 
 1774      43286329 
 1774      206300
 1775              	.LASF374:
 1776 0145 5F5F5359 		.ascii	"__SYS_CONFIG_H__ \000"
 1776      535F434F 
 1776      4E464947 
 1776      5F485F5F 
 1776      2000
 1777              	.LASF267:
 1778 0157 5F5F5151 		.ascii	"__QQ_IBIT__ 0\000"
 1778      5F494249 
 1778      545F5F20 
 1778      3000
 1779              	.LASF283:
 1780 0165 5F5F5544 		.ascii	"__UDQ_IBIT__ 0\000"
 1780      515F4942 
 1780      49545F5F 
 1780      203000
 1781              	.LASF439:
 1782 0174 5F5F4655 		.ascii	"__FUNCTION__\000"
 1782      4E435449 
 1782      4F4E5F5F 
 1782      00
 1783              	.LASF395:
ARM GAS  C:\Users\STUDENT\AppData\Local\Temp\ccFRnYLD.s 			page 34


 1784 0181 5F5F5853 		.ascii	"__XSI_VISIBLE 0\000"
 1784      495F5649 
 1784      5349424C 
 1784      45203000 
 1785              	.LASF139:
 1786 0191 5F5F4442 		.ascii	"__DBL_MIN_EXP__ (-1021)\000"
 1786      4C5F4D49 
 1786      4E5F4558 
 1786      505F5F20 
 1786      282D3130 
 1787              	.LASF65:
 1788 01a9 5F5F6861 		.ascii	"__has_include_next(STR) __has_include_next__(STR)\000"
 1788      735F696E 
 1788      636C7564 
 1788      655F6E65 
 1788      78742853 
 1789              	.LASF208:
 1790 01db 5F5F4C46 		.ascii	"__LFRACT_MIN__ (-0.5LR-0.5LR)\000"
 1790      52414354 
 1790      5F4D494E 
 1790      5F5F2028 
 1790      2D302E35 
 1791              	.LASF333:
 1792 01f9 5F5F4152 		.ascii	"__ARM_SIZEOF_WCHAR_T 4\000"
 1792      4D5F5349 
 1792      5A454F46 
 1792      5F574348 
 1792      41525F54 
 1793              	.LASF393:
 1794 0210 5F5F504F 		.ascii	"__POSIX_VISIBLE 200809\000"
 1794      5349585F 
 1794      56495349 
 1794      424C4520 
 1794      32303038 
 1795              	.LASF324:
 1796 0227 5F5F5349 		.ascii	"__SIZEOF_WINT_T__ 4\000"
 1796      5A454F46 
 1796      5F57494E 
 1796      545F545F 
 1796      5F203400 
 1797              	.LASF377:
 1798 023b 5F5F474E 		.ascii	"__GNUC_PREREQ(maj,min) ((__GNUC__ << 16) + __GNUC_M"
 1798      55435F50 
 1798      52455245 
 1798      51286D61 
 1798      6A2C6D69 
 1799 026e 494E4F52 		.ascii	"INOR__ >= ((maj) << 16) + (min))\000"
 1799      5F5F203E 
 1799      3D202828 
 1799      6D616A29 
 1799      203C3C20 
 1800              	.LASF144:
 1801 028f 5F5F4442 		.ascii	"__DBL_MAX__ ((double)1.7976931348623157e+308L)\000"
 1801      4C5F4D41 
 1801      585F5F20 
 1801      2828646F 
 1801      75626C65 
ARM GAS  C:\Users\STUDENT\AppData\Local\Temp\ccFRnYLD.s 			page 35


 1802              	.LASF383:
 1803 02be 5F504F53 		.ascii	"_POSIX_C_SOURCE\000"
 1803      49585F43 
 1803      5F534F55 
 1803      52434500 
 1804              	.LASF193:
 1805 02ce 5F5F5553 		.ascii	"__USFRACT_MIN__ 0.0UHR\000"
 1805      46524143 
 1805      545F4D49 
 1805      4E5F5F20 
 1805      302E3055 
 1806              	.LASF75:
 1807 02e5 5F5F5749 		.ascii	"__WINT_MIN__ 0U\000"
 1807      4E545F4D 
 1807      494E5F5F 
 1807      20305500 
 1808              	.LASF329:
 1809 02f5 5F5F4152 		.ascii	"__ARM_32BIT_STATE 1\000"
 1809      4D5F3332 
 1809      4249545F 
 1809      53544154 
 1809      45203100 
 1810              	.LASF3:
 1811 0309 5F5F474E 		.ascii	"__GNUC_MINOR__ 4\000"
 1811      55435F4D 
 1811      494E4F52 
 1811      5F5F2034 
 1811      00
 1812              	.LASF351:
 1813 031a 5F5F4152 		.ascii	"__ARM_ASM_SYNTAX_UNIFIED__ 1\000"
 1813      4D5F4153 
 1813      4D5F5359 
 1813      4E544158 
 1813      5F554E49 
 1814              	.LASF409:
 1815 0337 5F4E4F41 		.ascii	"_NOARGS void\000"
 1815      52475320 
 1815      766F6964 
 1815      00
 1816              	.LASF103:
 1817 0344 5F5F5549 		.ascii	"__UINT16_C(c) c\000"
 1817      4E543136 
 1817      5F432863 
 1817      29206300 
 1818              	.LASF381:
 1819 0354 5F504F53 		.ascii	"_POSIX_SOURCE\000"
 1819      49585F53 
 1819      4F555243 
 1819      4500
 1820              	.LASF20:
 1821 0362 5F5F5349 		.ascii	"__SIZEOF_SIZE_T__ 4\000"
 1821      5A454F46 
 1821      5F53495A 
 1821      455F545F 
 1821      5F203400 
 1822              	.LASF35:
 1823 0376 5F5F4348 		.ascii	"__CHAR16_TYPE__ short unsigned int\000"
ARM GAS  C:\Users\STUDENT\AppData\Local\Temp\ccFRnYLD.s 			page 36


 1823      41523136 
 1823      5F545950 
 1823      455F5F20 
 1823      73686F72 
 1824              	.LASF19:
 1825 0399 5F5F5349 		.ascii	"__SIZEOF_LONG_DOUBLE__ 8\000"
 1825      5A454F46 
 1825      5F4C4F4E 
 1825      475F444F 
 1825      55424C45 
 1826              	.LASF108:
 1827 03b2 5F5F494E 		.ascii	"__INT_FAST8_MAX__ 0x7fffffff\000"
 1827      545F4641 
 1827      5354385F 
 1827      4D41585F 
 1827      5F203078 
 1828              	.LASF24:
 1829 03cf 5F5F4F52 		.ascii	"__ORDER_BIG_ENDIAN__ 4321\000"
 1829      4445525F 
 1829      4249475F 
 1829      454E4449 
 1829      414E5F5F 
 1830              	.LASF224:
 1831 03e9 5F5F554C 		.ascii	"__ULLFRACT_MAX__ 0XFFFFFFFFFFFFFFFFP-64ULLR\000"
 1831      4C465241 
 1831      43545F4D 
 1831      41585F5F 
 1831      20305846 
 1832              	.LASF182:
 1833 0415 5F5F4445 		.ascii	"__DEC128_MIN__ 1E-6143DL\000"
 1833      43313238 
 1833      5F4D494E 
 1833      5F5F2031 
 1833      452D3631 
 1834              	.LASF300:
 1835 042e 5F5F5554 		.ascii	"__UTA_FBIT__ 64\000"
 1835      415F4642 
 1835      49545F5F 
 1835      20363400 
 1836              	.LASF137:
 1837 043e 5F5F4442 		.ascii	"__DBL_MANT_DIG__ 53\000"
 1837      4C5F4D41 
 1837      4E545F44 
 1837      49475F5F 
 1837      20353300 
 1838              	.LASF53:
 1839 0452 5F5F5549 		.ascii	"__UINT_LEAST64_TYPE__ long long unsigned int\000"
 1839      4E545F4C 
 1839      45415354 
 1839      36345F54 
 1839      5950455F 
 1840              	.LASF429:
 1841 047f 61737365 		.ascii	"assert(__e) ((__e) ? (void)0 : __assert_func (__FIL"
 1841      7274285F 
 1841      5F652920 
 1841      28285F5F 
 1841      6529203F 
ARM GAS  C:\Users\STUDENT\AppData\Local\Temp\ccFRnYLD.s 			page 37


 1842 04b2 455F5F2C 		.ascii	"E__, __LINE__, __ASSERT_FUNC, #__e))\000"
 1842      205F5F4C 
 1842      494E455F 
 1842      5F2C205F 
 1842      5F415353 
 1843              	.LASF69:
 1844 04d7 5F5F494E 		.ascii	"__INT_MAX__ 0x7fffffff\000"
 1844      545F4D41 
 1844      585F5F20 
 1844      30783766 
 1844      66666666 
 1845              	.LASF9:
 1846 04ee 5F5F4154 		.ascii	"__ATOMIC_RELEASE 3\000"
 1846      4F4D4943 
 1846      5F52454C 
 1846      45415345 
 1846      203300
 1847              	.LASF30:
 1848 0501 5F5F5054 		.ascii	"__PTRDIFF_TYPE__ int\000"
 1848      52444946 
 1848      465F5459 
 1848      50455F5F 
 1848      20696E74 
 1849              	.LASF364:
 1850 0516 5F4D425F 		.ascii	"_MB_LEN_MAX 1\000"
 1850      4C454E5F 
 1850      4D415820 
 1850      3100
 1851              	.LASF39:
 1852 0524 5F5F494E 		.ascii	"__INT16_TYPE__ short int\000"
 1852      5431365F 
 1852      54595045 
 1852      5F5F2073 
 1852      686F7274 
 1853              	.LASF170:
 1854 053d 5F5F4445 		.ascii	"__DEC32_EPSILON__ 1E-6DF\000"
 1854      4333325F 
 1854      45505349 
 1854      4C4F4E5F 
 1854      5F203145 
 1855              	.LASF152:
 1856 0556 5F5F4C44 		.ascii	"__LDBL_DIG__ 15\000"
 1856      424C5F44 
 1856      49475F5F 
 1856      20313500 
 1857              	.LASF14:
 1858 0566 5F5F5349 		.ascii	"__SIZEOF_LONG__ 4\000"
 1858      5A454F46 
 1858      5F4C4F4E 
 1858      475F5F20 
 1858      3400
 1859              	.LASF218:
 1860 0578 5F5F4C4C 		.ascii	"__LLFRACT_MIN__ (-0.5LLR-0.5LLR)\000"
 1860      46524143 
 1860      545F4D49 
 1860      4E5F5F20 
 1860      282D302E 
ARM GAS  C:\Users\STUDENT\AppData\Local\Temp\ccFRnYLD.s 			page 38


 1861              	.LASF257:
 1862 0599 5F5F4C4C 		.ascii	"__LLACCUM_IBIT__ 32\000"
 1862      41434355 
 1862      4D5F4942 
 1862      49545F5F 
 1862      20333200 
 1863              	.LASF7:
 1864 05ad 5F5F4154 		.ascii	"__ATOMIC_SEQ_CST 5\000"
 1864      4F4D4943 
 1864      5F534551 
 1864      5F435354 
 1864      203500
 1865              	.LASF95:
 1866 05c0 5F5F494E 		.ascii	"__INT16_C(c) c\000"
 1866      5431365F 
 1866      43286329 
 1866      206300
 1867              	.LASF405:
 1868 05cf 5F454E44 		.ascii	"_END_STD_C \000"
 1868      5F535444 
 1868      5F432000 
 1869              	.LASF16:
 1870 05db 5F5F5349 		.ascii	"__SIZEOF_SHORT__ 2\000"
 1870      5A454F46 
 1870      5F53484F 
 1870      52545F5F 
 1870      203200
 1871              	.LASF357:
 1872 05ee 5F4E4557 		.ascii	"_NEWLIB_VERSION_H__ 1\000"
 1872      4C49425F 
 1872      56455253 
 1872      494F4E5F 
 1872      485F5F20 
 1873              	.LASF92:
 1874 0604 5F5F494E 		.ascii	"__INT_LEAST8_MAX__ 0x7f\000"
 1874      545F4C45 
 1874      41535438 
 1874      5F4D4158 
 1874      5F5F2030 
 1875              	.LASF302:
 1876 061c 5F5F5245 		.ascii	"__REGISTER_PREFIX__ \000"
 1876      47495354 
 1876      45525F50 
 1876      52454649 
 1876      585F5F20 
 1877              	.LASF81:
 1878 0631 5F5F5549 		.ascii	"__UINTMAX_C(c) c ## ULL\000"
 1878      4E544D41 
 1878      585F4328 
 1878      63292063 
 1878      20232320 
 1879              	.LASF26:
 1880 0649 5F5F4259 		.ascii	"__BYTE_ORDER__ __ORDER_LITTLE_ENDIAN__\000"
 1880      54455F4F 
 1880      52444552 
 1880      5F5F205F 
 1880      5F4F5244 
ARM GAS  C:\Users\STUDENT\AppData\Local\Temp\ccFRnYLD.s 			page 39


 1881              	.LASF171:
 1882 0670 5F5F4445 		.ascii	"__DEC32_SUBNORMAL_MIN__ 0.000001E-95DF\000"
 1882      4333325F 
 1882      5355424E 
 1882      4F524D41 
 1882      4C5F4D49 
 1883              	.LASF148:
 1884 0697 5F5F4442 		.ascii	"__DBL_HAS_DENORM__ 1\000"
 1884      4C5F4841 
 1884      535F4445 
 1884      4E4F524D 
 1884      5F5F2031 
 1885              	.LASF207:
 1886 06ac 5F5F4C46 		.ascii	"__LFRACT_IBIT__ 0\000"
 1886      52414354 
 1886      5F494249 
 1886      545F5F20 
 1886      3000
 1887              	.LASF388:
 1888 06be 5F5F4253 		.ascii	"__BSD_VISIBLE 1\000"
 1888      445F5649 
 1888      5349424C 
 1888      45203100 
 1889              	.LASF401:
 1890 06ce 5F524541 		.ascii	"_READ_WRITE_RETURN_TYPE int\000"
 1890      445F5752 
 1890      4954455F 
 1890      52455455 
 1890      524E5F54 
 1891              	.LASF336:
 1892 06ea 5F5F4152 		.ascii	"__ARM_ARCH 7\000"
 1892      4D5F4152 
 1892      43482037 
 1892      00
 1893              	.LASF94:
 1894 06f7 5F5F494E 		.ascii	"__INT_LEAST16_MAX__ 0x7fff\000"
 1894      545F4C45 
 1894      41535431 
 1894      365F4D41 
 1894      585F5F20 
 1895              	.LASF438:
 1896 0712 76417070 		.ascii	"vApplicationIdleHook\000"
 1896      6C696361 
 1896      74696F6E 
 1896      49646C65 
 1896      486F6F6B 
 1897              	.LASF67:
 1898 0727 5F5F5343 		.ascii	"__SCHAR_MAX__ 0x7f\000"
 1898      4841525F 
 1898      4D41585F 
 1898      5F203078 
 1898      376600
 1899              	.LASF262:
 1900 073a 5F5F554C 		.ascii	"__ULLACCUM_IBIT__ 32\000"
 1900      4C414343 
 1900      554D5F49 
 1900      4249545F 
ARM GAS  C:\Users\STUDENT\AppData\Local\Temp\ccFRnYLD.s 			page 40


 1900      5F203332 
 1901              	.LASF185:
 1902 074f 5F5F4445 		.ascii	"__DEC128_SUBNORMAL_MIN__ 0.000000000000000000000000"
 1902      43313238 
 1902      5F535542 
 1902      4E4F524D 
 1902      414C5F4D 
 1903 0782 30303030 		.ascii	"000000001E-6143DL\000"
 1903      30303030 
 1903      31452D36 
 1903      31343344 
 1903      4C00
 1904              	.LASF222:
 1905 0794 5F5F554C 		.ascii	"__ULLFRACT_IBIT__ 0\000"
 1905      4C465241 
 1905      43545F49 
 1905      4249545F 
 1905      5F203000 
 1906              	.LASF365:
 1907 07a8 48415645 		.ascii	"HAVE_INITFINI_ARRAY 1\000"
 1907      5F494E49 
 1907      5446494E 
 1907      495F4152 
 1907      52415920 
 1908              	.LASF6:
 1909 07be 5F5F4154 		.ascii	"__ATOMIC_RELAXED 0\000"
 1909      4F4D4943 
 1909      5F52454C 
 1909      41584544 
 1909      203000
 1910              	.LASF48:
 1911 07d1 5F5F494E 		.ascii	"__INT_LEAST32_TYPE__ long int\000"
 1911      545F4C45 
 1911      41535433 
 1911      325F5459 
 1911      50455F5F 
 1912              	.LASF77:
 1913 07ef 5F5F5349 		.ascii	"__SIZE_MAX__ 0xffffffffU\000"
 1913      5A455F4D 
 1913      41585F5F 
 1913      20307866 
 1913      66666666 
 1914              	.LASF248:
 1915 0808 5F5F4C41 		.ascii	"__LACCUM_MIN__ (-0X1P31LK-0X1P31LK)\000"
 1915      4343554D 
 1915      5F4D494E 
 1915      5F5F2028 
 1915      2D305831 
 1916              	.LASF264:
 1917 082c 5F5F554C 		.ascii	"__ULLACCUM_MAX__ 0XFFFFFFFFFFFFFFFFP-32ULLK\000"
 1917      4C414343 
 1917      554D5F4D 
 1917      41585F5F 
 1917      20305846 
 1918              	.LASF253:
 1919 0858 5F5F554C 		.ascii	"__ULACCUM_MIN__ 0.0ULK\000"
 1919      41434355 
ARM GAS  C:\Users\STUDENT\AppData\Local\Temp\ccFRnYLD.s 			page 41


 1919      4D5F4D49 
 1919      4E5F5F20 
 1919      302E3055 
 1920              	.LASF135:
 1921 086f 5F5F464C 		.ascii	"__FLT_HAS_INFINITY__ 1\000"
 1921      545F4841 
 1921      535F494E 
 1921      46494E49 
 1921      54595F5F 
 1922              	.LASF385:
 1923 0886 5F415446 		.ascii	"_ATFILE_SOURCE\000"
 1923      494C455F 
 1923      534F5552 
 1923      434500
 1924              	.LASF360:
 1925 0895 5F5F4E45 		.ascii	"__NEWLIB_MINOR__ 4\000"
 1925      574C4942 
 1925      5F4D494E 
 1925      4F525F5F 
 1925      203400
 1926              	.LASF341:
 1927 08a8 5F5F4152 		.ascii	"__ARMEL__ 1\000"
 1927      4D454C5F 
 1927      5F203100 
 1928              	.LASF299:
 1929 08b4 5F5F5544 		.ascii	"__UDA_IBIT__ 32\000"
 1929      415F4942 
 1929      49545F5F 
 1929      20333200 
 1930              	.LASF57:
 1931 08c4 5F5F494E 		.ascii	"__INT_FAST64_TYPE__ long long int\000"
 1931      545F4641 
 1931      53543634 
 1931      5F545950 
 1931      455F5F20 
 1932              	.LASF428:
 1933 08e6 61737365 		.ascii	"assert\000"
 1933      727400
 1934              	.LASF93:
 1935 08ed 5F5F494E 		.ascii	"__INT8_C(c) c\000"
 1935      54385F43 
 1935      28632920 
 1935      6300
 1936              	.LASF339:
 1937 08fb 5F5F7468 		.ascii	"__thumb2__ 1\000"
 1937      756D6232 
 1937      5F5F2031 
 1937      00
 1938              	.LASF386:
 1939 0908 5F415446 		.ascii	"_ATFILE_SOURCE 1\000"
 1939      494C455F 
 1939      534F5552 
 1939      43452031 
 1939      00
 1940              	.LASF263:
 1941 0919 5F5F554C 		.ascii	"__ULLACCUM_MIN__ 0.0ULLK\000"
 1941      4C414343 
ARM GAS  C:\Users\STUDENT\AppData\Local\Temp\ccFRnYLD.s 			page 42


 1941      554D5F4D 
 1941      494E5F5F 
 1941      20302E30 
 1942              	.LASF63:
 1943 0932 5F5F5549 		.ascii	"__UINTPTR_TYPE__ unsigned int\000"
 1943      4E545054 
 1943      525F5459 
 1943      50455F5F 
 1943      20756E73 
 1944              	.LASF307:
 1945 0950 5F5F4743 		.ascii	"__GCC_HAVE_SYNC_COMPARE_AND_SWAP_1 1\000"
 1945      435F4841 
 1945      56455F53 
 1945      594E435F 
 1945      434F4D50 
 1946              	.LASF289:
 1947 0975 5F5F5341 		.ascii	"__SA_IBIT__ 16\000"
 1947      5F494249 
 1947      545F5F20 
 1947      313600
 1948              	.LASF219:
 1949 0984 5F5F4C4C 		.ascii	"__LLFRACT_MAX__ 0X7FFFFFFFFFFFFFFFP-63LLR\000"
 1949      46524143 
 1949      545F4D41 
 1949      585F5F20 
 1949      30583746 
 1950              	.LASF111:
 1951 09ae 5F5F494E 		.ascii	"__INT_FAST64_MAX__ 0x7fffffffffffffffLL\000"
 1951      545F4641 
 1951      53543634 
 1951      5F4D4158 
 1951      5F5F2030 
 1952              	.LASF124:
 1953 09d6 5F5F464C 		.ascii	"__FLT_DIG__ 6\000"
 1953      545F4449 
 1953      475F5F20 
 1953      3600
 1954              	.LASF146:
 1955 09e4 5F5F4442 		.ascii	"__DBL_EPSILON__ ((double)2.2204460492503131e-16L)\000"
 1955      4C5F4550 
 1955      53494C4F 
 1955      4E5F5F20 
 1955      2828646F 
 1956              	.LASF308:
 1957 0a16 5F5F4743 		.ascii	"__GCC_HAVE_SYNC_COMPARE_AND_SWAP_2 1\000"
 1957      435F4841 
 1957      56455F53 
 1957      594E435F 
 1957      434F4D50 
 1958              	.LASF290:
 1959 0a3b 5F5F4441 		.ascii	"__DA_FBIT__ 31\000"
 1959      5F464249 
 1959      545F5F20 
 1959      333100
 1960              	.LASF332:
 1961 0a4a 5F5F4152 		.ascii	"__ARM_SIZEOF_MINIMAL_ENUM 1\000"
 1961      4D5F5349 
ARM GAS  C:\Users\STUDENT\AppData\Local\Temp\ccFRnYLD.s 			page 43


 1961      5A454F46 
 1961      5F4D494E 
 1961      494D414C 
 1962              	.LASF354:
 1963 0a66 5F5F5553 		.ascii	"__USES_INITFINI__ 1\000"
 1963      45535F49 
 1963      4E495446 
 1963      494E495F 
 1963      5F203100 
 1964              	.LASF168:
 1965 0a7a 5F5F4445 		.ascii	"__DEC32_MIN__ 1E-95DF\000"
 1965      4333325F 
 1965      4D494E5F 
 1965      5F203145 
 1965      2D393544 
 1966              	.LASF235:
 1967 0a90 5F5F5553 		.ascii	"__USACCUM_EPSILON__ 0x1P-8UHK\000"
 1967      41434355 
 1967      4D5F4550 
 1967      53494C4F 
 1967      4E5F5F20 
 1968              	.LASF76:
 1969 0aae 5F5F5054 		.ascii	"__PTRDIFF_MAX__ 0x7fffffff\000"
 1969      52444946 
 1969      465F4D41 
 1969      585F5F20 
 1969      30783766 
 1970              	.LASF254:
 1971 0ac9 5F5F554C 		.ascii	"__ULACCUM_MAX__ 0XFFFFFFFFFFFFFFFFP-32ULK\000"
 1971      41434355 
 1971      4D5F4D41 
 1971      585F5F20 
 1971      30584646 
 1972              	.LASF204:
 1973 0af3 5F5F5546 		.ascii	"__UFRACT_MAX__ 0XFFFFP-16UR\000"
 1973      52414354 
 1973      5F4D4158 
 1973      5F5F2030 
 1973      58464646 
 1974              	.LASF189:
 1975 0b0f 5F5F5346 		.ascii	"__SFRACT_MAX__ 0X7FP-7HR\000"
 1975      52414354 
 1975      5F4D4158 
 1975      5F5F2030 
 1975      58374650 
 1976              	.LASF348:
 1977 0b28 5F5F4152 		.ascii	"__ARM_EABI__ 1\000"
 1977      4D5F4541 
 1977      42495F5F 
 1977      203100
 1978              	.LASF376:
 1979 0b37 5F535953 		.ascii	"_SYS_FEATURES_H \000"
 1979      5F464541 
 1979      54555245 
 1979      535F4820 
 1979      00
 1980              	.LASF100:
ARM GAS  C:\Users\STUDENT\AppData\Local\Temp\ccFRnYLD.s 			page 44


 1981 0b48 5F5F5549 		.ascii	"__UINT_LEAST8_MAX__ 0xff\000"
 1981      4E545F4C 
 1981      45415354 
 1981      385F4D41 
 1981      585F5F20 
 1982              	.LASF87:
 1983 0b61 5F5F494E 		.ascii	"__INT64_MAX__ 0x7fffffffffffffffLL\000"
 1983      5436345F 
 1983      4D41585F 
 1983      5F203078 
 1983      37666666 
 1984              	.LASF84:
 1985 0b84 5F5F494E 		.ascii	"__INT8_MAX__ 0x7f\000"
 1985      54385F4D 
 1985      41585F5F 
 1985      20307837 
 1985      6600
 1986              	.LASF215:
 1987 0b96 5F5F554C 		.ascii	"__ULFRACT_EPSILON__ 0x1P-32ULR\000"
 1987      46524143 
 1987      545F4550 
 1987      53494C4F 
 1987      4E5F5F20 
 1988              	.LASF372:
 1989 0bb5 5F574944 		.ascii	"_WIDE_ORIENT 1\000"
 1989      455F4F52 
 1989      49454E54 
 1989      203100
 1990              	.LASF212:
 1991 0bc4 5F5F554C 		.ascii	"__ULFRACT_IBIT__ 0\000"
 1991      46524143 
 1991      545F4942 
 1991      49545F5F 
 1991      203000
 1992              	.LASF285:
 1993 0bd7 5F5F5554 		.ascii	"__UTQ_IBIT__ 0\000"
 1993      515F4942 
 1993      49545F5F 
 1993      203000
 1994              	.LASF359:
 1995 0be6 5F5F4E45 		.ascii	"__NEWLIB__ 2\000"
 1995      574C4942 
 1995      5F5F2032 
 1995      00
 1996              	.LASF106:
 1997 0bf3 5F5F5549 		.ascii	"__UINT_LEAST64_MAX__ 0xffffffffffffffffULL\000"
 1997      4E545F4C 
 1997      45415354 
 1997      36345F4D 
 1997      41585F5F 
 1998              	.LASF122:
 1999 0c1e 5F5F464C 		.ascii	"__FLT_RADIX__ 2\000"
 1999      545F5241 
 1999      4449585F 
 1999      5F203200 
 2000              	.LASF223:
 2001 0c2e 5F5F554C 		.ascii	"__ULLFRACT_MIN__ 0.0ULLR\000"
ARM GAS  C:\Users\STUDENT\AppData\Local\Temp\ccFRnYLD.s 			page 45


 2001      4C465241 
 2001      43545F4D 
 2001      494E5F5F 
 2001      20302E30 
 2002              	.LASF355:
 2003 0c47 5F414E53 		.ascii	"_ANSIDECL_H_ \000"
 2003      49444543 
 2003      4C5F485F 
 2003      2000
 2004              	.LASF349:
 2005 0c55 5F5F4152 		.ascii	"__ARM_ARCH_EXT_IDIV__ 1\000"
 2005      4D5F4152 
 2005      43485F45 
 2005      58545F49 
 2005      4449565F 
 2006              	.LASF210:
 2007 0c6d 5F5F4C46 		.ascii	"__LFRACT_EPSILON__ 0x1P-31LR\000"
 2007      52414354 
 2007      5F455053 
 2007      494C4F4E 
 2007      5F5F2030 
 2008              	.LASF54:
 2009 0c8a 5F5F494E 		.ascii	"__INT_FAST8_TYPE__ int\000"
 2009      545F4641 
 2009      5354385F 
 2009      54595045 
 2009      5F5F2069 
 2010              	.LASF358:
 2011 0ca1 5F4E4557 		.ascii	"_NEWLIB_VERSION \"2.4.0\"\000"
 2011      4C49425F 
 2011      56455253 
 2011      494F4E20 
 2011      22322E34 
 2012              	.LASF59:
 2013 0cb9 5F5F5549 		.ascii	"__UINT_FAST16_TYPE__ unsigned int\000"
 2013      4E545F46 
 2013      41535431 
 2013      365F5459 
 2013      50455F5F 
 2014              	.LASF226:
 2015 0cdb 5F5F5341 		.ascii	"__SACCUM_FBIT__ 7\000"
 2015      4343554D 
 2015      5F464249 
 2015      545F5F20 
 2015      3700
 2016              	.LASF334:
 2017 0ced 5F5F4152 		.ascii	"__ARM_ARCH_PROFILE 77\000"
 2017      4D5F4152 
 2017      43485F50 
 2017      524F4649 
 2017      4C452037 
 2018              	.LASF176:
 2019 0d03 5F5F4445 		.ascii	"__DEC64_MAX__ 9.999999999999999E384DD\000"
 2019      4336345F 
 2019      4D41585F 
 2019      5F20392E 
 2019      39393939 
ARM GAS  C:\Users\STUDENT\AppData\Local\Temp\ccFRnYLD.s 			page 46


 2020              	.LASF198:
 2021 0d29 5F5F4652 		.ascii	"__FRACT_MIN__ (-0.5R-0.5R)\000"
 2021      4143545F 
 2021      4D494E5F 
 2021      5F20282D 
 2021      302E3552 
 2022              	.LASF316:
 2023 0d44 5F5F4743 		.ascii	"__GCC_ATOMIC_INT_LOCK_FREE 2\000"
 2023      435F4154 
 2023      4F4D4943 
 2023      5F494E54 
 2023      5F4C4F43 
 2024              	.LASF78:
 2025 0d61 5F5F494E 		.ascii	"__INTMAX_MAX__ 0x7fffffffffffffffLL\000"
 2025      544D4158 
 2025      5F4D4158 
 2025      5F5F2030 
 2025      78376666 
 2026              	.LASF245:
 2027 0d85 5F5F5541 		.ascii	"__UACCUM_EPSILON__ 0x1P-16UK\000"
 2027      4343554D 
 2027      5F455053 
 2027      494C4F4E 
 2027      5F5F2030 
 2028              	.LASF237:
 2029 0da2 5F5F4143 		.ascii	"__ACCUM_IBIT__ 16\000"
 2029      43554D5F 
 2029      49424954 
 2029      5F5F2031 
 2029      3600
 2030              	.LASF161:
 2031 0db4 5F5F4C44 		.ascii	"__LDBL_DENORM_MIN__ 4.9406564584124654e-324L\000"
 2031      424C5F44 
 2031      454E4F52 
 2031      4D5F4D49 
 2031      4E5F5F20 
 2032              	.LASF410:
 2033 0de1 5F434F4E 		.ascii	"_CONST const\000"
 2033      53542063 
 2033      6F6E7374 
 2033      00
 2034              	.LASF227:
 2035 0dee 5F5F5341 		.ascii	"__SACCUM_IBIT__ 8\000"
 2035      4343554D 
 2035      5F494249 
 2035      545F5F20 
 2035      3800
 2036              	.LASF325:
 2037 0e00 5F5F5349 		.ascii	"__SIZEOF_PTRDIFF_T__ 4\000"
 2037      5A454F46 
 2037      5F505452 
 2037      44494646 
 2037      5F545F5F 
 2038              	.LASF430:
 2039 0e17 5F5F4153 		.ascii	"__ASSERT_FUNC __FUNCTION__\000"
 2039      53455254 
 2039      5F46554E 
ARM GAS  C:\Users\STUDENT\AppData\Local\Temp\ccFRnYLD.s 			page 47


 2039      43205F5F 
 2039      46554E43 
 2040              	.LASF188:
 2041 0e32 5F5F5346 		.ascii	"__SFRACT_MIN__ (-0.5HR-0.5HR)\000"
 2041      52414354 
 2041      5F4D494E 
 2041      5F5F2028 
 2041      2D302E35 
 2042              	.LASF297:
 2043 0e50 5F5F5553 		.ascii	"__USA_IBIT__ 16\000"
 2043      415F4942 
 2043      49545F5F 
 2043      20313600 
 2044              	.LASF217:
 2045 0e60 5F5F4C4C 		.ascii	"__LLFRACT_IBIT__ 0\000"
 2045      46524143 
 2045      545F4942 
 2045      49545F5F 
 2045      203000
 2046              	.LASF136:
 2047 0e73 5F5F464C 		.ascii	"__FLT_HAS_QUIET_NAN__ 1\000"
 2047      545F4841 
 2047      535F5155 
 2047      4945545F 
 2047      4E414E5F 
 2048              	.LASF328:
 2049 0e8b 5F5F4152 		.ascii	"__ARM_FEATURE_UNALIGNED 1\000"
 2049      4D5F4645 
 2049      41545552 
 2049      455F554E 
 2049      414C4947 
 2050              	.LASF384:
 2051 0ea5 5F504F53 		.ascii	"_POSIX_C_SOURCE 200809L\000"
 2051      49585F43 
 2051      5F534F55 
 2051      52434520 
 2051      32303038 
 2052              	.LASF17:
 2053 0ebd 5F5F5349 		.ascii	"__SIZEOF_FLOAT__ 4\000"
 2053      5A454F46 
 2053      5F464C4F 
 2053      41545F5F 
 2053      203400
 2054              	.LASF234:
 2055 0ed0 5F5F5553 		.ascii	"__USACCUM_MAX__ 0XFFFFP-8UHK\000"
 2055      41434355 
 2055      4D5F4D41 
 2055      585F5F20 
 2055      30584646 
 2056              	.LASF105:
 2057 0eed 5F5F5549 		.ascii	"__UINT32_C(c) c ## UL\000"
 2057      4E543332 
 2057      5F432863 
 2057      29206320 
 2057      23232055 
 2058              	.LASF298:
 2059 0f03 5F5F5544 		.ascii	"__UDA_FBIT__ 32\000"
ARM GAS  C:\Users\STUDENT\AppData\Local\Temp\ccFRnYLD.s 			page 48


 2059      415F4642 
 2059      49545F5F 
 2059      20333200 
 2060              	.LASF2:
 2061 0f13 5F5F474E 		.ascii	"__GNUC__ 5\000"
 2061      55435F5F 
 2061      203500
 2062              	.LASF342:
 2063 0f1e 5F5F5448 		.ascii	"__THUMBEL__ 1\000"
 2063      554D4245 
 2063      4C5F5F20 
 2063      3100
 2064              	.LASF291:
 2065 0f2c 5F5F4441 		.ascii	"__DA_IBIT__ 32\000"
 2065      5F494249 
 2065      545F5F20 
 2065      333200
 2066              	.LASF22:
 2067 0f3b 5F5F4249 		.ascii	"__BIGGEST_ALIGNMENT__ 8\000"
 2067      47474553 
 2067      545F414C 
 2067      49474E4D 
 2067      454E545F 
 2068              	.LASF247:
 2069 0f53 5F5F4C41 		.ascii	"__LACCUM_IBIT__ 32\000"
 2069      4343554D 
 2069      5F494249 
 2069      545F5F20 
 2069      333200
 2070              	.LASF194:
 2071 0f66 5F5F5553 		.ascii	"__USFRACT_MAX__ 0XFFP-8UHR\000"
 2071      46524143 
 2071      545F4D41 
 2071      585F5F20 
 2071      30584646 
 2072              	.LASF112:
 2073 0f81 5F5F5549 		.ascii	"__UINT_FAST8_MAX__ 0xffffffffU\000"
 2073      4E545F46 
 2073      41535438 
 2073      5F4D4158 
 2073      5F5F2030 
 2074              	.LASF23:
 2075 0fa0 5F5F4F52 		.ascii	"__ORDER_LITTLE_ENDIAN__ 1234\000"
 2075      4445525F 
 2075      4C495454 
 2075      4C455F45 
 2075      4E444941 
 2076              	.LASF258:
 2077 0fbd 5F5F4C4C 		.ascii	"__LLACCUM_MIN__ (-0X1P31LLK-0X1P31LLK)\000"
 2077      41434355 
 2077      4D5F4D49 
 2077      4E5F5F20 
 2077      282D3058 
 2078              	.LASF407:
 2079 0fe4 5F505452 		.ascii	"_PTR void *\000"
 2079      20766F69 
 2079      64202A00 
ARM GAS  C:\Users\STUDENT\AppData\Local\Temp\ccFRnYLD.s 			page 49


 2080              	.LASF288:
 2081 0ff0 5F5F5341 		.ascii	"__SA_FBIT__ 15\000"
 2081      5F464249 
 2081      545F5F20 
 2081      313500
 2082              	.LASF66:
 2083 0fff 5F5F4758 		.ascii	"__GXX_ABI_VERSION 1009\000"
 2083      585F4142 
 2083      495F5645 
 2083      5253494F 
 2083      4E203130 
 2084              	.LASF380:
 2085 1016 5F444546 		.ascii	"_DEFAULT_SOURCE 1\000"
 2085      41554C54 
 2085      5F534F55 
 2085      52434520 
 2085      3100
 2086              	.LASF230:
 2087 1028 5F5F5341 		.ascii	"__SACCUM_EPSILON__ 0x1P-7HK\000"
 2087      4343554D 
 2087      5F455053 
 2087      494C4F4E 
 2087      5F5F2030 
 2088              	.LASF434:
 2089 1044 76417070 		.ascii	"vApplicationMallocFailedHook\000"
 2089      6C696361 
 2089      74696F6E 
 2089      4D616C6C 
 2089      6F634661 
 2090              	.LASF55:
 2091 1061 5F5F494E 		.ascii	"__INT_FAST16_TYPE__ int\000"
 2091      545F4641 
 2091      53543136 
 2091      5F545950 
 2091      455F5F20 
 2092              	.LASF389:
 2093 1079 5F5F474E 		.ascii	"__GNU_VISIBLE 0\000"
 2093      555F5649 
 2093      5349424C 
 2093      45203000 
 2094              	.LASF43:
 2095 1089 5F5F5549 		.ascii	"__UINT16_TYPE__ short unsigned int\000"
 2095      4E543136 
 2095      5F545950 
 2095      455F5F20 
 2095      73686F72 
 2096              	.LASF311:
 2097 10ac 5F5F4743 		.ascii	"__GCC_ATOMIC_CHAR_LOCK_FREE 2\000"
 2097      435F4154 
 2097      4F4D4943 
 2097      5F434841 
 2097      525F4C4F 
 2098              	.LASF279:
 2099 10ca 5F5F5548 		.ascii	"__UHQ_IBIT__ 0\000"
 2099      515F4942 
 2099      49545F5F 
 2099      203000
ARM GAS  C:\Users\STUDENT\AppData\Local\Temp\ccFRnYLD.s 			page 50


 2100              	.LASF201:
 2101 10d9 5F5F5546 		.ascii	"__UFRACT_FBIT__ 16\000"
 2101      52414354 
 2101      5F464249 
 2101      545F5F20 
 2101      313600
 2102              	.LASF331:
 2103 10ec 5F5F4152 		.ascii	"__ARM_FEATURE_CLZ 1\000"
 2103      4D5F4645 
 2103      41545552 
 2103      455F434C 
 2103      5A203100 
 2104              	.LASF71:
 2105 1100 5F5F4C4F 		.ascii	"__LONG_LONG_MAX__ 0x7fffffffffffffffLL\000"
 2105      4E475F4C 
 2105      4F4E475F 
 2105      4D41585F 
 2105      5F203078 
 2106              	.LASF51:
 2107 1127 5F5F5549 		.ascii	"__UINT_LEAST16_TYPE__ short unsigned int\000"
 2107      4E545F4C 
 2107      45415354 
 2107      31365F54 
 2107      5950455F 
 2108              	.LASF128:
 2109 1150 5F5F464C 		.ascii	"__FLT_MAX_10_EXP__ 38\000"
 2109      545F4D41 
 2109      585F3130 
 2109      5F455850 
 2109      5F5F2033 
 2110              	.LASF259:
 2111 1166 5F5F4C4C 		.ascii	"__LLACCUM_MAX__ 0X7FFFFFFFFFFFFFFFP-31LLK\000"
 2111      41434355 
 2111      4D5F4D41 
 2111      585F5F20 
 2111      30583746 
 2112              	.LASF260:
 2113 1190 5F5F4C4C 		.ascii	"__LLACCUM_EPSILON__ 0x1P-31LLK\000"
 2113      41434355 
 2113      4D5F4550 
 2113      53494C4F 
 2113      4E5F5F20 
 2114              	.LASF305:
 2115 11af 5F5F4E4F 		.ascii	"__NO_INLINE__ 1\000"
 2115      5F494E4C 
 2115      494E455F 
 2115      5F203100 
 2116              	.LASF180:
 2117 11bf 5F5F4445 		.ascii	"__DEC128_MIN_EXP__ (-6142)\000"
 2117      43313238 
 2117      5F4D494E 
 2117      5F455850 
 2117      5F5F2028 
 2118              	.LASF5:
 2119 11da 5F5F5645 		.ascii	"__VERSION__ \"5.4.1 20160919 (release) [ARM/embedde"
 2119      5253494F 
 2119      4E5F5F20 
ARM GAS  C:\Users\STUDENT\AppData\Local\Temp\ccFRnYLD.s 			page 51


 2119      22352E34 
 2119      2E312032 
 2120 120c 642D352D 		.ascii	"d-5-branch revision 240496]\"\000"
 2120      6272616E 
 2120      63682072 
 2120      65766973 
 2120      696F6E20 
 2121              	.LASF213:
 2122 1229 5F5F554C 		.ascii	"__ULFRACT_MIN__ 0.0ULR\000"
 2122      46524143 
 2122      545F4D49 
 2122      4E5F5F20 
 2122      302E3055 
 2123              	.LASF123:
 2124 1240 5F5F464C 		.ascii	"__FLT_MANT_DIG__ 24\000"
 2124      545F4D41 
 2124      4E545F44 
 2124      49475F5F 
 2124      20323400 
 2125              	.LASF281:
 2126 1254 5F5F5553 		.ascii	"__USQ_IBIT__ 0\000"
 2126      515F4942 
 2126      49545F5F 
 2126      203000
 2127              	.LASF309:
 2128 1263 5F5F4743 		.ascii	"__GCC_HAVE_SYNC_COMPARE_AND_SWAP_4 1\000"
 2128      435F4841 
 2128      56455F53 
 2128      594E435F 
 2128      434F4D50 
 2129              	.LASF411:
 2130 1288 5F564F4C 		.ascii	"_VOLATILE volatile\000"
 2130      4154494C 
 2130      4520766F 
 2130      6C617469 
 2130      6C6500
 2131              	.LASF150:
 2132 129b 5F5F4442 		.ascii	"__DBL_HAS_QUIET_NAN__ 1\000"
 2132      4C5F4841 
 2132      535F5155 
 2132      4945545F 
 2132      4E414E5F 
 2133              	.LASF242:
 2134 12b3 5F5F5541 		.ascii	"__UACCUM_IBIT__ 16\000"
 2134      4343554D 
 2134      5F494249 
 2134      545F5F20 
 2134      313600
 2135              	.LASF113:
 2136 12c6 5F5F5549 		.ascii	"__UINT_FAST16_MAX__ 0xffffffffU\000"
 2136      4E545F46 
 2136      41535431 
 2136      365F4D41 
 2136      585F5F20 
 2137              	.LASF140:
 2138 12e6 5F5F4442 		.ascii	"__DBL_MIN_10_EXP__ (-307)\000"
 2138      4C5F4D49 
ARM GAS  C:\Users\STUDENT\AppData\Local\Temp\ccFRnYLD.s 			page 52


 2138      4E5F3130 
 2138      5F455850 
 2138      5F5F2028 
 2139              	.LASF232:
 2140 1300 5F5F5553 		.ascii	"__USACCUM_IBIT__ 8\000"
 2140      41434355 
 2140      4D5F4942 
 2140      49545F5F 
 2140      203800
 2141              	.LASF361:
 2142 1313 5F5F4E45 		.ascii	"__NEWLIB_PATCHLEVEL__ 0\000"
 2142      574C4942 
 2142      5F504154 
 2142      43484C45 
 2142      56454C5F 
 2143              	.LASF345:
 2144 132b 5F5F5448 		.ascii	"__THUMB_INTERWORK__ 1\000"
 2144      554D425F 
 2144      494E5445 
 2144      52574F52 
 2144      4B5F5F20 
 2145              	.LASF196:
 2146 1341 5F5F4652 		.ascii	"__FRACT_FBIT__ 15\000"
 2146      4143545F 
 2146      46424954 
 2146      5F5F2031 
 2146      3500
 2147              	.LASF120:
 2148 1353 5F5F464C 		.ascii	"__FLT_EVAL_METHOD__ 0\000"
 2148      545F4556 
 2148      414C5F4D 
 2148      4554484F 
 2148      445F5F20 
 2149              	.LASF369:
 2150 1369 5F4C4442 		.ascii	"_LDBL_EQ_DBL 1\000"
 2150      4C5F4551 
 2150      5F44424C 
 2150      203100
 2151              	.LASF98:
 2152 1378 5F5F494E 		.ascii	"__INT_LEAST64_MAX__ 0x7fffffffffffffffLL\000"
 2152      545F4C45 
 2152      41535436 
 2152      345F4D41 
 2152      585F5F20 
 2153              	.LASF366:
 2154 13a1 5F415445 		.ascii	"_ATEXIT_DYNAMIC_ALLOC 1\000"
 2154      5849545F 
 2154      44594E41 
 2154      4D49435F 
 2154      414C4C4F 
 2155              	.LASF236:
 2156 13b9 5F5F4143 		.ascii	"__ACCUM_FBIT__ 15\000"
 2156      43554D5F 
 2156      46424954 
 2156      5F5F2031 
 2156      3500
 2157              	.LASF314:
ARM GAS  C:\Users\STUDENT\AppData\Local\Temp\ccFRnYLD.s 			page 53


 2158 13cb 5F5F4743 		.ascii	"__GCC_ATOMIC_WCHAR_T_LOCK_FREE 2\000"
 2158      435F4154 
 2158      4F4D4943 
 2158      5F574348 
 2158      41525F54 
 2159              	.LASF252:
 2160 13ec 5F5F554C 		.ascii	"__ULACCUM_IBIT__ 32\000"
 2160      41434355 
 2160      4D5F4942 
 2160      49545F5F 
 2160      20333200 
 2161              	.LASF216:
 2162 1400 5F5F4C4C 		.ascii	"__LLFRACT_FBIT__ 63\000"
 2162      46524143 
 2162      545F4642 
 2162      49545F5F 
 2162      20363300 
 2163              	.LASF243:
 2164 1414 5F5F5541 		.ascii	"__UACCUM_MIN__ 0.0UK\000"
 2164      4343554D 
 2164      5F4D494E 
 2164      5F5F2030 
 2164      2E30554B 
 2165              	.LASF296:
 2166 1429 5F5F5553 		.ascii	"__USA_FBIT__ 16\000"
 2166      415F4642 
 2166      49545F5F 
 2166      20313600 
 2167              	.LASF88:
 2168 1439 5F5F5549 		.ascii	"__UINT8_MAX__ 0xff\000"
 2168      4E54385F 
 2168      4D41585F 
 2168      5F203078 
 2168      666600
 2169              	.LASF422:
 2170 144c 5F4C4F4E 		.ascii	"_LONG_DOUBLE long double\000"
 2170      475F444F 
 2170      55424C45 
 2170      206C6F6E 
 2170      6720646F 
 2171              	.LASF89:
 2172 1465 5F5F5549 		.ascii	"__UINT16_MAX__ 0xffff\000"
 2172      4E543136 
 2172      5F4D4158 
 2172      5F5F2030 
 2172      78666666 
 2173              	.LASF408:
 2174 147b 5F414E44 		.ascii	"_AND ,\000"
 2174      202C00
 2175              	.LASF367:
 2176 1482 5F484156 		.ascii	"_HAVE_LONG_DOUBLE 1\000"
 2176      455F4C4F 
 2176      4E475F44 
 2176      4F55424C 
 2176      45203100 
 2177              	.LASF426:
 2178 1496 5F4E4F49 		.ascii	"_NOINLINE __attribute__ ((__noinline__))\000"
ARM GAS  C:\Users\STUDENT\AppData\Local\Temp\ccFRnYLD.s 			page 54


 2178      4E4C494E 
 2178      45205F5F 
 2178      61747472 
 2178      69627574 
 2179              	.LASF169:
 2180 14bf 5F5F4445 		.ascii	"__DEC32_MAX__ 9.999999E96DF\000"
 2180      4333325F 
 2180      4D41585F 
 2180      5F20392E 
 2180      39393939 
 2181              	.LASF118:
 2182 14db 5F5F4743 		.ascii	"__GCC_IEC_559 0\000"
 2182      435F4945 
 2182      435F3535 
 2182      39203000 
 2183              	.LASF47:
 2184 14eb 5F5F494E 		.ascii	"__INT_LEAST16_TYPE__ short int\000"
 2184      545F4C45 
 2184      41535431 
 2184      365F5459 
 2184      50455F5F 
 2185              	.LASF206:
 2186 150a 5F5F4C46 		.ascii	"__LFRACT_FBIT__ 31\000"
 2186      52414354 
 2186      5F464249 
 2186      545F5F20 
 2186      333100
 2187              	.LASF433:
 2188 151d 76417070 		.ascii	"vApplicationTickHook\000"
 2188      6C696361 
 2188      74696F6E 
 2188      5469636B 
 2188      486F6F6B 
 2189              	.LASF312:
 2190 1532 5F5F4743 		.ascii	"__GCC_ATOMIC_CHAR16_T_LOCK_FREE 2\000"
 2190      435F4154 
 2190      4F4D4943 
 2190      5F434841 
 2190      5231365F 
 2191              	.LASF246:
 2192 1554 5F5F4C41 		.ascii	"__LACCUM_FBIT__ 31\000"
 2192      4343554D 
 2192      5F464249 
 2192      545F5F20 
 2192      333100
 2193              	.LASF205:
 2194 1567 5F5F5546 		.ascii	"__UFRACT_EPSILON__ 0x1P-16UR\000"
 2194      52414354 
 2194      5F455053 
 2194      494C4F4E 
 2194      5F5F2030 
 2195              	.LASF131:
 2196 1584 5F5F464C 		.ascii	"__FLT_MIN__ 1.1754943508222875e-38F\000"
 2196      545F4D49 
 2196      4E5F5F20 
 2196      312E3137 
 2196      35343934 
ARM GAS  C:\Users\STUDENT\AppData\Local\Temp\ccFRnYLD.s 			page 55


 2197              	.LASF317:
 2198 15a8 5F5F4743 		.ascii	"__GCC_ATOMIC_LONG_LOCK_FREE 2\000"
 2198      435F4154 
 2198      4F4D4943 
 2198      5F4C4F4E 
 2198      475F4C4F 
 2199              	.LASF240:
 2200 15c6 5F5F4143 		.ascii	"__ACCUM_EPSILON__ 0x1P-15K\000"
 2200      43554D5F 
 2200      45505349 
 2200      4C4F4E5F 
 2200      5F203078 
 2201              	.LASF282:
 2202 15e1 5F5F5544 		.ascii	"__UDQ_FBIT__ 64\000"
 2202      515F4642 
 2202      49545F5F 
 2202      20363400 
 2203              	.LASF375:
 2204 15f1 5F5F4945 		.ascii	"__IEEE_LITTLE_ENDIAN \000"
 2204      45455F4C 
 2204      4954544C 
 2204      455F454E 
 2204      4449414E 
 2205              	.LASF340:
 2206 1607 5F5F4152 		.ascii	"__ARM_ARCH_ISA_THUMB 2\000"
 2206      4D5F4152 
 2206      43485F49 
 2206      53415F54 
 2206      48554D42 
 2207              	.LASF284:
 2208 161e 5F5F5554 		.ascii	"__UTQ_FBIT__ 128\000"
 2208      515F4642 
 2208      49545F5F 
 2208      20313238 
 2208      00
 2209              	.LASF21:
 2210 162f 5F5F4348 		.ascii	"__CHAR_BIT__ 8\000"
 2210      41525F42 
 2210      49545F5F 
 2210      203800
 2211              	.LASF46:
 2212 163e 5F5F494E 		.ascii	"__INT_LEAST8_TYPE__ signed char\000"
 2212      545F4C45 
 2212      41535438 
 2212      5F545950 
 2212      455F5F20 
 2213              	.LASF310:
 2214 165e 5F5F4743 		.ascii	"__GCC_ATOMIC_BOOL_LOCK_FREE 2\000"
 2214      435F4154 
 2214      4F4D4943 
 2214      5F424F4F 
 2214      4C5F4C4F 
 2215              	.LASF158:
 2216 167c 5F5F4C44 		.ascii	"__LDBL_MAX__ 1.7976931348623157e+308L\000"
 2216      424C5F4D 
 2216      41585F5F 
 2216      20312E37 
ARM GAS  C:\Users\STUDENT\AppData\Local\Temp\ccFRnYLD.s 			page 56


 2216      39373639 
 2217              	.LASF12:
 2218 16a2 5F5F4649 		.ascii	"__FINITE_MATH_ONLY__ 0\000"
 2218      4E495445 
 2218      5F4D4154 
 2218      485F4F4E 
 2218      4C595F5F 
 2219              	.LASF229:
 2220 16b9 5F5F5341 		.ascii	"__SACCUM_MAX__ 0X7FFFP-7HK\000"
 2220      4343554D 
 2220      5F4D4158 
 2220      5F5F2030 
 2220      58374646 
 2221              	.LASF335:
 2222 16d4 5F5F6172 		.ascii	"__arm__ 1\000"
 2222      6D5F5F20 
 2222      3100
 2223              	.LASF151:
 2224 16de 5F5F4C44 		.ascii	"__LDBL_MANT_DIG__ 53\000"
 2224      424C5F4D 
 2224      414E545F 
 2224      4449475F 
 2224      5F203533 
 2225              	.LASF421:
 2226 16f3 5F434153 		.ascii	"_CAST_VOID (void)\000"
 2226      545F564F 
 2226      49442028 
 2226      766F6964 
 2226      2900
 2227              	.LASF275:
 2228 1705 5F5F5451 		.ascii	"__TQ_IBIT__ 0\000"
 2228      5F494249 
 2228      545F5F20 
 2228      3000
 2229              	.LASF294:
 2230 1713 5F5F5548 		.ascii	"__UHA_FBIT__ 8\000"
 2230      415F4642 
 2230      49545F5F 
 2230      203800
 2231              	.LASF394:
 2232 1722 5F5F5356 		.ascii	"__SVID_VISIBLE 1\000"
 2232      49445F56 
 2232      49534942 
 2232      4C452031 
 2232      00
 2233              	.LASF138:
 2234 1733 5F5F4442 		.ascii	"__DBL_DIG__ 15\000"
 2234      4C5F4449 
 2234      475F5F20 
 2234      313500
 2235              	.LASF353:
 2236 1742 5F5F454C 		.ascii	"__ELF__ 1\000"
 2236      465F5F20 
 2236      3100
 2237              	.LASF319:
 2238 174c 5F5F4743 		.ascii	"__GCC_ATOMIC_TEST_AND_SET_TRUEVAL 1\000"
 2238      435F4154 
ARM GAS  C:\Users\STUDENT\AppData\Local\Temp\ccFRnYLD.s 			page 57


 2238      4F4D4943 
 2238      5F544553 
 2238      545F414E 
 2239              	.LASF321:
 2240 1770 5F5F4743 		.ascii	"__GCC_HAVE_DWARF2_CFI_ASM 1\000"
 2240      435F4841 
 2240      56455F44 
 2240      57415246 
 2240      325F4346 
 2241              	.LASF91:
 2242 178c 5F5F5549 		.ascii	"__UINT64_MAX__ 0xffffffffffffffffULL\000"
 2242      4E543634 
 2242      5F4D4158 
 2242      5F5F2030 
 2242      78666666 
 2243              	.LASF249:
 2244 17b1 5F5F4C41 		.ascii	"__LACCUM_MAX__ 0X7FFFFFFFFFFFFFFFP-31LK\000"
 2244      4343554D 
 2244      5F4D4158 
 2244      5F5F2030 
 2244      58374646 
 2245              	.LASF110:
 2246 17d9 5F5F494E 		.ascii	"__INT_FAST32_MAX__ 0x7fffffff\000"
 2246      545F4641 
 2246      53543332 
 2246      5F4D4158 
 2246      5F5F2030 
 2247              	.LASF8:
 2248 17f7 5F5F4154 		.ascii	"__ATOMIC_ACQUIRE 2\000"
 2248      4F4D4943 
 2248      5F414351 
 2248      55495245 
 2248      203200
 2249              	.LASF0:
 2250 180a 5F5F5354 		.ascii	"__STDC__ 1\000"
 2250      44435F5F 
 2250      203100
 2251              	.LASF241:
 2252 1815 5F5F5541 		.ascii	"__UACCUM_FBIT__ 16\000"
 2252      4343554D 
 2252      5F464249 
 2252      545F5F20 
 2252      313600
 2253              	.LASF141:
 2254 1828 5F5F4442 		.ascii	"__DBL_MAX_EXP__ 1024\000"
 2254      4C5F4D41 
 2254      585F4558 
 2254      505F5F20 
 2254      31303234 
 2255              	.LASF379:
 2256 183d 5F444546 		.ascii	"_DEFAULT_SOURCE\000"
 2256      41554C54 
 2256      5F534F55 
 2256      52434500 
 2257              	.LASF11:
 2258 184d 5F5F4154 		.ascii	"__ATOMIC_CONSUME 1\000"
 2258      4F4D4943 
ARM GAS  C:\Users\STUDENT\AppData\Local\Temp\ccFRnYLD.s 			page 58


 2258      5F434F4E 
 2258      53554D45 
 2258      203100
 2259              	.LASF33:
 2260 1860 5F5F494E 		.ascii	"__INTMAX_TYPE__ long long int\000"
 2260      544D4158 
 2260      5F545950 
 2260      455F5F20 
 2260      6C6F6E67 
 2261              	.LASF32:
 2262 187e 5F5F5749 		.ascii	"__WINT_TYPE__ unsigned int\000"
 2262      4E545F54 
 2262      5950455F 
 2262      5F20756E 
 2262      7369676E 
 2263              	.LASF70:
 2264 1899 5F5F4C4F 		.ascii	"__LONG_MAX__ 0x7fffffffL\000"
 2264      4E475F4D 
 2264      41585F5F 
 2264      20307837 
 2264      66666666 
 2265              	.LASF85:
 2266 18b2 5F5F494E 		.ascii	"__INT16_MAX__ 0x7fff\000"
 2266      5431365F 
 2266      4D41585F 
 2266      5F203078 
 2266      37666666 
 2267              	.LASF211:
 2268 18c7 5F5F554C 		.ascii	"__ULFRACT_FBIT__ 32\000"
 2268      46524143 
 2268      545F4642 
 2268      49545F5F 
 2268      20333200 
 2269              	.LASF31:
 2270 18db 5F5F5743 		.ascii	"__WCHAR_TYPE__ unsigned int\000"
 2270      4841525F 
 2270      54595045 
 2270      5F5F2075 
 2270      6E736967 
 2271              	.LASF238:
 2272 18f7 5F5F4143 		.ascii	"__ACCUM_MIN__ (-0X1P15K-0X1P15K)\000"
 2272      43554D5F 
 2272      4D494E5F 
 2272      5F20282D 
 2272      30583150 
 2273              	.LASF18:
 2274 1918 5F5F5349 		.ascii	"__SIZEOF_DOUBLE__ 8\000"
 2274      5A454F46 
 2274      5F444F55 
 2274      424C455F 
 2274      5F203800 
 2275              	.LASF4:
 2276 192c 5F5F474E 		.ascii	"__GNUC_PATCHLEVEL__ 1\000"
 2276      55435F50 
 2276      41544348 
 2276      4C455645 
 2276      4C5F5F20 
ARM GAS  C:\Users\STUDENT\AppData\Local\Temp\ccFRnYLD.s 			page 59


 2277              	.LASF352:
 2278 1942 5F5F4758 		.ascii	"__GXX_TYPEINFO_EQUALITY_INLINE 0\000"
 2278      585F5459 
 2278      5045494E 
 2278      464F5F45 
 2278      5155414C 
 2279              	.LASF199:
 2280 1963 5F5F4652 		.ascii	"__FRACT_MAX__ 0X7FFFP-15R\000"
 2280      4143545F 
 2280      4D41585F 
 2280      5F203058 
 2280      37464646 
 2281              	.LASF41:
 2282 197d 5F5F494E 		.ascii	"__INT64_TYPE__ long long int\000"
 2282      5436345F 
 2282      54595045 
 2282      5F5F206C 
 2282      6F6E6720 
 2283              	.LASF251:
 2284 199a 5F5F554C 		.ascii	"__ULACCUM_FBIT__ 32\000"
 2284      41434355 
 2284      4D5F4642 
 2284      49545F5F 
 2284      20333200 
 2285              	.LASF203:
 2286 19ae 5F5F5546 		.ascii	"__UFRACT_MIN__ 0.0UR\000"
 2286      52414354 
 2286      5F4D494E 
 2286      5F5F2030 
 2286      2E305552 
 2287              	.LASF413:
 2288 19c3 5F444F54 		.ascii	"_DOTS , ...\000"
 2288      53202C20 
 2288      2E2E2E00 
 2289              	.LASF197:
 2290 19cf 5F5F4652 		.ascii	"__FRACT_IBIT__ 0\000"
 2290      4143545F 
 2290      49424954 
 2290      5F5F2030 
 2290      00
 2291              	.LASF159:
 2292 19e0 5F5F4C44 		.ascii	"__LDBL_MIN__ 2.2250738585072014e-308L\000"
 2292      424C5F4D 
 2292      494E5F5F 
 2292      20322E32 
 2292      32353037 
 2293              	.LASF163:
 2294 1a06 5F5F4C44 		.ascii	"__LDBL_HAS_INFINITY__ 1\000"
 2294      424C5F48 
 2294      41535F49 
 2294      4E46494E 
 2294      4954595F 
 2295              	.LASF119:
 2296 1a1e 5F5F4743 		.ascii	"__GCC_IEC_559_COMPLEX 0\000"
 2296      435F4945 
 2296      435F3535 
 2296      395F434F 
ARM GAS  C:\Users\STUDENT\AppData\Local\Temp\ccFRnYLD.s 			page 60


 2296      4D504C45 
 2297              	.LASF90:
 2298 1a36 5F5F5549 		.ascii	"__UINT32_MAX__ 0xffffffffUL\000"
 2298      4E543332 
 2298      5F4D4158 
 2298      5F5F2030 
 2298      78666666 
 2299              	.LASF153:
 2300 1a52 5F5F4C44 		.ascii	"__LDBL_MIN_EXP__ (-1021)\000"
 2300      424C5F4D 
 2300      494E5F45 
 2300      58505F5F 
 2300      20282D31 
 2301              	.LASF221:
 2302 1a6b 5F5F554C 		.ascii	"__ULLFRACT_FBIT__ 64\000"
 2302      4C465241 
 2302      43545F46 
 2302      4249545F 
 2302      5F203634 
 2303              	.LASF323:
 2304 1a80 5F5F5349 		.ascii	"__SIZEOF_WCHAR_T__ 4\000"
 2304      5A454F46 
 2304      5F574348 
 2304      41525F54 
 2304      5F5F2034 
 2305              	.LASF27:
 2306 1a95 5F5F464C 		.ascii	"__FLOAT_WORD_ORDER__ __ORDER_LITTLE_ENDIAN__\000"
 2306      4F41545F 
 2306      574F5244 
 2306      5F4F5244 
 2306      45525F5F 
 2307              	.LASF239:
 2308 1ac2 5F5F4143 		.ascii	"__ACCUM_MAX__ 0X7FFFFFFFP-15K\000"
 2308      43554D5F 
 2308      4D41585F 
 2308      5F203058 
 2308      37464646 
 2309              	.LASF202:
 2310 1ae0 5F5F5546 		.ascii	"__UFRACT_IBIT__ 0\000"
 2310      52414354 
 2310      5F494249 
 2310      545F5F20 
 2310      3000
 2311              	.LASF165:
 2312 1af2 5F5F4445 		.ascii	"__DEC32_MANT_DIG__ 7\000"
 2312      4333325F 
 2312      4D414E54 
 2312      5F444947 
 2312      5F5F2037 
 2313              	.LASF173:
 2314 1b07 5F5F4445 		.ascii	"__DEC64_MIN_EXP__ (-382)\000"
 2314      4336345F 
 2314      4D494E5F 
 2314      4558505F 
 2314      5F20282D 
 2315              	.LASF83:
 2316 1b20 5F5F5349 		.ascii	"__SIG_ATOMIC_MIN__ (-__SIG_ATOMIC_MAX__ - 1)\000"
ARM GAS  C:\Users\STUDENT\AppData\Local\Temp\ccFRnYLD.s 			page 61


 2316      475F4154 
 2316      4F4D4943 
 2316      5F4D494E 
 2316      5F5F2028 
 2317              	.LASF220:
 2318 1b4d 5F5F4C4C 		.ascii	"__LLFRACT_EPSILON__ 0x1P-63LLR\000"
 2318      46524143 
 2318      545F4550 
 2318      53494C4F 
 2318      4E5F5F20 
 2319              	.LASF156:
 2320 1b6c 5F5F4C44 		.ascii	"__LDBL_MAX_10_EXP__ 308\000"
 2320      424C5F4D 
 2320      41585F31 
 2320      305F4558 
 2320      505F5F20 
 2321              	.LASF186:
 2322 1b84 5F5F5346 		.ascii	"__SFRACT_FBIT__ 7\000"
 2322      52414354 
 2322      5F464249 
 2322      545F5F20 
 2322      3700
 2323              	.LASF36:
 2324 1b96 5F5F4348 		.ascii	"__CHAR32_TYPE__ long unsigned int\000"
 2324      41523332 
 2324      5F545950 
 2324      455F5F20 
 2324      6C6F6E67 
 2325              	.LASF187:
 2326 1bb8 5F5F5346 		.ascii	"__SFRACT_IBIT__ 0\000"
 2326      52414354 
 2326      5F494249 
 2326      545F5F20 
 2326      3000
 2327              	.LASF347:
 2328 1bca 5F5F4152 		.ascii	"__ARM_PCS 1\000"
 2328      4D5F5043 
 2328      53203100 
 2329              	.LASF269:
 2330 1bd6 5F5F4851 		.ascii	"__HQ_IBIT__ 0\000"
 2330      5F494249 
 2330      545F5F20 
 2330      3000
 2331              	.LASF419:
 2332 1be4 5F444546 		.ascii	"_DEFUN(name,arglist,args) name(args)\000"
 2332      554E286E 
 2332      616D652C 
 2332      6172676C 
 2332      6973742C 
 2333              	.LASF303:
 2334 1c09 5F5F5553 		.ascii	"__USER_LABEL_PREFIX__ \000"
 2334      45525F4C 
 2334      4142454C 
 2334      5F505245 
 2334      4649585F 
 2335              	.LASF133:
 2336 1c20 5F5F464C 		.ascii	"__FLT_DENORM_MIN__ 1.4012984643248171e-45F\000"
ARM GAS  C:\Users\STUDENT\AppData\Local\Temp\ccFRnYLD.s 			page 62


 2336      545F4445 
 2336      4E4F524D 
 2336      5F4D494E 
 2336      5F5F2031 
 2337              	.LASF420:
 2338 1c4b 5F444546 		.ascii	"_DEFUN_VOID(name) name(_NOARGS)\000"
 2338      554E5F56 
 2338      4F494428 
 2338      6E616D65 
 2338      29206E61 
 2339              	.LASF52:
 2340 1c6b 5F5F5549 		.ascii	"__UINT_LEAST32_TYPE__ long unsigned int\000"
 2340      4E545F4C 
 2340      45415354 
 2340      33325F54 
 2340      5950455F 
 2341              	.LASF272:
 2342 1c93 5F5F4451 		.ascii	"__DQ_FBIT__ 63\000"
 2342      5F464249 
 2342      545F5F20 
 2342      363300
 2343              	.LASF295:
 2344 1ca2 5F5F5548 		.ascii	"__UHA_IBIT__ 8\000"
 2344      415F4942 
 2344      49545F5F 
 2344      203800
 2345              	.LASF330:
 2346 1cb1 5F5F4152 		.ascii	"__ARM_FEATURE_LDREX 7\000"
 2346      4D5F4645 
 2346      41545552 
 2346      455F4C44 
 2346      52455820 
 2347              	.LASF378:
 2348 1cc7 5F5F474E 		.ascii	"__GNUC_PREREQ__(ma,mi) __GNUC_PREREQ(ma, mi)\000"
 2348      55435F50 
 2348      52455245 
 2348      515F5F28 
 2348      6D612C6D 
 2349              	.LASF68:
 2350 1cf4 5F5F5348 		.ascii	"__SHRT_MAX__ 0x7fff\000"
 2350      52545F4D 
 2350      41585F5F 
 2350      20307837 
 2350      66666600 
 2351              	.LASF25:
 2352 1d08 5F5F4F52 		.ascii	"__ORDER_PDP_ENDIAN__ 3412\000"
 2352      4445525F 
 2352      5044505F 
 2352      454E4449 
 2352      414E5F5F 
 2353              	.LASF390:
 2354 1d22 5F5F4953 		.ascii	"__ISO_C_VISIBLE 1999\000"
 2354      4F5F435F 
 2354      56495349 
 2354      424C4520 
 2354      31393939 
 2355              	.LASF271:
ARM GAS  C:\Users\STUDENT\AppData\Local\Temp\ccFRnYLD.s 			page 63


 2356 1d37 5F5F5351 		.ascii	"__SQ_IBIT__ 0\000"
 2356      5F494249 
 2356      545F5F20 
 2356      3000
 2357              	.LASF129:
 2358 1d45 5F5F464C 		.ascii	"__FLT_DECIMAL_DIG__ 9\000"
 2358      545F4445 
 2358      43494D41 
 2358      4C5F4449 
 2358      475F5F20 
 2359              	.LASF86:
 2360 1d5b 5F5F494E 		.ascii	"__INT32_MAX__ 0x7fffffffL\000"
 2360      5433325F 
 2360      4D41585F 
 2360      5F203078 
 2360      37666666 
 2361              	.LASF184:
 2362 1d75 5F5F4445 		.ascii	"__DEC128_EPSILON__ 1E-33DL\000"
 2362      43313238 
 2362      5F455053 
 2362      494C4F4E 
 2362      5F5F2031 
 2363              	.LASF276:
 2364 1d90 5F5F5551 		.ascii	"__UQQ_FBIT__ 8\000"
 2364      515F4642 
 2364      49545F5F 
 2364      203800
 2365              	.LASF387:
 2366 1d9f 5F5F4154 		.ascii	"__ATFILE_VISIBLE 1\000"
 2366      46494C45 
 2366      5F564953 
 2366      49424C45 
 2366      203100
 2367              	.LASF244:
 2368 1db2 5F5F5541 		.ascii	"__UACCUM_MAX__ 0XFFFFFFFFP-16UK\000"
 2368      4343554D 
 2368      5F4D4158 
 2368      5F5F2030 
 2368      58464646 
 2369              	.LASF397:
 2370 1dd2 5F5F5241 		.ascii	"__RAND_MAX\000"
 2370      4E445F4D 
 2370      415800
 2371              	.LASF174:
 2372 1ddd 5F5F4445 		.ascii	"__DEC64_MAX_EXP__ 385\000"
 2372      4336345F 
 2372      4D41585F 
 2372      4558505F 
 2372      5F203338 
 2373              	.LASF278:
 2374 1df3 5F5F5548 		.ascii	"__UHQ_FBIT__ 16\000"
 2374      515F4642 
 2374      49545F5F 
 2374      20313600 
 2375              	.LASF40:
 2376 1e03 5F5F494E 		.ascii	"__INT32_TYPE__ long int\000"
 2376      5433325F 
ARM GAS  C:\Users\STUDENT\AppData\Local\Temp\ccFRnYLD.s 			page 64


 2376      54595045 
 2376      5F5F206C 
 2376      6F6E6720 
 2377              	.LASF60:
 2378 1e1b 5F5F5549 		.ascii	"__UINT_FAST32_TYPE__ unsigned int\000"
 2378      4E545F46 
 2378      41535433 
 2378      325F5459 
 2378      50455F5F 
 2379              	.LASF350:
 2380 1e3d 5F5F4152 		.ascii	"__ARM_FEATURE_IDIV 1\000"
 2380      4D5F4645 
 2380      41545552 
 2380      455F4944 
 2380      49562031 
 2381              	.LASF155:
 2382 1e52 5F5F4C44 		.ascii	"__LDBL_MAX_EXP__ 1024\000"
 2382      424C5F4D 
 2382      41585F45 
 2382      58505F5F 
 2382      20313032 
 2383              	.LASF270:
 2384 1e68 5F5F5351 		.ascii	"__SQ_FBIT__ 31\000"
 2384      5F464249 
 2384      545F5F20 
 2384      333100
 2385              	.LASF231:
 2386 1e77 5F5F5553 		.ascii	"__USACCUM_FBIT__ 8\000"
 2386      41434355 
 2386      4D5F4642 
 2386      49545F5F 
 2386      203800
 2387              	.LASF304:
 2388 1e8a 5F5F474E 		.ascii	"__GNUC_GNU_INLINE__ 1\000"
 2388      55435F47 
 2388      4E555F49 
 2388      4E4C494E 
 2388      455F5F20 
 2389              	.LASF181:
 2390 1ea0 5F5F4445 		.ascii	"__DEC128_MAX_EXP__ 6145\000"
 2390      43313238 
 2390      5F4D4158 
 2390      5F455850 
 2390      5F5F2036 
 2391              	.LASF371:
 2392 1eb8 5F465345 		.ascii	"_FSEEK_OPTIMIZATION 1\000"
 2392      454B5F4F 
 2392      5054494D 
 2392      495A4154 
 2392      494F4E20 
 2393              	.LASF104:
 2394 1ece 5F5F5549 		.ascii	"__UINT_LEAST32_MAX__ 0xffffffffUL\000"
 2394      4E545F4C 
 2394      45415354 
 2394      33325F4D 
 2394      41585F5F 
 2395              	.LASF427:
ARM GAS  C:\Users\STUDENT\AppData\Local\Temp\ccFRnYLD.s 			page 65


 2396 1ef0 5F4E4F49 		.ascii	"_NOINLINE_STATIC _NOINLINE static\000"
 2396      4E4C494E 
 2396      455F5354 
 2396      41544943 
 2396      205F4E4F 
 2397              	.LASF338:
 2398 1f12 5F5F7468 		.ascii	"__thumb__ 1\000"
 2398      756D625F 
 2398      5F203100 
 2399              	.LASF164:
 2400 1f1e 5F5F4C44 		.ascii	"__LDBL_HAS_QUIET_NAN__ 1\000"
 2400      424C5F48 
 2400      41535F51 
 2400      55494554 
 2400      5F4E414E 
 2401              	.LASF38:
 2402 1f37 5F5F494E 		.ascii	"__INT8_TYPE__ signed char\000"
 2402      54385F54 
 2402      5950455F 
 2402      5F207369 
 2402      676E6564 
 2403              	.LASF74:
 2404 1f51 5F5F5749 		.ascii	"__WINT_MAX__ 0xffffffffU\000"
 2404      4E545F4D 
 2404      41585F5F 
 2404      20307866 
 2404      66666666 
 2405              	.LASF396:
 2406 1f6a 5F504F49 		.ascii	"_POINTER_INT long\000"
 2406      4E544552 
 2406      5F494E54 
 2406      206C6F6E 
 2406      6700
 2407              	.LASF391:
 2408 1f7c 5F5F4C41 		.ascii	"__LARGEFILE_VISIBLE 0\000"
 2408      52474546 
 2408      494C455F 
 2408      56495349 
 2408      424C4520 
 2409              	.LASF274:
 2410 1f92 5F5F5451 		.ascii	"__TQ_FBIT__ 127\000"
 2410      5F464249 
 2410      545F5F20 
 2410      31323700 
 2411              	.LASF195:
 2412 1fa2 5F5F5553 		.ascii	"__USFRACT_EPSILON__ 0x1P-8UHR\000"
 2412      46524143 
 2412      545F4550 
 2412      53494C4F 
 2412      4E5F5F20 
 2413              	.LASF399:
 2414 1fc0 5F5F4558 		.ascii	"__EXPORT \000"
 2414      504F5254 
 2414      2000
 2415              	.LASF306:
 2416 1fca 5F5F4348 		.ascii	"__CHAR_UNSIGNED__ 1\000"
 2416      41525F55 
ARM GAS  C:\Users\STUDENT\AppData\Local\Temp\ccFRnYLD.s 			page 66


 2416      4E534947 
 2416      4E45445F 
 2416      5F203100 
 2417              	.LASF115:
 2418 1fde 5F5F5549 		.ascii	"__UINT_FAST64_MAX__ 0xffffffffffffffffULL\000"
 2418      4E545F46 
 2418      41535436 
 2418      345F4D41 
 2418      585F5F20 
 2419              	.LASF114:
 2420 2008 5F5F5549 		.ascii	"__UINT_FAST32_MAX__ 0xffffffffU\000"
 2420      4E545F46 
 2420      41535433 
 2420      325F4D41 
 2420      585F5F20 
 2421              	.LASF191:
 2422 2028 5F5F5553 		.ascii	"__USFRACT_FBIT__ 8\000"
 2422      46524143 
 2422      545F4642 
 2422      49545F5F 
 2422      203800
 2423              	.LASF99:
 2424 203b 5F5F494E 		.ascii	"__INT64_C(c) c ## LL\000"
 2424      5436345F 
 2424      43286329 
 2424      20632023 
 2424      23204C4C 
 2425              	.LASF268:
 2426 2050 5F5F4851 		.ascii	"__HQ_FBIT__ 15\000"
 2426      5F464249 
 2426      545F5F20 
 2426      313500
 2427              	.LASF425:
 2428 205f 5F454C49 		.ascii	"_ELIDABLE_INLINE extern __inline__ _ATTRIBUTE ((__a"
 2428      4441424C 
 2428      455F494E 
 2428      4C494E45 
 2428      20657874 
 2429 2092 6C776179 		.ascii	"lways_inline__))\000"
 2429      735F696E 
 2429      6C696E65 
 2429      5F5F2929 
 2429      00
 2430              	.LASF72:
 2431 20a3 5F5F5743 		.ascii	"__WCHAR_MAX__ 0xffffffffU\000"
 2431      4841525F 
 2431      4D41585F 
 2431      5F203078 
 2431      66666666 
 2432              	.LASF15:
 2433 20bd 5F5F5349 		.ascii	"__SIZEOF_LONG_LONG__ 8\000"
 2433      5A454F46 
 2433      5F4C4F4E 
 2433      475F4C4F 
 2433      4E475F5F 
 2434              	.LASF277:
 2435 20d4 5F5F5551 		.ascii	"__UQQ_IBIT__ 0\000"
ARM GAS  C:\Users\STUDENT\AppData\Local\Temp\ccFRnYLD.s 			page 67


 2435      515F4942 
 2435      49545F5F 
 2435      203000
 2436              	.LASF42:
 2437 20e3 5F5F5549 		.ascii	"__UINT8_TYPE__ unsigned char\000"
 2437      4E54385F 
 2437      54595045 
 2437      5F5F2075 
 2437      6E736967 
 2438              	.LASF132:
 2439 2100 5F5F464C 		.ascii	"__FLT_EPSILON__ 1.1920928955078125e-7F\000"
 2439      545F4550 
 2439      53494C4F 
 2439      4E5F5F20 
 2439      312E3139 
 2440              	.LASF49:
 2441 2127 5F5F494E 		.ascii	"__INT_LEAST64_TYPE__ long long int\000"
 2441      545F4C45 
 2441      41535436 
 2441      345F5459 
 2441      50455F5F 
 2442              	.LASF398:
 2443 214a 5F5F5241 		.ascii	"__RAND_MAX 0x7fffffff\000"
 2443      4E445F4D 
 2443      41582030 
 2443      78376666 
 2443      66666666 
 2444              	.LASF44:
 2445 2160 5F5F5549 		.ascii	"__UINT32_TYPE__ long unsigned int\000"
 2445      4E543332 
 2445      5F545950 
 2445      455F5F20 
 2445      6C6F6E67 
 2446              	.LASF154:
 2447 2182 5F5F4C44 		.ascii	"__LDBL_MIN_10_EXP__ (-307)\000"
 2447      424C5F4D 
 2447      494E5F31 
 2447      305F4558 
 2447      505F5F20 
 2448              	.LASF28:
 2449 219d 5F5F5349 		.ascii	"__SIZEOF_POINTER__ 4\000"
 2449      5A454F46 
 2449      5F504F49 
 2449      4E544552 
 2449      5F5F2034 
 2450              	.LASF344:
 2451 21b2 5F5F5646 		.ascii	"__VFP_FP__ 1\000"
 2451      505F4650 
 2451      5F5F2031 
 2451      00
 2452              	.LASF417:
 2453 21bf 5F455850 		.ascii	"_EXPARM(name,proto) (* name) proto\000"
 2453      41524D28 
 2453      6E616D65 
 2453      2C70726F 
 2453      746F2920 
 2454              	.LASF214:
ARM GAS  C:\Users\STUDENT\AppData\Local\Temp\ccFRnYLD.s 			page 68


 2455 21e2 5F5F554C 		.ascii	"__ULFRACT_MAX__ 0XFFFFFFFFP-32ULR\000"
 2455      46524143 
 2455      545F4D41 
 2455      585F5F20 
 2455      30584646 
 2456              	.LASF286:
 2457 2204 5F5F4841 		.ascii	"__HA_FBIT__ 7\000"
 2457      5F464249 
 2457      545F5F20 
 2457      3700
 2458              	.LASF373:
 2459 2212 5F554E42 		.ascii	"_UNBUF_STREAM_OPT 1\000"
 2459      55465F53 
 2459      54524541 
 2459      4D5F4F50 
 2459      54203100 
 2460              	.LASF228:
 2461 2226 5F5F5341 		.ascii	"__SACCUM_MIN__ (-0X1P7HK-0X1P7HK)\000"
 2461      4343554D 
 2461      5F4D494E 
 2461      5F5F2028 
 2461      2D305831 
 2462              	.LASF320:
 2463 2248 5F5F4743 		.ascii	"__GCC_ATOMIC_POINTER_LOCK_FREE 2\000"
 2463      435F4154 
 2463      4F4D4943 
 2463      5F504F49 
 2463      4E544552 
 2464              	.LASF107:
 2465 2269 5F5F5549 		.ascii	"__UINT64_C(c) c ## ULL\000"
 2465      4E543634 
 2465      5F432863 
 2465      29206320 
 2465      23232055 
 2466              	.LASF250:
 2467 2280 5F5F4C41 		.ascii	"__LACCUM_EPSILON__ 0x1P-31LK\000"
 2467      4343554D 
 2467      5F455053 
 2467      494C4F4E 
 2467      5F5F2030 
 2468              	.LASF190:
 2469 229d 5F5F5346 		.ascii	"__SFRACT_EPSILON__ 0x1P-7HR\000"
 2469      52414354 
 2469      5F455053 
 2469      494C4F4E 
 2469      5F5F2030 
 2470              	.LASF431:
 2471 22b9 73697A65 		.ascii	"sizetype\000"
 2471      74797065 
 2471      00
 2472              	.LASF280:
 2473 22c2 5F5F5553 		.ascii	"__USQ_FBIT__ 32\000"
 2473      515F4642 
 2473      49545F5F 
 2473      20333200 
 2474              	.LASF287:
 2475 22d2 5F5F4841 		.ascii	"__HA_IBIT__ 8\000"
ARM GAS  C:\Users\STUDENT\AppData\Local\Temp\ccFRnYLD.s 			page 69


 2475      5F494249 
 2475      545F5F20 
 2475      3800
 2476              	.LASF412:
 2477 22e0 5F534947 		.ascii	"_SIGNED signed\000"
 2477      4E454420 
 2477      7369676E 
 2477      656400
 2478              	.LASF313:
 2479 22ef 5F5F4743 		.ascii	"__GCC_ATOMIC_CHAR32_T_LOCK_FREE 2\000"
 2479      435F4154 
 2479      4F4D4943 
 2479      5F434841 
 2479      5233325F 
 2480              	.LASF346:
 2481 2311 5F5F4152 		.ascii	"__ARM_ARCH_7M__ 1\000"
 2481      4D5F4152 
 2481      43485F37 
 2481      4D5F5F20 
 2481      3100
 2482              	.LASF80:
 2483 2323 5F5F5549 		.ascii	"__UINTMAX_MAX__ 0xffffffffffffffffULL\000"
 2483      4E544D41 
 2483      585F4D41 
 2483      585F5F20 
 2483      30786666 
 2484              	.LASF418:
 2485 2349 5F455846 		.ascii	"_EXFNPTR(name,proto) (* name) proto\000"
 2485      4E505452 
 2485      286E616D 
 2485      652C7072 
 2485      6F746F29 
 2486              	.LASF436:
 2487 236d 46726565 		.ascii	"FreeRTOS/hooks.c\000"
 2487      52544F53 
 2487      2F686F6F 
 2487      6B732E63 
 2487      00
 2488              	.LASF200:
 2489 237e 5F5F4652 		.ascii	"__FRACT_EPSILON__ 0x1P-15R\000"
 2489      4143545F 
 2489      45505349 
 2489      4C4F4E5F 
 2489      5F203078 
 2490              	.LASF1:
 2491 2399 5F5F5354 		.ascii	"__STDC_HOSTED__ 1\000"
 2491      44435F48 
 2491      4F535445 
 2491      445F5F20 
 2491      3100
 2492              	.LASF116:
 2493 23ab 5F5F494E 		.ascii	"__INTPTR_MAX__ 0x7fffffff\000"
 2493      54505452 
 2493      5F4D4158 
 2493      5F5F2030 
 2493      78376666 
 2494              	.LASF424:
ARM GAS  C:\Users\STUDENT\AppData\Local\Temp\ccFRnYLD.s 			page 70


 2495 23c5 5F415454 		.ascii	"_ATTRIBUTE(attrs) __attribute__ (attrs)\000"
 2495      52494255 
 2495      54452861 
 2495      74747273 
 2495      29205F5F 
 2496              	.LASF64:
 2497 23ed 5F5F6861 		.ascii	"__has_include(STR) __has_include__(STR)\000"
 2497      735F696E 
 2497      636C7564 
 2497      65285354 
 2497      5229205F 
 2498              	.LASF343:
 2499 2415 5F5F534F 		.ascii	"__SOFTFP__ 1\000"
 2499      46544650 
 2499      5F5F2031 
 2499      00
 2500              	.LASF145:
 2501 2422 5F5F4442 		.ascii	"__DBL_MIN__ ((double)2.2250738585072014e-308L)\000"
 2501      4C5F4D49 
 2501      4E5F5F20 
 2501      2828646F 
 2501      75626C65 
 2502              	.LASF318:
 2503 2451 5F5F4743 		.ascii	"__GCC_ATOMIC_LLONG_LOCK_FREE 1\000"
 2503      435F4154 
 2503      4F4D4943 
 2503      5F4C4C4F 
 2503      4E475F4C 
 2504              	.LASF127:
 2505 2470 5F5F464C 		.ascii	"__FLT_MAX_EXP__ 128\000"
 2505      545F4D41 
 2505      585F4558 
 2505      505F5F20 
 2505      31323800 
 2506              	.LASF10:
 2507 2484 5F5F4154 		.ascii	"__ATOMIC_ACQ_REL 4\000"
 2507      4F4D4943 
 2507      5F414351 
 2507      5F52454C 
 2507      203400
 2508              	.LASF61:
 2509 2497 5F5F5549 		.ascii	"__UINT_FAST64_TYPE__ long long unsigned int\000"
 2509      4E545F46 
 2509      41535436 
 2509      345F5459 
 2509      50455F5F 
 2510              	.LASF166:
 2511 24c3 5F5F4445 		.ascii	"__DEC32_MIN_EXP__ (-94)\000"
 2511      4333325F 
 2511      4D494E5F 
 2511      4558505F 
 2511      5F20282D 
 2512              	.LASF167:
 2513 24db 5F5F4445 		.ascii	"__DEC32_MAX_EXP__ 97\000"
 2513      4333325F 
 2513      4D41585F 
 2513      4558505F 
ARM GAS  C:\Users\STUDENT\AppData\Local\Temp\ccFRnYLD.s 			page 71


 2513      5F203937 
 2514              	.LASF392:
 2515 24f0 5F5F4D49 		.ascii	"__MISC_VISIBLE 1\000"
 2515      53435F56 
 2515      49534942 
 2515      4C452031 
 2515      00
 2516              	.LASF406:
 2517 2501 5F4E4F54 		.ascii	"_NOTHROW \000"
 2517      48524F57 
 2517      2000
 2518              	.LASF160:
 2519 250b 5F5F4C44 		.ascii	"__LDBL_EPSILON__ 2.2204460492503131e-16L\000"
 2519      424C5F45 
 2519      5053494C 
 2519      4F4E5F5F 
 2519      20322E32 
 2520              	.LASF62:
 2521 2534 5F5F494E 		.ascii	"__INTPTR_TYPE__ int\000"
 2521      54505452 
 2521      5F545950 
 2521      455F5F20 
 2521      696E7400 
 2522              	.LASF403:
 2523 2548 5F484156 		.ascii	"_HAVE_STDC \000"
 2523      455F5354 
 2523      44432000 
 2524              	.LASF121:
 2525 2554 5F5F4445 		.ascii	"__DEC_EVAL_METHOD__ 2\000"
 2525      435F4556 
 2525      414C5F4D 
 2525      4554484F 
 2525      445F5F20 
 2526              	.LASF233:
 2527 256a 5F5F5553 		.ascii	"__USACCUM_MIN__ 0.0UHK\000"
 2527      41434355 
 2527      4D5F4D49 
 2527      4E5F5F20 
 2527      302E3055 
 2528              	.LASF192:
 2529 2581 5F5F5553 		.ascii	"__USFRACT_IBIT__ 0\000"
 2529      46524143 
 2529      545F4942 
 2529      49545F5F 
 2529      203000
 2530              	.LASF50:
 2531 2594 5F5F5549 		.ascii	"__UINT_LEAST8_TYPE__ unsigned char\000"
 2531      4E545F4C 
 2531      45415354 
 2531      385F5459 
 2531      50455F5F 
 2532              	.LASF179:
 2533 25b7 5F5F4445 		.ascii	"__DEC128_MANT_DIG__ 34\000"
 2533      43313238 
 2533      5F4D414E 
 2533      545F4449 
 2533      475F5F20 
ARM GAS  C:\Users\STUDENT\AppData\Local\Temp\ccFRnYLD.s 			page 72


 2534              	.LASF273:
 2535 25ce 5F5F4451 		.ascii	"__DQ_IBIT__ 0\000"
 2535      5F494249 
 2535      545F5F20 
 2535      3000
 2536              	.LASF130:
 2537 25dc 5F5F464C 		.ascii	"__FLT_MAX__ 3.4028234663852886e+38F\000"
 2537      545F4D41 
 2537      585F5F20 
 2537      332E3430 
 2537      32383233 
 2538              	.LASF29:
 2539 2600 5F5F5349 		.ascii	"__SIZE_TYPE__ unsigned int\000"
 2539      5A455F54 
 2539      5950455F 
 2539      5F20756E 
 2539      7369676E 
 2540              	.LASF382:
 2541 261b 5F504F53 		.ascii	"_POSIX_SOURCE 1\000"
 2541      49585F53 
 2541      4F555243 
 2541      45203100 
 2542              	.LASF261:
 2543 262b 5F5F554C 		.ascii	"__ULLACCUM_FBIT__ 32\000"
 2543      4C414343 
 2543      554D5F46 
 2543      4249545F 
 2543      5F203332 
 2544              	.LASF315:
 2545 2640 5F5F4743 		.ascii	"__GCC_ATOMIC_SHORT_LOCK_FREE 2\000"
 2545      435F4154 
 2545      4F4D4943 
 2545      5F53484F 
 2545      52545F4C 
 2546              	.LASF437:
 2547 265f 433A5C55 		.ascii	"C:\\Users\\STUDENT\\Desktop\\RSC\\Embedded\\Interup"
 2547      73657273 
 2547      5C535455 
 2547      44454E54 
 2547      5C446573 
 2548 268c 747300   		.ascii	"ts\000"
 2549              	.LASF435:
 2550 268f 474E5520 		.ascii	"GNU C89 5.4.1 20160919 (release) [ARM/embedded-5-br"
 2550      43383920 
 2550      352E342E 
 2550      31203230 
 2550      31363039 
 2551 26c2 616E6368 		.ascii	"anch revision 240496] -mcpu=cortex-m3 -mthumb -g -g"
 2551      20726576 
 2551      6973696F 
 2551      6E203234 
 2551      30343936 
 2552 26f5 67646233 		.ascii	"gdb3 -O0 -std=gnu90 -ffunction-sections -fdata-sect"
 2552      202D4F30 
 2552      202D7374 
 2552      643D676E 
 2552      75393020 
ARM GAS  C:\Users\STUDENT\AppData\Local\Temp\ccFRnYLD.s 			page 73


 2553 2728 696F6E73 		.ascii	"ions\000"
 2553      00
 2554              	.LASF73:
 2555 272d 5F5F5743 		.ascii	"__WCHAR_MIN__ 0U\000"
 2555      4841525F 
 2555      4D494E5F 
 2555      5F203055 
 2555      00
 2556              	.LASF149:
 2557 273e 5F5F4442 		.ascii	"__DBL_HAS_INFINITY__ 1\000"
 2557      4C5F4841 
 2557      535F494E 
 2557      46494E49 
 2557      54595F5F 
 2558              	.LASF56:
 2559 2755 5F5F494E 		.ascii	"__INT_FAST32_TYPE__ int\000"
 2559      545F4641 
 2559      53543332 
 2559      5F545950 
 2559      455F5F20 
 2560              	.LASF356:
 2561 276d 5F5F4E45 		.ascii	"__NEWLIB_H__ 1\000"
 2561      574C4942 
 2561      5F485F5F 
 2561      203100
 2562              	.LASF13:
 2563 277c 5F5F5349 		.ascii	"__SIZEOF_INT__ 4\000"
 2563      5A454F46 
 2563      5F494E54 
 2563      5F5F2034 
 2563      00
 2564              	.LASF368:
 2565 278d 5F484156 		.ascii	"_HAVE_CC_INHIBIT_LOOP_TO_LIBCALL 1\000"
 2565      455F4343 
 2565      5F494E48 
 2565      49424954 
 2565      5F4C4F4F 
 2566              	.LASF79:
 2567 27b0 5F5F494E 		.ascii	"__INTMAX_C(c) c ## LL\000"
 2567      544D4158 
 2567      5F432863 
 2567      29206320 
 2567      2323204C 
 2568              	.LASF337:
 2569 27c6 5F5F4150 		.ascii	"__APCS_32__ 1\000"
 2569      43535F33 
 2569      325F5F20 
 2569      3100
 2570              	.LASF415:
 2571 27d4 5F455846 		.ascii	"_EXFUN_NOTHROW(name,proto) name proto _NOTHROW\000"
 2571      554E5F4E 
 2571      4F544852 
 2571      4F57286E 
 2571      616D652C 
 2572              	.LASF147:
 2573 2803 5F5F4442 		.ascii	"__DBL_DENORM_MIN__ ((double)4.9406564584124654e-324"
 2573      4C5F4445 
ARM GAS  C:\Users\STUDENT\AppData\Local\Temp\ccFRnYLD.s 			page 74


 2573      4E4F524D 
 2573      5F4D494E 
 2573      5F5F2028 
 2574 2836 4C2900   		.ascii	"L)\000"
 2575              	.LASF45:
 2576 2839 5F5F5549 		.ascii	"__UINT64_TYPE__ long long unsigned int\000"
 2576      4E543634 
 2576      5F545950 
 2576      455F5F20 
 2576      6C6F6E67 
 2577              	.LASF142:
 2578 2860 5F5F4442 		.ascii	"__DBL_MAX_10_EXP__ 308\000"
 2578      4C5F4D41 
 2578      585F3130 
 2578      5F455850 
 2578      5F5F2033 
 2579              	.LASF370:
 2580 2877 5F465657 		.ascii	"_FVWRITE_IN_STREAMIO 1\000"
 2580      52495445 
 2580      5F494E5F 
 2580      53545245 
 2580      414D494F 
 2581              	.LASF293:
 2582 288e 5F5F5441 		.ascii	"__TA_IBIT__ 64\000"
 2582      5F494249 
 2582      545F5F20 
 2582      363400
 2583              	.LASF266:
 2584 289d 5F5F5151 		.ascii	"__QQ_FBIT__ 7\000"
 2584      5F464249 
 2584      545F5F20 
 2584      3700
 2585              	.LASF362:
 2586 28ab 5F57414E 		.ascii	"_WANT_IO_LONG_LONG 1\000"
 2586      545F494F 
 2586      5F4C4F4E 
 2586      475F4C4F 
 2586      4E472031 
 2587              	.LASF125:
 2588 28c0 5F5F464C 		.ascii	"__FLT_MIN_EXP__ (-125)\000"
 2588      545F4D49 
 2588      4E5F4558 
 2588      505F5F20 
 2588      282D3132 
 2589              	.LASF183:
 2590 28d7 5F5F4445 		.ascii	"__DEC128_MAX__ 9.999999999999999999999999999999999E"
 2590      43313238 
 2590      5F4D4158 
 2590      5F5F2039 
 2590      2E393939 
 2591 290a 36313434 		.ascii	"6144DL\000"
 2591      444C00
 2592              	.LASF423:
 2593 2911 5F504152 		.ascii	"_PARAMS(paramlist) paramlist\000"
 2593      414D5328 
 2593      70617261 
 2593      6D6C6973 
ARM GAS  C:\Users\STUDENT\AppData\Local\Temp\ccFRnYLD.s 			page 75


 2593      74292070 
 2594              	.LASF400:
 2595 292e 5F5F494D 		.ascii	"__IMPORT \000"
 2595      504F5254 
 2595      2000
 2596              	.LASF157:
 2597 2938 5F5F4445 		.ascii	"__DECIMAL_DIG__ 17\000"
 2597      43494D41 
 2597      4C5F4449 
 2597      475F5F20 
 2597      313700
 2598              	.LASF416:
 2599 294b 5F455846 		.ascii	"_EXFUN(name,proto) name proto\000"
 2599      554E286E 
 2599      616D652C 
 2599      70726F74 
 2599      6F29206E 
 2600              	.LASF97:
 2601 2969 5F5F494E 		.ascii	"__INT32_C(c) c ## L\000"
 2601      5433325F 
 2601      43286329 
 2601      20632023 
 2601      23204C00 
 2602              	.LASF117:
 2603 297d 5F5F5549 		.ascii	"__UINTPTR_MAX__ 0xffffffffU\000"
 2603      4E545054 
 2603      525F4D41 
 2603      585F5F20 
 2603      30786666 
 2604              	.LASF109:
 2605 2999 5F5F494E 		.ascii	"__INT_FAST16_MAX__ 0x7fffffff\000"
 2605      545F4641 
 2605      53543136 
 2605      5F4D4158 
 2605      5F5F2030 
 2606              	.LASF402:
 2607 29b7 5F524541 		.ascii	"_READ_WRITE_BUFSIZE_TYPE int\000"
 2607      445F5752 
 2607      4954455F 
 2607      42554653 
 2607      495A455F 
 2608              	.LASF301:
 2609 29d4 5F5F5554 		.ascii	"__UTA_IBIT__ 64\000"
 2609      415F4942 
 2609      49545F5F 
 2609      20363400 
 2610              	.LASF327:
 2611 29e4 5F5F4152 		.ascii	"__ARM_FEATURE_SAT 1\000"
 2611      4D5F4645 
 2611      41545552 
 2611      455F5341 
 2611      54203100 
 2612              	.LASF209:
 2613 29f8 5F5F4C46 		.ascii	"__LFRACT_MAX__ 0X7FFFFFFFP-31LR\000"
 2613      52414354 
 2613      5F4D4158 
 2613      5F5F2030 
ARM GAS  C:\Users\STUDENT\AppData\Local\Temp\ccFRnYLD.s 			page 76


 2613      58374646 
 2614              	.LASF96:
 2615 2a18 5F5F494E 		.ascii	"__INT_LEAST32_MAX__ 0x7fffffffL\000"
 2615      545F4C45 
 2615      41535433 
 2615      325F4D41 
 2615      585F5F20 
 2616              	.LASF256:
 2617 2a38 5F5F4C4C 		.ascii	"__LLACCUM_FBIT__ 31\000"
 2617      41434355 
 2617      4D5F4642 
 2617      49545F5F 
 2617      20333100 
 2618              	.LASF175:
 2619 2a4c 5F5F4445 		.ascii	"__DEC64_MIN__ 1E-383DD\000"
 2619      4336345F 
 2619      4D494E5F 
 2619      5F203145 
 2619      2D333833 
 2620              	.LASF404:
 2621 2a63 5F424547 		.ascii	"_BEGIN_STD_C \000"
 2621      494E5F53 
 2621      54445F43 
 2621      2000
 2622              	.LASF322:
 2623 2a71 5F5F5052 		.ascii	"__PRAGMA_REDEFINE_EXTNAME 1\000"
 2623      41474D41 
 2623      5F524544 
 2623      4546494E 
 2623      455F4558 
 2624              	.LASF37:
 2625 2a8d 5F5F5349 		.ascii	"__SIG_ATOMIC_TYPE__ int\000"
 2625      475F4154 
 2625      4F4D4943 
 2625      5F545950 
 2625      455F5F20 
 2626              	.LASF326:
 2627 2aa5 5F5F4152 		.ascii	"__ARM_FEATURE_QBIT 1\000"
 2627      4D5F4645 
 2627      41545552 
 2627      455F5142 
 2627      49542031 
 2628              	.LASF225:
 2629 2aba 5F5F554C 		.ascii	"__ULLFRACT_EPSILON__ 0x1P-64ULLR\000"
 2629      4C465241 
 2629      43545F45 
 2629      5053494C 
 2629      4F4E5F5F 
 2630              	.LASF162:
 2631 2adb 5F5F4C44 		.ascii	"__LDBL_HAS_DENORM__ 1\000"
 2631      424C5F48 
 2631      41535F44 
 2631      454E4F52 
 2631      4D5F5F20 
 2632              	.LASF102:
 2633 2af1 5F5F5549 		.ascii	"__UINT_LEAST16_MAX__ 0xffff\000"
 2633      4E545F4C 
ARM GAS  C:\Users\STUDENT\AppData\Local\Temp\ccFRnYLD.s 			page 77


 2633      45415354 
 2633      31365F4D 
 2633      41585F5F 
 2634              	.LASF265:
 2635 2b0d 5F5F554C 		.ascii	"__ULLACCUM_EPSILON__ 0x1P-32ULLK\000"
 2635      4C414343 
 2635      554D5F45 
 2635      5053494C 
 2635      4F4E5F5F 
 2636              	.LASF172:
 2637 2b2e 5F5F4445 		.ascii	"__DEC64_MANT_DIG__ 16\000"
 2637      4336345F 
 2637      4D414E54 
 2637      5F444947 
 2637      5F5F2031 
 2638              	.LASF134:
 2639 2b44 5F5F464C 		.ascii	"__FLT_HAS_DENORM__ 1\000"
 2639      545F4841 
 2639      535F4445 
 2639      4E4F524D 
 2639      5F5F2031 
 2640              		.ident	"GCC: (GNU Tools for ARM Embedded Processors) 5.4.1 20160919 (release) [ARM/embedded-5-bran
ARM GAS  C:\Users\STUDENT\AppData\Local\Temp\ccFRnYLD.s 			page 78


DEFINED SYMBOLS
                            *ABS*:00000000 hooks.c
C:\Users\STUDENT\AppData\Local\Temp\ccFRnYLD.s:58     .text.vApplicationIdleHook:00000000 $t
C:\Users\STUDENT\AppData\Local\Temp\ccFRnYLD.s:63     .text.vApplicationIdleHook:00000000 vApplicationIdleHook
C:\Users\STUDENT\AppData\Local\Temp\ccFRnYLD.s:89     .text.vApplicationTickHook:00000000 $t
C:\Users\STUDENT\AppData\Local\Temp\ccFRnYLD.s:94     .text.vApplicationTickHook:00000000 vApplicationTickHook
C:\Users\STUDENT\AppData\Local\Temp\ccFRnYLD.s:119    .text.vApplicationMallocFailedHook:00000000 $t
C:\Users\STUDENT\AppData\Local\Temp\ccFRnYLD.s:124    .text.vApplicationMallocFailedHook:00000000 vApplicationMallocFailedHook
                     .debug_frame:00000010 $d
                           .group:00000000 wm4.0.c0d9c46791312c607b68c96c4ad07fb1
                           .group:00000000 wm4._newlib_version.h.4.ad342815780c8db09778091a421b5b5b
                           .group:00000000 wm4.newlib.h.21.0b9fc973bddc8b940a18de2b6ea6adc7
                           .group:00000000 wm4.features.h.22.692cd1f2e947ca7b8fea300222f5f1f2
                           .group:00000000 wm4.config.h.219.65a553ab5bef5482f0d7880b0d33015e
                           .group:00000000 wm4._ansi.h.23.84af8eb8cd468d25cc5f45f5eb13ec51
                           .group:00000000 wm4.assert.h.11.f9b6feb3ce5083ec030f5895cd9c4353

NO UNDEFINED SYMBOLS
