ARM GAS  C:\Users\STUDENT\AppData\Local\Temp\ccFRnYLD.s 			page 1


   1              		.syntax unified
   2              		.cpu cortex-m3
   3              		.fpu softvfp
   4              		.eabi_attribute 20, 1	@ Tag_ABI_FP_denormal
   5              		.eabi_attribute 21, 1	@ Tag_ABI_FP_exceptions
   6              		.eabi_attribute 23, 3	@ Tag_ABI_FP_number_model
   7              		.eabi_attribute 24, 1	@ Tag_ABI_align8_needed
   8              		.eabi_attribute 25, 1	@ Tag_ABI_align8_preserved
   9              		.eabi_attribute 26, 1	@ Tag_ABI_enum_size
  10              		.eabi_attribute 30, 6	@ Tag_ABI_optimization_goals
  11              		.eabi_attribute 34, 1	@ Tag_CPU_unaligned_access
  12              		.eabi_attribute 18, 4	@ Tag_ABI_PCS_wchar_t
  13              		.file	"hooks.c"
  14              	@ GNU C89 (GNU Tools for ARM Embedded Processors) version 5.4.1 20160919 (release) [ARM/embedded-5-
  15              	@	compiled by GNU C version 4.7.4, GMP version 4.3.2, MPFR version 2.4.2, MPC version 0.8.1
  16              	@ GGC heuristics: --param ggc-min-expand=100 --param ggc-min-heapsize=131072
  17              	@ options passed:  -I . -I config -I system -I core -I drivers -I FreeRTOS
  18              	@ -I FreeRTOS/include -I FreeRTOS/portable/GCC/ARM_CM3 -I FreeRTOS/portable
  19              	@ -I tasks/rc_task_leds -I modules/rc_leds -I drivers/rc_system
  20              	@ -I drivers/rc_gpio -I drivers/rc_uart -I drivers/rc_pinsel
  21              	@ -I drivers/rc_timer -I drivers/rc_adc -imultilib armv7-m
  22              	@ -iprefix c:\program files (x86)\gnu tools arm embedded\5.4 2016q3\bin\../lib/gcc/arm-none-eabi/5.
  23              	@ -isysroot c:\program files (x86)\gnu tools arm embedded\5.4 2016q3\bin\../arm-none-eabi
  24              	@ -MD out/hooks.d -MF out/hooks.d -MP -MQ out/hooks.o -D__USES_INITFINI__
  25              	@ FreeRTOS/hooks.c -mcpu=cortex-m3 -mthumb -auxbase-strip out/hooks.o -g
  26              	@ -ggdb3 -O0 -Wall -Wstrict-prototypes -Wextra -std=gnu90
  27              	@ -ffunction-sections -fdata-sections -fverbose-asm
  28              	@ options enabled:  -faggressive-loop-optimizations -fauto-inc-dec
  29              	@ -fchkp-check-incomplete-type -fchkp-check-read -fchkp-check-write
  30              	@ -fchkp-instrument-calls -fchkp-narrow-bounds -fchkp-optimize
  31              	@ -fchkp-store-bounds -fchkp-use-static-bounds
  32              	@ -fchkp-use-static-const-bounds -fchkp-use-wrappers -fcommon
  33              	@ -fdata-sections -fdelete-null-pointer-checks -fdwarf2-cfi-asm
  34              	@ -fearly-inlining -feliminate-unused-debug-types -ffunction-cse
  35              	@ -ffunction-sections -fgcse-lm -fgnu-runtime -fgnu-unique -fident
  36              	@ -finline-atomics -fira-hoist-pressure -fira-share-save-slots
  37              	@ -fira-share-spill-slots -fivopts -fkeep-static-consts
  38              	@ -fleading-underscore -flifetime-dse -flto-odr-type-merging -fmath-errno
  39              	@ -fmerge-debug-strings -fpeephole -fprefetch-loop-arrays
  40              	@ -freg-struct-return -fsched-critical-path-heuristic
  41              	@ -fsched-dep-count-heuristic -fsched-group-heuristic -fsched-interblock
  42              	@ -fsched-last-insn-heuristic -fsched-rank-heuristic -fsched-spec
  43              	@ -fsched-spec-insn-heuristic -fsched-stalled-insns-dep
  44              	@ -fsemantic-interposition -fshow-column -fsigned-zeros
  45              	@ -fsplit-ivs-in-unroller -fstdarg-opt -fstrict-volatile-bitfields
  46              	@ -fsync-libcalls -ftrapping-math -ftree-coalesce-vars -ftree-cselim
  47              	@ -ftree-forwprop -ftree-loop-if-convert -ftree-loop-im -ftree-loop-ivcanon
  48              	@ -ftree-loop-optimize -ftree-parallelize-loops= -ftree-phiprop
  49              	@ -ftree-reassoc -ftree-scev-cprop -funit-at-a-time -fverbose-asm
  50              	@ -fzero-initialized-in-bss -masm-syntax-unified -mfix-cortex-m3-ldrd
  51              	@ -mlittle-endian -mpic-data-is-text-relative -msched-prolog -mthumb
  52              	@ -munaligned-access -mvectorize-with-neon-quad
  53              	
  54              		.text
  55              	.Ltext0:
  56              		.cfi_sections	.debug_frame
  57              		.section	.text.vApplicationIdleHook,"ax",%progbits
ARM GAS  C:\Users\STUDENT\AppData\Local\Temp\ccFRnYLD.s 			page 2


  58              		.align	2
  59              		.global	vApplicationIdleHook
  60              		.thumb
  61              		.thumb_func
  62              		.type	vApplicationIdleHook, %function
  63              	vApplicationIdleHook:
  64              	.LFB0:
  65              		.file 1 "FreeRTOS/hooks.c"
   1:FreeRTOS/hooks.c **** /**\file 	hooks.c
   2:FreeRTOS/hooks.c ****  * \brief 	RTOS hooks
   3:FreeRTOS/hooks.c ****  * \details RTOS events hooks functions
   4:FreeRTOS/hooks.c ****  * \author 	Cosmin Marcu
   5:FreeRTOS/hooks.c ****  * \date 	20.12.2014
   6:FreeRTOS/hooks.c ****  */
   7:FreeRTOS/hooks.c **** 
   8:FreeRTOS/hooks.c **** //TODO: config assert
   9:FreeRTOS/hooks.c **** #include <assert.h>
  10:FreeRTOS/hooks.c **** 
  11:FreeRTOS/hooks.c **** /**
  12:FreeRTOS/hooks.c **** * \brief 	Free RTOS idle hook
  13:FreeRTOS/hooks.c **** * \details 	TBD.
  14:FreeRTOS/hooks.c **** */
  15:FreeRTOS/hooks.c **** void vApplicationIdleHook(void)
  16:FreeRTOS/hooks.c **** {
  66              		.loc 1 16 0
  67              		.cfi_startproc
  68              		@ args = 0, pretend = 0, frame = 0
  69              		@ frame_needed = 1, uses_anonymous_args = 0
  70              		@ link register save eliminated.
  71 0000 80B4     		push	{r7}	@
  72              		.cfi_def_cfa_offset 4
  73              		.cfi_offset 7, -4
  74 0002 00AF     		add	r7, sp, #0	@,,
  75              		.cfi_def_cfa_register 7
  17:FreeRTOS/hooks.c **** 	assert(1);
  18:FreeRTOS/hooks.c **** }
  76              		.loc 1 18 0
  77 0004 00BF     		nop
  78 0006 BD46     		mov	sp, r7	@,
  79              		.cfi_def_cfa_register 13
  80              		@ sp needed	@
  81 0008 80BC     		pop	{r7}	@
  82              		.cfi_restore 7
  83              		.cfi_def_cfa_offset 0
  84 000a 7047     		bx	lr	@
  85              		.cfi_endproc
  86              	.LFE0:
  87              		.size	vApplicationIdleHook, .-vApplicationIdleHook
  88              		.section	.text.vApplicationTickHook,"ax",%progbits
  89              		.align	2
  90              		.global	vApplicationTickHook
  91              		.thumb
  92              		.thumb_func
  93              		.type	vApplicationTickHook, %function
  94              	vApplicationTickHook:
  95              	.LFB1:
  19:FreeRTOS/hooks.c **** 
ARM GAS  C:\Users\STUDENT\AppData\Local\Temp\ccFRnYLD.s 			page 3


  20:FreeRTOS/hooks.c **** /**
  21:FreeRTOS/hooks.c **** * \brief 	Free RTOS tick hook
  22:FreeRTOS/hooks.c **** * \details 	TBD.
  23:FreeRTOS/hooks.c **** */
  24:FreeRTOS/hooks.c **** void vApplicationTickHook(void)
  25:FreeRTOS/hooks.c **** {
  96              		.loc 1 25 0
  97              		.cfi_startproc
  98              		@ args = 0, pretend = 0, frame = 0
  99              		@ frame_needed = 1, uses_anonymous_args = 0
 100              		@ link register save eliminated.
 101 0000 80B4     		push	{r7}	@
 102              		.cfi_def_cfa_offset 4
 103              		.cfi_offset 7, -4
 104 0002 00AF     		add	r7, sp, #0	@,,
 105              		.cfi_def_cfa_register 7
  26:FreeRTOS/hooks.c **** 
  27:FreeRTOS/hooks.c **** }
 106              		.loc 1 27 0
 107 0004 00BF     		nop
 108 0006 BD46     		mov	sp, r7	@,
 109              		.cfi_def_cfa_register 13
 110              		@ sp needed	@
 111 0008 80BC     		pop	{r7}	@
 112              		.cfi_restore 7
 113              		.cfi_def_cfa_offset 0
 114 000a 7047     		bx	lr	@
 115              		.cfi_endproc
 116              	.LFE1:
 117              		.size	vApplicationTickHook, .-vApplicationTickHook
 118              		.section	.text.vApplicationMallocFailedHook,"ax",%progbits
 119              		.align	2
 120              		.global	vApplicationMallocFailedHook
 121              		.thumb
 122              		.thumb_func
 123              		.type	vApplicationMallocFailedHook, %function
 124              	vApplicationMallocFailedHook:
 125              	.LFB2:
  28:FreeRTOS/hooks.c **** 
  29:FreeRTOS/hooks.c **** /**
  30:FreeRTOS/hooks.c **** * \brief 	Free RTOS memory allocation fail hook
  31:FreeRTOS/hooks.c **** * \details 	TBD.
  32:FreeRTOS/hooks.c **** */
  33:FreeRTOS/hooks.c **** void vApplicationMallocFailedHook(void)
  34:FreeRTOS/hooks.c **** {
 126              		.loc 1 34 0
 127              		.cfi_startproc
 128              		@ args = 0, pretend = 0, frame = 0
 129              		@ frame_needed = 1, uses_anonymous_args = 0
 130              		@ link register save eliminated.
 131 0000 80B4     		push	{r7}	@
 132              		.cfi_def_cfa_offset 4
 133              		.cfi_offset 7, -4
 134 0002 00AF     		add	r7, sp, #0	@,,
 135              		.cfi_def_cfa_register 7
  35:FreeRTOS/hooks.c **** 
  36:FreeRTOS/hooks.c **** }
ARM GAS  C:\Users\STUDENT\AppData\Local\Temp\ccFRnYLD.s 			page 4


 136              		.loc 1 36 0
 137 0004 00BF     		nop
 138 0006 BD46     		mov	sp, r7	@,
 139              		.cfi_def_cfa_register 13
 140              		@ sp needed	@
 141 0008 80BC     		pop	{r7}	@
 142              		.cfi_restore 7
 143              		.cfi_def_cfa_offset 0
 144 000a 7047     		bx	lr	@
 145              		.cfi_endproc
 146              	.LFE2:
 147              		.size	vApplicationMallocFailedHook, .-vApplicationMallocFailedHook
 148              		.text
 149              	.Letext0: