ARM GAS  C:\Users\COSMIN~1.MAR\AppData\Local\Temp\ccwScxSK.s 			page 1


   1              		.syntax unified
   2              		.cpu cortex-m3
   3              		.fpu softvfp
   4              		.eabi_attribute 20, 1	@ Tag_ABI_FP_denormal
   5              		.eabi_attribute 21, 1	@ Tag_ABI_FP_exceptions
   6              		.eabi_attribute 23, 3	@ Tag_ABI_FP_number_model
   7              		.eabi_attribute 24, 1	@ Tag_ABI_align8_needed
   8              		.eabi_attribute 25, 1	@ Tag_ABI_align8_preserved
   9              		.eabi_attribute 26, 1	@ Tag_ABI_enum_size
  10              		.eabi_attribute 30, 6	@ Tag_ABI_optimization_goals
  11              		.eabi_attribute 34, 1	@ Tag_CPU_unaligned_access
  12              		.eabi_attribute 18, 4	@ Tag_ABI_PCS_wchar_t
  13              		.file	"list.c"
  14              	@ GNU C (GNU Tools for ARM Embedded Processors) version 4.9.3 20150303 (release) [ARM/embedded-4_9-
  15              	@	compiled by GNU C version 4.7.4, GMP version 4.3.2, MPFR version 2.4.2, MPC version 0.8.1
  16              	@ GGC heuristics: --param ggc-min-expand=100 --param ggc-min-heapsize=131072
  17              	@ options passed:  -I . -I config -I system -I core -I drivers -I FreeRTOS
  18              	@ -I FreeRTOS/include -I FreeRTOS/portable/GCC/ARM_CM3 -I FreeRTOS/portable
  19              	@ -I tasks/rc_task_leds -I modules/rc_leds -I drivers/rc_system
  20              	@ -I drivers/rc_gpio -I drivers/rc_uart -I drivers/rc_pinsel
  21              	@ -I drivers/rc_timer -I drivers/rc_adc -imultilib armv7-m
  22              	@ -iprefix c:\gnu tools arm embedded\4.9 2015q1\bin\../lib/gcc/arm-none-eabi/4.9.3/
  23              	@ -isysroot c:\gnu tools arm embedded\4.9 2015q1\bin\../arm-none-eabi
  24              	@ -MD out/list.d -MF out/list.d -MP -MQ out/list.o -D__USES_INITFINI__
  25              	@ FreeRTOS/list.c -mcpu=cortex-m3 -mthumb -auxbase-strip out/list.o -g
  26              	@ -ggdb3 -O0 -Wall -Wstrict-prototypes -Wextra -std=gnu90
  27              	@ -ffunction-sections -fdata-sections -fverbose-asm
  28              	@ options enabled:  -faggressive-loop-optimizations -fauto-inc-dec -fcommon
  29              	@ -fdata-sections -fdelete-null-pointer-checks -fdwarf2-cfi-asm
  30              	@ -fearly-inlining -feliminate-unused-debug-types -ffunction-cse
  31              	@ -ffunction-sections -fgcse-lm -fgnu-runtime -fgnu-unique -fident
  32              	@ -finline-atomics -fira-hoist-pressure -fira-share-save-slots
  33              	@ -fira-share-spill-slots -fivopts -fkeep-static-consts
  34              	@ -fleading-underscore -flifetime-dse -fmath-errno -fmerge-debug-strings
  35              	@ -fpeephole -fprefetch-loop-arrays -freg-struct-return
  36              	@ -fsched-critical-path-heuristic -fsched-dep-count-heuristic
  37              	@ -fsched-group-heuristic -fsched-interblock -fsched-last-insn-heuristic
  38              	@ -fsched-rank-heuristic -fsched-spec -fsched-spec-insn-heuristic
  39              	@ -fsched-stalled-insns-dep -fshow-column -fsigned-zeros
  40              	@ -fsplit-ivs-in-unroller -fstrict-volatile-bitfields -fsync-libcalls
  41              	@ -ftrapping-math -ftree-coalesce-vars -ftree-cselim -ftree-forwprop
  42              	@ -ftree-loop-if-convert -ftree-loop-im -ftree-loop-ivcanon
  43              	@ -ftree-loop-optimize -ftree-parallelize-loops= -ftree-phiprop
  44              	@ -ftree-reassoc -ftree-scev-cprop -funit-at-a-time -fverbose-asm
  45              	@ -fzero-initialized-in-bss -mfix-cortex-m3-ldrd -mlittle-endian -mlra
  46              	@ -mpic-data-is-text-relative -msched-prolog -mthumb -munaligned-access
  47              	@ -mvectorize-with-neon-quad
  48              	
  49              		.text
  50              	.Ltext0:
  51              		.cfi_sections	.debug_frame
  52              		.section	.text.vListInitialise,"ax",%progbits
  53              		.align	2
  54              		.global	vListInitialise
  55              		.thumb
  56              		.thumb_func
  57              		.type	vListInitialise, %function
ARM GAS  C:\Users\COSMIN~1.MAR\AppData\Local\Temp\ccwScxSK.s 			page 2


  58              	vListInitialise:
  59              	.LFB1:
  60              		.file 1 "FreeRTOS/list.c"
   1:FreeRTOS/list.c **** /*
   2:FreeRTOS/list.c ****     FreeRTOS V8.1.2 - Copyright (C) 2014 Real Time Engineers Ltd.
   3:FreeRTOS/list.c ****     All rights reserved
   4:FreeRTOS/list.c **** 
   5:FreeRTOS/list.c ****     VISIT http://www.FreeRTOS.org TO ENSURE YOU ARE USING THE LATEST VERSION.
   6:FreeRTOS/list.c **** 
   7:FreeRTOS/list.c ****     ***************************************************************************
   8:FreeRTOS/list.c ****      *                                                                       *
   9:FreeRTOS/list.c ****      *    FreeRTOS provides completely free yet professionally developed,    *
  10:FreeRTOS/list.c ****      *    robust, strictly quality controlled, supported, and cross          *
  11:FreeRTOS/list.c ****      *    platform software that has become a de facto standard.             *
  12:FreeRTOS/list.c ****      *                                                                       *
  13:FreeRTOS/list.c ****      *    Help yourself get started quickly and support the FreeRTOS         *
  14:FreeRTOS/list.c ****      *    project by purchasing a FreeRTOS tutorial book, reference          *
  15:FreeRTOS/list.c ****      *    manual, or both from: http://www.FreeRTOS.org/Documentation        *
  16:FreeRTOS/list.c ****      *                                                                       *
  17:FreeRTOS/list.c ****      *    Thank you!                                                         *
  18:FreeRTOS/list.c ****      *                                                                       *
  19:FreeRTOS/list.c ****     ***************************************************************************
  20:FreeRTOS/list.c **** 
  21:FreeRTOS/list.c ****     This file is part of the FreeRTOS distribution.
  22:FreeRTOS/list.c **** 
  23:FreeRTOS/list.c ****     FreeRTOS is free software; you can redistribute it and/or modify it under
  24:FreeRTOS/list.c ****     the terms of the GNU General Public License (version 2) as published by the
  25:FreeRTOS/list.c ****     Free Software Foundation >>!AND MODIFIED BY!<< the FreeRTOS exception.
  26:FreeRTOS/list.c **** 
  27:FreeRTOS/list.c ****     >>!   NOTE: The modification to the GPL is included to allow you to     !<<
  28:FreeRTOS/list.c ****     >>!   distribute a combined work that includes FreeRTOS without being   !<<
  29:FreeRTOS/list.c ****     >>!   obliged to provide the source code for proprietary components     !<<
  30:FreeRTOS/list.c ****     >>!   outside of the FreeRTOS kernel.                                   !<<
  31:FreeRTOS/list.c **** 
  32:FreeRTOS/list.c ****     FreeRTOS is distributed in the hope that it will be useful, but WITHOUT ANY
  33:FreeRTOS/list.c ****     WARRANTY; without even the implied warranty of MERCHANTABILITY or FITNESS
  34:FreeRTOS/list.c ****     FOR A PARTICULAR PURPOSE.  Full license text is available from the following
  35:FreeRTOS/list.c ****     link: http://www.freertos.org/a00114.html
  36:FreeRTOS/list.c **** 
  37:FreeRTOS/list.c ****     1 tab == 4 spaces!
  38:FreeRTOS/list.c **** 
  39:FreeRTOS/list.c ****     ***************************************************************************
  40:FreeRTOS/list.c ****      *                                                                       *
  41:FreeRTOS/list.c ****      *    Having a problem?  Start by reading the FAQ "My application does   *
  42:FreeRTOS/list.c ****      *    not run, what could be wrong?"                                     *
  43:FreeRTOS/list.c ****      *                                                                       *
  44:FreeRTOS/list.c ****      *    http://www.FreeRTOS.org/FAQHelp.html                               *
  45:FreeRTOS/list.c ****      *                                                                       *
  46:FreeRTOS/list.c ****     ***************************************************************************
  47:FreeRTOS/list.c **** 
  48:FreeRTOS/list.c ****     http://www.FreeRTOS.org - Documentation, books, training, latest versions,
  49:FreeRTOS/list.c ****     license and Real Time Engineers Ltd. contact details.
  50:FreeRTOS/list.c **** 
  51:FreeRTOS/list.c ****     http://www.FreeRTOS.org/plus - A selection of FreeRTOS ecosystem products,
  52:FreeRTOS/list.c ****     including FreeRTOS+Trace - an indispensable productivity tool, a DOS
  53:FreeRTOS/list.c ****     compatible FAT file system, and our tiny thread aware UDP/IP stack.
  54:FreeRTOS/list.c **** 
ARM GAS  C:\Users\COSMIN~1.MAR\AppData\Local\Temp\ccwScxSK.s 			page 3


  55:FreeRTOS/list.c ****     http://www.OpenRTOS.com - Real Time Engineers ltd license FreeRTOS to High
  56:FreeRTOS/list.c ****     Integrity Systems to sell under the OpenRTOS brand.  Low cost OpenRTOS
  57:FreeRTOS/list.c ****     licenses offer ticketed support, indemnification and middleware.
  58:FreeRTOS/list.c **** 
  59:FreeRTOS/list.c ****     http://www.SafeRTOS.com - High Integrity Systems also provide a safety
  60:FreeRTOS/list.c ****     engineered and independently SIL3 certified version for use in safety and
  61:FreeRTOS/list.c ****     mission critical applications that require provable dependability.
  62:FreeRTOS/list.c **** 
  63:FreeRTOS/list.c ****     1 tab == 4 spaces!
  64:FreeRTOS/list.c **** */
  65:FreeRTOS/list.c **** 
  66:FreeRTOS/list.c **** 
  67:FreeRTOS/list.c **** #include <stdlib.h>
  68:FreeRTOS/list.c **** #include "FreeRTOS.h"
  69:FreeRTOS/list.c **** #include "list.h"
  70:FreeRTOS/list.c **** 
  71:FreeRTOS/list.c **** /*-----------------------------------------------------------
  72:FreeRTOS/list.c ****  * PUBLIC LIST API documented in list.h
  73:FreeRTOS/list.c ****  *----------------------------------------------------------*/
  74:FreeRTOS/list.c **** 
  75:FreeRTOS/list.c **** void vListInitialise( List_t * const pxList )
  76:FreeRTOS/list.c **** {
  61              		.loc 1 76 0
  62              		.cfi_startproc
  63              		@ args = 0, pretend = 0, frame = 8
  64              		@ frame_needed = 1, uses_anonymous_args = 0
  65              		@ link register save eliminated.
  66 0000 80B4     		push	{r7}	@
  67              		.cfi_def_cfa_offset 4
  68              		.cfi_offset 7, -4
  69 0002 83B0     		sub	sp, sp, #12	@,,
  70              		.cfi_def_cfa_offset 16
  71 0004 00AF     		add	r7, sp, #0	@,,
  72              		.cfi_def_cfa_register 7
  73 0006 7860     		str	r0, [r7, #4]	@ pxList, pxList
  77:FreeRTOS/list.c **** 	/* The list structure contains a list item which is used to mark the
  78:FreeRTOS/list.c **** 	end of the list.  To initialise the list the list end is inserted
  79:FreeRTOS/list.c **** 	as the only list entry. */
  80:FreeRTOS/list.c **** 	pxList->pxIndex = ( ListItem_t * ) &( pxList->xListEnd );			/*lint !e826 !e740 The mini list struc
  74              		.loc 1 80 0
  75 0008 7B68     		ldr	r3, [r7, #4]	@ tmp113, pxList
  76 000a 03F10802 		add	r2, r3, #8	@ D.4841, tmp113,
  77 000e 7B68     		ldr	r3, [r7, #4]	@ tmp114, pxList
  78 0010 5A60     		str	r2, [r3, #4]	@ D.4841, pxList_1(D)->pxIndex
  81:FreeRTOS/list.c **** 
  82:FreeRTOS/list.c **** 	/* The list end value is the highest possible value in the list to
  83:FreeRTOS/list.c **** 	ensure it remains at the end of the list. */
  84:FreeRTOS/list.c **** 	pxList->xListEnd.xItemValue = portMAX_DELAY;
  79              		.loc 1 84 0
  80 0012 7B68     		ldr	r3, [r7, #4]	@ tmp115, pxList
  81 0014 4FF0FF32 		mov	r2, #-1	@ tmp116,
  82 0018 9A60     		str	r2, [r3, #8]	@ tmp116, pxList_1(D)->xListEnd.xItemValue
  85:FreeRTOS/list.c **** 
  86:FreeRTOS/list.c **** 	/* The list end next and previous pointers point to itself so we know
  87:FreeRTOS/list.c **** 	when the list is empty. */
  88:FreeRTOS/list.c **** 	pxList->xListEnd.pxNext = ( ListItem_t * ) &( pxList->xListEnd );	/*lint !e826 !e740 The mini list
  83              		.loc 1 88 0
ARM GAS  C:\Users\COSMIN~1.MAR\AppData\Local\Temp\ccwScxSK.s 			page 4


  84 001a 7B68     		ldr	r3, [r7, #4]	@ tmp117, pxList
  85 001c 03F10802 		add	r2, r3, #8	@ D.4841, tmp117,
  86 0020 7B68     		ldr	r3, [r7, #4]	@ tmp118, pxList
  87 0022 DA60     		str	r2, [r3, #12]	@ D.4841, pxList_1(D)->xListEnd.pxNext
  89:FreeRTOS/list.c **** 	pxList->xListEnd.pxPrevious = ( ListItem_t * ) &( pxList->xListEnd );/*lint !e826 !e740 The mini l
  88              		.loc 1 89 0
  89 0024 7B68     		ldr	r3, [r7, #4]	@ tmp119, pxList
  90 0026 03F10802 		add	r2, r3, #8	@ D.4841, tmp119,
  91 002a 7B68     		ldr	r3, [r7, #4]	@ tmp120, pxList
  92 002c 1A61     		str	r2, [r3, #16]	@ D.4841, pxList_1(D)->xListEnd.pxPrevious
  90:FreeRTOS/list.c **** 
  91:FreeRTOS/list.c **** 	pxList->uxNumberOfItems = ( UBaseT_t ) 0U;
  93              		.loc 1 91 0
  94 002e 7B68     		ldr	r3, [r7, #4]	@ tmp121, pxList
  95 0030 0022     		movs	r2, #0	@ tmp122,
  96 0032 1A60     		str	r2, [r3]	@ tmp122, pxList_1(D)->uxNumberOfItems
  92:FreeRTOS/list.c **** }
  97              		.loc 1 92 0
  98 0034 0C37     		adds	r7, r7, #12	@,,
  99              		.cfi_def_cfa_offset 4
 100 0036 BD46     		mov	sp, r7	@,
 101              		.cfi_def_cfa_register 13
 102              		@ sp needed	@
 103 0038 5DF8047B 		ldr	r7, [sp], #4	@,
 104              		.cfi_restore 7
 105              		.cfi_def_cfa_offset 0
 106 003c 7047     		bx	lr	@
 107              		.cfi_endproc
 108              	.LFE1:
 109              		.size	vListInitialise, .-vListInitialise
 110 003e 00BF     		.section	.text.vListInitialiseItem,"ax",%progbits
 111              		.align	2
 112              		.global	vListInitialiseItem
 113              		.thumb
 114              		.thumb_func
 115              		.type	vListInitialiseItem, %function
 116              	vListInitialiseItem:
 117              	.LFB2:
  93:FreeRTOS/list.c **** /*-----------------------------------------------------------*/
  94:FreeRTOS/list.c **** 
  95:FreeRTOS/list.c **** void vListInitialiseItem( ListItem_t * const pxItem )
  96:FreeRTOS/list.c **** {
 118              		.loc 1 96 0
 119              		.cfi_startproc
 120              		@ args = 0, pretend = 0, frame = 8
 121              		@ frame_needed = 1, uses_anonymous_args = 0
 122              		@ link register save eliminated.
 123 0000 80B4     		push	{r7}	@
 124              		.cfi_def_cfa_offset 4
 125              		.cfi_offset 7, -4
 126 0002 83B0     		sub	sp, sp, #12	@,,
 127              		.cfi_def_cfa_offset 16
 128 0004 00AF     		add	r7, sp, #0	@,,
 129              		.cfi_def_cfa_register 7
 130 0006 7860     		str	r0, [r7, #4]	@ pxItem, pxItem
  97:FreeRTOS/list.c **** 	/* Make sure the list item is not recorded as being on a list. */
  98:FreeRTOS/list.c **** 	pxItem->pvContainer = NULL;
ARM GAS  C:\Users\COSMIN~1.MAR\AppData\Local\Temp\ccwScxSK.s 			page 5


 131              		.loc 1 98 0
 132 0008 7B68     		ldr	r3, [r7, #4]	@ tmp110, pxItem
 133 000a 0022     		movs	r2, #0	@ tmp111,
 134 000c 1A61     		str	r2, [r3, #16]	@ tmp111, pxItem_1(D)->pvContainer
  99:FreeRTOS/list.c **** }
 135              		.loc 1 99 0
 136 000e 0C37     		adds	r7, r7, #12	@,,
 137              		.cfi_def_cfa_offset 4
 138 0010 BD46     		mov	sp, r7	@,
 139              		.cfi_def_cfa_register 13
 140              		@ sp needed	@
 141 0012 5DF8047B 		ldr	r7, [sp], #4	@,
 142              		.cfi_restore 7
 143              		.cfi_def_cfa_offset 0
 144 0016 7047     		bx	lr	@
 145              		.cfi_endproc
 146              	.LFE2:
 147              		.size	vListInitialiseItem, .-vListInitialiseItem
 148              		.section	.text.vListInsertEnd,"ax",%progbits
 149              		.align	2
 150              		.global	vListInsertEnd
 151              		.thumb
 152              		.thumb_func
 153              		.type	vListInsertEnd, %function
 154              	vListInsertEnd:
 155              	.LFB3:
 100:FreeRTOS/list.c **** /*-----------------------------------------------------------*/
 101:FreeRTOS/list.c **** 
 102:FreeRTOS/list.c **** void vListInsertEnd( List_t * const pxList, ListItem_t * const pxNewListItem )
 103:FreeRTOS/list.c **** {
 156              		.loc 1 103 0
 157              		.cfi_startproc
 158              		@ args = 0, pretend = 0, frame = 16
 159              		@ frame_needed = 1, uses_anonymous_args = 0
 160              		@ link register save eliminated.
 161 0000 80B4     		push	{r7}	@
 162              		.cfi_def_cfa_offset 4
 163              		.cfi_offset 7, -4
 164 0002 85B0     		sub	sp, sp, #20	@,,
 165              		.cfi_def_cfa_offset 24
 166 0004 00AF     		add	r7, sp, #0	@,,
 167              		.cfi_def_cfa_register 7
 168 0006 7860     		str	r0, [r7, #4]	@ pxList, pxList
 169 0008 3960     		str	r1, [r7]	@ pxNewListItem, pxNewListItem
 104:FreeRTOS/list.c **** ListItem_t * const pxIndex = pxList->pxIndex;
 170              		.loc 1 104 0
 171 000a 7B68     		ldr	r3, [r7, #4]	@ tmp114, pxList
 172 000c 5B68     		ldr	r3, [r3, #4]	@ tmp115, pxList_1(D)->pxIndex
 173 000e FB60     		str	r3, [r7, #12]	@ tmp115, pxIndex
 105:FreeRTOS/list.c **** 
 106:FreeRTOS/list.c **** 	/* Insert a new list item into pxList, but rather than sort the list,
 107:FreeRTOS/list.c **** 	makes the new list item the last item to be removed by a call to
 108:FreeRTOS/list.c **** 	listGET_OWNER_OF_NEXT_ENTRY(). */
 109:FreeRTOS/list.c **** 	pxNewListItem->pxNext = pxIndex;
 174              		.loc 1 109 0
 175 0010 3B68     		ldr	r3, [r7]	@ tmp116, pxNewListItem
 176 0012 FA68     		ldr	r2, [r7, #12]	@ tmp117, pxIndex
ARM GAS  C:\Users\COSMIN~1.MAR\AppData\Local\Temp\ccwScxSK.s 			page 6


 177 0014 5A60     		str	r2, [r3, #4]	@ tmp117, pxNewListItem_3(D)->pxNext
 110:FreeRTOS/list.c **** 	pxNewListItem->pxPrevious = pxIndex->pxPrevious;
 178              		.loc 1 110 0
 179 0016 FB68     		ldr	r3, [r7, #12]	@ tmp118, pxIndex
 180 0018 9A68     		ldr	r2, [r3, #8]	@ D.4842, pxIndex_2->pxPrevious
 181 001a 3B68     		ldr	r3, [r7]	@ tmp119, pxNewListItem
 182 001c 9A60     		str	r2, [r3, #8]	@ D.4842, pxNewListItem_3(D)->pxPrevious
 111:FreeRTOS/list.c **** 	pxIndex->pxPrevious->pxNext = pxNewListItem;
 183              		.loc 1 111 0
 184 001e FB68     		ldr	r3, [r7, #12]	@ tmp120, pxIndex
 185 0020 9B68     		ldr	r3, [r3, #8]	@ D.4842, pxIndex_2->pxPrevious
 186 0022 3A68     		ldr	r2, [r7]	@ tmp121, pxNewListItem
 187 0024 5A60     		str	r2, [r3, #4]	@ tmp121, _5->pxNext
 112:FreeRTOS/list.c **** 	pxIndex->pxPrevious = pxNewListItem;
 188              		.loc 1 112 0
 189 0026 FB68     		ldr	r3, [r7, #12]	@ tmp122, pxIndex
 190 0028 3A68     		ldr	r2, [r7]	@ tmp123, pxNewListItem
 191 002a 9A60     		str	r2, [r3, #8]	@ tmp123, pxIndex_2->pxPrevious
 113:FreeRTOS/list.c **** 
 114:FreeRTOS/list.c **** 	/* Remember which list the item is in. */
 115:FreeRTOS/list.c **** 	pxNewListItem->pvContainer = ( void * ) pxList;
 192              		.loc 1 115 0
 193 002c 3B68     		ldr	r3, [r7]	@ tmp124, pxNewListItem
 194 002e 7A68     		ldr	r2, [r7, #4]	@ tmp125, pxList
 195 0030 1A61     		str	r2, [r3, #16]	@ tmp125, pxNewListItem_3(D)->pvContainer
 116:FreeRTOS/list.c **** 
 117:FreeRTOS/list.c **** 	( pxList->uxNumberOfItems )++;
 196              		.loc 1 117 0
 197 0032 7B68     		ldr	r3, [r7, #4]	@ tmp126, pxList
 198 0034 1B68     		ldr	r3, [r3]	@ D.4843, pxList_1(D)->uxNumberOfItems
 199 0036 5A1C     		adds	r2, r3, #1	@ D.4843, D.4843,
 200 0038 7B68     		ldr	r3, [r7, #4]	@ tmp127, pxList
 201 003a 1A60     		str	r2, [r3]	@ D.4843, pxList_1(D)->uxNumberOfItems
 118:FreeRTOS/list.c **** }
 202              		.loc 1 118 0
 203 003c 1437     		adds	r7, r7, #20	@,,
 204              		.cfi_def_cfa_offset 4
 205 003e BD46     		mov	sp, r7	@,
 206              		.cfi_def_cfa_register 13
 207              		@ sp needed	@
 208 0040 5DF8047B 		ldr	r7, [sp], #4	@,
 209              		.cfi_restore 7
 210              		.cfi_def_cfa_offset 0
 211 0044 7047     		bx	lr	@
 212              		.cfi_endproc
 213              	.LFE3:
 214              		.size	vListInsertEnd, .-vListInsertEnd
 215 0046 00BF     		.section	.text.vListInsert,"ax",%progbits
 216              		.align	2
 217              		.global	vListInsert
 218              		.thumb
 219              		.thumb_func
 220              		.type	vListInsert, %function
 221              	vListInsert:
 222              	.LFB4:
 119:FreeRTOS/list.c **** /*-----------------------------------------------------------*/
 120:FreeRTOS/list.c **** 
ARM GAS  C:\Users\COSMIN~1.MAR\AppData\Local\Temp\ccwScxSK.s 			page 7


 121:FreeRTOS/list.c **** void vListInsert( List_t * const pxList, ListItem_t * const pxNewListItem )
 122:FreeRTOS/list.c **** {
 223              		.loc 1 122 0
 224              		.cfi_startproc
 225              		@ args = 0, pretend = 0, frame = 16
 226              		@ frame_needed = 1, uses_anonymous_args = 0
 227              		@ link register save eliminated.
 228 0000 80B4     		push	{r7}	@
 229              		.cfi_def_cfa_offset 4
 230              		.cfi_offset 7, -4
 231 0002 85B0     		sub	sp, sp, #20	@,,
 232              		.cfi_def_cfa_offset 24
 233 0004 00AF     		add	r7, sp, #0	@,,
 234              		.cfi_def_cfa_register 7
 235 0006 7860     		str	r0, [r7, #4]	@ pxList, pxList
 236 0008 3960     		str	r1, [r7]	@ pxNewListItem, pxNewListItem
 123:FreeRTOS/list.c **** ListItem_t *pxIterator;
 124:FreeRTOS/list.c **** const TickT_t xValueOfInsertion = pxNewListItem->xItemValue;
 237              		.loc 1 124 0
 238 000a 3B68     		ldr	r3, [r7]	@ tmp116, pxNewListItem
 239 000c 1B68     		ldr	r3, [r3]	@ tmp117, pxNewListItem_3(D)->xItemValue
 240 000e BB60     		str	r3, [r7, #8]	@ tmp117, xValueOfInsertion
 125:FreeRTOS/list.c **** 
 126:FreeRTOS/list.c **** 	/* Insert the new list item into the list, sorted in xItemValue order.
 127:FreeRTOS/list.c **** 
 128:FreeRTOS/list.c **** 	If the list already contains a list item with the same item value then
 129:FreeRTOS/list.c **** 	the new list item should be placed after it.  This ensures that TCB's which
 130:FreeRTOS/list.c **** 	are stored in ready lists (all of which have the same xItemValue value)
 131:FreeRTOS/list.c **** 	get an equal share of the CPU.  However, if the xItemValue is the same as
 132:FreeRTOS/list.c **** 	the back marker the iteration loop below will not end.  This means we need
 133:FreeRTOS/list.c **** 	to guard against this by checking the value first and modifying the
 134:FreeRTOS/list.c **** 	algorithm slightly if necessary. */
 135:FreeRTOS/list.c **** 	if( xValueOfInsertion == portMAX_DELAY )
 241              		.loc 1 135 0
 242 0010 BB68     		ldr	r3, [r7, #8]	@ tmp118, xValueOfInsertion
 243 0012 B3F1FF3F 		cmp	r3, #-1	@ tmp118,
 244 0016 03D1     		bne	.L5	@,
 136:FreeRTOS/list.c **** 	{
 137:FreeRTOS/list.c **** 		pxIterator = pxList->xListEnd.pxPrevious;
 245              		.loc 1 137 0
 246 0018 7B68     		ldr	r3, [r7, #4]	@ tmp119, pxList
 247 001a 1B69     		ldr	r3, [r3, #16]	@ tmp120, pxList_5(D)->xListEnd.pxPrevious
 248 001c FB60     		str	r3, [r7, #12]	@ tmp120, pxIterator
 249 001e 0CE0     		b	.L6	@
 250              	.L5:
 138:FreeRTOS/list.c **** 	}
 139:FreeRTOS/list.c **** 	else
 140:FreeRTOS/list.c **** 	{
 141:FreeRTOS/list.c **** 		/* *** NOTE ***********************************************************
 142:FreeRTOS/list.c **** 		If you find your application is crashing here then likely causes are:
 143:FreeRTOS/list.c **** 			1) Stack overflow -
 144:FreeRTOS/list.c **** 			   see http://www.freertos.org/Stacks-and-stack-overflow-checking.html
 145:FreeRTOS/list.c **** 			2) Incorrect interrupt priority assignment, especially on Cortex-M3
 146:FreeRTOS/list.c **** 			   parts where numerically high priority values denote low actual
 147:FreeRTOS/list.c **** 			   interrupt priorities, which can seem counter intuitive.  See
 148:FreeRTOS/list.c **** 			   configMAX_SYSCALL_INTERRUPT_PRIORITY on http://www.freertos.org/a00110.html
 149:FreeRTOS/list.c **** 			3) Calling an API function from within a critical section or when
ARM GAS  C:\Users\COSMIN~1.MAR\AppData\Local\Temp\ccwScxSK.s 			page 8


 150:FreeRTOS/list.c **** 			   the scheduler is suspended, or calling an API function that does
 151:FreeRTOS/list.c **** 			   not end in "FromISR" from an interrupt.
 152:FreeRTOS/list.c **** 			4) Using a queue or semaphore before it has been initialised or
 153:FreeRTOS/list.c **** 			   before the scheduler has been started (are interrupts firing
 154:FreeRTOS/list.c **** 			   before vTaskStartScheduler() has been called?).
 155:FreeRTOS/list.c **** 		See http://www.freertos.org/FAQHelp.html for more tips, and ensure
 156:FreeRTOS/list.c **** 		configASSERT() is defined!  http://www.freertos.org/a00110.html#configASSERT
 157:FreeRTOS/list.c **** 		**********************************************************************/
 158:FreeRTOS/list.c **** 
 159:FreeRTOS/list.c **** 		for( pxIterator = ( ListItem_t * ) &( pxList->xListEnd ); pxIterator->pxNext->xItemValue <= xValu
 251              		.loc 1 159 0
 252 0020 7B68     		ldr	r3, [r7, #4]	@ tmp122, pxList
 253 0022 0833     		adds	r3, r3, #8	@ tmp121, tmp122,
 254 0024 FB60     		str	r3, [r7, #12]	@ tmp121, pxIterator
 255 0026 02E0     		b	.L7	@
 256              	.L8:
 257              		.loc 1 159 0 is_stmt 0 discriminator 3
 258 0028 FB68     		ldr	r3, [r7, #12]	@ tmp123, pxIterator
 259 002a 5B68     		ldr	r3, [r3, #4]	@ tmp124, pxIterator_1->pxNext
 260 002c FB60     		str	r3, [r7, #12]	@ tmp124, pxIterator
 261              	.L7:
 262              		.loc 1 159 0 discriminator 1
 263 002e FB68     		ldr	r3, [r7, #12]	@ tmp125, pxIterator
 264 0030 5B68     		ldr	r3, [r3, #4]	@ D.4844, pxIterator_1->pxNext
 265 0032 1A68     		ldr	r2, [r3]	@ D.4845, _8->xItemValue
 266 0034 BB68     		ldr	r3, [r7, #8]	@ tmp126, xValueOfInsertion
 267 0036 9A42     		cmp	r2, r3	@ D.4845, tmp126
 268 0038 F6D9     		bls	.L8	@,
 269              	.L6:
 160:FreeRTOS/list.c **** 		{
 161:FreeRTOS/list.c **** 			/* There is nothing to do here, we are just iterating to the
 162:FreeRTOS/list.c **** 			wanted insertion position. */
 163:FreeRTOS/list.c **** 		}
 164:FreeRTOS/list.c **** 	}
 165:FreeRTOS/list.c **** 
 166:FreeRTOS/list.c **** 	pxNewListItem->pxNext = pxIterator->pxNext;
 270              		.loc 1 166 0 is_stmt 1
 271 003a FB68     		ldr	r3, [r7, #12]	@ tmp127, pxIterator
 272 003c 5A68     		ldr	r2, [r3, #4]	@ D.4844, pxIterator_2->pxNext
 273 003e 3B68     		ldr	r3, [r7]	@ tmp128, pxNewListItem
 274 0040 5A60     		str	r2, [r3, #4]	@ D.4844, pxNewListItem_3(D)->pxNext
 167:FreeRTOS/list.c **** 	pxNewListItem->pxNext->pxPrevious = pxNewListItem;
 275              		.loc 1 167 0
 276 0042 3B68     		ldr	r3, [r7]	@ tmp129, pxNewListItem
 277 0044 5B68     		ldr	r3, [r3, #4]	@ D.4844, pxNewListItem_3(D)->pxNext
 278 0046 3A68     		ldr	r2, [r7]	@ tmp130, pxNewListItem
 279 0048 9A60     		str	r2, [r3, #8]	@ tmp130, _12->pxPrevious
 168:FreeRTOS/list.c **** 	pxNewListItem->pxPrevious = pxIterator;
 280              		.loc 1 168 0
 281 004a 3B68     		ldr	r3, [r7]	@ tmp131, pxNewListItem
 282 004c FA68     		ldr	r2, [r7, #12]	@ tmp132, pxIterator
 283 004e 9A60     		str	r2, [r3, #8]	@ tmp132, pxNewListItem_3(D)->pxPrevious
 169:FreeRTOS/list.c **** 	pxIterator->pxNext = pxNewListItem;
 284              		.loc 1 169 0
 285 0050 FB68     		ldr	r3, [r7, #12]	@ tmp133, pxIterator
 286 0052 3A68     		ldr	r2, [r7]	@ tmp134, pxNewListItem
 287 0054 5A60     		str	r2, [r3, #4]	@ tmp134, pxIterator_2->pxNext
ARM GAS  C:\Users\COSMIN~1.MAR\AppData\Local\Temp\ccwScxSK.s 			page 9


 170:FreeRTOS/list.c **** 
 171:FreeRTOS/list.c **** 	/* Remember which list the item is in.  This allows fast removal of the
 172:FreeRTOS/list.c **** 	item later. */
 173:FreeRTOS/list.c **** 	pxNewListItem->pvContainer = ( void * ) pxList;
 288              		.loc 1 173 0
 289 0056 3B68     		ldr	r3, [r7]	@ tmp135, pxNewListItem
 290 0058 7A68     		ldr	r2, [r7, #4]	@ tmp136, pxList
 291 005a 1A61     		str	r2, [r3, #16]	@ tmp136, pxNewListItem_3(D)->pvContainer
 174:FreeRTOS/list.c **** 
 175:FreeRTOS/list.c **** 	( pxList->uxNumberOfItems )++;
 292              		.loc 1 175 0
 293 005c 7B68     		ldr	r3, [r7, #4]	@ tmp137, pxList
 294 005e 1B68     		ldr	r3, [r3]	@ D.4845, pxList_5(D)->uxNumberOfItems
 295 0060 5A1C     		adds	r2, r3, #1	@ D.4845, D.4845,
 296 0062 7B68     		ldr	r3, [r7, #4]	@ tmp138, pxList
 297 0064 1A60     		str	r2, [r3]	@ D.4845, pxList_5(D)->uxNumberOfItems
 176:FreeRTOS/list.c **** }
 298              		.loc 1 176 0
 299 0066 1437     		adds	r7, r7, #20	@,,
 300              		.cfi_def_cfa_offset 4
 301 0068 BD46     		mov	sp, r7	@,
 302              		.cfi_def_cfa_register 13
 303              		@ sp needed	@
 304 006a 5DF8047B 		ldr	r7, [sp], #4	@,
 305              		.cfi_restore 7
 306              		.cfi_def_cfa_offset 0
 307 006e 7047     		bx	lr	@
 308              		.cfi_endproc
 309              	.LFE4:
 310              		.size	vListInsert, .-vListInsert
 311              		.section	.text.uxListRemove,"ax",%progbits
 312              		.align	2
 313              		.global	uxListRemove
 314              		.thumb
 315              		.thumb_func
 316              		.type	uxListRemove, %function
 317              	uxListRemove:
 318              	.LFB5:
 177:FreeRTOS/list.c **** /*-----------------------------------------------------------*/
 178:FreeRTOS/list.c **** 
 179:FreeRTOS/list.c **** UBaseT_t uxListRemove( ListItem_t * const pxItemToRemove )
 180:FreeRTOS/list.c **** {
 319              		.loc 1 180 0
 320              		.cfi_startproc
 321              		@ args = 0, pretend = 0, frame = 16
 322              		@ frame_needed = 1, uses_anonymous_args = 0
 323              		@ link register save eliminated.
 324 0000 80B4     		push	{r7}	@
 325              		.cfi_def_cfa_offset 4
 326              		.cfi_offset 7, -4
 327 0002 85B0     		sub	sp, sp, #20	@,,
 328              		.cfi_def_cfa_offset 24
 329 0004 00AF     		add	r7, sp, #0	@,,
 330              		.cfi_def_cfa_register 7
 331 0006 7860     		str	r0, [r7, #4]	@ pxItemToRemove, pxItemToRemove
 181:FreeRTOS/list.c **** /* The list item knows which list it is in.  Obtain the list from the list
 182:FreeRTOS/list.c **** item. */
ARM GAS  C:\Users\COSMIN~1.MAR\AppData\Local\Temp\ccwScxSK.s 			page 10


 183:FreeRTOS/list.c **** List_t * const pxList = ( List_t * ) pxItemToRemove->pvContainer;
 332              		.loc 1 183 0
 333 0008 7B68     		ldr	r3, [r7, #4]	@ tmp120, pxItemToRemove
 334 000a 1B69     		ldr	r3, [r3, #16]	@ tmp121, pxItemToRemove_1(D)->pvContainer
 335 000c FB60     		str	r3, [r7, #12]	@ tmp121, pxList
 184:FreeRTOS/list.c **** 
 185:FreeRTOS/list.c **** 	pxItemToRemove->pxNext->pxPrevious = pxItemToRemove->pxPrevious;
 336              		.loc 1 185 0
 337 000e 7B68     		ldr	r3, [r7, #4]	@ tmp122, pxItemToRemove
 338 0010 5B68     		ldr	r3, [r3, #4]	@ D.4846, pxItemToRemove_1(D)->pxNext
 339 0012 7A68     		ldr	r2, [r7, #4]	@ tmp123, pxItemToRemove
 340 0014 9268     		ldr	r2, [r2, #8]	@ D.4846, pxItemToRemove_1(D)->pxPrevious
 341 0016 9A60     		str	r2, [r3, #8]	@ D.4846, _3->pxPrevious
 186:FreeRTOS/list.c **** 	pxItemToRemove->pxPrevious->pxNext = pxItemToRemove->pxNext;
 342              		.loc 1 186 0
 343 0018 7B68     		ldr	r3, [r7, #4]	@ tmp124, pxItemToRemove
 344 001a 9B68     		ldr	r3, [r3, #8]	@ D.4846, pxItemToRemove_1(D)->pxPrevious
 345 001c 7A68     		ldr	r2, [r7, #4]	@ tmp125, pxItemToRemove
 346 001e 5268     		ldr	r2, [r2, #4]	@ D.4846, pxItemToRemove_1(D)->pxNext
 347 0020 5A60     		str	r2, [r3, #4]	@ D.4846, _5->pxNext
 187:FreeRTOS/list.c **** 
 188:FreeRTOS/list.c **** 	/* Make sure the index is left pointing to a valid item. */
 189:FreeRTOS/list.c **** 	if( pxList->pxIndex == pxItemToRemove )
 348              		.loc 1 189 0
 349 0022 FB68     		ldr	r3, [r7, #12]	@ tmp126, pxList
 350 0024 5A68     		ldr	r2, [r3, #4]	@ D.4847, pxList_2->pxIndex
 351 0026 7B68     		ldr	r3, [r7, #4]	@ tmp127, pxItemToRemove
 352 0028 9A42     		cmp	r2, r3	@ D.4847, tmp127
 353 002a 03D1     		bne	.L10	@,
 190:FreeRTOS/list.c **** 	{
 191:FreeRTOS/list.c **** 		pxList->pxIndex = pxItemToRemove->pxPrevious;
 354              		.loc 1 191 0
 355 002c 7B68     		ldr	r3, [r7, #4]	@ tmp128, pxItemToRemove
 356 002e 9A68     		ldr	r2, [r3, #8]	@ D.4846, pxItemToRemove_1(D)->pxPrevious
 357 0030 FB68     		ldr	r3, [r7, #12]	@ tmp129, pxList
 358 0032 5A60     		str	r2, [r3, #4]	@ D.4846, pxList_2->pxIndex
 359              	.L10:
 192:FreeRTOS/list.c **** 	}
 193:FreeRTOS/list.c **** 	else
 194:FreeRTOS/list.c **** 	{
 195:FreeRTOS/list.c **** 		mtCOVERAGE_TEST_MARKER();
 196:FreeRTOS/list.c **** 	}
 197:FreeRTOS/list.c **** 
 198:FreeRTOS/list.c **** 	pxItemToRemove->pvContainer = NULL;
 360              		.loc 1 198 0
 361 0034 7B68     		ldr	r3, [r7, #4]	@ tmp130, pxItemToRemove
 362 0036 0022     		movs	r2, #0	@ tmp131,
 363 0038 1A61     		str	r2, [r3, #16]	@ tmp131, pxItemToRemove_1(D)->pvContainer
 199:FreeRTOS/list.c **** 	( pxList->uxNumberOfItems )--;
 364              		.loc 1 199 0
 365 003a FB68     		ldr	r3, [r7, #12]	@ tmp132, pxList
 366 003c 1B68     		ldr	r3, [r3]	@ D.4848, pxList_2->uxNumberOfItems
 367 003e 5A1E     		subs	r2, r3, #1	@ D.4848, D.4848,
 368 0040 FB68     		ldr	r3, [r7, #12]	@ tmp133, pxList
 369 0042 1A60     		str	r2, [r3]	@ D.4848, pxList_2->uxNumberOfItems
 200:FreeRTOS/list.c **** 
 201:FreeRTOS/list.c **** 	return pxList->uxNumberOfItems;
ARM GAS  C:\Users\COSMIN~1.MAR\AppData\Local\Temp\ccwScxSK.s 			page 11


 370              		.loc 1 201 0
 371 0044 FB68     		ldr	r3, [r7, #12]	@ tmp134, pxList
 372 0046 1B68     		ldr	r3, [r3]	@ D.4849, pxList_2->uxNumberOfItems
 202:FreeRTOS/list.c **** }
 373              		.loc 1 202 0
 374 0048 1846     		mov	r0, r3	@, <retval>
 375 004a 1437     		adds	r7, r7, #20	@,,
 376              		.cfi_def_cfa_offset 4
 377 004c BD46     		mov	sp, r7	@,
 378              		.cfi_def_cfa_register 13
 379              		@ sp needed	@
 380 004e 5DF8047B 		ldr	r7, [sp], #4	@,
 381              		.cfi_restore 7
 382              		.cfi_def_cfa_offset 0
 383 0052 7047     		bx	lr	@
 384              		.cfi_endproc
 385              	.LFE5:
 386              		.size	uxListRemove, .-uxListRemove
 387              		.text
 388              	.Letext0:
 389              		.file 2 "c:\\gnu tools arm embedded\\4.9 2015q1\\arm-none-eabi\\include\\machine\\_default_types.h
 390              		.file 3 "c:\\gnu tools arm embedded\\4.9 2015q1\\arm-none-eabi\\include\\stdint.h"
 391              		.file 4 "FreeRTOS/portable/GCC/ARM_CM3/portmacro.h"
 392              		.file 5 "FreeRTOS/include/list.h"