ARM GAS  C:\Users\COSMIN~1.MAR\AppData\Local\Temp\ccJVXHYk.s 			page 1


   1              		.syntax unified
   2              		.cpu cortex-m3
   3              		.fpu softvfp
   4              		.eabi_attribute 20, 1	@ Tag_ABI_FP_denormal
   5              		.eabi_attribute 21, 1	@ Tag_ABI_FP_exceptions
   6              		.eabi_attribute 23, 3	@ Tag_ABI_FP_number_model
   7              		.eabi_attribute 24, 1	@ Tag_ABI_align8_needed
   8              		.eabi_attribute 25, 1	@ Tag_ABI_align8_preserved
   9              		.eabi_attribute 26, 1	@ Tag_ABI_enum_size
  10              		.eabi_attribute 30, 6	@ Tag_ABI_optimization_goals
  11              		.eabi_attribute 34, 1	@ Tag_CPU_unaligned_access
  12              		.eabi_attribute 18, 4	@ Tag_ABI_PCS_wchar_t
  13              		.file	"lpc17xx_gpio.c"
  14              	@ GNU C (GNU Tools for ARM Embedded Processors) version 4.9.3 20150303 (release) [ARM/embedded-4_9-
  15              	@	compiled by GNU C version 4.7.4, GMP version 4.3.2, MPFR version 2.4.2, MPC version 0.8.1
  16              	@ GGC heuristics: --param ggc-min-expand=100 --param ggc-min-heapsize=131072
  17              	@ options passed:  -I . -I config -I system -I core -I drivers -I FreeRTOS
  18              	@ -I FreeRTOS/include -I FreeRTOS/portable/GCC/ARM_CM3 -I FreeRTOS/portable
  19              	@ -I tasks/rc_task_leds -I modules/rc_leds -I drivers/rc_system
  20              	@ -I drivers/rc_gpio -I drivers/rc_uart -I drivers/rc_pinsel
  21              	@ -I drivers/rc_timer -I drivers/rc_adc -imultilib armv7-m
  22              	@ -iprefix c:\gnu tools arm embedded\4.9 2015q1\bin\../lib/gcc/arm-none-eabi/4.9.3/
  23              	@ -isysroot c:\gnu tools arm embedded\4.9 2015q1\bin\../arm-none-eabi
  24              	@ -MD out/lpc17xx_gpio.d -MF out/lpc17xx_gpio.d -MP -MQ out/lpc17xx_gpio.o
  25              	@ -D__USES_INITFINI__ core/lpc17xx_gpio.c -mcpu=cortex-m3 -mthumb
  26              	@ -auxbase-strip out/lpc17xx_gpio.o -g -ggdb3 -O0 -Wall -Wstrict-prototypes
  27              	@ -Wextra -std=gnu90 -ffunction-sections -fdata-sections -fverbose-asm
  28              	@ options enabled:  -faggressive-loop-optimizations -fauto-inc-dec -fcommon
  29              	@ -fdata-sections -fdelete-null-pointer-checks -fdwarf2-cfi-asm
  30              	@ -fearly-inlining -feliminate-unused-debug-types -ffunction-cse
  31              	@ -ffunction-sections -fgcse-lm -fgnu-runtime -fgnu-unique -fident
  32              	@ -finline-atomics -fira-hoist-pressure -fira-share-save-slots
  33              	@ -fira-share-spill-slots -fivopts -fkeep-static-consts
  34              	@ -fleading-underscore -flifetime-dse -fmath-errno -fmerge-debug-strings
  35              	@ -fpeephole -fprefetch-loop-arrays -freg-struct-return
  36              	@ -fsched-critical-path-heuristic -fsched-dep-count-heuristic
  37              	@ -fsched-group-heuristic -fsched-interblock -fsched-last-insn-heuristic
  38              	@ -fsched-rank-heuristic -fsched-spec -fsched-spec-insn-heuristic
  39              	@ -fsched-stalled-insns-dep -fshow-column -fsigned-zeros
  40              	@ -fsplit-ivs-in-unroller -fstrict-volatile-bitfields -fsync-libcalls
  41              	@ -ftrapping-math -ftree-coalesce-vars -ftree-cselim -ftree-forwprop
  42              	@ -ftree-loop-if-convert -ftree-loop-im -ftree-loop-ivcanon
  43              	@ -ftree-loop-optimize -ftree-parallelize-loops= -ftree-phiprop
  44              	@ -ftree-reassoc -ftree-scev-cprop -funit-at-a-time -fverbose-asm
  45              	@ -fzero-initialized-in-bss -mfix-cortex-m3-ldrd -mlittle-endian -mlra
  46              	@ -mpic-data-is-text-relative -msched-prolog -mthumb -munaligned-access
  47              	@ -mvectorize-with-neon-quad
  48              	
  49              		.text
  50              	.Ltext0:
  51              		.cfi_sections	.debug_frame
  52              		.section	.text.GPIO_GetPointer,"ax",%progbits
  53              		.align	2
  54              		.thumb
  55              		.thumb_func
  56              		.type	GPIO_GetPointer, %function
  57              	GPIO_GetPointer:
ARM GAS  C:\Users\COSMIN~1.MAR\AppData\Local\Temp\ccJVXHYk.s 			page 2


  58              	.LFB55:
  59              		.file 1 "core/lpc17xx_gpio.c"
   1:core/lpc17xx_gpio.c **** /***********************************************************************//**
   2:core/lpc17xx_gpio.c ****  * @file		lpc17xx_gpio.c
   3:core/lpc17xx_gpio.c ****  * @brief		Contains all functions support for GPIO firmware library on LPC17xx
   4:core/lpc17xx_gpio.c ****  * @version		2.0
   5:core/lpc17xx_gpio.c ****  * @date		21. May. 2010
   6:core/lpc17xx_gpio.c ****  * @author		NXP MCU SW Application Team
   7:core/lpc17xx_gpio.c ****  **************************************************************************
   8:core/lpc17xx_gpio.c ****  * Software that is described herein is for illustrative purposes only
   9:core/lpc17xx_gpio.c ****  * which provides customers with programming information regarding the
  10:core/lpc17xx_gpio.c ****  * products. This software is supplied "AS IS" without any warranties.
  11:core/lpc17xx_gpio.c ****  * NXP Semiconductors assumes no responsibility or liability for the
  12:core/lpc17xx_gpio.c ****  * use of the software, conveys no license or title under any patent,
  13:core/lpc17xx_gpio.c ****  * copyright, or mask work right to the product. NXP Semiconductors
  14:core/lpc17xx_gpio.c ****  * reserves the right to make changes in the software without
  15:core/lpc17xx_gpio.c ****  * notification. NXP Semiconductors also make no representation or
  16:core/lpc17xx_gpio.c ****  * warranty that such application will be suitable for the specified
  17:core/lpc17xx_gpio.c ****  * use without further testing or modification.
  18:core/lpc17xx_gpio.c ****  **********************************************************************/
  19:core/lpc17xx_gpio.c **** 
  20:core/lpc17xx_gpio.c **** /* Peripheral group ----------------------------------------------------------- */
  21:core/lpc17xx_gpio.c **** /** @addtogroup GPIO
  22:core/lpc17xx_gpio.c ****  * @{
  23:core/lpc17xx_gpio.c ****  */
  24:core/lpc17xx_gpio.c **** 
  25:core/lpc17xx_gpio.c **** /* Includes ------------------------------------------------------------------- */
  26:core/lpc17xx_gpio.c **** #include "lpc17xx_gpio.h"
  27:core/lpc17xx_gpio.c **** 
  28:core/lpc17xx_gpio.c **** /* If this source file built with example, the LPC17xx FW library configuration
  29:core/lpc17xx_gpio.c ****  * file in each example directory ("lpc17xx_libcfg.h") must be included,
  30:core/lpc17xx_gpio.c ****  * otherwise the default FW library configuration file must be included instead
  31:core/lpc17xx_gpio.c ****  */
  32:core/lpc17xx_gpio.c **** #ifdef __BUILD_WITH_EXAMPLE__
  33:core/lpc17xx_gpio.c **** #include "lpc17xx_libcfg.h"
  34:core/lpc17xx_gpio.c **** #else
  35:core/lpc17xx_gpio.c **** #include "lpc17xx_libcfg_default.h"
  36:core/lpc17xx_gpio.c **** #endif /* __BUILD_WITH_EXAMPLE__ */
  37:core/lpc17xx_gpio.c **** 
  38:core/lpc17xx_gpio.c **** 
  39:core/lpc17xx_gpio.c **** #ifdef _GPIO
  40:core/lpc17xx_gpio.c **** 
  41:core/lpc17xx_gpio.c **** /* Private Functions ---------------------------------------------------------- */
  42:core/lpc17xx_gpio.c **** 
  43:core/lpc17xx_gpio.c **** static LPC_GPIO_TypeDef *GPIO_GetPointer(uint8_t portNum);
  44:core/lpc17xx_gpio.c **** static GPIO_HalfWord_TypeDef *FIO_HalfWordGetPointer(uint8_t portNum);
  45:core/lpc17xx_gpio.c **** static GPIO_Byte_TypeDef *FIO_ByteGetPointer(uint8_t portNum);
  46:core/lpc17xx_gpio.c **** 
  47:core/lpc17xx_gpio.c **** /*********************************************************************//**
  48:core/lpc17xx_gpio.c ****  * @brief		Get pointer to GPIO peripheral due to GPIO port
  49:core/lpc17xx_gpio.c ****  * @param[in]	portNum		Port Number value, should be in range from 0 to 4.
  50:core/lpc17xx_gpio.c ****  * @return		Pointer to GPIO peripheral
  51:core/lpc17xx_gpio.c ****  **********************************************************************/
  52:core/lpc17xx_gpio.c **** static LPC_GPIO_TypeDef *GPIO_GetPointer(uint8_t portNum)
  53:core/lpc17xx_gpio.c **** {
  60              		.loc 1 53 0
  61              		.cfi_startproc
ARM GAS  C:\Users\COSMIN~1.MAR\AppData\Local\Temp\ccJVXHYk.s 			page 3


  62              		@ args = 0, pretend = 0, frame = 16
  63              		@ frame_needed = 1, uses_anonymous_args = 0
  64              		@ link register save eliminated.
  65 0000 80B4     		push	{r7}	@
  66              		.cfi_def_cfa_offset 4
  67              		.cfi_offset 7, -4
  68 0002 85B0     		sub	sp, sp, #20	@,,
  69              		.cfi_def_cfa_offset 24
  70 0004 00AF     		add	r7, sp, #0	@,,
  71              		.cfi_def_cfa_register 7
  72 0006 0346     		mov	r3, r0	@ tmp113, portNum
  73 0008 FB71     		strb	r3, [r7, #7]	@ tmp114, portNum
  54:core/lpc17xx_gpio.c **** 	LPC_GPIO_TypeDef *pGPIO = NULL;
  74              		.loc 1 54 0
  75 000a 0023     		movs	r3, #0	@ tmp115,
  76 000c FB60     		str	r3, [r7, #12]	@ tmp115, pGPIO
  55:core/lpc17xx_gpio.c **** 
  56:core/lpc17xx_gpio.c **** 	switch (portNum) {
  77              		.loc 1 56 0
  78 000e FB79     		ldrb	r3, [r7, #7]	@ zero_extendqisi2	@ D.5838, portNum
  79 0010 042B     		cmp	r3, #4	@ D.5838,
  80 0012 1CD8     		bhi	.L11	@
  81 0014 01A2     		adr	r2, .L4	@ tmp122,
  82 0016 52F823F0 		ldr	pc, [r2, r3, lsl #2]	@ tmp122, D.5838
  83 001a 00BF     		.p2align 2
  84              	.L4:
  85 001c 31000000 		.word	.L3+1
  86 0020 37000000 		.word	.L5+1
  87 0024 3D000000 		.word	.L6+1
  88 0028 43000000 		.word	.L7+1
  89 002c 49000000 		.word	.L8+1
  90              		.p2align 1
  91              	.L3:
  57:core/lpc17xx_gpio.c **** 	case 0:
  58:core/lpc17xx_gpio.c **** 		pGPIO = LPC_GPIO0;
  92              		.loc 1 58 0
  93 0030 0B4B     		ldr	r3, .L12	@ tmp116,
  94 0032 FB60     		str	r3, [r7, #12]	@ tmp116, pGPIO
  59:core/lpc17xx_gpio.c **** 		break;
  95              		.loc 1 59 0
  96 0034 0CE0     		b	.L9	@
  97              	.L5:
  60:core/lpc17xx_gpio.c **** 	case 1:
  61:core/lpc17xx_gpio.c **** 		pGPIO = LPC_GPIO1;
  98              		.loc 1 61 0
  99 0036 0B4B     		ldr	r3, .L12+4	@ tmp117,
 100 0038 FB60     		str	r3, [r7, #12]	@ tmp117, pGPIO
  62:core/lpc17xx_gpio.c **** 		break;
 101              		.loc 1 62 0
 102 003a 09E0     		b	.L9	@
 103              	.L6:
  63:core/lpc17xx_gpio.c **** 	case 2:
  64:core/lpc17xx_gpio.c **** 		pGPIO = LPC_GPIO2;
 104              		.loc 1 64 0
 105 003c 0A4B     		ldr	r3, .L12+8	@ tmp118,
 106 003e FB60     		str	r3, [r7, #12]	@ tmp118, pGPIO
  65:core/lpc17xx_gpio.c **** 		break;
ARM GAS  C:\Users\COSMIN~1.MAR\AppData\Local\Temp\ccJVXHYk.s 			page 4


 107              		.loc 1 65 0
 108 0040 06E0     		b	.L9	@
 109              	.L7:
  66:core/lpc17xx_gpio.c **** 	case 3:
  67:core/lpc17xx_gpio.c **** 		pGPIO = LPC_GPIO3;
 110              		.loc 1 67 0
 111 0042 0A4B     		ldr	r3, .L12+12	@ tmp119,
 112 0044 FB60     		str	r3, [r7, #12]	@ tmp119, pGPIO
  68:core/lpc17xx_gpio.c **** 		break;
 113              		.loc 1 68 0
 114 0046 03E0     		b	.L9	@
 115              	.L8:
  69:core/lpc17xx_gpio.c **** 	case 4:
  70:core/lpc17xx_gpio.c **** 		pGPIO = LPC_GPIO4;
 116              		.loc 1 70 0
 117 0048 094B     		ldr	r3, .L12+16	@ tmp120,
 118 004a FB60     		str	r3, [r7, #12]	@ tmp120, pGPIO
  71:core/lpc17xx_gpio.c **** 		break;
 119              		.loc 1 71 0
 120 004c 00E0     		b	.L9	@
 121              	.L11:
  72:core/lpc17xx_gpio.c **** 	default:
  73:core/lpc17xx_gpio.c **** 		break;
 122              		.loc 1 73 0
 123 004e 00BF     		nop
 124              	.L9:
  74:core/lpc17xx_gpio.c **** 	}
  75:core/lpc17xx_gpio.c **** 
  76:core/lpc17xx_gpio.c **** 	return pGPIO;
 125              		.loc 1 76 0
 126 0050 FB68     		ldr	r3, [r7, #12]	@ D.5839, pGPIO
  77:core/lpc17xx_gpio.c **** }
 127              		.loc 1 77 0
 128 0052 1846     		mov	r0, r3	@, <retval>
 129 0054 1437     		adds	r7, r7, #20	@,,
 130              		.cfi_def_cfa_offset 4
 131 0056 BD46     		mov	sp, r7	@,
 132              		.cfi_def_cfa_register 13
 133              		@ sp needed	@
 134 0058 5DF8047B 		ldr	r7, [sp], #4	@,
 135              		.cfi_restore 7
 136              		.cfi_def_cfa_offset 0
 137 005c 7047     		bx	lr	@
 138              	.L13:
 139 005e 00BF     		.align	2
 140              	.L12:
 141 0060 00C00920 		.word	537509888
 142 0064 20C00920 		.word	537509920
 143 0068 40C00920 		.word	537509952
 144 006c 60C00920 		.word	537509984
 145 0070 80C00920 		.word	537510016
 146              		.cfi_endproc
 147              	.LFE55:
 148              		.size	GPIO_GetPointer, .-GPIO_GetPointer
 149              		.section	.text.FIO_HalfWordGetPointer,"ax",%progbits
 150              		.align	2
 151              		.thumb
ARM GAS  C:\Users\COSMIN~1.MAR\AppData\Local\Temp\ccJVXHYk.s 			page 5


 152              		.thumb_func
 153              		.type	FIO_HalfWordGetPointer, %function
 154              	FIO_HalfWordGetPointer:
 155              	.LFB56:
  78:core/lpc17xx_gpio.c **** 
  79:core/lpc17xx_gpio.c **** /*********************************************************************//**
  80:core/lpc17xx_gpio.c ****  * @brief		Get pointer to FIO peripheral in halfword accessible style
  81:core/lpc17xx_gpio.c ****  * 				due to FIO port
  82:core/lpc17xx_gpio.c ****  * @param[in]	portNum		Port Number value, should be in range from 0 to 4.
  83:core/lpc17xx_gpio.c ****  * @return		Pointer to FIO peripheral
  84:core/lpc17xx_gpio.c ****  **********************************************************************/
  85:core/lpc17xx_gpio.c **** static GPIO_HalfWord_TypeDef *FIO_HalfWordGetPointer(uint8_t portNum)
  86:core/lpc17xx_gpio.c **** {
 156              		.loc 1 86 0
 157              		.cfi_startproc
 158              		@ args = 0, pretend = 0, frame = 16
 159              		@ frame_needed = 1, uses_anonymous_args = 0
 160              		@ link register save eliminated.
 161 0000 80B4     		push	{r7}	@
 162              		.cfi_def_cfa_offset 4
 163              		.cfi_offset 7, -4
 164 0002 85B0     		sub	sp, sp, #20	@,,
 165              		.cfi_def_cfa_offset 24
 166 0004 00AF     		add	r7, sp, #0	@,,
 167              		.cfi_def_cfa_register 7
 168 0006 0346     		mov	r3, r0	@ tmp113, portNum
 169 0008 FB71     		strb	r3, [r7, #7]	@ tmp114, portNum
  87:core/lpc17xx_gpio.c **** 	GPIO_HalfWord_TypeDef *pFIO = NULL;
 170              		.loc 1 87 0
 171 000a 0023     		movs	r3, #0	@ tmp115,
 172 000c FB60     		str	r3, [r7, #12]	@ tmp115, pFIO
  88:core/lpc17xx_gpio.c **** 
  89:core/lpc17xx_gpio.c **** 	switch (portNum) {
 173              		.loc 1 89 0
 174 000e FB79     		ldrb	r3, [r7, #7]	@ zero_extendqisi2	@ D.5840, portNum
 175 0010 042B     		cmp	r3, #4	@ D.5840,
 176 0012 1CD8     		bhi	.L24	@
 177 0014 01A2     		adr	r2, .L17	@ tmp122,
 178 0016 52F823F0 		ldr	pc, [r2, r3, lsl #2]	@ tmp122, D.5840
 179 001a 00BF     		.p2align 2
 180              	.L17:
 181 001c 31000000 		.word	.L16+1
 182 0020 37000000 		.word	.L18+1
 183 0024 3D000000 		.word	.L19+1
 184 0028 43000000 		.word	.L20+1
 185 002c 49000000 		.word	.L21+1
 186              		.p2align 1
 187              	.L16:
  90:core/lpc17xx_gpio.c **** 	case 0:
  91:core/lpc17xx_gpio.c **** 		pFIO = GPIO0_HalfWord;
 188              		.loc 1 91 0
 189 0030 0B4B     		ldr	r3, .L25	@ tmp116,
 190 0032 FB60     		str	r3, [r7, #12]	@ tmp116, pFIO
  92:core/lpc17xx_gpio.c **** 		break;
 191              		.loc 1 92 0
 192 0034 0CE0     		b	.L22	@
 193              	.L18:
ARM GAS  C:\Users\COSMIN~1.MAR\AppData\Local\Temp\ccJVXHYk.s 			page 6


  93:core/lpc17xx_gpio.c **** 	case 1:
  94:core/lpc17xx_gpio.c **** 		pFIO = GPIO1_HalfWord;
 194              		.loc 1 94 0
 195 0036 0B4B     		ldr	r3, .L25+4	@ tmp117,
 196 0038 FB60     		str	r3, [r7, #12]	@ tmp117, pFIO
  95:core/lpc17xx_gpio.c **** 		break;
 197              		.loc 1 95 0
 198 003a 09E0     		b	.L22	@
 199              	.L19:
  96:core/lpc17xx_gpio.c **** 	case 2:
  97:core/lpc17xx_gpio.c **** 		pFIO = GPIO2_HalfWord;
 200              		.loc 1 97 0
 201 003c 0A4B     		ldr	r3, .L25+8	@ tmp118,
 202 003e FB60     		str	r3, [r7, #12]	@ tmp118, pFIO
  98:core/lpc17xx_gpio.c **** 		break;
 203              		.loc 1 98 0
 204 0040 06E0     		b	.L22	@
 205              	.L20:
  99:core/lpc17xx_gpio.c **** 	case 3:
 100:core/lpc17xx_gpio.c **** 		pFIO = GPIO3_HalfWord;
 206              		.loc 1 100 0
 207 0042 0A4B     		ldr	r3, .L25+12	@ tmp119,
 208 0044 FB60     		str	r3, [r7, #12]	@ tmp119, pFIO
 101:core/lpc17xx_gpio.c **** 		break;
 209              		.loc 1 101 0
 210 0046 03E0     		b	.L22	@
 211              	.L21:
 102:core/lpc17xx_gpio.c **** 	case 4:
 103:core/lpc17xx_gpio.c **** 		pFIO = GPIO4_HalfWord;
 212              		.loc 1 103 0
 213 0048 094B     		ldr	r3, .L25+16	@ tmp120,
 214 004a FB60     		str	r3, [r7, #12]	@ tmp120, pFIO
 104:core/lpc17xx_gpio.c **** 		break;
 215              		.loc 1 104 0
 216 004c 00E0     		b	.L22	@
 217              	.L24:
 105:core/lpc17xx_gpio.c **** 	default:
 106:core/lpc17xx_gpio.c **** 		break;
 218              		.loc 1 106 0
 219 004e 00BF     		nop
 220              	.L22:
 107:core/lpc17xx_gpio.c **** 	}
 108:core/lpc17xx_gpio.c **** 
 109:core/lpc17xx_gpio.c **** 	return pFIO;
 221              		.loc 1 109 0
 222 0050 FB68     		ldr	r3, [r7, #12]	@ D.5841, pFIO
 110:core/lpc17xx_gpio.c **** }
 223              		.loc 1 110 0
 224 0052 1846     		mov	r0, r3	@, <retval>
 225 0054 1437     		adds	r7, r7, #20	@,,
 226              		.cfi_def_cfa_offset 4
 227 0056 BD46     		mov	sp, r7	@,
 228              		.cfi_def_cfa_register 13
 229              		@ sp needed	@
 230 0058 5DF8047B 		ldr	r7, [sp], #4	@,
 231              		.cfi_restore 7
 232              		.cfi_def_cfa_offset 0
ARM GAS  C:\Users\COSMIN~1.MAR\AppData\Local\Temp\ccJVXHYk.s 			page 7


 233 005c 7047     		bx	lr	@
 234              	.L26:
 235 005e 00BF     		.align	2
 236              	.L25:
 237 0060 00C00920 		.word	537509888
 238 0064 20C00920 		.word	537509920
 239 0068 40C00920 		.word	537509952
 240 006c 60C00920 		.word	537509984
 241 0070 80C00920 		.word	537510016
 242              		.cfi_endproc
 243              	.LFE56:
 244              		.size	FIO_HalfWordGetPointer, .-FIO_HalfWordGetPointer
 245              		.section	.text.FIO_ByteGetPointer,"ax",%progbits
 246              		.align	2
 247              		.thumb
 248              		.thumb_func
 249              		.type	FIO_ByteGetPointer, %function
 250              	FIO_ByteGetPointer:
 251              	.LFB57:
 111:core/lpc17xx_gpio.c **** 
 112:core/lpc17xx_gpio.c **** /*********************************************************************//**
 113:core/lpc17xx_gpio.c ****  * @brief		Get pointer to FIO peripheral in byte accessible style
 114:core/lpc17xx_gpio.c ****  * 				due to FIO port
 115:core/lpc17xx_gpio.c ****  * @param[in]	portNum		Port Number value, should be in range from 0 to 4.
 116:core/lpc17xx_gpio.c ****  * @return		Pointer to FIO peripheral
 117:core/lpc17xx_gpio.c ****  **********************************************************************/
 118:core/lpc17xx_gpio.c **** static GPIO_Byte_TypeDef *FIO_ByteGetPointer(uint8_t portNum)
 119:core/lpc17xx_gpio.c **** {
 252              		.loc 1 119 0
 253              		.cfi_startproc
 254              		@ args = 0, pretend = 0, frame = 16
 255              		@ frame_needed = 1, uses_anonymous_args = 0
 256              		@ link register save eliminated.
 257 0000 80B4     		push	{r7}	@
 258              		.cfi_def_cfa_offset 4
 259              		.cfi_offset 7, -4
 260 0002 85B0     		sub	sp, sp, #20	@,,
 261              		.cfi_def_cfa_offset 24
 262 0004 00AF     		add	r7, sp, #0	@,,
 263              		.cfi_def_cfa_register 7
 264 0006 0346     		mov	r3, r0	@ tmp113, portNum
 265 0008 FB71     		strb	r3, [r7, #7]	@ tmp114, portNum
 120:core/lpc17xx_gpio.c **** 	GPIO_Byte_TypeDef *pFIO = NULL;
 266              		.loc 1 120 0
 267 000a 0023     		movs	r3, #0	@ tmp115,
 268 000c FB60     		str	r3, [r7, #12]	@ tmp115, pFIO
 121:core/lpc17xx_gpio.c **** 
 122:core/lpc17xx_gpio.c **** 	switch (portNum) {
 269              		.loc 1 122 0
 270 000e FB79     		ldrb	r3, [r7, #7]	@ zero_extendqisi2	@ D.5842, portNum
 271 0010 042B     		cmp	r3, #4	@ D.5842,
 272 0012 1CD8     		bhi	.L37	@
 273 0014 01A2     		adr	r2, .L30	@ tmp122,
 274 0016 52F823F0 		ldr	pc, [r2, r3, lsl #2]	@ tmp122, D.5842
 275 001a 00BF     		.p2align 2
 276              	.L30:
 277 001c 31000000 		.word	.L29+1
ARM GAS  C:\Users\COSMIN~1.MAR\AppData\Local\Temp\ccJVXHYk.s 			page 8


 278 0020 37000000 		.word	.L31+1
 279 0024 3D000000 		.word	.L32+1
 280 0028 43000000 		.word	.L33+1
 281 002c 49000000 		.word	.L34+1
 282              		.p2align 1
 283              	.L29:
 123:core/lpc17xx_gpio.c **** 	case 0:
 124:core/lpc17xx_gpio.c **** 		pFIO = GPIO0_Byte;
 284              		.loc 1 124 0
 285 0030 0B4B     		ldr	r3, .L38	@ tmp116,
 286 0032 FB60     		str	r3, [r7, #12]	@ tmp116, pFIO
 125:core/lpc17xx_gpio.c **** 		break;
 287              		.loc 1 125 0
 288 0034 0CE0     		b	.L35	@
 289              	.L31:
 126:core/lpc17xx_gpio.c **** 	case 1:
 127:core/lpc17xx_gpio.c **** 		pFIO = GPIO1_Byte;
 290              		.loc 1 127 0
 291 0036 0B4B     		ldr	r3, .L38+4	@ tmp117,
 292 0038 FB60     		str	r3, [r7, #12]	@ tmp117, pFIO
 128:core/lpc17xx_gpio.c **** 		break;
 293              		.loc 1 128 0
 294 003a 09E0     		b	.L35	@
 295              	.L32:
 129:core/lpc17xx_gpio.c **** 	case 2:
 130:core/lpc17xx_gpio.c **** 		pFIO = GPIO2_Byte;
 296              		.loc 1 130 0
 297 003c 0A4B     		ldr	r3, .L38+8	@ tmp118,
 298 003e FB60     		str	r3, [r7, #12]	@ tmp118, pFIO
 131:core/lpc17xx_gpio.c **** 		break;
 299              		.loc 1 131 0
 300 0040 06E0     		b	.L35	@
 301              	.L33:
 132:core/lpc17xx_gpio.c **** 	case 3:
 133:core/lpc17xx_gpio.c **** 		pFIO = GPIO3_Byte;
 302              		.loc 1 133 0
 303 0042 0A4B     		ldr	r3, .L38+12	@ tmp119,
 304 0044 FB60     		str	r3, [r7, #12]	@ tmp119, pFIO
 134:core/lpc17xx_gpio.c **** 		break;
 305              		.loc 1 134 0
 306 0046 03E0     		b	.L35	@
 307              	.L34:
 135:core/lpc17xx_gpio.c **** 	case 4:
 136:core/lpc17xx_gpio.c **** 		pFIO = GPIO4_Byte;
 308              		.loc 1 136 0
 309 0048 094B     		ldr	r3, .L38+16	@ tmp120,
 310 004a FB60     		str	r3, [r7, #12]	@ tmp120, pFIO
 137:core/lpc17xx_gpio.c **** 		break;
 311              		.loc 1 137 0
 312 004c 00E0     		b	.L35	@
 313              	.L37:
 138:core/lpc17xx_gpio.c **** 	default:
 139:core/lpc17xx_gpio.c **** 		break;
 314              		.loc 1 139 0
 315 004e 00BF     		nop
 316              	.L35:
 140:core/lpc17xx_gpio.c **** 	}
ARM GAS  C:\Users\COSMIN~1.MAR\AppData\Local\Temp\ccJVXHYk.s 			page 9


 141:core/lpc17xx_gpio.c **** 
 142:core/lpc17xx_gpio.c **** 	return pFIO;
 317              		.loc 1 142 0
 318 0050 FB68     		ldr	r3, [r7, #12]	@ D.5843, pFIO
 143:core/lpc17xx_gpio.c **** }
 319              		.loc 1 143 0
 320 0052 1846     		mov	r0, r3	@, <retval>
 321 0054 1437     		adds	r7, r7, #20	@,,
 322              		.cfi_def_cfa_offset 4
 323 0056 BD46     		mov	sp, r7	@,
 324              		.cfi_def_cfa_register 13
 325              		@ sp needed	@
 326 0058 5DF8047B 		ldr	r7, [sp], #4	@,
 327              		.cfi_restore 7
 328              		.cfi_def_cfa_offset 0
 329 005c 7047     		bx	lr	@
 330              	.L39:
 331 005e 00BF     		.align	2
 332              	.L38:
 333 0060 00C00920 		.word	537509888
 334 0064 20C00920 		.word	537509920
 335 0068 40C00920 		.word	537509952
 336 006c 60C00920 		.word	537509984
 337 0070 80C00920 		.word	537510016
 338              		.cfi_endproc
 339              	.LFE57:
 340              		.size	FIO_ByteGetPointer, .-FIO_ByteGetPointer
 341              		.section	.text.GPIO_SetDir,"ax",%progbits
 342              		.align	2
 343              		.global	GPIO_SetDir
 344              		.thumb
 345              		.thumb_func
 346              		.type	GPIO_SetDir, %function
 347              	GPIO_SetDir:
 348              	.LFB58:
 144:core/lpc17xx_gpio.c **** 
 145:core/lpc17xx_gpio.c **** /* End of Private Functions --------------------------------------------------- */
 146:core/lpc17xx_gpio.c **** 
 147:core/lpc17xx_gpio.c **** 
 148:core/lpc17xx_gpio.c **** /* Public Functions ----------------------------------------------------------- */
 149:core/lpc17xx_gpio.c **** /** @addtogroup GPIO_Public_Functions
 150:core/lpc17xx_gpio.c ****  * @{
 151:core/lpc17xx_gpio.c ****  */
 152:core/lpc17xx_gpio.c **** 
 153:core/lpc17xx_gpio.c **** 
 154:core/lpc17xx_gpio.c **** /* GPIO ------------------------------------------------------------------------------ */
 155:core/lpc17xx_gpio.c **** 
 156:core/lpc17xx_gpio.c **** /*********************************************************************//**
 157:core/lpc17xx_gpio.c ****  * @brief		Set Direction for GPIO port.
 158:core/lpc17xx_gpio.c ****  * @param[in]	portNum		Port Number value, should be in range from 0 to 4
 159:core/lpc17xx_gpio.c ****  * @param[in]	bitValue	Value that contains all bits to set direction,
 160:core/lpc17xx_gpio.c ****  * 							in range from 0 to 0xFFFFFFFF.
 161:core/lpc17xx_gpio.c ****  * 							example: value 0x5 to set direction for bit 0 and bit 1.
 162:core/lpc17xx_gpio.c ****  * @param[in]	dir			Direction value, should be:
 163:core/lpc17xx_gpio.c ****  * 							- 0: Input.
 164:core/lpc17xx_gpio.c ****  * 							- 1: Output.
 165:core/lpc17xx_gpio.c ****  * @return		None
ARM GAS  C:\Users\COSMIN~1.MAR\AppData\Local\Temp\ccJVXHYk.s 			page 10


 166:core/lpc17xx_gpio.c ****  *
 167:core/lpc17xx_gpio.c ****  * Note: All remaining bits that are not activated in bitValue (value '0')
 168:core/lpc17xx_gpio.c ****  * will not be effected by this function.
 169:core/lpc17xx_gpio.c ****  **********************************************************************/
 170:core/lpc17xx_gpio.c **** void GPIO_SetDir(uint8_t portNum, uint32_t bitValue, uint8_t dir)
 171:core/lpc17xx_gpio.c **** {
 349              		.loc 1 171 0
 350              		.cfi_startproc
 351              		@ args = 0, pretend = 0, frame = 16
 352              		@ frame_needed = 1, uses_anonymous_args = 0
 353 0000 80B5     		push	{r7, lr}	@
 354              		.cfi_def_cfa_offset 8
 355              		.cfi_offset 7, -8
 356              		.cfi_offset 14, -4
 357 0002 84B0     		sub	sp, sp, #16	@,,
 358              		.cfi_def_cfa_offset 24
 359 0004 00AF     		add	r7, sp, #0	@,,
 360              		.cfi_def_cfa_register 7
 361 0006 0346     		mov	r3, r0	@ tmp115, portNum
 362 0008 3960     		str	r1, [r7]	@ bitValue, bitValue
 363 000a FB71     		strb	r3, [r7, #7]	@ tmp116, portNum
 364 000c 1346     		mov	r3, r2	@ tmp118, tmp117
 365 000e BB71     		strb	r3, [r7, #6]	@ tmp118, dir
 172:core/lpc17xx_gpio.c **** 	LPC_GPIO_TypeDef *pGPIO = GPIO_GetPointer(portNum);
 366              		.loc 1 172 0
 367 0010 FB79     		ldrb	r3, [r7, #7]	@ zero_extendqisi2	@ tmp119, portNum
 368 0012 1846     		mov	r0, r3	@, tmp119
 369 0014 FFF7FEFF 		bl	GPIO_GetPointer	@
 370 0018 F860     		str	r0, [r7, #12]	@, pGPIO
 173:core/lpc17xx_gpio.c **** 
 174:core/lpc17xx_gpio.c **** 	if (pGPIO != NULL) {
 371              		.loc 1 174 0
 372 001a FB68     		ldr	r3, [r7, #12]	@ tmp120, pGPIO
 373 001c 002B     		cmp	r3, #0	@ tmp120,
 374 001e 10D0     		beq	.L40	@,
 175:core/lpc17xx_gpio.c **** 		// Enable Output
 176:core/lpc17xx_gpio.c **** 		if (dir) {
 375              		.loc 1 176 0
 376 0020 BB79     		ldrb	r3, [r7, #6]	@ zero_extendqisi2	@ tmp121, dir
 377 0022 002B     		cmp	r3, #0	@ tmp121,
 378 0024 06D0     		beq	.L42	@,
 177:core/lpc17xx_gpio.c **** 			pGPIO->FIODIR |= bitValue;
 379              		.loc 1 177 0
 380 0026 FB68     		ldr	r3, [r7, #12]	@ tmp122, pGPIO
 381 0028 1A68     		ldr	r2, [r3]	@ D.5844, pGPIO_2->D.4604.FIODIR
 382 002a 3B68     		ldr	r3, [r7]	@ tmp123, bitValue
 383 002c 1A43     		orrs	r2, r2, r3	@, D.5844, D.5844, tmp123
 384 002e FB68     		ldr	r3, [r7, #12]	@ tmp124, pGPIO
 385 0030 1A60     		str	r2, [r3]	@ D.5844, pGPIO_2->D.4604.FIODIR
 386 0032 06E0     		b	.L40	@
 387              	.L42:
 178:core/lpc17xx_gpio.c **** 		}
 179:core/lpc17xx_gpio.c **** 		// Enable Input
 180:core/lpc17xx_gpio.c **** 		else {
 181:core/lpc17xx_gpio.c **** 			pGPIO->FIODIR &= ~bitValue;
 388              		.loc 1 181 0
 389 0034 FB68     		ldr	r3, [r7, #12]	@ tmp125, pGPIO
ARM GAS  C:\Users\COSMIN~1.MAR\AppData\Local\Temp\ccJVXHYk.s 			page 11


 390 0036 1A68     		ldr	r2, [r3]	@ D.5844, pGPIO_2->D.4604.FIODIR
 391 0038 3B68     		ldr	r3, [r7]	@ tmp126, bitValue
 392 003a DB43     		mvns	r3, r3	@ D.5844, tmp126
 393 003c 1A40     		ands	r2, r2, r3	@, D.5844, D.5844, D.5844
 394 003e FB68     		ldr	r3, [r7, #12]	@ tmp127, pGPIO
 395 0040 1A60     		str	r2, [r3]	@ D.5844, pGPIO_2->D.4604.FIODIR
 396              	.L40:
 182:core/lpc17xx_gpio.c **** 		}
 183:core/lpc17xx_gpio.c **** 	}
 184:core/lpc17xx_gpio.c **** }
 397              		.loc 1 184 0
 398 0042 1037     		adds	r7, r7, #16	@,,
 399              		.cfi_def_cfa_offset 8
 400 0044 BD46     		mov	sp, r7	@,
 401              		.cfi_def_cfa_register 13
 402              		@ sp needed	@
 403 0046 80BD     		pop	{r7, pc}	@
 404              		.cfi_endproc
 405              	.LFE58:
 406              		.size	GPIO_SetDir, .-GPIO_SetDir
 407              		.section	.text.GPIO_SetValue,"ax",%progbits
 408              		.align	2
 409              		.global	GPIO_SetValue
 410              		.thumb
 411              		.thumb_func
 412              		.type	GPIO_SetValue, %function
 413              	GPIO_SetValue:
 414              	.LFB59:
 185:core/lpc17xx_gpio.c **** 
 186:core/lpc17xx_gpio.c **** 
 187:core/lpc17xx_gpio.c **** /*********************************************************************//**
 188:core/lpc17xx_gpio.c ****  * @brief		Set Value for bits that have output direction on GPIO port.
 189:core/lpc17xx_gpio.c ****  * @param[in]	portNum		Port number value, should be in range from 0 to 4
 190:core/lpc17xx_gpio.c ****  * @param[in]	bitValue	Value that contains all bits on GPIO to set,
 191:core/lpc17xx_gpio.c ****  * 							in range from 0 to 0xFFFFFFFF.
 192:core/lpc17xx_gpio.c ****  * 							example: value 0x5 to set bit 0 and bit 1.
 193:core/lpc17xx_gpio.c ****  * @return		None
 194:core/lpc17xx_gpio.c ****  *
 195:core/lpc17xx_gpio.c ****  * Note:
 196:core/lpc17xx_gpio.c ****  * - For all bits that has been set as input direction, this function will
 197:core/lpc17xx_gpio.c ****  * not effect.
 198:core/lpc17xx_gpio.c ****  * - For all remaining bits that are not activated in bitValue (value '0')
 199:core/lpc17xx_gpio.c ****  * will not be effected by this function.
 200:core/lpc17xx_gpio.c ****  **********************************************************************/
 201:core/lpc17xx_gpio.c **** void GPIO_SetValue(uint8_t portNum, uint32_t bitValue)
 202:core/lpc17xx_gpio.c **** {
 415              		.loc 1 202 0
 416              		.cfi_startproc
 417              		@ args = 0, pretend = 0, frame = 16
 418              		@ frame_needed = 1, uses_anonymous_args = 0
 419 0000 80B5     		push	{r7, lr}	@
 420              		.cfi_def_cfa_offset 8
 421              		.cfi_offset 7, -8
 422              		.cfi_offset 14, -4
 423 0002 84B0     		sub	sp, sp, #16	@,,
 424              		.cfi_def_cfa_offset 24
 425 0004 00AF     		add	r7, sp, #0	@,,
ARM GAS  C:\Users\COSMIN~1.MAR\AppData\Local\Temp\ccJVXHYk.s 			page 12


 426              		.cfi_def_cfa_register 7
 427 0006 0346     		mov	r3, r0	@ tmp110, portNum
 428 0008 3960     		str	r1, [r7]	@ bitValue, bitValue
 429 000a FB71     		strb	r3, [r7, #7]	@ tmp111, portNum
 203:core/lpc17xx_gpio.c **** 	LPC_GPIO_TypeDef *pGPIO = GPIO_GetPointer(portNum);
 430              		.loc 1 203 0
 431 000c FB79     		ldrb	r3, [r7, #7]	@ zero_extendqisi2	@ tmp112, portNum
 432 000e 1846     		mov	r0, r3	@, tmp112
 433 0010 FFF7FEFF 		bl	GPIO_GetPointer	@
 434 0014 F860     		str	r0, [r7, #12]	@, pGPIO
 204:core/lpc17xx_gpio.c **** 
 205:core/lpc17xx_gpio.c **** 	if (pGPIO != NULL) {
 435              		.loc 1 205 0
 436 0016 FB68     		ldr	r3, [r7, #12]	@ tmp113, pGPIO
 437 0018 002B     		cmp	r3, #0	@ tmp113,
 438 001a 02D0     		beq	.L43	@,
 206:core/lpc17xx_gpio.c **** 		pGPIO->FIOSET = bitValue;
 439              		.loc 1 206 0
 440 001c FB68     		ldr	r3, [r7, #12]	@ tmp114, pGPIO
 441 001e 3A68     		ldr	r2, [r7]	@ tmp115, bitValue
 442 0020 9A61     		str	r2, [r3, #24]	@ tmp115, pGPIO_2->D.4644.FIOSET
 443              	.L43:
 207:core/lpc17xx_gpio.c **** 	}
 208:core/lpc17xx_gpio.c **** }
 444              		.loc 1 208 0
 445 0022 1037     		adds	r7, r7, #16	@,,
 446              		.cfi_def_cfa_offset 8
 447 0024 BD46     		mov	sp, r7	@,
 448              		.cfi_def_cfa_register 13
 449              		@ sp needed	@
 450 0026 80BD     		pop	{r7, pc}	@
 451              		.cfi_endproc
 452              	.LFE59:
 453              		.size	GPIO_SetValue, .-GPIO_SetValue
 454              		.section	.text.GPIO_ClearValue,"ax",%progbits
 455              		.align	2
 456              		.global	GPIO_ClearValue
 457              		.thumb
 458              		.thumb_func
 459              		.type	GPIO_ClearValue, %function
 460              	GPIO_ClearValue:
 461              	.LFB60:
 209:core/lpc17xx_gpio.c **** 
 210:core/lpc17xx_gpio.c **** /*********************************************************************//**
 211:core/lpc17xx_gpio.c ****  * @brief		Clear Value for bits that have output direction on GPIO port.
 212:core/lpc17xx_gpio.c ****  * @param[in]	portNum		Port number value, should be in range from 0 to 4
 213:core/lpc17xx_gpio.c ****  * @param[in]	bitValue	Value that contains all bits on GPIO to clear,
 214:core/lpc17xx_gpio.c ****  * 							in range from 0 to 0xFFFFFFFF.
 215:core/lpc17xx_gpio.c ****  * 							example: value 0x5 to clear bit 0 and bit 1.
 216:core/lpc17xx_gpio.c ****  * @return		None
 217:core/lpc17xx_gpio.c ****  *
 218:core/lpc17xx_gpio.c ****  * Note:
 219:core/lpc17xx_gpio.c ****  * - For all bits that has been set as input direction, this function will
 220:core/lpc17xx_gpio.c ****  * not effect.
 221:core/lpc17xx_gpio.c ****  * - For all remaining bits that are not activated in bitValue (value '0')
 222:core/lpc17xx_gpio.c ****  * will not be effected by this function.
 223:core/lpc17xx_gpio.c ****  **********************************************************************/
ARM GAS  C:\Users\COSMIN~1.MAR\AppData\Local\Temp\ccJVXHYk.s 			page 13


 224:core/lpc17xx_gpio.c **** void GPIO_ClearValue(uint8_t portNum, uint32_t bitValue)
 225:core/lpc17xx_gpio.c **** {
 462              		.loc 1 225 0
 463              		.cfi_startproc
 464              		@ args = 0, pretend = 0, frame = 16
 465              		@ frame_needed = 1, uses_anonymous_args = 0
 466 0000 80B5     		push	{r7, lr}	@
 467              		.cfi_def_cfa_offset 8
 468              		.cfi_offset 7, -8
 469              		.cfi_offset 14, -4
 470 0002 84B0     		sub	sp, sp, #16	@,,
 471              		.cfi_def_cfa_offset 24
 472 0004 00AF     		add	r7, sp, #0	@,,
 473              		.cfi_def_cfa_register 7
 474 0006 0346     		mov	r3, r0	@ tmp110, portNum
 475 0008 3960     		str	r1, [r7]	@ bitValue, bitValue
 476 000a FB71     		strb	r3, [r7, #7]	@ tmp111, portNum
 226:core/lpc17xx_gpio.c **** 	LPC_GPIO_TypeDef *pGPIO = GPIO_GetPointer(portNum);
 477              		.loc 1 226 0
 478 000c FB79     		ldrb	r3, [r7, #7]	@ zero_extendqisi2	@ tmp112, portNum
 479 000e 1846     		mov	r0, r3	@, tmp112
 480 0010 FFF7FEFF 		bl	GPIO_GetPointer	@
 481 0014 F860     		str	r0, [r7, #12]	@, pGPIO
 227:core/lpc17xx_gpio.c **** 
 228:core/lpc17xx_gpio.c **** 	if (pGPIO != NULL) {
 482              		.loc 1 228 0
 483 0016 FB68     		ldr	r3, [r7, #12]	@ tmp113, pGPIO
 484 0018 002B     		cmp	r3, #0	@ tmp113,
 485 001a 02D0     		beq	.L45	@,
 229:core/lpc17xx_gpio.c **** 		pGPIO->FIOCLR = bitValue;
 486              		.loc 1 229 0
 487 001c FB68     		ldr	r3, [r7, #12]	@ tmp114, pGPIO
 488 001e 3A68     		ldr	r2, [r7]	@ tmp115, bitValue
 489 0020 DA61     		str	r2, [r3, #28]	@ tmp115, pGPIO_2->D.4657.FIOCLR
 490              	.L45:
 230:core/lpc17xx_gpio.c **** 	}
 231:core/lpc17xx_gpio.c **** }
 491              		.loc 1 231 0
 492 0022 1037     		adds	r7, r7, #16	@,,
 493              		.cfi_def_cfa_offset 8
 494 0024 BD46     		mov	sp, r7	@,
 495              		.cfi_def_cfa_register 13
 496              		@ sp needed	@
 497 0026 80BD     		pop	{r7, pc}	@
 498              		.cfi_endproc
 499              	.LFE60:
 500              		.size	GPIO_ClearValue, .-GPIO_ClearValue
 501              		.section	.text.GPIO_ReadValue,"ax",%progbits
 502              		.align	2
 503              		.global	GPIO_ReadValue
 504              		.thumb
 505              		.thumb_func
 506              		.type	GPIO_ReadValue, %function
 507              	GPIO_ReadValue:
 508              	.LFB61:
 232:core/lpc17xx_gpio.c **** 
 233:core/lpc17xx_gpio.c **** /*********************************************************************//**
ARM GAS  C:\Users\COSMIN~1.MAR\AppData\Local\Temp\ccJVXHYk.s 			page 14


 234:core/lpc17xx_gpio.c ****  * @brief		Read Current state on port pin that have input direction of GPIO
 235:core/lpc17xx_gpio.c ****  * @param[in]	portNum		Port number to read value, in range from 0 to 4
 236:core/lpc17xx_gpio.c ****  * @return		Current value of GPIO port.
 237:core/lpc17xx_gpio.c ****  *
 238:core/lpc17xx_gpio.c ****  * Note: Return value contain state of each port pin (bit) on that GPIO regardless
 239:core/lpc17xx_gpio.c ****  * its direction is input or output.
 240:core/lpc17xx_gpio.c ****  **********************************************************************/
 241:core/lpc17xx_gpio.c **** uint32_t GPIO_ReadValue(uint8_t portNum)
 242:core/lpc17xx_gpio.c **** {
 509              		.loc 1 242 0
 510              		.cfi_startproc
 511              		@ args = 0, pretend = 0, frame = 16
 512              		@ frame_needed = 1, uses_anonymous_args = 0
 513 0000 80B5     		push	{r7, lr}	@
 514              		.cfi_def_cfa_offset 8
 515              		.cfi_offset 7, -8
 516              		.cfi_offset 14, -4
 517 0002 84B0     		sub	sp, sp, #16	@,,
 518              		.cfi_def_cfa_offset 24
 519 0004 00AF     		add	r7, sp, #0	@,,
 520              		.cfi_def_cfa_register 7
 521 0006 0346     		mov	r3, r0	@ tmp112, portNum
 522 0008 FB71     		strb	r3, [r7, #7]	@ tmp113, portNum
 243:core/lpc17xx_gpio.c **** 	LPC_GPIO_TypeDef *pGPIO = GPIO_GetPointer(portNum);
 523              		.loc 1 243 0
 524 000a FB79     		ldrb	r3, [r7, #7]	@ zero_extendqisi2	@ tmp114, portNum
 525 000c 1846     		mov	r0, r3	@, tmp114
 526 000e FFF7FEFF 		bl	GPIO_GetPointer	@
 527 0012 F860     		str	r0, [r7, #12]	@, pGPIO
 244:core/lpc17xx_gpio.c **** 
 245:core/lpc17xx_gpio.c **** 	if (pGPIO != NULL) {
 528              		.loc 1 245 0
 529 0014 FB68     		ldr	r3, [r7, #12]	@ tmp115, pGPIO
 530 0016 002B     		cmp	r3, #0	@ tmp115,
 531 0018 02D0     		beq	.L48	@,
 246:core/lpc17xx_gpio.c **** 		return pGPIO->FIOPIN;
 532              		.loc 1 246 0
 533 001a FB68     		ldr	r3, [r7, #12]	@ tmp116, pGPIO
 534 001c 5B69     		ldr	r3, [r3, #20]	@ D.5845, pGPIO_3->D.4631.FIOPIN
 535 001e 00E0     		b	.L49	@
 536              	.L48:
 247:core/lpc17xx_gpio.c **** 	}
 248:core/lpc17xx_gpio.c **** 
 249:core/lpc17xx_gpio.c **** 	return (0);
 537              		.loc 1 249 0
 538 0020 0023     		movs	r3, #0	@ D.5845,
 539              	.L49:
 250:core/lpc17xx_gpio.c **** }
 540              		.loc 1 250 0
 541 0022 1846     		mov	r0, r3	@, <retval>
 542 0024 1037     		adds	r7, r7, #16	@,,
 543              		.cfi_def_cfa_offset 8
 544 0026 BD46     		mov	sp, r7	@,
 545              		.cfi_def_cfa_register 13
 546              		@ sp needed	@
 547 0028 80BD     		pop	{r7, pc}	@
 548              		.cfi_endproc
ARM GAS  C:\Users\COSMIN~1.MAR\AppData\Local\Temp\ccJVXHYk.s 			page 15


 549              	.LFE61:
 550              		.size	GPIO_ReadValue, .-GPIO_ReadValue
 551 002a 00BF     		.section	.text.GPIO_IntCmd,"ax",%progbits
 552              		.align	2
 553              		.global	GPIO_IntCmd
 554              		.thumb
 555              		.thumb_func
 556              		.type	GPIO_IntCmd, %function
 557              	GPIO_IntCmd:
 558              	.LFB62:
 251:core/lpc17xx_gpio.c **** 
 252:core/lpc17xx_gpio.c **** /*********************************************************************//**
 253:core/lpc17xx_gpio.c ****  * @brief		Enable GPIO interrupt (just used for P0.0-P0.30, P2.0-P2.13)
 254:core/lpc17xx_gpio.c ****  * @param[in]	portNum		Port number to read value, should be: 0 or 2
 255:core/lpc17xx_gpio.c ****  * @param[in]	bitValue	Value that contains all bits on GPIO to enable,
 256:core/lpc17xx_gpio.c ****  * 							in range from 0 to 0xFFFFFFFF.
 257:core/lpc17xx_gpio.c ****  * @param[in]	edgeState	state of edge, should be:
 258:core/lpc17xx_gpio.c ****  * 							- 0: Rising edge
 259:core/lpc17xx_gpio.c ****  * 							- 1: Falling edge
 260:core/lpc17xx_gpio.c ****  * @return		None
 261:core/lpc17xx_gpio.c ****  **********************************************************************/
 262:core/lpc17xx_gpio.c **** void GPIO_IntCmd(uint8_t portNum, uint32_t bitValue, uint8_t edgeState)
 263:core/lpc17xx_gpio.c **** {
 559              		.loc 1 263 0
 560              		.cfi_startproc
 561              		@ args = 0, pretend = 0, frame = 8
 562              		@ frame_needed = 1, uses_anonymous_args = 0
 563              		@ link register save eliminated.
 564 0000 80B4     		push	{r7}	@
 565              		.cfi_def_cfa_offset 4
 566              		.cfi_offset 7, -4
 567 0002 83B0     		sub	sp, sp, #12	@,,
 568              		.cfi_def_cfa_offset 16
 569 0004 00AF     		add	r7, sp, #0	@,,
 570              		.cfi_def_cfa_register 7
 571 0006 0346     		mov	r3, r0	@ tmp126, portNum
 572 0008 3960     		str	r1, [r7]	@ bitValue, bitValue
 573 000a FB71     		strb	r3, [r7, #7]	@ tmp127, portNum
 574 000c 1346     		mov	r3, r2	@ tmp129, tmp128
 575 000e BB71     		strb	r3, [r7, #6]	@ tmp129, edgeState
 264:core/lpc17xx_gpio.c **** 	if((portNum == 0)&&(edgeState == 0))
 576              		.loc 1 264 0
 577 0010 FB79     		ldrb	r3, [r7, #7]	@ zero_extendqisi2	@ tmp130, portNum
 578 0012 002B     		cmp	r3, #0	@ tmp130,
 579 0014 09D1     		bne	.L51	@,
 580              		.loc 1 264 0 is_stmt 0 discriminator 1
 581 0016 BB79     		ldrb	r3, [r7, #6]	@ zero_extendqisi2	@ tmp131, edgeState
 582 0018 002B     		cmp	r3, #0	@ tmp131,
 583 001a 06D1     		bne	.L51	@,
 265:core/lpc17xx_gpio.c **** 		LPC_GPIOINT->IO0IntEnR |= bitValue;
 584              		.loc 1 265 0 is_stmt 1
 585 001c 1949     		ldr	r1, .L56	@ D.5846,
 586 001e 194B     		ldr	r3, .L56	@ D.5846,
 587 0020 1A69     		ldr	r2, [r3, #16]	@ D.5847, _4->IO0IntEnR
 588 0022 3B68     		ldr	r3, [r7]	@ tmp132, bitValue
 589 0024 1343     		orrs	r3, r3, r2	@, D.5847, tmp132, D.5847
 590 0026 0B61     		str	r3, [r1, #16]	@ D.5847, _3->IO0IntEnR
ARM GAS  C:\Users\COSMIN~1.MAR\AppData\Local\Temp\ccJVXHYk.s 			page 16


 591 0028 27E0     		b	.L50	@
 592              	.L51:
 266:core/lpc17xx_gpio.c **** 	else if ((portNum == 2)&&(edgeState == 0))
 593              		.loc 1 266 0
 594 002a FB79     		ldrb	r3, [r7, #7]	@ zero_extendqisi2	@ tmp133, portNum
 595 002c 022B     		cmp	r3, #2	@ tmp133,
 596 002e 09D1     		bne	.L53	@,
 597              		.loc 1 266 0 is_stmt 0 discriminator 1
 598 0030 BB79     		ldrb	r3, [r7, #6]	@ zero_extendqisi2	@ tmp134, edgeState
 599 0032 002B     		cmp	r3, #0	@ tmp134,
 600 0034 06D1     		bne	.L53	@,
 267:core/lpc17xx_gpio.c **** 		LPC_GPIOINT->IO2IntEnR |= bitValue;
 601              		.loc 1 267 0 is_stmt 1
 602 0036 1349     		ldr	r1, .L56	@ D.5846,
 603 0038 124B     		ldr	r3, .L56	@ D.5846,
 604 003a 1A6B     		ldr	r2, [r3, #48]	@ D.5847, _9->IO2IntEnR
 605 003c 3B68     		ldr	r3, [r7]	@ tmp135, bitValue
 606 003e 1343     		orrs	r3, r3, r2	@, D.5847, tmp135, D.5847
 607 0040 0B63     		str	r3, [r1, #48]	@ D.5847, _8->IO2IntEnR
 608 0042 1AE0     		b	.L50	@
 609              	.L53:
 268:core/lpc17xx_gpio.c **** 	else if ((portNum == 0)&&(edgeState == 1))
 610              		.loc 1 268 0
 611 0044 FB79     		ldrb	r3, [r7, #7]	@ zero_extendqisi2	@ tmp136, portNum
 612 0046 002B     		cmp	r3, #0	@ tmp136,
 613 0048 09D1     		bne	.L54	@,
 614              		.loc 1 268 0 is_stmt 0 discriminator 1
 615 004a BB79     		ldrb	r3, [r7, #6]	@ zero_extendqisi2	@ tmp137, edgeState
 616 004c 012B     		cmp	r3, #1	@ tmp137,
 617 004e 06D1     		bne	.L54	@,
 269:core/lpc17xx_gpio.c **** 		LPC_GPIOINT->IO0IntEnF |= bitValue;
 618              		.loc 1 269 0 is_stmt 1
 619 0050 0C49     		ldr	r1, .L56	@ D.5846,
 620 0052 0C4B     		ldr	r3, .L56	@ D.5846,
 621 0054 5A69     		ldr	r2, [r3, #20]	@ D.5847, _13->IO0IntEnF
 622 0056 3B68     		ldr	r3, [r7]	@ tmp138, bitValue
 623 0058 1343     		orrs	r3, r3, r2	@, D.5847, tmp138, D.5847
 624 005a 4B61     		str	r3, [r1, #20]	@ D.5847, _12->IO0IntEnF
 625 005c 0DE0     		b	.L50	@
 626              	.L54:
 270:core/lpc17xx_gpio.c **** 	else if ((portNum == 2)&&(edgeState == 1))
 627              		.loc 1 270 0
 628 005e FB79     		ldrb	r3, [r7, #7]	@ zero_extendqisi2	@ tmp139, portNum
 629 0060 022B     		cmp	r3, #2	@ tmp139,
 630 0062 09D1     		bne	.L55	@,
 631              		.loc 1 270 0 is_stmt 0 discriminator 1
 632 0064 BB79     		ldrb	r3, [r7, #6]	@ zero_extendqisi2	@ tmp140, edgeState
 633 0066 012B     		cmp	r3, #1	@ tmp140,
 634 0068 06D1     		bne	.L55	@,
 271:core/lpc17xx_gpio.c **** 		LPC_GPIOINT->IO2IntEnF |= bitValue;
 635              		.loc 1 271 0 is_stmt 1
 636 006a 0649     		ldr	r1, .L56	@ D.5846,
 637 006c 054B     		ldr	r3, .L56	@ D.5846,
 638 006e 5A6B     		ldr	r2, [r3, #52]	@ D.5847, _17->IO2IntEnF
 639 0070 3B68     		ldr	r3, [r7]	@ tmp141, bitValue
 640 0072 1343     		orrs	r3, r3, r2	@, D.5847, tmp141, D.5847
 641 0074 4B63     		str	r3, [r1, #52]	@ D.5847, _16->IO2IntEnF
ARM GAS  C:\Users\COSMIN~1.MAR\AppData\Local\Temp\ccJVXHYk.s 			page 17


 642 0076 00E0     		b	.L50	@
 643              	.L55:
 272:core/lpc17xx_gpio.c **** 	else
 273:core/lpc17xx_gpio.c **** 		//Error
 274:core/lpc17xx_gpio.c **** 		while(1);
 644              		.loc 1 274 0 discriminator 1
 645 0078 FEE7     		b	.L55	@
 646              	.L50:
 275:core/lpc17xx_gpio.c **** }
 647              		.loc 1 275 0
 648 007a 0C37     		adds	r7, r7, #12	@,,
 649              		.cfi_def_cfa_offset 4
 650 007c BD46     		mov	sp, r7	@,
 651              		.cfi_def_cfa_register 13
 652              		@ sp needed	@
 653 007e 5DF8047B 		ldr	r7, [sp], #4	@,
 654              		.cfi_restore 7
 655              		.cfi_def_cfa_offset 0
 656 0082 7047     		bx	lr	@
 657              	.L57:
 658              		.align	2
 659              	.L56:
 660 0084 80800240 		.word	1073905792
 661              		.cfi_endproc
 662              	.LFE62:
 663              		.size	GPIO_IntCmd, .-GPIO_IntCmd
 664              		.section	.text.GPIO_GetIntStatus,"ax",%progbits
 665              		.align	2
 666              		.global	GPIO_GetIntStatus
 667              		.thumb
 668              		.thumb_func
 669              		.type	GPIO_GetIntStatus, %function
 670              	GPIO_GetIntStatus:
 671              	.LFB63:
 276:core/lpc17xx_gpio.c **** 
 277:core/lpc17xx_gpio.c **** /*********************************************************************//**
 278:core/lpc17xx_gpio.c ****  * @brief		Get GPIO Interrupt Status (just used for P0.0-P0.30, P2.0-P2.13)
 279:core/lpc17xx_gpio.c ****  * @param[in]	portNum		Port number to read value, should be: 0 or 2
 280:core/lpc17xx_gpio.c ****  * @param[in]	pinNum		Pin number, should be: 0..30(with port 0) and 0..13
 281:core/lpc17xx_gpio.c ****  * 							(with port 2)
 282:core/lpc17xx_gpio.c ****  * @param[in]	edgeState	state of edge, should be:
 283:core/lpc17xx_gpio.c ****  * 							- 0: Rising edge
 284:core/lpc17xx_gpio.c ****  * 							- 1: Falling edge
 285:core/lpc17xx_gpio.c ****  * @return		Bool	could be:
 286:core/lpc17xx_gpio.c ****  * 						- ENABLE: Interrupt has been generated due to a rising
 287:core/lpc17xx_gpio.c ****  * 								edge on P0.0
 288:core/lpc17xx_gpio.c ****  * 						- DISABLE: A rising edge has not been detected on P0.0
 289:core/lpc17xx_gpio.c ****  **********************************************************************/
 290:core/lpc17xx_gpio.c **** FunctionalState GPIO_GetIntStatus(uint8_t portNum, uint32_t pinNum, uint8_t edgeState)
 291:core/lpc17xx_gpio.c **** {
 672              		.loc 1 291 0
 673              		.cfi_startproc
 674              		@ args = 0, pretend = 0, frame = 8
 675              		@ frame_needed = 1, uses_anonymous_args = 0
 676              		@ link register save eliminated.
 677 0000 80B4     		push	{r7}	@
 678              		.cfi_def_cfa_offset 4
ARM GAS  C:\Users\COSMIN~1.MAR\AppData\Local\Temp\ccJVXHYk.s 			page 18


 679              		.cfi_offset 7, -4
 680 0002 83B0     		sub	sp, sp, #12	@,,
 681              		.cfi_def_cfa_offset 16
 682 0004 00AF     		add	r7, sp, #0	@,,
 683              		.cfi_def_cfa_register 7
 684 0006 0346     		mov	r3, r0	@ tmp132, portNum
 685 0008 3960     		str	r1, [r7]	@ pinNum, pinNum
 686 000a FB71     		strb	r3, [r7, #7]	@ tmp133, portNum
 687 000c 1346     		mov	r3, r2	@ tmp135, tmp134
 688 000e BB71     		strb	r3, [r7, #6]	@ tmp135, edgeState
 292:core/lpc17xx_gpio.c **** 	if((portNum == 0) && (edgeState == 0))//Rising Edge
 689              		.loc 1 292 0
 690 0010 FB79     		ldrb	r3, [r7, #7]	@ zero_extendqisi2	@ tmp136, portNum
 691 0012 002B     		cmp	r3, #0	@ tmp136,
 692 0014 0CD1     		bne	.L59	@,
 693              		.loc 1 292 0 is_stmt 0 discriminator 1
 694 0016 BB79     		ldrb	r3, [r7, #6]	@ zero_extendqisi2	@ tmp137, edgeState
 695 0018 002B     		cmp	r3, #0	@ tmp137,
 696 001a 09D1     		bne	.L59	@,
 293:core/lpc17xx_gpio.c **** 		return (((LPC_GPIOINT->IO0IntStatR)>>pinNum)& 0x1);
 697              		.loc 1 293 0 is_stmt 1
 698 001c 204B     		ldr	r3, .L64	@ D.5849,
 699 001e 5A68     		ldr	r2, [r3, #4]	@ D.5850, _4->IO0IntStatR
 700 0020 3B68     		ldr	r3, [r7]	@ D.5851, pinNum
 701 0022 22FA03F3 		lsr	r3, r2, r3	@ D.5850, D.5850, D.5851
 702 0026 DBB2     		uxtb	r3, r3	@ D.5852, D.5850
 703 0028 03F00103 		and	r3, r3, #1	@ tmp138, D.5852,
 704 002c DBB2     		uxtb	r3, r3	@ D.5848, tmp138
 705 002e 30E0     		b	.L60	@
 706              	.L59:
 294:core/lpc17xx_gpio.c **** 	else if ((portNum == 2) && (edgeState == 0))
 707              		.loc 1 294 0
 708 0030 FB79     		ldrb	r3, [r7, #7]	@ zero_extendqisi2	@ tmp139, portNum
 709 0032 022B     		cmp	r3, #2	@ tmp139,
 710 0034 0CD1     		bne	.L61	@,
 711              		.loc 1 294 0 is_stmt 0 discriminator 1
 712 0036 BB79     		ldrb	r3, [r7, #6]	@ zero_extendqisi2	@ tmp140, edgeState
 713 0038 002B     		cmp	r3, #0	@ tmp140,
 714 003a 09D1     		bne	.L61	@,
 295:core/lpc17xx_gpio.c **** 		return (((LPC_GPIOINT->IO2IntStatR)>>pinNum)& 0x1);
 715              		.loc 1 295 0 is_stmt 1
 716 003c 184B     		ldr	r3, .L64	@ D.5849,
 717 003e 5A6A     		ldr	r2, [r3, #36]	@ D.5850, _11->IO2IntStatR
 718 0040 3B68     		ldr	r3, [r7]	@ D.5851, pinNum
 719 0042 22FA03F3 		lsr	r3, r2, r3	@ D.5850, D.5850, D.5851
 720 0046 DBB2     		uxtb	r3, r3	@ D.5852, D.5850
 721 0048 03F00103 		and	r3, r3, #1	@ tmp141, D.5852,
 722 004c DBB2     		uxtb	r3, r3	@ D.5848, tmp141
 723 004e 20E0     		b	.L60	@
 724              	.L61:
 296:core/lpc17xx_gpio.c **** 	else if ((portNum == 0) && (edgeState == 1))//Falling Edge
 725              		.loc 1 296 0
 726 0050 FB79     		ldrb	r3, [r7, #7]	@ zero_extendqisi2	@ tmp142, portNum
 727 0052 002B     		cmp	r3, #0	@ tmp142,
 728 0054 0CD1     		bne	.L62	@,
 729              		.loc 1 296 0 is_stmt 0 discriminator 1
 730 0056 BB79     		ldrb	r3, [r7, #6]	@ zero_extendqisi2	@ tmp143, edgeState
ARM GAS  C:\Users\COSMIN~1.MAR\AppData\Local\Temp\ccJVXHYk.s 			page 19


 731 0058 012B     		cmp	r3, #1	@ tmp143,
 732 005a 09D1     		bne	.L62	@,
 297:core/lpc17xx_gpio.c **** 		return (((LPC_GPIOINT->IO0IntStatF)>>pinNum)& 0x1);
 733              		.loc 1 297 0 is_stmt 1
 734 005c 104B     		ldr	r3, .L64	@ D.5849,
 735 005e 9A68     		ldr	r2, [r3, #8]	@ D.5850, _17->IO0IntStatF
 736 0060 3B68     		ldr	r3, [r7]	@ D.5851, pinNum
 737 0062 22FA03F3 		lsr	r3, r2, r3	@ D.5850, D.5850, D.5851
 738 0066 DBB2     		uxtb	r3, r3	@ D.5852, D.5850
 739 0068 03F00103 		and	r3, r3, #1	@ tmp144, D.5852,
 740 006c DBB2     		uxtb	r3, r3	@ D.5848, tmp144
 741 006e 10E0     		b	.L60	@
 742              	.L62:
 298:core/lpc17xx_gpio.c **** 	else if ((portNum == 2) && (edgeState == 1))
 743              		.loc 1 298 0
 744 0070 FB79     		ldrb	r3, [r7, #7]	@ zero_extendqisi2	@ tmp145, portNum
 745 0072 022B     		cmp	r3, #2	@ tmp145,
 746 0074 0CD1     		bne	.L63	@,
 747              		.loc 1 298 0 is_stmt 0 discriminator 1
 748 0076 BB79     		ldrb	r3, [r7, #6]	@ zero_extendqisi2	@ tmp146, edgeState
 749 0078 012B     		cmp	r3, #1	@ tmp146,
 750 007a 09D1     		bne	.L63	@,
 299:core/lpc17xx_gpio.c **** 		return (((LPC_GPIOINT->IO2IntStatF)>>pinNum)& 0x1);
 751              		.loc 1 299 0 is_stmt 1
 752 007c 084B     		ldr	r3, .L64	@ D.5849,
 753 007e 9A6A     		ldr	r2, [r3, #40]	@ D.5850, _23->IO2IntStatF
 754 0080 3B68     		ldr	r3, [r7]	@ D.5851, pinNum
 755 0082 22FA03F3 		lsr	r3, r2, r3	@ D.5850, D.5850, D.5851
 756 0086 DBB2     		uxtb	r3, r3	@ D.5852, D.5850
 757 0088 03F00103 		and	r3, r3, #1	@ tmp147, D.5852,
 758 008c DBB2     		uxtb	r3, r3	@ D.5848, tmp147
 759 008e 00E0     		b	.L60	@
 760              	.L63:
 300:core/lpc17xx_gpio.c **** 	else
 301:core/lpc17xx_gpio.c **** 		//Error
 302:core/lpc17xx_gpio.c **** 		while(1);
 761              		.loc 1 302 0 discriminator 1
 762 0090 FEE7     		b	.L63	@
 763              	.L60:
 303:core/lpc17xx_gpio.c **** }
 764              		.loc 1 303 0
 765 0092 1846     		mov	r0, r3	@, <retval>
 766 0094 0C37     		adds	r7, r7, #12	@,,
 767              		.cfi_def_cfa_offset 4
 768 0096 BD46     		mov	sp, r7	@,
 769              		.cfi_def_cfa_register 13
 770              		@ sp needed	@
 771 0098 5DF8047B 		ldr	r7, [sp], #4	@,
 772              		.cfi_restore 7
 773              		.cfi_def_cfa_offset 0
 774 009c 7047     		bx	lr	@
 775              	.L65:
 776 009e 00BF     		.align	2
 777              	.L64:
 778 00a0 80800240 		.word	1073905792
 779              		.cfi_endproc
 780              	.LFE63:
ARM GAS  C:\Users\COSMIN~1.MAR\AppData\Local\Temp\ccJVXHYk.s 			page 20


 781              		.size	GPIO_GetIntStatus, .-GPIO_GetIntStatus
 782              		.section	.text.GPIO_ClearInt,"ax",%progbits
 783              		.align	2
 784              		.global	GPIO_ClearInt
 785              		.thumb
 786              		.thumb_func
 787              		.type	GPIO_ClearInt, %function
 788              	GPIO_ClearInt:
 789              	.LFB64:
 304:core/lpc17xx_gpio.c **** /*********************************************************************//**
 305:core/lpc17xx_gpio.c ****  * @brief		Clear GPIO interrupt (just used for P0.0-P0.30, P2.0-P2.13)
 306:core/lpc17xx_gpio.c ****  * @param[in]	portNum		Port number to read value, should be: 0 or 2
 307:core/lpc17xx_gpio.c ****  * @param[in]	bitValue	Value that contains all bits on GPIO to enable,
 308:core/lpc17xx_gpio.c ****  * 							in range from 0 to 0xFFFFFFFF.
 309:core/lpc17xx_gpio.c ****  * @return		None
 310:core/lpc17xx_gpio.c ****  **********************************************************************/
 311:core/lpc17xx_gpio.c **** void GPIO_ClearInt(uint8_t portNum, uint32_t bitValue)
 312:core/lpc17xx_gpio.c **** {
 790              		.loc 1 312 0
 791              		.cfi_startproc
 792              		@ args = 0, pretend = 0, frame = 8
 793              		@ frame_needed = 1, uses_anonymous_args = 0
 794              		@ link register save eliminated.
 795 0000 80B4     		push	{r7}	@
 796              		.cfi_def_cfa_offset 4
 797              		.cfi_offset 7, -4
 798 0002 83B0     		sub	sp, sp, #12	@,,
 799              		.cfi_def_cfa_offset 16
 800 0004 00AF     		add	r7, sp, #0	@,,
 801              		.cfi_def_cfa_register 7
 802 0006 0346     		mov	r3, r0	@ tmp112, portNum
 803 0008 3960     		str	r1, [r7]	@ bitValue, bitValue
 804 000a FB71     		strb	r3, [r7, #7]	@ tmp113, portNum
 313:core/lpc17xx_gpio.c **** 	if(portNum == 0)
 805              		.loc 1 313 0
 806 000c FB79     		ldrb	r3, [r7, #7]	@ zero_extendqisi2	@ tmp114, portNum
 807 000e 002B     		cmp	r3, #0	@ tmp114,
 808 0010 03D1     		bne	.L67	@,
 314:core/lpc17xx_gpio.c **** 		LPC_GPIOINT->IO0IntClr = bitValue;
 809              		.loc 1 314 0
 810 0012 084A     		ldr	r2, .L70	@ D.5853,
 811 0014 3B68     		ldr	r3, [r7]	@ tmp115, bitValue
 812 0016 D360     		str	r3, [r2, #12]	@ tmp115, _2->IO0IntClr
 813 0018 07E0     		b	.L66	@
 814              	.L67:
 315:core/lpc17xx_gpio.c **** 	else if (portNum == 2)
 815              		.loc 1 315 0
 816 001a FB79     		ldrb	r3, [r7, #7]	@ zero_extendqisi2	@ tmp116, portNum
 817 001c 022B     		cmp	r3, #2	@ tmp116,
 818 001e 03D1     		bne	.L69	@,
 316:core/lpc17xx_gpio.c **** 		LPC_GPIOINT->IO2IntClr = bitValue;
 819              		.loc 1 316 0
 820 0020 044A     		ldr	r2, .L70	@ D.5853,
 821 0022 3B68     		ldr	r3, [r7]	@ tmp117, bitValue
 822 0024 D362     		str	r3, [r2, #44]	@ tmp117, _4->IO2IntClr
 823 0026 00E0     		b	.L66	@
 824              	.L69:
ARM GAS  C:\Users\COSMIN~1.MAR\AppData\Local\Temp\ccJVXHYk.s 			page 21


 317:core/lpc17xx_gpio.c **** 	else
 318:core/lpc17xx_gpio.c **** 		//Invalid portNum
 319:core/lpc17xx_gpio.c **** 		while(1);
 825              		.loc 1 319 0 discriminator 1
 826 0028 FEE7     		b	.L69	@
 827              	.L66:
 320:core/lpc17xx_gpio.c **** }
 828              		.loc 1 320 0
 829 002a 0C37     		adds	r7, r7, #12	@,,
 830              		.cfi_def_cfa_offset 4
 831 002c BD46     		mov	sp, r7	@,
 832              		.cfi_def_cfa_register 13
 833              		@ sp needed	@
 834 002e 5DF8047B 		ldr	r7, [sp], #4	@,
 835              		.cfi_restore 7
 836              		.cfi_def_cfa_offset 0
 837 0032 7047     		bx	lr	@
 838              	.L71:
 839              		.align	2
 840              	.L70:
 841 0034 80800240 		.word	1073905792
 842              		.cfi_endproc
 843              	.LFE64:
 844              		.size	GPIO_ClearInt, .-GPIO_ClearInt
 845              		.section	.text.FIO_SetDir,"ax",%progbits
 846              		.align	2
 847              		.global	FIO_SetDir
 848              		.thumb
 849              		.thumb_func
 850              		.type	FIO_SetDir, %function
 851              	FIO_SetDir:
 852              	.LFB65:
 321:core/lpc17xx_gpio.c **** 
 322:core/lpc17xx_gpio.c **** /* FIO word accessible ----------------------------------------------------------------- */
 323:core/lpc17xx_gpio.c **** /* Stub function for FIO (word-accessible) style */
 324:core/lpc17xx_gpio.c **** 
 325:core/lpc17xx_gpio.c **** /**
 326:core/lpc17xx_gpio.c ****  * @brief The same with GPIO_SetDir()
 327:core/lpc17xx_gpio.c ****  */
 328:core/lpc17xx_gpio.c **** void FIO_SetDir(uint8_t portNum, uint32_t bitValue, uint8_t dir)
 329:core/lpc17xx_gpio.c **** {
 853              		.loc 1 329 0
 854              		.cfi_startproc
 855              		@ args = 0, pretend = 0, frame = 8
 856              		@ frame_needed = 1, uses_anonymous_args = 0
 857 0000 80B5     		push	{r7, lr}	@
 858              		.cfi_def_cfa_offset 8
 859              		.cfi_offset 7, -8
 860              		.cfi_offset 14, -4
 861 0002 82B0     		sub	sp, sp, #8	@,,
 862              		.cfi_def_cfa_offset 16
 863 0004 00AF     		add	r7, sp, #0	@,,
 864              		.cfi_def_cfa_register 7
 865 0006 0346     		mov	r3, r0	@ tmp110, portNum
 866 0008 3960     		str	r1, [r7]	@ bitValue, bitValue
 867 000a FB71     		strb	r3, [r7, #7]	@ tmp111, portNum
 868 000c 1346     		mov	r3, r2	@ tmp113, tmp112
ARM GAS  C:\Users\COSMIN~1.MAR\AppData\Local\Temp\ccJVXHYk.s 			page 22


 869 000e BB71     		strb	r3, [r7, #6]	@ tmp113, dir
 330:core/lpc17xx_gpio.c **** 	GPIO_SetDir(portNum, bitValue, dir);
 870              		.loc 1 330 0
 871 0010 FA79     		ldrb	r2, [r7, #7]	@ zero_extendqisi2	@ tmp114, portNum
 872 0012 BB79     		ldrb	r3, [r7, #6]	@ zero_extendqisi2	@ tmp115, dir
 873 0014 1046     		mov	r0, r2	@, tmp114
 874 0016 3968     		ldr	r1, [r7]	@, bitValue
 875 0018 1A46     		mov	r2, r3	@, tmp115
 876 001a FFF7FEFF 		bl	GPIO_SetDir	@
 331:core/lpc17xx_gpio.c **** }
 877              		.loc 1 331 0
 878 001e 0837     		adds	r7, r7, #8	@,,
 879              		.cfi_def_cfa_offset 8
 880 0020 BD46     		mov	sp, r7	@,
 881              		.cfi_def_cfa_register 13
 882              		@ sp needed	@
 883 0022 80BD     		pop	{r7, pc}	@
 884              		.cfi_endproc
 885              	.LFE65:
 886              		.size	FIO_SetDir, .-FIO_SetDir
 887              		.section	.text.FIO_SetValue,"ax",%progbits
 888              		.align	2
 889              		.global	FIO_SetValue
 890              		.thumb
 891              		.thumb_func
 892              		.type	FIO_SetValue, %function
 893              	FIO_SetValue:
 894              	.LFB66:
 332:core/lpc17xx_gpio.c **** 
 333:core/lpc17xx_gpio.c **** /**
 334:core/lpc17xx_gpio.c ****  * @brief The same with GPIO_SetValue()
 335:core/lpc17xx_gpio.c ****  */
 336:core/lpc17xx_gpio.c **** void FIO_SetValue(uint8_t portNum, uint32_t bitValue)
 337:core/lpc17xx_gpio.c **** {
 895              		.loc 1 337 0
 896              		.cfi_startproc
 897              		@ args = 0, pretend = 0, frame = 8
 898              		@ frame_needed = 1, uses_anonymous_args = 0
 899 0000 80B5     		push	{r7, lr}	@
 900              		.cfi_def_cfa_offset 8
 901              		.cfi_offset 7, -8
 902              		.cfi_offset 14, -4
 903 0002 82B0     		sub	sp, sp, #8	@,,
 904              		.cfi_def_cfa_offset 16
 905 0004 00AF     		add	r7, sp, #0	@,,
 906              		.cfi_def_cfa_register 7
 907 0006 0346     		mov	r3, r0	@ tmp110, portNum
 908 0008 3960     		str	r1, [r7]	@ bitValue, bitValue
 909 000a FB71     		strb	r3, [r7, #7]	@ tmp111, portNum
 338:core/lpc17xx_gpio.c **** 	GPIO_SetValue(portNum, bitValue);
 910              		.loc 1 338 0
 911 000c FB79     		ldrb	r3, [r7, #7]	@ zero_extendqisi2	@ tmp112, portNum
 912 000e 1846     		mov	r0, r3	@, tmp112
 913 0010 3968     		ldr	r1, [r7]	@, bitValue
 914 0012 FFF7FEFF 		bl	GPIO_SetValue	@
 339:core/lpc17xx_gpio.c **** }
 915              		.loc 1 339 0
ARM GAS  C:\Users\COSMIN~1.MAR\AppData\Local\Temp\ccJVXHYk.s 			page 23


 916 0016 0837     		adds	r7, r7, #8	@,,
 917              		.cfi_def_cfa_offset 8
 918 0018 BD46     		mov	sp, r7	@,
 919              		.cfi_def_cfa_register 13
 920              		@ sp needed	@
 921 001a 80BD     		pop	{r7, pc}	@
 922              		.cfi_endproc
 923              	.LFE66:
 924              		.size	FIO_SetValue, .-FIO_SetValue
 925              		.section	.text.FIO_ClearValue,"ax",%progbits
 926              		.align	2
 927              		.global	FIO_ClearValue
 928              		.thumb
 929              		.thumb_func
 930              		.type	FIO_ClearValue, %function
 931              	FIO_ClearValue:
 932              	.LFB67:
 340:core/lpc17xx_gpio.c **** 
 341:core/lpc17xx_gpio.c **** /**
 342:core/lpc17xx_gpio.c ****  * @brief The same with GPIO_ClearValue()
 343:core/lpc17xx_gpio.c ****  */
 344:core/lpc17xx_gpio.c **** void FIO_ClearValue(uint8_t portNum, uint32_t bitValue)
 345:core/lpc17xx_gpio.c **** {
 933              		.loc 1 345 0
 934              		.cfi_startproc
 935              		@ args = 0, pretend = 0, frame = 8
 936              		@ frame_needed = 1, uses_anonymous_args = 0
 937 0000 80B5     		push	{r7, lr}	@
 938              		.cfi_def_cfa_offset 8
 939              		.cfi_offset 7, -8
 940              		.cfi_offset 14, -4
 941 0002 82B0     		sub	sp, sp, #8	@,,
 942              		.cfi_def_cfa_offset 16
 943 0004 00AF     		add	r7, sp, #0	@,,
 944              		.cfi_def_cfa_register 7
 945 0006 0346     		mov	r3, r0	@ tmp110, portNum
 946 0008 3960     		str	r1, [r7]	@ bitValue, bitValue
 947 000a FB71     		strb	r3, [r7, #7]	@ tmp111, portNum
 346:core/lpc17xx_gpio.c **** 	GPIO_ClearValue(portNum, bitValue);
 948              		.loc 1 346 0
 949 000c FB79     		ldrb	r3, [r7, #7]	@ zero_extendqisi2	@ tmp112, portNum
 950 000e 1846     		mov	r0, r3	@, tmp112
 951 0010 3968     		ldr	r1, [r7]	@, bitValue
 952 0012 FFF7FEFF 		bl	GPIO_ClearValue	@
 347:core/lpc17xx_gpio.c **** }
 953              		.loc 1 347 0
 954 0016 0837     		adds	r7, r7, #8	@,,
 955              		.cfi_def_cfa_offset 8
 956 0018 BD46     		mov	sp, r7	@,
 957              		.cfi_def_cfa_register 13
 958              		@ sp needed	@
 959 001a 80BD     		pop	{r7, pc}	@
 960              		.cfi_endproc
 961              	.LFE67:
 962              		.size	FIO_ClearValue, .-FIO_ClearValue
 963              		.section	.text.FIO_ReadValue,"ax",%progbits
 964              		.align	2
ARM GAS  C:\Users\COSMIN~1.MAR\AppData\Local\Temp\ccJVXHYk.s 			page 24


 965              		.global	FIO_ReadValue
 966              		.thumb
 967              		.thumb_func
 968              		.type	FIO_ReadValue, %function
 969              	FIO_ReadValue:
 970              	.LFB68:
 348:core/lpc17xx_gpio.c **** 
 349:core/lpc17xx_gpio.c **** /**
 350:core/lpc17xx_gpio.c ****  * @brief The same with GPIO_ReadValue()
 351:core/lpc17xx_gpio.c ****  */
 352:core/lpc17xx_gpio.c **** uint32_t FIO_ReadValue(uint8_t portNum)
 353:core/lpc17xx_gpio.c **** {
 971              		.loc 1 353 0
 972              		.cfi_startproc
 973              		@ args = 0, pretend = 0, frame = 8
 974              		@ frame_needed = 1, uses_anonymous_args = 0
 975 0000 80B5     		push	{r7, lr}	@
 976              		.cfi_def_cfa_offset 8
 977              		.cfi_offset 7, -8
 978              		.cfi_offset 14, -4
 979 0002 82B0     		sub	sp, sp, #8	@,,
 980              		.cfi_def_cfa_offset 16
 981 0004 00AF     		add	r7, sp, #0	@,,
 982              		.cfi_def_cfa_register 7
 983 0006 0346     		mov	r3, r0	@ tmp112, portNum
 984 0008 FB71     		strb	r3, [r7, #7]	@ tmp113, portNum
 354:core/lpc17xx_gpio.c **** 	return (GPIO_ReadValue(portNum));
 985              		.loc 1 354 0
 986 000a FB79     		ldrb	r3, [r7, #7]	@ zero_extendqisi2	@ tmp114, portNum
 987 000c 1846     		mov	r0, r3	@, tmp114
 988 000e FFF7FEFF 		bl	GPIO_ReadValue	@
 989 0012 0346     		mov	r3, r0	@ D.5854,
 355:core/lpc17xx_gpio.c **** }
 990              		.loc 1 355 0
 991 0014 1846     		mov	r0, r3	@, <retval>
 992 0016 0837     		adds	r7, r7, #8	@,,
 993              		.cfi_def_cfa_offset 8
 994 0018 BD46     		mov	sp, r7	@,
 995              		.cfi_def_cfa_register 13
 996              		@ sp needed	@
 997 001a 80BD     		pop	{r7, pc}	@
 998              		.cfi_endproc
 999              	.LFE68:
 1000              		.size	FIO_ReadValue, .-FIO_ReadValue
 1001              		.section	.text.FIO_IntCmd,"ax",%progbits
 1002              		.align	2
 1003              		.global	FIO_IntCmd
 1004              		.thumb
 1005              		.thumb_func
 1006              		.type	FIO_IntCmd, %function
 1007              	FIO_IntCmd:
 1008              	.LFB69:
 356:core/lpc17xx_gpio.c **** 
 357:core/lpc17xx_gpio.c **** /**
 358:core/lpc17xx_gpio.c ****  * @brief The same with GPIO_IntCmd()
 359:core/lpc17xx_gpio.c ****  */
 360:core/lpc17xx_gpio.c **** void FIO_IntCmd(uint8_t portNum, uint32_t bitValue, uint8_t edgeState)
ARM GAS  C:\Users\COSMIN~1.MAR\AppData\Local\Temp\ccJVXHYk.s 			page 25


 361:core/lpc17xx_gpio.c **** {
 1009              		.loc 1 361 0
 1010              		.cfi_startproc
 1011              		@ args = 0, pretend = 0, frame = 8
 1012              		@ frame_needed = 1, uses_anonymous_args = 0
 1013 0000 80B5     		push	{r7, lr}	@
 1014              		.cfi_def_cfa_offset 8
 1015              		.cfi_offset 7, -8
 1016              		.cfi_offset 14, -4
 1017 0002 82B0     		sub	sp, sp, #8	@,,
 1018              		.cfi_def_cfa_offset 16
 1019 0004 00AF     		add	r7, sp, #0	@,,
 1020              		.cfi_def_cfa_register 7
 1021 0006 0346     		mov	r3, r0	@ tmp110, portNum
 1022 0008 3960     		str	r1, [r7]	@ bitValue, bitValue
 1023 000a FB71     		strb	r3, [r7, #7]	@ tmp111, portNum
 1024 000c 1346     		mov	r3, r2	@ tmp113, tmp112
 1025 000e BB71     		strb	r3, [r7, #6]	@ tmp113, edgeState
 362:core/lpc17xx_gpio.c **** 	GPIO_IntCmd(portNum, bitValue, edgeState);
 1026              		.loc 1 362 0
 1027 0010 FA79     		ldrb	r2, [r7, #7]	@ zero_extendqisi2	@ tmp114, portNum
 1028 0012 BB79     		ldrb	r3, [r7, #6]	@ zero_extendqisi2	@ tmp115, edgeState
 1029 0014 1046     		mov	r0, r2	@, tmp114
 1030 0016 3968     		ldr	r1, [r7]	@, bitValue
 1031 0018 1A46     		mov	r2, r3	@, tmp115
 1032 001a FFF7FEFF 		bl	GPIO_IntCmd	@
 363:core/lpc17xx_gpio.c **** }
 1033              		.loc 1 363 0
 1034 001e 0837     		adds	r7, r7, #8	@,,
 1035              		.cfi_def_cfa_offset 8
 1036 0020 BD46     		mov	sp, r7	@,
 1037              		.cfi_def_cfa_register 13
 1038              		@ sp needed	@
 1039 0022 80BD     		pop	{r7, pc}	@
 1040              		.cfi_endproc
 1041              	.LFE69:
 1042              		.size	FIO_IntCmd, .-FIO_IntCmd
 1043              		.section	.text.FIO_GetIntStatus,"ax",%progbits
 1044              		.align	2
 1045              		.global	FIO_GetIntStatus
 1046              		.thumb
 1047              		.thumb_func
 1048              		.type	FIO_GetIntStatus, %function
 1049              	FIO_GetIntStatus:
 1050              	.LFB70:
 364:core/lpc17xx_gpio.c **** 
 365:core/lpc17xx_gpio.c **** /**
 366:core/lpc17xx_gpio.c ****  * @brief The same with GPIO_GetIntStatus()
 367:core/lpc17xx_gpio.c ****  */
 368:core/lpc17xx_gpio.c **** FunctionalState FIO_GetIntStatus(uint8_t portNum, uint32_t pinNum, uint8_t edgeState)
 369:core/lpc17xx_gpio.c **** {
 1051              		.loc 1 369 0
 1052              		.cfi_startproc
 1053              		@ args = 0, pretend = 0, frame = 8
 1054              		@ frame_needed = 1, uses_anonymous_args = 0
 1055 0000 80B5     		push	{r7, lr}	@
 1056              		.cfi_def_cfa_offset 8
ARM GAS  C:\Users\COSMIN~1.MAR\AppData\Local\Temp\ccJVXHYk.s 			page 26


 1057              		.cfi_offset 7, -8
 1058              		.cfi_offset 14, -4
 1059 0002 82B0     		sub	sp, sp, #8	@,,
 1060              		.cfi_def_cfa_offset 16
 1061 0004 00AF     		add	r7, sp, #0	@,,
 1062              		.cfi_def_cfa_register 7
 1063 0006 0346     		mov	r3, r0	@ tmp112, portNum
 1064 0008 3960     		str	r1, [r7]	@ pinNum, pinNum
 1065 000a FB71     		strb	r3, [r7, #7]	@ tmp113, portNum
 1066 000c 1346     		mov	r3, r2	@ tmp115, tmp114
 1067 000e BB71     		strb	r3, [r7, #6]	@ tmp115, edgeState
 370:core/lpc17xx_gpio.c **** 	return (GPIO_GetIntStatus(portNum, pinNum, edgeState));
 1068              		.loc 1 370 0
 1069 0010 FA79     		ldrb	r2, [r7, #7]	@ zero_extendqisi2	@ tmp116, portNum
 1070 0012 BB79     		ldrb	r3, [r7, #6]	@ zero_extendqisi2	@ tmp117, edgeState
 1071 0014 1046     		mov	r0, r2	@, tmp116
 1072 0016 3968     		ldr	r1, [r7]	@, pinNum
 1073 0018 1A46     		mov	r2, r3	@, tmp117
 1074 001a FFF7FEFF 		bl	GPIO_GetIntStatus	@
 1075 001e 0346     		mov	r3, r0	@ tmp118,
 371:core/lpc17xx_gpio.c **** }
 1076              		.loc 1 371 0
 1077 0020 1846     		mov	r0, r3	@, <retval>
 1078 0022 0837     		adds	r7, r7, #8	@,,
 1079              		.cfi_def_cfa_offset 8
 1080 0024 BD46     		mov	sp, r7	@,
 1081              		.cfi_def_cfa_register 13
 1082              		@ sp needed	@
 1083 0026 80BD     		pop	{r7, pc}	@
 1084              		.cfi_endproc
 1085              	.LFE70:
 1086              		.size	FIO_GetIntStatus, .-FIO_GetIntStatus
 1087              		.section	.text.FIO_ClearInt,"ax",%progbits
 1088              		.align	2
 1089              		.global	FIO_ClearInt
 1090              		.thumb
 1091              		.thumb_func
 1092              		.type	FIO_ClearInt, %function
 1093              	FIO_ClearInt:
 1094              	.LFB71:
 372:core/lpc17xx_gpio.c **** 
 373:core/lpc17xx_gpio.c **** /**
 374:core/lpc17xx_gpio.c ****  * @brief The same with GPIO_ClearInt()
 375:core/lpc17xx_gpio.c ****  */
 376:core/lpc17xx_gpio.c **** void FIO_ClearInt(uint8_t portNum, uint32_t bitValue)
 377:core/lpc17xx_gpio.c **** {
 1095              		.loc 1 377 0
 1096              		.cfi_startproc
 1097              		@ args = 0, pretend = 0, frame = 8
 1098              		@ frame_needed = 1, uses_anonymous_args = 0
 1099 0000 80B5     		push	{r7, lr}	@
 1100              		.cfi_def_cfa_offset 8
 1101              		.cfi_offset 7, -8
 1102              		.cfi_offset 14, -4
 1103 0002 82B0     		sub	sp, sp, #8	@,,
 1104              		.cfi_def_cfa_offset 16
 1105 0004 00AF     		add	r7, sp, #0	@,,
ARM GAS  C:\Users\COSMIN~1.MAR\AppData\Local\Temp\ccJVXHYk.s 			page 27


 1106              		.cfi_def_cfa_register 7
 1107 0006 0346     		mov	r3, r0	@ tmp110, portNum
 1108 0008 3960     		str	r1, [r7]	@ bitValue, bitValue
 1109 000a FB71     		strb	r3, [r7, #7]	@ tmp111, portNum
 378:core/lpc17xx_gpio.c **** 	GPIO_ClearInt(portNum, bitValue);
 1110              		.loc 1 378 0
 1111 000c FB79     		ldrb	r3, [r7, #7]	@ zero_extendqisi2	@ tmp112, portNum
 1112 000e 1846     		mov	r0, r3	@, tmp112
 1113 0010 3968     		ldr	r1, [r7]	@, bitValue
 1114 0012 FFF7FEFF 		bl	GPIO_ClearInt	@
 379:core/lpc17xx_gpio.c **** }
 1115              		.loc 1 379 0
 1116 0016 0837     		adds	r7, r7, #8	@,,
 1117              		.cfi_def_cfa_offset 8
 1118 0018 BD46     		mov	sp, r7	@,
 1119              		.cfi_def_cfa_register 13
 1120              		@ sp needed	@
 1121 001a 80BD     		pop	{r7, pc}	@
 1122              		.cfi_endproc
 1123              	.LFE71:
 1124              		.size	FIO_ClearInt, .-FIO_ClearInt
 1125              		.section	.text.FIO_SetMask,"ax",%progbits
 1126              		.align	2
 1127              		.global	FIO_SetMask
 1128              		.thumb
 1129              		.thumb_func
 1130              		.type	FIO_SetMask, %function
 1131              	FIO_SetMask:
 1132              	.LFB72:
 380:core/lpc17xx_gpio.c **** /*********************************************************************//**
 381:core/lpc17xx_gpio.c ****  * @brief		Set mask value for bits in FIO port
 382:core/lpc17xx_gpio.c ****  * @param[in]	portNum		Port number, in range from 0 to 4
 383:core/lpc17xx_gpio.c ****  * @param[in]	bitValue	Value that contains all bits in to set,
 384:core/lpc17xx_gpio.c ****  * 							in range from 0 to 0xFFFFFFFF.
 385:core/lpc17xx_gpio.c ****  * @param[in]	maskValue	Mask value contains state value for each bit:
 386:core/lpc17xx_gpio.c ****  * 							- 0: not mask.
 387:core/lpc17xx_gpio.c ****  * 							- 1: mask.
 388:core/lpc17xx_gpio.c ****  * @return		None
 389:core/lpc17xx_gpio.c ****  *
 390:core/lpc17xx_gpio.c ****  * Note:
 391:core/lpc17xx_gpio.c ****  * - All remaining bits that are not activated in bitValue (value '0')
 392:core/lpc17xx_gpio.c ****  * will not be effected by this function.
 393:core/lpc17xx_gpio.c ****  * - After executing this function, in mask register, value '0' on each bit
 394:core/lpc17xx_gpio.c ****  * enables an access to the corresponding physical pin via a read or write access,
 395:core/lpc17xx_gpio.c ****  * while value '1' on bit (masked) that corresponding pin will not be changed
 396:core/lpc17xx_gpio.c ****  * with write access and if read, will not be reflected in the updated pin.
 397:core/lpc17xx_gpio.c ****  **********************************************************************/
 398:core/lpc17xx_gpio.c **** void FIO_SetMask(uint8_t portNum, uint32_t bitValue, uint8_t maskValue)
 399:core/lpc17xx_gpio.c **** {
 1133              		.loc 1 399 0
 1134              		.cfi_startproc
 1135              		@ args = 0, pretend = 0, frame = 16
 1136              		@ frame_needed = 1, uses_anonymous_args = 0
 1137 0000 80B5     		push	{r7, lr}	@
 1138              		.cfi_def_cfa_offset 8
 1139              		.cfi_offset 7, -8
 1140              		.cfi_offset 14, -4
ARM GAS  C:\Users\COSMIN~1.MAR\AppData\Local\Temp\ccJVXHYk.s 			page 28


 1141 0002 84B0     		sub	sp, sp, #16	@,,
 1142              		.cfi_def_cfa_offset 24
 1143 0004 00AF     		add	r7, sp, #0	@,,
 1144              		.cfi_def_cfa_register 7
 1145 0006 0346     		mov	r3, r0	@ tmp115, portNum
 1146 0008 3960     		str	r1, [r7]	@ bitValue, bitValue
 1147 000a FB71     		strb	r3, [r7, #7]	@ tmp116, portNum
 1148 000c 1346     		mov	r3, r2	@ tmp118, tmp117
 1149 000e BB71     		strb	r3, [r7, #6]	@ tmp118, maskValue
 400:core/lpc17xx_gpio.c **** 	LPC_GPIO_TypeDef *pFIO = GPIO_GetPointer(portNum);
 1150              		.loc 1 400 0
 1151 0010 FB79     		ldrb	r3, [r7, #7]	@ zero_extendqisi2	@ tmp119, portNum
 1152 0012 1846     		mov	r0, r3	@, tmp119
 1153 0014 FFF7FEFF 		bl	GPIO_GetPointer	@
 1154 0018 F860     		str	r0, [r7, #12]	@, pFIO
 401:core/lpc17xx_gpio.c **** 	if(pFIO != NULL) {
 1155              		.loc 1 401 0
 1156 001a FB68     		ldr	r3, [r7, #12]	@ tmp120, pFIO
 1157 001c 002B     		cmp	r3, #0	@ tmp120,
 1158 001e 10D0     		beq	.L81	@,
 402:core/lpc17xx_gpio.c **** 		// Mask
 403:core/lpc17xx_gpio.c **** 		if (maskValue){
 1159              		.loc 1 403 0
 1160 0020 BB79     		ldrb	r3, [r7, #6]	@ zero_extendqisi2	@ tmp121, maskValue
 1161 0022 002B     		cmp	r3, #0	@ tmp121,
 1162 0024 06D0     		beq	.L83	@,
 404:core/lpc17xx_gpio.c **** 			pFIO->FIOMASK |= bitValue;
 1163              		.loc 1 404 0
 1164 0026 FB68     		ldr	r3, [r7, #12]	@ tmp122, pFIO
 1165 0028 1A69     		ldr	r2, [r3, #16]	@ D.5856, pFIO_2->D.4618.FIOMASK
 1166 002a 3B68     		ldr	r3, [r7]	@ tmp123, bitValue
 1167 002c 1A43     		orrs	r2, r2, r3	@, D.5856, D.5856, tmp123
 1168 002e FB68     		ldr	r3, [r7, #12]	@ tmp124, pFIO
 1169 0030 1A61     		str	r2, [r3, #16]	@ D.5856, pFIO_2->D.4618.FIOMASK
 1170 0032 06E0     		b	.L81	@
 1171              	.L83:
 405:core/lpc17xx_gpio.c **** 		}
 406:core/lpc17xx_gpio.c **** 		// Un-mask
 407:core/lpc17xx_gpio.c **** 		else {
 408:core/lpc17xx_gpio.c **** 			pFIO->FIOMASK &= ~bitValue;
 1172              		.loc 1 408 0
 1173 0034 FB68     		ldr	r3, [r7, #12]	@ tmp125, pFIO
 1174 0036 1A69     		ldr	r2, [r3, #16]	@ D.5856, pFIO_2->D.4618.FIOMASK
 1175 0038 3B68     		ldr	r3, [r7]	@ tmp126, bitValue
 1176 003a DB43     		mvns	r3, r3	@ D.5856, tmp126
 1177 003c 1A40     		ands	r2, r2, r3	@, D.5856, D.5856, D.5856
 1178 003e FB68     		ldr	r3, [r7, #12]	@ tmp127, pFIO
 1179 0040 1A61     		str	r2, [r3, #16]	@ D.5856, pFIO_2->D.4618.FIOMASK
 1180              	.L81:
 409:core/lpc17xx_gpio.c **** 		}
 410:core/lpc17xx_gpio.c **** 	}
 411:core/lpc17xx_gpio.c **** }
 1181              		.loc 1 411 0
 1182 0042 1037     		adds	r7, r7, #16	@,,
 1183              		.cfi_def_cfa_offset 8
 1184 0044 BD46     		mov	sp, r7	@,
 1185              		.cfi_def_cfa_register 13
ARM GAS  C:\Users\COSMIN~1.MAR\AppData\Local\Temp\ccJVXHYk.s 			page 29


 1186              		@ sp needed	@
 1187 0046 80BD     		pop	{r7, pc}	@
 1188              		.cfi_endproc
 1189              	.LFE72:
 1190              		.size	FIO_SetMask, .-FIO_SetMask
 1191              		.section	.text.FIO_HalfWordSetDir,"ax",%progbits
 1192              		.align	2
 1193              		.global	FIO_HalfWordSetDir
 1194              		.thumb
 1195              		.thumb_func
 1196              		.type	FIO_HalfWordSetDir, %function
 1197              	FIO_HalfWordSetDir:
 1198              	.LFB73:
 412:core/lpc17xx_gpio.c **** 
 413:core/lpc17xx_gpio.c **** 
 414:core/lpc17xx_gpio.c **** /* FIO halfword accessible ------------------------------------------------------------- */
 415:core/lpc17xx_gpio.c **** 
 416:core/lpc17xx_gpio.c **** /*********************************************************************//**
 417:core/lpc17xx_gpio.c ****  * @brief		Set direction for FIO port in halfword accessible style
 418:core/lpc17xx_gpio.c ****  * @param[in]	portNum		Port number, in range from 0 to 4
 419:core/lpc17xx_gpio.c ****  * @param[in]	halfwordNum	HalfWord part number, should be 0 (lower) or 1(upper)
 420:core/lpc17xx_gpio.c ****  * @param[in]	bitValue	Value that contains all bits in to set direction,
 421:core/lpc17xx_gpio.c ****  * 							in range from 0 to 0xFFFF.
 422:core/lpc17xx_gpio.c ****  * @param[in]	dir			Direction value, should be:
 423:core/lpc17xx_gpio.c ****  * 							- 0: Input.
 424:core/lpc17xx_gpio.c ****  * 							- 1: Output.
 425:core/lpc17xx_gpio.c ****  * @return		None
 426:core/lpc17xx_gpio.c ****  *
 427:core/lpc17xx_gpio.c ****  * Note: All remaining bits that are not activated in bitValue (value '0')
 428:core/lpc17xx_gpio.c ****  * will not be effected by this function.
 429:core/lpc17xx_gpio.c ****  **********************************************************************/
 430:core/lpc17xx_gpio.c **** void FIO_HalfWordSetDir(uint8_t portNum, uint8_t halfwordNum, uint16_t bitValue, uint8_t dir)
 431:core/lpc17xx_gpio.c **** {
 1199              		.loc 1 431 0
 1200              		.cfi_startproc
 1201              		@ args = 0, pretend = 0, frame = 16
 1202              		@ frame_needed = 1, uses_anonymous_args = 0
 1203 0000 90B5     		push	{r4, r7, lr}	@
 1204              		.cfi_def_cfa_offset 12
 1205              		.cfi_offset 4, -12
 1206              		.cfi_offset 7, -8
 1207              		.cfi_offset 14, -4
 1208 0002 85B0     		sub	sp, sp, #20	@,,
 1209              		.cfi_def_cfa_offset 32
 1210 0004 00AF     		add	r7, sp, #0	@,,
 1211              		.cfi_def_cfa_register 7
 1212 0006 0446     		mov	r4, r0	@ tmp126, portNum
 1213 0008 0846     		mov	r0, r1	@ tmp128, halfwordNum
 1214 000a 1146     		mov	r1, r2	@ tmp130, bitValue
 1215 000c 1A46     		mov	r2, r3	@ tmp132, dir
 1216 000e 2346     		mov	r3, r4	@ tmp127, tmp126
 1217 0010 FB71     		strb	r3, [r7, #7]	@ tmp127, portNum
 1218 0012 0346     		mov	r3, r0	@ tmp129, tmp128
 1219 0014 BB71     		strb	r3, [r7, #6]	@ tmp129, halfwordNum
 1220 0016 0B46     		mov	r3, r1	@ movhi	@ tmp131, tmp130
 1221 0018 BB80     		strh	r3, [r7, #4]	@ movhi	@ tmp131, bitValue
 1222 001a 1346     		mov	r3, r2	@ tmp133, tmp132
ARM GAS  C:\Users\COSMIN~1.MAR\AppData\Local\Temp\ccJVXHYk.s 			page 30


 1223 001c FB70     		strb	r3, [r7, #3]	@ tmp133, dir
 432:core/lpc17xx_gpio.c **** 	GPIO_HalfWord_TypeDef *pFIO = FIO_HalfWordGetPointer(portNum);
 1224              		.loc 1 432 0
 1225 001e FB79     		ldrb	r3, [r7, #7]	@ zero_extendqisi2	@ tmp134, portNum
 1226 0020 1846     		mov	r0, r3	@, tmp134
 1227 0022 FFF7FEFF 		bl	FIO_HalfWordGetPointer	@
 1228 0026 F860     		str	r0, [r7, #12]	@, pFIO
 433:core/lpc17xx_gpio.c **** 	if(pFIO != NULL) {
 1229              		.loc 1 433 0
 1230 0028 FB68     		ldr	r3, [r7, #12]	@ tmp135, pFIO
 1231 002a 002B     		cmp	r3, #0	@ tmp135,
 1232 002c 33D0     		beq	.L84	@,
 434:core/lpc17xx_gpio.c **** 		// Output direction
 435:core/lpc17xx_gpio.c **** 		if (dir) {
 1233              		.loc 1 435 0
 1234 002e FB78     		ldrb	r3, [r7, #3]	@ zero_extendqisi2	@ tmp136, dir
 1235 0030 002B     		cmp	r3, #0	@ tmp136,
 1236 0032 14D0     		beq	.L86	@,
 436:core/lpc17xx_gpio.c **** 			// Upper
 437:core/lpc17xx_gpio.c **** 			if(halfwordNum) {
 1237              		.loc 1 437 0
 1238 0034 BB79     		ldrb	r3, [r7, #6]	@ zero_extendqisi2	@ tmp137, halfwordNum
 1239 0036 002B     		cmp	r3, #0	@ tmp137,
 1240 0038 08D0     		beq	.L87	@,
 438:core/lpc17xx_gpio.c **** 				pFIO->FIODIRU |= bitValue;
 1241              		.loc 1 438 0
 1242 003a FB68     		ldr	r3, [r7, #12]	@ tmp138, pFIO
 1243 003c 5B88     		ldrh	r3, [r3, #2]	@ movhi	@ tmp140, pFIO_2->FIODIRU
 1244 003e 9AB2     		uxth	r2, r3	@ D.5857, tmp140
 1245 0040 BB88     		ldrh	r3, [r7, #4]	@ movhi	@ tmp141, bitValue
 1246 0042 1343     		orrs	r3, r3, r2	@, tmp142, tmp141, D.5857
 1247 0044 9AB2     		uxth	r2, r3	@ D.5857, tmp142
 1248 0046 FB68     		ldr	r3, [r7, #12]	@ tmp143, pFIO
 1249 0048 5A80     		strh	r2, [r3, #2]	@ movhi	@ tmp144, pFIO_2->FIODIRU
 1250 004a 24E0     		b	.L84	@
 1251              	.L87:
 439:core/lpc17xx_gpio.c **** 			}
 440:core/lpc17xx_gpio.c **** 			// lower
 441:core/lpc17xx_gpio.c **** 			else {
 442:core/lpc17xx_gpio.c **** 				pFIO->FIODIRL |= bitValue;
 1252              		.loc 1 442 0
 1253 004c FB68     		ldr	r3, [r7, #12]	@ tmp145, pFIO
 1254 004e 1B88     		ldrh	r3, [r3]	@ movhi	@ tmp146, pFIO_2->FIODIRL
 1255 0050 9AB2     		uxth	r2, r3	@ D.5857, tmp146
 1256 0052 BB88     		ldrh	r3, [r7, #4]	@ movhi	@ tmp147, bitValue
 1257 0054 1343     		orrs	r3, r3, r2	@, tmp148, tmp147, D.5857
 1258 0056 9AB2     		uxth	r2, r3	@ D.5857, tmp148
 1259 0058 FB68     		ldr	r3, [r7, #12]	@ tmp149, pFIO
 1260 005a 1A80     		strh	r2, [r3]	@ movhi	@ tmp150, pFIO_2->FIODIRL
 1261 005c 1BE0     		b	.L84	@
 1262              	.L86:
 443:core/lpc17xx_gpio.c **** 			}
 444:core/lpc17xx_gpio.c **** 		}
 445:core/lpc17xx_gpio.c **** 		// Input direction
 446:core/lpc17xx_gpio.c **** 		else {
 447:core/lpc17xx_gpio.c **** 			// Upper
 448:core/lpc17xx_gpio.c **** 			if(halfwordNum) {
ARM GAS  C:\Users\COSMIN~1.MAR\AppData\Local\Temp\ccJVXHYk.s 			page 31


 1263              		.loc 1 448 0
 1264 005e BB79     		ldrb	r3, [r7, #6]	@ zero_extendqisi2	@ tmp151, halfwordNum
 1265 0060 002B     		cmp	r3, #0	@ tmp151,
 1266 0062 0CD0     		beq	.L89	@,
 449:core/lpc17xx_gpio.c **** 				pFIO->FIODIRU &= ~bitValue;
 1267              		.loc 1 449 0
 1268 0064 FB68     		ldr	r3, [r7, #12]	@ tmp152, pFIO
 1269 0066 5B88     		ldrh	r3, [r3, #2]	@ movhi	@ tmp154, pFIO_2->FIODIRU
 1270 0068 9BB2     		uxth	r3, r3	@ D.5857, tmp154
 1271 006a 9AB2     		uxth	r2, r3	@ D.5858, D.5857
 1272 006c BB88     		ldrh	r3, [r7, #4]	@ D.5858, bitValue
 1273 006e DB43     		mvns	r3, r3	@ tmp155, D.5858
 1274 0070 9BB2     		uxth	r3, r3	@ D.5858, tmp155
 1275 0072 1340     		ands	r3, r3, r2	@, tmp158, tmp157, tmp156
 1276 0074 9BB2     		uxth	r3, r3	@ D.5858, tmp158
 1277 0076 9AB2     		uxth	r2, r3	@ D.5857, D.5858
 1278 0078 FB68     		ldr	r3, [r7, #12]	@ tmp159, pFIO
 1279 007a 5A80     		strh	r2, [r3, #2]	@ movhi	@ tmp160, pFIO_2->FIODIRU
 1280 007c 0BE0     		b	.L84	@
 1281              	.L89:
 450:core/lpc17xx_gpio.c **** 			}
 451:core/lpc17xx_gpio.c **** 			// lower
 452:core/lpc17xx_gpio.c **** 			else {
 453:core/lpc17xx_gpio.c **** 				pFIO->FIODIRL &= ~bitValue;
 1282              		.loc 1 453 0
 1283 007e FB68     		ldr	r3, [r7, #12]	@ tmp161, pFIO
 1284 0080 1B88     		ldrh	r3, [r3]	@ movhi	@ tmp162, pFIO_2->FIODIRL
 1285 0082 9BB2     		uxth	r3, r3	@ D.5857, tmp162
 1286 0084 9AB2     		uxth	r2, r3	@ D.5858, D.5857
 1287 0086 BB88     		ldrh	r3, [r7, #4]	@ D.5858, bitValue
 1288 0088 DB43     		mvns	r3, r3	@ tmp163, D.5858
 1289 008a 9BB2     		uxth	r3, r3	@ D.5858, tmp163
 1290 008c 1340     		ands	r3, r3, r2	@, tmp166, tmp165, tmp164
 1291 008e 9BB2     		uxth	r3, r3	@ D.5858, tmp166
 1292 0090 9AB2     		uxth	r2, r3	@ D.5857, D.5858
 1293 0092 FB68     		ldr	r3, [r7, #12]	@ tmp167, pFIO
 1294 0094 1A80     		strh	r2, [r3]	@ movhi	@ tmp168, pFIO_2->FIODIRL
 1295              	.L84:
 454:core/lpc17xx_gpio.c **** 			}
 455:core/lpc17xx_gpio.c **** 		}
 456:core/lpc17xx_gpio.c **** 	}
 457:core/lpc17xx_gpio.c **** }
 1296              		.loc 1 457 0
 1297 0096 1437     		adds	r7, r7, #20	@,,
 1298              		.cfi_def_cfa_offset 12
 1299 0098 BD46     		mov	sp, r7	@,
 1300              		.cfi_def_cfa_register 13
 1301              		@ sp needed	@
 1302 009a 90BD     		pop	{r4, r7, pc}	@
 1303              		.cfi_endproc
 1304              	.LFE73:
 1305              		.size	FIO_HalfWordSetDir, .-FIO_HalfWordSetDir
 1306              		.section	.text.FIO_HalfWordSetMask,"ax",%progbits
 1307              		.align	2
 1308              		.global	FIO_HalfWordSetMask
 1309              		.thumb
 1310              		.thumb_func
ARM GAS  C:\Users\COSMIN~1.MAR\AppData\Local\Temp\ccJVXHYk.s 			page 32


 1311              		.type	FIO_HalfWordSetMask, %function
 1312              	FIO_HalfWordSetMask:
 1313              	.LFB74:
 458:core/lpc17xx_gpio.c **** 
 459:core/lpc17xx_gpio.c **** 
 460:core/lpc17xx_gpio.c **** /*********************************************************************//**
 461:core/lpc17xx_gpio.c ****  * @brief		Set mask value for bits in FIO port in halfword accessible style
 462:core/lpc17xx_gpio.c ****  * @param[in]	portNum		Port number, in range from 0 to 4
 463:core/lpc17xx_gpio.c ****  * @param[in]	halfwordNum	HalfWord part number, should be 0 (lower) or 1(upper)
 464:core/lpc17xx_gpio.c ****  * @param[in]	bitValue	Value that contains all bits in to set,
 465:core/lpc17xx_gpio.c ****  * 							in range from 0 to 0xFFFF.
 466:core/lpc17xx_gpio.c ****  * @param[in]	maskValue	Mask value contains state value for each bit:
 467:core/lpc17xx_gpio.c ****  * 					- 0: not mask.
 468:core/lpc17xx_gpio.c ****  * 					- 1: mask.
 469:core/lpc17xx_gpio.c ****  * @return		None
 470:core/lpc17xx_gpio.c ****  *
 471:core/lpc17xx_gpio.c ****  * Note:
 472:core/lpc17xx_gpio.c ****  * - All remaining bits that are not activated in bitValue (value '0')
 473:core/lpc17xx_gpio.c ****  * will not be effected by this function.
 474:core/lpc17xx_gpio.c ****  * - After executing this function, in mask register, value '0' on each bit
 475:core/lpc17xx_gpio.c ****  * enables an access to the corresponding physical pin via a read or write access,
 476:core/lpc17xx_gpio.c ****  * while value '1' on bit (masked) that corresponding pin will not be changed
 477:core/lpc17xx_gpio.c ****  * with write access and if read, will not be reflected in the updated pin.
 478:core/lpc17xx_gpio.c ****  **********************************************************************/
 479:core/lpc17xx_gpio.c **** void FIO_HalfWordSetMask(uint8_t portNum, uint8_t halfwordNum, uint16_t bitValue, uint8_t maskValue
 480:core/lpc17xx_gpio.c **** {
 1314              		.loc 1 480 0
 1315              		.cfi_startproc
 1316              		@ args = 0, pretend = 0, frame = 16
 1317              		@ frame_needed = 1, uses_anonymous_args = 0
 1318 0000 90B5     		push	{r4, r7, lr}	@
 1319              		.cfi_def_cfa_offset 12
 1320              		.cfi_offset 4, -12
 1321              		.cfi_offset 7, -8
 1322              		.cfi_offset 14, -4
 1323 0002 85B0     		sub	sp, sp, #20	@,,
 1324              		.cfi_def_cfa_offset 32
 1325 0004 00AF     		add	r7, sp, #0	@,,
 1326              		.cfi_def_cfa_register 7
 1327 0006 0446     		mov	r4, r0	@ tmp126, portNum
 1328 0008 0846     		mov	r0, r1	@ tmp128, halfwordNum
 1329 000a 1146     		mov	r1, r2	@ tmp130, bitValue
 1330 000c 1A46     		mov	r2, r3	@ tmp132, maskValue
 1331 000e 2346     		mov	r3, r4	@ tmp127, tmp126
 1332 0010 FB71     		strb	r3, [r7, #7]	@ tmp127, portNum
 1333 0012 0346     		mov	r3, r0	@ tmp129, tmp128
 1334 0014 BB71     		strb	r3, [r7, #6]	@ tmp129, halfwordNum
 1335 0016 0B46     		mov	r3, r1	@ movhi	@ tmp131, tmp130
 1336 0018 BB80     		strh	r3, [r7, #4]	@ movhi	@ tmp131, bitValue
 1337 001a 1346     		mov	r3, r2	@ tmp133, tmp132
 1338 001c FB70     		strb	r3, [r7, #3]	@ tmp133, maskValue
 481:core/lpc17xx_gpio.c **** 	GPIO_HalfWord_TypeDef *pFIO = FIO_HalfWordGetPointer(portNum);
 1339              		.loc 1 481 0
 1340 001e FB79     		ldrb	r3, [r7, #7]	@ zero_extendqisi2	@ tmp134, portNum
 1341 0020 1846     		mov	r0, r3	@, tmp134
 1342 0022 FFF7FEFF 		bl	FIO_HalfWordGetPointer	@
 1343 0026 F860     		str	r0, [r7, #12]	@, pFIO
ARM GAS  C:\Users\COSMIN~1.MAR\AppData\Local\Temp\ccJVXHYk.s 			page 33


 482:core/lpc17xx_gpio.c **** 	if(pFIO != NULL) {
 1344              		.loc 1 482 0
 1345 0028 FB68     		ldr	r3, [r7, #12]	@ tmp135, pFIO
 1346 002a 002B     		cmp	r3, #0	@ tmp135,
 1347 002c 33D0     		beq	.L90	@,
 483:core/lpc17xx_gpio.c **** 		// Mask
 484:core/lpc17xx_gpio.c **** 		if (maskValue){
 1348              		.loc 1 484 0
 1349 002e FB78     		ldrb	r3, [r7, #3]	@ zero_extendqisi2	@ tmp136, maskValue
 1350 0030 002B     		cmp	r3, #0	@ tmp136,
 1351 0032 14D0     		beq	.L92	@,
 485:core/lpc17xx_gpio.c **** 			// Upper
 486:core/lpc17xx_gpio.c **** 			if(halfwordNum) {
 1352              		.loc 1 486 0
 1353 0034 BB79     		ldrb	r3, [r7, #6]	@ zero_extendqisi2	@ tmp137, halfwordNum
 1354 0036 002B     		cmp	r3, #0	@ tmp137,
 1355 0038 08D0     		beq	.L93	@,
 487:core/lpc17xx_gpio.c **** 				pFIO->FIOMASKU |= bitValue;
 1356              		.loc 1 487 0
 1357 003a FB68     		ldr	r3, [r7, #12]	@ tmp138, pFIO
 1358 003c 5B8A     		ldrh	r3, [r3, #18]	@ movhi	@ tmp140, pFIO_2->FIOMASKU
 1359 003e 9AB2     		uxth	r2, r3	@ D.5859, tmp140
 1360 0040 BB88     		ldrh	r3, [r7, #4]	@ movhi	@ tmp141, bitValue
 1361 0042 1343     		orrs	r3, r3, r2	@, tmp142, tmp141, D.5859
 1362 0044 9AB2     		uxth	r2, r3	@ D.5859, tmp142
 1363 0046 FB68     		ldr	r3, [r7, #12]	@ tmp143, pFIO
 1364 0048 5A82     		strh	r2, [r3, #18]	@ movhi	@ tmp144, pFIO_2->FIOMASKU
 1365 004a 24E0     		b	.L90	@
 1366              	.L93:
 488:core/lpc17xx_gpio.c **** 			}
 489:core/lpc17xx_gpio.c **** 			// lower
 490:core/lpc17xx_gpio.c **** 			else {
 491:core/lpc17xx_gpio.c **** 				pFIO->FIOMASKL |= bitValue;
 1367              		.loc 1 491 0
 1368 004c FB68     		ldr	r3, [r7, #12]	@ tmp145, pFIO
 1369 004e 1B8A     		ldrh	r3, [r3, #16]	@ movhi	@ tmp147, pFIO_2->FIOMASKL
 1370 0050 9AB2     		uxth	r2, r3	@ D.5859, tmp147
 1371 0052 BB88     		ldrh	r3, [r7, #4]	@ movhi	@ tmp148, bitValue
 1372 0054 1343     		orrs	r3, r3, r2	@, tmp149, tmp148, D.5859
 1373 0056 9AB2     		uxth	r2, r3	@ D.5859, tmp149
 1374 0058 FB68     		ldr	r3, [r7, #12]	@ tmp150, pFIO
 1375 005a 1A82     		strh	r2, [r3, #16]	@ movhi	@ tmp151, pFIO_2->FIOMASKL
 1376 005c 1BE0     		b	.L90	@
 1377              	.L92:
 492:core/lpc17xx_gpio.c **** 			}
 493:core/lpc17xx_gpio.c **** 		}
 494:core/lpc17xx_gpio.c **** 		// Un-mask
 495:core/lpc17xx_gpio.c **** 		else {
 496:core/lpc17xx_gpio.c **** 			// Upper
 497:core/lpc17xx_gpio.c **** 			if(halfwordNum) {
 1378              		.loc 1 497 0
 1379 005e BB79     		ldrb	r3, [r7, #6]	@ zero_extendqisi2	@ tmp152, halfwordNum
 1380 0060 002B     		cmp	r3, #0	@ tmp152,
 1381 0062 0CD0     		beq	.L95	@,
 498:core/lpc17xx_gpio.c **** 				pFIO->FIOMASKU &= ~bitValue;
 1382              		.loc 1 498 0
 1383 0064 FB68     		ldr	r3, [r7, #12]	@ tmp153, pFIO
ARM GAS  C:\Users\COSMIN~1.MAR\AppData\Local\Temp\ccJVXHYk.s 			page 34


 1384 0066 5B8A     		ldrh	r3, [r3, #18]	@ movhi	@ tmp155, pFIO_2->FIOMASKU
 1385 0068 9BB2     		uxth	r3, r3	@ D.5859, tmp155
 1386 006a 9AB2     		uxth	r2, r3	@ D.5860, D.5859
 1387 006c BB88     		ldrh	r3, [r7, #4]	@ D.5860, bitValue
 1388 006e DB43     		mvns	r3, r3	@ tmp156, D.5860
 1389 0070 9BB2     		uxth	r3, r3	@ D.5860, tmp156
 1390 0072 1340     		ands	r3, r3, r2	@, tmp159, tmp158, tmp157
 1391 0074 9BB2     		uxth	r3, r3	@ D.5860, tmp159
 1392 0076 9AB2     		uxth	r2, r3	@ D.5859, D.5860
 1393 0078 FB68     		ldr	r3, [r7, #12]	@ tmp160, pFIO
 1394 007a 5A82     		strh	r2, [r3, #18]	@ movhi	@ tmp161, pFIO_2->FIOMASKU
 1395 007c 0BE0     		b	.L90	@
 1396              	.L95:
 499:core/lpc17xx_gpio.c **** 			}
 500:core/lpc17xx_gpio.c **** 			// lower
 501:core/lpc17xx_gpio.c **** 			else {
 502:core/lpc17xx_gpio.c **** 				pFIO->FIOMASKL &= ~bitValue;
 1397              		.loc 1 502 0
 1398 007e FB68     		ldr	r3, [r7, #12]	@ tmp162, pFIO
 1399 0080 1B8A     		ldrh	r3, [r3, #16]	@ movhi	@ tmp164, pFIO_2->FIOMASKL
 1400 0082 9BB2     		uxth	r3, r3	@ D.5859, tmp164
 1401 0084 9AB2     		uxth	r2, r3	@ D.5860, D.5859
 1402 0086 BB88     		ldrh	r3, [r7, #4]	@ D.5860, bitValue
 1403 0088 DB43     		mvns	r3, r3	@ tmp165, D.5860
 1404 008a 9BB2     		uxth	r3, r3	@ D.5860, tmp165
 1405 008c 1340     		ands	r3, r3, r2	@, tmp168, tmp167, tmp166
 1406 008e 9BB2     		uxth	r3, r3	@ D.5860, tmp168
 1407 0090 9AB2     		uxth	r2, r3	@ D.5859, D.5860
 1408 0092 FB68     		ldr	r3, [r7, #12]	@ tmp169, pFIO
 1409 0094 1A82     		strh	r2, [r3, #16]	@ movhi	@ tmp170, pFIO_2->FIOMASKL
 1410              	.L90:
 503:core/lpc17xx_gpio.c **** 			}
 504:core/lpc17xx_gpio.c **** 		}
 505:core/lpc17xx_gpio.c **** 	}
 506:core/lpc17xx_gpio.c **** }
 1411              		.loc 1 506 0
 1412 0096 1437     		adds	r7, r7, #20	@,,
 1413              		.cfi_def_cfa_offset 12
 1414 0098 BD46     		mov	sp, r7	@,
 1415              		.cfi_def_cfa_register 13
 1416              		@ sp needed	@
 1417 009a 90BD     		pop	{r4, r7, pc}	@
 1418              		.cfi_endproc
 1419              	.LFE74:
 1420              		.size	FIO_HalfWordSetMask, .-FIO_HalfWordSetMask
 1421              		.section	.text.FIO_HalfWordSetValue,"ax",%progbits
 1422              		.align	2
 1423              		.global	FIO_HalfWordSetValue
 1424              		.thumb
 1425              		.thumb_func
 1426              		.type	FIO_HalfWordSetValue, %function
 1427              	FIO_HalfWordSetValue:
 1428              	.LFB75:
 507:core/lpc17xx_gpio.c **** 
 508:core/lpc17xx_gpio.c **** 
 509:core/lpc17xx_gpio.c **** /*********************************************************************//**
 510:core/lpc17xx_gpio.c ****  * @brief		Set bits for FIO port in halfword accessible style
ARM GAS  C:\Users\COSMIN~1.MAR\AppData\Local\Temp\ccJVXHYk.s 			page 35


 511:core/lpc17xx_gpio.c ****  * @param[in]	portNum		Port number, in range from 0 to 4
 512:core/lpc17xx_gpio.c ****  * @param[in]	halfwordNum	HalfWord part number, should be 0 (lower) or 1(upper)
 513:core/lpc17xx_gpio.c ****  * @param[in]	bitValue	Value that contains all bits in to set,
 514:core/lpc17xx_gpio.c ****  * 							in range from 0 to 0xFFFF.
 515:core/lpc17xx_gpio.c ****  * @return		None
 516:core/lpc17xx_gpio.c ****  *
 517:core/lpc17xx_gpio.c ****  * Note:
 518:core/lpc17xx_gpio.c ****  * - For all bits that has been set as input direction, this function will
 519:core/lpc17xx_gpio.c ****  * not effect.
 520:core/lpc17xx_gpio.c ****  * - For all remaining bits that are not activated in bitValue (value '0')
 521:core/lpc17xx_gpio.c ****  * will not be effected by this function.
 522:core/lpc17xx_gpio.c ****  **********************************************************************/
 523:core/lpc17xx_gpio.c **** void FIO_HalfWordSetValue(uint8_t portNum, uint8_t halfwordNum, uint16_t bitValue)
 524:core/lpc17xx_gpio.c **** {
 1429              		.loc 1 524 0
 1430              		.cfi_startproc
 1431              		@ args = 0, pretend = 0, frame = 16
 1432              		@ frame_needed = 1, uses_anonymous_args = 0
 1433 0000 80B5     		push	{r7, lr}	@
 1434              		.cfi_def_cfa_offset 8
 1435              		.cfi_offset 7, -8
 1436              		.cfi_offset 14, -4
 1437 0002 84B0     		sub	sp, sp, #16	@,,
 1438              		.cfi_def_cfa_offset 24
 1439 0004 00AF     		add	r7, sp, #0	@,,
 1440              		.cfi_def_cfa_register 7
 1441 0006 0346     		mov	r3, r0	@ tmp110, portNum
 1442 0008 FB71     		strb	r3, [r7, #7]	@ tmp111, portNum
 1443 000a 0B46     		mov	r3, r1	@ tmp113, tmp112
 1444 000c BB71     		strb	r3, [r7, #6]	@ tmp113, halfwordNum
 1445 000e 1346     		mov	r3, r2	@ movhi	@ tmp115, tmp114
 1446 0010 BB80     		strh	r3, [r7, #4]	@ movhi	@ tmp115, bitValue
 525:core/lpc17xx_gpio.c **** 	GPIO_HalfWord_TypeDef *pFIO = FIO_HalfWordGetPointer(portNum);
 1447              		.loc 1 525 0
 1448 0012 FB79     		ldrb	r3, [r7, #7]	@ zero_extendqisi2	@ tmp116, portNum
 1449 0014 1846     		mov	r0, r3	@, tmp116
 1450 0016 FFF7FEFF 		bl	FIO_HalfWordGetPointer	@
 1451 001a F860     		str	r0, [r7, #12]	@, pFIO
 526:core/lpc17xx_gpio.c **** 	if(pFIO != NULL) {
 1452              		.loc 1 526 0
 1453 001c FB68     		ldr	r3, [r7, #12]	@ tmp117, pFIO
 1454 001e 002B     		cmp	r3, #0	@ tmp117,
 1455 0020 09D0     		beq	.L96	@,
 527:core/lpc17xx_gpio.c **** 		// Upper
 528:core/lpc17xx_gpio.c **** 		if(halfwordNum) {
 1456              		.loc 1 528 0
 1457 0022 BB79     		ldrb	r3, [r7, #6]	@ zero_extendqisi2	@ tmp118, halfwordNum
 1458 0024 002B     		cmp	r3, #0	@ tmp118,
 1459 0026 03D0     		beq	.L98	@,
 529:core/lpc17xx_gpio.c **** 			pFIO->FIOSETU = bitValue;
 1460              		.loc 1 529 0
 1461 0028 FB68     		ldr	r3, [r7, #12]	@ tmp119, pFIO
 1462 002a BA88     		ldrh	r2, [r7, #4]	@ movhi	@ tmp120, bitValue
 1463 002c 5A83     		strh	r2, [r3, #26]	@ movhi	@ tmp120, pFIO_2->FIOSETU
 1464 002e 02E0     		b	.L96	@
 1465              	.L98:
 530:core/lpc17xx_gpio.c **** 		}
ARM GAS  C:\Users\COSMIN~1.MAR\AppData\Local\Temp\ccJVXHYk.s 			page 36


 531:core/lpc17xx_gpio.c **** 		// lower
 532:core/lpc17xx_gpio.c **** 		else {
 533:core/lpc17xx_gpio.c **** 			pFIO->FIOSETL = bitValue;
 1466              		.loc 1 533 0
 1467 0030 FB68     		ldr	r3, [r7, #12]	@ tmp121, pFIO
 1468 0032 BA88     		ldrh	r2, [r7, #4]	@ movhi	@ tmp122, bitValue
 1469 0034 1A83     		strh	r2, [r3, #24]	@ movhi	@ tmp122, pFIO_2->FIOSETL
 1470              	.L96:
 534:core/lpc17xx_gpio.c **** 		}
 535:core/lpc17xx_gpio.c **** 	}
 536:core/lpc17xx_gpio.c **** }
 1471              		.loc 1 536 0
 1472 0036 1037     		adds	r7, r7, #16	@,,
 1473              		.cfi_def_cfa_offset 8
 1474 0038 BD46     		mov	sp, r7	@,
 1475              		.cfi_def_cfa_register 13
 1476              		@ sp needed	@
 1477 003a 80BD     		pop	{r7, pc}	@
 1478              		.cfi_endproc
 1479              	.LFE75:
 1480              		.size	FIO_HalfWordSetValue, .-FIO_HalfWordSetValue
 1481              		.section	.text.FIO_HalfWordClearValue,"ax",%progbits
 1482              		.align	2
 1483              		.global	FIO_HalfWordClearValue
 1484              		.thumb
 1485              		.thumb_func
 1486              		.type	FIO_HalfWordClearValue, %function
 1487              	FIO_HalfWordClearValue:
 1488              	.LFB76:
 537:core/lpc17xx_gpio.c **** 
 538:core/lpc17xx_gpio.c **** 
 539:core/lpc17xx_gpio.c **** /*********************************************************************//**
 540:core/lpc17xx_gpio.c ****  * @brief		Clear bits for FIO port in halfword accessible style
 541:core/lpc17xx_gpio.c ****  * @param[in]	portNum		Port number, in range from 0 to 4
 542:core/lpc17xx_gpio.c ****  * @param[in]	halfwordNum	HalfWord part number, should be 0 (lower) or 1(upper)
 543:core/lpc17xx_gpio.c ****  * @param[in]	bitValue	Value that contains all bits in to clear,
 544:core/lpc17xx_gpio.c ****  * 							in range from 0 to 0xFFFF.
 545:core/lpc17xx_gpio.c ****  * @return		None
 546:core/lpc17xx_gpio.c ****  *
 547:core/lpc17xx_gpio.c ****  * Note:
 548:core/lpc17xx_gpio.c ****  * - For all bits that has been set as input direction, this function will
 549:core/lpc17xx_gpio.c ****  * not effect.
 550:core/lpc17xx_gpio.c ****  * - For all remaining bits that are not activated in bitValue (value '0')
 551:core/lpc17xx_gpio.c ****  * will not be effected by this function.
 552:core/lpc17xx_gpio.c ****  **********************************************************************/
 553:core/lpc17xx_gpio.c **** void FIO_HalfWordClearValue(uint8_t portNum, uint8_t halfwordNum, uint16_t bitValue)
 554:core/lpc17xx_gpio.c **** {
 1489              		.loc 1 554 0
 1490              		.cfi_startproc
 1491              		@ args = 0, pretend = 0, frame = 16
 1492              		@ frame_needed = 1, uses_anonymous_args = 0
 1493 0000 80B5     		push	{r7, lr}	@
 1494              		.cfi_def_cfa_offset 8
 1495              		.cfi_offset 7, -8
 1496              		.cfi_offset 14, -4
 1497 0002 84B0     		sub	sp, sp, #16	@,,
 1498              		.cfi_def_cfa_offset 24
ARM GAS  C:\Users\COSMIN~1.MAR\AppData\Local\Temp\ccJVXHYk.s 			page 37


 1499 0004 00AF     		add	r7, sp, #0	@,,
 1500              		.cfi_def_cfa_register 7
 1501 0006 0346     		mov	r3, r0	@ tmp110, portNum
 1502 0008 FB71     		strb	r3, [r7, #7]	@ tmp111, portNum
 1503 000a 0B46     		mov	r3, r1	@ tmp113, tmp112
 1504 000c BB71     		strb	r3, [r7, #6]	@ tmp113, halfwordNum
 1505 000e 1346     		mov	r3, r2	@ movhi	@ tmp115, tmp114
 1506 0010 BB80     		strh	r3, [r7, #4]	@ movhi	@ tmp115, bitValue
 555:core/lpc17xx_gpio.c **** 	GPIO_HalfWord_TypeDef *pFIO = FIO_HalfWordGetPointer(portNum);
 1507              		.loc 1 555 0
 1508 0012 FB79     		ldrb	r3, [r7, #7]	@ zero_extendqisi2	@ tmp116, portNum
 1509 0014 1846     		mov	r0, r3	@, tmp116
 1510 0016 FFF7FEFF 		bl	FIO_HalfWordGetPointer	@
 1511 001a F860     		str	r0, [r7, #12]	@, pFIO
 556:core/lpc17xx_gpio.c **** 	if(pFIO != NULL) {
 1512              		.loc 1 556 0
 1513 001c FB68     		ldr	r3, [r7, #12]	@ tmp117, pFIO
 1514 001e 002B     		cmp	r3, #0	@ tmp117,
 1515 0020 09D0     		beq	.L99	@,
 557:core/lpc17xx_gpio.c **** 		// Upper
 558:core/lpc17xx_gpio.c **** 		if(halfwordNum) {
 1516              		.loc 1 558 0
 1517 0022 BB79     		ldrb	r3, [r7, #6]	@ zero_extendqisi2	@ tmp118, halfwordNum
 1518 0024 002B     		cmp	r3, #0	@ tmp118,
 1519 0026 03D0     		beq	.L101	@,
 559:core/lpc17xx_gpio.c **** 			pFIO->FIOCLRU = bitValue;
 1520              		.loc 1 559 0
 1521 0028 FB68     		ldr	r3, [r7, #12]	@ tmp119, pFIO
 1522 002a BA88     		ldrh	r2, [r7, #4]	@ movhi	@ tmp120, bitValue
 1523 002c DA83     		strh	r2, [r3, #30]	@ movhi	@ tmp120, pFIO_2->FIOCLRU
 1524 002e 02E0     		b	.L99	@
 1525              	.L101:
 560:core/lpc17xx_gpio.c **** 		}
 561:core/lpc17xx_gpio.c **** 		// lower
 562:core/lpc17xx_gpio.c **** 		else {
 563:core/lpc17xx_gpio.c **** 			pFIO->FIOCLRL = bitValue;
 1526              		.loc 1 563 0
 1527 0030 FB68     		ldr	r3, [r7, #12]	@ tmp121, pFIO
 1528 0032 BA88     		ldrh	r2, [r7, #4]	@ movhi	@ tmp122, bitValue
 1529 0034 9A83     		strh	r2, [r3, #28]	@ movhi	@ tmp122, pFIO_2->FIOCLRL
 1530              	.L99:
 564:core/lpc17xx_gpio.c **** 		}
 565:core/lpc17xx_gpio.c **** 	}
 566:core/lpc17xx_gpio.c **** }
 1531              		.loc 1 566 0
 1532 0036 1037     		adds	r7, r7, #16	@,,
 1533              		.cfi_def_cfa_offset 8
 1534 0038 BD46     		mov	sp, r7	@,
 1535              		.cfi_def_cfa_register 13
 1536              		@ sp needed	@
 1537 003a 80BD     		pop	{r7, pc}	@
 1538              		.cfi_endproc
 1539              	.LFE76:
 1540              		.size	FIO_HalfWordClearValue, .-FIO_HalfWordClearValue
 1541              		.section	.text.FIO_HalfWordReadValue,"ax",%progbits
 1542              		.align	2
 1543              		.global	FIO_HalfWordReadValue
ARM GAS  C:\Users\COSMIN~1.MAR\AppData\Local\Temp\ccJVXHYk.s 			page 38


 1544              		.thumb
 1545              		.thumb_func
 1546              		.type	FIO_HalfWordReadValue, %function
 1547              	FIO_HalfWordReadValue:
 1548              	.LFB77:
 567:core/lpc17xx_gpio.c **** 
 568:core/lpc17xx_gpio.c **** 
 569:core/lpc17xx_gpio.c **** /*********************************************************************//**
 570:core/lpc17xx_gpio.c ****  * @brief		Read Current state on port pin that have input direction of GPIO
 571:core/lpc17xx_gpio.c ****  * 				in halfword accessible style.
 572:core/lpc17xx_gpio.c ****  * @param[in]	portNum		Port number, in range from 0 to 4
 573:core/lpc17xx_gpio.c ****  * @param[in]	halfwordNum	HalfWord part number, should be 0 (lower) or 1(upper)
 574:core/lpc17xx_gpio.c ****  * @return		Current value of FIO port pin of specified halfword.
 575:core/lpc17xx_gpio.c ****  * Note: Return value contain state of each port pin (bit) on that FIO regardless
 576:core/lpc17xx_gpio.c ****  * its direction is input or output.
 577:core/lpc17xx_gpio.c ****  **********************************************************************/
 578:core/lpc17xx_gpio.c **** uint16_t FIO_HalfWordReadValue(uint8_t portNum, uint8_t halfwordNum)
 579:core/lpc17xx_gpio.c **** {
 1549              		.loc 1 579 0
 1550              		.cfi_startproc
 1551              		@ args = 0, pretend = 0, frame = 16
 1552              		@ frame_needed = 1, uses_anonymous_args = 0
 1553 0000 80B5     		push	{r7, lr}	@
 1554              		.cfi_def_cfa_offset 8
 1555              		.cfi_offset 7, -8
 1556              		.cfi_offset 14, -4
 1557 0002 84B0     		sub	sp, sp, #16	@,,
 1558              		.cfi_def_cfa_offset 24
 1559 0004 00AF     		add	r7, sp, #0	@,,
 1560              		.cfi_def_cfa_register 7
 1561 0006 0346     		mov	r3, r0	@ tmp112, portNum
 1562 0008 0A46     		mov	r2, r1	@ tmp114, halfwordNum
 1563 000a FB71     		strb	r3, [r7, #7]	@ tmp113, portNum
 1564 000c 1346     		mov	r3, r2	@ tmp115, tmp114
 1565 000e BB71     		strb	r3, [r7, #6]	@ tmp115, halfwordNum
 580:core/lpc17xx_gpio.c **** 	GPIO_HalfWord_TypeDef *pFIO = FIO_HalfWordGetPointer(portNum);
 1566              		.loc 1 580 0
 1567 0010 FB79     		ldrb	r3, [r7, #7]	@ zero_extendqisi2	@ tmp116, portNum
 1568 0012 1846     		mov	r0, r3	@, tmp116
 1569 0014 FFF7FEFF 		bl	FIO_HalfWordGetPointer	@
 1570 0018 F860     		str	r0, [r7, #12]	@, pFIO
 581:core/lpc17xx_gpio.c **** 	if(pFIO != NULL) {
 1571              		.loc 1 581 0
 1572 001a FB68     		ldr	r3, [r7, #12]	@ tmp117, pFIO
 1573 001c 002B     		cmp	r3, #0	@ tmp117,
 1574 001e 0AD0     		beq	.L103	@,
 582:core/lpc17xx_gpio.c **** 		// Upper
 583:core/lpc17xx_gpio.c **** 		if(halfwordNum) {
 1575              		.loc 1 583 0
 1576 0020 BB79     		ldrb	r3, [r7, #6]	@ zero_extendqisi2	@ tmp118, halfwordNum
 1577 0022 002B     		cmp	r3, #0	@ tmp118,
 1578 0024 03D0     		beq	.L104	@,
 584:core/lpc17xx_gpio.c **** 			return (pFIO->FIOPINU);
 1579              		.loc 1 584 0
 1580 0026 FB68     		ldr	r3, [r7, #12]	@ tmp119, pFIO
 1581 0028 DB8A     		ldrh	r3, [r3, #22]	@ movhi	@ tmp121, pFIO_3->FIOPINU
 1582 002a 9BB2     		uxth	r3, r3	@ D.5861, tmp121
ARM GAS  C:\Users\COSMIN~1.MAR\AppData\Local\Temp\ccJVXHYk.s 			page 39


 1583 002c 04E0     		b	.L105	@
 1584              	.L104:
 585:core/lpc17xx_gpio.c **** 		}
 586:core/lpc17xx_gpio.c **** 		// lower
 587:core/lpc17xx_gpio.c **** 		else {
 588:core/lpc17xx_gpio.c **** 			return (pFIO->FIOPINL);
 1585              		.loc 1 588 0
 1586 002e FB68     		ldr	r3, [r7, #12]	@ tmp122, pFIO
 1587 0030 9B8A     		ldrh	r3, [r3, #20]	@ movhi	@ tmp124, pFIO_3->FIOPINL
 1588 0032 9BB2     		uxth	r3, r3	@ D.5861, tmp124
 1589 0034 00E0     		b	.L105	@
 1590              	.L103:
 589:core/lpc17xx_gpio.c **** 		}
 590:core/lpc17xx_gpio.c **** 	}
 591:core/lpc17xx_gpio.c **** 	return (0);
 1591              		.loc 1 591 0
 1592 0036 0023     		movs	r3, #0	@ D.5861,
 1593              	.L105:
 592:core/lpc17xx_gpio.c **** }
 1594              		.loc 1 592 0
 1595 0038 1846     		mov	r0, r3	@, <retval>
 1596 003a 1037     		adds	r7, r7, #16	@,,
 1597              		.cfi_def_cfa_offset 8
 1598 003c BD46     		mov	sp, r7	@,
 1599              		.cfi_def_cfa_register 13
 1600              		@ sp needed	@
 1601 003e 80BD     		pop	{r7, pc}	@
 1602              		.cfi_endproc
 1603              	.LFE77:
 1604              		.size	FIO_HalfWordReadValue, .-FIO_HalfWordReadValue
 1605              		.section	.text.FIO_ByteSetDir,"ax",%progbits
 1606              		.align	2
 1607              		.global	FIO_ByteSetDir
 1608              		.thumb
 1609              		.thumb_func
 1610              		.type	FIO_ByteSetDir, %function
 1611              	FIO_ByteSetDir:
 1612              	.LFB78:
 593:core/lpc17xx_gpio.c **** 
 594:core/lpc17xx_gpio.c **** 
 595:core/lpc17xx_gpio.c **** /* FIO Byte accessible ------------------------------------------------------------ */
 596:core/lpc17xx_gpio.c **** 
 597:core/lpc17xx_gpio.c **** /*********************************************************************//**
 598:core/lpc17xx_gpio.c ****  * @brief		Set direction for FIO port in byte accessible style
 599:core/lpc17xx_gpio.c ****  * @param[in]	portNum		Port number, in range from 0 to 4
 600:core/lpc17xx_gpio.c ****  * @param[in]	byteNum		Byte part number, should be in range from 0 to 3
 601:core/lpc17xx_gpio.c ****  * @param[in]	bitValue	Value that contains all bits in to set direction,
 602:core/lpc17xx_gpio.c ****  * 							in range from 0 to 0xFF.
 603:core/lpc17xx_gpio.c ****  * @param[in]	dir			Direction value, should be:
 604:core/lpc17xx_gpio.c ****  * 							- 0: Input.
 605:core/lpc17xx_gpio.c ****  * 							- 1: Output.
 606:core/lpc17xx_gpio.c ****  * @return		None
 607:core/lpc17xx_gpio.c ****  *
 608:core/lpc17xx_gpio.c ****  * Note: All remaining bits that are not activated in bitValue (value '0')
 609:core/lpc17xx_gpio.c ****  * will not be effected by this function.
 610:core/lpc17xx_gpio.c ****  **********************************************************************/
 611:core/lpc17xx_gpio.c **** void FIO_ByteSetDir(uint8_t portNum, uint8_t byteNum, uint8_t bitValue, uint8_t dir)
ARM GAS  C:\Users\COSMIN~1.MAR\AppData\Local\Temp\ccJVXHYk.s 			page 40


 612:core/lpc17xx_gpio.c **** {
 1613              		.loc 1 612 0
 1614              		.cfi_startproc
 1615              		@ args = 0, pretend = 0, frame = 16
 1616              		@ frame_needed = 1, uses_anonymous_args = 0
 1617 0000 90B5     		push	{r4, r7, lr}	@
 1618              		.cfi_def_cfa_offset 12
 1619              		.cfi_offset 4, -12
 1620              		.cfi_offset 7, -8
 1621              		.cfi_offset 14, -4
 1622 0002 85B0     		sub	sp, sp, #20	@,,
 1623              		.cfi_def_cfa_offset 32
 1624 0004 00AF     		add	r7, sp, #0	@,,
 1625              		.cfi_def_cfa_register 7
 1626 0006 0446     		mov	r4, r0	@ tmp122, portNum
 1627 0008 0846     		mov	r0, r1	@ tmp124, byteNum
 1628 000a 1146     		mov	r1, r2	@ tmp126, bitValue
 1629 000c 1A46     		mov	r2, r3	@ tmp128, dir
 1630 000e 2346     		mov	r3, r4	@ tmp123, tmp122
 1631 0010 FB71     		strb	r3, [r7, #7]	@ tmp123, portNum
 1632 0012 0346     		mov	r3, r0	@ tmp125, tmp124
 1633 0014 BB71     		strb	r3, [r7, #6]	@ tmp125, byteNum
 1634 0016 0B46     		mov	r3, r1	@ tmp127, tmp126
 1635 0018 7B71     		strb	r3, [r7, #5]	@ tmp127, bitValue
 1636 001a 1346     		mov	r3, r2	@ tmp129, tmp128
 1637 001c 3B71     		strb	r3, [r7, #4]	@ tmp129, dir
 613:core/lpc17xx_gpio.c **** 	GPIO_Byte_TypeDef *pFIO = FIO_ByteGetPointer(portNum);
 1638              		.loc 1 613 0
 1639 001e FB79     		ldrb	r3, [r7, #7]	@ zero_extendqisi2	@ tmp130, portNum
 1640 0020 1846     		mov	r0, r3	@, tmp130
 1641 0022 FFF7FEFF 		bl	FIO_ByteGetPointer	@
 1642 0026 F860     		str	r0, [r7, #12]	@, pFIO
 614:core/lpc17xx_gpio.c **** 	if(pFIO != NULL) {
 1643              		.loc 1 614 0
 1644 0028 FB68     		ldr	r3, [r7, #12]	@ tmp131, pFIO
 1645 002a 002B     		cmp	r3, #0	@ tmp131,
 1646 002c 21D0     		beq	.L106	@,
 615:core/lpc17xx_gpio.c **** 		// Output direction
 616:core/lpc17xx_gpio.c **** 		if (dir) {
 1647              		.loc 1 616 0
 1648 002e 3B79     		ldrb	r3, [r7, #4]	@ zero_extendqisi2	@ tmp132, dir
 1649 0030 002B     		cmp	r3, #0	@ tmp132,
 1650 0032 0DD0     		beq	.L108	@,
 617:core/lpc17xx_gpio.c **** 			if ((byteNum >= 0) && (byteNum <= 3)) {
 1651              		.loc 1 617 0
 1652 0034 BB79     		ldrb	r3, [r7, #6]	@ zero_extendqisi2	@ tmp133, byteNum
 1653 0036 032B     		cmp	r3, #3	@ tmp133,
 1654 0038 1BD8     		bhi	.L106	@,
 618:core/lpc17xx_gpio.c **** 				pFIO->FIODIR[byteNum] |= bitValue;
 1655              		.loc 1 618 0
 1656 003a BB79     		ldrb	r3, [r7, #6]	@ zero_extendqisi2	@ D.5862, byteNum
 1657 003c BA79     		ldrb	r2, [r7, #6]	@ zero_extendqisi2	@ D.5862, byteNum
 1658 003e F968     		ldr	r1, [r7, #12]	@ tmp134, pFIO
 1659 0040 8A5C     		ldrb	r2, [r1, r2]	@ tmp136, pFIO_2->FIODIR
 1660 0042 D1B2     		uxtb	r1, r2	@ D.5863, tmp136
 1661 0044 7A79     		ldrb	r2, [r7, #5]	@ tmp137, bitValue
 1662 0046 0A43     		orrs	r2, r2, r1	@, tmp138, tmp137, D.5863
ARM GAS  C:\Users\COSMIN~1.MAR\AppData\Local\Temp\ccJVXHYk.s 			page 41


 1663 0048 D1B2     		uxtb	r1, r2	@ D.5863, tmp138
 1664 004a FA68     		ldr	r2, [r7, #12]	@ tmp139, pFIO
 1665 004c D154     		strb	r1, [r2, r3]	@ tmp140, pFIO_2->FIODIR
 1666 004e 10E0     		b	.L106	@
 1667              	.L108:
 619:core/lpc17xx_gpio.c **** 			}
 620:core/lpc17xx_gpio.c **** 		}
 621:core/lpc17xx_gpio.c **** 		// Input direction
 622:core/lpc17xx_gpio.c **** 		else {
 623:core/lpc17xx_gpio.c **** 			if ((byteNum >= 0) && (byteNum <= 3)) {
 1668              		.loc 1 623 0
 1669 0050 BB79     		ldrb	r3, [r7, #6]	@ zero_extendqisi2	@ tmp141, byteNum
 1670 0052 032B     		cmp	r3, #3	@ tmp141,
 1671 0054 0DD8     		bhi	.L106	@,
 624:core/lpc17xx_gpio.c **** 				pFIO->FIODIR[byteNum] &= ~bitValue;
 1672              		.loc 1 624 0
 1673 0056 BB79     		ldrb	r3, [r7, #6]	@ zero_extendqisi2	@ D.5862, byteNum
 1674 0058 BA79     		ldrb	r2, [r7, #6]	@ zero_extendqisi2	@ D.5862, byteNum
 1675 005a F968     		ldr	r1, [r7, #12]	@ tmp142, pFIO
 1676 005c 8A5C     		ldrb	r2, [r1, r2]	@ tmp144, pFIO_2->FIODIR
 1677 005e D2B2     		uxtb	r2, r2	@ D.5863, tmp144
 1678 0060 D1B2     		uxtb	r1, r2	@ D.5864, D.5863
 1679 0062 7A79     		ldrb	r2, [r7, #5]	@ zero_extendqisi2	@ D.5864, bitValue
 1680 0064 D243     		mvns	r2, r2	@ tmp145, D.5864
 1681 0066 D2B2     		uxtb	r2, r2	@ D.5864, tmp145
 1682 0068 0A40     		ands	r2, r2, r1	@, tmp148, tmp147, tmp146
 1683 006a D2B2     		uxtb	r2, r2	@ D.5864, tmp148
 1684 006c D1B2     		uxtb	r1, r2	@ D.5863, D.5864
 1685 006e FA68     		ldr	r2, [r7, #12]	@ tmp149, pFIO
 1686 0070 D154     		strb	r1, [r2, r3]	@ tmp150, pFIO_2->FIODIR
 1687              	.L106:
 625:core/lpc17xx_gpio.c **** 			}
 626:core/lpc17xx_gpio.c **** 		}
 627:core/lpc17xx_gpio.c **** 	}
 628:core/lpc17xx_gpio.c **** }
 1688              		.loc 1 628 0
 1689 0072 1437     		adds	r7, r7, #20	@,,
 1690              		.cfi_def_cfa_offset 12
 1691 0074 BD46     		mov	sp, r7	@,
 1692              		.cfi_def_cfa_register 13
 1693              		@ sp needed	@
 1694 0076 90BD     		pop	{r4, r7, pc}	@
 1695              		.cfi_endproc
 1696              	.LFE78:
 1697              		.size	FIO_ByteSetDir, .-FIO_ByteSetDir
 1698              		.section	.text.FIO_ByteSetMask,"ax",%progbits
 1699              		.align	2
 1700              		.global	FIO_ByteSetMask
 1701              		.thumb
 1702              		.thumb_func
 1703              		.type	FIO_ByteSetMask, %function
 1704              	FIO_ByteSetMask:
 1705              	.LFB79:
 629:core/lpc17xx_gpio.c **** 
 630:core/lpc17xx_gpio.c **** /*********************************************************************//**
 631:core/lpc17xx_gpio.c ****  * @brief		Set mask value for bits in FIO port in byte accessible style
 632:core/lpc17xx_gpio.c ****  * @param[in]	portNum		Port number, in range from 0 to 4
ARM GAS  C:\Users\COSMIN~1.MAR\AppData\Local\Temp\ccJVXHYk.s 			page 42


 633:core/lpc17xx_gpio.c ****  * @param[in]	byteNum		Byte part number, should be in range from 0 to 3
 634:core/lpc17xx_gpio.c ****  * @param[in]	bitValue	Value that contains all bits in to set mask,
 635:core/lpc17xx_gpio.c ****  * 							in range from 0 to 0xFF.
 636:core/lpc17xx_gpio.c ****  * @param[in]	maskValue	Mask value contains state value for each bit:
 637:core/lpc17xx_gpio.c ****  * 							- 0: not mask.
 638:core/lpc17xx_gpio.c ****  * 							- 1: mask.
 639:core/lpc17xx_gpio.c ****  * @return		None
 640:core/lpc17xx_gpio.c ****  *
 641:core/lpc17xx_gpio.c ****  * Note:
 642:core/lpc17xx_gpio.c ****  * - All remaining bits that are not activated in bitValue (value '0')
 643:core/lpc17xx_gpio.c ****  * will not be effected by this function.
 644:core/lpc17xx_gpio.c ****  * - After executing this function, in mask register, value '0' on each bit
 645:core/lpc17xx_gpio.c ****  * enables an access to the corresponding physical pin via a read or write access,
 646:core/lpc17xx_gpio.c ****  * while value '1' on bit (masked) that corresponding pin will not be changed
 647:core/lpc17xx_gpio.c ****  * with write access and if read, will not be reflected in the updated pin.
 648:core/lpc17xx_gpio.c ****  **********************************************************************/
 649:core/lpc17xx_gpio.c **** void FIO_ByteSetMask(uint8_t portNum, uint8_t byteNum, uint8_t bitValue, uint8_t maskValue)
 650:core/lpc17xx_gpio.c **** {
 1706              		.loc 1 650 0
 1707              		.cfi_startproc
 1708              		@ args = 0, pretend = 0, frame = 16
 1709              		@ frame_needed = 1, uses_anonymous_args = 0
 1710 0000 90B5     		push	{r4, r7, lr}	@
 1711              		.cfi_def_cfa_offset 12
 1712              		.cfi_offset 4, -12
 1713              		.cfi_offset 7, -8
 1714              		.cfi_offset 14, -4
 1715 0002 85B0     		sub	sp, sp, #20	@,,
 1716              		.cfi_def_cfa_offset 32
 1717 0004 00AF     		add	r7, sp, #0	@,,
 1718              		.cfi_def_cfa_register 7
 1719 0006 0446     		mov	r4, r0	@ tmp122, portNum
 1720 0008 0846     		mov	r0, r1	@ tmp124, byteNum
 1721 000a 1146     		mov	r1, r2	@ tmp126, bitValue
 1722 000c 1A46     		mov	r2, r3	@ tmp128, maskValue
 1723 000e 2346     		mov	r3, r4	@ tmp123, tmp122
 1724 0010 FB71     		strb	r3, [r7, #7]	@ tmp123, portNum
 1725 0012 0346     		mov	r3, r0	@ tmp125, tmp124
 1726 0014 BB71     		strb	r3, [r7, #6]	@ tmp125, byteNum
 1727 0016 0B46     		mov	r3, r1	@ tmp127, tmp126
 1728 0018 7B71     		strb	r3, [r7, #5]	@ tmp127, bitValue
 1729 001a 1346     		mov	r3, r2	@ tmp129, tmp128
 1730 001c 3B71     		strb	r3, [r7, #4]	@ tmp129, maskValue
 651:core/lpc17xx_gpio.c **** 	GPIO_Byte_TypeDef *pFIO = FIO_ByteGetPointer(portNum);
 1731              		.loc 1 651 0
 1732 001e FB79     		ldrb	r3, [r7, #7]	@ zero_extendqisi2	@ tmp130, portNum
 1733 0020 1846     		mov	r0, r3	@, tmp130
 1734 0022 FFF7FEFF 		bl	FIO_ByteGetPointer	@
 1735 0026 F860     		str	r0, [r7, #12]	@, pFIO
 652:core/lpc17xx_gpio.c **** 	if(pFIO != NULL) {
 1736              		.loc 1 652 0
 1737 0028 FB68     		ldr	r3, [r7, #12]	@ tmp131, pFIO
 1738 002a 002B     		cmp	r3, #0	@ tmp131,
 1739 002c 27D0     		beq	.L110	@,
 653:core/lpc17xx_gpio.c **** 		// Mask
 654:core/lpc17xx_gpio.c **** 		if (maskValue) {
 1740              		.loc 1 654 0
ARM GAS  C:\Users\COSMIN~1.MAR\AppData\Local\Temp\ccJVXHYk.s 			page 43


 1741 002e 3B79     		ldrb	r3, [r7, #4]	@ zero_extendqisi2	@ tmp132, maskValue
 1742 0030 002B     		cmp	r3, #0	@ tmp132,
 1743 0032 10D0     		beq	.L112	@,
 655:core/lpc17xx_gpio.c **** 			if ((byteNum >= 0) && (byteNum <= 3)) {
 1744              		.loc 1 655 0
 1745 0034 BB79     		ldrb	r3, [r7, #6]	@ zero_extendqisi2	@ tmp133, byteNum
 1746 0036 032B     		cmp	r3, #3	@ tmp133,
 1747 0038 21D8     		bhi	.L110	@,
 656:core/lpc17xx_gpio.c **** 				pFIO->FIOMASK[byteNum] |= bitValue;
 1748              		.loc 1 656 0
 1749 003a BB79     		ldrb	r3, [r7, #6]	@ zero_extendqisi2	@ D.5865, byteNum
 1750 003c BA79     		ldrb	r2, [r7, #6]	@ zero_extendqisi2	@ D.5865, byteNum
 1751 003e F968     		ldr	r1, [r7, #12]	@ tmp134, pFIO
 1752 0040 0A44     		add	r2, r2, r1	@ tmp135, tmp134
 1753 0042 127C     		ldrb	r2, [r2, #16]	@ tmp137, pFIO_2->FIOMASK
 1754 0044 D1B2     		uxtb	r1, r2	@ D.5866, tmp137
 1755 0046 7A79     		ldrb	r2, [r7, #5]	@ tmp138, bitValue
 1756 0048 0A43     		orrs	r2, r2, r1	@, tmp139, tmp138, D.5866
 1757 004a D1B2     		uxtb	r1, r2	@ D.5866, tmp139
 1758 004c FA68     		ldr	r2, [r7, #12]	@ tmp140, pFIO
 1759 004e 1344     		add	r3, r3, r2	@ tmp141, tmp140
 1760 0050 0A46     		mov	r2, r1	@ tmp142, D.5866
 1761 0052 1A74     		strb	r2, [r3, #16]	@ tmp142, pFIO_2->FIOMASK
 1762 0054 13E0     		b	.L110	@
 1763              	.L112:
 657:core/lpc17xx_gpio.c **** 			}
 658:core/lpc17xx_gpio.c **** 		}
 659:core/lpc17xx_gpio.c **** 		// Un-mask
 660:core/lpc17xx_gpio.c **** 		else {
 661:core/lpc17xx_gpio.c **** 			if ((byteNum >= 0) && (byteNum <= 3)) {
 1764              		.loc 1 661 0
 1765 0056 BB79     		ldrb	r3, [r7, #6]	@ zero_extendqisi2	@ tmp143, byteNum
 1766 0058 032B     		cmp	r3, #3	@ tmp143,
 1767 005a 10D8     		bhi	.L110	@,
 662:core/lpc17xx_gpio.c **** 				pFIO->FIOMASK[byteNum] &= ~bitValue;
 1768              		.loc 1 662 0
 1769 005c BB79     		ldrb	r3, [r7, #6]	@ zero_extendqisi2	@ D.5865, byteNum
 1770 005e BA79     		ldrb	r2, [r7, #6]	@ zero_extendqisi2	@ D.5865, byteNum
 1771 0060 F968     		ldr	r1, [r7, #12]	@ tmp144, pFIO
 1772 0062 0A44     		add	r2, r2, r1	@ tmp145, tmp144
 1773 0064 127C     		ldrb	r2, [r2, #16]	@ tmp147, pFIO_2->FIOMASK
 1774 0066 D2B2     		uxtb	r2, r2	@ D.5866, tmp147
 1775 0068 D1B2     		uxtb	r1, r2	@ D.5867, D.5866
 1776 006a 7A79     		ldrb	r2, [r7, #5]	@ zero_extendqisi2	@ D.5867, bitValue
 1777 006c D243     		mvns	r2, r2	@ tmp148, D.5867
 1778 006e D2B2     		uxtb	r2, r2	@ D.5867, tmp148
 1779 0070 0A40     		ands	r2, r2, r1	@, tmp151, tmp150, tmp149
 1780 0072 D2B2     		uxtb	r2, r2	@ D.5867, tmp151
 1781 0074 D1B2     		uxtb	r1, r2	@ D.5866, D.5867
 1782 0076 FA68     		ldr	r2, [r7, #12]	@ tmp152, pFIO
 1783 0078 1344     		add	r3, r3, r2	@ tmp153, tmp152
 1784 007a 0A46     		mov	r2, r1	@ tmp154, D.5866
 1785 007c 1A74     		strb	r2, [r3, #16]	@ tmp154, pFIO_2->FIOMASK
 1786              	.L110:
 663:core/lpc17xx_gpio.c **** 			}
 664:core/lpc17xx_gpio.c **** 		}
 665:core/lpc17xx_gpio.c **** 	}
ARM GAS  C:\Users\COSMIN~1.MAR\AppData\Local\Temp\ccJVXHYk.s 			page 44


 666:core/lpc17xx_gpio.c **** }
 1787              		.loc 1 666 0
 1788 007e 1437     		adds	r7, r7, #20	@,,
 1789              		.cfi_def_cfa_offset 12
 1790 0080 BD46     		mov	sp, r7	@,
 1791              		.cfi_def_cfa_register 13
 1792              		@ sp needed	@
 1793 0082 90BD     		pop	{r4, r7, pc}	@
 1794              		.cfi_endproc
 1795              	.LFE79:
 1796              		.size	FIO_ByteSetMask, .-FIO_ByteSetMask
 1797              		.section	.text.FIO_ByteSetValue,"ax",%progbits
 1798              		.align	2
 1799              		.global	FIO_ByteSetValue
 1800              		.thumb
 1801              		.thumb_func
 1802              		.type	FIO_ByteSetValue, %function
 1803              	FIO_ByteSetValue:
 1804              	.LFB80:
 667:core/lpc17xx_gpio.c **** 
 668:core/lpc17xx_gpio.c **** 
 669:core/lpc17xx_gpio.c **** /*********************************************************************//**
 670:core/lpc17xx_gpio.c ****  * @brief		Set bits for FIO port in byte accessible style
 671:core/lpc17xx_gpio.c ****  * @param[in]	portNum		Port number, in range from 0 to 4
 672:core/lpc17xx_gpio.c ****  * @param[in]	byteNum		Byte part number, should be in range from 0 to 3
 673:core/lpc17xx_gpio.c ****  * @param[in]	bitValue	Value that contains all bits in to set,
 674:core/lpc17xx_gpio.c ****  * 							in range from 0 to 0xFF.
 675:core/lpc17xx_gpio.c ****  * @return		None
 676:core/lpc17xx_gpio.c ****  *
 677:core/lpc17xx_gpio.c ****  * Note:
 678:core/lpc17xx_gpio.c ****  * - For all bits that has been set as input direction, this function will
 679:core/lpc17xx_gpio.c ****  * not effect.
 680:core/lpc17xx_gpio.c ****  * - For all remaining bits that are not activated in bitValue (value '0')
 681:core/lpc17xx_gpio.c ****  * will not be effected by this function.
 682:core/lpc17xx_gpio.c ****  **********************************************************************/
 683:core/lpc17xx_gpio.c **** void FIO_ByteSetValue(uint8_t portNum, uint8_t byteNum, uint8_t bitValue)
 684:core/lpc17xx_gpio.c **** {
 1805              		.loc 1 684 0
 1806              		.cfi_startproc
 1807              		@ args = 0, pretend = 0, frame = 16
 1808              		@ frame_needed = 1, uses_anonymous_args = 0
 1809 0000 80B5     		push	{r7, lr}	@
 1810              		.cfi_def_cfa_offset 8
 1811              		.cfi_offset 7, -8
 1812              		.cfi_offset 14, -4
 1813 0002 84B0     		sub	sp, sp, #16	@,,
 1814              		.cfi_def_cfa_offset 24
 1815 0004 00AF     		add	r7, sp, #0	@,,
 1816              		.cfi_def_cfa_register 7
 1817 0006 0346     		mov	r3, r0	@ tmp111, portNum
 1818 0008 FB71     		strb	r3, [r7, #7]	@ tmp112, portNum
 1819 000a 0B46     		mov	r3, r1	@ tmp114, tmp113
 1820 000c BB71     		strb	r3, [r7, #6]	@ tmp114, byteNum
 1821 000e 1346     		mov	r3, r2	@ tmp116, tmp115
 1822 0010 7B71     		strb	r3, [r7, #5]	@ tmp116, bitValue
 685:core/lpc17xx_gpio.c **** 	GPIO_Byte_TypeDef *pFIO = FIO_ByteGetPointer(portNum);
 1823              		.loc 1 685 0
ARM GAS  C:\Users\COSMIN~1.MAR\AppData\Local\Temp\ccJVXHYk.s 			page 45


 1824 0012 FB79     		ldrb	r3, [r7, #7]	@ zero_extendqisi2	@ tmp117, portNum
 1825 0014 1846     		mov	r0, r3	@, tmp117
 1826 0016 FFF7FEFF 		bl	FIO_ByteGetPointer	@
 1827 001a F860     		str	r0, [r7, #12]	@, pFIO
 686:core/lpc17xx_gpio.c **** 	if (pFIO != NULL) {
 1828              		.loc 1 686 0
 1829 001c FB68     		ldr	r3, [r7, #12]	@ tmp118, pFIO
 1830 001e 002B     		cmp	r3, #0	@ tmp118,
 1831 0020 07D0     		beq	.L114	@,
 687:core/lpc17xx_gpio.c **** 		if ((byteNum >= 0) && (byteNum <= 3)){
 1832              		.loc 1 687 0
 1833 0022 BB79     		ldrb	r3, [r7, #6]	@ zero_extendqisi2	@ tmp119, byteNum
 1834 0024 032B     		cmp	r3, #3	@ tmp119,
 1835 0026 04D8     		bhi	.L114	@,
 688:core/lpc17xx_gpio.c **** 			pFIO->FIOSET[byteNum] = bitValue;
 1836              		.loc 1 688 0
 1837 0028 BB79     		ldrb	r3, [r7, #6]	@ zero_extendqisi2	@ D.5868, byteNum
 1838 002a FA68     		ldr	r2, [r7, #12]	@ tmp120, pFIO
 1839 002c 1344     		add	r3, r3, r2	@ tmp121, tmp120
 1840 002e 7A79     		ldrb	r2, [r7, #5]	@ tmp122, bitValue
 1841 0030 1A76     		strb	r2, [r3, #24]	@ tmp122, pFIO_2->FIOSET
 1842              	.L114:
 689:core/lpc17xx_gpio.c **** 		}
 690:core/lpc17xx_gpio.c **** 	}
 691:core/lpc17xx_gpio.c **** }
 1843              		.loc 1 691 0
 1844 0032 1037     		adds	r7, r7, #16	@,,
 1845              		.cfi_def_cfa_offset 8
 1846 0034 BD46     		mov	sp, r7	@,
 1847              		.cfi_def_cfa_register 13
 1848              		@ sp needed	@
 1849 0036 80BD     		pop	{r7, pc}	@
 1850              		.cfi_endproc
 1851              	.LFE80:
 1852              		.size	FIO_ByteSetValue, .-FIO_ByteSetValue
 1853              		.section	.text.FIO_ByteClearValue,"ax",%progbits
 1854              		.align	2
 1855              		.global	FIO_ByteClearValue
 1856              		.thumb
 1857              		.thumb_func
 1858              		.type	FIO_ByteClearValue, %function
 1859              	FIO_ByteClearValue:
 1860              	.LFB81:
 692:core/lpc17xx_gpio.c **** 
 693:core/lpc17xx_gpio.c **** 
 694:core/lpc17xx_gpio.c **** /*********************************************************************//**
 695:core/lpc17xx_gpio.c ****  * @brief		Clear bits for FIO port in byte accessible style
 696:core/lpc17xx_gpio.c ****  * @param[in]	portNum		Port number, in range from 0 to 4
 697:core/lpc17xx_gpio.c ****  * @param[in]	byteNum		Byte part number, should be in range from 0 to 3
 698:core/lpc17xx_gpio.c ****  * @param[in]	bitValue	Value that contains all bits in to clear,
 699:core/lpc17xx_gpio.c ****  * 							in range from 0 to 0xFF.
 700:core/lpc17xx_gpio.c ****  * @return		None
 701:core/lpc17xx_gpio.c ****  *
 702:core/lpc17xx_gpio.c ****  * Note:
 703:core/lpc17xx_gpio.c ****  * - For all bits that has been set as input direction, this function will
 704:core/lpc17xx_gpio.c ****  * not effect.
 705:core/lpc17xx_gpio.c ****  * - For all remaining bits that are not activated in bitValue (value '0')
ARM GAS  C:\Users\COSMIN~1.MAR\AppData\Local\Temp\ccJVXHYk.s 			page 46


 706:core/lpc17xx_gpio.c ****  * will not be effected by this function.
 707:core/lpc17xx_gpio.c ****  **********************************************************************/
 708:core/lpc17xx_gpio.c **** void FIO_ByteClearValue(uint8_t portNum, uint8_t byteNum, uint8_t bitValue)
 709:core/lpc17xx_gpio.c **** {
 1861              		.loc 1 709 0
 1862              		.cfi_startproc
 1863              		@ args = 0, pretend = 0, frame = 16
 1864              		@ frame_needed = 1, uses_anonymous_args = 0
 1865 0000 80B5     		push	{r7, lr}	@
 1866              		.cfi_def_cfa_offset 8
 1867              		.cfi_offset 7, -8
 1868              		.cfi_offset 14, -4
 1869 0002 84B0     		sub	sp, sp, #16	@,,
 1870              		.cfi_def_cfa_offset 24
 1871 0004 00AF     		add	r7, sp, #0	@,,
 1872              		.cfi_def_cfa_register 7
 1873 0006 0346     		mov	r3, r0	@ tmp111, portNum
 1874 0008 FB71     		strb	r3, [r7, #7]	@ tmp112, portNum
 1875 000a 0B46     		mov	r3, r1	@ tmp114, tmp113
 1876 000c BB71     		strb	r3, [r7, #6]	@ tmp114, byteNum
 1877 000e 1346     		mov	r3, r2	@ tmp116, tmp115
 1878 0010 7B71     		strb	r3, [r7, #5]	@ tmp116, bitValue
 710:core/lpc17xx_gpio.c **** 	GPIO_Byte_TypeDef *pFIO = FIO_ByteGetPointer(portNum);
 1879              		.loc 1 710 0
 1880 0012 FB79     		ldrb	r3, [r7, #7]	@ zero_extendqisi2	@ tmp117, portNum
 1881 0014 1846     		mov	r0, r3	@, tmp117
 1882 0016 FFF7FEFF 		bl	FIO_ByteGetPointer	@
 1883 001a F860     		str	r0, [r7, #12]	@, pFIO
 711:core/lpc17xx_gpio.c **** 	if (pFIO != NULL) {
 1884              		.loc 1 711 0
 1885 001c FB68     		ldr	r3, [r7, #12]	@ tmp118, pFIO
 1886 001e 002B     		cmp	r3, #0	@ tmp118,
 1887 0020 07D0     		beq	.L116	@,
 712:core/lpc17xx_gpio.c **** 		if ((byteNum >= 0) && (byteNum <= 3)){
 1888              		.loc 1 712 0
 1889 0022 BB79     		ldrb	r3, [r7, #6]	@ zero_extendqisi2	@ tmp119, byteNum
 1890 0024 032B     		cmp	r3, #3	@ tmp119,
 1891 0026 04D8     		bhi	.L116	@,
 713:core/lpc17xx_gpio.c **** 			pFIO->FIOCLR[byteNum] = bitValue;
 1892              		.loc 1 713 0
 1893 0028 BB79     		ldrb	r3, [r7, #6]	@ zero_extendqisi2	@ D.5869, byteNum
 1894 002a FA68     		ldr	r2, [r7, #12]	@ tmp120, pFIO
 1895 002c 1344     		add	r3, r3, r2	@ tmp121, tmp120
 1896 002e 7A79     		ldrb	r2, [r7, #5]	@ tmp122, bitValue
 1897 0030 1A77     		strb	r2, [r3, #28]	@ tmp122, pFIO_2->FIOCLR
 1898              	.L116:
 714:core/lpc17xx_gpio.c **** 		}
 715:core/lpc17xx_gpio.c **** 	}
 716:core/lpc17xx_gpio.c **** }
 1899              		.loc 1 716 0
 1900 0032 1037     		adds	r7, r7, #16	@,,
 1901              		.cfi_def_cfa_offset 8
 1902 0034 BD46     		mov	sp, r7	@,
 1903              		.cfi_def_cfa_register 13
 1904              		@ sp needed	@
 1905 0036 80BD     		pop	{r7, pc}	@
 1906              		.cfi_endproc
ARM GAS  C:\Users\COSMIN~1.MAR\AppData\Local\Temp\ccJVXHYk.s 			page 47


 1907              	.LFE81:
 1908              		.size	FIO_ByteClearValue, .-FIO_ByteClearValue
 1909              		.section	.text.FIO_ByteReadValue,"ax",%progbits
 1910              		.align	2
 1911              		.global	FIO_ByteReadValue
 1912              		.thumb
 1913              		.thumb_func
 1914              		.type	FIO_ByteReadValue, %function
 1915              	FIO_ByteReadValue:
 1916              	.LFB82:
 717:core/lpc17xx_gpio.c **** 
 718:core/lpc17xx_gpio.c **** 
 719:core/lpc17xx_gpio.c **** /*********************************************************************//**
 720:core/lpc17xx_gpio.c ****  * @brief		Read Current state on port pin that have input direction of GPIO
 721:core/lpc17xx_gpio.c ****  * 				in byte accessible style.
 722:core/lpc17xx_gpio.c ****  * @param[in]	portNum		Port number, in range from 0 to 4
 723:core/lpc17xx_gpio.c ****  * @param[in]	byteNum		Byte part number, should be in range from 0 to 3
 724:core/lpc17xx_gpio.c ****  * @return		Current value of FIO port pin of specified byte part.
 725:core/lpc17xx_gpio.c ****  * Note: Return value contain state of each port pin (bit) on that FIO regardless
 726:core/lpc17xx_gpio.c ****  * its direction is input or output.
 727:core/lpc17xx_gpio.c ****  **********************************************************************/
 728:core/lpc17xx_gpio.c **** uint8_t FIO_ByteReadValue(uint8_t portNum, uint8_t byteNum)
 729:core/lpc17xx_gpio.c **** {
 1917              		.loc 1 729 0
 1918              		.cfi_startproc
 1919              		@ args = 0, pretend = 0, frame = 16
 1920              		@ frame_needed = 1, uses_anonymous_args = 0
 1921 0000 80B5     		push	{r7, lr}	@
 1922              		.cfi_def_cfa_offset 8
 1923              		.cfi_offset 7, -8
 1924              		.cfi_offset 14, -4
 1925 0002 84B0     		sub	sp, sp, #16	@,,
 1926              		.cfi_def_cfa_offset 24
 1927 0004 00AF     		add	r7, sp, #0	@,,
 1928              		.cfi_def_cfa_register 7
 1929 0006 0346     		mov	r3, r0	@ tmp113, portNum
 1930 0008 0A46     		mov	r2, r1	@ tmp115, byteNum
 1931 000a FB71     		strb	r3, [r7, #7]	@ tmp114, portNum
 1932 000c 1346     		mov	r3, r2	@ tmp116, tmp115
 1933 000e BB71     		strb	r3, [r7, #6]	@ tmp116, byteNum
 730:core/lpc17xx_gpio.c **** 	GPIO_Byte_TypeDef *pFIO = FIO_ByteGetPointer(portNum);
 1934              		.loc 1 730 0
 1935 0010 FB79     		ldrb	r3, [r7, #7]	@ zero_extendqisi2	@ tmp117, portNum
 1936 0012 1846     		mov	r0, r3	@, tmp117
 1937 0014 FFF7FEFF 		bl	FIO_ByteGetPointer	@
 1938 0018 F860     		str	r0, [r7, #12]	@, pFIO
 731:core/lpc17xx_gpio.c **** 	if (pFIO != NULL) {
 1939              		.loc 1 731 0
 1940 001a FB68     		ldr	r3, [r7, #12]	@ tmp118, pFIO
 1941 001c 002B     		cmp	r3, #0	@ tmp118,
 1942 001e 08D0     		beq	.L119	@,
 732:core/lpc17xx_gpio.c **** 		if ((byteNum >= 0) && (byteNum <= 3)){
 1943              		.loc 1 732 0
 1944 0020 BB79     		ldrb	r3, [r7, #6]	@ zero_extendqisi2	@ tmp119, byteNum
 1945 0022 032B     		cmp	r3, #3	@ tmp119,
 1946 0024 05D8     		bhi	.L119	@,
 733:core/lpc17xx_gpio.c **** 			return (pFIO->FIOPIN[byteNum]);
ARM GAS  C:\Users\COSMIN~1.MAR\AppData\Local\Temp\ccJVXHYk.s 			page 48


 1947              		.loc 1 733 0
 1948 0026 BB79     		ldrb	r3, [r7, #6]	@ zero_extendqisi2	@ D.5871, byteNum
 1949 0028 FA68     		ldr	r2, [r7, #12]	@ tmp120, pFIO
 1950 002a 1344     		add	r3, r3, r2	@ tmp121, tmp120
 1951 002c 1B7D     		ldrb	r3, [r3, #20]	@ tmp123, pFIO_3->FIOPIN
 1952 002e DBB2     		uxtb	r3, r3	@ D.5870, tmp123
 1953 0030 00E0     		b	.L120	@
 1954              	.L119:
 734:core/lpc17xx_gpio.c **** 		}
 735:core/lpc17xx_gpio.c **** 	}
 736:core/lpc17xx_gpio.c **** 	return (0);
 1955              		.loc 1 736 0
 1956 0032 0023     		movs	r3, #0	@ D.5870,
 1957              	.L120:
 737:core/lpc17xx_gpio.c **** }
 1958              		.loc 1 737 0
 1959 0034 1846     		mov	r0, r3	@, <retval>
 1960 0036 1037     		adds	r7, r7, #16	@,,
 1961              		.cfi_def_cfa_offset 8
 1962 0038 BD46     		mov	sp, r7	@,
 1963              		.cfi_def_cfa_register 13
 1964              		@ sp needed	@
 1965 003a 80BD     		pop	{r7, pc}	@
 1966              		.cfi_endproc
 1967              	.LFE82:
 1968              		.size	FIO_ByteReadValue, .-FIO_ByteReadValue
 1969              		.text
 1970              	.Letext0:
 1971              		.file 2 "c:\\gnu tools arm embedded\\4.9 2015q1\\arm-none-eabi\\include\\machine\\_default_types.h
 1972              		.file 3 "c:\\gnu tools arm embedded\\4.9 2015q1\\arm-none-eabi\\include\\stdint.h"
 1973              		.file 4 "system/LPC17xx.h"
 1974              		.file 5 "core/lpc_types.h"
 1975              		.file 6 "core/lpc17xx_gpio.h"
 1976              		.file 7 "system/core_cm3.h"