ARM GAS  C:\Users\COSMIN~1.MAR\AppData\Local\Temp\cccNbcra.s 			page 1


   1              		.syntax unified
   2              		.cpu cortex-m3
   3              		.fpu softvfp
   4              		.eabi_attribute 20, 1	@ Tag_ABI_FP_denormal
   5              		.eabi_attribute 21, 1	@ Tag_ABI_FP_exceptions
   6              		.eabi_attribute 23, 3	@ Tag_ABI_FP_number_model
   7              		.eabi_attribute 24, 1	@ Tag_ABI_align8_needed
   8              		.eabi_attribute 25, 1	@ Tag_ABI_align8_preserved
   9              		.eabi_attribute 26, 1	@ Tag_ABI_enum_size
  10              		.eabi_attribute 30, 6	@ Tag_ABI_optimization_goals
  11              		.eabi_attribute 34, 1	@ Tag_CPU_unaligned_access
  12              		.eabi_attribute 18, 4	@ Tag_ABI_PCS_wchar_t
  13              		.file	"lpc17xx_timer.c"
  14              	@ GNU C (GNU Tools for ARM Embedded Processors) version 4.9.3 20150303 (release) [ARM/embedded-4_9-
  15              	@	compiled by GNU C version 4.7.4, GMP version 4.3.2, MPFR version 2.4.2, MPC version 0.8.1
  16              	@ GGC heuristics: --param ggc-min-expand=100 --param ggc-min-heapsize=131072
  17              	@ options passed:  -I . -I config -I system -I core -I drivers -I FreeRTOS
  18              	@ -I FreeRTOS/include -I FreeRTOS/portable/GCC/ARM_CM3 -I FreeRTOS/portable
  19              	@ -I tasks/rc_task_leds -I modules/rc_leds -I drivers/rc_system
  20              	@ -I drivers/rc_gpio -I drivers/rc_uart -I drivers/rc_pinsel
  21              	@ -I drivers/rc_timer -I drivers/rc_adc -imultilib armv7-m
  22              	@ -iprefix c:\gnu tools arm embedded\4.9 2015q1\bin\../lib/gcc/arm-none-eabi/4.9.3/
  23              	@ -isysroot c:\gnu tools arm embedded\4.9 2015q1\bin\../arm-none-eabi
  24              	@ -MD out/lpc17xx_timer.d -MF out/lpc17xx_timer.d -MP
  25              	@ -MQ out/lpc17xx_timer.o -D__USES_INITFINI__ core/lpc17xx_timer.c
  26              	@ -mcpu=cortex-m3 -mthumb -auxbase-strip out/lpc17xx_timer.o -g -ggdb3 -O0
  27              	@ -Wall -Wstrict-prototypes -Wextra -std=gnu90 -ffunction-sections
  28              	@ -fdata-sections -fverbose-asm
  29              	@ options enabled:  -faggressive-loop-optimizations -fauto-inc-dec -fcommon
  30              	@ -fdata-sections -fdelete-null-pointer-checks -fdwarf2-cfi-asm
  31              	@ -fearly-inlining -feliminate-unused-debug-types -ffunction-cse
  32              	@ -ffunction-sections -fgcse-lm -fgnu-runtime -fgnu-unique -fident
  33              	@ -finline-atomics -fira-hoist-pressure -fira-share-save-slots
  34              	@ -fira-share-spill-slots -fivopts -fkeep-static-consts
  35              	@ -fleading-underscore -flifetime-dse -fmath-errno -fmerge-debug-strings
  36              	@ -fpeephole -fprefetch-loop-arrays -freg-struct-return
  37              	@ -fsched-critical-path-heuristic -fsched-dep-count-heuristic
  38              	@ -fsched-group-heuristic -fsched-interblock -fsched-last-insn-heuristic
  39              	@ -fsched-rank-heuristic -fsched-spec -fsched-spec-insn-heuristic
  40              	@ -fsched-stalled-insns-dep -fshow-column -fsigned-zeros
  41              	@ -fsplit-ivs-in-unroller -fstrict-volatile-bitfields -fsync-libcalls
  42              	@ -ftrapping-math -ftree-coalesce-vars -ftree-cselim -ftree-forwprop
  43              	@ -ftree-loop-if-convert -ftree-loop-im -ftree-loop-ivcanon
  44              	@ -ftree-loop-optimize -ftree-parallelize-loops= -ftree-phiprop
  45              	@ -ftree-reassoc -ftree-scev-cprop -funit-at-a-time -fverbose-asm
  46              	@ -fzero-initialized-in-bss -mfix-cortex-m3-ldrd -mlittle-endian -mlra
  47              	@ -mpic-data-is-text-relative -msched-prolog -mthumb -munaligned-access
  48              	@ -mvectorize-with-neon-quad
  49              	
  50              		.text
  51              	.Ltext0:
  52              		.cfi_sections	.debug_frame
  53              		.section	.text.TIM_GetPClock,"ax",%progbits
  54              		.align	2
  55              		.global	TIM_GetPClock
  56              		.thumb
  57              		.thumb_func
ARM GAS  C:\Users\COSMIN~1.MAR\AppData\Local\Temp\cccNbcra.s 			page 2


  58              		.type	TIM_GetPClock, %function
  59              	TIM_GetPClock:
  60              	.LFB55:
  61              		.file 1 "core/lpc17xx_timer.c"
   1:core/lpc17xx_timer.c **** /**
   2:core/lpc17xx_timer.c ****  * @file	: lpc17xx_timer.c
   3:core/lpc17xx_timer.c ****  * @brief	: Contains all functions support for Timer firmware library on LPC17xx
   4:core/lpc17xx_timer.c ****  * @version	: 1.0
   5:core/lpc17xx_timer.c ****  * @date	: 14. April. 2009
   6:core/lpc17xx_timer.c ****  * @author	: HieuNguyen
   7:core/lpc17xx_timer.c ****  **************************************************************************
   8:core/lpc17xx_timer.c ****  * Software that is described herein is for illustrative purposes only
   9:core/lpc17xx_timer.c ****  * which provides customers with programming information regarding the
  10:core/lpc17xx_timer.c ****  * products. This software is supplied "AS IS" without any warranties.
  11:core/lpc17xx_timer.c ****  * NXP Semiconductors assumes no responsibility or liability for the
  12:core/lpc17xx_timer.c ****  * use of the software, conveys no license or title under any patent,
  13:core/lpc17xx_timer.c ****  * copyright, or mask work right to the product. NXP Semiconductors
  14:core/lpc17xx_timer.c ****  * reserves the right to make changes in the software without
  15:core/lpc17xx_timer.c ****  * notification. NXP Semiconductors also make no representation or
  16:core/lpc17xx_timer.c ****  * warranty that such application will be suitable for the specified
  17:core/lpc17xx_timer.c ****  * use without further testing or modification.
  18:core/lpc17xx_timer.c ****  **********************************************************************/
  19:core/lpc17xx_timer.c **** 
  20:core/lpc17xx_timer.c **** /* Peripheral group ----------------------------------------------------------- */
  21:core/lpc17xx_timer.c **** /** @addtogroup TIM
  22:core/lpc17xx_timer.c ****  * @{
  23:core/lpc17xx_timer.c ****  */
  24:core/lpc17xx_timer.c **** 
  25:core/lpc17xx_timer.c **** /* Includes ------------------------------------------------------------------- */
  26:core/lpc17xx_timer.c **** #include "lpc17xx_timer.h"
  27:core/lpc17xx_timer.c **** #include "lpc17xx_clkpwr.h"
  28:core/lpc17xx_timer.c **** #include "lpc17xx_pinsel.h"
  29:core/lpc17xx_timer.c **** 
  30:core/lpc17xx_timer.c **** /* If this source file built with example, the LPC17xx FW library configuration
  31:core/lpc17xx_timer.c ****  * file in each example directory ("lpc17xx_libcfg.h") must be included,
  32:core/lpc17xx_timer.c ****  * otherwise the default FW library configuration file must be included instead
  33:core/lpc17xx_timer.c ****  */
  34:core/lpc17xx_timer.c **** #ifdef __BUILD_WITH_EXAMPLE__
  35:core/lpc17xx_timer.c **** #include "lpc17xx_libcfg.h"
  36:core/lpc17xx_timer.c **** #else
  37:core/lpc17xx_timer.c **** #include "lpc17xx_libcfg_default.h"
  38:core/lpc17xx_timer.c **** #endif /* __BUILD_WITH_EXAMPLE__ */
  39:core/lpc17xx_timer.c **** 
  40:core/lpc17xx_timer.c **** #ifdef _TIM
  41:core/lpc17xx_timer.c **** 
  42:core/lpc17xx_timer.c **** /* Private Functions ---------------------------------------------------------- */
  43:core/lpc17xx_timer.c **** /** @defgroup TIM_Private_Functions
  44:core/lpc17xx_timer.c ****  * @{
  45:core/lpc17xx_timer.c ****  */
  46:core/lpc17xx_timer.c **** 
  47:core/lpc17xx_timer.c **** uint32_t TIM_GetPClock (uint32_t timernum);
  48:core/lpc17xx_timer.c **** uint32_t TIM_ConverUSecToVal (uint32_t timernum, uint32_t usec);
  49:core/lpc17xx_timer.c **** uint32_t TIM_ConverPtrToTimeNum (LPC_TIM_TypeDef *TIMx);
  50:core/lpc17xx_timer.c **** 
  51:core/lpc17xx_timer.c **** 
  52:core/lpc17xx_timer.c **** /*********************************************************************//**
  53:core/lpc17xx_timer.c ****  * @brief 		Get peripheral clock of each timer controller
ARM GAS  C:\Users\COSMIN~1.MAR\AppData\Local\Temp\cccNbcra.s 			page 3


  54:core/lpc17xx_timer.c ****  * @param[in]	timernum Timer number
  55:core/lpc17xx_timer.c ****  * @return 		Peripheral clock of timer
  56:core/lpc17xx_timer.c ****  **********************************************************************/
  57:core/lpc17xx_timer.c **** 
  58:core/lpc17xx_timer.c **** uint32_t TIM_GetPClock (uint32_t timernum)
  59:core/lpc17xx_timer.c **** {
  62              		.loc 1 59 0
  63              		.cfi_startproc
  64              		@ args = 0, pretend = 0, frame = 16
  65              		@ frame_needed = 1, uses_anonymous_args = 0
  66 0000 80B5     		push	{r7, lr}	@
  67              		.cfi_def_cfa_offset 8
  68              		.cfi_offset 7, -8
  69              		.cfi_offset 14, -4
  70 0002 84B0     		sub	sp, sp, #16	@,,
  71              		.cfi_def_cfa_offset 24
  72 0004 00AF     		add	r7, sp, #0	@,,
  73              		.cfi_def_cfa_register 7
  74 0006 7860     		str	r0, [r7, #4]	@ timernum, timernum
  60:core/lpc17xx_timer.c **** 	uint32_t clkdlycnt;
  61:core/lpc17xx_timer.c **** 	switch (timernum)
  75              		.loc 1 61 0
  76 0008 7B68     		ldr	r3, [r7, #4]	@ tmp112, timernum
  77 000a 032B     		cmp	r3, #3	@ tmp112,
  78 000c 1ED8     		bhi	.L2	@
  79 000e 01A2     		adr	r2, .L4	@ tmp114,
  80 0010 52F823F0 		ldr	pc, [r2, r3, lsl #2]	@ tmp114, tmp112
  81              		.p2align 2
  82              	.L4:
  83 0014 25000000 		.word	.L3+1
  84 0018 2F000000 		.word	.L5+1
  85 001c 39000000 		.word	.L6+1
  86 0020 43000000 		.word	.L7+1
  87              		.p2align 1
  88              	.L3:
  62:core/lpc17xx_timer.c **** 	{
  63:core/lpc17xx_timer.c **** 	case 0:
  64:core/lpc17xx_timer.c **** 		clkdlycnt = CLKPWR_GetPCLK (CLKPWR_PCLKSEL_TIMER0);
  89              		.loc 1 64 0
  90 0024 0220     		movs	r0, #2	@,
  91 0026 FFF7FEFF 		bl	CLKPWR_GetPCLK	@
  92 002a F860     		str	r0, [r7, #12]	@, clkdlycnt
  65:core/lpc17xx_timer.c **** 		break;
  93              		.loc 1 65 0
  94 002c 0EE0     		b	.L2	@
  95              	.L5:
  66:core/lpc17xx_timer.c **** 
  67:core/lpc17xx_timer.c **** 	case 1:
  68:core/lpc17xx_timer.c **** 		clkdlycnt = CLKPWR_GetPCLK (CLKPWR_PCLKSEL_TIMER1);
  96              		.loc 1 68 0
  97 002e 0420     		movs	r0, #4	@,
  98 0030 FFF7FEFF 		bl	CLKPWR_GetPCLK	@
  99 0034 F860     		str	r0, [r7, #12]	@, clkdlycnt
  69:core/lpc17xx_timer.c **** 		break;
 100              		.loc 1 69 0
 101 0036 09E0     		b	.L2	@
 102              	.L6:
ARM GAS  C:\Users\COSMIN~1.MAR\AppData\Local\Temp\cccNbcra.s 			page 4


  70:core/lpc17xx_timer.c **** 
  71:core/lpc17xx_timer.c **** 	case 2:
  72:core/lpc17xx_timer.c **** 		clkdlycnt = CLKPWR_GetPCLK (CLKPWR_PCLKSEL_TIMER2);
 103              		.loc 1 72 0
 104 0038 2C20     		movs	r0, #44	@,
 105 003a FFF7FEFF 		bl	CLKPWR_GetPCLK	@
 106 003e F860     		str	r0, [r7, #12]	@, clkdlycnt
  73:core/lpc17xx_timer.c **** 		break;
 107              		.loc 1 73 0
 108 0040 04E0     		b	.L2	@
 109              	.L7:
  74:core/lpc17xx_timer.c **** 
  75:core/lpc17xx_timer.c **** 	case 3:
  76:core/lpc17xx_timer.c **** 		clkdlycnt = CLKPWR_GetPCLK (CLKPWR_PCLKSEL_TIMER3);
 110              		.loc 1 76 0
 111 0042 2E20     		movs	r0, #46	@,
 112 0044 FFF7FEFF 		bl	CLKPWR_GetPCLK	@
 113 0048 F860     		str	r0, [r7, #12]	@, clkdlycnt
  77:core/lpc17xx_timer.c **** 		break;
 114              		.loc 1 77 0
 115 004a 00BF     		nop
 116              	.L2:
  78:core/lpc17xx_timer.c **** 	}
  79:core/lpc17xx_timer.c **** 	return clkdlycnt;
 117              		.loc 1 79 0
 118 004c FB68     		ldr	r3, [r7, #12]	@ D.5936, clkdlycnt
  80:core/lpc17xx_timer.c **** }
 119              		.loc 1 80 0
 120 004e 1846     		mov	r0, r3	@, <retval>
 121 0050 1037     		adds	r7, r7, #16	@,,
 122              		.cfi_def_cfa_offset 8
 123 0052 BD46     		mov	sp, r7	@,
 124              		.cfi_def_cfa_register 13
 125              		@ sp needed	@
 126 0054 80BD     		pop	{r7, pc}	@
 127              		.cfi_endproc
 128              	.LFE55:
 129              		.size	TIM_GetPClock, .-TIM_GetPClock
 130              		.global	__aeabi_uldivmod
 131 0056 00BF     		.section	.text.TIM_ConverUSecToVal,"ax",%progbits
 132              		.align	2
 133              		.global	TIM_ConverUSecToVal
 134              		.thumb
 135              		.thumb_func
 136              		.type	TIM_ConverUSecToVal, %function
 137              	TIM_ConverUSecToVal:
 138              	.LFB56:
  81:core/lpc17xx_timer.c **** 
  82:core/lpc17xx_timer.c **** 
  83:core/lpc17xx_timer.c **** /*********************************************************************//**
  84:core/lpc17xx_timer.c ****  * @brief 		Convert a time to a timer count value
  85:core/lpc17xx_timer.c ****  * @param[in]	timernum Timer number
  86:core/lpc17xx_timer.c ****  * @param[in]	usec Time in microseconds
  87:core/lpc17xx_timer.c ****  * @return 		The number of required clock ticks to give the time delay
  88:core/lpc17xx_timer.c ****  **********************************************************************/
  89:core/lpc17xx_timer.c **** uint32_t TIM_ConverUSecToVal (uint32_t timernum, uint32_t usec)
  90:core/lpc17xx_timer.c **** {
ARM GAS  C:\Users\COSMIN~1.MAR\AppData\Local\Temp\cccNbcra.s 			page 5


 139              		.loc 1 90 0
 140              		.cfi_startproc
 141              		@ args = 0, pretend = 0, frame = 16
 142              		@ frame_needed = 1, uses_anonymous_args = 0
 143 0000 80B5     		push	{r7, lr}	@
 144              		.cfi_def_cfa_offset 8
 145              		.cfi_offset 7, -8
 146              		.cfi_offset 14, -4
 147 0002 84B0     		sub	sp, sp, #16	@,,
 148              		.cfi_def_cfa_offset 24
 149 0004 00AF     		add	r7, sp, #0	@,,
 150              		.cfi_def_cfa_register 7
 151 0006 7860     		str	r0, [r7, #4]	@ timernum, timernum
 152 0008 3960     		str	r1, [r7]	@ usec, usec
  91:core/lpc17xx_timer.c **** 	uint64_t clkdlycnt;
  92:core/lpc17xx_timer.c **** 
  93:core/lpc17xx_timer.c **** 	// Get Pclock of timer
  94:core/lpc17xx_timer.c **** 	clkdlycnt = (uint64_t) TIM_GetPClock (timernum);
 153              		.loc 1 94 0
 154 000a 7868     		ldr	r0, [r7, #4]	@, timernum
 155 000c FFF7FEFF 		bl	TIM_GetPClock	@
 156 0010 0346     		mov	r3, r0	@ D.5937,
 157 0012 1A46     		mov	r2, r3	@ tmp115, D.5937
 158 0014 4FF00003 		mov	r3, #0	@,
 159 0018 C7E90223 		strd	r2, [r7, #8]	@ tmp115,,
  95:core/lpc17xx_timer.c **** 
  96:core/lpc17xx_timer.c **** 	clkdlycnt = (clkdlycnt * usec) / 1000000;
 160              		.loc 1 96 0
 161 001c 3B68     		ldr	r3, [r7]	@ tmp116, usec
 162 001e 1A46     		mov	r2, r3	@ D.5938, tmp116
 163 0020 4FF00003 		mov	r3, #0	@ D.5938,
 164 0024 B968     		ldr	r1, [r7, #8]	@ tmp118, clkdlycnt
 165 0026 03FB01F0 		mul	r0, r3, r1	@ tmp117, D.5938, tmp118
 166 002a F968     		ldr	r1, [r7, #12]	@ tmp120, clkdlycnt
 167 002c 02FB01F1 		mul	r1, r2, r1	@ tmp119, D.5938, tmp120
 168 0030 0144     		add	r1, r1, r0	@ tmp121, tmp117
 169 0032 B868     		ldr	r0, [r7, #8]	@ tmp122, clkdlycnt
 170 0034 A0FB0223 		umull	r2, r3, r0, r2	@ D.5938, tmp122, D.5938
 171 0038 1944     		add	r1, r1, r3	@ tmp123, D.5938
 172 003a 0B46     		mov	r3, r1	@ D.5938, tmp123
 173 003c 1046     		mov	r0, r2	@, D.5938
 174 003e 1946     		mov	r1, r3	@, D.5938
 175 0040 064A     		ldr	r2, .L11	@,
 176 0042 4FF00003 		mov	r3, #0	@,
 177 0046 FFF7FEFF 		bl	__aeabi_uldivmod	@
 178 004a 0246     		mov	r2, r0	@ tmp126,
 179 004c 0B46     		mov	r3, r1	@,
 180 004e C7E90223 		strd	r2, [r7, #8]	@ tmp126,,
  97:core/lpc17xx_timer.c **** 	return (uint32_t) clkdlycnt;
 181              		.loc 1 97 0
 182 0052 BB68     		ldr	r3, [r7, #8]	@ D.5939, clkdlycnt
  98:core/lpc17xx_timer.c **** }
 183              		.loc 1 98 0
 184 0054 1846     		mov	r0, r3	@, <retval>
 185 0056 1037     		adds	r7, r7, #16	@,,
 186              		.cfi_def_cfa_offset 8
 187 0058 BD46     		mov	sp, r7	@,
ARM GAS  C:\Users\COSMIN~1.MAR\AppData\Local\Temp\cccNbcra.s 			page 6


 188              		.cfi_def_cfa_register 13
 189              		@ sp needed	@
 190 005a 80BD     		pop	{r7, pc}	@
 191              	.L12:
 192              		.align	2
 193              	.L11:
 194 005c 40420F00 		.word	1000000
 195              		.cfi_endproc
 196              	.LFE56:
 197              		.size	TIM_ConverUSecToVal, .-TIM_ConverUSecToVal
 198              		.section	.text.TIM_ConverPtrToTimeNum,"ax",%progbits
 199              		.align	2
 200              		.global	TIM_ConverPtrToTimeNum
 201              		.thumb
 202              		.thumb_func
 203              		.type	TIM_ConverPtrToTimeNum, %function
 204              	TIM_ConverPtrToTimeNum:
 205              	.LFB57:
  99:core/lpc17xx_timer.c **** 
 100:core/lpc17xx_timer.c **** 
 101:core/lpc17xx_timer.c **** /*********************************************************************//**
 102:core/lpc17xx_timer.c ****  * @brief 		Convert a timer register pointer to a timer number
 103:core/lpc17xx_timer.c ****  * @param[in]	TIMx Pointer to a timer register set
 104:core/lpc17xx_timer.c ****  * @return 		The timer number (0 to 3) or -1 if register pointer is bad
 105:core/lpc17xx_timer.c ****  **********************************************************************/
 106:core/lpc17xx_timer.c **** uint32_t TIM_ConverPtrToTimeNum (LPC_TIM_TypeDef *TIMx)
 107:core/lpc17xx_timer.c **** {
 206              		.loc 1 107 0
 207              		.cfi_startproc
 208              		@ args = 0, pretend = 0, frame = 16
 209              		@ frame_needed = 1, uses_anonymous_args = 0
 210              		@ link register save eliminated.
 211 0000 80B4     		push	{r7}	@
 212              		.cfi_def_cfa_offset 4
 213              		.cfi_offset 7, -4
 214 0002 85B0     		sub	sp, sp, #20	@,,
 215              		.cfi_def_cfa_offset 24
 216 0004 00AF     		add	r7, sp, #0	@,,
 217              		.cfi_def_cfa_register 7
 218 0006 7860     		str	r0, [r7, #4]	@ TIMx, TIMx
 108:core/lpc17xx_timer.c **** 	uint32_t tnum = -1;
 219              		.loc 1 108 0
 220 0008 4FF0FF33 		mov	r3, #-1	@ tmp112,
 221 000c FB60     		str	r3, [r7, #12]	@ tmp112, tnum
 109:core/lpc17xx_timer.c **** 
 110:core/lpc17xx_timer.c **** 	if (TIMx == LPC_TIM0)
 222              		.loc 1 110 0
 223 000e 7B68     		ldr	r3, [r7, #4]	@ tmp113, TIMx
 224 0010 B3F1402F 		cmp	r3, #1073758208	@ tmp113,
 225 0014 02D1     		bne	.L14	@,
 111:core/lpc17xx_timer.c **** 	{
 112:core/lpc17xx_timer.c **** 		tnum = 0;
 226              		.loc 1 112 0
 227 0016 0023     		movs	r3, #0	@ tmp114,
 228 0018 FB60     		str	r3, [r7, #12]	@ tmp114, tnum
 229 001a 13E0     		b	.L15	@
 230              	.L14:
ARM GAS  C:\Users\COSMIN~1.MAR\AppData\Local\Temp\cccNbcra.s 			page 7


 113:core/lpc17xx_timer.c **** 	}
 114:core/lpc17xx_timer.c **** 	else if (TIMx == LPC_TIM1)
 231              		.loc 1 114 0
 232 001c 7B68     		ldr	r3, [r7, #4]	@ tmp115, TIMx
 233 001e 0D4A     		ldr	r2, .L19	@ tmp116,
 234 0020 9342     		cmp	r3, r2	@ tmp115, tmp116
 235 0022 02D1     		bne	.L16	@,
 115:core/lpc17xx_timer.c **** 	{
 116:core/lpc17xx_timer.c **** 		tnum = 1;
 236              		.loc 1 116 0
 237 0024 0123     		movs	r3, #1	@ tmp117,
 238 0026 FB60     		str	r3, [r7, #12]	@ tmp117, tnum
 239 0028 0CE0     		b	.L15	@
 240              	.L16:
 117:core/lpc17xx_timer.c **** 	}
 118:core/lpc17xx_timer.c **** 	else if (TIMx == LPC_TIM2)
 241              		.loc 1 118 0
 242 002a 7B68     		ldr	r3, [r7, #4]	@ tmp118, TIMx
 243 002c 0A4A     		ldr	r2, .L19+4	@ tmp119,
 244 002e 9342     		cmp	r3, r2	@ tmp118, tmp119
 245 0030 02D1     		bne	.L17	@,
 119:core/lpc17xx_timer.c **** 	{
 120:core/lpc17xx_timer.c **** 		tnum = 2;
 246              		.loc 1 120 0
 247 0032 0223     		movs	r3, #2	@ tmp120,
 248 0034 FB60     		str	r3, [r7, #12]	@ tmp120, tnum
 249 0036 05E0     		b	.L15	@
 250              	.L17:
 121:core/lpc17xx_timer.c **** 	}
 122:core/lpc17xx_timer.c **** 	else if (TIMx == LPC_TIM3)
 251              		.loc 1 122 0
 252 0038 7B68     		ldr	r3, [r7, #4]	@ tmp121, TIMx
 253 003a 084A     		ldr	r2, .L19+8	@ tmp122,
 254 003c 9342     		cmp	r3, r2	@ tmp121, tmp122
 255 003e 01D1     		bne	.L15	@,
 123:core/lpc17xx_timer.c **** 	{
 124:core/lpc17xx_timer.c **** 		tnum = 3;
 256              		.loc 1 124 0
 257 0040 0323     		movs	r3, #3	@ tmp123,
 258 0042 FB60     		str	r3, [r7, #12]	@ tmp123, tnum
 259              	.L15:
 125:core/lpc17xx_timer.c **** 	}
 126:core/lpc17xx_timer.c **** 
 127:core/lpc17xx_timer.c **** 	return tnum;
 260              		.loc 1 127 0
 261 0044 FB68     		ldr	r3, [r7, #12]	@ D.5940, tnum
 128:core/lpc17xx_timer.c **** }
 262              		.loc 1 128 0
 263 0046 1846     		mov	r0, r3	@, <retval>
 264 0048 1437     		adds	r7, r7, #20	@,,
 265              		.cfi_def_cfa_offset 4
 266 004a BD46     		mov	sp, r7	@,
 267              		.cfi_def_cfa_register 13
 268              		@ sp needed	@
 269 004c 5DF8047B 		ldr	r7, [sp], #4	@,
 270              		.cfi_restore 7
 271              		.cfi_def_cfa_offset 0
ARM GAS  C:\Users\COSMIN~1.MAR\AppData\Local\Temp\cccNbcra.s 			page 8


 272 0050 7047     		bx	lr	@
 273              	.L20:
 274 0052 00BF     		.align	2
 275              	.L19:
 276 0054 00800040 		.word	1073774592
 277 0058 00000940 		.word	1074331648
 278 005c 00400940 		.word	1074348032
 279              		.cfi_endproc
 280              	.LFE57:
 281              		.size	TIM_ConverPtrToTimeNum, .-TIM_ConverPtrToTimeNum
 282              		.section	.rodata
 283              		.align	2
 284              	.LC0:
 285 0000 636F7265 		.ascii	"core/lpc17xx_timer.c\000"
 285      2F6C7063 
 285      31377878 
 285      5F74696D 
 285      65722E63 
 286 0015 000000   		.section	.text.TIM_GetIntStatus,"ax",%progbits
 287              		.align	2
 288              		.global	TIM_GetIntStatus
 289              		.thumb
 290              		.thumb_func
 291              		.type	TIM_GetIntStatus, %function
 292              	TIM_GetIntStatus:
 293              	.LFB58:
 129:core/lpc17xx_timer.c **** 
 130:core/lpc17xx_timer.c **** /**
 131:core/lpc17xx_timer.c ****  * @}
 132:core/lpc17xx_timer.c ****  */
 133:core/lpc17xx_timer.c **** 
 134:core/lpc17xx_timer.c **** 
 135:core/lpc17xx_timer.c **** /* Public Functions ----------------------------------------------------------- */
 136:core/lpc17xx_timer.c **** /** @addtogroup TIM_Public_Functions
 137:core/lpc17xx_timer.c ****  * @{
 138:core/lpc17xx_timer.c ****  */
 139:core/lpc17xx_timer.c **** 
 140:core/lpc17xx_timer.c **** /*********************************************************************//**
 141:core/lpc17xx_timer.c ****  * @brief 		Get Interrupt Status
 142:core/lpc17xx_timer.c ****  * @param[in]	TIMx Timer selection, should be TIM0, TIM1, TIM2, TIM3
 143:core/lpc17xx_timer.c ****  * @param[in]	IntFlag
 144:core/lpc17xx_timer.c ****  * @return 		FlagStatus
 145:core/lpc17xx_timer.c ****  * 				- SET : interrupt
 146:core/lpc17xx_timer.c ****  * 				- RESET : no interrupt
 147:core/lpc17xx_timer.c ****  **********************************************************************/
 148:core/lpc17xx_timer.c **** FlagStatus TIM_GetIntStatus(LPC_TIM_TypeDef *TIMx, uint8_t IntFlag)
 149:core/lpc17xx_timer.c **** {
 294              		.loc 1 149 0
 295              		.cfi_startproc
 296              		@ args = 0, pretend = 0, frame = 16
 297              		@ frame_needed = 1, uses_anonymous_args = 0
 298 0000 80B5     		push	{r7, lr}	@
 299              		.cfi_def_cfa_offset 8
 300              		.cfi_offset 7, -8
 301              		.cfi_offset 14, -4
 302 0002 84B0     		sub	sp, sp, #16	@,,
 303              		.cfi_def_cfa_offset 24
ARM GAS  C:\Users\COSMIN~1.MAR\AppData\Local\Temp\cccNbcra.s 			page 9


 304 0004 00AF     		add	r7, sp, #0	@,,
 305              		.cfi_def_cfa_register 7
 306 0006 7860     		str	r0, [r7, #4]	@ TIMx, TIMx
 307 0008 0B46     		mov	r3, r1	@ tmp117, IntFlag
 308 000a FB70     		strb	r3, [r7, #3]	@ tmp118, IntFlag
 150:core/lpc17xx_timer.c **** 	CHECK_PARAM(PARAM_TIMx(TIMx));
 309              		.loc 1 150 0
 310 000c 7B68     		ldr	r3, [r7, #4]	@ tmp119, TIMx
 311 000e B3F1402F 		cmp	r3, #1073758208	@ tmp119,
 312 0012 0FD0     		beq	.L22	@,
 313              		.loc 1 150 0 is_stmt 0 discriminator 1
 314 0014 7B68     		ldr	r3, [r7, #4]	@ tmp120, TIMx
 315 0016 1C4A     		ldr	r2, .L26	@ tmp121,
 316 0018 9342     		cmp	r3, r2	@ tmp120, tmp121
 317 001a 0BD0     		beq	.L22	@,
 318              		.loc 1 150 0 discriminator 2
 319 001c 7B68     		ldr	r3, [r7, #4]	@ tmp122, TIMx
 320 001e 1B4A     		ldr	r2, .L26+4	@ tmp123,
 321 0020 9342     		cmp	r3, r2	@ tmp122, tmp123
 322 0022 07D0     		beq	.L22	@,
 323              		.loc 1 150 0 discriminator 3
 324 0024 7B68     		ldr	r3, [r7, #4]	@ tmp124, TIMx
 325 0026 1A4A     		ldr	r2, .L26+8	@ tmp125,
 326 0028 9342     		cmp	r3, r2	@ tmp124, tmp125
 327 002a 03D0     		beq	.L22	@,
 328              		.loc 1 150 0 discriminator 4
 329 002c 1948     		ldr	r0, .L26+12	@,
 330 002e 9621     		movs	r1, #150	@,
 331 0030 FFF7FEFF 		bl	check_failed	@
 332              	.L22:
 151:core/lpc17xx_timer.c **** 	CHECK_PARAM(PARAM_TIM_INT_TYPE(IntFlag));
 333              		.loc 1 151 0 is_stmt 1
 334 0034 FB78     		ldrb	r3, [r7, #3]	@ zero_extendqisi2	@ tmp126, IntFlag
 335 0036 002B     		cmp	r3, #0	@ tmp126,
 336 0038 12D0     		beq	.L23	@,
 337              		.loc 1 151 0 is_stmt 0 discriminator 1
 338 003a FB78     		ldrb	r3, [r7, #3]	@ zero_extendqisi2	@ tmp127, IntFlag
 339 003c 012B     		cmp	r3, #1	@ tmp127,
 340 003e 0FD0     		beq	.L23	@,
 341              		.loc 1 151 0 discriminator 2
 342 0040 FB78     		ldrb	r3, [r7, #3]	@ zero_extendqisi2	@ tmp128, IntFlag
 343 0042 022B     		cmp	r3, #2	@ tmp128,
 344 0044 0CD0     		beq	.L23	@,
 345              		.loc 1 151 0 discriminator 3
 346 0046 FB78     		ldrb	r3, [r7, #3]	@ zero_extendqisi2	@ tmp129, IntFlag
 347 0048 032B     		cmp	r3, #3	@ tmp129,
 348 004a 09D0     		beq	.L23	@,
 349              		.loc 1 151 0 discriminator 4
 350 004c FB78     		ldrb	r3, [r7, #3]	@ zero_extendqisi2	@ tmp130, IntFlag
 351 004e 042B     		cmp	r3, #4	@ tmp130,
 352 0050 06D0     		beq	.L23	@,
 353              		.loc 1 151 0 discriminator 5
 354 0052 FB78     		ldrb	r3, [r7, #3]	@ zero_extendqisi2	@ tmp131, IntFlag
 355 0054 052B     		cmp	r3, #5	@ tmp131,
 356 0056 03D0     		beq	.L23	@,
 357              		.loc 1 151 0 discriminator 6
 358 0058 0E48     		ldr	r0, .L26+12	@,
ARM GAS  C:\Users\COSMIN~1.MAR\AppData\Local\Temp\cccNbcra.s 			page 10


 359 005a 9721     		movs	r1, #151	@,
 360 005c FFF7FEFF 		bl	check_failed	@
 361              	.L23:
 152:core/lpc17xx_timer.c **** 	uint8_t temp = (TIMx->IR)& TIM_IR_CLR(IntFlag);
 362              		.loc 1 152 0 is_stmt 1
 363 0060 7B68     		ldr	r3, [r7, #4]	@ tmp132, TIMx
 364 0062 1B68     		ldr	r3, [r3]	@ D.5942, TIMx_2(D)->IR
 365 0064 DAB2     		uxtb	r2, r3	@ D.5943, D.5942
 366 0066 FB78     		ldrb	r3, [r7, #3]	@ zero_extendqisi2	@ D.5944, IntFlag
 367 0068 0121     		movs	r1, #1	@ tmp133,
 368 006a 01FA03F3 		lsl	r3, r1, r3	@ D.5944, tmp133, D.5944
 369 006e DBB2     		uxtb	r3, r3	@ D.5943, D.5944
 370 0070 1340     		ands	r3, r3, r2	@, tmp134, D.5943, D.5943
 371 0072 FB73     		strb	r3, [r7, #15]	@ tmp135, temp
 153:core/lpc17xx_timer.c **** 	if (temp)
 372              		.loc 1 153 0
 373 0074 FB7B     		ldrb	r3, [r7, #15]	@ zero_extendqisi2	@ tmp136, temp
 374 0076 002B     		cmp	r3, #0	@ tmp136,
 375 0078 01D0     		beq	.L24	@,
 154:core/lpc17xx_timer.c **** 		return SET;
 376              		.loc 1 154 0
 377 007a 0123     		movs	r3, #1	@ D.5941,
 378 007c 00E0     		b	.L25	@
 379              	.L24:
 155:core/lpc17xx_timer.c **** 
 156:core/lpc17xx_timer.c **** 	return RESET;
 380              		.loc 1 156 0
 381 007e 0023     		movs	r3, #0	@ D.5941,
 382              	.L25:
 157:core/lpc17xx_timer.c **** 
 158:core/lpc17xx_timer.c **** }
 383              		.loc 1 158 0
 384 0080 1846     		mov	r0, r3	@, <retval>
 385 0082 1037     		adds	r7, r7, #16	@,,
 386              		.cfi_def_cfa_offset 8
 387 0084 BD46     		mov	sp, r7	@,
 388              		.cfi_def_cfa_register 13
 389              		@ sp needed	@
 390 0086 80BD     		pop	{r7, pc}	@
 391              	.L27:
 392              		.align	2
 393              	.L26:
 394 0088 00800040 		.word	1073774592
 395 008c 00000940 		.word	1074331648
 396 0090 00400940 		.word	1074348032
 397 0094 00000000 		.word	.LC0
 398              		.cfi_endproc
 399              	.LFE58:
 400              		.size	TIM_GetIntStatus, .-TIM_GetIntStatus
 401              		.section	.text.TIM_GetIntCaptureStatus,"ax",%progbits
 402              		.align	2
 403              		.global	TIM_GetIntCaptureStatus
 404              		.thumb
 405              		.thumb_func
 406              		.type	TIM_GetIntCaptureStatus, %function
 407              	TIM_GetIntCaptureStatus:
 408              	.LFB59:
ARM GAS  C:\Users\COSMIN~1.MAR\AppData\Local\Temp\cccNbcra.s 			page 11


 159:core/lpc17xx_timer.c **** /*********************************************************************//**
 160:core/lpc17xx_timer.c ****  * @brief 		Get Capture Interrupt Status
 161:core/lpc17xx_timer.c ****  * @param[in]	TIMx Timer selection, should be TIM0, TIM1, TIM2, TIM3
 162:core/lpc17xx_timer.c ****  * @param[in]	IntFlag
 163:core/lpc17xx_timer.c ****  * @return 		FlagStatus
 164:core/lpc17xx_timer.c ****  * 				- SET : interrupt
 165:core/lpc17xx_timer.c ****  * 				- RESET : no interrupt
 166:core/lpc17xx_timer.c ****  **********************************************************************/
 167:core/lpc17xx_timer.c **** FlagStatus TIM_GetIntCaptureStatus(LPC_TIM_TypeDef *TIMx, uint8_t IntFlag)
 168:core/lpc17xx_timer.c **** {
 409              		.loc 1 168 0
 410              		.cfi_startproc
 411              		@ args = 0, pretend = 0, frame = 16
 412              		@ frame_needed = 1, uses_anonymous_args = 0
 413 0000 80B5     		push	{r7, lr}	@
 414              		.cfi_def_cfa_offset 8
 415              		.cfi_offset 7, -8
 416              		.cfi_offset 14, -4
 417 0002 84B0     		sub	sp, sp, #16	@,,
 418              		.cfi_def_cfa_offset 24
 419 0004 00AF     		add	r7, sp, #0	@,,
 420              		.cfi_def_cfa_register 7
 421 0006 7860     		str	r0, [r7, #4]	@ TIMx, TIMx
 422 0008 0B46     		mov	r3, r1	@ tmp118, IntFlag
 423 000a FB70     		strb	r3, [r7, #3]	@ tmp119, IntFlag
 169:core/lpc17xx_timer.c **** 	CHECK_PARAM(PARAM_TIMx(TIMx));
 424              		.loc 1 169 0
 425 000c 7B68     		ldr	r3, [r7, #4]	@ tmp120, TIMx
 426 000e B3F1402F 		cmp	r3, #1073758208	@ tmp120,
 427 0012 0FD0     		beq	.L29	@,
 428              		.loc 1 169 0 is_stmt 0 discriminator 1
 429 0014 7B68     		ldr	r3, [r7, #4]	@ tmp121, TIMx
 430 0016 1D4A     		ldr	r2, .L33	@ tmp122,
 431 0018 9342     		cmp	r3, r2	@ tmp121, tmp122
 432 001a 0BD0     		beq	.L29	@,
 433              		.loc 1 169 0 discriminator 2
 434 001c 7B68     		ldr	r3, [r7, #4]	@ tmp123, TIMx
 435 001e 1C4A     		ldr	r2, .L33+4	@ tmp124,
 436 0020 9342     		cmp	r3, r2	@ tmp123, tmp124
 437 0022 07D0     		beq	.L29	@,
 438              		.loc 1 169 0 discriminator 3
 439 0024 7B68     		ldr	r3, [r7, #4]	@ tmp125, TIMx
 440 0026 1B4A     		ldr	r2, .L33+8	@ tmp126,
 441 0028 9342     		cmp	r3, r2	@ tmp125, tmp126
 442 002a 03D0     		beq	.L29	@,
 443              		.loc 1 169 0 discriminator 4
 444 002c 1A48     		ldr	r0, .L33+12	@,
 445 002e A921     		movs	r1, #169	@,
 446 0030 FFF7FEFF 		bl	check_failed	@
 447              	.L29:
 170:core/lpc17xx_timer.c **** 	CHECK_PARAM(PARAM_TIM_INT_TYPE(IntFlag));
 448              		.loc 1 170 0 is_stmt 1
 449 0034 FB78     		ldrb	r3, [r7, #3]	@ zero_extendqisi2	@ tmp127, IntFlag
 450 0036 002B     		cmp	r3, #0	@ tmp127,
 451 0038 12D0     		beq	.L30	@,
 452              		.loc 1 170 0 is_stmt 0 discriminator 1
 453 003a FB78     		ldrb	r3, [r7, #3]	@ zero_extendqisi2	@ tmp128, IntFlag
ARM GAS  C:\Users\COSMIN~1.MAR\AppData\Local\Temp\cccNbcra.s 			page 12


 454 003c 012B     		cmp	r3, #1	@ tmp128,
 455 003e 0FD0     		beq	.L30	@,
 456              		.loc 1 170 0 discriminator 2
 457 0040 FB78     		ldrb	r3, [r7, #3]	@ zero_extendqisi2	@ tmp129, IntFlag
 458 0042 022B     		cmp	r3, #2	@ tmp129,
 459 0044 0CD0     		beq	.L30	@,
 460              		.loc 1 170 0 discriminator 3
 461 0046 FB78     		ldrb	r3, [r7, #3]	@ zero_extendqisi2	@ tmp130, IntFlag
 462 0048 032B     		cmp	r3, #3	@ tmp130,
 463 004a 09D0     		beq	.L30	@,
 464              		.loc 1 170 0 discriminator 4
 465 004c FB78     		ldrb	r3, [r7, #3]	@ zero_extendqisi2	@ tmp131, IntFlag
 466 004e 042B     		cmp	r3, #4	@ tmp131,
 467 0050 06D0     		beq	.L30	@,
 468              		.loc 1 170 0 discriminator 5
 469 0052 FB78     		ldrb	r3, [r7, #3]	@ zero_extendqisi2	@ tmp132, IntFlag
 470 0054 052B     		cmp	r3, #5	@ tmp132,
 471 0056 03D0     		beq	.L30	@,
 472              		.loc 1 170 0 discriminator 6
 473 0058 0F48     		ldr	r0, .L33+12	@,
 474 005a AA21     		movs	r1, #170	@,
 475 005c FFF7FEFF 		bl	check_failed	@
 476              	.L30:
 171:core/lpc17xx_timer.c **** 	uint8_t temp = (TIMx->IR) & (1<<(4+IntFlag));
 477              		.loc 1 171 0 is_stmt 1
 478 0060 7B68     		ldr	r3, [r7, #4]	@ tmp133, TIMx
 479 0062 1B68     		ldr	r3, [r3]	@ D.5947, TIMx_2(D)->IR
 480 0064 DAB2     		uxtb	r2, r3	@ D.5948, D.5947
 481 0066 FB78     		ldrb	r3, [r7, #3]	@ zero_extendqisi2	@ D.5949, IntFlag
 482 0068 0433     		adds	r3, r3, #4	@ D.5949, D.5949,
 483 006a 0121     		movs	r1, #1	@ tmp134,
 484 006c 01FA03F3 		lsl	r3, r1, r3	@ D.5949, tmp134, D.5949
 485 0070 DBB2     		uxtb	r3, r3	@ D.5948, D.5949
 486 0072 1340     		ands	r3, r3, r2	@, tmp135, D.5948, D.5948
 487 0074 FB73     		strb	r3, [r7, #15]	@ tmp136, temp
 172:core/lpc17xx_timer.c **** 	if(temp)
 488              		.loc 1 172 0
 489 0076 FB7B     		ldrb	r3, [r7, #15]	@ zero_extendqisi2	@ tmp137, temp
 490 0078 002B     		cmp	r3, #0	@ tmp137,
 491 007a 01D0     		beq	.L31	@,
 173:core/lpc17xx_timer.c **** 		return SET;
 492              		.loc 1 173 0
 493 007c 0123     		movs	r3, #1	@ D.5946,
 494 007e 00E0     		b	.L32	@
 495              	.L31:
 174:core/lpc17xx_timer.c **** 	return RESET;
 496              		.loc 1 174 0
 497 0080 0023     		movs	r3, #0	@ D.5946,
 498              	.L32:
 175:core/lpc17xx_timer.c **** }
 499              		.loc 1 175 0
 500 0082 1846     		mov	r0, r3	@, <retval>
 501 0084 1037     		adds	r7, r7, #16	@,,
 502              		.cfi_def_cfa_offset 8
 503 0086 BD46     		mov	sp, r7	@,
 504              		.cfi_def_cfa_register 13
 505              		@ sp needed	@
ARM GAS  C:\Users\COSMIN~1.MAR\AppData\Local\Temp\cccNbcra.s 			page 13


 506 0088 80BD     		pop	{r7, pc}	@
 507              	.L34:
 508 008a 00BF     		.align	2
 509              	.L33:
 510 008c 00800040 		.word	1073774592
 511 0090 00000940 		.word	1074331648
 512 0094 00400940 		.word	1074348032
 513 0098 00000000 		.word	.LC0
 514              		.cfi_endproc
 515              	.LFE59:
 516              		.size	TIM_GetIntCaptureStatus, .-TIM_GetIntCaptureStatus
 517              		.section	.text.TIM_ClearIntPending,"ax",%progbits
 518              		.align	2
 519              		.global	TIM_ClearIntPending
 520              		.thumb
 521              		.thumb_func
 522              		.type	TIM_ClearIntPending, %function
 523              	TIM_ClearIntPending:
 524              	.LFB60:
 176:core/lpc17xx_timer.c **** /*********************************************************************//**
 177:core/lpc17xx_timer.c ****  * @brief 		Clear Interrupt pending
 178:core/lpc17xx_timer.c ****  * @param[in]	TIMx Timer selection, should be TIM0, TIM1, TIM2, TIM3
 179:core/lpc17xx_timer.c ****  * @param[in]	IntFlag should be in TIM_INT_TYPE enum
 180:core/lpc17xx_timer.c ****  * @return 		None
 181:core/lpc17xx_timer.c ****  **********************************************************************/
 182:core/lpc17xx_timer.c **** void TIM_ClearIntPending(LPC_TIM_TypeDef *TIMx, uint8_t IntFlag)
 183:core/lpc17xx_timer.c **** {
 525              		.loc 1 183 0
 526              		.cfi_startproc
 527              		@ args = 0, pretend = 0, frame = 8
 528              		@ frame_needed = 1, uses_anonymous_args = 0
 529 0000 80B5     		push	{r7, lr}	@
 530              		.cfi_def_cfa_offset 8
 531              		.cfi_offset 7, -8
 532              		.cfi_offset 14, -4
 533 0002 82B0     		sub	sp, sp, #8	@,,
 534              		.cfi_def_cfa_offset 16
 535 0004 00AF     		add	r7, sp, #0	@,,
 536              		.cfi_def_cfa_register 7
 537 0006 7860     		str	r0, [r7, #4]	@ TIMx, TIMx
 538 0008 0B46     		mov	r3, r1	@ tmp115, IntFlag
 539 000a FB70     		strb	r3, [r7, #3]	@ tmp116, IntFlag
 184:core/lpc17xx_timer.c **** 	CHECK_PARAM(PARAM_TIMx(TIMx));
 540              		.loc 1 184 0
 541 000c 7B68     		ldr	r3, [r7, #4]	@ tmp117, TIMx
 542 000e B3F1402F 		cmp	r3, #1073758208	@ tmp117,
 543 0012 0FD0     		beq	.L36	@,
 544              		.loc 1 184 0 is_stmt 0 discriminator 1
 545 0014 7B68     		ldr	r3, [r7, #4]	@ tmp118, TIMx
 546 0016 184A     		ldr	r2, .L38	@ tmp119,
 547 0018 9342     		cmp	r3, r2	@ tmp118, tmp119
 548 001a 0BD0     		beq	.L36	@,
 549              		.loc 1 184 0 discriminator 2
 550 001c 7B68     		ldr	r3, [r7, #4]	@ tmp120, TIMx
 551 001e 174A     		ldr	r2, .L38+4	@ tmp121,
 552 0020 9342     		cmp	r3, r2	@ tmp120, tmp121
 553 0022 07D0     		beq	.L36	@,
ARM GAS  C:\Users\COSMIN~1.MAR\AppData\Local\Temp\cccNbcra.s 			page 14


 554              		.loc 1 184 0 discriminator 3
 555 0024 7B68     		ldr	r3, [r7, #4]	@ tmp122, TIMx
 556 0026 164A     		ldr	r2, .L38+8	@ tmp123,
 557 0028 9342     		cmp	r3, r2	@ tmp122, tmp123
 558 002a 03D0     		beq	.L36	@,
 559              		.loc 1 184 0 discriminator 4
 560 002c 1548     		ldr	r0, .L38+12	@,
 561 002e B821     		movs	r1, #184	@,
 562 0030 FFF7FEFF 		bl	check_failed	@
 563              	.L36:
 185:core/lpc17xx_timer.c **** 	CHECK_PARAM(PARAM_TIM_INT_TYPE(IntFlag));
 564              		.loc 1 185 0 is_stmt 1
 565 0034 FB78     		ldrb	r3, [r7, #3]	@ zero_extendqisi2	@ tmp124, IntFlag
 566 0036 002B     		cmp	r3, #0	@ tmp124,
 567 0038 12D0     		beq	.L37	@,
 568              		.loc 1 185 0 is_stmt 0 discriminator 1
 569 003a FB78     		ldrb	r3, [r7, #3]	@ zero_extendqisi2	@ tmp125, IntFlag
 570 003c 012B     		cmp	r3, #1	@ tmp125,
 571 003e 0FD0     		beq	.L37	@,
 572              		.loc 1 185 0 discriminator 2
 573 0040 FB78     		ldrb	r3, [r7, #3]	@ zero_extendqisi2	@ tmp126, IntFlag
 574 0042 022B     		cmp	r3, #2	@ tmp126,
 575 0044 0CD0     		beq	.L37	@,
 576              		.loc 1 185 0 discriminator 3
 577 0046 FB78     		ldrb	r3, [r7, #3]	@ zero_extendqisi2	@ tmp127, IntFlag
 578 0048 032B     		cmp	r3, #3	@ tmp127,
 579 004a 09D0     		beq	.L37	@,
 580              		.loc 1 185 0 discriminator 4
 581 004c FB78     		ldrb	r3, [r7, #3]	@ zero_extendqisi2	@ tmp128, IntFlag
 582 004e 042B     		cmp	r3, #4	@ tmp128,
 583 0050 06D0     		beq	.L37	@,
 584              		.loc 1 185 0 discriminator 5
 585 0052 FB78     		ldrb	r3, [r7, #3]	@ zero_extendqisi2	@ tmp129, IntFlag
 586 0054 052B     		cmp	r3, #5	@ tmp129,
 587 0056 03D0     		beq	.L37	@,
 588              		.loc 1 185 0 discriminator 6
 589 0058 0A48     		ldr	r0, .L38+12	@,
 590 005a B921     		movs	r1, #185	@,
 591 005c FFF7FEFF 		bl	check_failed	@
 592              	.L37:
 186:core/lpc17xx_timer.c **** 	TIMx->IR |= TIM_IR_CLR(IntFlag);
 593              		.loc 1 186 0 is_stmt 1
 594 0060 7B68     		ldr	r3, [r7, #4]	@ tmp130, TIMx
 595 0062 1B68     		ldr	r3, [r3]	@ D.5950, TIMx_1(D)->IR
 596 0064 FA78     		ldrb	r2, [r7, #3]	@ zero_extendqisi2	@ D.5951, IntFlag
 597 0066 0121     		movs	r1, #1	@ tmp131,
 598 0068 01FA02F2 		lsl	r2, r1, r2	@ D.5951, tmp131, D.5951
 599 006c 1A43     		orrs	r2, r2, r3	@, D.5950, D.5950, D.5950
 600 006e 7B68     		ldr	r3, [r7, #4]	@ tmp132, TIMx
 601 0070 1A60     		str	r2, [r3]	@ D.5950, TIMx_1(D)->IR
 187:core/lpc17xx_timer.c **** }
 602              		.loc 1 187 0
 603 0072 0837     		adds	r7, r7, #8	@,,
 604              		.cfi_def_cfa_offset 8
 605 0074 BD46     		mov	sp, r7	@,
 606              		.cfi_def_cfa_register 13
 607              		@ sp needed	@
ARM GAS  C:\Users\COSMIN~1.MAR\AppData\Local\Temp\cccNbcra.s 			page 15


 608 0076 80BD     		pop	{r7, pc}	@
 609              	.L39:
 610              		.align	2
 611              	.L38:
 612 0078 00800040 		.word	1073774592
 613 007c 00000940 		.word	1074331648
 614 0080 00400940 		.word	1074348032
 615 0084 00000000 		.word	.LC0
 616              		.cfi_endproc
 617              	.LFE60:
 618              		.size	TIM_ClearIntPending, .-TIM_ClearIntPending
 619              		.section	.text.TIM_ClearIntCapturePending,"ax",%progbits
 620              		.align	2
 621              		.global	TIM_ClearIntCapturePending
 622              		.thumb
 623              		.thumb_func
 624              		.type	TIM_ClearIntCapturePending, %function
 625              	TIM_ClearIntCapturePending:
 626              	.LFB61:
 188:core/lpc17xx_timer.c **** 
 189:core/lpc17xx_timer.c **** /*********************************************************************//**
 190:core/lpc17xx_timer.c ****  * @brief 		Clear Capture Interrupt pending
 191:core/lpc17xx_timer.c ****  * @param[in]	TIMx Timer selection, should be TIM0, TIM1, TIM2, TIM3
 192:core/lpc17xx_timer.c ****  * @param[in]	IntFlag should be in TIM_INT_TYPE enum
 193:core/lpc17xx_timer.c ****  * @return 		None
 194:core/lpc17xx_timer.c ****  **********************************************************************/
 195:core/lpc17xx_timer.c **** void TIM_ClearIntCapturePending(LPC_TIM_TypeDef *TIMx, uint8_t IntFlag)
 196:core/lpc17xx_timer.c **** {
 627              		.loc 1 196 0
 628              		.cfi_startproc
 629              		@ args = 0, pretend = 0, frame = 8
 630              		@ frame_needed = 1, uses_anonymous_args = 0
 631 0000 80B5     		push	{r7, lr}	@
 632              		.cfi_def_cfa_offset 8
 633              		.cfi_offset 7, -8
 634              		.cfi_offset 14, -4
 635 0002 82B0     		sub	sp, sp, #8	@,,
 636              		.cfi_def_cfa_offset 16
 637 0004 00AF     		add	r7, sp, #0	@,,
 638              		.cfi_def_cfa_register 7
 639 0006 7860     		str	r0, [r7, #4]	@ TIMx, TIMx
 640 0008 0B46     		mov	r3, r1	@ tmp116, IntFlag
 641 000a FB70     		strb	r3, [r7, #3]	@ tmp117, IntFlag
 197:core/lpc17xx_timer.c **** 	CHECK_PARAM(PARAM_TIMx(TIMx));
 642              		.loc 1 197 0
 643 000c 7B68     		ldr	r3, [r7, #4]	@ tmp118, TIMx
 644 000e B3F1402F 		cmp	r3, #1073758208	@ tmp118,
 645 0012 0FD0     		beq	.L41	@,
 646              		.loc 1 197 0 is_stmt 0 discriminator 1
 647 0014 7B68     		ldr	r3, [r7, #4]	@ tmp119, TIMx
 648 0016 194A     		ldr	r2, .L43	@ tmp120,
 649 0018 9342     		cmp	r3, r2	@ tmp119, tmp120
 650 001a 0BD0     		beq	.L41	@,
 651              		.loc 1 197 0 discriminator 2
 652 001c 7B68     		ldr	r3, [r7, #4]	@ tmp121, TIMx
 653 001e 184A     		ldr	r2, .L43+4	@ tmp122,
 654 0020 9342     		cmp	r3, r2	@ tmp121, tmp122
ARM GAS  C:\Users\COSMIN~1.MAR\AppData\Local\Temp\cccNbcra.s 			page 16


 655 0022 07D0     		beq	.L41	@,
 656              		.loc 1 197 0 discriminator 3
 657 0024 7B68     		ldr	r3, [r7, #4]	@ tmp123, TIMx
 658 0026 174A     		ldr	r2, .L43+8	@ tmp124,
 659 0028 9342     		cmp	r3, r2	@ tmp123, tmp124
 660 002a 03D0     		beq	.L41	@,
 661              		.loc 1 197 0 discriminator 4
 662 002c 1648     		ldr	r0, .L43+12	@,
 663 002e C521     		movs	r1, #197	@,
 664 0030 FFF7FEFF 		bl	check_failed	@
 665              	.L41:
 198:core/lpc17xx_timer.c **** 	CHECK_PARAM(PARAM_TIM_INT_TYPE(IntFlag));
 666              		.loc 1 198 0 is_stmt 1
 667 0034 FB78     		ldrb	r3, [r7, #3]	@ zero_extendqisi2	@ tmp125, IntFlag
 668 0036 002B     		cmp	r3, #0	@ tmp125,
 669 0038 12D0     		beq	.L42	@,
 670              		.loc 1 198 0 is_stmt 0 discriminator 1
 671 003a FB78     		ldrb	r3, [r7, #3]	@ zero_extendqisi2	@ tmp126, IntFlag
 672 003c 012B     		cmp	r3, #1	@ tmp126,
 673 003e 0FD0     		beq	.L42	@,
 674              		.loc 1 198 0 discriminator 2
 675 0040 FB78     		ldrb	r3, [r7, #3]	@ zero_extendqisi2	@ tmp127, IntFlag
 676 0042 022B     		cmp	r3, #2	@ tmp127,
 677 0044 0CD0     		beq	.L42	@,
 678              		.loc 1 198 0 discriminator 3
 679 0046 FB78     		ldrb	r3, [r7, #3]	@ zero_extendqisi2	@ tmp128, IntFlag
 680 0048 032B     		cmp	r3, #3	@ tmp128,
 681 004a 09D0     		beq	.L42	@,
 682              		.loc 1 198 0 discriminator 4
 683 004c FB78     		ldrb	r3, [r7, #3]	@ zero_extendqisi2	@ tmp129, IntFlag
 684 004e 042B     		cmp	r3, #4	@ tmp129,
 685 0050 06D0     		beq	.L42	@,
 686              		.loc 1 198 0 discriminator 5
 687 0052 FB78     		ldrb	r3, [r7, #3]	@ zero_extendqisi2	@ tmp130, IntFlag
 688 0054 052B     		cmp	r3, #5	@ tmp130,
 689 0056 03D0     		beq	.L42	@,
 690              		.loc 1 198 0 discriminator 6
 691 0058 0B48     		ldr	r0, .L43+12	@,
 692 005a C621     		movs	r1, #198	@,
 693 005c FFF7FEFF 		bl	check_failed	@
 694              	.L42:
 199:core/lpc17xx_timer.c **** 	TIMx->IR |= (1<<(4+IntFlag));
 695              		.loc 1 199 0 is_stmt 1
 696 0060 7B68     		ldr	r3, [r7, #4]	@ tmp131, TIMx
 697 0062 1B68     		ldr	r3, [r3]	@ D.5952, TIMx_1(D)->IR
 698 0064 FA78     		ldrb	r2, [r7, #3]	@ zero_extendqisi2	@ D.5953, IntFlag
 699 0066 0432     		adds	r2, r2, #4	@ D.5953, D.5953,
 700 0068 0121     		movs	r1, #1	@ tmp132,
 701 006a 01FA02F2 		lsl	r2, r1, r2	@ D.5953, tmp132, D.5953
 702 006e 1A43     		orrs	r2, r2, r3	@, D.5952, D.5952, D.5952
 703 0070 7B68     		ldr	r3, [r7, #4]	@ tmp133, TIMx
 704 0072 1A60     		str	r2, [r3]	@ D.5952, TIMx_1(D)->IR
 200:core/lpc17xx_timer.c **** }
 705              		.loc 1 200 0
 706 0074 0837     		adds	r7, r7, #8	@,,
 707              		.cfi_def_cfa_offset 8
 708 0076 BD46     		mov	sp, r7	@,
ARM GAS  C:\Users\COSMIN~1.MAR\AppData\Local\Temp\cccNbcra.s 			page 17


 709              		.cfi_def_cfa_register 13
 710              		@ sp needed	@
 711 0078 80BD     		pop	{r7, pc}	@
 712              	.L44:
 713 007a 00BF     		.align	2
 714              	.L43:
 715 007c 00800040 		.word	1073774592
 716 0080 00000940 		.word	1074331648
 717 0084 00400940 		.word	1074348032
 718 0088 00000000 		.word	.LC0
 719              		.cfi_endproc
 720              	.LFE61:
 721              		.size	TIM_ClearIntCapturePending, .-TIM_ClearIntCapturePending
 722              		.section	.text.TIM_ConfigStructInit,"ax",%progbits
 723              		.align	2
 724              		.global	TIM_ConfigStructInit
 725              		.thumb
 726              		.thumb_func
 727              		.type	TIM_ConfigStructInit, %function
 728              	TIM_ConfigStructInit:
 729              	.LFB62:
 201:core/lpc17xx_timer.c **** 
 202:core/lpc17xx_timer.c **** /*********************************************************************//**
 203:core/lpc17xx_timer.c **** * @brief 		Configuration for Timer at initial time
 204:core/lpc17xx_timer.c **** * @param[in] 	TimerCounterMode Should be :
 205:core/lpc17xx_timer.c **** * 					- PrescaleOption = TC_PRESCALE_USVAL,
 206:core/lpc17xx_timer.c **** * 					- PrescaleValue = 1
 207:core/lpc17xx_timer.c **** * 				Counter mode with
 208:core/lpc17xx_timer.c **** * 					- Caption channel 0
 209:core/lpc17xx_timer.c **** * @param[in] 	TIM_ConfigStruct pointer to TIM_TIMERCFG_Type or
 210:core/lpc17xx_timer.c **** * 				TIM_COUNTERCFG_Type
 211:core/lpc17xx_timer.c **** * @return 		None
 212:core/lpc17xx_timer.c ****  **********************************************************************/
 213:core/lpc17xx_timer.c **** void TIM_ConfigStructInit(uint8_t TimerCounterMode, void *TIM_ConfigStruct)
 214:core/lpc17xx_timer.c **** {
 730              		.loc 1 214 0
 731              		.cfi_startproc
 732              		@ args = 0, pretend = 0, frame = 16
 733              		@ frame_needed = 1, uses_anonymous_args = 0
 734              		@ link register save eliminated.
 735 0000 80B4     		push	{r7}	@
 736              		.cfi_def_cfa_offset 4
 737              		.cfi_offset 7, -4
 738 0002 85B0     		sub	sp, sp, #20	@,,
 739              		.cfi_def_cfa_offset 24
 740 0004 00AF     		add	r7, sp, #0	@,,
 741              		.cfi_def_cfa_register 7
 742 0006 0346     		mov	r3, r0	@ tmp110, TimerCounterMode
 743 0008 3960     		str	r1, [r7]	@ TIM_ConfigStruct, TIM_ConfigStruct
 744 000a FB71     		strb	r3, [r7, #7]	@ tmp111, TimerCounterMode
 215:core/lpc17xx_timer.c **** 	if (TimerCounterMode == TIM_TIMER_MODE )
 745              		.loc 1 215 0
 746 000c FB79     		ldrb	r3, [r7, #7]	@ zero_extendqisi2	@ tmp112, TimerCounterMode
 747 000e 002B     		cmp	r3, #0	@ tmp112,
 748 0010 08D1     		bne	.L46	@,
 749              	.LBB2:
 216:core/lpc17xx_timer.c **** 	{
ARM GAS  C:\Users\COSMIN~1.MAR\AppData\Local\Temp\cccNbcra.s 			page 18


 217:core/lpc17xx_timer.c **** 		TIM_TIMERCFG_Type * pTimeCfg = (TIM_TIMERCFG_Type *)TIM_ConfigStruct;
 750              		.loc 1 217 0
 751 0012 3B68     		ldr	r3, [r7]	@ tmp113, TIM_ConfigStruct
 752 0014 FB60     		str	r3, [r7, #12]	@ tmp113, pTimeCfg
 218:core/lpc17xx_timer.c **** 		pTimeCfg->PrescaleOption = TIM_PRESCALE_USVAL;
 753              		.loc 1 218 0
 754 0016 FB68     		ldr	r3, [r7, #12]	@ tmp114, pTimeCfg
 755 0018 0122     		movs	r2, #1	@ tmp115,
 756 001a 1A70     		strb	r2, [r3]	@ tmp116, pTimeCfg_3->PrescaleOption
 219:core/lpc17xx_timer.c **** 		pTimeCfg->PrescaleValue = 1;
 757              		.loc 1 219 0
 758 001c FB68     		ldr	r3, [r7, #12]	@ tmp117, pTimeCfg
 759 001e 0122     		movs	r2, #1	@ tmp118,
 760 0020 5A60     		str	r2, [r3, #4]	@ tmp118, pTimeCfg_3->PrescaleValue
 761              	.LBE2:
 762 0022 04E0     		b	.L45	@
 763              	.L46:
 764              	.LBB3:
 220:core/lpc17xx_timer.c **** 	}
 221:core/lpc17xx_timer.c **** 	else
 222:core/lpc17xx_timer.c **** 	{
 223:core/lpc17xx_timer.c **** 		TIM_COUNTERCFG_Type * pCounterCfg = (TIM_COUNTERCFG_Type *)TIM_ConfigStruct;
 765              		.loc 1 223 0
 766 0024 3B68     		ldr	r3, [r7]	@ tmp119, TIM_ConfigStruct
 767 0026 BB60     		str	r3, [r7, #8]	@ tmp119, pCounterCfg
 224:core/lpc17xx_timer.c **** 		pCounterCfg->CountInputSelect = TIM_COUNTER_INCAP0;
 768              		.loc 1 224 0
 769 0028 BB68     		ldr	r3, [r7, #8]	@ tmp120, pCounterCfg
 770 002a 0022     		movs	r2, #0	@ tmp121,
 771 002c 5A70     		strb	r2, [r3, #1]	@ tmp122, pCounterCfg_4->CountInputSelect
 772              	.L45:
 773              	.LBE3:
 225:core/lpc17xx_timer.c **** 
 226:core/lpc17xx_timer.c **** 	}
 227:core/lpc17xx_timer.c **** }
 774              		.loc 1 227 0
 775 002e 1437     		adds	r7, r7, #20	@,,
 776              		.cfi_def_cfa_offset 4
 777 0030 BD46     		mov	sp, r7	@,
 778              		.cfi_def_cfa_register 13
 779              		@ sp needed	@
 780 0032 5DF8047B 		ldr	r7, [sp], #4	@,
 781              		.cfi_restore 7
 782              		.cfi_def_cfa_offset 0
 783 0036 7047     		bx	lr	@
 784              		.cfi_endproc
 785              	.LFE62:
 786              		.size	TIM_ConfigStructInit, .-TIM_ConfigStructInit
 787              		.section	.text.TIM_Init,"ax",%progbits
 788              		.align	2
 789              		.global	TIM_Init
 790              		.thumb
 791              		.thumb_func
 792              		.type	TIM_Init, %function
 793              	TIM_Init:
 794              	.LFB63:
 228:core/lpc17xx_timer.c **** 
ARM GAS  C:\Users\COSMIN~1.MAR\AppData\Local\Temp\cccNbcra.s 			page 19


 229:core/lpc17xx_timer.c **** /*********************************************************************//**
 230:core/lpc17xx_timer.c ****  * @brief 		Initial Timer/Counter device
 231:core/lpc17xx_timer.c ****  * 				 	Set Clock frequency for Timer
 232:core/lpc17xx_timer.c ****  * 					Set initial configuration for Timer
 233:core/lpc17xx_timer.c ****  * @param[in]	TIMx  Timer selection, should be TIM0, TIM1, TIM2, TIM3
 234:core/lpc17xx_timer.c ****  * @param[in]	TimerCounterMode TIM_MODE_OPT
 235:core/lpc17xx_timer.c ****  * @param[in]	TIM_ConfigStruct pointer to TIM_TIMERCFG_Type
 236:core/lpc17xx_timer.c ****  * 				that contains the configuration information for the
 237:core/lpc17xx_timer.c ****  *                    specified Timer peripheral.
 238:core/lpc17xx_timer.c ****  * @return 		None
 239:core/lpc17xx_timer.c ****  **********************************************************************/
 240:core/lpc17xx_timer.c **** void TIM_Init(LPC_TIM_TypeDef *TIMx, uint8_t TimerCounterMode, void *TIM_ConfigStruct)
 241:core/lpc17xx_timer.c **** {
 795              		.loc 1 241 0
 796              		.cfi_startproc
 797              		@ args = 0, pretend = 0, frame = 32
 798              		@ frame_needed = 1, uses_anonymous_args = 0
 799 0000 80B5     		push	{r7, lr}	@
 800              		.cfi_def_cfa_offset 8
 801              		.cfi_offset 7, -8
 802              		.cfi_offset 14, -4
 803 0002 88B0     		sub	sp, sp, #32	@,,
 804              		.cfi_def_cfa_offset 40
 805 0004 00AF     		add	r7, sp, #0	@,,
 806              		.cfi_def_cfa_register 7
 807 0006 F860     		str	r0, [r7, #12]	@ TIMx, TIMx
 808 0008 0B46     		mov	r3, r1	@ tmp125, TimerCounterMode
 809 000a 7A60     		str	r2, [r7, #4]	@ TIM_ConfigStruct, TIM_ConfigStruct
 810 000c FB72     		strb	r3, [r7, #11]	@ tmp126, TimerCounterMode
 242:core/lpc17xx_timer.c **** 	TIM_TIMERCFG_Type *pTimeCfg;
 243:core/lpc17xx_timer.c **** 	TIM_COUNTERCFG_Type *pCounterCfg;
 244:core/lpc17xx_timer.c **** 	uint32_t timer;
 245:core/lpc17xx_timer.c **** 
 246:core/lpc17xx_timer.c **** 	CHECK_PARAM(PARAM_TIMx(TIMx));
 811              		.loc 1 246 0
 812 000e FB68     		ldr	r3, [r7, #12]	@ tmp127, TIMx
 813 0010 B3F1402F 		cmp	r3, #1073758208	@ tmp127,
 814 0014 0FD0     		beq	.L49	@,
 815              		.loc 1 246 0 is_stmt 0 discriminator 1
 816 0016 FB68     		ldr	r3, [r7, #12]	@ tmp128, TIMx
 817 0018 504A     		ldr	r2, .L59	@ tmp129,
 818 001a 9342     		cmp	r3, r2	@ tmp128, tmp129
 819 001c 0BD0     		beq	.L49	@,
 820              		.loc 1 246 0 discriminator 2
 821 001e FB68     		ldr	r3, [r7, #12]	@ tmp130, TIMx
 822 0020 4F4A     		ldr	r2, .L59+4	@ tmp131,
 823 0022 9342     		cmp	r3, r2	@ tmp130, tmp131
 824 0024 07D0     		beq	.L49	@,
 825              		.loc 1 246 0 discriminator 3
 826 0026 FB68     		ldr	r3, [r7, #12]	@ tmp132, TIMx
 827 0028 4E4A     		ldr	r2, .L59+8	@ tmp133,
 828 002a 9342     		cmp	r3, r2	@ tmp132, tmp133
 829 002c 03D0     		beq	.L49	@,
 830              		.loc 1 246 0 discriminator 4
 831 002e 4E48     		ldr	r0, .L59+12	@,
 832 0030 F621     		movs	r1, #246	@,
 833 0032 FFF7FEFF 		bl	check_failed	@
ARM GAS  C:\Users\COSMIN~1.MAR\AppData\Local\Temp\cccNbcra.s 			page 20


 834              	.L49:
 247:core/lpc17xx_timer.c **** 	CHECK_PARAM(PARAM_TIM_MODE_OPT(TimerCounterMode));
 835              		.loc 1 247 0 is_stmt 1
 836 0036 FB7A     		ldrb	r3, [r7, #11]	@ zero_extendqisi2	@ tmp134, TimerCounterMode
 837 0038 002B     		cmp	r3, #0	@ tmp134,
 838 003a 0CD0     		beq	.L50	@,
 839              		.loc 1 247 0 is_stmt 0 discriminator 1
 840 003c FB7A     		ldrb	r3, [r7, #11]	@ zero_extendqisi2	@ tmp135, TimerCounterMode
 841 003e 012B     		cmp	r3, #1	@ tmp135,
 842 0040 09D0     		beq	.L50	@,
 843              		.loc 1 247 0 discriminator 2
 844 0042 FB7A     		ldrb	r3, [r7, #11]	@ zero_extendqisi2	@ tmp136, TimerCounterMode
 845 0044 012B     		cmp	r3, #1	@ tmp136,
 846 0046 06D0     		beq	.L50	@,
 847              		.loc 1 247 0 discriminator 3
 848 0048 FB7A     		ldrb	r3, [r7, #11]	@ zero_extendqisi2	@ tmp137, TimerCounterMode
 849 004a 012B     		cmp	r3, #1	@ tmp137,
 850 004c 03D0     		beq	.L50	@,
 851              		.loc 1 247 0 discriminator 4
 852 004e 4648     		ldr	r0, .L59+12	@,
 853 0050 F721     		movs	r1, #247	@,
 854 0052 FFF7FEFF 		bl	check_failed	@
 855              	.L50:
 248:core/lpc17xx_timer.c **** 
 249:core/lpc17xx_timer.c **** 	timer = TIM_ConverPtrToTimeNum(TIMx) ;
 856              		.loc 1 249 0 is_stmt 1
 857 0056 F868     		ldr	r0, [r7, #12]	@, TIMx
 858 0058 FFF7FEFF 		bl	TIM_ConverPtrToTimeNum	@
 859 005c F861     		str	r0, [r7, #28]	@, timer
 250:core/lpc17xx_timer.c **** 	//set power
 251:core/lpc17xx_timer.c **** 	if (TIMx== LPC_TIM0)
 860              		.loc 1 251 0
 861 005e FB68     		ldr	r3, [r7, #12]	@ tmp138, TIMx
 862 0060 B3F1402F 		cmp	r3, #1073758208	@ tmp138,
 863 0064 08D1     		bne	.L51	@,
 252:core/lpc17xx_timer.c **** 	{
 253:core/lpc17xx_timer.c **** 		CLKPWR_ConfigPPWR (CLKPWR_PCONP_PCTIM0, ENABLE);
 864              		.loc 1 253 0
 865 0066 0220     		movs	r0, #2	@,
 866 0068 0121     		movs	r1, #1	@,
 867 006a FFF7FEFF 		bl	CLKPWR_ConfigPPWR	@
 254:core/lpc17xx_timer.c **** 		CLKPWR_SetPCLKDiv (CLKPWR_PCLKSEL_TIMER0, CLKPWR_PCLKSEL_CCLK_DIV_4);
 868              		.loc 1 254 0
 869 006e 0220     		movs	r0, #2	@,
 870 0070 0021     		movs	r1, #0	@,
 871 0072 FFF7FEFF 		bl	CLKPWR_SetPCLKDiv	@
 872 0076 27E0     		b	.L52	@
 873              	.L51:
 255:core/lpc17xx_timer.c **** 	}
 256:core/lpc17xx_timer.c **** 	else if (TIMx== LPC_TIM1)
 874              		.loc 1 256 0
 875 0078 FB68     		ldr	r3, [r7, #12]	@ tmp139, TIMx
 876 007a 384A     		ldr	r2, .L59	@ tmp140,
 877 007c 9342     		cmp	r3, r2	@ tmp139, tmp140
 878 007e 08D1     		bne	.L53	@,
 257:core/lpc17xx_timer.c **** 	{
 258:core/lpc17xx_timer.c **** 		CLKPWR_ConfigPPWR (CLKPWR_PCONP_PCTIM1, ENABLE);
ARM GAS  C:\Users\COSMIN~1.MAR\AppData\Local\Temp\cccNbcra.s 			page 21


 879              		.loc 1 258 0
 880 0080 0420     		movs	r0, #4	@,
 881 0082 0121     		movs	r1, #1	@,
 882 0084 FFF7FEFF 		bl	CLKPWR_ConfigPPWR	@
 259:core/lpc17xx_timer.c **** 		CLKPWR_SetPCLKDiv (CLKPWR_PCLKSEL_TIMER1, CLKPWR_PCLKSEL_CCLK_DIV_4);
 883              		.loc 1 259 0
 884 0088 0420     		movs	r0, #4	@,
 885 008a 0021     		movs	r1, #0	@,
 886 008c FFF7FEFF 		bl	CLKPWR_SetPCLKDiv	@
 887 0090 1AE0     		b	.L52	@
 888              	.L53:
 260:core/lpc17xx_timer.c **** 
 261:core/lpc17xx_timer.c **** 	}
 262:core/lpc17xx_timer.c **** 
 263:core/lpc17xx_timer.c **** 	else if (TIMx== LPC_TIM2)
 889              		.loc 1 263 0
 890 0092 FB68     		ldr	r3, [r7, #12]	@ tmp141, TIMx
 891 0094 324A     		ldr	r2, .L59+4	@ tmp142,
 892 0096 9342     		cmp	r3, r2	@ tmp141, tmp142
 893 0098 09D1     		bne	.L54	@,
 264:core/lpc17xx_timer.c **** 	{
 265:core/lpc17xx_timer.c **** 		CLKPWR_ConfigPPWR (CLKPWR_PCONP_PCTIM2, ENABLE);
 894              		.loc 1 265 0
 895 009a 4FF48000 		mov	r0, #4194304	@,
 896 009e 0121     		movs	r1, #1	@,
 897 00a0 FFF7FEFF 		bl	CLKPWR_ConfigPPWR	@
 266:core/lpc17xx_timer.c **** 		CLKPWR_SetPCLKDiv (CLKPWR_PCLKSEL_TIMER2, CLKPWR_PCLKSEL_CCLK_DIV_4);
 898              		.loc 1 266 0
 899 00a4 2C20     		movs	r0, #44	@,
 900 00a6 0021     		movs	r1, #0	@,
 901 00a8 FFF7FEFF 		bl	CLKPWR_SetPCLKDiv	@
 902 00ac 0CE0     		b	.L52	@
 903              	.L54:
 267:core/lpc17xx_timer.c **** 	}
 268:core/lpc17xx_timer.c **** 	else if (TIMx== LPC_TIM3)
 904              		.loc 1 268 0
 905 00ae FB68     		ldr	r3, [r7, #12]	@ tmp143, TIMx
 906 00b0 2C4A     		ldr	r2, .L59+8	@ tmp144,
 907 00b2 9342     		cmp	r3, r2	@ tmp143, tmp144
 908 00b4 08D1     		bne	.L52	@,
 269:core/lpc17xx_timer.c **** 	{
 270:core/lpc17xx_timer.c **** 		CLKPWR_ConfigPPWR (CLKPWR_PCONP_PCTIM3, ENABLE);
 909              		.loc 1 270 0
 910 00b6 4FF40000 		mov	r0, #8388608	@,
 911 00ba 0121     		movs	r1, #1	@,
 912 00bc FFF7FEFF 		bl	CLKPWR_ConfigPPWR	@
 271:core/lpc17xx_timer.c **** 		CLKPWR_SetPCLKDiv (CLKPWR_PCLKSEL_TIMER3, CLKPWR_PCLKSEL_CCLK_DIV_4);
 913              		.loc 1 271 0
 914 00c0 2E20     		movs	r0, #46	@,
 915 00c2 0021     		movs	r1, #0	@,
 916 00c4 FFF7FEFF 		bl	CLKPWR_SetPCLKDiv	@
 917              	.L52:
 272:core/lpc17xx_timer.c **** 
 273:core/lpc17xx_timer.c **** 	}
 274:core/lpc17xx_timer.c **** 
 275:core/lpc17xx_timer.c **** 	TIMx->CCR &= ~TIM_CTCR_MODE_MASK;
 918              		.loc 1 275 0
ARM GAS  C:\Users\COSMIN~1.MAR\AppData\Local\Temp\cccNbcra.s 			page 22


 919 00c8 FB68     		ldr	r3, [r7, #12]	@ tmp145, TIMx
 920 00ca 9B6A     		ldr	r3, [r3, #40]	@ D.5954, TIMx_1(D)->CCR
 921 00cc 23F00302 		bic	r2, r3, #3	@ D.5954, D.5954,
 922 00d0 FB68     		ldr	r3, [r7, #12]	@ tmp146, TIMx
 923 00d2 9A62     		str	r2, [r3, #40]	@ D.5954, TIMx_1(D)->CCR
 276:core/lpc17xx_timer.c **** 	TIMx->CCR |= TIM_TIMER_MODE;
 924              		.loc 1 276 0
 925 00d4 FB68     		ldr	r3, [r7, #12]	@ tmp147, TIMx
 926 00d6 9A6A     		ldr	r2, [r3, #40]	@ D.5954, TIMx_1(D)->CCR
 927 00d8 FB68     		ldr	r3, [r7, #12]	@ tmp148, TIMx
 928 00da 9A62     		str	r2, [r3, #40]	@ D.5954, TIMx_1(D)->CCR
 277:core/lpc17xx_timer.c **** 
 278:core/lpc17xx_timer.c **** 	TIMx->TC =0;
 929              		.loc 1 278 0
 930 00dc FB68     		ldr	r3, [r7, #12]	@ tmp149, TIMx
 931 00de 0022     		movs	r2, #0	@ tmp150,
 932 00e0 9A60     		str	r2, [r3, #8]	@ tmp150, TIMx_1(D)->TC
 279:core/lpc17xx_timer.c **** 	TIMx->PC =0;
 933              		.loc 1 279 0
 934 00e2 FB68     		ldr	r3, [r7, #12]	@ tmp151, TIMx
 935 00e4 0022     		movs	r2, #0	@ tmp152,
 936 00e6 1A61     		str	r2, [r3, #16]	@ tmp152, TIMx_1(D)->PC
 280:core/lpc17xx_timer.c **** 	TIMx->PR =0;
 937              		.loc 1 280 0
 938 00e8 FB68     		ldr	r3, [r7, #12]	@ tmp153, TIMx
 939 00ea 0022     		movs	r2, #0	@ tmp154,
 940 00ec DA60     		str	r2, [r3, #12]	@ tmp154, TIMx_1(D)->PR
 281:core/lpc17xx_timer.c **** 	if (TimerCounterMode == TIM_TIMER_MODE )
 941              		.loc 1 281 0
 942 00ee FB7A     		ldrb	r3, [r7, #11]	@ zero_extendqisi2	@ tmp155, TimerCounterMode
 943 00f0 002B     		cmp	r3, #0	@ tmp155,
 944 00f2 1AD1     		bne	.L55	@,
 282:core/lpc17xx_timer.c **** 	{
 283:core/lpc17xx_timer.c **** 		pTimeCfg = (TIM_TIMERCFG_Type *)TIM_ConfigStruct;
 945              		.loc 1 283 0
 946 00f4 7B68     		ldr	r3, [r7, #4]	@ tmp156, TIM_ConfigStruct
 947 00f6 BB61     		str	r3, [r7, #24]	@ tmp156, pTimeCfg
 284:core/lpc17xx_timer.c **** 		if (pTimeCfg->PrescaleOption  == TIM_PRESCALE_TICKVAL)
 948              		.loc 1 284 0
 949 00f8 BB69     		ldr	r3, [r7, #24]	@ tmp157, pTimeCfg
 950 00fa 1B78     		ldrb	r3, [r3]	@ zero_extendqisi2	@ D.5955, pTimeCfg_8->PrescaleOption
 951 00fc 002B     		cmp	r3, #0	@ D.5955,
 952 00fe 05D1     		bne	.L56	@,
 285:core/lpc17xx_timer.c **** 		{
 286:core/lpc17xx_timer.c **** 			TIMx->PR   = pTimeCfg->PrescaleValue -1  ;
 953              		.loc 1 286 0
 954 0100 BB69     		ldr	r3, [r7, #24]	@ tmp158, pTimeCfg
 955 0102 5B68     		ldr	r3, [r3, #4]	@ D.5954, pTimeCfg_8->PrescaleValue
 956 0104 5A1E     		subs	r2, r3, #1	@ D.5954, D.5954,
 957 0106 FB68     		ldr	r3, [r7, #12]	@ tmp159, TIMx
 958 0108 DA60     		str	r2, [r3, #12]	@ D.5954, TIMx_1(D)->PR
 959 010a 20E0     		b	.L58	@
 960              	.L56:
 287:core/lpc17xx_timer.c **** 		}
 288:core/lpc17xx_timer.c **** 		else
 289:core/lpc17xx_timer.c **** 		{
 290:core/lpc17xx_timer.c **** 			TIMx->PR   = TIM_ConverUSecToVal (TIM_ConverPtrToTimeNum(TIMx),pTimeCfg->PrescaleValue)-1;
ARM GAS  C:\Users\COSMIN~1.MAR\AppData\Local\Temp\cccNbcra.s 			page 23


 961              		.loc 1 290 0
 962 010c F868     		ldr	r0, [r7, #12]	@, TIMx
 963 010e FFF7FEFF 		bl	TIM_ConverPtrToTimeNum	@
 964 0112 0246     		mov	r2, r0	@ D.5954,
 965 0114 BB69     		ldr	r3, [r7, #24]	@ tmp160, pTimeCfg
 966 0116 5B68     		ldr	r3, [r3, #4]	@ D.5954, pTimeCfg_8->PrescaleValue
 967 0118 1046     		mov	r0, r2	@, D.5954
 968 011a 1946     		mov	r1, r3	@, D.5954
 969 011c FFF7FEFF 		bl	TIM_ConverUSecToVal	@
 970 0120 0346     		mov	r3, r0	@ D.5954,
 971 0122 5A1E     		subs	r2, r3, #1	@ D.5954, D.5954,
 972 0124 FB68     		ldr	r3, [r7, #12]	@ tmp161, TIMx
 973 0126 DA60     		str	r2, [r3, #12]	@ D.5954, TIMx_1(D)->PR
 974 0128 11E0     		b	.L58	@
 975              	.L55:
 291:core/lpc17xx_timer.c **** 		}
 292:core/lpc17xx_timer.c **** 	}
 293:core/lpc17xx_timer.c **** 	else
 294:core/lpc17xx_timer.c **** 	{
 295:core/lpc17xx_timer.c **** 
 296:core/lpc17xx_timer.c **** 		pCounterCfg = (TIM_COUNTERCFG_Type *)TIM_ConfigStruct;
 976              		.loc 1 296 0
 977 012a 7B68     		ldr	r3, [r7, #4]	@ tmp162, TIM_ConfigStruct
 978 012c 7B61     		str	r3, [r7, #20]	@ tmp162, pCounterCfg
 297:core/lpc17xx_timer.c **** 		TIMx->CCR  &= ~TIM_CTCR_INPUT_MASK;
 979              		.loc 1 297 0
 980 012e FB68     		ldr	r3, [r7, #12]	@ tmp163, TIMx
 981 0130 9B6A     		ldr	r3, [r3, #40]	@ D.5954, TIMx_1(D)->CCR
 982 0132 23F00C02 		bic	r2, r3, #12	@ D.5954, D.5954,
 983 0136 FB68     		ldr	r3, [r7, #12]	@ tmp164, TIMx
 984 0138 9A62     		str	r2, [r3, #40]	@ D.5954, TIMx_1(D)->CCR
 298:core/lpc17xx_timer.c **** 		if (pCounterCfg->CountInputSelect == TIM_COUNTER_INCAP1)
 985              		.loc 1 298 0
 986 013a 7B69     		ldr	r3, [r7, #20]	@ tmp165, pCounterCfg
 987 013c 5B78     		ldrb	r3, [r3, #1]	@ zero_extendqisi2	@ D.5955, pCounterCfg_16->CountInputSelect
 988 013e 012B     		cmp	r3, #1	@ D.5955,
 989 0140 05D1     		bne	.L58	@,
 299:core/lpc17xx_timer.c **** 			TIMx->CCR |= _BIT(2);
 990              		.loc 1 299 0
 991 0142 FB68     		ldr	r3, [r7, #12]	@ tmp166, TIMx
 992 0144 9B6A     		ldr	r3, [r3, #40]	@ D.5954, TIMx_1(D)->CCR
 993 0146 43F00402 		orr	r2, r3, #4	@ D.5954, D.5954,
 994 014a FB68     		ldr	r3, [r7, #12]	@ tmp167, TIMx
 995 014c 9A62     		str	r2, [r3, #40]	@ D.5954, TIMx_1(D)->CCR
 996              	.L58:
 300:core/lpc17xx_timer.c **** 	}
 301:core/lpc17xx_timer.c **** 
 302:core/lpc17xx_timer.c **** 	// Clear interrupt pending
 303:core/lpc17xx_timer.c **** 	TIMx->IR = 0xFFFFFFFF;
 997              		.loc 1 303 0
 998 014e FB68     		ldr	r3, [r7, #12]	@ tmp168, TIMx
 999 0150 4FF0FF32 		mov	r2, #-1	@ tmp169,
 1000 0154 1A60     		str	r2, [r3]	@ tmp169, TIMx_1(D)->IR
 304:core/lpc17xx_timer.c **** 
 305:core/lpc17xx_timer.c **** }
 1001              		.loc 1 305 0
 1002 0156 2037     		adds	r7, r7, #32	@,,
ARM GAS  C:\Users\COSMIN~1.MAR\AppData\Local\Temp\cccNbcra.s 			page 24


 1003              		.cfi_def_cfa_offset 8
 1004 0158 BD46     		mov	sp, r7	@,
 1005              		.cfi_def_cfa_register 13
 1006              		@ sp needed	@
 1007 015a 80BD     		pop	{r7, pc}	@
 1008              	.L60:
 1009              		.align	2
 1010              	.L59:
 1011 015c 00800040 		.word	1073774592
 1012 0160 00000940 		.word	1074331648
 1013 0164 00400940 		.word	1074348032
 1014 0168 00000000 		.word	.LC0
 1015              		.cfi_endproc
 1016              	.LFE63:
 1017              		.size	TIM_Init, .-TIM_Init
 1018              		.section	.text.TIM_DeInit,"ax",%progbits
 1019              		.align	2
 1020              		.global	TIM_DeInit
 1021              		.thumb
 1022              		.thumb_func
 1023              		.type	TIM_DeInit, %function
 1024              	TIM_DeInit:
 1025              	.LFB64:
 306:core/lpc17xx_timer.c **** 
 307:core/lpc17xx_timer.c **** /*********************************************************************//**
 308:core/lpc17xx_timer.c ****  * @brief 		Close Timer/Counter device
 309:core/lpc17xx_timer.c ****  * @param[in]	TIMx  Pointer to timer device
 310:core/lpc17xx_timer.c ****  * @return 		None
 311:core/lpc17xx_timer.c ****  **********************************************************************/
 312:core/lpc17xx_timer.c **** void TIM_DeInit (LPC_TIM_TypeDef *TIMx)
 313:core/lpc17xx_timer.c **** {
 1026              		.loc 1 313 0
 1027              		.cfi_startproc
 1028              		@ args = 0, pretend = 0, frame = 8
 1029              		@ frame_needed = 1, uses_anonymous_args = 0
 1030 0000 80B5     		push	{r7, lr}	@
 1031              		.cfi_def_cfa_offset 8
 1032              		.cfi_offset 7, -8
 1033              		.cfi_offset 14, -4
 1034 0002 82B0     		sub	sp, sp, #8	@,,
 1035              		.cfi_def_cfa_offset 16
 1036 0004 00AF     		add	r7, sp, #0	@,,
 1037              		.cfi_def_cfa_register 7
 1038 0006 7860     		str	r0, [r7, #4]	@ TIMx, TIMx
 314:core/lpc17xx_timer.c **** 	CHECK_PARAM(PARAM_TIMx(TIMx));
 1039              		.loc 1 314 0
 1040 0008 7B68     		ldr	r3, [r7, #4]	@ tmp110, TIMx
 1041 000a B3F1402F 		cmp	r3, #1073758208	@ tmp110,
 1042 000e 10D0     		beq	.L62	@,
 1043              		.loc 1 314 0 is_stmt 0 discriminator 1
 1044 0010 7B68     		ldr	r3, [r7, #4]	@ tmp111, TIMx
 1045 0012 1D4A     		ldr	r2, .L67	@ tmp112,
 1046 0014 9342     		cmp	r3, r2	@ tmp111, tmp112
 1047 0016 0CD0     		beq	.L62	@,
 1048              		.loc 1 314 0 discriminator 2
 1049 0018 7B68     		ldr	r3, [r7, #4]	@ tmp113, TIMx
 1050 001a 1C4A     		ldr	r2, .L67+4	@ tmp114,
ARM GAS  C:\Users\COSMIN~1.MAR\AppData\Local\Temp\cccNbcra.s 			page 25


 1051 001c 9342     		cmp	r3, r2	@ tmp113, tmp114
 1052 001e 08D0     		beq	.L62	@,
 1053              		.loc 1 314 0 discriminator 3
 1054 0020 7B68     		ldr	r3, [r7, #4]	@ tmp115, TIMx
 1055 0022 1B4A     		ldr	r2, .L67+8	@ tmp116,
 1056 0024 9342     		cmp	r3, r2	@ tmp115, tmp116
 1057 0026 04D0     		beq	.L62	@,
 1058              		.loc 1 314 0 discriminator 4
 1059 0028 1A48     		ldr	r0, .L67+12	@,
 1060 002a 4FF49D71 		mov	r1, #314	@,
 1061 002e FFF7FEFF 		bl	check_failed	@
 1062              	.L62:
 315:core/lpc17xx_timer.c **** 	// Disable timer/counter
 316:core/lpc17xx_timer.c **** 	TIMx->TCR = 0x00;
 1063              		.loc 1 316 0 is_stmt 1
 1064 0032 7B68     		ldr	r3, [r7, #4]	@ tmp117, TIMx
 1065 0034 0022     		movs	r2, #0	@ tmp118,
 1066 0036 5A60     		str	r2, [r3, #4]	@ tmp118, TIMx_1(D)->TCR
 317:core/lpc17xx_timer.c **** 
 318:core/lpc17xx_timer.c **** 	// Disable power
 319:core/lpc17xx_timer.c **** 	if (TIMx== LPC_TIM0)
 1067              		.loc 1 319 0
 1068 0038 7B68     		ldr	r3, [r7, #4]	@ tmp119, TIMx
 1069 003a B3F1402F 		cmp	r3, #1073758208	@ tmp119,
 1070 003e 04D1     		bne	.L63	@,
 320:core/lpc17xx_timer.c **** 		CLKPWR_ConfigPPWR (CLKPWR_PCONP_PCTIM0, DISABLE);
 1071              		.loc 1 320 0
 1072 0040 0220     		movs	r0, #2	@,
 1073 0042 0021     		movs	r1, #0	@,
 1074 0044 FFF7FEFF 		bl	CLKPWR_ConfigPPWR	@
 1075 0048 1BE0     		b	.L61	@
 1076              	.L63:
 321:core/lpc17xx_timer.c **** 
 322:core/lpc17xx_timer.c **** 	else if (TIMx== LPC_TIM1)
 1077              		.loc 1 322 0
 1078 004a 7B68     		ldr	r3, [r7, #4]	@ tmp120, TIMx
 1079 004c 0E4A     		ldr	r2, .L67	@ tmp121,
 1080 004e 9342     		cmp	r3, r2	@ tmp120, tmp121
 1081 0050 04D1     		bne	.L65	@,
 323:core/lpc17xx_timer.c **** 		CLKPWR_ConfigPPWR (CLKPWR_PCONP_PCTIM1, DISABLE);
 1082              		.loc 1 323 0
 1083 0052 0420     		movs	r0, #4	@,
 1084 0054 0021     		movs	r1, #0	@,
 1085 0056 FFF7FEFF 		bl	CLKPWR_ConfigPPWR	@
 1086 005a 12E0     		b	.L61	@
 1087              	.L65:
 324:core/lpc17xx_timer.c **** 
 325:core/lpc17xx_timer.c **** 	else if (TIMx== LPC_TIM2)
 1088              		.loc 1 325 0
 1089 005c 7B68     		ldr	r3, [r7, #4]	@ tmp122, TIMx
 1090 005e 0B4A     		ldr	r2, .L67+4	@ tmp123,
 1091 0060 9342     		cmp	r3, r2	@ tmp122, tmp123
 1092 0062 05D1     		bne	.L66	@,
 326:core/lpc17xx_timer.c **** 		CLKPWR_ConfigPPWR (CLKPWR_PCONP_PCTIM2, DISABLE);
 1093              		.loc 1 326 0
 1094 0064 4FF48000 		mov	r0, #4194304	@,
 1095 0068 0021     		movs	r1, #0	@,
ARM GAS  C:\Users\COSMIN~1.MAR\AppData\Local\Temp\cccNbcra.s 			page 26


 1096 006a FFF7FEFF 		bl	CLKPWR_ConfigPPWR	@
 1097 006e 08E0     		b	.L61	@
 1098              	.L66:
 327:core/lpc17xx_timer.c **** 
 328:core/lpc17xx_timer.c **** 	else if (TIMx== LPC_TIM3)
 1099              		.loc 1 328 0
 1100 0070 7B68     		ldr	r3, [r7, #4]	@ tmp124, TIMx
 1101 0072 074A     		ldr	r2, .L67+8	@ tmp125,
 1102 0074 9342     		cmp	r3, r2	@ tmp124, tmp125
 1103 0076 04D1     		bne	.L61	@,
 329:core/lpc17xx_timer.c **** 		CLKPWR_ConfigPPWR (CLKPWR_PCONP_PCTIM2, DISABLE);
 1104              		.loc 1 329 0
 1105 0078 4FF48000 		mov	r0, #4194304	@,
 1106 007c 0021     		movs	r1, #0	@,
 1107 007e FFF7FEFF 		bl	CLKPWR_ConfigPPWR	@
 1108              	.L61:
 330:core/lpc17xx_timer.c **** 
 331:core/lpc17xx_timer.c **** }
 1109              		.loc 1 331 0
 1110 0082 0837     		adds	r7, r7, #8	@,,
 1111              		.cfi_def_cfa_offset 8
 1112 0084 BD46     		mov	sp, r7	@,
 1113              		.cfi_def_cfa_register 13
 1114              		@ sp needed	@
 1115 0086 80BD     		pop	{r7, pc}	@
 1116              	.L68:
 1117              		.align	2
 1118              	.L67:
 1119 0088 00800040 		.word	1073774592
 1120 008c 00000940 		.word	1074331648
 1121 0090 00400940 		.word	1074348032
 1122 0094 00000000 		.word	.LC0
 1123              		.cfi_endproc
 1124              	.LFE64:
 1125              		.size	TIM_DeInit, .-TIM_DeInit
 1126              		.section	.text.TIM_Cmd,"ax",%progbits
 1127              		.align	2
 1128              		.global	TIM_Cmd
 1129              		.thumb
 1130              		.thumb_func
 1131              		.type	TIM_Cmd, %function
 1132              	TIM_Cmd:
 1133              	.LFB65:
 332:core/lpc17xx_timer.c **** 
 333:core/lpc17xx_timer.c **** /*********************************************************************//**
 334:core/lpc17xx_timer.c ****  * @brief	 	Start/Stop Timer/Counter device
 335:core/lpc17xx_timer.c ****  * @param[in]	TIMx Pointer to timer device
 336:core/lpc17xx_timer.c ****  * @param[in]	NewState
 337:core/lpc17xx_timer.c ****  * 				-	ENABLE  : set timer enable
 338:core/lpc17xx_timer.c ****  * 				-	DISABLE : disable timer
 339:core/lpc17xx_timer.c ****  * @return 		None
 340:core/lpc17xx_timer.c ****  **********************************************************************/
 341:core/lpc17xx_timer.c **** void TIM_Cmd(LPC_TIM_TypeDef *TIMx, FunctionalState NewState)
 342:core/lpc17xx_timer.c **** {
 1134              		.loc 1 342 0
 1135              		.cfi_startproc
 1136              		@ args = 0, pretend = 0, frame = 8
ARM GAS  C:\Users\COSMIN~1.MAR\AppData\Local\Temp\cccNbcra.s 			page 27


 1137              		@ frame_needed = 1, uses_anonymous_args = 0
 1138 0000 80B5     		push	{r7, lr}	@
 1139              		.cfi_def_cfa_offset 8
 1140              		.cfi_offset 7, -8
 1141              		.cfi_offset 14, -4
 1142 0002 82B0     		sub	sp, sp, #8	@,,
 1143              		.cfi_def_cfa_offset 16
 1144 0004 00AF     		add	r7, sp, #0	@,,
 1145              		.cfi_def_cfa_register 7
 1146 0006 7860     		str	r0, [r7, #4]	@ TIMx, TIMx
 1147 0008 0B46     		mov	r3, r1	@ tmp114, NewState
 1148 000a FB70     		strb	r3, [r7, #3]	@ tmp115, NewState
 343:core/lpc17xx_timer.c **** 	CHECK_PARAM(PARAM_TIMx(TIMx));
 1149              		.loc 1 343 0
 1150 000c 7B68     		ldr	r3, [r7, #4]	@ tmp116, TIMx
 1151 000e B3F1402F 		cmp	r3, #1073758208	@ tmp116,
 1152 0012 10D0     		beq	.L70	@,
 1153              		.loc 1 343 0 is_stmt 0 discriminator 1
 1154 0014 7B68     		ldr	r3, [r7, #4]	@ tmp117, TIMx
 1155 0016 114A     		ldr	r2, .L73	@ tmp118,
 1156 0018 9342     		cmp	r3, r2	@ tmp117, tmp118
 1157 001a 0CD0     		beq	.L70	@,
 1158              		.loc 1 343 0 discriminator 2
 1159 001c 7B68     		ldr	r3, [r7, #4]	@ tmp119, TIMx
 1160 001e 104A     		ldr	r2, .L73+4	@ tmp120,
 1161 0020 9342     		cmp	r3, r2	@ tmp119, tmp120
 1162 0022 08D0     		beq	.L70	@,
 1163              		.loc 1 343 0 discriminator 3
 1164 0024 7B68     		ldr	r3, [r7, #4]	@ tmp121, TIMx
 1165 0026 0F4A     		ldr	r2, .L73+8	@ tmp122,
 1166 0028 9342     		cmp	r3, r2	@ tmp121, tmp122
 1167 002a 04D0     		beq	.L70	@,
 1168              		.loc 1 343 0 discriminator 4
 1169 002c 0E48     		ldr	r0, .L73+12	@,
 1170 002e 40F25711 		movw	r1, #343	@,
 1171 0032 FFF7FEFF 		bl	check_failed	@
 1172              	.L70:
 344:core/lpc17xx_timer.c **** 	if (NewState == ENABLE)
 1173              		.loc 1 344 0 is_stmt 1
 1174 0036 FB78     		ldrb	r3, [r7, #3]	@ zero_extendqisi2	@ tmp123, NewState
 1175 0038 012B     		cmp	r3, #1	@ tmp123,
 1176 003a 06D1     		bne	.L71	@,
 345:core/lpc17xx_timer.c **** 	{
 346:core/lpc17xx_timer.c **** 		TIMx->TCR	|=  TIM_ENABLE;
 1177              		.loc 1 346 0
 1178 003c 7B68     		ldr	r3, [r7, #4]	@ tmp124, TIMx
 1179 003e 5B68     		ldr	r3, [r3, #4]	@ D.5956, TIMx_1(D)->TCR
 1180 0040 43F00102 		orr	r2, r3, #1	@ D.5956, D.5956,
 1181 0044 7B68     		ldr	r3, [r7, #4]	@ tmp125, TIMx
 1182 0046 5A60     		str	r2, [r3, #4]	@ D.5956, TIMx_1(D)->TCR
 1183 0048 05E0     		b	.L69	@
 1184              	.L71:
 347:core/lpc17xx_timer.c **** 	}
 348:core/lpc17xx_timer.c **** 	else
 349:core/lpc17xx_timer.c **** 	{
 350:core/lpc17xx_timer.c **** 		TIMx->TCR &= ~TIM_ENABLE;
 1185              		.loc 1 350 0
ARM GAS  C:\Users\COSMIN~1.MAR\AppData\Local\Temp\cccNbcra.s 			page 28


 1186 004a 7B68     		ldr	r3, [r7, #4]	@ tmp126, TIMx
 1187 004c 5B68     		ldr	r3, [r3, #4]	@ D.5956, TIMx_1(D)->TCR
 1188 004e 23F00102 		bic	r2, r3, #1	@ D.5956, D.5956,
 1189 0052 7B68     		ldr	r3, [r7, #4]	@ tmp127, TIMx
 1190 0054 5A60     		str	r2, [r3, #4]	@ D.5956, TIMx_1(D)->TCR
 1191              	.L69:
 351:core/lpc17xx_timer.c **** 	}
 352:core/lpc17xx_timer.c **** }
 1192              		.loc 1 352 0
 1193 0056 0837     		adds	r7, r7, #8	@,,
 1194              		.cfi_def_cfa_offset 8
 1195 0058 BD46     		mov	sp, r7	@,
 1196              		.cfi_def_cfa_register 13
 1197              		@ sp needed	@
 1198 005a 80BD     		pop	{r7, pc}	@
 1199              	.L74:
 1200              		.align	2
 1201              	.L73:
 1202 005c 00800040 		.word	1073774592
 1203 0060 00000940 		.word	1074331648
 1204 0064 00400940 		.word	1074348032
 1205 0068 00000000 		.word	.LC0
 1206              		.cfi_endproc
 1207              	.LFE65:
 1208              		.size	TIM_Cmd, .-TIM_Cmd
 1209              		.section	.text.TIM_ResetCounter,"ax",%progbits
 1210              		.align	2
 1211              		.global	TIM_ResetCounter
 1212              		.thumb
 1213              		.thumb_func
 1214              		.type	TIM_ResetCounter, %function
 1215              	TIM_ResetCounter:
 1216              	.LFB66:
 353:core/lpc17xx_timer.c **** 
 354:core/lpc17xx_timer.c **** /*********************************************************************//**
 355:core/lpc17xx_timer.c ****  * @brief 		Reset Timer/Counter device,
 356:core/lpc17xx_timer.c ****  * 					Make TC and PC are synchronously reset on the next
 357:core/lpc17xx_timer.c ****  * 					positive edge of PCLK
 358:core/lpc17xx_timer.c ****  * @param[in]	TIMx Pointer to timer device
 359:core/lpc17xx_timer.c ****  * @return 		None
 360:core/lpc17xx_timer.c ****  **********************************************************************/
 361:core/lpc17xx_timer.c **** void TIM_ResetCounter(LPC_TIM_TypeDef *TIMx)
 362:core/lpc17xx_timer.c **** {
 1217              		.loc 1 362 0
 1218              		.cfi_startproc
 1219              		@ args = 0, pretend = 0, frame = 8
 1220              		@ frame_needed = 1, uses_anonymous_args = 0
 1221 0000 80B5     		push	{r7, lr}	@
 1222              		.cfi_def_cfa_offset 8
 1223              		.cfi_offset 7, -8
 1224              		.cfi_offset 14, -4
 1225 0002 82B0     		sub	sp, sp, #8	@,,
 1226              		.cfi_def_cfa_offset 16
 1227 0004 00AF     		add	r7, sp, #0	@,,
 1228              		.cfi_def_cfa_register 7
 1229 0006 7860     		str	r0, [r7, #4]	@ TIMx, TIMx
 363:core/lpc17xx_timer.c **** 	CHECK_PARAM(PARAM_TIMx(TIMx));
ARM GAS  C:\Users\COSMIN~1.MAR\AppData\Local\Temp\cccNbcra.s 			page 29


 1230              		.loc 1 363 0
 1231 0008 7B68     		ldr	r3, [r7, #4]	@ tmp114, TIMx
 1232 000a B3F1402F 		cmp	r3, #1073758208	@ tmp114,
 1233 000e 10D0     		beq	.L76	@,
 1234              		.loc 1 363 0 is_stmt 0 discriminator 1
 1235 0010 7B68     		ldr	r3, [r7, #4]	@ tmp115, TIMx
 1236 0012 0F4A     		ldr	r2, .L77	@ tmp116,
 1237 0014 9342     		cmp	r3, r2	@ tmp115, tmp116
 1238 0016 0CD0     		beq	.L76	@,
 1239              		.loc 1 363 0 discriminator 2
 1240 0018 7B68     		ldr	r3, [r7, #4]	@ tmp117, TIMx
 1241 001a 0E4A     		ldr	r2, .L77+4	@ tmp118,
 1242 001c 9342     		cmp	r3, r2	@ tmp117, tmp118
 1243 001e 08D0     		beq	.L76	@,
 1244              		.loc 1 363 0 discriminator 3
 1245 0020 7B68     		ldr	r3, [r7, #4]	@ tmp119, TIMx
 1246 0022 0D4A     		ldr	r2, .L77+8	@ tmp120,
 1247 0024 9342     		cmp	r3, r2	@ tmp119, tmp120
 1248 0026 04D0     		beq	.L76	@,
 1249              		.loc 1 363 0 discriminator 4
 1250 0028 0C48     		ldr	r0, .L77+12	@,
 1251 002a 40F26B11 		movw	r1, #363	@,
 1252 002e FFF7FEFF 		bl	check_failed	@
 1253              	.L76:
 364:core/lpc17xx_timer.c **** 	TIMx->TCR |= TIM_RESET;
 1254              		.loc 1 364 0 is_stmt 1
 1255 0032 7B68     		ldr	r3, [r7, #4]	@ tmp121, TIMx
 1256 0034 5B68     		ldr	r3, [r3, #4]	@ D.5957, TIMx_1(D)->TCR
 1257 0036 43F00202 		orr	r2, r3, #2	@ D.5957, D.5957,
 1258 003a 7B68     		ldr	r3, [r7, #4]	@ tmp122, TIMx
 1259 003c 5A60     		str	r2, [r3, #4]	@ D.5957, TIMx_1(D)->TCR
 365:core/lpc17xx_timer.c **** 	TIMx->TCR &= ~TIM_RESET;
 1260              		.loc 1 365 0
 1261 003e 7B68     		ldr	r3, [r7, #4]	@ tmp123, TIMx
 1262 0040 5B68     		ldr	r3, [r3, #4]	@ D.5957, TIMx_1(D)->TCR
 1263 0042 23F00202 		bic	r2, r3, #2	@ D.5957, D.5957,
 1264 0046 7B68     		ldr	r3, [r7, #4]	@ tmp124, TIMx
 1265 0048 5A60     		str	r2, [r3, #4]	@ D.5957, TIMx_1(D)->TCR
 366:core/lpc17xx_timer.c **** }
 1266              		.loc 1 366 0
 1267 004a 0837     		adds	r7, r7, #8	@,,
 1268              		.cfi_def_cfa_offset 8
 1269 004c BD46     		mov	sp, r7	@,
 1270              		.cfi_def_cfa_register 13
 1271              		@ sp needed	@
 1272 004e 80BD     		pop	{r7, pc}	@
 1273              	.L78:
 1274              		.align	2
 1275              	.L77:
 1276 0050 00800040 		.word	1073774592
 1277 0054 00000940 		.word	1074331648
 1278 0058 00400940 		.word	1074348032
 1279 005c 00000000 		.word	.LC0
 1280              		.cfi_endproc
 1281              	.LFE66:
 1282              		.size	TIM_ResetCounter, .-TIM_ResetCounter
 1283              		.section	.text.TIM_ConfigMatch,"ax",%progbits
ARM GAS  C:\Users\COSMIN~1.MAR\AppData\Local\Temp\cccNbcra.s 			page 30


 1284              		.align	2
 1285              		.global	TIM_ConfigMatch
 1286              		.thumb
 1287              		.thumb_func
 1288              		.type	TIM_ConfigMatch, %function
 1289              	TIM_ConfigMatch:
 1290              	.LFB67:
 367:core/lpc17xx_timer.c **** 
 368:core/lpc17xx_timer.c **** /*********************************************************************//**
 369:core/lpc17xx_timer.c ****  * @brief 		Configuration for Match register
 370:core/lpc17xx_timer.c ****  * @param[in]	TIMx Pointer to timer device
 371:core/lpc17xx_timer.c ****  * @param[in]   TIM_MatchConfigStruct Pointer to TIM_MATCHCFG_Type
 372:core/lpc17xx_timer.c ****  * 					- MatchChannel : choose channel 0 or 1
 373:core/lpc17xx_timer.c ****  * 					- IntOnMatch	 : if SET, interrupt will be generated when MRxx match
 374:core/lpc17xx_timer.c ****  * 									the value in TC
 375:core/lpc17xx_timer.c ****  * 					- StopOnMatch	 : if SET, TC and PC will be stopped whenM Rxx match
 376:core/lpc17xx_timer.c ****  * 									the value in TC
 377:core/lpc17xx_timer.c ****  * 					- ResetOnMatch : if SET, Reset on MR0 when MRxx match
 378:core/lpc17xx_timer.c ****  * 									the value in TC
 379:core/lpc17xx_timer.c ****  * 					-ExtMatchOutputType: Select output for external match
 380:core/lpc17xx_timer.c ****  * 						 +	 0:	Do nothing for external output pin if match
 381:core/lpc17xx_timer.c ****  *						 +   1:	Force external output pin to low if match
 382:core/lpc17xx_timer.c ****  *						 + 	 2: Force external output pin to high if match
 383:core/lpc17xx_timer.c ****  *						 + 	 3: Toggle external output pin if match
 384:core/lpc17xx_timer.c ****  *					MatchValue: Set the value to be compared with TC value
 385:core/lpc17xx_timer.c ****  * @return 		None
 386:core/lpc17xx_timer.c ****  **********************************************************************/
 387:core/lpc17xx_timer.c **** void TIM_ConfigMatch(LPC_TIM_TypeDef *TIMx, TIM_MATCHCFG_Type *TIM_MatchConfigStruct)
 388:core/lpc17xx_timer.c **** {
 1291              		.loc 1 388 0
 1292              		.cfi_startproc
 1293              		@ args = 0, pretend = 0, frame = 16
 1294              		@ frame_needed = 1, uses_anonymous_args = 0
 1295 0000 80B5     		push	{r7, lr}	@
 1296              		.cfi_def_cfa_offset 8
 1297              		.cfi_offset 7, -8
 1298              		.cfi_offset 14, -4
 1299 0002 84B0     		sub	sp, sp, #16	@,,
 1300              		.cfi_def_cfa_offset 24
 1301 0004 00AF     		add	r7, sp, #0	@,,
 1302              		.cfi_def_cfa_register 7
 1303 0006 7860     		str	r0, [r7, #4]	@ TIMx, TIMx
 1304 0008 3960     		str	r1, [r7]	@ TIM_MatchConfigStruct, TIM_MatchConfigStruct
 389:core/lpc17xx_timer.c **** 	uint32_t timer;
 390:core/lpc17xx_timer.c **** 
 391:core/lpc17xx_timer.c **** 	CHECK_PARAM(PARAM_TIMx(TIMx));
 1305              		.loc 1 391 0
 1306 000a 7B68     		ldr	r3, [r7, #4]	@ tmp169, TIMx
 1307 000c B3F1402F 		cmp	r3, #1073758208	@ tmp169,
 1308 0010 10D0     		beq	.L80	@,
 1309              		.loc 1 391 0 is_stmt 0 discriminator 1
 1310 0012 7B68     		ldr	r3, [r7, #4]	@ tmp170, TIMx
 1311 0014 4C4A     		ldr	r2, .L88	@ tmp171,
 1312 0016 9342     		cmp	r3, r2	@ tmp170, tmp171
 1313 0018 0CD0     		beq	.L80	@,
 1314              		.loc 1 391 0 discriminator 2
 1315 001a 7B68     		ldr	r3, [r7, #4]	@ tmp172, TIMx
ARM GAS  C:\Users\COSMIN~1.MAR\AppData\Local\Temp\cccNbcra.s 			page 31


 1316 001c 4B4A     		ldr	r2, .L88+4	@ tmp173,
 1317 001e 9342     		cmp	r3, r2	@ tmp172, tmp173
 1318 0020 08D0     		beq	.L80	@,
 1319              		.loc 1 391 0 discriminator 3
 1320 0022 7B68     		ldr	r3, [r7, #4]	@ tmp174, TIMx
 1321 0024 4A4A     		ldr	r2, .L88+8	@ tmp175,
 1322 0026 9342     		cmp	r3, r2	@ tmp174, tmp175
 1323 0028 04D0     		beq	.L80	@,
 1324              		.loc 1 391 0 discriminator 4
 1325 002a 4A48     		ldr	r0, .L88+12	@,
 1326 002c 40F28711 		movw	r1, #391	@,
 1327 0030 FFF7FEFF 		bl	check_failed	@
 1328              	.L80:
 392:core/lpc17xx_timer.c **** 	CHECK_PARAM(PARAM_TIM_EXTMATCH_OPT(TIM_MatchConfigStruct->ExtMatchOutputType));
 1329              		.loc 1 392 0 is_stmt 1
 1330 0034 3B68     		ldr	r3, [r7]	@ tmp176, TIM_MatchConfigStruct
 1331 0036 1B79     		ldrb	r3, [r3, #4]	@ zero_extendqisi2	@ D.5958, TIM_MatchConfigStruct_2(D)->ExtMatchOutputType
 1332 0038 002B     		cmp	r3, #0	@ D.5958,
 1333 003a 10D0     		beq	.L81	@,
 1334              		.loc 1 392 0 is_stmt 0 discriminator 1
 1335 003c 3B68     		ldr	r3, [r7]	@ tmp177, TIM_MatchConfigStruct
 1336 003e 1B79     		ldrb	r3, [r3, #4]	@ zero_extendqisi2	@ D.5958, TIM_MatchConfigStruct_2(D)->ExtMatchOutputType
 1337 0040 012B     		cmp	r3, #1	@ D.5958,
 1338 0042 0CD0     		beq	.L81	@,
 1339              		.loc 1 392 0 discriminator 2
 1340 0044 3B68     		ldr	r3, [r7]	@ tmp178, TIM_MatchConfigStruct
 1341 0046 1B79     		ldrb	r3, [r3, #4]	@ zero_extendqisi2	@ D.5958, TIM_MatchConfigStruct_2(D)->ExtMatchOutputType
 1342 0048 022B     		cmp	r3, #2	@ D.5958,
 1343 004a 08D0     		beq	.L81	@,
 1344              		.loc 1 392 0 discriminator 3
 1345 004c 3B68     		ldr	r3, [r7]	@ tmp179, TIM_MatchConfigStruct
 1346 004e 1B79     		ldrb	r3, [r3, #4]	@ zero_extendqisi2	@ D.5958, TIM_MatchConfigStruct_2(D)->ExtMatchOutputType
 1347 0050 032B     		cmp	r3, #3	@ D.5958,
 1348 0052 04D0     		beq	.L81	@,
 1349              		.loc 1 392 0 discriminator 4
 1350 0054 3F48     		ldr	r0, .L88+12	@,
 1351 0056 4FF4C471 		mov	r1, #392	@,
 1352 005a FFF7FEFF 		bl	check_failed	@
 1353              	.L81:
 393:core/lpc17xx_timer.c **** 
 394:core/lpc17xx_timer.c **** 	timer = TIM_ConverPtrToTimeNum(TIMx) ;
 1354              		.loc 1 394 0 is_stmt 1
 1355 005e 7868     		ldr	r0, [r7, #4]	@, TIMx
 1356 0060 FFF7FEFF 		bl	TIM_ConverPtrToTimeNum	@
 1357 0064 F860     		str	r0, [r7, #12]	@, timer
 395:core/lpc17xx_timer.c **** 	switch(TIM_MatchConfigStruct->MatchChannel)
 1358              		.loc 1 395 0
 1359 0066 3B68     		ldr	r3, [r7]	@ tmp180, TIM_MatchConfigStruct
 1360 0068 1B78     		ldrb	r3, [r3]	@ zero_extendqisi2	@ D.5958, TIM_MatchConfigStruct_2(D)->MatchChannel
 1361 006a 002B     		cmp	r3, #0	@ D.5959,
 1362 006c 02D0     		beq	.L83	@,
 1363 006e 012B     		cmp	r3, #1	@ D.5959,
 1364 0070 05D0     		beq	.L84	@,
 1365 0072 09E0     		b	.L82	@
 1366              	.L83:
 396:core/lpc17xx_timer.c **** 	{
 397:core/lpc17xx_timer.c **** 	case 0:
ARM GAS  C:\Users\COSMIN~1.MAR\AppData\Local\Temp\cccNbcra.s 			page 32


 398:core/lpc17xx_timer.c **** 		TIMx->MR0 = TIM_MatchConfigStruct->MatchValue;
 1367              		.loc 1 398 0
 1368 0074 3B68     		ldr	r3, [r7]	@ tmp181, TIM_MatchConfigStruct
 1369 0076 9A68     		ldr	r2, [r3, #8]	@ D.5960, TIM_MatchConfigStruct_2(D)->MatchValue
 1370 0078 7B68     		ldr	r3, [r7, #4]	@ tmp182, TIMx
 1371 007a 9A61     		str	r2, [r3, #24]	@ D.5960, TIMx_1(D)->MR0
 399:core/lpc17xx_timer.c **** 		break;
 1372              		.loc 1 399 0
 1373 007c 04E0     		b	.L82	@
 1374              	.L84:
 400:core/lpc17xx_timer.c **** 	case 1:
 401:core/lpc17xx_timer.c **** 		TIMx->MR1 = TIM_MatchConfigStruct->MatchValue;
 1375              		.loc 1 401 0
 1376 007e 3B68     		ldr	r3, [r7]	@ tmp183, TIM_MatchConfigStruct
 1377 0080 9A68     		ldr	r2, [r3, #8]	@ D.5960, TIM_MatchConfigStruct_2(D)->MatchValue
 1378 0082 7B68     		ldr	r3, [r7, #4]	@ tmp184, TIMx
 1379 0084 DA61     		str	r2, [r3, #28]	@ D.5960, TIMx_1(D)->MR1
 402:core/lpc17xx_timer.c **** 		break;
 1380              		.loc 1 402 0
 1381 0086 00BF     		nop
 1382              	.L82:
 403:core/lpc17xx_timer.c **** 	}
 404:core/lpc17xx_timer.c **** 	//interrupt on MRn
 405:core/lpc17xx_timer.c **** 	TIMx->MCR &=~TIM_MCR_CHANNEL_MASKBIT(TIM_MatchConfigStruct->MatchChannel);
 1383              		.loc 1 405 0
 1384 0088 7B68     		ldr	r3, [r7, #4]	@ tmp185, TIMx
 1385 008a 5A69     		ldr	r2, [r3, #20]	@ D.5960, TIMx_1(D)->MCR
 1386 008c 3B68     		ldr	r3, [r7]	@ tmp186, TIM_MatchConfigStruct
 1387 008e 1B78     		ldrb	r3, [r3]	@ zero_extendqisi2	@ D.5958, TIM_MatchConfigStruct_2(D)->MatchChannel
 1388 0090 1946     		mov	r1, r3	@ D.5959, D.5958
 1389 0092 0723     		movs	r3, #7	@ tmp187,
 1390 0094 8B40     		lsls	r3, r3, r1	@ D.5959, tmp187, D.5959
 1391 0096 DB43     		mvns	r3, r3	@ D.5960, D.5960
 1392 0098 1A40     		ands	r2, r2, r3	@, D.5960, D.5960, D.5960
 1393 009a 7B68     		ldr	r3, [r7, #4]	@ tmp188, TIMx
 1394 009c 5A61     		str	r2, [r3, #20]	@ D.5960, TIMx_1(D)->MCR
 406:core/lpc17xx_timer.c **** 
 407:core/lpc17xx_timer.c **** 	if (TIM_MatchConfigStruct->IntOnMatch)
 1395              		.loc 1 407 0
 1396 009e 3B68     		ldr	r3, [r7]	@ tmp189, TIM_MatchConfigStruct
 1397 00a0 5B78     		ldrb	r3, [r3, #1]	@ zero_extendqisi2	@ D.5958, TIM_MatchConfigStruct_2(D)->IntOnMatch
 1398 00a2 002B     		cmp	r3, #0	@ D.5958,
 1399 00a4 0DD0     		beq	.L85	@,
 408:core/lpc17xx_timer.c **** 		TIMx->MCR |= TIM_INT_ON_MATCH(TIM_MatchConfigStruct->MatchChannel);
 1400              		.loc 1 408 0
 1401 00a6 7B68     		ldr	r3, [r7, #4]	@ tmp190, TIMx
 1402 00a8 5A69     		ldr	r2, [r3, #20]	@ D.5960, TIMx_1(D)->MCR
 1403 00aa 3B68     		ldr	r3, [r7]	@ tmp191, TIM_MatchConfigStruct
 1404 00ac 1B78     		ldrb	r3, [r3]	@ zero_extendqisi2	@ D.5958, TIM_MatchConfigStruct_2(D)->MatchChannel
 1405 00ae 1946     		mov	r1, r3	@ D.5959, D.5958
 1406 00b0 0B46     		mov	r3, r1	@ tmp192, D.5959
 1407 00b2 5B00     		lsls	r3, r3, #1	@ tmp192, tmp192,
 1408 00b4 0B44     		add	r3, r3, r1	@ D.5959, D.5959
 1409 00b6 0121     		movs	r1, #1	@ tmp193,
 1410 00b8 01FA03F3 		lsl	r3, r1, r3	@ D.5959, tmp193, D.5959
 1411 00bc 1A43     		orrs	r2, r2, r3	@, D.5960, D.5960, D.5960
 1412 00be 7B68     		ldr	r3, [r7, #4]	@ tmp194, TIMx
ARM GAS  C:\Users\COSMIN~1.MAR\AppData\Local\Temp\cccNbcra.s 			page 33


 1413 00c0 5A61     		str	r2, [r3, #20]	@ D.5960, TIMx_1(D)->MCR
 1414              	.L85:
 409:core/lpc17xx_timer.c **** 
 410:core/lpc17xx_timer.c **** 	//reset on MRn
 411:core/lpc17xx_timer.c **** 	if (TIM_MatchConfigStruct->ResetOnMatch)
 1415              		.loc 1 411 0
 1416 00c2 3B68     		ldr	r3, [r7]	@ tmp195, TIM_MatchConfigStruct
 1417 00c4 DB78     		ldrb	r3, [r3, #3]	@ zero_extendqisi2	@ D.5958, TIM_MatchConfigStruct_2(D)->ResetOnMatch
 1418 00c6 002B     		cmp	r3, #0	@ D.5958,
 1419 00c8 0ED0     		beq	.L86	@,
 412:core/lpc17xx_timer.c **** 		TIMx->MCR |= TIM_RESET_ON_MATCH(TIM_MatchConfigStruct->MatchChannel);
 1420              		.loc 1 412 0
 1421 00ca 7B68     		ldr	r3, [r7, #4]	@ tmp196, TIMx
 1422 00cc 5A69     		ldr	r2, [r3, #20]	@ D.5960, TIMx_1(D)->MCR
 1423 00ce 3B68     		ldr	r3, [r7]	@ tmp197, TIM_MatchConfigStruct
 1424 00d0 1B78     		ldrb	r3, [r3]	@ zero_extendqisi2	@ D.5958, TIM_MatchConfigStruct_2(D)->MatchChannel
 1425 00d2 1946     		mov	r1, r3	@ D.5959, D.5958
 1426 00d4 0B46     		mov	r3, r1	@ tmp198, D.5959
 1427 00d6 5B00     		lsls	r3, r3, #1	@ tmp198, tmp198,
 1428 00d8 0B44     		add	r3, r3, r1	@ D.5959, D.5959
 1429 00da 0133     		adds	r3, r3, #1	@ D.5959, D.5959,
 1430 00dc 0121     		movs	r1, #1	@ tmp199,
 1431 00de 01FA03F3 		lsl	r3, r1, r3	@ D.5959, tmp199, D.5959
 1432 00e2 1A43     		orrs	r2, r2, r3	@, D.5960, D.5960, D.5960
 1433 00e4 7B68     		ldr	r3, [r7, #4]	@ tmp200, TIMx
 1434 00e6 5A61     		str	r2, [r3, #20]	@ D.5960, TIMx_1(D)->MCR
 1435              	.L86:
 413:core/lpc17xx_timer.c **** 
 414:core/lpc17xx_timer.c **** 	//stop on MRn
 415:core/lpc17xx_timer.c **** 	if (TIM_MatchConfigStruct->StopOnMatch)
 1436              		.loc 1 415 0
 1437 00e8 3B68     		ldr	r3, [r7]	@ tmp201, TIM_MatchConfigStruct
 1438 00ea 9B78     		ldrb	r3, [r3, #2]	@ zero_extendqisi2	@ D.5958, TIM_MatchConfigStruct_2(D)->StopOnMatch
 1439 00ec 002B     		cmp	r3, #0	@ D.5958,
 1440 00ee 0ED0     		beq	.L87	@,
 416:core/lpc17xx_timer.c **** 		TIMx->MCR |= TIM_STOP_ON_MATCH(TIM_MatchConfigStruct->MatchChannel);
 1441              		.loc 1 416 0
 1442 00f0 7B68     		ldr	r3, [r7, #4]	@ tmp202, TIMx
 1443 00f2 5A69     		ldr	r2, [r3, #20]	@ D.5960, TIMx_1(D)->MCR
 1444 00f4 3B68     		ldr	r3, [r7]	@ tmp203, TIM_MatchConfigStruct
 1445 00f6 1B78     		ldrb	r3, [r3]	@ zero_extendqisi2	@ D.5958, TIM_MatchConfigStruct_2(D)->MatchChannel
 1446 00f8 1946     		mov	r1, r3	@ D.5959, D.5958
 1447 00fa 0B46     		mov	r3, r1	@ tmp204, D.5959
 1448 00fc 5B00     		lsls	r3, r3, #1	@ tmp204, tmp204,
 1449 00fe 0B44     		add	r3, r3, r1	@ D.5959, D.5959
 1450 0100 0233     		adds	r3, r3, #2	@ D.5959, D.5959,
 1451 0102 0121     		movs	r1, #1	@ tmp205,
 1452 0104 01FA03F3 		lsl	r3, r1, r3	@ D.5959, tmp205, D.5959
 1453 0108 1A43     		orrs	r2, r2, r3	@, D.5960, D.5960, D.5960
 1454 010a 7B68     		ldr	r3, [r7, #4]	@ tmp206, TIMx
 1455 010c 5A61     		str	r2, [r3, #20]	@ D.5960, TIMx_1(D)->MCR
 1456              	.L87:
 417:core/lpc17xx_timer.c **** //	TIMx->MCR = 0x02;
 418:core/lpc17xx_timer.c **** 
 419:core/lpc17xx_timer.c **** 	// match output type
 420:core/lpc17xx_timer.c **** 
 421:core/lpc17xx_timer.c **** 	TIMx->EMR 	&= ~TIM_EM_MASK(TIM_MatchConfigStruct->MatchChannel);
ARM GAS  C:\Users\COSMIN~1.MAR\AppData\Local\Temp\cccNbcra.s 			page 34


 1457              		.loc 1 421 0
 1458 010e 7B68     		ldr	r3, [r7, #4]	@ tmp207, TIMx
 1459 0110 DB6B     		ldr	r3, [r3, #60]	@ D.5960, TIMx_1(D)->EMR
 1460 0112 3A68     		ldr	r2, [r7]	@ tmp208, TIM_MatchConfigStruct
 1461 0114 1278     		ldrb	r2, [r2]	@ zero_extendqisi2	@ D.5958, TIM_MatchConfigStruct_2(D)->MatchChannel
 1462 0116 5200     		lsls	r2, r2, #1	@ D.5959, D.5959,
 1463 0118 0432     		adds	r2, r2, #4	@ D.5959, D.5959,
 1464 011a 0321     		movs	r1, #3	@ tmp209,
 1465 011c 01FA02F2 		lsl	r2, r1, r2	@ D.5959, tmp209, D.5959
 1466 0120 D243     		mvns	r2, r2	@ D.5959, D.5959
 1467 0122 1A40     		ands	r2, r2, r3	@, D.5960, D.5960, D.5960
 1468 0124 7B68     		ldr	r3, [r7, #4]	@ tmp210, TIMx
 1469 0126 DA63     		str	r2, [r3, #60]	@ D.5960, TIMx_1(D)->EMR
 422:core/lpc17xx_timer.c **** 	TIMx->EMR    = TIM_EM_SET(TIM_MatchConfigStruct->MatchChannel,TIM_MatchConfigStruct->ExtMatchOutpu
 1470              		.loc 1 422 0
 1471 0128 3B68     		ldr	r3, [r7]	@ tmp211, TIM_MatchConfigStruct
 1472 012a 1B79     		ldrb	r3, [r3, #4]	@ zero_extendqisi2	@ D.5958, TIM_MatchConfigStruct_2(D)->ExtMatchOutputType
 1473 012c 03F00302 		and	r2, r3, #3	@ D.5959, D.5959,
 1474 0130 3B68     		ldr	r3, [r7]	@ tmp212, TIM_MatchConfigStruct
 1475 0132 1B78     		ldrb	r3, [r3]	@ zero_extendqisi2	@ D.5958, TIM_MatchConfigStruct_2(D)->MatchChannel
 1476 0134 5B00     		lsls	r3, r3, #1	@ D.5959, D.5959,
 1477 0136 0433     		adds	r3, r3, #4	@ D.5959, D.5959,
 1478 0138 02FA03F3 		lsl	r3, r2, r3	@ D.5959, D.5959, D.5959
 1479 013c 1A46     		mov	r2, r3	@ D.5960, D.5959
 1480 013e 7B68     		ldr	r3, [r7, #4]	@ tmp213, TIMx
 1481 0140 DA63     		str	r2, [r3, #60]	@ D.5960, TIMx_1(D)->EMR
 423:core/lpc17xx_timer.c **** }
 1482              		.loc 1 423 0
 1483 0142 1037     		adds	r7, r7, #16	@,,
 1484              		.cfi_def_cfa_offset 8
 1485 0144 BD46     		mov	sp, r7	@,
 1486              		.cfi_def_cfa_register 13
 1487              		@ sp needed	@
 1488 0146 80BD     		pop	{r7, pc}	@
 1489              	.L89:
 1490              		.align	2
 1491              	.L88:
 1492 0148 00800040 		.word	1073774592
 1493 014c 00000940 		.word	1074331648
 1494 0150 00400940 		.word	1074348032
 1495 0154 00000000 		.word	.LC0
 1496              		.cfi_endproc
 1497              	.LFE67:
 1498              		.size	TIM_ConfigMatch, .-TIM_ConfigMatch
 1499              		.section	.text.TIM_ConfigCapture,"ax",%progbits
 1500              		.align	2
 1501              		.global	TIM_ConfigCapture
 1502              		.thumb
 1503              		.thumb_func
 1504              		.type	TIM_ConfigCapture, %function
 1505              	TIM_ConfigCapture:
 1506              	.LFB68:
 424:core/lpc17xx_timer.c **** /*********************************************************************//**
 425:core/lpc17xx_timer.c ****  * @brief 		Configuration for Capture register
 426:core/lpc17xx_timer.c ****  * @param[in]	TIMx Pointer to timer device
 427:core/lpc17xx_timer.c ****  * 					- CaptureChannel: set the channel to capture data
 428:core/lpc17xx_timer.c ****  * 					- RisingEdge    : if SET, Capture at rising edge
ARM GAS  C:\Users\COSMIN~1.MAR\AppData\Local\Temp\cccNbcra.s 			page 35


 429:core/lpc17xx_timer.c ****  * 					- FallingEdge	: if SET, Capture at falling edge
 430:core/lpc17xx_timer.c ****  * 					- IntOnCaption  : if SET, Capture generate interrupt
 431:core/lpc17xx_timer.c ****  * @param[in]   TIM_CaptureConfigStruct	Pointer to TIM_CAPTURECFG_Type
 432:core/lpc17xx_timer.c ****  * @return 		None
 433:core/lpc17xx_timer.c ****  **********************************************************************/
 434:core/lpc17xx_timer.c **** void TIM_ConfigCapture(LPC_TIM_TypeDef *TIMx, TIM_CAPTURECFG_Type *TIM_CaptureConfigStruct)
 435:core/lpc17xx_timer.c **** {
 1507              		.loc 1 435 0
 1508              		.cfi_startproc
 1509              		@ args = 0, pretend = 0, frame = 16
 1510              		@ frame_needed = 1, uses_anonymous_args = 0
 1511 0000 80B5     		push	{r7, lr}	@
 1512              		.cfi_def_cfa_offset 8
 1513              		.cfi_offset 7, -8
 1514              		.cfi_offset 14, -4
 1515 0002 84B0     		sub	sp, sp, #16	@,,
 1516              		.cfi_def_cfa_offset 24
 1517 0004 00AF     		add	r7, sp, #0	@,,
 1518              		.cfi_def_cfa_register 7
 1519 0006 7860     		str	r0, [r7, #4]	@ TIMx, TIMx
 1520 0008 3960     		str	r1, [r7]	@ TIM_CaptureConfigStruct, TIM_CaptureConfigStruct
 436:core/lpc17xx_timer.c **** 	uint32_t timer;
 437:core/lpc17xx_timer.c **** 
 438:core/lpc17xx_timer.c **** 	CHECK_PARAM(PARAM_TIMx(TIMx));
 1521              		.loc 1 438 0
 1522 000a 7B68     		ldr	r3, [r7, #4]	@ tmp143, TIMx
 1523 000c B3F1402F 		cmp	r3, #1073758208	@ tmp143,
 1524 0010 10D0     		beq	.L91	@,
 1525              		.loc 1 438 0 is_stmt 0 discriminator 1
 1526 0012 7B68     		ldr	r3, [r7, #4]	@ tmp144, TIMx
 1527 0014 2C4A     		ldr	r2, .L95	@ tmp145,
 1528 0016 9342     		cmp	r3, r2	@ tmp144, tmp145
 1529 0018 0CD0     		beq	.L91	@,
 1530              		.loc 1 438 0 discriminator 2
 1531 001a 7B68     		ldr	r3, [r7, #4]	@ tmp146, TIMx
 1532 001c 2B4A     		ldr	r2, .L95+4	@ tmp147,
 1533 001e 9342     		cmp	r3, r2	@ tmp146, tmp147
 1534 0020 08D0     		beq	.L91	@,
 1535              		.loc 1 438 0 discriminator 3
 1536 0022 7B68     		ldr	r3, [r7, #4]	@ tmp148, TIMx
 1537 0024 2A4A     		ldr	r2, .L95+8	@ tmp149,
 1538 0026 9342     		cmp	r3, r2	@ tmp148, tmp149
 1539 0028 04D0     		beq	.L91	@,
 1540              		.loc 1 438 0 discriminator 4
 1541 002a 2A48     		ldr	r0, .L95+12	@,
 1542 002c 4FF4DB71 		mov	r1, #438	@,
 1543 0030 FFF7FEFF 		bl	check_failed	@
 1544              	.L91:
 439:core/lpc17xx_timer.c **** 	timer = TIM_ConverPtrToTimeNum(TIMx) ;
 1545              		.loc 1 439 0 is_stmt 1
 1546 0034 7868     		ldr	r0, [r7, #4]	@, TIMx
 1547 0036 FFF7FEFF 		bl	TIM_ConverPtrToTimeNum	@
 1548 003a F860     		str	r0, [r7, #12]	@, timer
 440:core/lpc17xx_timer.c **** 	TIMx->CCR &= ~TIM_CCR_CHANNEL_MASKBIT(TIM_CaptureConfigStruct->CaptureChannel);
 1549              		.loc 1 440 0
 1550 003c 7B68     		ldr	r3, [r7, #4]	@ tmp150, TIMx
 1551 003e 9A6A     		ldr	r2, [r3, #40]	@ D.5961, TIMx_1(D)->CCR
ARM GAS  C:\Users\COSMIN~1.MAR\AppData\Local\Temp\cccNbcra.s 			page 36


 1552 0040 3B68     		ldr	r3, [r7]	@ tmp151, TIM_CaptureConfigStruct
 1553 0042 1B78     		ldrb	r3, [r3]	@ zero_extendqisi2	@ D.5962, TIM_CaptureConfigStruct_4(D)->CaptureChannel
 1554 0044 1946     		mov	r1, r3	@ D.5963, D.5962
 1555 0046 0723     		movs	r3, #7	@ tmp152,
 1556 0048 8B40     		lsls	r3, r3, r1	@ D.5963, tmp152, D.5963
 1557 004a DB43     		mvns	r3, r3	@ D.5961, D.5961
 1558 004c 1A40     		ands	r2, r2, r3	@, D.5961, D.5961, D.5961
 1559 004e 7B68     		ldr	r3, [r7, #4]	@ tmp153, TIMx
 1560 0050 9A62     		str	r2, [r3, #40]	@ D.5961, TIMx_1(D)->CCR
 441:core/lpc17xx_timer.c **** 
 442:core/lpc17xx_timer.c **** 	if (TIM_CaptureConfigStruct->RisingEdge)
 1561              		.loc 1 442 0
 1562 0052 3B68     		ldr	r3, [r7]	@ tmp154, TIM_CaptureConfigStruct
 1563 0054 5B78     		ldrb	r3, [r3, #1]	@ zero_extendqisi2	@ D.5962, TIM_CaptureConfigStruct_4(D)->RisingEdge
 1564 0056 002B     		cmp	r3, #0	@ D.5962,
 1565 0058 0DD0     		beq	.L92	@,
 443:core/lpc17xx_timer.c **** 		TIMx->CCR |= TIM_CAP_RISING(TIM_CaptureConfigStruct->CaptureChannel);
 1566              		.loc 1 443 0
 1567 005a 7B68     		ldr	r3, [r7, #4]	@ tmp155, TIMx
 1568 005c 9A6A     		ldr	r2, [r3, #40]	@ D.5961, TIMx_1(D)->CCR
 1569 005e 3B68     		ldr	r3, [r7]	@ tmp156, TIM_CaptureConfigStruct
 1570 0060 1B78     		ldrb	r3, [r3]	@ zero_extendqisi2	@ D.5962, TIM_CaptureConfigStruct_4(D)->CaptureChannel
 1571 0062 1946     		mov	r1, r3	@ D.5963, D.5962
 1572 0064 0B46     		mov	r3, r1	@ tmp157, D.5963
 1573 0066 5B00     		lsls	r3, r3, #1	@ tmp157, tmp157,
 1574 0068 0B44     		add	r3, r3, r1	@ D.5963, D.5963
 1575 006a 0121     		movs	r1, #1	@ tmp158,
 1576 006c 01FA03F3 		lsl	r3, r1, r3	@ D.5963, tmp158, D.5963
 1577 0070 1A43     		orrs	r2, r2, r3	@, D.5961, D.5961, D.5961
 1578 0072 7B68     		ldr	r3, [r7, #4]	@ tmp159, TIMx
 1579 0074 9A62     		str	r2, [r3, #40]	@ D.5961, TIMx_1(D)->CCR
 1580              	.L92:
 444:core/lpc17xx_timer.c **** 
 445:core/lpc17xx_timer.c **** 	if (TIM_CaptureConfigStruct->FallingEdge)
 1581              		.loc 1 445 0
 1582 0076 3B68     		ldr	r3, [r7]	@ tmp160, TIM_CaptureConfigStruct
 1583 0078 9B78     		ldrb	r3, [r3, #2]	@ zero_extendqisi2	@ D.5962, TIM_CaptureConfigStruct_4(D)->FallingEdge
 1584 007a 002B     		cmp	r3, #0	@ D.5962,
 1585 007c 0ED0     		beq	.L93	@,
 446:core/lpc17xx_timer.c **** 		TIMx->CCR |= TIM_CAP_FALLING(TIM_CaptureConfigStruct->CaptureChannel);
 1586              		.loc 1 446 0
 1587 007e 7B68     		ldr	r3, [r7, #4]	@ tmp161, TIMx
 1588 0080 9A6A     		ldr	r2, [r3, #40]	@ D.5961, TIMx_1(D)->CCR
 1589 0082 3B68     		ldr	r3, [r7]	@ tmp162, TIM_CaptureConfigStruct
 1590 0084 1B78     		ldrb	r3, [r3]	@ zero_extendqisi2	@ D.5962, TIM_CaptureConfigStruct_4(D)->CaptureChannel
 1591 0086 1946     		mov	r1, r3	@ D.5963, D.5962
 1592 0088 0B46     		mov	r3, r1	@ tmp163, D.5963
 1593 008a 5B00     		lsls	r3, r3, #1	@ tmp163, tmp163,
 1594 008c 0B44     		add	r3, r3, r1	@ D.5963, D.5963
 1595 008e 0133     		adds	r3, r3, #1	@ D.5963, D.5963,
 1596 0090 0121     		movs	r1, #1	@ tmp164,
 1597 0092 01FA03F3 		lsl	r3, r1, r3	@ D.5963, tmp164, D.5963
 1598 0096 1A43     		orrs	r2, r2, r3	@, D.5961, D.5961, D.5961
 1599 0098 7B68     		ldr	r3, [r7, #4]	@ tmp165, TIMx
 1600 009a 9A62     		str	r2, [r3, #40]	@ D.5961, TIMx_1(D)->CCR
 1601              	.L93:
 447:core/lpc17xx_timer.c **** 
ARM GAS  C:\Users\COSMIN~1.MAR\AppData\Local\Temp\cccNbcra.s 			page 37


 448:core/lpc17xx_timer.c **** 	if (TIM_CaptureConfigStruct->IntOnCaption)
 1602              		.loc 1 448 0
 1603 009c 3B68     		ldr	r3, [r7]	@ tmp166, TIM_CaptureConfigStruct
 1604 009e DB78     		ldrb	r3, [r3, #3]	@ zero_extendqisi2	@ D.5962, TIM_CaptureConfigStruct_4(D)->IntOnCaption
 1605 00a0 002B     		cmp	r3, #0	@ D.5962,
 1606 00a2 0ED0     		beq	.L90	@,
 449:core/lpc17xx_timer.c **** 		TIMx->CCR |= TIM_INT_ON_CAP(TIM_CaptureConfigStruct->CaptureChannel);
 1607              		.loc 1 449 0
 1608 00a4 7B68     		ldr	r3, [r7, #4]	@ tmp167, TIMx
 1609 00a6 9A6A     		ldr	r2, [r3, #40]	@ D.5961, TIMx_1(D)->CCR
 1610 00a8 3B68     		ldr	r3, [r7]	@ tmp168, TIM_CaptureConfigStruct
 1611 00aa 1B78     		ldrb	r3, [r3]	@ zero_extendqisi2	@ D.5962, TIM_CaptureConfigStruct_4(D)->CaptureChannel
 1612 00ac 1946     		mov	r1, r3	@ D.5963, D.5962
 1613 00ae 0B46     		mov	r3, r1	@ tmp169, D.5963
 1614 00b0 5B00     		lsls	r3, r3, #1	@ tmp169, tmp169,
 1615 00b2 0B44     		add	r3, r3, r1	@ D.5963, D.5963
 1616 00b4 0233     		adds	r3, r3, #2	@ D.5963, D.5963,
 1617 00b6 0121     		movs	r1, #1	@ tmp170,
 1618 00b8 01FA03F3 		lsl	r3, r1, r3	@ D.5963, tmp170, D.5963
 1619 00bc 1A43     		orrs	r2, r2, r3	@, D.5961, D.5961, D.5961
 1620 00be 7B68     		ldr	r3, [r7, #4]	@ tmp171, TIMx
 1621 00c0 9A62     		str	r2, [r3, #40]	@ D.5961, TIMx_1(D)->CCR
 1622              	.L90:
 450:core/lpc17xx_timer.c **** }
 1623              		.loc 1 450 0
 1624 00c2 1037     		adds	r7, r7, #16	@,,
 1625              		.cfi_def_cfa_offset 8
 1626 00c4 BD46     		mov	sp, r7	@,
 1627              		.cfi_def_cfa_register 13
 1628              		@ sp needed	@
 1629 00c6 80BD     		pop	{r7, pc}	@
 1630              	.L96:
 1631              		.align	2
 1632              	.L95:
 1633 00c8 00800040 		.word	1073774592
 1634 00cc 00000940 		.word	1074331648
 1635 00d0 00400940 		.word	1074348032
 1636 00d4 00000000 		.word	.LC0
 1637              		.cfi_endproc
 1638              	.LFE68:
 1639              		.size	TIM_ConfigCapture, .-TIM_ConfigCapture
 1640              		.section	.text.TIM_GetCaptureValue,"ax",%progbits
 1641              		.align	2
 1642              		.global	TIM_GetCaptureValue
 1643              		.thumb
 1644              		.thumb_func
 1645              		.type	TIM_GetCaptureValue, %function
 1646              	TIM_GetCaptureValue:
 1647              	.LFB69:
 451:core/lpc17xx_timer.c **** 
 452:core/lpc17xx_timer.c **** /*********************************************************************//**
 453:core/lpc17xx_timer.c ****  * @brief 		Read value of capture register in timer/counter device
 454:core/lpc17xx_timer.c ****  * @param[in]	TIMx Pointer to timer/counter device
 455:core/lpc17xx_timer.c ****  * @param[in]	CaptureChannel: capture channel number
 456:core/lpc17xx_timer.c ****  * @return 		Value of capture register
 457:core/lpc17xx_timer.c ****  **********************************************************************/
 458:core/lpc17xx_timer.c **** uint32_t TIM_GetCaptureValue(LPC_TIM_TypeDef *TIMx, uint8_t CaptureChannel)
ARM GAS  C:\Users\COSMIN~1.MAR\AppData\Local\Temp\cccNbcra.s 			page 38


 459:core/lpc17xx_timer.c **** {
 1648              		.loc 1 459 0
 1649              		.cfi_startproc
 1650              		@ args = 0, pretend = 0, frame = 8
 1651              		@ frame_needed = 1, uses_anonymous_args = 0
 1652 0000 80B5     		push	{r7, lr}	@
 1653              		.cfi_def_cfa_offset 8
 1654              		.cfi_offset 7, -8
 1655              		.cfi_offset 14, -4
 1656 0002 82B0     		sub	sp, sp, #8	@,,
 1657              		.cfi_def_cfa_offset 16
 1658 0004 00AF     		add	r7, sp, #0	@,,
 1659              		.cfi_def_cfa_register 7
 1660 0006 7860     		str	r0, [r7, #4]	@ TIMx, TIMx
 1661 0008 0B46     		mov	r3, r1	@ tmp112, CaptureChannel
 1662 000a FB70     		strb	r3, [r7, #3]	@ tmp113, CaptureChannel
 460:core/lpc17xx_timer.c **** 	CHECK_PARAM(PARAM_TIMx(TIMx));
 1663              		.loc 1 460 0
 1664 000c 7B68     		ldr	r3, [r7, #4]	@ tmp114, TIMx
 1665 000e B3F1402F 		cmp	r3, #1073758208	@ tmp114,
 1666 0012 10D0     		beq	.L98	@,
 1667              		.loc 1 460 0 is_stmt 0 discriminator 1
 1668 0014 7B68     		ldr	r3, [r7, #4]	@ tmp115, TIMx
 1669 0016 134A     		ldr	r2, .L102	@ tmp116,
 1670 0018 9342     		cmp	r3, r2	@ tmp115, tmp116
 1671 001a 0CD0     		beq	.L98	@,
 1672              		.loc 1 460 0 discriminator 2
 1673 001c 7B68     		ldr	r3, [r7, #4]	@ tmp117, TIMx
 1674 001e 124A     		ldr	r2, .L102+4	@ tmp118,
 1675 0020 9342     		cmp	r3, r2	@ tmp117, tmp118
 1676 0022 08D0     		beq	.L98	@,
 1677              		.loc 1 460 0 discriminator 3
 1678 0024 7B68     		ldr	r3, [r7, #4]	@ tmp119, TIMx
 1679 0026 114A     		ldr	r2, .L102+8	@ tmp120,
 1680 0028 9342     		cmp	r3, r2	@ tmp119, tmp120
 1681 002a 04D0     		beq	.L98	@,
 1682              		.loc 1 460 0 discriminator 4
 1683 002c 1048     		ldr	r0, .L102+12	@,
 1684 002e 4FF4E671 		mov	r1, #460	@,
 1685 0032 FFF7FEFF 		bl	check_failed	@
 1686              	.L98:
 461:core/lpc17xx_timer.c **** 	CHECK_PARAM(PARAM_TIM_COUNTER_INPUT_OPT(CaptureChannel));
 1687              		.loc 1 461 0 is_stmt 1
 1688 0036 FB78     		ldrb	r3, [r7, #3]	@ zero_extendqisi2	@ tmp121, CaptureChannel
 1689 0038 002B     		cmp	r3, #0	@ tmp121,
 1690 003a 07D0     		beq	.L99	@,
 1691              		.loc 1 461 0 is_stmt 0 discriminator 1
 1692 003c FB78     		ldrb	r3, [r7, #3]	@ zero_extendqisi2	@ tmp122, CaptureChannel
 1693 003e 012B     		cmp	r3, #1	@ tmp122,
 1694 0040 04D0     		beq	.L99	@,
 1695              		.loc 1 461 0 discriminator 2
 1696 0042 0B48     		ldr	r0, .L102+12	@,
 1697 0044 40F2CD11 		movw	r1, #461	@,
 1698 0048 FFF7FEFF 		bl	check_failed	@
 1699              	.L99:
 462:core/lpc17xx_timer.c **** 
 463:core/lpc17xx_timer.c **** 	if(CaptureChannel==0)
ARM GAS  C:\Users\COSMIN~1.MAR\AppData\Local\Temp\cccNbcra.s 			page 39


 1700              		.loc 1 463 0 is_stmt 1
 1701 004c FB78     		ldrb	r3, [r7, #3]	@ zero_extendqisi2	@ tmp123, CaptureChannel
 1702 004e 002B     		cmp	r3, #0	@ tmp123,
 1703 0050 02D1     		bne	.L100	@,
 464:core/lpc17xx_timer.c **** 		return TIMx->CR0;
 1704              		.loc 1 464 0
 1705 0052 7B68     		ldr	r3, [r7, #4]	@ tmp124, TIMx
 1706 0054 DB6A     		ldr	r3, [r3, #44]	@ D.5964, TIMx_2(D)->CR0
 1707 0056 01E0     		b	.L101	@
 1708              	.L100:
 465:core/lpc17xx_timer.c **** 	else
 466:core/lpc17xx_timer.c **** 		return TIMx->CR1;
 1709              		.loc 1 466 0
 1710 0058 7B68     		ldr	r3, [r7, #4]	@ tmp125, TIMx
 1711 005a 1B6B     		ldr	r3, [r3, #48]	@ D.5964, TIMx_2(D)->CR1
 1712              	.L101:
 467:core/lpc17xx_timer.c **** }
 1713              		.loc 1 467 0
 1714 005c 1846     		mov	r0, r3	@, <retval>
 1715 005e 0837     		adds	r7, r7, #8	@,,
 1716              		.cfi_def_cfa_offset 8
 1717 0060 BD46     		mov	sp, r7	@,
 1718              		.cfi_def_cfa_register 13
 1719              		@ sp needed	@
 1720 0062 80BD     		pop	{r7, pc}	@
 1721              	.L103:
 1722              		.align	2
 1723              	.L102:
 1724 0064 00800040 		.word	1073774592
 1725 0068 00000940 		.word	1074331648
 1726 006c 00400940 		.word	1074348032
 1727 0070 00000000 		.word	.LC0
 1728              		.cfi_endproc
 1729              	.LFE69:
 1730              		.size	TIM_GetCaptureValue, .-TIM_GetCaptureValue
 1731              		.section	.text.Timer0_Wait,"ax",%progbits
 1732              		.align	2
 1733              		.global	Timer0_Wait
 1734              		.thumb
 1735              		.thumb_func
 1736              		.type	Timer0_Wait, %function
 1737              	Timer0_Wait:
 1738              	.LFB70:
 468:core/lpc17xx_timer.c **** 
 469:core/lpc17xx_timer.c **** /**
 470:core/lpc17xx_timer.c ****  * @}
 471:core/lpc17xx_timer.c ****  */
 472:core/lpc17xx_timer.c **** 
 473:core/lpc17xx_timer.c **** 
 474:core/lpc17xx_timer.c **** void Timer0_Wait(uint32_t time)
 475:core/lpc17xx_timer.c **** {
 1739              		.loc 1 475 0
 1740              		.cfi_startproc
 1741              		@ args = 0, pretend = 0, frame = 32
 1742              		@ frame_needed = 1, uses_anonymous_args = 0
 1743 0000 80B5     		push	{r7, lr}	@
 1744              		.cfi_def_cfa_offset 8
ARM GAS  C:\Users\COSMIN~1.MAR\AppData\Local\Temp\cccNbcra.s 			page 40


 1745              		.cfi_offset 7, -8
 1746              		.cfi_offset 14, -4
 1747 0002 88B0     		sub	sp, sp, #32	@,,
 1748              		.cfi_def_cfa_offset 40
 1749 0004 00AF     		add	r7, sp, #0	@,,
 1750              		.cfi_def_cfa_register 7
 1751 0006 7860     		str	r0, [r7, #4]	@ time, time
 476:core/lpc17xx_timer.c **** 	TIM_TIMERCFG_Type TIM_ConfigStruct;
 477:core/lpc17xx_timer.c **** 	TIM_MATCHCFG_Type TIM_MatchConfigStruct ;
 478:core/lpc17xx_timer.c **** 
 479:core/lpc17xx_timer.c **** // Initialize timer 0, prescale count time of 1ms
 480:core/lpc17xx_timer.c **** 	TIM_ConfigStruct.PrescaleOption = TIM_PRESCALE_USVAL;
 1752              		.loc 1 480 0
 1753 0008 0123     		movs	r3, #1	@ tmp111,
 1754 000a 3B76     		strb	r3, [r7, #24]	@ tmp112, TIM_ConfigStruct.PrescaleOption
 481:core/lpc17xx_timer.c **** 	TIM_ConfigStruct.PrescaleValue	= 1000;
 1755              		.loc 1 481 0
 1756 000c 4FF47A73 		mov	r3, #1000	@ tmp113,
 1757 0010 FB61     		str	r3, [r7, #28]	@ tmp113, TIM_ConfigStruct.PrescaleValue
 482:core/lpc17xx_timer.c **** 	// use channel 0, MR0
 483:core/lpc17xx_timer.c **** 	TIM_MatchConfigStruct.MatchChannel = 0;
 1758              		.loc 1 483 0
 1759 0012 0023     		movs	r3, #0	@ tmp114,
 1760 0014 3B73     		strb	r3, [r7, #12]	@ tmp115, TIM_MatchConfigStruct.MatchChannel
 484:core/lpc17xx_timer.c **** 	// Enable interrupt when MR0 matches the value in TC register
 485:core/lpc17xx_timer.c **** 	TIM_MatchConfigStruct.IntOnMatch   = TRUE;
 1761              		.loc 1 485 0
 1762 0016 0123     		movs	r3, #1	@ tmp116,
 1763 0018 7B73     		strb	r3, [r7, #13]	@ tmp117, TIM_MatchConfigStruct.IntOnMatch
 486:core/lpc17xx_timer.c **** 	//Enable reset on MR0: TIMER will not reset if MR0 matches it
 487:core/lpc17xx_timer.c **** 	TIM_MatchConfigStruct.ResetOnMatch = FALSE;
 1764              		.loc 1 487 0
 1765 001a 0023     		movs	r3, #0	@ tmp118,
 1766 001c FB73     		strb	r3, [r7, #15]	@ tmp119, TIM_MatchConfigStruct.ResetOnMatch
 488:core/lpc17xx_timer.c **** 	//Stop on MR0 if MR0 matches it
 489:core/lpc17xx_timer.c **** 	TIM_MatchConfigStruct.StopOnMatch  = TRUE;
 1767              		.loc 1 489 0
 1768 001e 0123     		movs	r3, #1	@ tmp120,
 1769 0020 BB73     		strb	r3, [r7, #14]	@ tmp121, TIM_MatchConfigStruct.StopOnMatch
 490:core/lpc17xx_timer.c **** 	//do no thing for external output
 491:core/lpc17xx_timer.c **** 	TIM_MatchConfigStruct.ExtMatchOutputType =TIM_EXTMATCH_NOTHING;
 1770              		.loc 1 491 0
 1771 0022 0023     		movs	r3, #0	@ tmp122,
 1772 0024 3B74     		strb	r3, [r7, #16]	@ tmp123, TIM_MatchConfigStruct.ExtMatchOutputType
 492:core/lpc17xx_timer.c **** 	// Set Match value, count value is time (timer * 1000uS =timer mS )
 493:core/lpc17xx_timer.c **** 	TIM_MatchConfigStruct.MatchValue   = time;
 1773              		.loc 1 493 0
 1774 0026 7B68     		ldr	r3, [r7, #4]	@ tmp124, time
 1775 0028 7B61     		str	r3, [r7, #20]	@ tmp124, TIM_MatchConfigStruct.MatchValue
 494:core/lpc17xx_timer.c **** 
 495:core/lpc17xx_timer.c **** 	// Set configuration for Tim_config and Tim_MatchConfig
 496:core/lpc17xx_timer.c **** 	TIM_Init(LPC_TIM0, TIM_TIMER_MODE,&TIM_ConfigStruct);
 1776              		.loc 1 496 0
 1777 002a 07F11803 		add	r3, r7, #24	@ tmp125,,
 1778 002e 4FF04020 		mov	r0, #1073758208	@,
 1779 0032 0021     		movs	r1, #0	@,
 1780 0034 1A46     		mov	r2, r3	@, tmp125
ARM GAS  C:\Users\COSMIN~1.MAR\AppData\Local\Temp\cccNbcra.s 			page 41


 1781 0036 FFF7FEFF 		bl	TIM_Init	@
 497:core/lpc17xx_timer.c **** 	TIM_ConfigMatch(LPC_TIM0,&TIM_MatchConfigStruct);
 1782              		.loc 1 497 0
 1783 003a 07F10C03 		add	r3, r7, #12	@ tmp126,,
 1784 003e 4FF04020 		mov	r0, #1073758208	@,
 1785 0042 1946     		mov	r1, r3	@, tmp126
 1786 0044 FFF7FEFF 		bl	TIM_ConfigMatch	@
 498:core/lpc17xx_timer.c **** 	// To start timer 0
 499:core/lpc17xx_timer.c **** 	TIM_Cmd(LPC_TIM0,ENABLE);
 1787              		.loc 1 499 0
 1788 0048 4FF04020 		mov	r0, #1073758208	@,
 1789 004c 0121     		movs	r1, #1	@,
 1790 004e FFF7FEFF 		bl	TIM_Cmd	@
 500:core/lpc17xx_timer.c **** 	while ( !(TIM_GetIntStatus(LPC_TIM0,0)));
 1791              		.loc 1 500 0
 1792 0052 00BF     		nop
 1793              	.L105:
 1794              		.loc 1 500 0 is_stmt 0 discriminator 1
 1795 0054 4FF04020 		mov	r0, #1073758208	@,
 1796 0058 0021     		movs	r1, #0	@,
 1797 005a FFF7FEFF 		bl	TIM_GetIntStatus	@
 1798 005e 0346     		mov	r3, r0	@ tmp127,
 1799 0060 002B     		cmp	r3, #0	@ D.5965,
 1800 0062 F7D0     		beq	.L105	@,
 501:core/lpc17xx_timer.c **** 		TIM_ClearIntPending(LPC_TIM0,0);
 1801              		.loc 1 501 0 is_stmt 1
 1802 0064 4FF04020 		mov	r0, #1073758208	@,
 1803 0068 0021     		movs	r1, #0	@,
 1804 006a FFF7FEFF 		bl	TIM_ClearIntPending	@
 502:core/lpc17xx_timer.c **** }
 1805              		.loc 1 502 0
 1806 006e 2037     		adds	r7, r7, #32	@,,
 1807              		.cfi_def_cfa_offset 8
 1808 0070 BD46     		mov	sp, r7	@,
 1809              		.cfi_def_cfa_register 13
 1810              		@ sp needed	@
 1811 0072 80BD     		pop	{r7, pc}	@
 1812              		.cfi_endproc
 1813              	.LFE70:
 1814              		.size	Timer0_Wait, .-Timer0_Wait
 1815              		.section	.text.Timer0_us_Wait,"ax",%progbits
 1816              		.align	2
 1817              		.global	Timer0_us_Wait
 1818              		.thumb
 1819              		.thumb_func
 1820              		.type	Timer0_us_Wait, %function
 1821              	Timer0_us_Wait:
 1822              	.LFB71:
 503:core/lpc17xx_timer.c **** 
 504:core/lpc17xx_timer.c **** void Timer0_us_Wait(uint32_t time)
 505:core/lpc17xx_timer.c **** {
 1823              		.loc 1 505 0
 1824              		.cfi_startproc
 1825              		@ args = 0, pretend = 0, frame = 32
 1826              		@ frame_needed = 1, uses_anonymous_args = 0
 1827 0000 80B5     		push	{r7, lr}	@
 1828              		.cfi_def_cfa_offset 8
ARM GAS  C:\Users\COSMIN~1.MAR\AppData\Local\Temp\cccNbcra.s 			page 42


 1829              		.cfi_offset 7, -8
 1830              		.cfi_offset 14, -4
 1831 0002 88B0     		sub	sp, sp, #32	@,,
 1832              		.cfi_def_cfa_offset 40
 1833 0004 00AF     		add	r7, sp, #0	@,,
 1834              		.cfi_def_cfa_register 7
 1835 0006 7860     		str	r0, [r7, #4]	@ time, time
 506:core/lpc17xx_timer.c **** 	TIM_TIMERCFG_Type TIM_ConfigStruct;
 507:core/lpc17xx_timer.c **** 	TIM_MATCHCFG_Type TIM_MatchConfigStruct ;
 508:core/lpc17xx_timer.c **** 
 509:core/lpc17xx_timer.c **** // Initialize timer 0, prescale count time of 1ms
 510:core/lpc17xx_timer.c **** 	TIM_ConfigStruct.PrescaleOption = TIM_PRESCALE_USVAL;
 1836              		.loc 1 510 0
 1837 0008 0123     		movs	r3, #1	@ tmp111,
 1838 000a 3B76     		strb	r3, [r7, #24]	@ tmp112, TIM_ConfigStruct.PrescaleOption
 511:core/lpc17xx_timer.c **** 	TIM_ConfigStruct.PrescaleValue	= 1;
 1839              		.loc 1 511 0
 1840 000c 0123     		movs	r3, #1	@ tmp113,
 1841 000e FB61     		str	r3, [r7, #28]	@ tmp113, TIM_ConfigStruct.PrescaleValue
 512:core/lpc17xx_timer.c **** 	// use channel 0, MR0
 513:core/lpc17xx_timer.c **** 	TIM_MatchConfigStruct.MatchChannel = 0;
 1842              		.loc 1 513 0
 1843 0010 0023     		movs	r3, #0	@ tmp114,
 1844 0012 3B73     		strb	r3, [r7, #12]	@ tmp115, TIM_MatchConfigStruct.MatchChannel
 514:core/lpc17xx_timer.c **** 	// Enable interrupt when MR0 matches the value in TC register
 515:core/lpc17xx_timer.c **** 	TIM_MatchConfigStruct.IntOnMatch   = TRUE;
 1845              		.loc 1 515 0
 1846 0014 0123     		movs	r3, #1	@ tmp116,
 1847 0016 7B73     		strb	r3, [r7, #13]	@ tmp117, TIM_MatchConfigStruct.IntOnMatch
 516:core/lpc17xx_timer.c **** 	//Enable reset on MR0: TIMER will not reset if MR0 matches it
 517:core/lpc17xx_timer.c **** 	TIM_MatchConfigStruct.ResetOnMatch = FALSE;
 1848              		.loc 1 517 0
 1849 0018 0023     		movs	r3, #0	@ tmp118,
 1850 001a FB73     		strb	r3, [r7, #15]	@ tmp119, TIM_MatchConfigStruct.ResetOnMatch
 518:core/lpc17xx_timer.c **** 	//Stop on MR0 if MR0 matches it
 519:core/lpc17xx_timer.c **** 	TIM_MatchConfigStruct.StopOnMatch  = TRUE;
 1851              		.loc 1 519 0
 1852 001c 0123     		movs	r3, #1	@ tmp120,
 1853 001e BB73     		strb	r3, [r7, #14]	@ tmp121, TIM_MatchConfigStruct.StopOnMatch
 520:core/lpc17xx_timer.c **** 	//do no thing for external output
 521:core/lpc17xx_timer.c **** 	TIM_MatchConfigStruct.ExtMatchOutputType =TIM_EXTMATCH_NOTHING;
 1854              		.loc 1 521 0
 1855 0020 0023     		movs	r3, #0	@ tmp122,
 1856 0022 3B74     		strb	r3, [r7, #16]	@ tmp123, TIM_MatchConfigStruct.ExtMatchOutputType
 522:core/lpc17xx_timer.c **** 	// Set Match value, count value is time (timer * 1000uS =timer mS )
 523:core/lpc17xx_timer.c **** 	TIM_MatchConfigStruct.MatchValue   = time;
 1857              		.loc 1 523 0
 1858 0024 7B68     		ldr	r3, [r7, #4]	@ tmp124, time
 1859 0026 7B61     		str	r3, [r7, #20]	@ tmp124, TIM_MatchConfigStruct.MatchValue
 524:core/lpc17xx_timer.c **** 
 525:core/lpc17xx_timer.c **** 	// Set configuration for Tim_config and Tim_MatchConfig
 526:core/lpc17xx_timer.c **** 	TIM_Init(LPC_TIM0, TIM_TIMER_MODE,&TIM_ConfigStruct);
 1860              		.loc 1 526 0
 1861 0028 07F11803 		add	r3, r7, #24	@ tmp125,,
 1862 002c 4FF04020 		mov	r0, #1073758208	@,
 1863 0030 0021     		movs	r1, #0	@,
 1864 0032 1A46     		mov	r2, r3	@, tmp125
ARM GAS  C:\Users\COSMIN~1.MAR\AppData\Local\Temp\cccNbcra.s 			page 43


 1865 0034 FFF7FEFF 		bl	TIM_Init	@
 527:core/lpc17xx_timer.c **** 	TIM_ConfigMatch(LPC_TIM0,&TIM_MatchConfigStruct);
 1866              		.loc 1 527 0
 1867 0038 07F10C03 		add	r3, r7, #12	@ tmp126,,
 1868 003c 4FF04020 		mov	r0, #1073758208	@,
 1869 0040 1946     		mov	r1, r3	@, tmp126
 1870 0042 FFF7FEFF 		bl	TIM_ConfigMatch	@
 528:core/lpc17xx_timer.c **** 	// To start timer 0
 529:core/lpc17xx_timer.c **** 	TIM_Cmd(LPC_TIM0,ENABLE);
 1871              		.loc 1 529 0
 1872 0046 4FF04020 		mov	r0, #1073758208	@,
 1873 004a 0121     		movs	r1, #1	@,
 1874 004c FFF7FEFF 		bl	TIM_Cmd	@
 530:core/lpc17xx_timer.c **** 	while ( !(TIM_GetIntStatus(LPC_TIM0,0)));
 1875              		.loc 1 530 0
 1876 0050 00BF     		nop
 1877              	.L107:
 1878              		.loc 1 530 0 is_stmt 0 discriminator 1
 1879 0052 4FF04020 		mov	r0, #1073758208	@,
 1880 0056 0021     		movs	r1, #0	@,
 1881 0058 FFF7FEFF 		bl	TIM_GetIntStatus	@
 1882 005c 0346     		mov	r3, r0	@ tmp127,
 1883 005e 002B     		cmp	r3, #0	@ D.5966,
 1884 0060 F7D0     		beq	.L107	@,
 531:core/lpc17xx_timer.c **** 		TIM_ClearIntPending(LPC_TIM0,0);
 1885              		.loc 1 531 0 is_stmt 1
 1886 0062 4FF04020 		mov	r0, #1073758208	@,
 1887 0066 0021     		movs	r1, #0	@,
 1888 0068 FFF7FEFF 		bl	TIM_ClearIntPending	@
 532:core/lpc17xx_timer.c **** }
 1889              		.loc 1 532 0
 1890 006c 2037     		adds	r7, r7, #32	@,,
 1891              		.cfi_def_cfa_offset 8
 1892 006e BD46     		mov	sp, r7	@,
 1893              		.cfi_def_cfa_register 13
 1894              		@ sp needed	@
 1895 0070 80BD     		pop	{r7, pc}	@
 1896              		.cfi_endproc
 1897              	.LFE71:
 1898              		.size	Timer0_us_Wait, .-Timer0_us_Wait
 1899 0072 00BF     		.text
 1900              	.Letext0:
 1901              		.file 2 "c:\\gnu tools arm embedded\\4.9 2015q1\\arm-none-eabi\\include\\machine\\_default_types.h
 1902              		.file 3 "c:\\gnu tools arm embedded\\4.9 2015q1\\arm-none-eabi\\include\\stdint.h"
 1903              		.file 4 "system/LPC17xx.h"
 1904              		.file 5 "core/lpc_types.h"
 1905              		.file 6 "core/lpc17xx_timer.h"
 1906              		.file 7 "system/core_cm3.h"
 1907              		.section	.debug_info,"",%progbits
 1908              	.Ldebug_info0:
 1909 0000 82080000 		.4byte	0x882
 1910 0004 0400     		.2byte	0x4
 1911 0006 00000000 		.4byte	.Ldebug_abbrev0
 1912 000a 04       		.byte	0x4
 1913 000b 01       		.uleb128 0x1
 1914 000c 670C0000 		.4byte	.LASF1200
 1915 0010 01       		.byte	0x1
ARM GAS  C:\Users\COSMIN~1.MAR\AppData\Local\Temp\cccNbcra.s 			page 44


 1916 0011 00000000 		.4byte	.LASF1201
 1917 0015 AF930000 		.4byte	.LASF1202
 1918 0019 00000000 		.4byte	.Ldebug_ranges0+0
 1919 001d 00000000 		.4byte	0
 1920 0021 00000000 		.4byte	.Ldebug_line0
 1921 0025 00000000 		.4byte	.Ldebug_macro0
 1922 0029 02       		.uleb128 0x2
 1923 002a 01       		.byte	0x1
 1924 002b 06       		.byte	0x6
 1925 002c A3200000 		.4byte	.LASF1100
 1926 0030 03       		.uleb128 0x3
 1927 0031 F9120000 		.4byte	.LASF1104
 1928 0035 02       		.byte	0x2
 1929 0036 1D       		.byte	0x1d
 1930 0037 3B000000 		.4byte	0x3b
 1931 003b 02       		.uleb128 0x2
 1932 003c 01       		.byte	0x1
 1933 003d 08       		.byte	0x8
 1934 003e CA220000 		.4byte	.LASF1101
 1935 0042 02       		.uleb128 0x2
 1936 0043 02       		.byte	0x2
 1937 0044 05       		.byte	0x5
 1938 0045 D57C0000 		.4byte	.LASF1102
 1939 0049 02       		.uleb128 0x2
 1940 004a 02       		.byte	0x2
 1941 004b 07       		.byte	0x7
 1942 004c 138C0000 		.4byte	.LASF1103
 1943 0050 03       		.uleb128 0x3
 1944 0051 A88F0000 		.4byte	.LASF1105
 1945 0055 02       		.byte	0x2
 1946 0056 3F       		.byte	0x3f
 1947 0057 5B000000 		.4byte	0x5b
 1948 005b 02       		.uleb128 0x2
 1949 005c 04       		.byte	0x4
 1950 005d 05       		.byte	0x5
 1951 005e 5E170000 		.4byte	.LASF1106
 1952 0062 03       		.uleb128 0x3
 1953 0063 4F4D0000 		.4byte	.LASF1107
 1954 0067 02       		.byte	0x2
 1955 0068 41       		.byte	0x41
 1956 0069 6D000000 		.4byte	0x6d
 1957 006d 02       		.uleb128 0x2
 1958 006e 04       		.byte	0x4
 1959 006f 07       		.byte	0x7
 1960 0070 67400000 		.4byte	.LASF1108
 1961 0074 02       		.uleb128 0x2
 1962 0075 08       		.byte	0x8
 1963 0076 05       		.byte	0x5
 1964 0077 364E0000 		.4byte	.LASF1109
 1965 007b 03       		.uleb128 0x3
 1966 007c 913F0000 		.4byte	.LASF1110
 1967 0080 02       		.byte	0x2
 1968 0081 5B       		.byte	0x5b
 1969 0082 86000000 		.4byte	0x86
 1970 0086 02       		.uleb128 0x2
 1971 0087 08       		.byte	0x8
 1972 0088 07       		.byte	0x7
ARM GAS  C:\Users\COSMIN~1.MAR\AppData\Local\Temp\cccNbcra.s 			page 45


 1973 0089 38680000 		.4byte	.LASF1111
 1974 008d 04       		.uleb128 0x4
 1975 008e 04       		.byte	0x4
 1976 008f 05       		.byte	0x5
 1977 0090 696E7400 		.ascii	"int\000"
 1978 0094 02       		.uleb128 0x2
 1979 0095 04       		.byte	0x4
 1980 0096 07       		.byte	0x7
 1981 0097 02560000 		.4byte	.LASF1112
 1982 009b 03       		.uleb128 0x3
 1983 009c AF200000 		.4byte	.LASF1113
 1984 00a0 03       		.byte	0x3
 1985 00a1 15       		.byte	0x15
 1986 00a2 30000000 		.4byte	0x30
 1987 00a6 03       		.uleb128 0x3
 1988 00a7 AF050000 		.4byte	.LASF1114
 1989 00ab 03       		.byte	0x3
 1990 00ac 2C       		.byte	0x2c
 1991 00ad 50000000 		.4byte	0x50
 1992 00b1 03       		.uleb128 0x3
 1993 00b2 93880000 		.4byte	.LASF1115
 1994 00b6 03       		.byte	0x3
 1995 00b7 2D       		.byte	0x2d
 1996 00b8 62000000 		.4byte	0x62
 1997 00bc 03       		.uleb128 0x3
 1998 00bd 207D0000 		.4byte	.LASF1116
 1999 00c1 03       		.byte	0x3
 2000 00c2 39       		.byte	0x39
 2001 00c3 7B000000 		.4byte	0x7b
 2002 00c7 02       		.uleb128 0x2
 2003 00c8 04       		.byte	0x4
 2004 00c9 07       		.byte	0x7
 2005 00ca 18020000 		.4byte	.LASF1117
 2006 00ce 05       		.uleb128 0x5
 2007 00cf B1000000 		.4byte	0xb1
 2008 00d3 06       		.uleb128 0x6
 2009 00d4 CE000000 		.4byte	0xce
 2010 00d8 07       		.uleb128 0x7
 2011 00d9 B1000000 		.4byte	0xb1
 2012 00dd E8000000 		.4byte	0xe8
 2013 00e1 08       		.uleb128 0x8
 2014 00e2 C7000000 		.4byte	0xc7
 2015 00e6 01       		.byte	0x1
 2016 00e7 00       		.byte	0
 2017 00e8 07       		.uleb128 0x7
 2018 00e9 B1000000 		.4byte	0xb1
 2019 00ed F8000000 		.4byte	0xf8
 2020 00f1 08       		.uleb128 0x8
 2021 00f2 C7000000 		.4byte	0xc7
 2022 00f6 0B       		.byte	0xb
 2023 00f7 00       		.byte	0
 2024 00f8 09       		.uleb128 0x9
 2025 00f9 74       		.byte	0x74
 2026 00fa 04       		.byte	0x4
 2027 00fb 1A01     		.2byte	0x11a
 2028 00fd DB010000 		.4byte	0x1db
 2029 0101 0A       		.uleb128 0xa
ARM GAS  C:\Users\COSMIN~1.MAR\AppData\Local\Temp\cccNbcra.s 			page 46


 2030 0102 495200   		.ascii	"IR\000"
 2031 0105 04       		.byte	0x4
 2032 0106 1C01     		.2byte	0x11c
 2033 0108 CE000000 		.4byte	0xce
 2034 010c 00       		.byte	0
 2035 010d 0A       		.uleb128 0xa
 2036 010e 54435200 		.ascii	"TCR\000"
 2037 0112 04       		.byte	0x4
 2038 0113 1D01     		.2byte	0x11d
 2039 0115 CE000000 		.4byte	0xce
 2040 0119 04       		.byte	0x4
 2041 011a 0A       		.uleb128 0xa
 2042 011b 544300   		.ascii	"TC\000"
 2043 011e 04       		.byte	0x4
 2044 011f 1E01     		.2byte	0x11e
 2045 0121 CE000000 		.4byte	0xce
 2046 0125 08       		.byte	0x8
 2047 0126 0A       		.uleb128 0xa
 2048 0127 505200   		.ascii	"PR\000"
 2049 012a 04       		.byte	0x4
 2050 012b 1F01     		.2byte	0x11f
 2051 012d CE000000 		.4byte	0xce
 2052 0131 0C       		.byte	0xc
 2053 0132 0A       		.uleb128 0xa
 2054 0133 504300   		.ascii	"PC\000"
 2055 0136 04       		.byte	0x4
 2056 0137 2001     		.2byte	0x120
 2057 0139 CE000000 		.4byte	0xce
 2058 013d 10       		.byte	0x10
 2059 013e 0A       		.uleb128 0xa
 2060 013f 4D435200 		.ascii	"MCR\000"
 2061 0143 04       		.byte	0x4
 2062 0144 2101     		.2byte	0x121
 2063 0146 CE000000 		.4byte	0xce
 2064 014a 14       		.byte	0x14
 2065 014b 0A       		.uleb128 0xa
 2066 014c 4D523000 		.ascii	"MR0\000"
 2067 0150 04       		.byte	0x4
 2068 0151 2201     		.2byte	0x122
 2069 0153 CE000000 		.4byte	0xce
 2070 0157 18       		.byte	0x18
 2071 0158 0A       		.uleb128 0xa
 2072 0159 4D523100 		.ascii	"MR1\000"
 2073 015d 04       		.byte	0x4
 2074 015e 2301     		.2byte	0x123
 2075 0160 CE000000 		.4byte	0xce
 2076 0164 1C       		.byte	0x1c
 2077 0165 0A       		.uleb128 0xa
 2078 0166 4D523200 		.ascii	"MR2\000"
 2079 016a 04       		.byte	0x4
 2080 016b 2401     		.2byte	0x124
 2081 016d CE000000 		.4byte	0xce
 2082 0171 20       		.byte	0x20
 2083 0172 0A       		.uleb128 0xa
 2084 0173 4D523300 		.ascii	"MR3\000"
 2085 0177 04       		.byte	0x4
 2086 0178 2501     		.2byte	0x125
ARM GAS  C:\Users\COSMIN~1.MAR\AppData\Local\Temp\cccNbcra.s 			page 47


 2087 017a CE000000 		.4byte	0xce
 2088 017e 24       		.byte	0x24
 2089 017f 0A       		.uleb128 0xa
 2090 0180 43435200 		.ascii	"CCR\000"
 2091 0184 04       		.byte	0x4
 2092 0185 2601     		.2byte	0x126
 2093 0187 CE000000 		.4byte	0xce
 2094 018b 28       		.byte	0x28
 2095 018c 0A       		.uleb128 0xa
 2096 018d 43523000 		.ascii	"CR0\000"
 2097 0191 04       		.byte	0x4
 2098 0192 2701     		.2byte	0x127
 2099 0194 D3000000 		.4byte	0xd3
 2100 0198 2C       		.byte	0x2c
 2101 0199 0A       		.uleb128 0xa
 2102 019a 43523100 		.ascii	"CR1\000"
 2103 019e 04       		.byte	0x4
 2104 019f 2801     		.2byte	0x128
 2105 01a1 D3000000 		.4byte	0xd3
 2106 01a5 30       		.byte	0x30
 2107 01a6 0B       		.uleb128 0xb
 2108 01a7 B6220000 		.4byte	.LASF1118
 2109 01ab 04       		.byte	0x4
 2110 01ac 2901     		.2byte	0x129
 2111 01ae D8000000 		.4byte	0xd8
 2112 01b2 34       		.byte	0x34
 2113 01b3 0A       		.uleb128 0xa
 2114 01b4 454D5200 		.ascii	"EMR\000"
 2115 01b8 04       		.byte	0x4
 2116 01b9 2A01     		.2byte	0x12a
 2117 01bb CE000000 		.4byte	0xce
 2118 01bf 3C       		.byte	0x3c
 2119 01c0 0B       		.uleb128 0xb
 2120 01c1 C0220000 		.4byte	.LASF1119
 2121 01c5 04       		.byte	0x4
 2122 01c6 2B01     		.2byte	0x12b
 2123 01c8 E8000000 		.4byte	0xe8
 2124 01cc 40       		.byte	0x40
 2125 01cd 0B       		.uleb128 0xb
 2126 01ce DB0A0000 		.4byte	.LASF1120
 2127 01d2 04       		.byte	0x4
 2128 01d3 2C01     		.2byte	0x12c
 2129 01d5 CE000000 		.4byte	0xce
 2130 01d9 70       		.byte	0x70
 2131 01da 00       		.byte	0
 2132 01db 0C       		.uleb128 0xc
 2133 01dc C95D0000 		.4byte	.LASF1121
 2134 01e0 04       		.byte	0x4
 2135 01e1 2D01     		.2byte	0x12d
 2136 01e3 F8000000 		.4byte	0xf8
 2137 01e7 07       		.uleb128 0x7
 2138 01e8 9B000000 		.4byte	0x9b
 2139 01ec F7010000 		.4byte	0x1f7
 2140 01f0 08       		.uleb128 0x8
 2141 01f1 C7000000 		.4byte	0xc7
 2142 01f5 02       		.byte	0x2
 2143 01f6 00       		.byte	0
ARM GAS  C:\Users\COSMIN~1.MAR\AppData\Local\Temp\cccNbcra.s 			page 48


 2144 01f7 0D       		.uleb128 0xd
 2145 01f8 01       		.byte	0x1
 2146 01f9 05       		.byte	0x5
 2147 01fa 2D       		.byte	0x2d
 2148 01fb 0C020000 		.4byte	0x20c
 2149 01ff 0E       		.uleb128 0xe
 2150 0200 335F0000 		.4byte	.LASF1122
 2151 0204 00       		.sleb128 0
 2152 0205 0E       		.uleb128 0xe
 2153 0206 67800000 		.4byte	.LASF1123
 2154 020a 01       		.sleb128 1
 2155 020b 00       		.byte	0
 2156 020c 0D       		.uleb128 0xd
 2157 020d 01       		.byte	0x1
 2158 020e 05       		.byte	0x5
 2159 020f 32       		.byte	0x32
 2160 0210 21020000 		.4byte	0x221
 2161 0214 0E       		.uleb128 0xe
 2162 0215 ED700000 		.4byte	.LASF1124
 2163 0219 00       		.sleb128 0
 2164 021a 0F       		.uleb128 0xf
 2165 021b 53455400 		.ascii	"SET\000"
 2166 021f 01       		.sleb128 1
 2167 0220 00       		.byte	0
 2168 0221 03       		.uleb128 0x3
 2169 0222 FE730000 		.4byte	.LASF1125
 2170 0226 05       		.byte	0x5
 2171 0227 32       		.byte	0x32
 2172 0228 0C020000 		.4byte	0x20c
 2173 022c 0D       		.uleb128 0xd
 2174 022d 01       		.byte	0x1
 2175 022e 05       		.byte	0x5
 2176 022f 38       		.byte	0x38
 2177 0230 41020000 		.4byte	0x241
 2178 0234 0E       		.uleb128 0xe
 2179 0235 C1600000 		.4byte	.LASF1126
 2180 0239 00       		.sleb128 0
 2181 023a 0E       		.uleb128 0xe
 2182 023b 0C810000 		.4byte	.LASF1127
 2183 023f 01       		.sleb128 1
 2184 0240 00       		.byte	0
 2185 0241 03       		.uleb128 0x3
 2186 0242 46670000 		.4byte	.LASF1128
 2187 0246 05       		.byte	0x5
 2188 0247 38       		.byte	0x38
 2189 0248 2C020000 		.4byte	0x22c
 2190 024c 02       		.uleb128 0x2
 2191 024d 01       		.byte	0x1
 2192 024e 08       		.byte	0x8
 2193 024f F7290000 		.4byte	.LASF1129
 2194 0253 0D       		.uleb128 0xd
 2195 0254 01       		.byte	0x1
 2196 0255 06       		.byte	0x6
 2197 0256 93       		.byte	0x93
 2198 0257 80020000 		.4byte	0x280
 2199 025b 0E       		.uleb128 0xe
 2200 025c 07770000 		.4byte	.LASF1130
ARM GAS  C:\Users\COSMIN~1.MAR\AppData\Local\Temp\cccNbcra.s 			page 49


 2201 0260 00       		.sleb128 0
 2202 0261 0E       		.uleb128 0xe
 2203 0262 0C5F0000 		.4byte	.LASF1131
 2204 0266 01       		.sleb128 1
 2205 0267 0E       		.uleb128 0xe
 2206 0268 524A0000 		.4byte	.LASF1132
 2207 026c 02       		.sleb128 2
 2208 026d 0E       		.uleb128 0xe
 2209 026e 62310000 		.4byte	.LASF1133
 2210 0272 03       		.sleb128 3
 2211 0273 0E       		.uleb128 0xe
 2212 0274 1D910000 		.4byte	.LASF1134
 2213 0278 04       		.sleb128 4
 2214 0279 0E       		.uleb128 0xe
 2215 027a 917B0000 		.4byte	.LASF1135
 2216 027e 05       		.sleb128 5
 2217 027f 00       		.byte	0
 2218 0280 0D       		.uleb128 0xd
 2219 0281 01       		.byte	0x1
 2220 0282 06       		.byte	0x6
 2221 0283 A1       		.byte	0xa1
 2222 0284 A1020000 		.4byte	0x2a1
 2223 0288 0E       		.uleb128 0xe
 2224 0289 31370000 		.4byte	.LASF1136
 2225 028d 00       		.sleb128 0
 2226 028e 0E       		.uleb128 0xe
 2227 028f 408E0000 		.4byte	.LASF1137
 2228 0293 01       		.sleb128 1
 2229 0294 0E       		.uleb128 0xe
 2230 0295 2B240000 		.4byte	.LASF1138
 2231 0299 02       		.sleb128 2
 2232 029a 0E       		.uleb128 0xe
 2233 029b 8C5D0000 		.4byte	.LASF1139
 2234 029f 03       		.sleb128 3
 2235 02a0 00       		.byte	0
 2236 02a1 0D       		.uleb128 0xd
 2237 02a2 01       		.byte	0x1
 2238 02a3 06       		.byte	0x6
 2239 02a4 AB       		.byte	0xab
 2240 02a5 B6020000 		.4byte	0x2b6
 2241 02a9 0E       		.uleb128 0xe
 2242 02aa AD1D0000 		.4byte	.LASF1140
 2243 02ae 00       		.sleb128 0
 2244 02af 0E       		.uleb128 0xe
 2245 02b0 E3350000 		.4byte	.LASF1141
 2246 02b4 01       		.sleb128 1
 2247 02b5 00       		.byte	0
 2248 02b6 0D       		.uleb128 0xd
 2249 02b7 01       		.byte	0x1
 2250 02b8 06       		.byte	0x6
 2251 02b9 B2       		.byte	0xb2
 2252 02ba CB020000 		.4byte	0x2cb
 2253 02be 0E       		.uleb128 0xe
 2254 02bf CC780000 		.4byte	.LASF1142
 2255 02c3 00       		.sleb128 0
 2256 02c4 0E       		.uleb128 0xe
 2257 02c5 DF780000 		.4byte	.LASF1143
ARM GAS  C:\Users\COSMIN~1.MAR\AppData\Local\Temp\cccNbcra.s 			page 50


 2258 02c9 01       		.sleb128 1
 2259 02ca 00       		.byte	0
 2260 02cb 0D       		.uleb128 0xd
 2261 02cc 01       		.byte	0x1
 2262 02cd 06       		.byte	0x6
 2263 02ce BA       		.byte	0xba
 2264 02cf EC020000 		.4byte	0x2ec
 2265 02d3 0E       		.uleb128 0xe
 2266 02d4 BC190000 		.4byte	.LASF1144
 2267 02d8 00       		.sleb128 0
 2268 02d9 0E       		.uleb128 0xe
 2269 02da 2D4B0000 		.4byte	.LASF1145
 2270 02de 01       		.sleb128 1
 2271 02df 0E       		.uleb128 0xe
 2272 02e0 782C0000 		.4byte	.LASF1146
 2273 02e4 02       		.sleb128 2
 2274 02e5 0E       		.uleb128 0xe
 2275 02e6 F6950000 		.4byte	.LASF1147
 2276 02ea 03       		.sleb128 3
 2277 02eb 00       		.byte	0
 2278 02ec 10       		.uleb128 0x10
 2279 02ed 08       		.byte	0x8
 2280 02ee 06       		.byte	0x6
 2281 02ef CF       		.byte	0xcf
 2282 02f0 19030000 		.4byte	0x319
 2283 02f4 11       		.uleb128 0x11
 2284 02f5 A9620000 		.4byte	.LASF1148
 2285 02f9 06       		.byte	0x6
 2286 02fa D2       		.byte	0xd2
 2287 02fb 9B000000 		.4byte	0x9b
 2288 02ff 00       		.byte	0
 2289 0300 11       		.uleb128 0x11
 2290 0301 6C590000 		.4byte	.LASF1149
 2291 0305 06       		.byte	0x6
 2292 0306 D6       		.byte	0xd6
 2293 0307 E7010000 		.4byte	0x1e7
 2294 030b 01       		.byte	0x1
 2295 030c 11       		.uleb128 0x11
 2296 030d C86A0000 		.4byte	.LASF1150
 2297 0311 06       		.byte	0x6
 2298 0312 D7       		.byte	0xd7
 2299 0313 B1000000 		.4byte	0xb1
 2300 0317 04       		.byte	0x4
 2301 0318 00       		.byte	0
 2302 0319 03       		.uleb128 0x3
 2303 031a B5820000 		.4byte	.LASF1151
 2304 031e 06       		.byte	0x6
 2305 031f D8       		.byte	0xd8
 2306 0320 EC020000 		.4byte	0x2ec
 2307 0324 10       		.uleb128 0x10
 2308 0325 04       		.byte	0x4
 2309 0326 06       		.byte	0x6
 2310 0327 DB       		.byte	0xdb
 2311 0328 51030000 		.4byte	0x351
 2312 032c 11       		.uleb128 0x11
 2313 032d D7720000 		.4byte	.LASF1152
 2314 0331 06       		.byte	0x6
ARM GAS  C:\Users\COSMIN~1.MAR\AppData\Local\Temp\cccNbcra.s 			page 51


 2315 0332 DD       		.byte	0xdd
 2316 0333 9B000000 		.4byte	0x9b
 2317 0337 00       		.byte	0
 2318 0338 11       		.uleb128 0x11
 2319 0339 3C2C0000 		.4byte	.LASF1153
 2320 033d 06       		.byte	0x6
 2321 033e E1       		.byte	0xe1
 2322 033f 9B000000 		.4byte	0x9b
 2323 0343 01       		.byte	0x1
 2324 0344 11       		.uleb128 0x11
 2325 0345 6C590000 		.4byte	.LASF1149
 2326 0349 06       		.byte	0x6
 2327 034a E2       		.byte	0xe2
 2328 034b 51030000 		.4byte	0x351
 2329 034f 02       		.byte	0x2
 2330 0350 00       		.byte	0
 2331 0351 07       		.uleb128 0x7
 2332 0352 9B000000 		.4byte	0x9b
 2333 0356 61030000 		.4byte	0x361
 2334 035a 08       		.uleb128 0x8
 2335 035b C7000000 		.4byte	0xc7
 2336 035f 01       		.byte	0x1
 2337 0360 00       		.byte	0
 2338 0361 03       		.uleb128 0x3
 2339 0362 126F0000 		.4byte	.LASF1154
 2340 0366 06       		.byte	0x6
 2341 0367 E3       		.byte	0xe3
 2342 0368 24030000 		.4byte	0x324
 2343 036c 10       		.uleb128 0x10
 2344 036d 0C       		.byte	0xc
 2345 036e 06       		.byte	0x6
 2346 036f E6       		.byte	0xe6
 2347 0370 C9030000 		.4byte	0x3c9
 2348 0374 11       		.uleb128 0x11
 2349 0375 DA8A0000 		.4byte	.LASF1155
 2350 0379 06       		.byte	0x6
 2351 037a E7       		.byte	0xe7
 2352 037b 9B000000 		.4byte	0x9b
 2353 037f 00       		.byte	0
 2354 0380 11       		.uleb128 0x11
 2355 0381 79550000 		.4byte	.LASF1156
 2356 0385 06       		.byte	0x6
 2357 0386 E9       		.byte	0xe9
 2358 0387 9B000000 		.4byte	0x9b
 2359 038b 01       		.byte	0x1
 2360 038c 11       		.uleb128 0x11
 2361 038d D6840000 		.4byte	.LASF1157
 2362 0391 06       		.byte	0x6
 2363 0392 ED       		.byte	0xed
 2364 0393 9B000000 		.4byte	0x9b
 2365 0397 02       		.byte	0x2
 2366 0398 11       		.uleb128 0x11
 2367 0399 A7500000 		.4byte	.LASF1158
 2368 039d 06       		.byte	0x6
 2369 039e F1       		.byte	0xf1
 2370 039f 9B000000 		.4byte	0x9b
 2371 03a3 03       		.byte	0x3
ARM GAS  C:\Users\COSMIN~1.MAR\AppData\Local\Temp\cccNbcra.s 			page 52


 2372 03a4 11       		.uleb128 0x11
 2373 03a5 D5550000 		.4byte	.LASF1159
 2374 03a9 06       		.byte	0x6
 2375 03aa F6       		.byte	0xf6
 2376 03ab 9B000000 		.4byte	0x9b
 2377 03af 04       		.byte	0x4
 2378 03b0 11       		.uleb128 0x11
 2379 03b1 6C590000 		.4byte	.LASF1149
 2380 03b5 06       		.byte	0x6
 2381 03b6 FC       		.byte	0xfc
 2382 03b7 E7010000 		.4byte	0x1e7
 2383 03bb 05       		.byte	0x5
 2384 03bc 11       		.uleb128 0x11
 2385 03bd B4500000 		.4byte	.LASF1160
 2386 03c1 06       		.byte	0x6
 2387 03c2 FD       		.byte	0xfd
 2388 03c3 B1000000 		.4byte	0xb1
 2389 03c7 08       		.byte	0x8
 2390 03c8 00       		.byte	0
 2391 03c9 03       		.uleb128 0x3
 2392 03ca 03130000 		.4byte	.LASF1161
 2393 03ce 06       		.byte	0x6
 2394 03cf FE       		.byte	0xfe
 2395 03d0 6C030000 		.4byte	0x36c
 2396 03d4 09       		.uleb128 0x9
 2397 03d5 04       		.byte	0x4
 2398 03d6 06       		.byte	0x6
 2399 03d7 0201     		.2byte	0x102
 2400 03d9 12040000 		.4byte	0x412
 2401 03dd 0B       		.uleb128 0xb
 2402 03de D2330000 		.4byte	.LASF1162
 2403 03e2 06       		.byte	0x6
 2404 03e3 0301     		.2byte	0x103
 2405 03e5 9B000000 		.4byte	0x9b
 2406 03e9 00       		.byte	0
 2407 03ea 0B       		.uleb128 0xb
 2408 03eb 0E530000 		.4byte	.LASF1163
 2409 03ef 06       		.byte	0x6
 2410 03f0 0501     		.2byte	0x105
 2411 03f2 9B000000 		.4byte	0x9b
 2412 03f6 01       		.byte	0x1
 2413 03f7 0B       		.uleb128 0xb
 2414 03f8 0F700000 		.4byte	.LASF1164
 2415 03fc 06       		.byte	0x6
 2416 03fd 0901     		.2byte	0x109
 2417 03ff 9B000000 		.4byte	0x9b
 2418 0403 02       		.byte	0x2
 2419 0404 0B       		.uleb128 0xb
 2420 0405 20010000 		.4byte	.LASF1165
 2421 0409 06       		.byte	0x6
 2422 040a 0D01     		.2byte	0x10d
 2423 040c 9B000000 		.4byte	0x9b
 2424 0410 03       		.byte	0x3
 2425 0411 00       		.byte	0
 2426 0412 0C       		.uleb128 0xc
 2427 0413 C7830000 		.4byte	.LASF1166
 2428 0417 06       		.byte	0x6
ARM GAS  C:\Users\COSMIN~1.MAR\AppData\Local\Temp\cccNbcra.s 			page 53


 2429 0418 1201     		.2byte	0x112
 2430 041a D4030000 		.4byte	0x3d4
 2431 041e 12       		.uleb128 0x12
 2432 041f 7B460000 		.4byte	.LASF1167
 2433 0423 01       		.byte	0x1
 2434 0424 3A       		.byte	0x3a
 2435 0425 B1000000 		.4byte	0xb1
 2436 0429 00000000 		.4byte	.LFB55
 2437 042d 56000000 		.4byte	.LFE55-.LFB55
 2438 0431 01       		.uleb128 0x1
 2439 0432 9C       		.byte	0x9c
 2440 0433 54040000 		.4byte	0x454
 2441 0437 13       		.uleb128 0x13
 2442 0438 D62C0000 		.4byte	.LASF1169
 2443 043c 01       		.byte	0x1
 2444 043d 3A       		.byte	0x3a
 2445 043e B1000000 		.4byte	0xb1
 2446 0442 02       		.uleb128 0x2
 2447 0443 91       		.byte	0x91
 2448 0444 6C       		.sleb128 -20
 2449 0445 14       		.uleb128 0x14
 2450 0446 0E3A0000 		.4byte	.LASF1171
 2451 044a 01       		.byte	0x1
 2452 044b 3C       		.byte	0x3c
 2453 044c B1000000 		.4byte	0xb1
 2454 0450 02       		.uleb128 0x2
 2455 0451 91       		.byte	0x91
 2456 0452 74       		.sleb128 -12
 2457 0453 00       		.byte	0
 2458 0454 12       		.uleb128 0x12
 2459 0455 836E0000 		.4byte	.LASF1168
 2460 0459 01       		.byte	0x1
 2461 045a 59       		.byte	0x59
 2462 045b B1000000 		.4byte	0xb1
 2463 045f 00000000 		.4byte	.LFB56
 2464 0463 60000000 		.4byte	.LFE56-.LFB56
 2465 0467 01       		.uleb128 0x1
 2466 0468 9C       		.byte	0x9c
 2467 0469 98040000 		.4byte	0x498
 2468 046d 13       		.uleb128 0x13
 2469 046e D62C0000 		.4byte	.LASF1169
 2470 0472 01       		.byte	0x1
 2471 0473 59       		.byte	0x59
 2472 0474 B1000000 		.4byte	0xb1
 2473 0478 02       		.uleb128 0x2
 2474 0479 91       		.byte	0x91
 2475 047a 6C       		.sleb128 -20
 2476 047b 13       		.uleb128 0x13
 2477 047c 89030000 		.4byte	.LASF1170
 2478 0480 01       		.byte	0x1
 2479 0481 59       		.byte	0x59
 2480 0482 B1000000 		.4byte	0xb1
 2481 0486 02       		.uleb128 0x2
 2482 0487 91       		.byte	0x91
 2483 0488 68       		.sleb128 -24
 2484 0489 14       		.uleb128 0x14
 2485 048a 0E3A0000 		.4byte	.LASF1171
ARM GAS  C:\Users\COSMIN~1.MAR\AppData\Local\Temp\cccNbcra.s 			page 54


 2486 048e 01       		.byte	0x1
 2487 048f 5B       		.byte	0x5b
 2488 0490 BC000000 		.4byte	0xbc
 2489 0494 02       		.uleb128 0x2
 2490 0495 91       		.byte	0x91
 2491 0496 70       		.sleb128 -16
 2492 0497 00       		.byte	0
 2493 0498 15       		.uleb128 0x15
 2494 0499 A5430000 		.4byte	.LASF1172
 2495 049d 01       		.byte	0x1
 2496 049e 6A       		.byte	0x6a
 2497 049f B1000000 		.4byte	0xb1
 2498 04a3 00000000 		.4byte	.LFB57
 2499 04a7 60000000 		.4byte	.LFE57-.LFB57
 2500 04ab 01       		.uleb128 0x1
 2501 04ac 9C       		.byte	0x9c
 2502 04ad CE040000 		.4byte	0x4ce
 2503 04b1 13       		.uleb128 0x13
 2504 04b2 55770000 		.4byte	.LASF1173
 2505 04b6 01       		.byte	0x1
 2506 04b7 6A       		.byte	0x6a
 2507 04b8 CE040000 		.4byte	0x4ce
 2508 04bc 02       		.uleb128 0x2
 2509 04bd 91       		.byte	0x91
 2510 04be 6C       		.sleb128 -20
 2511 04bf 14       		.uleb128 0x14
 2512 04c0 75060000 		.4byte	.LASF1174
 2513 04c4 01       		.byte	0x1
 2514 04c5 6C       		.byte	0x6c
 2515 04c6 B1000000 		.4byte	0xb1
 2516 04ca 02       		.uleb128 0x2
 2517 04cb 91       		.byte	0x91
 2518 04cc 74       		.sleb128 -12
 2519 04cd 00       		.byte	0
 2520 04ce 16       		.uleb128 0x16
 2521 04cf 04       		.byte	0x4
 2522 04d0 DB010000 		.4byte	0x1db
 2523 04d4 12       		.uleb128 0x12
 2524 04d5 68550000 		.4byte	.LASF1175
 2525 04d9 01       		.byte	0x1
 2526 04da 94       		.byte	0x94
 2527 04db 21020000 		.4byte	0x221
 2528 04df 00000000 		.4byte	.LFB58
 2529 04e3 98000000 		.4byte	.LFE58-.LFB58
 2530 04e7 01       		.uleb128 0x1
 2531 04e8 9C       		.byte	0x9c
 2532 04e9 18050000 		.4byte	0x518
 2533 04ed 13       		.uleb128 0x13
 2534 04ee 55770000 		.4byte	.LASF1173
 2535 04f2 01       		.byte	0x1
 2536 04f3 94       		.byte	0x94
 2537 04f4 CE040000 		.4byte	0x4ce
 2538 04f8 02       		.uleb128 0x2
 2539 04f9 91       		.byte	0x91
 2540 04fa 6C       		.sleb128 -20
 2541 04fb 13       		.uleb128 0x13
 2542 04fc 94150000 		.4byte	.LASF1176
ARM GAS  C:\Users\COSMIN~1.MAR\AppData\Local\Temp\cccNbcra.s 			page 55


 2543 0500 01       		.byte	0x1
 2544 0501 94       		.byte	0x94
 2545 0502 9B000000 		.4byte	0x9b
 2546 0506 02       		.uleb128 0x2
 2547 0507 91       		.byte	0x91
 2548 0508 6B       		.sleb128 -21
 2549 0509 14       		.uleb128 0x14
 2550 050a 47910000 		.4byte	.LASF1177
 2551 050e 01       		.byte	0x1
 2552 050f 98       		.byte	0x98
 2553 0510 9B000000 		.4byte	0x9b
 2554 0514 02       		.uleb128 0x2
 2555 0515 91       		.byte	0x91
 2556 0516 77       		.sleb128 -9
 2557 0517 00       		.byte	0
 2558 0518 12       		.uleb128 0x12
 2559 0519 F0880000 		.4byte	.LASF1178
 2560 051d 01       		.byte	0x1
 2561 051e A7       		.byte	0xa7
 2562 051f 21020000 		.4byte	0x221
 2563 0523 00000000 		.4byte	.LFB59
 2564 0527 9C000000 		.4byte	.LFE59-.LFB59
 2565 052b 01       		.uleb128 0x1
 2566 052c 9C       		.byte	0x9c
 2567 052d 5C050000 		.4byte	0x55c
 2568 0531 13       		.uleb128 0x13
 2569 0532 55770000 		.4byte	.LASF1173
 2570 0536 01       		.byte	0x1
 2571 0537 A7       		.byte	0xa7
 2572 0538 CE040000 		.4byte	0x4ce
 2573 053c 02       		.uleb128 0x2
 2574 053d 91       		.byte	0x91
 2575 053e 6C       		.sleb128 -20
 2576 053f 13       		.uleb128 0x13
 2577 0540 94150000 		.4byte	.LASF1176
 2578 0544 01       		.byte	0x1
 2579 0545 A7       		.byte	0xa7
 2580 0546 9B000000 		.4byte	0x9b
 2581 054a 02       		.uleb128 0x2
 2582 054b 91       		.byte	0x91
 2583 054c 6B       		.sleb128 -21
 2584 054d 14       		.uleb128 0x14
 2585 054e 47910000 		.4byte	.LASF1177
 2586 0552 01       		.byte	0x1
 2587 0553 AB       		.byte	0xab
 2588 0554 9B000000 		.4byte	0x9b
 2589 0558 02       		.uleb128 0x2
 2590 0559 91       		.byte	0x91
 2591 055a 77       		.sleb128 -9
 2592 055b 00       		.byte	0
 2593 055c 17       		.uleb128 0x17
 2594 055d DF2C0000 		.4byte	.LASF1179
 2595 0561 01       		.byte	0x1
 2596 0562 B6       		.byte	0xb6
 2597 0563 00000000 		.4byte	.LFB60
 2598 0567 88000000 		.4byte	.LFE60-.LFB60
 2599 056b 01       		.uleb128 0x1
ARM GAS  C:\Users\COSMIN~1.MAR\AppData\Local\Temp\cccNbcra.s 			page 56


 2600 056c 9C       		.byte	0x9c
 2601 056d 8E050000 		.4byte	0x58e
 2602 0571 13       		.uleb128 0x13
 2603 0572 55770000 		.4byte	.LASF1173
 2604 0576 01       		.byte	0x1
 2605 0577 B6       		.byte	0xb6
 2606 0578 CE040000 		.4byte	0x4ce
 2607 057c 02       		.uleb128 0x2
 2608 057d 91       		.byte	0x91
 2609 057e 74       		.sleb128 -12
 2610 057f 13       		.uleb128 0x13
 2611 0580 94150000 		.4byte	.LASF1176
 2612 0584 01       		.byte	0x1
 2613 0585 B6       		.byte	0xb6
 2614 0586 9B000000 		.4byte	0x9b
 2615 058a 02       		.uleb128 0x2
 2616 058b 91       		.byte	0x91
 2617 058c 73       		.sleb128 -13
 2618 058d 00       		.byte	0
 2619 058e 17       		.uleb128 0x17
 2620 058f 16120000 		.4byte	.LASF1180
 2621 0593 01       		.byte	0x1
 2622 0594 C3       		.byte	0xc3
 2623 0595 00000000 		.4byte	.LFB61
 2624 0599 8C000000 		.4byte	.LFE61-.LFB61
 2625 059d 01       		.uleb128 0x1
 2626 059e 9C       		.byte	0x9c
 2627 059f C0050000 		.4byte	0x5c0
 2628 05a3 13       		.uleb128 0x13
 2629 05a4 55770000 		.4byte	.LASF1173
 2630 05a8 01       		.byte	0x1
 2631 05a9 C3       		.byte	0xc3
 2632 05aa CE040000 		.4byte	0x4ce
 2633 05ae 02       		.uleb128 0x2
 2634 05af 91       		.byte	0x91
 2635 05b0 74       		.sleb128 -12
 2636 05b1 13       		.uleb128 0x13
 2637 05b2 94150000 		.4byte	.LASF1176
 2638 05b6 01       		.byte	0x1
 2639 05b7 C3       		.byte	0xc3
 2640 05b8 9B000000 		.4byte	0x9b
 2641 05bc 02       		.uleb128 0x2
 2642 05bd 91       		.byte	0x91
 2643 05be 73       		.sleb128 -13
 2644 05bf 00       		.byte	0
 2645 05c0 18       		.uleb128 0x18
 2646 05c1 F5360000 		.4byte	.LASF1181
 2647 05c5 01       		.byte	0x1
 2648 05c6 D5       		.byte	0xd5
 2649 05c7 00000000 		.4byte	.LFB62
 2650 05cb 38000000 		.4byte	.LFE62-.LFB62
 2651 05cf 01       		.uleb128 0x1
 2652 05d0 9C       		.byte	0x9c
 2653 05d1 26060000 		.4byte	0x626
 2654 05d5 13       		.uleb128 0x13
 2655 05d6 5E7D0000 		.4byte	.LASF1182
 2656 05da 01       		.byte	0x1
ARM GAS  C:\Users\COSMIN~1.MAR\AppData\Local\Temp\cccNbcra.s 			page 57


 2657 05db D5       		.byte	0xd5
 2658 05dc 9B000000 		.4byte	0x9b
 2659 05e0 02       		.uleb128 0x2
 2660 05e1 91       		.byte	0x91
 2661 05e2 6F       		.sleb128 -17
 2662 05e3 13       		.uleb128 0x13
 2663 05e4 F4460000 		.4byte	.LASF1183
 2664 05e8 01       		.byte	0x1
 2665 05e9 D5       		.byte	0xd5
 2666 05ea 26060000 		.4byte	0x626
 2667 05ee 02       		.uleb128 0x2
 2668 05ef 91       		.byte	0x91
 2669 05f0 68       		.sleb128 -24
 2670 05f1 19       		.uleb128 0x19
 2671 05f2 12000000 		.4byte	.LBB2
 2672 05f6 10000000 		.4byte	.LBE2-.LBB2
 2673 05fa 0D060000 		.4byte	0x60d
 2674 05fe 14       		.uleb128 0x14
 2675 05ff 352D0000 		.4byte	.LASF1184
 2676 0603 01       		.byte	0x1
 2677 0604 D9       		.byte	0xd9
 2678 0605 28060000 		.4byte	0x628
 2679 0609 02       		.uleb128 0x2
 2680 060a 91       		.byte	0x91
 2681 060b 74       		.sleb128 -12
 2682 060c 00       		.byte	0
 2683 060d 1A       		.uleb128 0x1a
 2684 060e 24000000 		.4byte	.LBB3
 2685 0612 0A000000 		.4byte	.LBE3-.LBB3
 2686 0616 14       		.uleb128 0x14
 2687 0617 73140000 		.4byte	.LASF1185
 2688 061b 01       		.byte	0x1
 2689 061c DF       		.byte	0xdf
 2690 061d 2E060000 		.4byte	0x62e
 2691 0621 02       		.uleb128 0x2
 2692 0622 91       		.byte	0x91
 2693 0623 70       		.sleb128 -16
 2694 0624 00       		.byte	0
 2695 0625 00       		.byte	0
 2696 0626 1B       		.uleb128 0x1b
 2697 0627 04       		.byte	0x4
 2698 0628 16       		.uleb128 0x16
 2699 0629 04       		.byte	0x4
 2700 062a 19030000 		.4byte	0x319
 2701 062e 16       		.uleb128 0x16
 2702 062f 04       		.byte	0x4
 2703 0630 61030000 		.4byte	0x361
 2704 0634 17       		.uleb128 0x17
 2705 0635 B92B0000 		.4byte	.LASF1186
 2706 0639 01       		.byte	0x1
 2707 063a F0       		.byte	0xf0
 2708 063b 00000000 		.4byte	.LFB63
 2709 063f 6C010000 		.4byte	.LFE63-.LFB63
 2710 0643 01       		.uleb128 0x1
 2711 0644 9C       		.byte	0x9c
 2712 0645 9E060000 		.4byte	0x69e
 2713 0649 13       		.uleb128 0x13
ARM GAS  C:\Users\COSMIN~1.MAR\AppData\Local\Temp\cccNbcra.s 			page 58


 2714 064a 55770000 		.4byte	.LASF1173
 2715 064e 01       		.byte	0x1
 2716 064f F0       		.byte	0xf0
 2717 0650 CE040000 		.4byte	0x4ce
 2718 0654 02       		.uleb128 0x2
 2719 0655 91       		.byte	0x91
 2720 0656 64       		.sleb128 -28
 2721 0657 13       		.uleb128 0x13
 2722 0658 5E7D0000 		.4byte	.LASF1182
 2723 065c 01       		.byte	0x1
 2724 065d F0       		.byte	0xf0
 2725 065e 9B000000 		.4byte	0x9b
 2726 0662 02       		.uleb128 0x2
 2727 0663 91       		.byte	0x91
 2728 0664 63       		.sleb128 -29
 2729 0665 13       		.uleb128 0x13
 2730 0666 F4460000 		.4byte	.LASF1183
 2731 066a 01       		.byte	0x1
 2732 066b F0       		.byte	0xf0
 2733 066c 26060000 		.4byte	0x626
 2734 0670 02       		.uleb128 0x2
 2735 0671 91       		.byte	0x91
 2736 0672 5C       		.sleb128 -36
 2737 0673 14       		.uleb128 0x14
 2738 0674 352D0000 		.4byte	.LASF1184
 2739 0678 01       		.byte	0x1
 2740 0679 F2       		.byte	0xf2
 2741 067a 28060000 		.4byte	0x628
 2742 067e 02       		.uleb128 0x2
 2743 067f 91       		.byte	0x91
 2744 0680 70       		.sleb128 -16
 2745 0681 14       		.uleb128 0x14
 2746 0682 73140000 		.4byte	.LASF1185
 2747 0686 01       		.byte	0x1
 2748 0687 F3       		.byte	0xf3
 2749 0688 2E060000 		.4byte	0x62e
 2750 068c 02       		.uleb128 0x2
 2751 068d 91       		.byte	0x91
 2752 068e 6C       		.sleb128 -20
 2753 068f 14       		.uleb128 0x14
 2754 0690 2F2D0000 		.4byte	.LASF1187
 2755 0694 01       		.byte	0x1
 2756 0695 F4       		.byte	0xf4
 2757 0696 B1000000 		.4byte	0xb1
 2758 069a 02       		.uleb128 0x2
 2759 069b 91       		.byte	0x91
 2760 069c 74       		.sleb128 -12
 2761 069d 00       		.byte	0
 2762 069e 1C       		.uleb128 0x1c
 2763 069f 6A7F0000 		.4byte	.LASF1188
 2764 06a3 01       		.byte	0x1
 2765 06a4 3801     		.2byte	0x138
 2766 06a6 00000000 		.4byte	.LFB64
 2767 06aa 98000000 		.4byte	.LFE64-.LFB64
 2768 06ae 01       		.uleb128 0x1
 2769 06af 9C       		.byte	0x9c
 2770 06b0 C4060000 		.4byte	0x6c4
ARM GAS  C:\Users\COSMIN~1.MAR\AppData\Local\Temp\cccNbcra.s 			page 59


 2771 06b4 1D       		.uleb128 0x1d
 2772 06b5 55770000 		.4byte	.LASF1173
 2773 06b9 01       		.byte	0x1
 2774 06ba 3801     		.2byte	0x138
 2775 06bc CE040000 		.4byte	0x4ce
 2776 06c0 02       		.uleb128 0x2
 2777 06c1 91       		.byte	0x91
 2778 06c2 74       		.sleb128 -12
 2779 06c3 00       		.byte	0
 2780 06c4 1C       		.uleb128 0x1c
 2781 06c5 10020000 		.4byte	.LASF1189
 2782 06c9 01       		.byte	0x1
 2783 06ca 5501     		.2byte	0x155
 2784 06cc 00000000 		.4byte	.LFB65
 2785 06d0 6C000000 		.4byte	.LFE65-.LFB65
 2786 06d4 01       		.uleb128 0x1
 2787 06d5 9C       		.byte	0x9c
 2788 06d6 F9060000 		.4byte	0x6f9
 2789 06da 1D       		.uleb128 0x1d
 2790 06db 55770000 		.4byte	.LASF1173
 2791 06df 01       		.byte	0x1
 2792 06e0 5501     		.2byte	0x155
 2793 06e2 CE040000 		.4byte	0x4ce
 2794 06e6 02       		.uleb128 0x2
 2795 06e7 91       		.byte	0x91
 2796 06e8 74       		.sleb128 -12
 2797 06e9 1D       		.uleb128 0x1d
 2798 06ea E6560000 		.4byte	.LASF1190
 2799 06ee 01       		.byte	0x1
 2800 06ef 5501     		.2byte	0x155
 2801 06f1 41020000 		.4byte	0x241
 2802 06f5 02       		.uleb128 0x2
 2803 06f6 91       		.byte	0x91
 2804 06f7 73       		.sleb128 -13
 2805 06f8 00       		.byte	0
 2806 06f9 1C       		.uleb128 0x1c
 2807 06fa 0B4A0000 		.4byte	.LASF1191
 2808 06fe 01       		.byte	0x1
 2809 06ff 6901     		.2byte	0x169
 2810 0701 00000000 		.4byte	.LFB66
 2811 0705 60000000 		.4byte	.LFE66-.LFB66
 2812 0709 01       		.uleb128 0x1
 2813 070a 9C       		.byte	0x9c
 2814 070b 1F070000 		.4byte	0x71f
 2815 070f 1D       		.uleb128 0x1d
 2816 0710 55770000 		.4byte	.LASF1173
 2817 0714 01       		.byte	0x1
 2818 0715 6901     		.2byte	0x169
 2819 0717 CE040000 		.4byte	0x4ce
 2820 071b 02       		.uleb128 0x2
 2821 071c 91       		.byte	0x91
 2822 071d 74       		.sleb128 -12
 2823 071e 00       		.byte	0
 2824 071f 1C       		.uleb128 0x1c
 2825 0720 42810000 		.4byte	.LASF1192
 2826 0724 01       		.byte	0x1
 2827 0725 8301     		.2byte	0x183
ARM GAS  C:\Users\COSMIN~1.MAR\AppData\Local\Temp\cccNbcra.s 			page 60


 2828 0727 00000000 		.4byte	.LFB67
 2829 072b 58010000 		.4byte	.LFE67-.LFB67
 2830 072f 01       		.uleb128 0x1
 2831 0730 9C       		.byte	0x9c
 2832 0731 63070000 		.4byte	0x763
 2833 0735 1D       		.uleb128 0x1d
 2834 0736 55770000 		.4byte	.LASF1173
 2835 073a 01       		.byte	0x1
 2836 073b 8301     		.2byte	0x183
 2837 073d CE040000 		.4byte	0x4ce
 2838 0741 02       		.uleb128 0x2
 2839 0742 91       		.byte	0x91
 2840 0743 6C       		.sleb128 -20
 2841 0744 1D       		.uleb128 0x1d
 2842 0745 31780000 		.4byte	.LASF1193
 2843 0749 01       		.byte	0x1
 2844 074a 8301     		.2byte	0x183
 2845 074c 63070000 		.4byte	0x763
 2846 0750 02       		.uleb128 0x2
 2847 0751 91       		.byte	0x91
 2848 0752 68       		.sleb128 -24
 2849 0753 1E       		.uleb128 0x1e
 2850 0754 2F2D0000 		.4byte	.LASF1187
 2851 0758 01       		.byte	0x1
 2852 0759 8501     		.2byte	0x185
 2853 075b B1000000 		.4byte	0xb1
 2854 075f 02       		.uleb128 0x2
 2855 0760 91       		.byte	0x91
 2856 0761 74       		.sleb128 -12
 2857 0762 00       		.byte	0
 2858 0763 16       		.uleb128 0x16
 2859 0764 04       		.byte	0x4
 2860 0765 C9030000 		.4byte	0x3c9
 2861 0769 1C       		.uleb128 0x1c
 2862 076a 08140000 		.4byte	.LASF1194
 2863 076e 01       		.byte	0x1
 2864 076f B201     		.2byte	0x1b2
 2865 0771 00000000 		.4byte	.LFB68
 2866 0775 D8000000 		.4byte	.LFE68-.LFB68
 2867 0779 01       		.uleb128 0x1
 2868 077a 9C       		.byte	0x9c
 2869 077b AD070000 		.4byte	0x7ad
 2870 077f 1D       		.uleb128 0x1d
 2871 0780 55770000 		.4byte	.LASF1173
 2872 0784 01       		.byte	0x1
 2873 0785 B201     		.2byte	0x1b2
 2874 0787 CE040000 		.4byte	0x4ce
 2875 078b 02       		.uleb128 0x2
 2876 078c 91       		.byte	0x91
 2877 078d 6C       		.sleb128 -20
 2878 078e 1D       		.uleb128 0x1d
 2879 078f 1D940000 		.4byte	.LASF1195
 2880 0793 01       		.byte	0x1
 2881 0794 B201     		.2byte	0x1b2
 2882 0796 AD070000 		.4byte	0x7ad
 2883 079a 02       		.uleb128 0x2
 2884 079b 91       		.byte	0x91
ARM GAS  C:\Users\COSMIN~1.MAR\AppData\Local\Temp\cccNbcra.s 			page 61


 2885 079c 68       		.sleb128 -24
 2886 079d 1E       		.uleb128 0x1e
 2887 079e 2F2D0000 		.4byte	.LASF1187
 2888 07a2 01       		.byte	0x1
 2889 07a3 B401     		.2byte	0x1b4
 2890 07a5 B1000000 		.4byte	0xb1
 2891 07a9 02       		.uleb128 0x2
 2892 07aa 91       		.byte	0x91
 2893 07ab 74       		.sleb128 -12
 2894 07ac 00       		.byte	0
 2895 07ad 16       		.uleb128 0x16
 2896 07ae 04       		.byte	0x4
 2897 07af 12040000 		.4byte	0x412
 2898 07b3 1F       		.uleb128 0x1f
 2899 07b4 A0550000 		.4byte	.LASF1196
 2900 07b8 01       		.byte	0x1
 2901 07b9 CA01     		.2byte	0x1ca
 2902 07bb B1000000 		.4byte	0xb1
 2903 07bf 00000000 		.4byte	.LFB69
 2904 07c3 74000000 		.4byte	.LFE69-.LFB69
 2905 07c7 01       		.uleb128 0x1
 2906 07c8 9C       		.byte	0x9c
 2907 07c9 EC070000 		.4byte	0x7ec
 2908 07cd 1D       		.uleb128 0x1d
 2909 07ce 55770000 		.4byte	.LASF1173
 2910 07d2 01       		.byte	0x1
 2911 07d3 CA01     		.2byte	0x1ca
 2912 07d5 CE040000 		.4byte	0x4ce
 2913 07d9 02       		.uleb128 0x2
 2914 07da 91       		.byte	0x91
 2915 07db 74       		.sleb128 -12
 2916 07dc 1D       		.uleb128 0x1d
 2917 07dd D2330000 		.4byte	.LASF1162
 2918 07e1 01       		.byte	0x1
 2919 07e2 CA01     		.2byte	0x1ca
 2920 07e4 9B000000 		.4byte	0x9b
 2921 07e8 02       		.uleb128 0x2
 2922 07e9 91       		.byte	0x91
 2923 07ea 73       		.sleb128 -13
 2924 07eb 00       		.byte	0
 2925 07ec 1C       		.uleb128 0x1c
 2926 07ed 73660000 		.4byte	.LASF1197
 2927 07f1 01       		.byte	0x1
 2928 07f2 DA01     		.2byte	0x1da
 2929 07f4 00000000 		.4byte	.LFB70
 2930 07f8 74000000 		.4byte	.LFE70-.LFB70
 2931 07fc 01       		.uleb128 0x1
 2932 07fd 9C       		.byte	0x9c
 2933 07fe 30080000 		.4byte	0x830
 2934 0802 1D       		.uleb128 0x1d
 2935 0803 E5720000 		.4byte	.LASF1198
 2936 0807 01       		.byte	0x1
 2937 0808 DA01     		.2byte	0x1da
 2938 080a B1000000 		.4byte	0xb1
 2939 080e 02       		.uleb128 0x2
 2940 080f 91       		.byte	0x91
 2941 0810 5C       		.sleb128 -36
ARM GAS  C:\Users\COSMIN~1.MAR\AppData\Local\Temp\cccNbcra.s 			page 62


 2942 0811 1E       		.uleb128 0x1e
 2943 0812 F4460000 		.4byte	.LASF1183
 2944 0816 01       		.byte	0x1
 2945 0817 DC01     		.2byte	0x1dc
 2946 0819 19030000 		.4byte	0x319
 2947 081d 02       		.uleb128 0x2
 2948 081e 91       		.byte	0x91
 2949 081f 70       		.sleb128 -16
 2950 0820 1E       		.uleb128 0x1e
 2951 0821 31780000 		.4byte	.LASF1193
 2952 0825 01       		.byte	0x1
 2953 0826 DD01     		.2byte	0x1dd
 2954 0828 C9030000 		.4byte	0x3c9
 2955 082c 02       		.uleb128 0x2
 2956 082d 91       		.byte	0x91
 2957 082e 64       		.sleb128 -28
 2958 082f 00       		.byte	0
 2959 0830 1C       		.uleb128 0x1c
 2960 0831 746E0000 		.4byte	.LASF1199
 2961 0835 01       		.byte	0x1
 2962 0836 F801     		.2byte	0x1f8
 2963 0838 00000000 		.4byte	.LFB71
 2964 083c 72000000 		.4byte	.LFE71-.LFB71
 2965 0840 01       		.uleb128 0x1
 2966 0841 9C       		.byte	0x9c
 2967 0842 74080000 		.4byte	0x874
 2968 0846 1D       		.uleb128 0x1d
 2969 0847 E5720000 		.4byte	.LASF1198
 2970 084b 01       		.byte	0x1
 2971 084c F801     		.2byte	0x1f8
 2972 084e B1000000 		.4byte	0xb1
 2973 0852 02       		.uleb128 0x2
 2974 0853 91       		.byte	0x91
 2975 0854 5C       		.sleb128 -36
 2976 0855 1E       		.uleb128 0x1e
 2977 0856 F4460000 		.4byte	.LASF1183
 2978 085a 01       		.byte	0x1
 2979 085b FA01     		.2byte	0x1fa
 2980 085d 19030000 		.4byte	0x319
 2981 0861 02       		.uleb128 0x2
 2982 0862 91       		.byte	0x91
 2983 0863 70       		.sleb128 -16
 2984 0864 1E       		.uleb128 0x1e
 2985 0865 31780000 		.4byte	.LASF1193
 2986 0869 01       		.byte	0x1
 2987 086a FB01     		.2byte	0x1fb
 2988 086c C9030000 		.4byte	0x3c9
 2989 0870 02       		.uleb128 0x2
 2990 0871 91       		.byte	0x91
 2991 0872 64       		.sleb128 -28
 2992 0873 00       		.byte	0
 2993 0874 20       		.uleb128 0x20
 2994 0875 AD520000 		.4byte	.LASF1203
 2995 0879 07       		.byte	0x7
 2996 087a 8204     		.2byte	0x482
 2997 087c 80080000 		.4byte	0x880
 2998 0880 05       		.uleb128 0x5
ARM GAS  C:\Users\COSMIN~1.MAR\AppData\Local\Temp\cccNbcra.s 			page 63


 2999 0881 A6000000 		.4byte	0xa6
 3000 0885 00       		.byte	0
 3001              		.section	.debug_abbrev,"",%progbits
 3002              	.Ldebug_abbrev0:
 3003 0000 01       		.uleb128 0x1
 3004 0001 11       		.uleb128 0x11
 3005 0002 01       		.byte	0x1
 3006 0003 25       		.uleb128 0x25
 3007 0004 0E       		.uleb128 0xe
 3008 0005 13       		.uleb128 0x13
 3009 0006 0B       		.uleb128 0xb
 3010 0007 03       		.uleb128 0x3
 3011 0008 0E       		.uleb128 0xe
 3012 0009 1B       		.uleb128 0x1b
 3013 000a 0E       		.uleb128 0xe
 3014 000b 55       		.uleb128 0x55
 3015 000c 17       		.uleb128 0x17
 3016 000d 11       		.uleb128 0x11
 3017 000e 01       		.uleb128 0x1
 3018 000f 10       		.uleb128 0x10
 3019 0010 17       		.uleb128 0x17
 3020 0011 9942     		.uleb128 0x2119
 3021 0013 17       		.uleb128 0x17
 3022 0014 00       		.byte	0
 3023 0015 00       		.byte	0
 3024 0016 02       		.uleb128 0x2
 3025 0017 24       		.uleb128 0x24
 3026 0018 00       		.byte	0
 3027 0019 0B       		.uleb128 0xb
 3028 001a 0B       		.uleb128 0xb
 3029 001b 3E       		.uleb128 0x3e
 3030 001c 0B       		.uleb128 0xb
 3031 001d 03       		.uleb128 0x3
 3032 001e 0E       		.uleb128 0xe
 3033 001f 00       		.byte	0
 3034 0020 00       		.byte	0
 3035 0021 03       		.uleb128 0x3
 3036 0022 16       		.uleb128 0x16
 3037 0023 00       		.byte	0
 3038 0024 03       		.uleb128 0x3
 3039 0025 0E       		.uleb128 0xe
 3040 0026 3A       		.uleb128 0x3a
 3041 0027 0B       		.uleb128 0xb
 3042 0028 3B       		.uleb128 0x3b
 3043 0029 0B       		.uleb128 0xb
 3044 002a 49       		.uleb128 0x49
 3045 002b 13       		.uleb128 0x13
 3046 002c 00       		.byte	0
 3047 002d 00       		.byte	0
 3048 002e 04       		.uleb128 0x4
 3049 002f 24       		.uleb128 0x24
 3050 0030 00       		.byte	0
 3051 0031 0B       		.uleb128 0xb
 3052 0032 0B       		.uleb128 0xb
 3053 0033 3E       		.uleb128 0x3e
 3054 0034 0B       		.uleb128 0xb
 3055 0035 03       		.uleb128 0x3
ARM GAS  C:\Users\COSMIN~1.MAR\AppData\Local\Temp\cccNbcra.s 			page 64


 3056 0036 08       		.uleb128 0x8
 3057 0037 00       		.byte	0
 3058 0038 00       		.byte	0
 3059 0039 05       		.uleb128 0x5
 3060 003a 35       		.uleb128 0x35
 3061 003b 00       		.byte	0
 3062 003c 49       		.uleb128 0x49
 3063 003d 13       		.uleb128 0x13
 3064 003e 00       		.byte	0
 3065 003f 00       		.byte	0
 3066 0040 06       		.uleb128 0x6
 3067 0041 26       		.uleb128 0x26
 3068 0042 00       		.byte	0
 3069 0043 49       		.uleb128 0x49
 3070 0044 13       		.uleb128 0x13
 3071 0045 00       		.byte	0
 3072 0046 00       		.byte	0
 3073 0047 07       		.uleb128 0x7
 3074 0048 01       		.uleb128 0x1
 3075 0049 01       		.byte	0x1
 3076 004a 49       		.uleb128 0x49
 3077 004b 13       		.uleb128 0x13
 3078 004c 01       		.uleb128 0x1
 3079 004d 13       		.uleb128 0x13
 3080 004e 00       		.byte	0
 3081 004f 00       		.byte	0
 3082 0050 08       		.uleb128 0x8
 3083 0051 21       		.uleb128 0x21
 3084 0052 00       		.byte	0
 3085 0053 49       		.uleb128 0x49
 3086 0054 13       		.uleb128 0x13
 3087 0055 2F       		.uleb128 0x2f
 3088 0056 0B       		.uleb128 0xb
 3089 0057 00       		.byte	0
 3090 0058 00       		.byte	0
 3091 0059 09       		.uleb128 0x9
 3092 005a 13       		.uleb128 0x13
 3093 005b 01       		.byte	0x1
 3094 005c 0B       		.uleb128 0xb
 3095 005d 0B       		.uleb128 0xb
 3096 005e 3A       		.uleb128 0x3a
 3097 005f 0B       		.uleb128 0xb
 3098 0060 3B       		.uleb128 0x3b
 3099 0061 05       		.uleb128 0x5
 3100 0062 01       		.uleb128 0x1
 3101 0063 13       		.uleb128 0x13
 3102 0064 00       		.byte	0
 3103 0065 00       		.byte	0
 3104 0066 0A       		.uleb128 0xa
 3105 0067 0D       		.uleb128 0xd
 3106 0068 00       		.byte	0
 3107 0069 03       		.uleb128 0x3
 3108 006a 08       		.uleb128 0x8
 3109 006b 3A       		.uleb128 0x3a
 3110 006c 0B       		.uleb128 0xb
 3111 006d 3B       		.uleb128 0x3b
 3112 006e 05       		.uleb128 0x5
ARM GAS  C:\Users\COSMIN~1.MAR\AppData\Local\Temp\cccNbcra.s 			page 65


 3113 006f 49       		.uleb128 0x49
 3114 0070 13       		.uleb128 0x13
 3115 0071 38       		.uleb128 0x38
 3116 0072 0B       		.uleb128 0xb
 3117 0073 00       		.byte	0
 3118 0074 00       		.byte	0
 3119 0075 0B       		.uleb128 0xb
 3120 0076 0D       		.uleb128 0xd
 3121 0077 00       		.byte	0
 3122 0078 03       		.uleb128 0x3
 3123 0079 0E       		.uleb128 0xe
 3124 007a 3A       		.uleb128 0x3a
 3125 007b 0B       		.uleb128 0xb
 3126 007c 3B       		.uleb128 0x3b
 3127 007d 05       		.uleb128 0x5
 3128 007e 49       		.uleb128 0x49
 3129 007f 13       		.uleb128 0x13
 3130 0080 38       		.uleb128 0x38
 3131 0081 0B       		.uleb128 0xb
 3132 0082 00       		.byte	0
 3133 0083 00       		.byte	0
 3134 0084 0C       		.uleb128 0xc
 3135 0085 16       		.uleb128 0x16
 3136 0086 00       		.byte	0
 3137 0087 03       		.uleb128 0x3
 3138 0088 0E       		.uleb128 0xe
 3139 0089 3A       		.uleb128 0x3a
 3140 008a 0B       		.uleb128 0xb
 3141 008b 3B       		.uleb128 0x3b
 3142 008c 05       		.uleb128 0x5
 3143 008d 49       		.uleb128 0x49
 3144 008e 13       		.uleb128 0x13
 3145 008f 00       		.byte	0
 3146 0090 00       		.byte	0
 3147 0091 0D       		.uleb128 0xd
 3148 0092 04       		.uleb128 0x4
 3149 0093 01       		.byte	0x1
 3150 0094 0B       		.uleb128 0xb
 3151 0095 0B       		.uleb128 0xb
 3152 0096 3A       		.uleb128 0x3a
 3153 0097 0B       		.uleb128 0xb
 3154 0098 3B       		.uleb128 0x3b
 3155 0099 0B       		.uleb128 0xb
 3156 009a 01       		.uleb128 0x1
 3157 009b 13       		.uleb128 0x13
 3158 009c 00       		.byte	0
 3159 009d 00       		.byte	0
 3160 009e 0E       		.uleb128 0xe
 3161 009f 28       		.uleb128 0x28
 3162 00a0 00       		.byte	0
 3163 00a1 03       		.uleb128 0x3
 3164 00a2 0E       		.uleb128 0xe
 3165 00a3 1C       		.uleb128 0x1c
 3166 00a4 0D       		.uleb128 0xd
 3167 00a5 00       		.byte	0
 3168 00a6 00       		.byte	0
 3169 00a7 0F       		.uleb128 0xf
ARM GAS  C:\Users\COSMIN~1.MAR\AppData\Local\Temp\cccNbcra.s 			page 66


 3170 00a8 28       		.uleb128 0x28
 3171 00a9 00       		.byte	0
 3172 00aa 03       		.uleb128 0x3
 3173 00ab 08       		.uleb128 0x8
 3174 00ac 1C       		.uleb128 0x1c
 3175 00ad 0D       		.uleb128 0xd
 3176 00ae 00       		.byte	0
 3177 00af 00       		.byte	0
 3178 00b0 10       		.uleb128 0x10
 3179 00b1 13       		.uleb128 0x13
 3180 00b2 01       		.byte	0x1
 3181 00b3 0B       		.uleb128 0xb
 3182 00b4 0B       		.uleb128 0xb
 3183 00b5 3A       		.uleb128 0x3a
 3184 00b6 0B       		.uleb128 0xb
 3185 00b7 3B       		.uleb128 0x3b
 3186 00b8 0B       		.uleb128 0xb
 3187 00b9 01       		.uleb128 0x1
 3188 00ba 13       		.uleb128 0x13
 3189 00bb 00       		.byte	0
 3190 00bc 00       		.byte	0
 3191 00bd 11       		.uleb128 0x11
 3192 00be 0D       		.uleb128 0xd
 3193 00bf 00       		.byte	0
 3194 00c0 03       		.uleb128 0x3
 3195 00c1 0E       		.uleb128 0xe
 3196 00c2 3A       		.uleb128 0x3a
 3197 00c3 0B       		.uleb128 0xb
 3198 00c4 3B       		.uleb128 0x3b
 3199 00c5 0B       		.uleb128 0xb
 3200 00c6 49       		.uleb128 0x49
 3201 00c7 13       		.uleb128 0x13
 3202 00c8 38       		.uleb128 0x38
 3203 00c9 0B       		.uleb128 0xb
 3204 00ca 00       		.byte	0
 3205 00cb 00       		.byte	0
 3206 00cc 12       		.uleb128 0x12
 3207 00cd 2E       		.uleb128 0x2e
 3208 00ce 01       		.byte	0x1
 3209 00cf 3F       		.uleb128 0x3f
 3210 00d0 19       		.uleb128 0x19
 3211 00d1 03       		.uleb128 0x3
 3212 00d2 0E       		.uleb128 0xe
 3213 00d3 3A       		.uleb128 0x3a
 3214 00d4 0B       		.uleb128 0xb
 3215 00d5 3B       		.uleb128 0x3b
 3216 00d6 0B       		.uleb128 0xb
 3217 00d7 27       		.uleb128 0x27
 3218 00d8 19       		.uleb128 0x19
 3219 00d9 49       		.uleb128 0x49
 3220 00da 13       		.uleb128 0x13
 3221 00db 11       		.uleb128 0x11
 3222 00dc 01       		.uleb128 0x1
 3223 00dd 12       		.uleb128 0x12
 3224 00de 06       		.uleb128 0x6
 3225 00df 40       		.uleb128 0x40
 3226 00e0 18       		.uleb128 0x18
ARM GAS  C:\Users\COSMIN~1.MAR\AppData\Local\Temp\cccNbcra.s 			page 67


 3227 00e1 9642     		.uleb128 0x2116
 3228 00e3 19       		.uleb128 0x19
 3229 00e4 01       		.uleb128 0x1
 3230 00e5 13       		.uleb128 0x13
 3231 00e6 00       		.byte	0
 3232 00e7 00       		.byte	0
 3233 00e8 13       		.uleb128 0x13
 3234 00e9 05       		.uleb128 0x5
 3235 00ea 00       		.byte	0
 3236 00eb 03       		.uleb128 0x3
 3237 00ec 0E       		.uleb128 0xe
 3238 00ed 3A       		.uleb128 0x3a
 3239 00ee 0B       		.uleb128 0xb
 3240 00ef 3B       		.uleb128 0x3b
 3241 00f0 0B       		.uleb128 0xb
 3242 00f1 49       		.uleb128 0x49
 3243 00f2 13       		.uleb128 0x13
 3244 00f3 02       		.uleb128 0x2
 3245 00f4 18       		.uleb128 0x18
 3246 00f5 00       		.byte	0
 3247 00f6 00       		.byte	0
 3248 00f7 14       		.uleb128 0x14
 3249 00f8 34       		.uleb128 0x34
 3250 00f9 00       		.byte	0
 3251 00fa 03       		.uleb128 0x3
 3252 00fb 0E       		.uleb128 0xe
 3253 00fc 3A       		.uleb128 0x3a
 3254 00fd 0B       		.uleb128 0xb
 3255 00fe 3B       		.uleb128 0x3b
 3256 00ff 0B       		.uleb128 0xb
 3257 0100 49       		.uleb128 0x49
 3258 0101 13       		.uleb128 0x13
 3259 0102 02       		.uleb128 0x2
 3260 0103 18       		.uleb128 0x18
 3261 0104 00       		.byte	0
 3262 0105 00       		.byte	0
 3263 0106 15       		.uleb128 0x15
 3264 0107 2E       		.uleb128 0x2e
 3265 0108 01       		.byte	0x1
 3266 0109 3F       		.uleb128 0x3f
 3267 010a 19       		.uleb128 0x19
 3268 010b 03       		.uleb128 0x3
 3269 010c 0E       		.uleb128 0xe
 3270 010d 3A       		.uleb128 0x3a
 3271 010e 0B       		.uleb128 0xb
 3272 010f 3B       		.uleb128 0x3b
 3273 0110 0B       		.uleb128 0xb
 3274 0111 27       		.uleb128 0x27
 3275 0112 19       		.uleb128 0x19
 3276 0113 49       		.uleb128 0x49
 3277 0114 13       		.uleb128 0x13
 3278 0115 11       		.uleb128 0x11
 3279 0116 01       		.uleb128 0x1
 3280 0117 12       		.uleb128 0x12
 3281 0118 06       		.uleb128 0x6
 3282 0119 40       		.uleb128 0x40
 3283 011a 18       		.uleb128 0x18
ARM GAS  C:\Users\COSMIN~1.MAR\AppData\Local\Temp\cccNbcra.s 			page 68


 3284 011b 9742     		.uleb128 0x2117
 3285 011d 19       		.uleb128 0x19
 3286 011e 01       		.uleb128 0x1
 3287 011f 13       		.uleb128 0x13
 3288 0120 00       		.byte	0
 3289 0121 00       		.byte	0
 3290 0122 16       		.uleb128 0x16
 3291 0123 0F       		.uleb128 0xf
 3292 0124 00       		.byte	0
 3293 0125 0B       		.uleb128 0xb
 3294 0126 0B       		.uleb128 0xb
 3295 0127 49       		.uleb128 0x49
 3296 0128 13       		.uleb128 0x13
 3297 0129 00       		.byte	0
 3298 012a 00       		.byte	0
 3299 012b 17       		.uleb128 0x17
 3300 012c 2E       		.uleb128 0x2e
 3301 012d 01       		.byte	0x1
 3302 012e 3F       		.uleb128 0x3f
 3303 012f 19       		.uleb128 0x19
 3304 0130 03       		.uleb128 0x3
 3305 0131 0E       		.uleb128 0xe
 3306 0132 3A       		.uleb128 0x3a
 3307 0133 0B       		.uleb128 0xb
 3308 0134 3B       		.uleb128 0x3b
 3309 0135 0B       		.uleb128 0xb
 3310 0136 27       		.uleb128 0x27
 3311 0137 19       		.uleb128 0x19
 3312 0138 11       		.uleb128 0x11
 3313 0139 01       		.uleb128 0x1
 3314 013a 12       		.uleb128 0x12
 3315 013b 06       		.uleb128 0x6
 3316 013c 40       		.uleb128 0x40
 3317 013d 18       		.uleb128 0x18
 3318 013e 9642     		.uleb128 0x2116
 3319 0140 19       		.uleb128 0x19
 3320 0141 01       		.uleb128 0x1
 3321 0142 13       		.uleb128 0x13
 3322 0143 00       		.byte	0
 3323 0144 00       		.byte	0
 3324 0145 18       		.uleb128 0x18
 3325 0146 2E       		.uleb128 0x2e
 3326 0147 01       		.byte	0x1
 3327 0148 3F       		.uleb128 0x3f
 3328 0149 19       		.uleb128 0x19
 3329 014a 03       		.uleb128 0x3
 3330 014b 0E       		.uleb128 0xe
 3331 014c 3A       		.uleb128 0x3a
 3332 014d 0B       		.uleb128 0xb
 3333 014e 3B       		.uleb128 0x3b
 3334 014f 0B       		.uleb128 0xb
 3335 0150 27       		.uleb128 0x27
 3336 0151 19       		.uleb128 0x19
 3337 0152 11       		.uleb128 0x11
 3338 0153 01       		.uleb128 0x1
 3339 0154 12       		.uleb128 0x12
 3340 0155 06       		.uleb128 0x6
ARM GAS  C:\Users\COSMIN~1.MAR\AppData\Local\Temp\cccNbcra.s 			page 69


 3341 0156 40       		.uleb128 0x40
 3342 0157 18       		.uleb128 0x18
 3343 0158 9742     		.uleb128 0x2117
 3344 015a 19       		.uleb128 0x19
 3345 015b 01       		.uleb128 0x1
 3346 015c 13       		.uleb128 0x13
 3347 015d 00       		.byte	0
 3348 015e 00       		.byte	0
 3349 015f 19       		.uleb128 0x19
 3350 0160 0B       		.uleb128 0xb
 3351 0161 01       		.byte	0x1
 3352 0162 11       		.uleb128 0x11
 3353 0163 01       		.uleb128 0x1
 3354 0164 12       		.uleb128 0x12
 3355 0165 06       		.uleb128 0x6
 3356 0166 01       		.uleb128 0x1
 3357 0167 13       		.uleb128 0x13
 3358 0168 00       		.byte	0
 3359 0169 00       		.byte	0
 3360 016a 1A       		.uleb128 0x1a
 3361 016b 0B       		.uleb128 0xb
 3362 016c 01       		.byte	0x1
 3363 016d 11       		.uleb128 0x11
 3364 016e 01       		.uleb128 0x1
 3365 016f 12       		.uleb128 0x12
 3366 0170 06       		.uleb128 0x6
 3367 0171 00       		.byte	0
 3368 0172 00       		.byte	0
 3369 0173 1B       		.uleb128 0x1b
 3370 0174 0F       		.uleb128 0xf
 3371 0175 00       		.byte	0
 3372 0176 0B       		.uleb128 0xb
 3373 0177 0B       		.uleb128 0xb
 3374 0178 00       		.byte	0
 3375 0179 00       		.byte	0
 3376 017a 1C       		.uleb128 0x1c
 3377 017b 2E       		.uleb128 0x2e
 3378 017c 01       		.byte	0x1
 3379 017d 3F       		.uleb128 0x3f
 3380 017e 19       		.uleb128 0x19
 3381 017f 03       		.uleb128 0x3
 3382 0180 0E       		.uleb128 0xe
 3383 0181 3A       		.uleb128 0x3a
 3384 0182 0B       		.uleb128 0xb
 3385 0183 3B       		.uleb128 0x3b
 3386 0184 05       		.uleb128 0x5
 3387 0185 27       		.uleb128 0x27
 3388 0186 19       		.uleb128 0x19
 3389 0187 11       		.uleb128 0x11
 3390 0188 01       		.uleb128 0x1
 3391 0189 12       		.uleb128 0x12
 3392 018a 06       		.uleb128 0x6
 3393 018b 40       		.uleb128 0x40
 3394 018c 18       		.uleb128 0x18
 3395 018d 9642     		.uleb128 0x2116
 3396 018f 19       		.uleb128 0x19
 3397 0190 01       		.uleb128 0x1
ARM GAS  C:\Users\COSMIN~1.MAR\AppData\Local\Temp\cccNbcra.s 			page 70


 3398 0191 13       		.uleb128 0x13
 3399 0192 00       		.byte	0
 3400 0193 00       		.byte	0
 3401 0194 1D       		.uleb128 0x1d
 3402 0195 05       		.uleb128 0x5
 3403 0196 00       		.byte	0
 3404 0197 03       		.uleb128 0x3
 3405 0198 0E       		.uleb128 0xe
 3406 0199 3A       		.uleb128 0x3a
 3407 019a 0B       		.uleb128 0xb
 3408 019b 3B       		.uleb128 0x3b
 3409 019c 05       		.uleb128 0x5
 3410 019d 49       		.uleb128 0x49
 3411 019e 13       		.uleb128 0x13
 3412 019f 02       		.uleb128 0x2
 3413 01a0 18       		.uleb128 0x18
 3414 01a1 00       		.byte	0
 3415 01a2 00       		.byte	0
 3416 01a3 1E       		.uleb128 0x1e
 3417 01a4 34       		.uleb128 0x34
 3418 01a5 00       		.byte	0
 3419 01a6 03       		.uleb128 0x3
 3420 01a7 0E       		.uleb128 0xe
 3421 01a8 3A       		.uleb128 0x3a
 3422 01a9 0B       		.uleb128 0xb
 3423 01aa 3B       		.uleb128 0x3b
 3424 01ab 05       		.uleb128 0x5
 3425 01ac 49       		.uleb128 0x49
 3426 01ad 13       		.uleb128 0x13
 3427 01ae 02       		.uleb128 0x2
 3428 01af 18       		.uleb128 0x18
 3429 01b0 00       		.byte	0
 3430 01b1 00       		.byte	0
 3431 01b2 1F       		.uleb128 0x1f
 3432 01b3 2E       		.uleb128 0x2e
 3433 01b4 01       		.byte	0x1
 3434 01b5 3F       		.uleb128 0x3f
 3435 01b6 19       		.uleb128 0x19
 3436 01b7 03       		.uleb128 0x3
 3437 01b8 0E       		.uleb128 0xe
 3438 01b9 3A       		.uleb128 0x3a
 3439 01ba 0B       		.uleb128 0xb
 3440 01bb 3B       		.uleb128 0x3b
 3441 01bc 05       		.uleb128 0x5
 3442 01bd 27       		.uleb128 0x27
 3443 01be 19       		.uleb128 0x19
 3444 01bf 49       		.uleb128 0x49
 3445 01c0 13       		.uleb128 0x13
 3446 01c1 11       		.uleb128 0x11
 3447 01c2 01       		.uleb128 0x1
 3448 01c3 12       		.uleb128 0x12
 3449 01c4 06       		.uleb128 0x6
 3450 01c5 40       		.uleb128 0x40
 3451 01c6 18       		.uleb128 0x18
 3452 01c7 9642     		.uleb128 0x2116
 3453 01c9 19       		.uleb128 0x19
 3454 01ca 01       		.uleb128 0x1
ARM GAS  C:\Users\COSMIN~1.MAR\AppData\Local\Temp\cccNbcra.s 			page 71


 3455 01cb 13       		.uleb128 0x13
 3456 01cc 00       		.byte	0
 3457 01cd 00       		.byte	0
 3458 01ce 20       		.uleb128 0x20
 3459 01cf 34       		.uleb128 0x34
 3460 01d0 00       		.byte	0
 3461 01d1 03       		.uleb128 0x3
 3462 01d2 0E       		.uleb128 0xe
 3463 01d3 3A       		.uleb128 0x3a
 3464 01d4 0B       		.uleb128 0xb
 3465 01d5 3B       		.uleb128 0x3b
 3466 01d6 05       		.uleb128 0x5
 3467 01d7 49       		.uleb128 0x49
 3468 01d8 13       		.uleb128 0x13
 3469 01d9 3F       		.uleb128 0x3f
 3470 01da 19       		.uleb128 0x19
 3471 01db 3C       		.uleb128 0x3c
 3472 01dc 19       		.uleb128 0x19
 3473 01dd 00       		.byte	0
 3474 01de 00       		.byte	0
 3475 01df 00       		.byte	0
 3476              		.section	.debug_aranges,"",%progbits
 3477 0000 9C000000 		.4byte	0x9c
 3478 0004 0200     		.2byte	0x2
 3479 0006 00000000 		.4byte	.Ldebug_info0
 3480 000a 04       		.byte	0x4
 3481 000b 00       		.byte	0
 3482 000c 0000     		.2byte	0
 3483 000e 0000     		.2byte	0
 3484 0010 00000000 		.4byte	.LFB55
 3485 0014 56000000 		.4byte	.LFE55-.LFB55
 3486 0018 00000000 		.4byte	.LFB56
 3487 001c 60000000 		.4byte	.LFE56-.LFB56
 3488 0020 00000000 		.4byte	.LFB57
 3489 0024 60000000 		.4byte	.LFE57-.LFB57
 3490 0028 00000000 		.4byte	.LFB58
 3491 002c 98000000 		.4byte	.LFE58-.LFB58
 3492 0030 00000000 		.4byte	.LFB59
 3493 0034 9C000000 		.4byte	.LFE59-.LFB59
 3494 0038 00000000 		.4byte	.LFB60
 3495 003c 88000000 		.4byte	.LFE60-.LFB60
 3496 0040 00000000 		.4byte	.LFB61
 3497 0044 8C000000 		.4byte	.LFE61-.LFB61
 3498 0048 00000000 		.4byte	.LFB62
 3499 004c 38000000 		.4byte	.LFE62-.LFB62
 3500 0050 00000000 		.4byte	.LFB63
 3501 0054 6C010000 		.4byte	.LFE63-.LFB63
 3502 0058 00000000 		.4byte	.LFB64
 3503 005c 98000000 		.4byte	.LFE64-.LFB64
 3504 0060 00000000 		.4byte	.LFB65
 3505 0064 6C000000 		.4byte	.LFE65-.LFB65
 3506 0068 00000000 		.4byte	.LFB66
 3507 006c 60000000 		.4byte	.LFE66-.LFB66
 3508 0070 00000000 		.4byte	.LFB67
 3509 0074 58010000 		.4byte	.LFE67-.LFB67
 3510 0078 00000000 		.4byte	.LFB68
 3511 007c D8000000 		.4byte	.LFE68-.LFB68
ARM GAS  C:\Users\COSMIN~1.MAR\AppData\Local\Temp\cccNbcra.s 			page 72


 3512 0080 00000000 		.4byte	.LFB69
 3513 0084 74000000 		.4byte	.LFE69-.LFB69
 3514 0088 00000000 		.4byte	.LFB70
 3515 008c 74000000 		.4byte	.LFE70-.LFB70
 3516 0090 00000000 		.4byte	.LFB71
 3517 0094 72000000 		.4byte	.LFE71-.LFB71
 3518 0098 00000000 		.4byte	0
 3519 009c 00000000 		.4byte	0
 3520              		.section	.debug_ranges,"",%progbits
 3521              	.Ldebug_ranges0:
 3522 0000 00000000 		.4byte	.LFB55
 3523 0004 56000000 		.4byte	.LFE55
 3524 0008 00000000 		.4byte	.LFB56
 3525 000c 60000000 		.4byte	.LFE56
 3526 0010 00000000 		.4byte	.LFB57
 3527 0014 60000000 		.4byte	.LFE57
 3528 0018 00000000 		.4byte	.LFB58
 3529 001c 98000000 		.4byte	.LFE58
 3530 0020 00000000 		.4byte	.LFB59
 3531 0024 9C000000 		.4byte	.LFE59
 3532 0028 00000000 		.4byte	.LFB60
 3533 002c 88000000 		.4byte	.LFE60
 3534 0030 00000000 		.4byte	.LFB61
 3535 0034 8C000000 		.4byte	.LFE61
 3536 0038 00000000 		.4byte	.LFB62
 3537 003c 38000000 		.4byte	.LFE62
 3538 0040 00000000 		.4byte	.LFB63
 3539 0044 6C010000 		.4byte	.LFE63
 3540 0048 00000000 		.4byte	.LFB64
 3541 004c 98000000 		.4byte	.LFE64
 3542 0050 00000000 		.4byte	.LFB65
 3543 0054 6C000000 		.4byte	.LFE65
 3544 0058 00000000 		.4byte	.LFB66
 3545 005c 60000000 		.4byte	.LFE66
 3546 0060 00000000 		.4byte	.LFB67
 3547 0064 58010000 		.4byte	.LFE67
 3548 0068 00000000 		.4byte	.LFB68
 3549 006c D8000000 		.4byte	.LFE68
 3550 0070 00000000 		.4byte	.LFB69
 3551 0074 74000000 		.4byte	.LFE69
 3552 0078 00000000 		.4byte	.LFB70
 3553 007c 74000000 		.4byte	.LFE70
 3554 0080 00000000 		.4byte	.LFB71
 3555 0084 72000000 		.4byte	.LFE71
 3556 0088 00000000 		.4byte	0
 3557 008c 00000000 		.4byte	0
 3558              		.section	.debug_macro,"",%progbits
 3559              	.Ldebug_macro0:
 3560 0000 0400     		.2byte	0x4
 3561 0002 02       		.byte	0x2
 3562 0003 00000000 		.4byte	.Ldebug_line0
 3563 0007 07       		.byte	0x7
 3564 0008 00000000 		.4byte	.Ldebug_macro1
 3565 000c 03       		.byte	0x3
 3566 000d 00       		.uleb128 0
 3567 000e 01       		.uleb128 0x1
 3568 000f 03       		.byte	0x3
ARM GAS  C:\Users\COSMIN~1.MAR\AppData\Local\Temp\cccNbcra.s 			page 73


 3569 0010 1A       		.uleb128 0x1a
 3570 0011 06       		.uleb128 0x6
 3571 0012 05       		.byte	0x5
 3572 0013 1B       		.uleb128 0x1b
 3573 0014 2C360000 		.4byte	.LASF355
 3574 0018 03       		.byte	0x3
 3575 0019 1E       		.uleb128 0x1e
 3576 001a 04       		.uleb128 0x4
 3577 001b 07       		.byte	0x7
 3578 001c 00000000 		.4byte	.Ldebug_macro2
 3579 0020 03       		.byte	0x3
 3580 0021 67       		.uleb128 0x67
 3581 0022 07       		.uleb128 0x7
 3582 0023 07       		.byte	0x7
 3583 0024 00000000 		.4byte	.Ldebug_macro3
 3584              		.file 8 "c:\\gnu tools arm embedded\\4.9 2015q1\\lib\\gcc\\arm-none-eabi\\4.9.3\\include\\stdint.h
 3585 0028 03       		.byte	0x3
 3586 0029 50       		.uleb128 0x50
 3587 002a 08       		.uleb128 0x8
 3588 002b 03       		.byte	0x3
 3589 002c 09       		.uleb128 0x9
 3590 002d 03       		.uleb128 0x3
 3591 002e 05       		.byte	0x5
 3592 002f 0A       		.uleb128 0xa
 3593 0030 E0210000 		.4byte	.LASF367
 3594 0034 03       		.byte	0x3
 3595 0035 0C       		.uleb128 0xc
 3596 0036 02       		.uleb128 0x2
 3597 0037 05       		.byte	0x5
 3598 0038 06       		.uleb128 0x6
 3599 0039 185F0000 		.4byte	.LASF368
 3600              		.file 9 "c:\\gnu tools arm embedded\\4.9 2015q1\\arm-none-eabi\\include\\sys\\features.h"
 3601 003d 03       		.byte	0x3
 3602 003e 08       		.uleb128 0x8
 3603 003f 09       		.uleb128 0x9
 3604 0040 07       		.byte	0x7
 3605 0041 00000000 		.4byte	.Ldebug_macro4
 3606 0045 04       		.byte	0x4
 3607 0046 07       		.byte	0x7
 3608 0047 00000000 		.4byte	.Ldebug_macro5
 3609 004b 04       		.byte	0x4
 3610              		.file 10 "c:\\gnu tools arm embedded\\4.9 2015q1\\arm-none-eabi\\include\\sys\\_intsup.h"
 3611 004c 03       		.byte	0x3
 3612 004d 0D       		.uleb128 0xd
 3613 004e 0A       		.uleb128 0xa
 3614 004f 07       		.byte	0x7
 3615 0050 00000000 		.4byte	.Ldebug_macro6
 3616 0054 04       		.byte	0x4
 3617 0055 07       		.byte	0x7
 3618 0056 00000000 		.4byte	.Ldebug_macro7
 3619 005a 04       		.byte	0x4
 3620 005b 05       		.byte	0x5
 3621 005c 0D       		.uleb128 0xd
 3622 005d 92070000 		.4byte	.LASF461
 3623 0061 04       		.byte	0x4
 3624              		.file 11 "system/core_cmInstr.h"
 3625 0062 03       		.byte	0x3
ARM GAS  C:\Users\COSMIN~1.MAR\AppData\Local\Temp\cccNbcra.s 			page 74


 3626 0063 51       		.uleb128 0x51
 3627 0064 0B       		.uleb128 0xb
 3628 0065 07       		.byte	0x7
 3629 0066 00000000 		.4byte	.Ldebug_macro8
 3630 006a 04       		.byte	0x4
 3631              		.file 12 "system/core_cmFunc.h"
 3632 006b 03       		.byte	0x3
 3633 006c 52       		.uleb128 0x52
 3634 006d 0C       		.uleb128 0xc
 3635 006e 05       		.byte	0x5
 3636 006f 19       		.uleb128 0x19
 3637 0070 98510000 		.4byte	.LASF465
 3638 0074 04       		.byte	0x4
 3639 0075 07       		.byte	0x7
 3640 0076 00000000 		.4byte	.Ldebug_macro9
 3641 007a 04       		.byte	0x4
 3642              		.file 13 "system/system_LPC17xx.h"
 3643 007b 03       		.byte	0x3
 3644 007c 68       		.uleb128 0x68
 3645 007d 0D       		.uleb128 0xd
 3646 007e 05       		.byte	0x5
 3647 007f 1B       		.uleb128 0x1b
 3648 0080 DE0B0000 		.4byte	.LASF747
 3649 0084 04       		.byte	0x4
 3650 0085 07       		.byte	0x7
 3651 0086 00000000 		.4byte	.Ldebug_macro10
 3652 008a 04       		.byte	0x4
 3653 008b 03       		.byte	0x3
 3654 008c 1F       		.uleb128 0x1f
 3655 008d 05       		.uleb128 0x5
 3656 008e 07       		.byte	0x7
 3657 008f 00000000 		.4byte	.Ldebug_macro11
 3658 0093 04       		.byte	0x4
 3659 0094 07       		.byte	0x7
 3660 0095 00000000 		.4byte	.Ldebug_macro12
 3661 0099 04       		.byte	0x4
 3662              		.file 14 "core/lpc17xx_clkpwr.h"
 3663 009a 03       		.byte	0x3
 3664 009b 1B       		.uleb128 0x1b
 3665 009c 0E       		.uleb128 0xe
 3666 009d 07       		.byte	0x7
 3667 009e 00000000 		.4byte	.Ldebug_macro13
 3668 00a2 04       		.byte	0x4
 3669              		.file 15 "core/lpc17xx_pinsel.h"
 3670 00a3 03       		.byte	0x3
 3671 00a4 1C       		.uleb128 0x1c
 3672 00a5 0F       		.uleb128 0xf
 3673 00a6 07       		.byte	0x7
 3674 00a7 00000000 		.4byte	.Ldebug_macro14
 3675 00ab 04       		.byte	0x4
 3676              		.file 16 "core/lpc17xx_libcfg_default.h"
 3677 00ac 03       		.byte	0x3
 3678 00ad 25       		.uleb128 0x25
 3679 00ae 10       		.uleb128 0x10
 3680 00af 07       		.byte	0x7
 3681 00b0 00000000 		.4byte	.Ldebug_macro15
 3682 00b4 04       		.byte	0x4
ARM GAS  C:\Users\COSMIN~1.MAR\AppData\Local\Temp\cccNbcra.s 			page 75


 3683 00b5 04       		.byte	0x4
 3684 00b6 00       		.byte	0
 3685              		.section	.debug_macro,"G",%progbits,wm4.0.1834ce015d70b8127b1e5f7bc96e3d8e,comdat
 3686              	.Ldebug_macro1:
 3687 0000 0400     		.2byte	0x4
 3688 0002 00       		.byte	0
 3689 0003 05       		.byte	0x5
 3690 0004 00       		.uleb128 0
 3691 0005 D0590000 		.4byte	.LASF0
 3692 0009 05       		.byte	0x5
 3693 000a 00       		.uleb128 0
 3694 000b E00A0000 		.4byte	.LASF1
 3695 000f 05       		.byte	0x5
 3696 0010 00       		.uleb128 0
 3697 0011 88400000 		.4byte	.LASF2
 3698 0015 05       		.byte	0x5
 3699 0016 00       		.uleb128 0
 3700 0017 ED730000 		.4byte	.LASF3
 3701 001b 05       		.byte	0x5
 3702 001c 00       		.uleb128 0
 3703 001d 6B210000 		.4byte	.LASF4
 3704 0021 05       		.byte	0x5
 3705 0022 00       		.uleb128 0
 3706 0023 EA920000 		.4byte	.LASF5
 3707 0027 05       		.byte	0x5
 3708 0028 00       		.uleb128 0
 3709 0029 5C7E0000 		.4byte	.LASF6
 3710 002d 05       		.byte	0x5
 3711 002e 00       		.uleb128 0
 3712 002f 44240000 		.4byte	.LASF7
 3713 0033 05       		.byte	0x5
 3714 0034 00       		.uleb128 0
 3715 0035 753D0000 		.4byte	.LASF8
 3716 0039 05       		.byte	0x5
 3717 003a 00       		.uleb128 0
 3718 003b E1460000 		.4byte	.LASF9
 3719 003f 05       		.byte	0x5
 3720 0040 00       		.uleb128 0
 3721 0041 D7920000 		.4byte	.LASF10
 3722 0045 05       		.byte	0x5
 3723 0046 00       		.uleb128 0
 3724 0047 9D040000 		.4byte	.LASF11
 3725 004b 05       		.byte	0x5
 3726 004c 00       		.uleb128 0
 3727 004d E06C0000 		.4byte	.LASF12
 3728 0051 05       		.byte	0x5
 3729 0052 00       		.uleb128 0
 3730 0053 F6870000 		.4byte	.LASF13
 3731 0057 05       		.byte	0x5
 3732 0058 00       		.uleb128 0
 3733 0059 D11C0000 		.4byte	.LASF14
 3734 005d 05       		.byte	0x5
 3735 005e 00       		.uleb128 0
 3736 005f EA050000 		.4byte	.LASF15
 3737 0063 05       		.byte	0x5
 3738 0064 00       		.uleb128 0
 3739 0065 96260000 		.4byte	.LASF16
ARM GAS  C:\Users\COSMIN~1.MAR\AppData\Local\Temp\cccNbcra.s 			page 76


 3740 0069 05       		.byte	0x5
 3741 006a 00       		.uleb128 0
 3742 006b 54800000 		.4byte	.LASF17
 3743 006f 05       		.byte	0x5
 3744 0070 00       		.uleb128 0
 3745 0071 991D0000 		.4byte	.LASF18
 3746 0075 05       		.byte	0x5
 3747 0076 00       		.uleb128 0
 3748 0077 5F290000 		.4byte	.LASF19
 3749 007b 05       		.byte	0x5
 3750 007c 00       		.uleb128 0
 3751 007d 0E7A0000 		.4byte	.LASF20
 3752 0081 05       		.byte	0x5
 3753 0082 00       		.uleb128 0
 3754 0083 2B510000 		.4byte	.LASF21
 3755 0087 05       		.byte	0x5
 3756 0088 00       		.uleb128 0
 3757 0089 E87B0000 		.4byte	.LASF22
 3758 008d 05       		.byte	0x5
 3759 008e 00       		.uleb128 0
 3760 008f CC670000 		.4byte	.LASF23
 3761 0093 05       		.byte	0x5
 3762 0094 00       		.uleb128 0
 3763 0095 90100000 		.4byte	.LASF24
 3764 0099 05       		.byte	0x5
 3765 009a 00       		.uleb128 0
 3766 009b 47070000 		.4byte	.LASF25
 3767 009f 05       		.byte	0x5
 3768 00a0 00       		.uleb128 0
 3769 00a1 55530000 		.4byte	.LASF26
 3770 00a5 05       		.byte	0x5
 3771 00a6 00       		.uleb128 0
 3772 00a7 115A0000 		.4byte	.LASF27
 3773 00ab 05       		.byte	0x5
 3774 00ac 00       		.uleb128 0
 3775 00ad 4D190000 		.4byte	.LASF28
 3776 00b1 05       		.byte	0x5
 3777 00b2 00       		.uleb128 0
 3778 00b3 61070000 		.4byte	.LASF29
 3779 00b7 05       		.byte	0x5
 3780 00b8 00       		.uleb128 0
 3781 00b9 C9680000 		.4byte	.LASF30
 3782 00bd 05       		.byte	0x5
 3783 00be 00       		.uleb128 0
 3784 00bf C5290000 		.4byte	.LASF31
 3785 00c3 05       		.byte	0x5
 3786 00c4 00       		.uleb128 0
 3787 00c5 2D550000 		.4byte	.LASF32
 3788 00c9 05       		.byte	0x5
 3789 00ca 00       		.uleb128 0
 3790 00cb AB900000 		.4byte	.LASF33
 3791 00cf 05       		.byte	0x5
 3792 00d0 00       		.uleb128 0
 3793 00d1 B7570000 		.4byte	.LASF34
 3794 00d5 05       		.byte	0x5
 3795 00d6 00       		.uleb128 0
 3796 00d7 166B0000 		.4byte	.LASF35
ARM GAS  C:\Users\COSMIN~1.MAR\AppData\Local\Temp\cccNbcra.s 			page 77


 3797 00db 05       		.byte	0x5
 3798 00dc 00       		.uleb128 0
 3799 00dd 231C0000 		.4byte	.LASF36
 3800 00e1 05       		.byte	0x5
 3801 00e2 00       		.uleb128 0
 3802 00e3 2A440000 		.4byte	.LASF37
 3803 00e7 05       		.byte	0x5
 3804 00e8 00       		.uleb128 0
 3805 00e9 F4070000 		.4byte	.LASF38
 3806 00ed 05       		.byte	0x5
 3807 00ee 00       		.uleb128 0
 3808 00ef 35090000 		.4byte	.LASF39
 3809 00f3 05       		.byte	0x5
 3810 00f4 00       		.uleb128 0
 3811 00f5 3B930000 		.4byte	.LASF40
 3812 00f9 05       		.byte	0x5
 3813 00fa 00       		.uleb128 0
 3814 00fb FB500000 		.4byte	.LASF41
 3815 00ff 05       		.byte	0x5
 3816 0100 00       		.uleb128 0
 3817 0101 3E5A0000 		.4byte	.LASF42
 3818 0105 05       		.byte	0x5
 3819 0106 00       		.uleb128 0
 3820 0107 F7400000 		.4byte	.LASF43
 3821 010b 05       		.byte	0x5
 3822 010c 00       		.uleb128 0
 3823 010d AB850000 		.4byte	.LASF44
 3824 0111 05       		.byte	0x5
 3825 0112 00       		.uleb128 0
 3826 0113 427A0000 		.4byte	.LASF45
 3827 0117 05       		.byte	0x5
 3828 0118 00       		.uleb128 0
 3829 0119 62190000 		.4byte	.LASF46
 3830 011d 05       		.byte	0x5
 3831 011e 00       		.uleb128 0
 3832 011f C58B0000 		.4byte	.LASF47
 3833 0123 05       		.byte	0x5
 3834 0124 00       		.uleb128 0
 3835 0125 55660000 		.4byte	.LASF48
 3836 0129 05       		.byte	0x5
 3837 012a 00       		.uleb128 0
 3838 012b 97120000 		.4byte	.LASF49
 3839 012f 05       		.byte	0x5
 3840 0130 00       		.uleb128 0
 3841 0131 1F160000 		.4byte	.LASF50
 3842 0135 05       		.byte	0x5
 3843 0136 00       		.uleb128 0
 3844 0137 7F2D0000 		.4byte	.LASF51
 3845 013b 05       		.byte	0x5
 3846 013c 00       		.uleb128 0
 3847 013d 99730000 		.4byte	.LASF52
 3848 0141 05       		.byte	0x5
 3849 0142 00       		.uleb128 0
 3850 0143 7F450000 		.4byte	.LASF53
 3851 0147 05       		.byte	0x5
 3852 0148 00       		.uleb128 0
 3853 0149 B8180000 		.4byte	.LASF54
ARM GAS  C:\Users\COSMIN~1.MAR\AppData\Local\Temp\cccNbcra.s 			page 78


 3854 014d 05       		.byte	0x5
 3855 014e 00       		.uleb128 0
 3856 014f 016A0000 		.4byte	.LASF55
 3857 0153 05       		.byte	0x5
 3858 0154 00       		.uleb128 0
 3859 0155 7A470000 		.4byte	.LASF56
 3860 0159 05       		.byte	0x5
 3861 015a 00       		.uleb128 0
 3862 015b 7A0B0000 		.4byte	.LASF57
 3863 015f 05       		.byte	0x5
 3864 0160 00       		.uleb128 0
 3865 0161 E7420000 		.4byte	.LASF58
 3866 0165 05       		.byte	0x5
 3867 0166 00       		.uleb128 0
 3868 0167 ED890000 		.4byte	.LASF59
 3869 016b 05       		.byte	0x5
 3870 016c 00       		.uleb128 0
 3871 016d 44690000 		.4byte	.LASF60
 3872 0171 05       		.byte	0x5
 3873 0172 00       		.uleb128 0
 3874 0173 B22A0000 		.4byte	.LASF61
 3875 0177 05       		.byte	0x5
 3876 0178 00       		.uleb128 0
 3877 0179 47780000 		.4byte	.LASF62
 3878 017d 05       		.byte	0x5
 3879 017e 00       		.uleb128 0
 3880 017f 75780000 		.4byte	.LASF63
 3881 0183 05       		.byte	0x5
 3882 0184 00       		.uleb128 0
 3883 0185 9F3E0000 		.4byte	.LASF64
 3884 0189 05       		.byte	0x5
 3885 018a 00       		.uleb128 0
 3886 018b A5300000 		.4byte	.LASF65
 3887 018f 05       		.byte	0x5
 3888 0190 00       		.uleb128 0
 3889 0191 9B2A0000 		.4byte	.LASF66
 3890 0195 05       		.byte	0x5
 3891 0196 00       		.uleb128 0
 3892 0197 4B120000 		.4byte	.LASF67
 3893 019b 05       		.byte	0x5
 3894 019c 00       		.uleb128 0
 3895 019d 6C800000 		.4byte	.LASF68
 3896 01a1 05       		.byte	0x5
 3897 01a2 00       		.uleb128 0
 3898 01a3 25450000 		.4byte	.LASF69
 3899 01a7 05       		.byte	0x5
 3900 01a8 00       		.uleb128 0
 3901 01a9 30100000 		.4byte	.LASF70
 3902 01ad 05       		.byte	0x5
 3903 01ae 00       		.uleb128 0
 3904 01af 59020000 		.4byte	.LASF71
 3905 01b3 05       		.byte	0x5
 3906 01b4 00       		.uleb128 0
 3907 01b5 6C180000 		.4byte	.LASF72
 3908 01b9 05       		.byte	0x5
 3909 01ba 00       		.uleb128 0
 3910 01bb AC4C0000 		.4byte	.LASF73
ARM GAS  C:\Users\COSMIN~1.MAR\AppData\Local\Temp\cccNbcra.s 			page 79


 3911 01bf 05       		.byte	0x5
 3912 01c0 00       		.uleb128 0
 3913 01c1 934E0000 		.4byte	.LASF74
 3914 01c5 05       		.byte	0x5
 3915 01c6 00       		.uleb128 0
 3916 01c7 1A8B0000 		.4byte	.LASF75
 3917 01cb 05       		.byte	0x5
 3918 01cc 00       		.uleb128 0
 3919 01cd C4770000 		.4byte	.LASF76
 3920 01d1 05       		.byte	0x5
 3921 01d2 00       		.uleb128 0
 3922 01d3 AD700000 		.4byte	.LASF77
 3923 01d7 05       		.byte	0x5
 3924 01d8 00       		.uleb128 0
 3925 01d9 BC130000 		.4byte	.LASF78
 3926 01dd 05       		.byte	0x5
 3927 01de 00       		.uleb128 0
 3928 01df 73030000 		.4byte	.LASF79
 3929 01e3 05       		.byte	0x5
 3930 01e4 00       		.uleb128 0
 3931 01e5 18730000 		.4byte	.LASF80
 3932 01e9 05       		.byte	0x5
 3933 01ea 00       		.uleb128 0
 3934 01eb 21190000 		.4byte	.LASF81
 3935 01ef 05       		.byte	0x5
 3936 01f0 00       		.uleb128 0
 3937 01f1 AF5B0000 		.4byte	.LASF82
 3938 01f5 05       		.byte	0x5
 3939 01f6 00       		.uleb128 0
 3940 01f7 B0370000 		.4byte	.LASF83
 3941 01fb 05       		.byte	0x5
 3942 01fc 00       		.uleb128 0
 3943 01fd C2710000 		.4byte	.LASF84
 3944 0201 05       		.byte	0x5
 3945 0202 00       		.uleb128 0
 3946 0203 4B130000 		.4byte	.LASF85
 3947 0207 05       		.byte	0x5
 3948 0208 00       		.uleb128 0
 3949 0209 3D630000 		.4byte	.LASF86
 3950 020d 05       		.byte	0x5
 3951 020e 00       		.uleb128 0
 3952 020f E0230000 		.4byte	.LASF87
 3953 0213 05       		.byte	0x5
 3954 0214 00       		.uleb128 0
 3955 0215 AB510000 		.4byte	.LASF88
 3956 0219 05       		.byte	0x5
 3957 021a 00       		.uleb128 0
 3958 021b 007C0000 		.4byte	.LASF89
 3959 021f 05       		.byte	0x5
 3960 0220 00       		.uleb128 0
 3961 0221 BD4C0000 		.4byte	.LASF90
 3962 0225 05       		.byte	0x5
 3963 0226 00       		.uleb128 0
 3964 0227 400C0000 		.4byte	.LASF91
 3965 022b 05       		.byte	0x5
 3966 022c 00       		.uleb128 0
 3967 022d DD5C0000 		.4byte	.LASF92
ARM GAS  C:\Users\COSMIN~1.MAR\AppData\Local\Temp\cccNbcra.s 			page 80


 3968 0231 05       		.byte	0x5
 3969 0232 00       		.uleb128 0
 3970 0233 F6610000 		.4byte	.LASF93
 3971 0237 05       		.byte	0x5
 3972 0238 00       		.uleb128 0
 3973 0239 C02F0000 		.4byte	.LASF94
 3974 023d 05       		.byte	0x5
 3975 023e 00       		.uleb128 0
 3976 023f 89910000 		.4byte	.LASF95
 3977 0243 05       		.byte	0x5
 3978 0244 00       		.uleb128 0
 3979 0245 09740000 		.4byte	.LASF96
 3980 0249 05       		.byte	0x5
 3981 024a 00       		.uleb128 0
 3982 024b 6C100000 		.4byte	.LASF97
 3983 024f 05       		.byte	0x5
 3984 0250 00       		.uleb128 0
 3985 0251 BF6F0000 		.4byte	.LASF98
 3986 0255 05       		.byte	0x5
 3987 0256 00       		.uleb128 0
 3988 0257 827A0000 		.4byte	.LASF99
 3989 025b 05       		.byte	0x5
 3990 025c 00       		.uleb128 0
 3991 025d 55940000 		.4byte	.LASF100
 3992 0261 05       		.byte	0x5
 3993 0262 00       		.uleb128 0
 3994 0263 26090000 		.4byte	.LASF101
 3995 0267 05       		.byte	0x5
 3996 0268 00       		.uleb128 0
 3997 0269 E36B0000 		.4byte	.LASF102
 3998 026d 05       		.byte	0x5
 3999 026e 00       		.uleb128 0
 4000 026f 107D0000 		.4byte	.LASF103
 4001 0273 05       		.byte	0x5
 4002 0274 00       		.uleb128 0
 4003 0275 771D0000 		.4byte	.LASF104
 4004 0279 05       		.byte	0x5
 4005 027a 00       		.uleb128 0
 4006 027b F7300000 		.4byte	.LASF105
 4007 027f 05       		.byte	0x5
 4008 0280 00       		.uleb128 0
 4009 0281 1D610000 		.4byte	.LASF106
 4010 0285 05       		.byte	0x5
 4011 0286 00       		.uleb128 0
 4012 0287 77650000 		.4byte	.LASF107
 4013 028b 05       		.byte	0x5
 4014 028c 00       		.uleb128 0
 4015 028d 8C610000 		.4byte	.LASF108
 4016 0291 05       		.byte	0x5
 4017 0292 00       		.uleb128 0
 4018 0293 431A0000 		.4byte	.LASF109
 4019 0297 05       		.byte	0x5
 4020 0298 00       		.uleb128 0
 4021 0299 D8000000 		.4byte	.LASF110
 4022 029d 05       		.byte	0x5
 4023 029e 00       		.uleb128 0
 4024 029f 793A0000 		.4byte	.LASF111
ARM GAS  C:\Users\COSMIN~1.MAR\AppData\Local\Temp\cccNbcra.s 			page 81


 4025 02a3 05       		.byte	0x5
 4026 02a4 00       		.uleb128 0
 4027 02a5 AE250000 		.4byte	.LASF112
 4028 02a9 05       		.byte	0x5
 4029 02aa 00       		.uleb128 0
 4030 02ab D58C0000 		.4byte	.LASF113
 4031 02af 05       		.byte	0x5
 4032 02b0 00       		.uleb128 0
 4033 02b1 35940000 		.4byte	.LASF114
 4034 02b5 05       		.byte	0x5
 4035 02b6 00       		.uleb128 0
 4036 02b7 67170000 		.4byte	.LASF115
 4037 02bb 05       		.byte	0x5
 4038 02bc 00       		.uleb128 0
 4039 02bd BD580000 		.4byte	.LASF116
 4040 02c1 05       		.byte	0x5
 4041 02c2 00       		.uleb128 0
 4042 02c3 64570000 		.4byte	.LASF117
 4043 02c7 05       		.byte	0x5
 4044 02c8 00       		.uleb128 0
 4045 02c9 3F590000 		.4byte	.LASF118
 4046 02cd 05       		.byte	0x5
 4047 02ce 00       		.uleb128 0
 4048 02cf 5B140000 		.4byte	.LASF119
 4049 02d3 05       		.byte	0x5
 4050 02d4 00       		.uleb128 0
 4051 02d5 35580000 		.4byte	.LASF120
 4052 02d9 05       		.byte	0x5
 4053 02da 00       		.uleb128 0
 4054 02db 53560000 		.4byte	.LASF121
 4055 02df 05       		.byte	0x5
 4056 02e0 00       		.uleb128 0
 4057 02e1 134E0000 		.4byte	.LASF122
 4058 02e5 05       		.byte	0x5
 4059 02e6 00       		.uleb128 0
 4060 02e7 33470000 		.4byte	.LASF123
 4061 02eb 05       		.byte	0x5
 4062 02ec 00       		.uleb128 0
 4063 02ed A9570000 		.4byte	.LASF124
 4064 02f1 05       		.byte	0x5
 4065 02f2 00       		.uleb128 0
 4066 02f3 3C560000 		.4byte	.LASF125
 4067 02f7 05       		.byte	0x5
 4068 02f8 00       		.uleb128 0
 4069 02f9 C61F0000 		.4byte	.LASF126
 4070 02fd 05       		.byte	0x5
 4071 02fe 00       		.uleb128 0
 4072 02ff BD1C0000 		.4byte	.LASF127
 4073 0303 05       		.byte	0x5
 4074 0304 00       		.uleb128 0
 4075 0305 2F230000 		.4byte	.LASF128
 4076 0309 05       		.byte	0x5
 4077 030a 00       		.uleb128 0
 4078 030b 14200000 		.4byte	.LASF129
 4079 030f 05       		.byte	0x5
 4080 0310 00       		.uleb128 0
 4081 0311 374C0000 		.4byte	.LASF130
ARM GAS  C:\Users\COSMIN~1.MAR\AppData\Local\Temp\cccNbcra.s 			page 82


 4082 0315 05       		.byte	0x5
 4083 0316 00       		.uleb128 0
 4084 0317 422B0000 		.4byte	.LASF131
 4085 031b 05       		.byte	0x5
 4086 031c 00       		.uleb128 0
 4087 031d 9A310000 		.4byte	.LASF132
 4088 0321 05       		.byte	0x5
 4089 0322 00       		.uleb128 0
 4090 0323 642F0000 		.4byte	.LASF133
 4091 0327 05       		.byte	0x5
 4092 0328 00       		.uleb128 0
 4093 0329 DF070000 		.4byte	.LASF134
 4094 032d 05       		.byte	0x5
 4095 032e 00       		.uleb128 0
 4096 032f 7A3F0000 		.4byte	.LASF135
 4097 0333 05       		.byte	0x5
 4098 0334 00       		.uleb128 0
 4099 0335 03210000 		.4byte	.LASF136
 4100 0339 05       		.byte	0x5
 4101 033a 00       		.uleb128 0
 4102 033b EF940000 		.4byte	.LASF137
 4103 033f 05       		.byte	0x5
 4104 0340 00       		.uleb128 0
 4105 0341 37790000 		.4byte	.LASF138
 4106 0345 05       		.byte	0x5
 4107 0346 00       		.uleb128 0
 4108 0347 91620000 		.4byte	.LASF139
 4109 034b 05       		.byte	0x5
 4110 034c 00       		.uleb128 0
 4111 034d 53930000 		.4byte	.LASF140
 4112 0351 05       		.byte	0x5
 4113 0352 00       		.uleb128 0
 4114 0353 99250000 		.4byte	.LASF141
 4115 0357 05       		.byte	0x5
 4116 0358 00       		.uleb128 0
 4117 0359 01060000 		.4byte	.LASF142
 4118 035d 05       		.byte	0x5
 4119 035e 00       		.uleb128 0
 4120 035f A2800000 		.4byte	.LASF143
 4121 0363 05       		.byte	0x5
 4122 0364 00       		.uleb128 0
 4123 0365 E48B0000 		.4byte	.LASF144
 4124 0369 05       		.byte	0x5
 4125 036a 00       		.uleb128 0
 4126 036b EA170000 		.4byte	.LASF145
 4127 036f 05       		.byte	0x5
 4128 0370 00       		.uleb128 0
 4129 0371 1E3F0000 		.4byte	.LASF146
 4130 0375 05       		.byte	0x5
 4131 0376 00       		.uleb128 0
 4132 0377 87840000 		.4byte	.LASF147
 4133 037b 05       		.byte	0x5
 4134 037c 00       		.uleb128 0
 4135 037d BB2D0000 		.4byte	.LASF148
 4136 0381 05       		.byte	0x5
 4137 0382 00       		.uleb128 0
 4138 0383 A27E0000 		.4byte	.LASF149
ARM GAS  C:\Users\COSMIN~1.MAR\AppData\Local\Temp\cccNbcra.s 			page 83


 4139 0387 05       		.byte	0x5
 4140 0388 00       		.uleb128 0
 4141 0389 BE760000 		.4byte	.LASF150
 4142 038d 05       		.byte	0x5
 4143 038e 00       		.uleb128 0
 4144 038f DB080000 		.4byte	.LASF151
 4145 0393 05       		.byte	0x5
 4146 0394 00       		.uleb128 0
 4147 0395 CA8A0000 		.4byte	.LASF152
 4148 0399 05       		.byte	0x5
 4149 039a 00       		.uleb128 0
 4150 039b C2080000 		.4byte	.LASF153
 4151 039f 05       		.byte	0x5
 4152 03a0 00       		.uleb128 0
 4153 03a1 D53F0000 		.4byte	.LASF154
 4154 03a5 05       		.byte	0x5
 4155 03a6 00       		.uleb128 0
 4156 03a7 06260000 		.4byte	.LASF155
 4157 03ab 05       		.byte	0x5
 4158 03ac 00       		.uleb128 0
 4159 03ad 868C0000 		.4byte	.LASF156
 4160 03b1 05       		.byte	0x5
 4161 03b2 00       		.uleb128 0
 4162 03b3 6C000000 		.4byte	.LASF157
 4163 03b7 05       		.byte	0x5
 4164 03b8 00       		.uleb128 0
 4165 03b9 5A4D0000 		.4byte	.LASF158
 4166 03bd 05       		.byte	0x5
 4167 03be 00       		.uleb128 0
 4168 03bf 9D7B0000 		.4byte	.LASF159
 4169 03c3 05       		.byte	0x5
 4170 03c4 00       		.uleb128 0
 4171 03c5 09460000 		.4byte	.LASF160
 4172 03c9 05       		.byte	0x5
 4173 03ca 00       		.uleb128 0
 4174 03cb ED480000 		.4byte	.LASF161
 4175 03cf 05       		.byte	0x5
 4176 03d0 00       		.uleb128 0
 4177 03d1 13650000 		.4byte	.LASF162
 4178 03d5 05       		.byte	0x5
 4179 03d6 00       		.uleb128 0
 4180 03d7 AB350000 		.4byte	.LASF163
 4181 03db 05       		.byte	0x5
 4182 03dc 00       		.uleb128 0
 4183 03dd FB140000 		.4byte	.LASF164
 4184 03e1 05       		.byte	0x5
 4185 03e2 00       		.uleb128 0
 4186 03e3 CE5E0000 		.4byte	.LASF165
 4187 03e7 05       		.byte	0x5
 4188 03e8 00       		.uleb128 0
 4189 03e9 4D2C0000 		.4byte	.LASF166
 4190 03ed 05       		.byte	0x5
 4191 03ee 00       		.uleb128 0
 4192 03ef CA410000 		.4byte	.LASF167
 4193 03f3 05       		.byte	0x5
 4194 03f4 00       		.uleb128 0
 4195 03f5 D6060000 		.4byte	.LASF168
ARM GAS  C:\Users\COSMIN~1.MAR\AppData\Local\Temp\cccNbcra.s 			page 84


 4196 03f9 05       		.byte	0x5
 4197 03fa 00       		.uleb128 0
 4198 03fb F6350000 		.4byte	.LASF169
 4199 03ff 05       		.byte	0x5
 4200 0400 00       		.uleb128 0
 4201 0401 5D120000 		.4byte	.LASF170
 4202 0405 05       		.byte	0x5
 4203 0406 00       		.uleb128 0
 4204 0407 0A040000 		.4byte	.LASF171
 4205 040b 05       		.byte	0x5
 4206 040c 00       		.uleb128 0
 4207 040d 22680000 		.4byte	.LASF172
 4208 0411 05       		.byte	0x5
 4209 0412 00       		.uleb128 0
 4210 0413 26590000 		.4byte	.LASF173
 4211 0417 05       		.byte	0x5
 4212 0418 00       		.uleb128 0
 4213 0419 7C070000 		.4byte	.LASF174
 4214 041d 05       		.byte	0x5
 4215 041e 00       		.uleb128 0
 4216 041f 34640000 		.4byte	.LASF175
 4217 0423 05       		.byte	0x5
 4218 0424 00       		.uleb128 0
 4219 0425 5E1F0000 		.4byte	.LASF176
 4220 0429 05       		.byte	0x5
 4221 042a 00       		.uleb128 0
 4222 042b 4F8B0000 		.4byte	.LASF177
 4223 042f 05       		.byte	0x5
 4224 0430 00       		.uleb128 0
 4225 0431 183A0000 		.4byte	.LASF178
 4226 0435 05       		.byte	0x5
 4227 0436 00       		.uleb128 0
 4228 0437 985B0000 		.4byte	.LASF179
 4229 043b 05       		.byte	0x5
 4230 043c 00       		.uleb128 0
 4231 043d 86180000 		.4byte	.LASF180
 4232 0441 05       		.byte	0x5
 4233 0442 00       		.uleb128 0
 4234 0443 71230000 		.4byte	.LASF181
 4235 0447 05       		.byte	0x5
 4236 0448 00       		.uleb128 0
 4237 0449 697A0000 		.4byte	.LASF182
 4238 044d 05       		.byte	0x5
 4239 044e 00       		.uleb128 0
 4240 044f 1F030000 		.4byte	.LASF183
 4241 0453 05       		.byte	0x5
 4242 0454 00       		.uleb128 0
 4243 0455 AC450000 		.4byte	.LASF184
 4244 0459 05       		.byte	0x5
 4245 045a 00       		.uleb128 0
 4246 045b F2780000 		.4byte	.LASF185
 4247 045f 05       		.byte	0x5
 4248 0460 00       		.uleb128 0
 4249 0461 0B940000 		.4byte	.LASF186
 4250 0465 05       		.byte	0x5
 4251 0466 00       		.uleb128 0
 4252 0467 5D8F0000 		.4byte	.LASF187
ARM GAS  C:\Users\COSMIN~1.MAR\AppData\Local\Temp\cccNbcra.s 			page 85


 4253 046b 05       		.byte	0x5
 4254 046c 00       		.uleb128 0
 4255 046d 49400000 		.4byte	.LASF188
 4256 0471 05       		.byte	0x5
 4257 0472 00       		.uleb128 0
 4258 0473 04910000 		.4byte	.LASF189
 4259 0477 05       		.byte	0x5
 4260 0478 00       		.uleb128 0
 4261 0479 14100000 		.4byte	.LASF190
 4262 047d 05       		.byte	0x5
 4263 047e 00       		.uleb128 0
 4264 047f DC3A0000 		.4byte	.LASF191
 4265 0483 05       		.byte	0x5
 4266 0484 00       		.uleb128 0
 4267 0485 652C0000 		.4byte	.LASF192
 4268 0489 05       		.byte	0x5
 4269 048a 00       		.uleb128 0
 4270 048b 8A2C0000 		.4byte	.LASF193
 4271 048f 05       		.byte	0x5
 4272 0490 00       		.uleb128 0
 4273 0491 420D0000 		.4byte	.LASF194
 4274 0495 05       		.byte	0x5
 4275 0496 00       		.uleb128 0
 4276 0497 493A0000 		.4byte	.LASF195
 4277 049b 05       		.byte	0x5
 4278 049c 00       		.uleb128 0
 4279 049d F1200000 		.4byte	.LASF196
 4280 04a1 05       		.byte	0x5
 4281 04a2 00       		.uleb128 0
 4282 04a3 35670000 		.4byte	.LASF197
 4283 04a7 05       		.byte	0x5
 4284 04a8 00       		.uleb128 0
 4285 04a9 3D060000 		.4byte	.LASF198
 4286 04ad 05       		.byte	0x5
 4287 04ae 00       		.uleb128 0
 4288 04af 0F560000 		.4byte	.LASF199
 4289 04b3 05       		.byte	0x5
 4290 04b4 00       		.uleb128 0
 4291 04b5 55430000 		.4byte	.LASF200
 4292 04b9 05       		.byte	0x5
 4293 04ba 00       		.uleb128 0
 4294 04bb FD7C0000 		.4byte	.LASF201
 4295 04bf 05       		.byte	0x5
 4296 04c0 00       		.uleb128 0
 4297 04c1 D0610000 		.4byte	.LASF202
 4298 04c5 05       		.byte	0x5
 4299 04c6 00       		.uleb128 0
 4300 04c7 A7950000 		.4byte	.LASF203
 4301 04cb 05       		.byte	0x5
 4302 04cc 00       		.uleb128 0
 4303 04cd 16520000 		.4byte	.LASF204
 4304 04d1 05       		.byte	0x5
 4305 04d2 00       		.uleb128 0
 4306 04d3 8F4C0000 		.4byte	.LASF205
 4307 04d7 05       		.byte	0x5
 4308 04d8 00       		.uleb128 0
 4309 04d9 18510000 		.4byte	.LASF206
ARM GAS  C:\Users\COSMIN~1.MAR\AppData\Local\Temp\cccNbcra.s 			page 86


 4310 04dd 05       		.byte	0x5
 4311 04de 00       		.uleb128 0
 4312 04df 04620000 		.4byte	.LASF207
 4313 04e3 05       		.byte	0x5
 4314 04e4 00       		.uleb128 0
 4315 04e5 B0040000 		.4byte	.LASF208
 4316 04e9 05       		.byte	0x5
 4317 04ea 00       		.uleb128 0
 4318 04eb 99590000 		.4byte	.LASF209
 4319 04ef 05       		.byte	0x5
 4320 04f0 00       		.uleb128 0
 4321 04f1 7F5C0000 		.4byte	.LASF210
 4322 04f5 05       		.byte	0x5
 4323 04f6 00       		.uleb128 0
 4324 04f7 320F0000 		.4byte	.LASF211
 4325 04fb 05       		.byte	0x5
 4326 04fc 00       		.uleb128 0
 4327 04fd 03950000 		.4byte	.LASF212
 4328 0501 05       		.byte	0x5
 4329 0502 00       		.uleb128 0
 4330 0503 0E830000 		.4byte	.LASF213
 4331 0507 05       		.byte	0x5
 4332 0508 00       		.uleb128 0
 4333 0509 A66A0000 		.4byte	.LASF214
 4334 050d 05       		.byte	0x5
 4335 050e 00       		.uleb128 0
 4336 050f 46790000 		.4byte	.LASF215
 4337 0513 05       		.byte	0x5
 4338 0514 00       		.uleb128 0
 4339 0515 268C0000 		.4byte	.LASF216
 4340 0519 05       		.byte	0x5
 4341 051a 00       		.uleb128 0
 4342 051b 22880000 		.4byte	.LASF217
 4343 051f 05       		.byte	0x5
 4344 0520 00       		.uleb128 0
 4345 0521 09840000 		.4byte	.LASF218
 4346 0525 05       		.byte	0x5
 4347 0526 00       		.uleb128 0
 4348 0527 2B770000 		.4byte	.LASF219
 4349 052b 05       		.byte	0x5
 4350 052c 00       		.uleb128 0
 4351 052d C9900000 		.4byte	.LASF220
 4352 0531 05       		.byte	0x5
 4353 0532 00       		.uleb128 0
 4354 0533 F20A0000 		.4byte	.LASF221
 4355 0537 05       		.byte	0x5
 4356 0538 00       		.uleb128 0
 4357 0539 59490000 		.4byte	.LASF222
 4358 053d 05       		.byte	0x5
 4359 053e 00       		.uleb128 0
 4360 053f 99870000 		.4byte	.LASF223
 4361 0543 05       		.byte	0x5
 4362 0544 00       		.uleb128 0
 4363 0545 AA1A0000 		.4byte	.LASF224
 4364 0549 05       		.byte	0x5
 4365 054a 00       		.uleb128 0
 4366 054b A6830000 		.4byte	.LASF225
ARM GAS  C:\Users\COSMIN~1.MAR\AppData\Local\Temp\cccNbcra.s 			page 87


 4367 054f 05       		.byte	0x5
 4368 0550 00       		.uleb128 0
 4369 0551 0A960000 		.4byte	.LASF226
 4370 0555 05       		.byte	0x5
 4371 0556 00       		.uleb128 0
 4372 0557 D8220000 		.4byte	.LASF227
 4373 055b 05       		.byte	0x5
 4374 055c 00       		.uleb128 0
 4375 055d 846A0000 		.4byte	.LASF228
 4376 0561 05       		.byte	0x5
 4377 0562 00       		.uleb128 0
 4378 0563 28220000 		.4byte	.LASF229
 4379 0567 05       		.byte	0x5
 4380 0568 00       		.uleb128 0
 4381 0569 25890000 		.4byte	.LASF230
 4382 056d 05       		.byte	0x5
 4383 056e 00       		.uleb128 0
 4384 056f 97340000 		.4byte	.LASF231
 4385 0573 05       		.byte	0x5
 4386 0574 00       		.uleb128 0
 4387 0575 EF560000 		.4byte	.LASF232
 4388 0579 05       		.byte	0x5
 4389 057a 00       		.uleb128 0
 4390 057b 52080000 		.4byte	.LASF233
 4391 057f 05       		.byte	0x5
 4392 0580 00       		.uleb128 0
 4393 0581 B9060000 		.4byte	.LASF234
 4394 0585 05       		.byte	0x5
 4395 0586 00       		.uleb128 0
 4396 0587 A0760000 		.4byte	.LASF235
 4397 058b 05       		.byte	0x5
 4398 058c 00       		.uleb128 0
 4399 058d E5160000 		.4byte	.LASF236
 4400 0591 05       		.byte	0x5
 4401 0592 00       		.uleb128 0
 4402 0593 D67B0000 		.4byte	.LASF237
 4403 0597 05       		.byte	0x5
 4404 0598 00       		.uleb128 0
 4405 0599 FB040000 		.4byte	.LASF238
 4406 059d 05       		.byte	0x5
 4407 059e 00       		.uleb128 0
 4408 059f 8E650000 		.4byte	.LASF239
 4409 05a3 05       		.byte	0x5
 4410 05a4 00       		.uleb128 0
 4411 05a5 6F8A0000 		.4byte	.LASF240
 4412 05a9 05       		.byte	0x5
 4413 05aa 00       		.uleb128 0
 4414 05ab 734C0000 		.4byte	.LASF241
 4415 05af 05       		.byte	0x5
 4416 05b0 00       		.uleb128 0
 4417 05b1 4B170000 		.4byte	.LASF242
 4418 05b5 05       		.byte	0x5
 4419 05b6 00       		.uleb128 0
 4420 05b7 DD370000 		.4byte	.LASF243
 4421 05bb 05       		.byte	0x5
 4422 05bc 00       		.uleb128 0
 4423 05bd 8E030000 		.4byte	.LASF244
ARM GAS  C:\Users\COSMIN~1.MAR\AppData\Local\Temp\cccNbcra.s 			page 88


 4424 05c1 05       		.byte	0x5
 4425 05c2 00       		.uleb128 0
 4426 05c3 70330000 		.4byte	.LASF245
 4427 05c7 05       		.byte	0x5
 4428 05c8 00       		.uleb128 0
 4429 05c9 7C350000 		.4byte	.LASF246
 4430 05cd 05       		.byte	0x5
 4431 05ce 00       		.uleb128 0
 4432 05cf 977A0000 		.4byte	.LASF247
 4433 05d3 05       		.byte	0x5
 4434 05d4 00       		.uleb128 0
 4435 05d5 2A840000 		.4byte	.LASF248
 4436 05d9 05       		.byte	0x5
 4437 05da 00       		.uleb128 0
 4438 05db EE6A0000 		.4byte	.LASF249
 4439 05df 05       		.byte	0x5
 4440 05e0 00       		.uleb128 0
 4441 05e1 02030000 		.4byte	.LASF250
 4442 05e5 05       		.byte	0x5
 4443 05e6 00       		.uleb128 0
 4444 05e7 13810000 		.4byte	.LASF251
 4445 05eb 05       		.byte	0x5
 4446 05ec 00       		.uleb128 0
 4447 05ed 82680000 		.4byte	.LASF252
 4448 05f1 05       		.byte	0x5
 4449 05f2 00       		.uleb128 0
 4450 05f3 384D0000 		.4byte	.LASF253
 4451 05f7 05       		.byte	0x5
 4452 05f8 00       		.uleb128 0
 4453 05f9 FD6D0000 		.4byte	.LASF254
 4454 05fd 05       		.byte	0x5
 4455 05fe 00       		.uleb128 0
 4456 05ff 8A8A0000 		.4byte	.LASF255
 4457 0603 05       		.byte	0x5
 4458 0604 00       		.uleb128 0
 4459 0605 04730000 		.4byte	.LASF256
 4460 0609 05       		.byte	0x5
 4461 060a 00       		.uleb128 0
 4462 060b 08430000 		.4byte	.LASF257
 4463 060f 05       		.byte	0x5
 4464 0610 00       		.uleb128 0
 4465 0611 DB020000 		.4byte	.LASF258
 4466 0615 05       		.byte	0x5
 4467 0616 00       		.uleb128 0
 4468 0617 EF3A0000 		.4byte	.LASF259
 4469 061b 05       		.byte	0x5
 4470 061c 00       		.uleb128 0
 4471 061d C16C0000 		.4byte	.LASF260
 4472 0621 05       		.byte	0x5
 4473 0622 00       		.uleb128 0
 4474 0623 A9260000 		.4byte	.LASF261
 4475 0627 05       		.byte	0x5
 4476 0628 00       		.uleb128 0
 4477 0629 69830000 		.4byte	.LASF262
 4478 062d 05       		.byte	0x5
 4479 062e 00       		.uleb128 0
 4480 062f BD840000 		.4byte	.LASF263
ARM GAS  C:\Users\COSMIN~1.MAR\AppData\Local\Temp\cccNbcra.s 			page 89


 4481 0633 05       		.byte	0x5
 4482 0634 00       		.uleb128 0
 4483 0635 BA560000 		.4byte	.LASF264
 4484 0639 05       		.byte	0x5
 4485 063a 00       		.uleb128 0
 4486 063b DA2F0000 		.4byte	.LASF265
 4487 063f 05       		.byte	0x5
 4488 0640 00       		.uleb128 0
 4489 0641 00830000 		.4byte	.LASF266
 4490 0645 05       		.byte	0x5
 4491 0646 00       		.uleb128 0
 4492 0647 55720000 		.4byte	.LASF267
 4493 064b 05       		.byte	0x5
 4494 064c 00       		.uleb128 0
 4495 064d CA8D0000 		.4byte	.LASF268
 4496 0651 05       		.byte	0x5
 4497 0652 00       		.uleb128 0
 4498 0653 89340000 		.4byte	.LASF269
 4499 0657 05       		.byte	0x5
 4500 0658 00       		.uleb128 0
 4501 0659 03110000 		.4byte	.LASF270
 4502 065d 05       		.byte	0x5
 4503 065e 00       		.uleb128 0
 4504 065f 39070000 		.4byte	.LASF271
 4505 0663 05       		.byte	0x5
 4506 0664 00       		.uleb128 0
 4507 0665 35690000 		.4byte	.LASF272
 4508 0669 05       		.byte	0x5
 4509 066a 00       		.uleb128 0
 4510 066b C06E0000 		.4byte	.LASF273
 4511 066f 05       		.byte	0x5
 4512 0670 00       		.uleb128 0
 4513 0671 CD250000 		.4byte	.LASF274
 4514 0675 05       		.byte	0x5
 4515 0676 00       		.uleb128 0
 4516 0677 31040000 		.4byte	.LASF275
 4517 067b 05       		.byte	0x5
 4518 067c 00       		.uleb128 0
 4519 067d D7580000 		.4byte	.LASF276
 4520 0681 05       		.byte	0x5
 4521 0682 00       		.uleb128 0
 4522 0683 0B4D0000 		.4byte	.LASF277
 4523 0687 05       		.byte	0x5
 4524 0688 00       		.uleb128 0
 4525 0689 C9110000 		.4byte	.LASF278
 4526 068d 05       		.byte	0x5
 4527 068e 00       		.uleb128 0
 4528 068f DE730000 		.4byte	.LASF279
 4529 0693 05       		.byte	0x5
 4530 0694 00       		.uleb128 0
 4531 0695 80100000 		.4byte	.LASF280
 4532 0699 05       		.byte	0x5
 4533 069a 00       		.uleb128 0
 4534 069b 77730000 		.4byte	.LASF281
 4535 069f 05       		.byte	0x5
 4536 06a0 00       		.uleb128 0
 4537 06a1 48550000 		.4byte	.LASF282
ARM GAS  C:\Users\COSMIN~1.MAR\AppData\Local\Temp\cccNbcra.s 			page 90


 4538 06a5 05       		.byte	0x5
 4539 06a6 00       		.uleb128 0
 4540 06a7 E0870000 		.4byte	.LASF283
 4541 06ab 05       		.byte	0x5
 4542 06ac 00       		.uleb128 0
 4543 06ad FE6B0000 		.4byte	.LASF284
 4544 06b1 05       		.byte	0x5
 4545 06b2 00       		.uleb128 0
 4546 06b3 F3700000 		.4byte	.LASF285
 4547 06b7 05       		.byte	0x5
 4548 06b8 00       		.uleb128 0
 4549 06b9 662B0000 		.4byte	.LASF286
 4550 06bd 05       		.byte	0x5
 4551 06be 00       		.uleb128 0
 4552 06bf A24F0000 		.4byte	.LASF287
 4553 06c3 05       		.byte	0x5
 4554 06c4 00       		.uleb128 0
 4555 06c5 24710000 		.4byte	.LASF288
 4556 06c9 05       		.byte	0x5
 4557 06ca 00       		.uleb128 0
 4558 06cb 79400000 		.4byte	.LASF289
 4559 06cf 05       		.byte	0x5
 4560 06d0 00       		.uleb128 0
 4561 06d1 BC2E0000 		.4byte	.LASF290
 4562 06d5 05       		.byte	0x5
 4563 06d6 00       		.uleb128 0
 4564 06d7 06920000 		.4byte	.LASF291
 4565 06db 05       		.byte	0x5
 4566 06dc 00       		.uleb128 0
 4567 06dd 851A0000 		.4byte	.LASF292
 4568 06e1 05       		.byte	0x5
 4569 06e2 00       		.uleb128 0
 4570 06e3 BB010000 		.4byte	.LASF293
 4571 06e7 05       		.byte	0x5
 4572 06e8 00       		.uleb128 0
 4573 06e9 7F000000 		.4byte	.LASF294
 4574 06ed 05       		.byte	0x5
 4575 06ee 00       		.uleb128 0
 4576 06ef 468A0000 		.4byte	.LASF295
 4577 06f3 05       		.byte	0x5
 4578 06f4 00       		.uleb128 0
 4579 06f5 F25B0000 		.4byte	.LASF296
 4580 06f9 05       		.byte	0x5
 4581 06fa 00       		.uleb128 0
 4582 06fb FC290000 		.4byte	.LASF297
 4583 06ff 05       		.byte	0x5
 4584 0700 00       		.uleb128 0
 4585 0701 EF180000 		.4byte	.LASF298
 4586 0705 05       		.byte	0x5
 4587 0706 00       		.uleb128 0
 4588 0707 297D0000 		.4byte	.LASF299
 4589 070b 05       		.byte	0x5
 4590 070c 00       		.uleb128 0
 4591 070d 5E110000 		.4byte	.LASF300
 4592 0711 05       		.byte	0x5
 4593 0712 00       		.uleb128 0
 4594 0713 59830000 		.4byte	.LASF301
ARM GAS  C:\Users\COSMIN~1.MAR\AppData\Local\Temp\cccNbcra.s 			page 91


 4595 0717 05       		.byte	0x5
 4596 0718 00       		.uleb128 0
 4597 0719 C73E0000 		.4byte	.LASF302
 4598 071d 05       		.byte	0x5
 4599 071e 00       		.uleb128 0
 4600 071f C13B0000 		.4byte	.LASF303
 4601 0723 05       		.byte	0x5
 4602 0724 00       		.uleb128 0
 4603 0725 F14F0000 		.4byte	.LASF304
 4604 0729 05       		.byte	0x5
 4605 072a 00       		.uleb128 0
 4606 072b 4E7D0000 		.4byte	.LASF305
 4607 072f 05       		.byte	0x5
 4608 0730 00       		.uleb128 0
 4609 0731 29740000 		.4byte	.LASF306
 4610 0735 05       		.byte	0x5
 4611 0736 00       		.uleb128 0
 4612 0737 A40A0000 		.4byte	.LASF307
 4613 073b 05       		.byte	0x5
 4614 073c 00       		.uleb128 0
 4615 073d 0C2A0000 		.4byte	.LASF308
 4616 0741 05       		.byte	0x5
 4617 0742 00       		.uleb128 0
 4618 0743 52650000 		.4byte	.LASF309
 4619 0747 05       		.byte	0x5
 4620 0748 00       		.uleb128 0
 4621 0749 9E190000 		.4byte	.LASF310
 4622 074d 05       		.byte	0x5
 4623 074e 00       		.uleb128 0
 4624 074f 5A5C0000 		.4byte	.LASF311
 4625 0753 05       		.byte	0x5
 4626 0754 00       		.uleb128 0
 4627 0755 3D7C0000 		.4byte	.LASF312
 4628 0759 05       		.byte	0x5
 4629 075a 00       		.uleb128 0
 4630 075b 49210000 		.4byte	.LASF313
 4631 075f 05       		.byte	0x5
 4632 0760 00       		.uleb128 0
 4633 0761 72010000 		.4byte	.LASF314
 4634 0765 05       		.byte	0x5
 4635 0766 00       		.uleb128 0
 4636 0767 E1330000 		.4byte	.LASF315
 4637 076b 05       		.byte	0x5
 4638 076c 00       		.uleb128 0
 4639 076d E0470000 		.4byte	.LASF316
 4640 0771 05       		.byte	0x5
 4641 0772 00       		.uleb128 0
 4642 0773 1A4D0000 		.4byte	.LASF317
 4643 0777 05       		.byte	0x5
 4644 0778 00       		.uleb128 0
 4645 0779 C22B0000 		.4byte	.LASF318
 4646 077d 05       		.byte	0x5
 4647 077e 00       		.uleb128 0
 4648 077f AA340000 		.4byte	.LASF319
 4649 0783 05       		.byte	0x5
 4650 0784 00       		.uleb128 0
 4651 0785 053D0000 		.4byte	.LASF320
ARM GAS  C:\Users\COSMIN~1.MAR\AppData\Local\Temp\cccNbcra.s 			page 92


 4652 0789 05       		.byte	0x5
 4653 078a 00       		.uleb128 0
 4654 078b 19400000 		.4byte	.LASF321
 4655 078f 05       		.byte	0x5
 4656 0790 00       		.uleb128 0
 4657 0791 A9290000 		.4byte	.LASF322
 4658 0795 05       		.byte	0x5
 4659 0796 00       		.uleb128 0
 4660 0797 3A510000 		.4byte	.LASF323
 4661 079b 05       		.byte	0x5
 4662 079c 00       		.uleb128 0
 4663 079d DB830000 		.4byte	.LASF324
 4664 07a1 05       		.byte	0x5
 4665 07a2 00       		.uleb128 0
 4666 07a3 B9590000 		.4byte	.LASF325
 4667 07a7 05       		.byte	0x5
 4668 07a8 00       		.uleb128 0
 4669 07a9 263D0000 		.4byte	.LASF326
 4670 07ad 05       		.byte	0x5
 4671 07ae 00       		.uleb128 0
 4672 07af 31490000 		.4byte	.LASF327
 4673 07b3 05       		.byte	0x5
 4674 07b4 00       		.uleb128 0
 4675 07b5 EF830000 		.4byte	.LASF328
 4676 07b9 05       		.byte	0x5
 4677 07ba 00       		.uleb128 0
 4678 07bb E2610000 		.4byte	.LASF329
 4679 07bf 05       		.byte	0x5
 4680 07c0 00       		.uleb128 0
 4681 07c1 59900000 		.4byte	.LASF330
 4682 07c5 05       		.byte	0x5
 4683 07c6 00       		.uleb128 0
 4684 07c7 3B3D0000 		.4byte	.LASF331
 4685 07cb 05       		.byte	0x5
 4686 07cc 00       		.uleb128 0
 4687 07cd C15C0000 		.4byte	.LASF332
 4688 07d1 05       		.byte	0x5
 4689 07d2 00       		.uleb128 0
 4690 07d3 413E0000 		.4byte	.LASF333
 4691 07d7 05       		.byte	0x5
 4692 07d8 00       		.uleb128 0
 4693 07d9 0E080000 		.4byte	.LASF334
 4694 07dd 05       		.byte	0x5
 4695 07de 00       		.uleb128 0
 4696 07df 5E5D0000 		.4byte	.LASF335
 4697 07e3 05       		.byte	0x5
 4698 07e4 00       		.uleb128 0
 4699 07e5 804D0000 		.4byte	.LASF336
 4700 07e9 05       		.byte	0x5
 4701 07ea 00       		.uleb128 0
 4702 07eb 27690000 		.4byte	.LASF337
 4703 07ef 05       		.byte	0x5
 4704 07f0 00       		.uleb128 0
 4705 07f1 7A8C0000 		.4byte	.LASF338
 4706 07f5 05       		.byte	0x5
 4707 07f6 00       		.uleb128 0
 4708 07f7 E7850000 		.4byte	.LASF339
ARM GAS  C:\Users\COSMIN~1.MAR\AppData\Local\Temp\cccNbcra.s 			page 93


 4709 07fb 05       		.byte	0x5
 4710 07fc 00       		.uleb128 0
 4711 07fd 06610000 		.4byte	.LASF340
 4712 0801 05       		.byte	0x5
 4713 0802 00       		.uleb128 0
 4714 0803 D0810000 		.4byte	.LASF341
 4715 0807 05       		.byte	0x5
 4716 0808 00       		.uleb128 0
 4717 0809 7A0D0000 		.4byte	.LASF342
 4718 080d 05       		.byte	0x5
 4719 080e 00       		.uleb128 0
 4720 080f 49410000 		.4byte	.LASF343
 4721 0813 05       		.byte	0x5
 4722 0814 00       		.uleb128 0
 4723 0815 66130000 		.4byte	.LASF344
 4724 0819 05       		.byte	0x5
 4725 081a 00       		.uleb128 0
 4726 081b 7C700000 		.4byte	.LASF345
 4727 081f 05       		.byte	0x5
 4728 0820 00       		.uleb128 0
 4729 0821 EC060000 		.4byte	.LASF346
 4730 0825 05       		.byte	0x5
 4731 0826 00       		.uleb128 0
 4732 0827 941A0000 		.4byte	.LASF347
 4733 082b 05       		.byte	0x5
 4734 082c 00       		.uleb128 0
 4735 082d 64580000 		.4byte	.LASF348
 4736 0831 05       		.byte	0x5
 4737 0832 00       		.uleb128 0
 4738 0833 D6360000 		.4byte	.LASF349
 4739 0837 05       		.byte	0x5
 4740 0838 00       		.uleb128 0
 4741 0839 4E840000 		.4byte	.LASF350
 4742 083d 05       		.byte	0x5
 4743 083e 00       		.uleb128 0
 4744 083f BE360000 		.4byte	.LASF351
 4745 0843 05       		.byte	0x5
 4746 0844 00       		.uleb128 0
 4747 0845 BC430000 		.4byte	.LASF352
 4748 0849 05       		.byte	0x5
 4749 084a 00       		.uleb128 0
 4750 084b 99710000 		.4byte	.LASF353
 4751 084f 05       		.byte	0x5
 4752 0850 00       		.uleb128 0
 4753 0851 66260000 		.4byte	.LASF354
 4754 0855 00       		.byte	0
 4755              		.section	.debug_macro,"G",%progbits,wm4.LPC17xx.h.27.964facdaadd4aa3f18ac78c8a78f0013,comdat
 4756              	.Ldebug_macro2:
 4757 0000 0400     		.2byte	0x4
 4758 0002 00       		.byte	0
 4759 0003 05       		.byte	0x5
 4760 0004 1B       		.uleb128 0x1b
 4761 0005 07120000 		.4byte	.LASF356
 4762 0009 05       		.byte	0x5
 4763 000a 62       		.uleb128 0x62
 4764 000b F4430000 		.4byte	.LASF357
 4765 000f 05       		.byte	0x5
ARM GAS  C:\Users\COSMIN~1.MAR\AppData\Local\Temp\cccNbcra.s 			page 94


 4766 0010 63       		.uleb128 0x63
 4767 0011 6A2A0000 		.4byte	.LASF358
 4768 0015 05       		.byte	0x5
 4769 0016 64       		.uleb128 0x64
 4770 0017 16620000 		.4byte	.LASF359
 4771 001b 00       		.byte	0
 4772              		.section	.debug_macro,"G",%progbits,wm4.core_cm3.h.32.ec4df48419563a0d596421d1133ac586,comdat
 4773              	.Ldebug_macro3:
 4774 0000 0400     		.2byte	0x4
 4775 0002 00       		.byte	0
 4776 0003 05       		.byte	0x5
 4777 0004 20       		.uleb128 0x20
 4778 0005 22270000 		.4byte	.LASF360
 4779 0009 05       		.byte	0x5
 4780 000a 37       		.uleb128 0x37
 4781 000b 02680000 		.4byte	.LASF361
 4782 000f 05       		.byte	0x5
 4783 0010 38       		.uleb128 0x38
 4784 0011 69380000 		.4byte	.LASF362
 4785 0015 05       		.byte	0x5
 4786 0016 39       		.uleb128 0x39
 4787 0017 FF240000 		.4byte	.LASF363
 4788 001b 05       		.byte	0x5
 4789 001c 3B       		.uleb128 0x3b
 4790 001d 93430000 		.4byte	.LASF364
 4791 0021 05       		.byte	0x5
 4792 0022 47       		.uleb128 0x47
 4793 0023 ED120000 		.4byte	.LASF365
 4794 0027 05       		.byte	0x5
 4795 0028 48       		.uleb128 0x48
 4796 0029 58550000 		.4byte	.LASF366
 4797 002d 00       		.byte	0
 4798              		.section	.debug_macro,"G",%progbits,wm4.features.h.22.2e382148a0560adabf236cddd4e880f4,comdat
 4799              	.Ldebug_macro4:
 4800 0000 0400     		.2byte	0x4
 4801 0002 00       		.byte	0
 4802 0003 05       		.byte	0x5
 4803 0004 16       		.uleb128 0x16
 4804 0005 0A280000 		.4byte	.LASF369
 4805 0009 05       		.byte	0x5
 4806 000a 1F       		.uleb128 0x1f
 4807 000b 841F0000 		.4byte	.LASF370
 4808 000f 05       		.byte	0x5
 4809 0010 20       		.uleb128 0x20
 4810 0011 29560000 		.4byte	.LASF371
 4811 0015 05       		.byte	0x5
 4812 0016 25       		.uleb128 0x25
 4813 0017 F7160000 		.4byte	.LASF372
 4814 001b 05       		.byte	0x5
 4815 001c 2C       		.uleb128 0x2c
 4816 001d 25830000 		.4byte	.LASF373
 4817 0021 00       		.byte	0
 4818              		.section	.debug_macro,"G",%progbits,wm4._default_types.h.15.933e8edd27a65e0b69af4a865eb623d2,comda
 4819              	.Ldebug_macro5:
 4820 0000 0400     		.2byte	0x4
 4821 0002 00       		.byte	0
 4822 0003 05       		.byte	0x5
ARM GAS  C:\Users\COSMIN~1.MAR\AppData\Local\Temp\cccNbcra.s 			page 95


 4823 0004 0F       		.uleb128 0xf
 4824 0005 40530000 		.4byte	.LASF374
 4825 0009 05       		.byte	0x5
 4826 000a 21       		.uleb128 0x21
 4827 000b 35400000 		.4byte	.LASF375
 4828 000f 05       		.byte	0x5
 4829 0010 2F       		.uleb128 0x2f
 4830 0011 F32C0000 		.4byte	.LASF376
 4831 0015 05       		.byte	0x5
 4832 0016 45       		.uleb128 0x45
 4833 0017 9E8C0000 		.4byte	.LASF377
 4834 001b 05       		.byte	0x5
 4835 001c 5F       		.uleb128 0x5f
 4836 001d FE640000 		.4byte	.LASF378
 4837 0021 05       		.byte	0x5
 4838 0022 7E       		.uleb128 0x7e
 4839 0023 F7590000 		.4byte	.LASF379
 4840 0027 05       		.byte	0x5
 4841 0028 9801     		.uleb128 0x98
 4842 002a 51180000 		.4byte	.LASF380
 4843 002e 05       		.byte	0x5
 4844 002f AE01     		.uleb128 0xae
 4845 0031 40760000 		.4byte	.LASF381
 4846 0035 05       		.byte	0x5
 4847 0036 C001     		.uleb128 0xc0
 4848 0038 61520000 		.4byte	.LASF382
 4849 003c 06       		.byte	0x6
 4850 003d D601     		.uleb128 0xd6
 4851 003f F8640000 		.4byte	.LASF383
 4852 0043 00       		.byte	0
 4853              		.section	.debug_macro,"G",%progbits,wm4._intsup.h.10.ca9f32a61b410c270a48d1161ca2c217,comdat
 4854              	.Ldebug_macro6:
 4855 0000 0400     		.2byte	0x4
 4856 0002 00       		.byte	0
 4857 0003 05       		.byte	0x5
 4858 0004 0A       		.uleb128 0xa
 4859 0005 E0880000 		.4byte	.LASF384
 4860 0009 05       		.byte	0x5
 4861 000a 10       		.uleb128 0x10
 4862 000b 9A220000 		.4byte	.LASF385
 4863 000f 05       		.byte	0x5
 4864 0010 1A       		.uleb128 0x1a
 4865 0011 0F6D0000 		.4byte	.LASF386
 4866 0015 05       		.byte	0x5
 4867 0016 21       		.uleb128 0x21
 4868 0017 D3800000 		.4byte	.LASF387
 4869 001b 00       		.byte	0
 4870              		.section	.debug_macro,"G",%progbits,wm4.stdint.h.22.f4a337c398d8b6d821a97202448bc0d0,comdat
 4871              	.Ldebug_macro7:
 4872 0000 0400     		.2byte	0x4
 4873 0002 00       		.byte	0
 4874 0003 05       		.byte	0x5
 4875 0004 16       		.uleb128 0x16
 4876 0005 A82D0000 		.4byte	.LASF388
 4877 0009 05       		.byte	0x5
 4878 000a 1C       		.uleb128 0x1c
 4879 000b 8F8F0000 		.4byte	.LASF389
ARM GAS  C:\Users\COSMIN~1.MAR\AppData\Local\Temp\cccNbcra.s 			page 96


 4880 000f 05       		.byte	0x5
 4881 0010 22       		.uleb128 0x22
 4882 0011 45490000 		.4byte	.LASF390
 4883 0015 05       		.byte	0x5
 4884 0016 28       		.uleb128 0x28
 4885 0017 56330000 		.4byte	.LASF391
 4886 001b 05       		.byte	0x5
 4887 001c 2E       		.uleb128 0x2e
 4888 001d 85410000 		.4byte	.LASF392
 4889 0021 05       		.byte	0x5
 4890 0022 34       		.uleb128 0x34
 4891 0023 A73B0000 		.4byte	.LASF393
 4892 0027 05       		.byte	0x5
 4893 0028 3A       		.uleb128 0x3a
 4894 0029 A2810000 		.4byte	.LASF394
 4895 002d 05       		.byte	0x5
 4896 002e 40       		.uleb128 0x40
 4897 002f 56390000 		.4byte	.LASF395
 4898 0033 05       		.byte	0x5
 4899 0034 4C       		.uleb128 0x4c
 4900 0035 A25A0000 		.4byte	.LASF396
 4901 0039 05       		.byte	0x5
 4902 003a 56       		.uleb128 0x56
 4903 003b 4B580000 		.4byte	.LASF397
 4904 003f 05       		.byte	0x5
 4905 0040 60       		.uleb128 0x60
 4906 0041 710F0000 		.4byte	.LASF398
 4907 0045 05       		.byte	0x5
 4908 0046 6A       		.uleb128 0x6a
 4909 0047 4D260000 		.4byte	.LASF399
 4910 004b 05       		.byte	0x5
 4911 004c AD01     		.uleb128 0xad
 4912 004e 40360000 		.4byte	.LASF400
 4913 0052 05       		.byte	0x5
 4914 0053 AE01     		.uleb128 0xae
 4915 0055 CD850000 		.4byte	.LASF401
 4916 0059 05       		.byte	0x5
 4917 005a AF01     		.uleb128 0xaf
 4918 005c AF210000 		.4byte	.LASF402
 4919 0060 05       		.byte	0x5
 4920 0061 C501     		.uleb128 0xc5
 4921 0063 373C0000 		.4byte	.LASF403
 4922 0067 05       		.byte	0x5
 4923 0068 C601     		.uleb128 0xc6
 4924 006a 705E0000 		.4byte	.LASF404
 4925 006e 05       		.byte	0x5
 4926 006f C701     		.uleb128 0xc7
 4927 0071 0B1C0000 		.4byte	.LASF405
 4928 0075 05       		.byte	0x5
 4929 0076 CF01     		.uleb128 0xcf
 4930 0078 E3800000 		.4byte	.LASF406
 4931 007c 05       		.byte	0x5
 4932 007d D001     		.uleb128 0xd0
 4933 007f 46300000 		.4byte	.LASF407
 4934 0083 05       		.byte	0x5
 4935 0084 D101     		.uleb128 0xd1
 4936 0086 611A0000 		.4byte	.LASF408
ARM GAS  C:\Users\COSMIN~1.MAR\AppData\Local\Temp\cccNbcra.s 			page 97


 4937 008a 05       		.byte	0x5
 4938 008b DB01     		.uleb128 0xdb
 4939 008d 365E0000 		.4byte	.LASF409
 4940 0091 05       		.byte	0x5
 4941 0092 DC01     		.uleb128 0xdc
 4942 0094 51380000 		.4byte	.LASF410
 4943 0098 05       		.byte	0x5
 4944 0099 DD01     		.uleb128 0xdd
 4945 009b 12360000 		.4byte	.LASF411
 4946 009f 05       		.byte	0x5
 4947 00a0 E501     		.uleb128 0xe5
 4948 00a2 6D510000 		.4byte	.LASF412
 4949 00a6 05       		.byte	0x5
 4950 00a7 E601     		.uleb128 0xe6
 4951 00a9 75590000 		.4byte	.LASF413
 4952 00ad 05       		.byte	0x5
 4953 00ae E701     		.uleb128 0xe7
 4954 00b0 E96F0000 		.4byte	.LASF414
 4955 00b4 05       		.byte	0x5
 4956 00b5 F101     		.uleb128 0xf1
 4957 00b7 A3710000 		.4byte	.LASF415
 4958 00bb 05       		.byte	0x5
 4959 00bc F201     		.uleb128 0xf2
 4960 00be 5B4C0000 		.4byte	.LASF416
 4961 00c2 05       		.byte	0x5
 4962 00c3 F301     		.uleb128 0xf3
 4963 00c5 460E0000 		.4byte	.LASF417
 4964 00c9 05       		.byte	0x5
 4965 00ca 8102     		.uleb128 0x101
 4966 00cc 3D7B0000 		.4byte	.LASF418
 4967 00d0 05       		.byte	0x5
 4968 00d1 8202     		.uleb128 0x102
 4969 00d3 BC230000 		.4byte	.LASF419
 4970 00d7 05       		.byte	0x5
 4971 00d8 8302     		.uleb128 0x103
 4972 00da DF7E0000 		.4byte	.LASF420
 4973 00de 05       		.byte	0x5
 4974 00df 9302     		.uleb128 0x113
 4975 00e1 8C7D0000 		.4byte	.LASF421
 4976 00e5 05       		.byte	0x5
 4977 00e6 9402     		.uleb128 0x114
 4978 00e8 D2050000 		.4byte	.LASF422
 4979 00ec 05       		.byte	0x5
 4980 00ed 9502     		.uleb128 0x115
 4981 00ef D55A0000 		.4byte	.LASF423
 4982 00f3 05       		.byte	0x5
 4983 00f4 A302     		.uleb128 0x123
 4984 00f6 1A140000 		.4byte	.LASF424
 4985 00fa 05       		.byte	0x5
 4986 00fb A402     		.uleb128 0x124
 4987 00fd 990F0000 		.4byte	.LASF425
 4988 0101 05       		.byte	0x5
 4989 0102 A502     		.uleb128 0x125
 4990 0104 B97E0000 		.4byte	.LASF426
 4991 0108 05       		.byte	0x5
 4992 0109 B302     		.uleb128 0x133
 4993 010b 15570000 		.4byte	.LASF427
ARM GAS  C:\Users\COSMIN~1.MAR\AppData\Local\Temp\cccNbcra.s 			page 98


 4994 010f 05       		.byte	0x5
 4995 0110 B402     		.uleb128 0x134
 4996 0112 D83B0000 		.4byte	.LASF428
 4997 0116 05       		.byte	0x5
 4998 0117 B502     		.uleb128 0x135
 4999 0119 9A1B0000 		.4byte	.LASF429
 5000 011d 05       		.byte	0x5
 5001 011e C302     		.uleb128 0x143
 5002 0120 43220000 		.4byte	.LASF430
 5003 0124 05       		.byte	0x5
 5004 0125 C402     		.uleb128 0x144
 5005 0127 B38C0000 		.4byte	.LASF431
 5006 012b 05       		.byte	0x5
 5007 012c C502     		.uleb128 0x145
 5008 012e A18B0000 		.4byte	.LASF432
 5009 0132 05       		.byte	0x5
 5010 0133 D302     		.uleb128 0x153
 5011 0135 9C150000 		.4byte	.LASF433
 5012 0139 05       		.byte	0x5
 5013 013a D402     		.uleb128 0x154
 5014 013c 02710000 		.4byte	.LASF434
 5015 0140 05       		.byte	0x5
 5016 0141 D502     		.uleb128 0x155
 5017 0143 EC650000 		.4byte	.LASF435
 5018 0147 05       		.byte	0x5
 5019 0148 E302     		.uleb128 0x163
 5020 014a E35E0000 		.4byte	.LASF436
 5021 014e 05       		.byte	0x5
 5022 014f E402     		.uleb128 0x164
 5023 0151 820A0000 		.4byte	.LASF437
 5024 0155 05       		.byte	0x5
 5025 0156 E502     		.uleb128 0x165
 5026 0158 D5530000 		.4byte	.LASF438
 5027 015c 05       		.byte	0x5
 5028 015d F302     		.uleb128 0x173
 5029 015f 77500000 		.4byte	.LASF439
 5030 0163 05       		.byte	0x5
 5031 0164 F402     		.uleb128 0x174
 5032 0166 B7200000 		.4byte	.LASF440
 5033 016a 05       		.byte	0x5
 5034 016b FC02     		.uleb128 0x17c
 5035 016d 63370000 		.4byte	.LASF441
 5036 0171 05       		.byte	0x5
 5037 0172 8403     		.uleb128 0x184
 5038 0174 93170000 		.4byte	.LASF442
 5039 0178 05       		.byte	0x5
 5040 0179 8A03     		.uleb128 0x18a
 5041 017b 88380000 		.4byte	.LASF443
 5042 017f 05       		.byte	0x5
 5043 0180 8B03     		.uleb128 0x18b
 5044 0182 9C5C0000 		.4byte	.LASF444
 5045 0186 05       		.byte	0x5
 5046 0187 8F03     		.uleb128 0x18f
 5047 0189 576D0000 		.4byte	.LASF445
 5048 018d 05       		.byte	0x5
 5049 018e 9303     		.uleb128 0x193
 5050 0190 4B2A0000 		.4byte	.LASF446
ARM GAS  C:\Users\COSMIN~1.MAR\AppData\Local\Temp\cccNbcra.s 			page 99


 5051 0194 05       		.byte	0x5
 5052 0195 9803     		.uleb128 0x198
 5053 0197 5F610000 		.4byte	.LASF447
 5054 019b 05       		.byte	0x5
 5055 019c A303     		.uleb128 0x1a3
 5056 019e 7C150000 		.4byte	.LASF448
 5057 01a2 05       		.byte	0x5
 5058 01a3 AD03     		.uleb128 0x1ad
 5059 01a5 E1290000 		.4byte	.LASF449
 5060 01a9 05       		.byte	0x5
 5061 01aa B203     		.uleb128 0x1b2
 5062 01ac 3F040000 		.4byte	.LASF450
 5063 01b0 05       		.byte	0x5
 5064 01b1 B903     		.uleb128 0x1b9
 5065 01b3 7E420000 		.4byte	.LASF451
 5066 01b7 05       		.byte	0x5
 5067 01b8 BA03     		.uleb128 0x1ba
 5068 01ba F6790000 		.4byte	.LASF452
 5069 01be 05       		.byte	0x5
 5070 01bf C503     		.uleb128 0x1c5
 5071 01c1 FC0F0000 		.4byte	.LASF453
 5072 01c5 05       		.byte	0x5
 5073 01c6 C603     		.uleb128 0x1c6
 5074 01c8 35880000 		.4byte	.LASF454
 5075 01cc 05       		.byte	0x5
 5076 01cd D103     		.uleb128 0x1d1
 5077 01cf 13770000 		.4byte	.LASF455
 5078 01d3 05       		.byte	0x5
 5079 01d4 D203     		.uleb128 0x1d2
 5080 01d6 69560000 		.4byte	.LASF456
 5081 01da 05       		.byte	0x5
 5082 01db DE03     		.uleb128 0x1de
 5083 01dd 1F3C0000 		.4byte	.LASF457
 5084 01e1 05       		.byte	0x5
 5085 01e2 DF03     		.uleb128 0x1df
 5086 01e4 EA720000 		.4byte	.LASF458
 5087 01e8 05       		.byte	0x5
 5088 01e9 EE03     		.uleb128 0x1ee
 5089 01eb 312A0000 		.4byte	.LASF459
 5090 01ef 05       		.byte	0x5
 5091 01f0 EF03     		.uleb128 0x1ef
 5092 01f2 B7640000 		.4byte	.LASF460
 5093 01f6 00       		.byte	0
 5094              		.section	.debug_macro,"G",%progbits,wm4.core_cmInstr.h.25.367280a3dbe1a27f086157cbbb6352e1,comdat
 5095              	.Ldebug_macro8:
 5096 0000 0400     		.2byte	0x4
 5097 0002 00       		.byte	0
 5098 0003 05       		.byte	0x5
 5099 0004 19       		.uleb128 0x19
 5100 0005 B68D0000 		.4byte	.LASF462
 5101 0009 05       		.byte	0x5
 5102 000a CE05     		.uleb128 0x2ce
 5103 000c B3090000 		.4byte	.LASF463
 5104 0010 05       		.byte	0x5
 5105 0011 DE05     		.uleb128 0x2de
 5106 0013 D67D0000 		.4byte	.LASF464
 5107 0017 00       		.byte	0
ARM GAS  C:\Users\COSMIN~1.MAR\AppData\Local\Temp\cccNbcra.s 			page 100


 5108              		.section	.debug_macro,"G",%progbits,wm4.core_cm3.h.90.d0c8a7fd6bb95729c958e48b22262446,comdat
 5109              	.Ldebug_macro9:
 5110 0000 0400     		.2byte	0x4
 5111 0002 00       		.byte	0
 5112 0003 05       		.byte	0x5
 5113 0004 5A       		.uleb128 0x5a
 5114 0005 79480000 		.4byte	.LASF466
 5115 0009 05       		.byte	0x5
 5116 000a 60       		.uleb128 0x60
 5117 000b B2480000 		.4byte	.LASF467
 5118 000f 05       		.byte	0x5
 5119 0010 62       		.uleb128 0x62
 5120 0011 44380000 		.4byte	.LASF468
 5121 0015 05       		.byte	0x5
 5122 0016 63       		.uleb128 0x63
 5123 0017 A17F0000 		.4byte	.LASF469
 5124 001b 05       		.byte	0x5
 5125 001c 8702     		.uleb128 0x107
 5126 001e F1520000 		.4byte	.LASF470
 5127 0022 05       		.byte	0x5
 5128 0023 8802     		.uleb128 0x108
 5129 0025 3A8C0000 		.4byte	.LASF471
 5130 0029 05       		.byte	0x5
 5131 002a 8A02     		.uleb128 0x10a
 5132 002c 4F6F0000 		.4byte	.LASF472
 5133 0030 05       		.byte	0x5
 5134 0031 8B02     		.uleb128 0x10b
 5135 0033 83560000 		.4byte	.LASF473
 5136 0037 05       		.byte	0x5
 5137 0038 8D02     		.uleb128 0x10d
 5138 003a 0D310000 		.4byte	.LASF474
 5139 003e 05       		.byte	0x5
 5140 003f 8E02     		.uleb128 0x10e
 5141 0041 6C200000 		.4byte	.LASF475
 5142 0045 05       		.byte	0x5
 5143 0046 9002     		.uleb128 0x110
 5144 0048 F04A0000 		.4byte	.LASF476
 5145 004c 05       		.byte	0x5
 5146 004d 9102     		.uleb128 0x111
 5147 004f E53E0000 		.4byte	.LASF477
 5148 0053 05       		.byte	0x5
 5149 0054 9402     		.uleb128 0x114
 5150 0056 87600000 		.4byte	.LASF478
 5151 005a 05       		.byte	0x5
 5152 005b 9502     		.uleb128 0x115
 5153 005d 24310000 		.4byte	.LASF479
 5154 0061 05       		.byte	0x5
 5155 0062 9702     		.uleb128 0x117
 5156 0064 F2370000 		.4byte	.LASF480
 5157 0068 05       		.byte	0x5
 5158 0069 9802     		.uleb128 0x118
 5159 006b DF770000 		.4byte	.LASF481
 5160 006f 05       		.byte	0x5
 5161 0070 9A02     		.uleb128 0x11a
 5162 0072 B9800000 		.4byte	.LASF482
 5163 0076 05       		.byte	0x5
 5164 0077 9B02     		.uleb128 0x11b
ARM GAS  C:\Users\COSMIN~1.MAR\AppData\Local\Temp\cccNbcra.s 			page 101


 5165 0079 2D2F0000 		.4byte	.LASF483
 5166 007d 05       		.byte	0x5
 5167 007e 9D02     		.uleb128 0x11d
 5168 0080 9C0B0000 		.4byte	.LASF484
 5169 0084 05       		.byte	0x5
 5170 0085 9E02     		.uleb128 0x11e
 5171 0087 B15F0000 		.4byte	.LASF485
 5172 008b 05       		.byte	0x5
 5173 008c A002     		.uleb128 0x120
 5174 008e E8550000 		.4byte	.LASF486
 5175 0092 05       		.byte	0x5
 5176 0093 A102     		.uleb128 0x121
 5177 0095 8D280000 		.4byte	.LASF487
 5178 0099 05       		.byte	0x5
 5179 009a A302     		.uleb128 0x123
 5180 009c 42600000 		.4byte	.LASF488
 5181 00a0 05       		.byte	0x5
 5182 00a1 A402     		.uleb128 0x124
 5183 00a3 F9410000 		.4byte	.LASF489
 5184 00a7 05       		.byte	0x5
 5185 00a8 A602     		.uleb128 0x126
 5186 00aa B7050000 		.4byte	.LASF490
 5187 00ae 05       		.byte	0x5
 5188 00af A702     		.uleb128 0x127
 5189 00b1 9C3F0000 		.4byte	.LASF491
 5190 00b5 05       		.byte	0x5
 5191 00b6 A902     		.uleb128 0x129
 5192 00b8 E2510000 		.4byte	.LASF492
 5193 00bc 05       		.byte	0x5
 5194 00bd AA02     		.uleb128 0x12a
 5195 00bf 00350000 		.4byte	.LASF493
 5196 00c3 05       		.byte	0x5
 5197 00c4 AC02     		.uleb128 0x12c
 5198 00c6 281E0000 		.4byte	.LASF494
 5199 00ca 05       		.byte	0x5
 5200 00cb AD02     		.uleb128 0x12d
 5201 00cd BA520000 		.4byte	.LASF495
 5202 00d1 05       		.byte	0x5
 5203 00d2 AF02     		.uleb128 0x12f
 5204 00d4 D02D0000 		.4byte	.LASF496
 5205 00d8 05       		.byte	0x5
 5206 00d9 B002     		.uleb128 0x130
 5207 00db EB210000 		.4byte	.LASF497
 5208 00df 05       		.byte	0x5
 5209 00e0 B302     		.uleb128 0x133
 5210 00e2 898B0000 		.4byte	.LASF498
 5211 00e6 05       		.byte	0x5
 5212 00e7 B402     		.uleb128 0x134
 5213 00e9 65790000 		.4byte	.LASF499
 5214 00ed 05       		.byte	0x5
 5215 00ee B602     		.uleb128 0x136
 5216 00f0 24860000 		.4byte	.LASF500
 5217 00f4 05       		.byte	0x5
 5218 00f5 B702     		.uleb128 0x137
 5219 00f7 21020000 		.4byte	.LASF501
 5220 00fb 05       		.byte	0x5
 5221 00fc BA02     		.uleb128 0x13a
ARM GAS  C:\Users\COSMIN~1.MAR\AppData\Local\Temp\cccNbcra.s 			page 102


 5222 00fe 62460000 		.4byte	.LASF502
 5223 0102 05       		.byte	0x5
 5224 0103 BB02     		.uleb128 0x13b
 5225 0105 EB440000 		.4byte	.LASF503
 5226 0109 05       		.byte	0x5
 5227 010a BD02     		.uleb128 0x13d
 5228 010c EF0D0000 		.4byte	.LASF504
 5229 0110 05       		.byte	0x5
 5230 0111 BE02     		.uleb128 0x13e
 5231 0113 6D930000 		.4byte	.LASF505
 5232 0117 05       		.byte	0x5
 5233 0118 C002     		.uleb128 0x140
 5234 011a 27810000 		.4byte	.LASF506
 5235 011e 05       		.byte	0x5
 5236 011f C102     		.uleb128 0x141
 5237 0121 98790000 		.4byte	.LASF507
 5238 0125 05       		.byte	0x5
 5239 0126 C302     		.uleb128 0x143
 5240 0128 45110000 		.4byte	.LASF508
 5241 012c 05       		.byte	0x5
 5242 012d C402     		.uleb128 0x144
 5243 012f 28290000 		.4byte	.LASF509
 5244 0133 05       		.byte	0x5
 5245 0134 C602     		.uleb128 0x146
 5246 0136 28380000 		.4byte	.LASF510
 5247 013a 05       		.byte	0x5
 5248 013b C702     		.uleb128 0x147
 5249 013d D98D0000 		.4byte	.LASF511
 5250 0141 05       		.byte	0x5
 5251 0142 C902     		.uleb128 0x149
 5252 0144 818E0000 		.4byte	.LASF512
 5253 0148 05       		.byte	0x5
 5254 0149 CA02     		.uleb128 0x14a
 5255 014b 5C040000 		.4byte	.LASF513
 5256 014f 05       		.byte	0x5
 5257 0150 CC02     		.uleb128 0x14c
 5258 0152 5B780000 		.4byte	.LASF514
 5259 0156 05       		.byte	0x5
 5260 0157 CD02     		.uleb128 0x14d
 5261 0159 B93D0000 		.4byte	.LASF515
 5262 015d 05       		.byte	0x5
 5263 015e D002     		.uleb128 0x150
 5264 0160 5A5F0000 		.4byte	.LASF516
 5265 0164 05       		.byte	0x5
 5266 0165 D102     		.uleb128 0x151
 5267 0167 75920000 		.4byte	.LASF517
 5268 016b 05       		.byte	0x5
 5269 016c D302     		.uleb128 0x153
 5270 016e E42E0000 		.4byte	.LASF518
 5271 0172 05       		.byte	0x5
 5272 0173 D402     		.uleb128 0x154
 5273 0175 911F0000 		.4byte	.LASF519
 5274 0179 05       		.byte	0x5
 5275 017a D602     		.uleb128 0x156
 5276 017c 652D0000 		.4byte	.LASF520
 5277 0180 05       		.byte	0x5
 5278 0181 D702     		.uleb128 0x157
ARM GAS  C:\Users\COSMIN~1.MAR\AppData\Local\Temp\cccNbcra.s 			page 103


 5279 0183 57240000 		.4byte	.LASF521
 5280 0187 05       		.byte	0x5
 5281 0188 DA02     		.uleb128 0x15a
 5282 018a DD430000 		.4byte	.LASF522
 5283 018e 05       		.byte	0x5
 5284 018f DB02     		.uleb128 0x15b
 5285 0191 BA120000 		.4byte	.LASF523
 5286 0195 05       		.byte	0x5
 5287 0196 DD02     		.uleb128 0x15d
 5288 0198 D66A0000 		.4byte	.LASF524
 5289 019c 05       		.byte	0x5
 5290 019d DE02     		.uleb128 0x15e
 5291 019f 396B0000 		.4byte	.LASF525
 5292 01a3 05       		.byte	0x5
 5293 01a4 E002     		.uleb128 0x160
 5294 01a6 F76C0000 		.4byte	.LASF526
 5295 01aa 05       		.byte	0x5
 5296 01ab E102     		.uleb128 0x161
 5297 01ad D1320000 		.4byte	.LASF527
 5298 01b1 05       		.byte	0x5
 5299 01b2 E302     		.uleb128 0x163
 5300 01b4 B28F0000 		.4byte	.LASF528
 5301 01b8 05       		.byte	0x5
 5302 01b9 E402     		.uleb128 0x164
 5303 01bb A6070000 		.4byte	.LASF529
 5304 01bf 05       		.byte	0x5
 5305 01c0 E602     		.uleb128 0x166
 5306 01c2 F87A0000 		.4byte	.LASF530
 5307 01c6 05       		.byte	0x5
 5308 01c7 E702     		.uleb128 0x167
 5309 01c9 81020000 		.4byte	.LASF531
 5310 01cd 05       		.byte	0x5
 5311 01ce E902     		.uleb128 0x169
 5312 01d0 F3010000 		.4byte	.LASF532
 5313 01d4 05       		.byte	0x5
 5314 01d5 EA02     		.uleb128 0x16a
 5315 01d7 BC140000 		.4byte	.LASF533
 5316 01db 05       		.byte	0x5
 5317 01dc ED02     		.uleb128 0x16d
 5318 01de 9F2E0000 		.4byte	.LASF534
 5319 01e2 05       		.byte	0x5
 5320 01e3 EE02     		.uleb128 0x16e
 5321 01e5 7F140000 		.4byte	.LASF535
 5322 01e9 05       		.byte	0x5
 5323 01ea F002     		.uleb128 0x170
 5324 01ec 29300000 		.4byte	.LASF536
 5325 01f0 05       		.byte	0x5
 5326 01f1 F102     		.uleb128 0x171
 5327 01f3 386C0000 		.4byte	.LASF537
 5328 01f7 05       		.byte	0x5
 5329 01f8 F302     		.uleb128 0x173
 5330 01fa 168F0000 		.4byte	.LASF538
 5331 01fe 05       		.byte	0x5
 5332 01ff F402     		.uleb128 0x174
 5333 0201 3F350000 		.4byte	.LASF539
 5334 0205 05       		.byte	0x5
 5335 0206 F602     		.uleb128 0x176
ARM GAS  C:\Users\COSMIN~1.MAR\AppData\Local\Temp\cccNbcra.s 			page 104


 5336 0208 DF7C0000 		.4byte	.LASF540
 5337 020c 05       		.byte	0x5
 5338 020d F702     		.uleb128 0x177
 5339 020f F45C0000 		.4byte	.LASF541
 5340 0213 05       		.byte	0x5
 5341 0214 F902     		.uleb128 0x179
 5342 0216 F4710000 		.4byte	.LASF542
 5343 021a 05       		.byte	0x5
 5344 021b FA02     		.uleb128 0x17a
 5345 021d CB390000 		.4byte	.LASF543
 5346 0221 05       		.byte	0x5
 5347 0222 FC02     		.uleb128 0x17c
 5348 0224 4F680000 		.4byte	.LASF544
 5349 0228 05       		.byte	0x5
 5350 0229 FD02     		.uleb128 0x17d
 5351 022b 3C450000 		.4byte	.LASF545
 5352 022f 05       		.byte	0x5
 5353 0230 FF02     		.uleb128 0x17f
 5354 0232 F26E0000 		.4byte	.LASF546
 5355 0236 05       		.byte	0x5
 5356 0237 8003     		.uleb128 0x180
 5357 0239 4A280000 		.4byte	.LASF547
 5358 023d 05       		.byte	0x5
 5359 023e 8203     		.uleb128 0x182
 5360 0240 84550000 		.4byte	.LASF548
 5361 0244 05       		.byte	0x5
 5362 0245 8303     		.uleb128 0x183
 5363 0247 C4280000 		.4byte	.LASF549
 5364 024b 05       		.byte	0x5
 5365 024c 8503     		.uleb128 0x185
 5366 024e 291D0000 		.4byte	.LASF550
 5367 0252 05       		.byte	0x5
 5368 0253 8603     		.uleb128 0x186
 5369 0255 BE260000 		.4byte	.LASF551
 5370 0259 05       		.byte	0x5
 5371 025a 8803     		.uleb128 0x188
 5372 025c EE450000 		.4byte	.LASF552
 5373 0260 05       		.byte	0x5
 5374 0261 8903     		.uleb128 0x189
 5375 0263 3D740000 		.4byte	.LASF553
 5376 0267 05       		.byte	0x5
 5377 0268 8B03     		.uleb128 0x18b
 5378 026a E36D0000 		.4byte	.LASF554
 5379 026e 05       		.byte	0x5
 5380 026f 8C03     		.uleb128 0x18c
 5381 0271 1C430000 		.4byte	.LASF555
 5382 0275 05       		.byte	0x5
 5383 0276 8E03     		.uleb128 0x18e
 5384 0278 47320000 		.4byte	.LASF556
 5385 027c 05       		.byte	0x5
 5386 027d 8F03     		.uleb128 0x18f
 5387 027f D64E0000 		.4byte	.LASF557
 5388 0283 05       		.byte	0x5
 5389 0284 9103     		.uleb128 0x191
 5390 0286 7A260000 		.4byte	.LASF558
 5391 028a 05       		.byte	0x5
 5392 028b 9203     		.uleb128 0x192
ARM GAS  C:\Users\COSMIN~1.MAR\AppData\Local\Temp\cccNbcra.s 			page 105


 5393 028d 050D0000 		.4byte	.LASF559
 5394 0291 05       		.byte	0x5
 5395 0292 9403     		.uleb128 0x194
 5396 0294 E8900000 		.4byte	.LASF560
 5397 0298 05       		.byte	0x5
 5398 0299 9503     		.uleb128 0x195
 5399 029b 476A0000 		.4byte	.LASF561
 5400 029f 05       		.byte	0x5
 5401 02a0 9803     		.uleb128 0x198
 5402 02a2 00340000 		.4byte	.LASF562
 5403 02a6 05       		.byte	0x5
 5404 02a7 9903     		.uleb128 0x199
 5405 02a9 2B1B0000 		.4byte	.LASF563
 5406 02ad 05       		.byte	0x5
 5407 02ae 9B03     		.uleb128 0x19b
 5408 02b0 7D120000 		.4byte	.LASF564
 5409 02b4 05       		.byte	0x5
 5410 02b5 9C03     		.uleb128 0x19c
 5411 02b7 3A860000 		.4byte	.LASF565
 5412 02bb 05       		.byte	0x5
 5413 02bc 9E03     		.uleb128 0x19e
 5414 02be 59030000 		.4byte	.LASF566
 5415 02c2 05       		.byte	0x5
 5416 02c3 9F03     		.uleb128 0x19f
 5417 02c5 C5690000 		.4byte	.LASF567
 5418 02c9 05       		.byte	0x5
 5419 02ca A203     		.uleb128 0x1a2
 5420 02cc E9670000 		.4byte	.LASF568
 5421 02d0 05       		.byte	0x5
 5422 02d1 A303     		.uleb128 0x1a3
 5423 02d3 A0530000 		.4byte	.LASF569
 5424 02d7 05       		.byte	0x5
 5425 02d8 A503     		.uleb128 0x1a5
 5426 02da 095C0000 		.4byte	.LASF570
 5427 02de 05       		.byte	0x5
 5428 02df A603     		.uleb128 0x1a6
 5429 02e1 3A050000 		.4byte	.LASF571
 5430 02e5 05       		.byte	0x5
 5431 02e6 A803     		.uleb128 0x1a8
 5432 02e8 A1180000 		.4byte	.LASF572
 5433 02ec 05       		.byte	0x5
 5434 02ed A903     		.uleb128 0x1a9
 5435 02ef 96680000 		.4byte	.LASF573
 5436 02f3 05       		.byte	0x5
 5437 02f4 AC03     		.uleb128 0x1ac
 5438 02f6 A9170000 		.4byte	.LASF574
 5439 02fa 05       		.byte	0x5
 5440 02fb AD03     		.uleb128 0x1ad
 5441 02fd DF1F0000 		.4byte	.LASF575
 5442 0301 05       		.byte	0x5
 5443 0302 AF03     		.uleb128 0x1af
 5444 0304 643F0000 		.4byte	.LASF576
 5445 0308 05       		.byte	0x5
 5446 0309 B003     		.uleb128 0x1b0
 5447 030b B4380000 		.4byte	.LASF577
 5448 030f 05       		.byte	0x5
 5449 0310 B203     		.uleb128 0x1b2
ARM GAS  C:\Users\COSMIN~1.MAR\AppData\Local\Temp\cccNbcra.s 			page 106


 5450 0312 83220000 		.4byte	.LASF578
 5451 0316 05       		.byte	0x5
 5452 0317 B303     		.uleb128 0x1b3
 5453 0319 12110000 		.4byte	.LASF579
 5454 031d 05       		.byte	0x5
 5455 031e B503     		.uleb128 0x1b5
 5456 0320 015E0000 		.4byte	.LASF580
 5457 0324 05       		.byte	0x5
 5458 0325 B603     		.uleb128 0x1b6
 5459 0327 AA920000 		.4byte	.LASF581
 5460 032b 05       		.byte	0x5
 5461 032c B803     		.uleb128 0x1b8
 5462 032e 45140000 		.4byte	.LASF582
 5463 0332 05       		.byte	0x5
 5464 0333 B903     		.uleb128 0x1b9
 5465 0335 691B0000 		.4byte	.LASF583
 5466 0339 05       		.byte	0x5
 5467 033a CF03     		.uleb128 0x1cf
 5468 033c 38330000 		.4byte	.LASF584
 5469 0340 05       		.byte	0x5
 5470 0341 D003     		.uleb128 0x1d0
 5471 0343 1F1F0000 		.4byte	.LASF585
 5472 0347 05       		.byte	0x5
 5473 0348 D203     		.uleb128 0x1d2
 5474 034a 5D0D0000 		.4byte	.LASF586
 5475 034e 05       		.byte	0x5
 5476 034f D303     		.uleb128 0x1d3
 5477 0351 7A060000 		.4byte	.LASF587
 5478 0355 05       		.byte	0x5
 5479 0356 D503     		.uleb128 0x1d5
 5480 0358 C5150000 		.4byte	.LASF588
 5481 035c 05       		.byte	0x5
 5482 035d D603     		.uleb128 0x1d6
 5483 035f 41700000 		.4byte	.LASF589
 5484 0363 05       		.byte	0x5
 5485 0364 D803     		.uleb128 0x1d8
 5486 0366 292E0000 		.4byte	.LASF590
 5487 036a 05       		.byte	0x5
 5488 036b D903     		.uleb128 0x1d9
 5489 036d 93780000 		.4byte	.LASF591
 5490 0371 05       		.byte	0x5
 5491 0372 DC03     		.uleb128 0x1dc
 5492 0374 B6810000 		.4byte	.LASF592
 5493 0378 05       		.byte	0x5
 5494 0379 DD03     		.uleb128 0x1dd
 5495 037b 5A770000 		.4byte	.LASF593
 5496 037f 05       		.byte	0x5
 5497 0380 E003     		.uleb128 0x1e0
 5498 0382 E85F0000 		.4byte	.LASF594
 5499 0386 05       		.byte	0x5
 5500 0387 E103     		.uleb128 0x1e1
 5501 0389 E6580000 		.4byte	.LASF595
 5502 038d 05       		.byte	0x5
 5503 038e E403     		.uleb128 0x1e4
 5504 0390 16780000 		.4byte	.LASF596
 5505 0394 05       		.byte	0x5
 5506 0395 E503     		.uleb128 0x1e5
ARM GAS  C:\Users\COSMIN~1.MAR\AppData\Local\Temp\cccNbcra.s 			page 107


 5507 0397 50340000 		.4byte	.LASF597
 5508 039b 05       		.byte	0x5
 5509 039c E703     		.uleb128 0x1e7
 5510 039e 31120000 		.4byte	.LASF598
 5511 03a2 05       		.byte	0x5
 5512 03a3 E803     		.uleb128 0x1e8
 5513 03a5 0F8A0000 		.4byte	.LASF599
 5514 03a9 05       		.byte	0x5
 5515 03aa EA03     		.uleb128 0x1ea
 5516 03ac DF410000 		.4byte	.LASF600
 5517 03b0 05       		.byte	0x5
 5518 03b1 EB03     		.uleb128 0x1eb
 5519 03b3 AC650000 		.4byte	.LASF601
 5520 03b7 05       		.byte	0x5
 5521 03b8 9D04     		.uleb128 0x21d
 5522 03ba BD0F0000 		.4byte	.LASF602
 5523 03be 05       		.byte	0x5
 5524 03bf 9E04     		.uleb128 0x21e
 5525 03c1 40920000 		.4byte	.LASF603
 5526 03c5 05       		.byte	0x5
 5527 03c6 A104     		.uleb128 0x221
 5528 03c8 D1190000 		.4byte	.LASF604
 5529 03cc 05       		.byte	0x5
 5530 03cd A204     		.uleb128 0x222
 5531 03cf 63320000 		.4byte	.LASF605
 5532 03d3 05       		.byte	0x5
 5533 03d4 A404     		.uleb128 0x224
 5534 03d6 A0820000 		.4byte	.LASF606
 5535 03da 05       		.byte	0x5
 5536 03db A504     		.uleb128 0x225
 5537 03dd F4850000 		.4byte	.LASF607
 5538 03e1 05       		.byte	0x5
 5539 03e2 A704     		.uleb128 0x227
 5540 03e4 C5930000 		.4byte	.LASF608
 5541 03e8 05       		.byte	0x5
 5542 03e9 A804     		.uleb128 0x228
 5543 03eb 14150000 		.4byte	.LASF609
 5544 03ef 05       		.byte	0x5
 5545 03f0 AA04     		.uleb128 0x22a
 5546 03f2 1A3E0000 		.4byte	.LASF610
 5547 03f6 05       		.byte	0x5
 5548 03f7 AB04     		.uleb128 0x22b
 5549 03f9 2A000000 		.4byte	.LASF611
 5550 03fd 05       		.byte	0x5
 5551 03fe AD04     		.uleb128 0x22d
 5552 0400 4B640000 		.4byte	.LASF612
 5553 0404 05       		.byte	0x5
 5554 0405 AE04     		.uleb128 0x22e
 5555 0407 32520000 		.4byte	.LASF613
 5556 040b 05       		.byte	0x5
 5557 040c B004     		.uleb128 0x230
 5558 040e 6E6B0000 		.4byte	.LASF614
 5559 0412 05       		.byte	0x5
 5560 0413 B104     		.uleb128 0x231
 5561 0415 4B150000 		.4byte	.LASF615
 5562 0419 05       		.byte	0x5
 5563 041a B304     		.uleb128 0x233
ARM GAS  C:\Users\COSMIN~1.MAR\AppData\Local\Temp\cccNbcra.s 			page 108


 5564 041c 432E0000 		.4byte	.LASF616
 5565 0420 05       		.byte	0x5
 5566 0421 B404     		.uleb128 0x234
 5567 0423 4D0B0000 		.4byte	.LASF617
 5568 0427 05       		.byte	0x5
 5569 0428 B604     		.uleb128 0x236
 5570 042a 397D0000 		.4byte	.LASF618
 5571 042e 05       		.byte	0x5
 5572 042f B704     		.uleb128 0x237
 5573 0431 E5190000 		.4byte	.LASF619
 5574 0435 05       		.byte	0x5
 5575 0436 BA04     		.uleb128 0x23a
 5576 0438 A22B0000 		.4byte	.LASF620
 5577 043c 05       		.byte	0x5
 5578 043d BB04     		.uleb128 0x23b
 5579 043f CB540000 		.4byte	.LASF621
 5580 0443 05       		.byte	0x5
 5581 0444 BE04     		.uleb128 0x23e
 5582 0446 BE550000 		.4byte	.LASF622
 5583 044a 05       		.byte	0x5
 5584 044b BF04     		.uleb128 0x23f
 5585 044d 26820000 		.4byte	.LASF623
 5586 0451 05       		.byte	0x5
 5587 0452 C204     		.uleb128 0x242
 5588 0454 49440000 		.4byte	.LASF624
 5589 0458 05       		.byte	0x5
 5590 0459 C304     		.uleb128 0x243
 5591 045b 67810000 		.4byte	.LASF625
 5592 045f 05       		.byte	0x5
 5593 0460 C604     		.uleb128 0x246
 5594 0462 91500000 		.4byte	.LASF626
 5595 0466 05       		.byte	0x5
 5596 0467 C704     		.uleb128 0x247
 5597 0469 6F760000 		.4byte	.LASF627
 5598 046d 05       		.byte	0x5
 5599 046e C904     		.uleb128 0x249
 5600 0470 236D0000 		.4byte	.LASF628
 5601 0474 05       		.byte	0x5
 5602 0475 CA04     		.uleb128 0x24a
 5603 0477 3C870000 		.4byte	.LASF629
 5604 047b 05       		.byte	0x5
 5605 047c CC04     		.uleb128 0x24c
 5606 047e CA880000 		.4byte	.LASF630
 5607 0482 05       		.byte	0x5
 5608 0483 CD04     		.uleb128 0x24d
 5609 0485 99410000 		.4byte	.LASF631
 5610 0489 05       		.byte	0x5
 5611 048a E604     		.uleb128 0x266
 5612 048c 88390000 		.4byte	.LASF632
 5613 0490 05       		.byte	0x5
 5614 0491 E704     		.uleb128 0x267
 5615 0493 E31C0000 		.4byte	.LASF633
 5616 0497 05       		.byte	0x5
 5617 0498 EA04     		.uleb128 0x26a
 5618 049a 32460000 		.4byte	.LASF634
 5619 049e 05       		.byte	0x5
 5620 049f EB04     		.uleb128 0x26b
ARM GAS  C:\Users\COSMIN~1.MAR\AppData\Local\Temp\cccNbcra.s 			page 109


 5621 04a1 68300000 		.4byte	.LASF635
 5622 04a5 05       		.byte	0x5
 5623 04a6 ED04     		.uleb128 0x26d
 5624 04a8 4E090000 		.4byte	.LASF636
 5625 04ac 05       		.byte	0x5
 5626 04ad EE04     		.uleb128 0x26e
 5627 04af 5F7C0000 		.4byte	.LASF637
 5628 04b3 05       		.byte	0x5
 5629 04b4 F004     		.uleb128 0x270
 5630 04b6 D11E0000 		.4byte	.LASF638
 5631 04ba 05       		.byte	0x5
 5632 04bb F104     		.uleb128 0x271
 5633 04bd ED740000 		.4byte	.LASF639
 5634 04c1 05       		.byte	0x5
 5635 04c2 8F05     		.uleb128 0x28f
 5636 04c4 A8660000 		.4byte	.LASF640
 5637 04c8 05       		.byte	0x5
 5638 04c9 9005     		.uleb128 0x290
 5639 04cb DF570000 		.4byte	.LASF641
 5640 04cf 05       		.byte	0x5
 5641 04d0 9205     		.uleb128 0x292
 5642 04d2 1A490000 		.4byte	.LASF642
 5643 04d6 05       		.byte	0x5
 5644 04d7 9305     		.uleb128 0x293
 5645 04d9 F0080000 		.4byte	.LASF643
 5646 04dd 05       		.byte	0x5
 5647 04de 9505     		.uleb128 0x295
 5648 04e0 65250000 		.4byte	.LASF644
 5649 04e4 05       		.byte	0x5
 5650 04e5 9605     		.uleb128 0x296
 5651 04e7 D1600000 		.4byte	.LASF645
 5652 04eb 05       		.byte	0x5
 5653 04ec 9905     		.uleb128 0x299
 5654 04ee 558A0000 		.4byte	.LASF646
 5655 04f2 05       		.byte	0x5
 5656 04f3 9A05     		.uleb128 0x29a
 5657 04f5 057F0000 		.4byte	.LASF647
 5658 04f9 05       		.byte	0x5
 5659 04fa 9C05     		.uleb128 0x29c
 5660 04fc 70390000 		.4byte	.LASF648
 5661 0500 05       		.byte	0x5
 5662 0501 9D05     		.uleb128 0x29d
 5663 0503 A12C0000 		.4byte	.LASF649
 5664 0507 05       		.byte	0x5
 5665 0508 9F05     		.uleb128 0x29f
 5666 050a 16950000 		.4byte	.LASF650
 5667 050e 05       		.byte	0x5
 5668 050f A005     		.uleb128 0x2a0
 5669 0511 94420000 		.4byte	.LASF651
 5670 0515 05       		.byte	0x5
 5671 0516 A305     		.uleb128 0x2a3
 5672 0518 30750000 		.4byte	.LASF652
 5673 051c 05       		.byte	0x5
 5674 051d A405     		.uleb128 0x2a4
 5675 051f 61360000 		.4byte	.LASF653
 5676 0523 05       		.byte	0x5
 5677 0524 A705     		.uleb128 0x2a7
ARM GAS  C:\Users\COSMIN~1.MAR\AppData\Local\Temp\cccNbcra.s 			page 110


 5678 0526 D9740000 		.4byte	.LASF654
 5679 052a 05       		.byte	0x5
 5680 052b A805     		.uleb128 0x2a8
 5681 052d 1B340000 		.4byte	.LASF655
 5682 0531 05       		.byte	0x5
 5683 0532 AA05     		.uleb128 0x2aa
 5684 0534 8D7E0000 		.4byte	.LASF656
 5685 0538 05       		.byte	0x5
 5686 0539 AB05     		.uleb128 0x2ab
 5687 053b 64440000 		.4byte	.LASF657
 5688 053f 05       		.byte	0x5
 5689 0540 AD05     		.uleb128 0x2ad
 5690 0542 2C600000 		.4byte	.LASF658
 5691 0546 05       		.byte	0x5
 5692 0547 AE05     		.uleb128 0x2ae
 5693 0549 26900000 		.4byte	.LASF659
 5694 054d 05       		.byte	0x5
 5695 054e B105     		.uleb128 0x2b1
 5696 0550 C0000000 		.4byte	.LASF660
 5697 0554 05       		.byte	0x5
 5698 0555 B205     		.uleb128 0x2b2
 5699 0557 588E0000 		.4byte	.LASF661
 5700 055b 05       		.byte	0x5
 5701 055c B405     		.uleb128 0x2b4
 5702 055e 86730000 		.4byte	.LASF662
 5703 0562 05       		.byte	0x5
 5704 0563 B505     		.uleb128 0x2b5
 5705 0565 0F6C0000 		.4byte	.LASF663
 5706 0569 05       		.byte	0x5
 5707 056a B705     		.uleb128 0x2b7
 5708 056c AA7A0000 		.4byte	.LASF664
 5709 0570 05       		.byte	0x5
 5710 0571 B805     		.uleb128 0x2b8
 5711 0573 BC1B0000 		.4byte	.LASF665
 5712 0577 05       		.byte	0x5
 5713 0578 BA05     		.uleb128 0x2ba
 5714 057a C90A0000 		.4byte	.LASF666
 5715 057e 05       		.byte	0x5
 5716 057f BB05     		.uleb128 0x2bb
 5717 0581 070B0000 		.4byte	.LASF667
 5718 0585 05       		.byte	0x5
 5719 0586 BD05     		.uleb128 0x2bd
 5720 0588 ED240000 		.4byte	.LASF668
 5721 058c 05       		.byte	0x5
 5722 058d BE05     		.uleb128 0x2be
 5723 058f F83B0000 		.4byte	.LASF669
 5724 0593 05       		.byte	0x5
 5725 0594 C005     		.uleb128 0x2c0
 5726 0596 E05B0000 		.4byte	.LASF670
 5727 059a 05       		.byte	0x5
 5728 059b C105     		.uleb128 0x2c1
 5729 059d 2E660000 		.4byte	.LASF671
 5730 05a1 05       		.byte	0x5
 5731 05a2 C305     		.uleb128 0x2c3
 5732 05a4 C37B0000 		.4byte	.LASF672
 5733 05a8 05       		.byte	0x5
 5734 05a9 C405     		.uleb128 0x2c4
ARM GAS  C:\Users\COSMIN~1.MAR\AppData\Local\Temp\cccNbcra.s 			page 111


 5735 05ab 193B0000 		.4byte	.LASF673
 5736 05af 05       		.byte	0x5
 5737 05b0 C605     		.uleb128 0x2c6
 5738 05b2 77890000 		.4byte	.LASF674
 5739 05b6 05       		.byte	0x5
 5740 05b7 C705     		.uleb128 0x2c7
 5741 05b9 92470000 		.4byte	.LASF675
 5742 05bd 05       		.byte	0x5
 5743 05be C905     		.uleb128 0x2c9
 5744 05c0 6F680000 		.4byte	.LASF676
 5745 05c4 05       		.byte	0x5
 5746 05c5 CA05     		.uleb128 0x2ca
 5747 05c7 10630000 		.4byte	.LASF677
 5748 05cb 05       		.byte	0x5
 5749 05cc E105     		.uleb128 0x2e1
 5750 05ce 6F7E0000 		.4byte	.LASF678
 5751 05d2 05       		.byte	0x5
 5752 05d3 E205     		.uleb128 0x2e2
 5753 05d5 4F880000 		.4byte	.LASF679
 5754 05d9 05       		.byte	0x5
 5755 05da E405     		.uleb128 0x2e4
 5756 05dc 00320000 		.4byte	.LASF680
 5757 05e0 05       		.byte	0x5
 5758 05e1 E505     		.uleb128 0x2e5
 5759 05e3 BF910000 		.4byte	.LASF681
 5760 05e7 05       		.byte	0x5
 5761 05e8 E705     		.uleb128 0x2e7
 5762 05ea 07850000 		.4byte	.LASF682
 5763 05ee 05       		.byte	0x5
 5764 05ef E805     		.uleb128 0x2e8
 5765 05f1 DE680000 		.4byte	.LASF683
 5766 05f5 05       		.byte	0x5
 5767 05f6 EA05     		.uleb128 0x2ea
 5768 05f8 736D0000 		.4byte	.LASF684
 5769 05fc 05       		.byte	0x5
 5770 05fd EB05     		.uleb128 0x2eb
 5771 05ff C7270000 		.4byte	.LASF685
 5772 0603 05       		.byte	0x5
 5773 0604 ED05     		.uleb128 0x2ed
 5774 0606 386D0000 		.4byte	.LASF686
 5775 060a 05       		.byte	0x5
 5776 060b EE05     		.uleb128 0x2ee
 5777 060d B04F0000 		.4byte	.LASF687
 5778 0611 05       		.byte	0x5
 5779 0612 F005     		.uleb128 0x2f0
 5780 0614 BB740000 		.4byte	.LASF688
 5781 0618 05       		.byte	0x5
 5782 0619 F105     		.uleb128 0x2f1
 5783 061b A6160000 		.4byte	.LASF689
 5784 061f 05       		.byte	0x5
 5785 0620 F305     		.uleb128 0x2f3
 5786 0622 DC810000 		.4byte	.LASF690
 5787 0626 05       		.byte	0x5
 5788 0627 F405     		.uleb128 0x2f4
 5789 0629 6B540000 		.4byte	.LASF691
 5790 062d 05       		.byte	0x5
 5791 062e F605     		.uleb128 0x2f6
ARM GAS  C:\Users\COSMIN~1.MAR\AppData\Local\Temp\cccNbcra.s 			page 112


 5792 0630 2D6F0000 		.4byte	.LASF692
 5793 0634 05       		.byte	0x5
 5794 0635 F705     		.uleb128 0x2f7
 5795 0637 73130000 		.4byte	.LASF693
 5796 063b 05       		.byte	0x5
 5797 063c F905     		.uleb128 0x2f9
 5798 063e 1B280000 		.4byte	.LASF694
 5799 0642 05       		.byte	0x5
 5800 0643 FA05     		.uleb128 0x2fa
 5801 0645 E11D0000 		.4byte	.LASF695
 5802 0649 05       		.byte	0x5
 5803 064a FC05     		.uleb128 0x2fc
 5804 064c C1730000 		.4byte	.LASF696
 5805 0650 05       		.byte	0x5
 5806 0651 FD05     		.uleb128 0x2fd
 5807 0653 EA2D0000 		.4byte	.LASF697
 5808 0657 05       		.byte	0x5
 5809 0658 FF05     		.uleb128 0x2ff
 5810 065a 83820000 		.4byte	.LASF698
 5811 065e 05       		.byte	0x5
 5812 065f 8006     		.uleb128 0x300
 5813 0661 E0150000 		.4byte	.LASF699
 5814 0665 05       		.byte	0x5
 5815 0666 8206     		.uleb128 0x302
 5816 0668 698B0000 		.4byte	.LASF700
 5817 066c 05       		.byte	0x5
 5818 066d 8306     		.uleb128 0x303
 5819 066f 8D330000 		.4byte	.LASF701
 5820 0673 05       		.byte	0x5
 5821 0674 8606     		.uleb128 0x306
 5822 0676 B26B0000 		.4byte	.LASF702
 5823 067a 05       		.byte	0x5
 5824 067b 8706     		.uleb128 0x307
 5825 067d C1310000 		.4byte	.LASF703
 5826 0681 05       		.byte	0x5
 5827 0682 8906     		.uleb128 0x309
 5828 0684 6F7D0000 		.4byte	.LASF704
 5829 0688 05       		.byte	0x5
 5830 0689 8A06     		.uleb128 0x30a
 5831 068b 2A200000 		.4byte	.LASF705
 5832 068f 05       		.byte	0x5
 5833 0690 8D06     		.uleb128 0x30d
 5834 0692 D10D0000 		.4byte	.LASF706
 5835 0696 05       		.byte	0x5
 5836 0697 8E06     		.uleb128 0x30e
 5837 0699 725F0000 		.4byte	.LASF707
 5838 069d 05       		.byte	0x5
 5839 069e 9006     		.uleb128 0x310
 5840 06a0 C21D0000 		.4byte	.LASF708
 5841 06a4 05       		.byte	0x5
 5842 06a5 9106     		.uleb128 0x311
 5843 06a7 45750000 		.4byte	.LASF709
 5844 06ab 05       		.byte	0x5
 5845 06ac 9306     		.uleb128 0x313
 5846 06ae CF180000 		.4byte	.LASF710
 5847 06b2 05       		.byte	0x5
 5848 06b3 9406     		.uleb128 0x314
ARM GAS  C:\Users\COSMIN~1.MAR\AppData\Local\Temp\cccNbcra.s 			page 113


 5849 06b5 824A0000 		.4byte	.LASF711
 5850 06b9 05       		.byte	0x5
 5851 06ba 9606     		.uleb128 0x316
 5852 06bc CC8F0000 		.4byte	.LASF712
 5853 06c0 05       		.byte	0x5
 5854 06c1 9706     		.uleb128 0x317
 5855 06c3 EF0E0000 		.4byte	.LASF713
 5856 06c7 05       		.byte	0x5
 5857 06c8 9906     		.uleb128 0x319
 5858 06ca 4F510000 		.4byte	.LASF714
 5859 06ce 05       		.byte	0x5
 5860 06cf 9A06     		.uleb128 0x31a
 5861 06d1 FA0B0000 		.4byte	.LASF715
 5862 06d5 05       		.byte	0x5
 5863 06d6 9C06     		.uleb128 0x31c
 5864 06d8 FF180000 		.4byte	.LASF716
 5865 06dc 05       		.byte	0x5
 5866 06dd 9D06     		.uleb128 0x31d
 5867 06df 583E0000 		.4byte	.LASF717
 5868 06e3 05       		.byte	0x5
 5869 06e4 9F06     		.uleb128 0x31f
 5870 06e6 D7300000 		.4byte	.LASF718
 5871 06ea 05       		.byte	0x5
 5872 06eb A006     		.uleb128 0x320
 5873 06ed EA220000 		.4byte	.LASF719
 5874 06f1 05       		.byte	0x5
 5875 06f2 A206     		.uleb128 0x322
 5876 06f4 390A0000 		.4byte	.LASF720
 5877 06f8 05       		.byte	0x5
 5878 06f9 A306     		.uleb128 0x323
 5879 06fb AA940000 		.4byte	.LASF721
 5880 06ff 05       		.byte	0x5
 5881 0700 A506     		.uleb128 0x325
 5882 0702 A6270000 		.4byte	.LASF722
 5883 0706 05       		.byte	0x5
 5884 0707 A606     		.uleb128 0x326
 5885 0709 07500000 		.4byte	.LASF723
 5886 070d 05       		.byte	0x5
 5887 070e A806     		.uleb128 0x328
 5888 0710 986F0000 		.4byte	.LASF724
 5889 0714 05       		.byte	0x5
 5890 0715 A906     		.uleb128 0x329
 5891 0717 2D010000 		.4byte	.LASF725
 5892 071b 05       		.byte	0x5
 5893 071c AB06     		.uleb128 0x32b
 5894 071e 395F0000 		.4byte	.LASF726
 5895 0722 05       		.byte	0x5
 5896 0723 AC06     		.uleb128 0x32c
 5897 0725 38270000 		.4byte	.LASF727
 5898 0729 05       		.byte	0x5
 5899 072a AE06     		.uleb128 0x32e
 5900 072c BC020000 		.4byte	.LASF728
 5901 0730 05       		.byte	0x5
 5902 0731 AF06     		.uleb128 0x32f
 5903 0733 78740000 		.4byte	.LASF729
 5904 0737 05       		.byte	0x5
 5905 0738 B106     		.uleb128 0x331
ARM GAS  C:\Users\COSMIN~1.MAR\AppData\Local\Temp\cccNbcra.s 			page 114


 5906 073a 7F800000 		.4byte	.LASF730
 5907 073e 05       		.byte	0x5
 5908 073f B206     		.uleb128 0x332
 5909 0741 F9530000 		.4byte	.LASF731
 5910 0745 05       		.byte	0x5
 5911 0746 BC06     		.uleb128 0x33c
 5912 0748 E3040000 		.4byte	.LASF732
 5913 074c 05       		.byte	0x5
 5914 074d BD06     		.uleb128 0x33d
 5915 074f FE510000 		.4byte	.LASF733
 5916 0753 05       		.byte	0x5
 5917 0754 BE06     		.uleb128 0x33e
 5918 0756 1C050000 		.4byte	.LASF734
 5919 075a 05       		.byte	0x5
 5920 075b BF06     		.uleb128 0x33f
 5921 075d 5B420000 		.4byte	.LASF735
 5922 0761 05       		.byte	0x5
 5923 0762 C006     		.uleb128 0x340
 5924 0764 865E0000 		.4byte	.LASF736
 5925 0768 05       		.byte	0x5
 5926 0769 C106     		.uleb128 0x341
 5927 076b 2E0B0000 		.4byte	.LASF737
 5928 076f 05       		.byte	0x5
 5929 0770 C306     		.uleb128 0x343
 5930 0772 686F0000 		.4byte	.LASF738
 5931 0776 05       		.byte	0x5
 5932 0777 C406     		.uleb128 0x344
 5933 0779 7D250000 		.4byte	.LASF739
 5934 077d 05       		.byte	0x5
 5935 077e C506     		.uleb128 0x345
 5936 0780 C5480000 		.4byte	.LASF740
 5937 0784 05       		.byte	0x5
 5938 0785 C606     		.uleb128 0x346
 5939 0787 6B050000 		.4byte	.LASF741
 5940 078b 05       		.byte	0x5
 5941 078c C706     		.uleb128 0x347
 5942 078e 47470000 		.4byte	.LASF742
 5943 0792 05       		.byte	0x5
 5944 0793 C806     		.uleb128 0x348
 5945 0795 05470000 		.4byte	.LASF743
 5946 0799 05       		.byte	0x5
 5947 079a CB06     		.uleb128 0x34b
 5948 079c 76580000 		.4byte	.LASF744
 5949 07a0 05       		.byte	0x5
 5950 07a1 CC06     		.uleb128 0x34c
 5951 07a3 555E0000 		.4byte	.LASF745
 5952 07a7 05       		.byte	0x5
 5953 07a8 8309     		.uleb128 0x483
 5954 07aa C2470000 		.4byte	.LASF746
 5955 07ae 00       		.byte	0
 5956              		.section	.debug_macro,"G",%progbits,wm4.LPC17xx.h.953.77a3a85f2f7c5b921d480655a6f3d5b1,comdat
 5957              	.Ldebug_macro10:
 5958 0000 0400     		.2byte	0x4
 5959 0002 00       		.byte	0
 5960 0003 05       		.byte	0x5
 5961 0004 B907     		.uleb128 0x3b9
 5962 0006 10660000 		.4byte	.LASF748
ARM GAS  C:\Users\COSMIN~1.MAR\AppData\Local\Temp\cccNbcra.s 			page 115


 5963 000a 05       		.byte	0x5
 5964 000b BA07     		.uleb128 0x3ba
 5965 000d 0C380000 		.4byte	.LASF749
 5966 0011 05       		.byte	0x5
 5967 0012 BF07     		.uleb128 0x3bf
 5968 0014 15580000 		.4byte	.LASF750
 5969 0018 05       		.byte	0x5
 5970 0019 C007     		.uleb128 0x3c0
 5971 001b 227A0000 		.4byte	.LASF751
 5972 001f 05       		.byte	0x5
 5973 0020 C207     		.uleb128 0x3c2
 5974 0022 58060000 		.4byte	.LASF752
 5975 0026 05       		.byte	0x5
 5976 0027 C307     		.uleb128 0x3c3
 5977 0029 08890000 		.4byte	.LASF753
 5978 002d 05       		.byte	0x5
 5979 002e C407     		.uleb128 0x3c4
 5980 0030 D4200000 		.4byte	.LASF754
 5981 0034 05       		.byte	0x5
 5982 0035 C507     		.uleb128 0x3c5
 5983 0037 82190000 		.4byte	.LASF755
 5984 003b 05       		.byte	0x5
 5985 003c C607     		.uleb128 0x3c6
 5986 003e 5B730000 		.4byte	.LASF756
 5987 0042 05       		.byte	0x5
 5988 0043 C907     		.uleb128 0x3c9
 5989 0045 936D0000 		.4byte	.LASF757
 5990 0049 05       		.byte	0x5
 5991 004a CA07     		.uleb128 0x3ca
 5992 004c B60B0000 		.4byte	.LASF758
 5993 0050 05       		.byte	0x5
 5994 0051 CB07     		.uleb128 0x3cb
 5995 0053 F23D0000 		.4byte	.LASF759
 5996 0057 05       		.byte	0x5
 5997 0058 CC07     		.uleb128 0x3cc
 5998 005a D61A0000 		.4byte	.LASF760
 5999 005e 05       		.byte	0x5
 6000 005f CD07     		.uleb128 0x3cd
 6001 0061 32420000 		.4byte	.LASF761
 6002 0065 05       		.byte	0x5
 6003 0066 CE07     		.uleb128 0x3ce
 6004 0068 996C0000 		.4byte	.LASF762
 6005 006c 05       		.byte	0x5
 6006 006d CF07     		.uleb128 0x3cf
 6007 006f 3C570000 		.4byte	.LASF763
 6008 0073 05       		.byte	0x5
 6009 0074 D007     		.uleb128 0x3d0
 6010 0076 0A370000 		.4byte	.LASF764
 6011 007a 05       		.byte	0x5
 6012 007b D107     		.uleb128 0x3d1
 6013 007d 7F270000 		.4byte	.LASF765
 6014 0081 05       		.byte	0x5
 6015 0082 D207     		.uleb128 0x3d2
 6016 0084 89460000 		.4byte	.LASF766
 6017 0088 05       		.byte	0x5
 6018 0089 D307     		.uleb128 0x3d3
 6019 008b 9A770000 		.4byte	.LASF767
ARM GAS  C:\Users\COSMIN~1.MAR\AppData\Local\Temp\cccNbcra.s 			page 116


 6020 008f 05       		.byte	0x5
 6021 0090 D407     		.uleb128 0x3d4
 6022 0092 A65E0000 		.4byte	.LASF768
 6023 0096 05       		.byte	0x5
 6024 0097 D507     		.uleb128 0x3d5
 6025 0099 AA0D0000 		.4byte	.LASF769
 6026 009d 05       		.byte	0x5
 6027 009e D607     		.uleb128 0x3d6
 6028 00a0 543C0000 		.4byte	.LASF770
 6029 00a4 05       		.byte	0x5
 6030 00a5 D707     		.uleb128 0x3d7
 6031 00a7 33710000 		.4byte	.LASF771
 6032 00ab 05       		.byte	0x5
 6033 00ac D807     		.uleb128 0x3d8
 6034 00ae 590A0000 		.4byte	.LASF772
 6035 00b2 05       		.byte	0x5
 6036 00b3 D907     		.uleb128 0x3d9
 6037 00b5 76860000 		.4byte	.LASF773
 6038 00b9 05       		.byte	0x5
 6039 00ba DA07     		.uleb128 0x3da
 6040 00bc BA400000 		.4byte	.LASF774
 6041 00c0 05       		.byte	0x5
 6042 00c1 DB07     		.uleb128 0x3db
 6043 00c3 444E0000 		.4byte	.LASF775
 6044 00c7 05       		.byte	0x5
 6045 00c8 DE07     		.uleb128 0x3de
 6046 00ca E5380000 		.4byte	.LASF776
 6047 00ce 05       		.byte	0x5
 6048 00cf DF07     		.uleb128 0x3df
 6049 00d1 E1130000 		.4byte	.LASF777
 6050 00d5 05       		.byte	0x5
 6051 00d6 E007     		.uleb128 0x3e0
 6052 00d8 EB660000 		.4byte	.LASF778
 6053 00dc 05       		.byte	0x5
 6054 00dd E107     		.uleb128 0x3e1
 6055 00df A91E0000 		.4byte	.LASF779
 6056 00e3 05       		.byte	0x5
 6057 00e4 E207     		.uleb128 0x3e2
 6058 00e6 7F660000 		.4byte	.LASF780
 6059 00ea 05       		.byte	0x5
 6060 00eb E307     		.uleb128 0x3e3
 6061 00ed 687B0000 		.4byte	.LASF781
 6062 00f1 05       		.byte	0x5
 6063 00f2 E407     		.uleb128 0x3e4
 6064 00f4 9D690000 		.4byte	.LASF782
 6065 00f8 05       		.byte	0x5
 6066 00f9 E507     		.uleb128 0x3e5
 6067 00fb A9610000 		.4byte	.LASF783
 6068 00ff 05       		.byte	0x5
 6069 0100 E607     		.uleb128 0x3e6
 6070 0102 44540000 		.4byte	.LASF784
 6071 0106 05       		.byte	0x5
 6072 0107 E707     		.uleb128 0x3e7
 6073 0109 8E640000 		.4byte	.LASF785
 6074 010d 05       		.byte	0x5
 6075 010e E807     		.uleb128 0x3e8
 6076 0110 C7450000 		.4byte	.LASF786
ARM GAS  C:\Users\COSMIN~1.MAR\AppData\Local\Temp\cccNbcra.s 			page 117


 6077 0114 05       		.byte	0x5
 6078 0115 E907     		.uleb128 0x3e9
 6079 0117 6D090000 		.4byte	.LASF787
 6080 011b 05       		.byte	0x5
 6081 011c EC07     		.uleb128 0x3ec
 6082 011e 93400000 		.4byte	.LASF788
 6083 0122 05       		.byte	0x5
 6084 0123 ED07     		.uleb128 0x3ed
 6085 0125 5C710000 		.4byte	.LASF789
 6086 0129 05       		.byte	0x5
 6087 012a EE07     		.uleb128 0x3ee
 6088 012c 93360000 		.4byte	.LASF790
 6089 0130 05       		.byte	0x5
 6090 0131 EF07     		.uleb128 0x3ef
 6091 0133 AB7D0000 		.4byte	.LASF791
 6092 0137 05       		.byte	0x5
 6093 0138 F007     		.uleb128 0x3f0
 6094 013a 572E0000 		.4byte	.LASF792
 6095 013e 05       		.byte	0x5
 6096 013f F107     		.uleb128 0x3f1
 6097 0141 C0660000 		.4byte	.LASF793
 6098 0145 05       		.byte	0x5
 6099 0146 F207     		.uleb128 0x3f2
 6100 0148 F7260000 		.4byte	.LASF794
 6101 014c 05       		.byte	0x5
 6102 014d F307     		.uleb128 0x3f3
 6103 014f C54A0000 		.4byte	.LASF795
 6104 0153 05       		.byte	0x5
 6105 0154 F407     		.uleb128 0x3f4
 6106 0156 335D0000 		.4byte	.LASF796
 6107 015a 05       		.byte	0x5
 6108 015b F507     		.uleb128 0x3f5
 6109 015d 460F0000 		.4byte	.LASF797
 6110 0161 05       		.byte	0x5
 6111 0162 F607     		.uleb128 0x3f6
 6112 0164 664B0000 		.4byte	.LASF798
 6113 0168 05       		.byte	0x5
 6114 0169 F907     		.uleb128 0x3f9
 6115 016b 794F0000 		.4byte	.LASF799
 6116 016f 05       		.byte	0x5
 6117 0170 FA07     		.uleb128 0x3fa
 6118 0172 4E500000 		.4byte	.LASF800
 6119 0176 05       		.byte	0x5
 6120 0177 FB07     		.uleb128 0x3fb
 6121 0179 FF280000 		.4byte	.LASF801
 6122 017d 05       		.byte	0x5
 6123 017e FC07     		.uleb128 0x3fc
 6124 0180 7E950000 		.4byte	.LASF802
 6125 0184 05       		.byte	0x5
 6126 0185 FD07     		.uleb128 0x3fd
 6127 0187 2C720000 		.4byte	.LASF803
 6128 018b 05       		.byte	0x5
 6129 018c 8208     		.uleb128 0x402
 6130 018e BA6D0000 		.4byte	.LASF804
 6131 0192 05       		.byte	0x5
 6132 0193 8308     		.uleb128 0x403
 6133 0195 7C520000 		.4byte	.LASF805
ARM GAS  C:\Users\COSMIN~1.MAR\AppData\Local\Temp\cccNbcra.s 			page 118


 6134 0199 05       		.byte	0x5
 6135 019a 8408     		.uleb128 0x404
 6136 019c AA100000 		.4byte	.LASF806
 6137 01a0 05       		.byte	0x5
 6138 01a1 8508     		.uleb128 0x405
 6139 01a3 EF5A0000 		.4byte	.LASF807
 6140 01a7 05       		.byte	0x5
 6141 01a8 8608     		.uleb128 0x406
 6142 01aa BE0E0000 		.4byte	.LASF808
 6143 01ae 05       		.byte	0x5
 6144 01af 8708     		.uleb128 0x407
 6145 01b1 78290000 		.4byte	.LASF809
 6146 01b5 05       		.byte	0x5
 6147 01b6 8808     		.uleb128 0x408
 6148 01b8 7A160000 		.4byte	.LASF810
 6149 01bc 05       		.byte	0x5
 6150 01bd 8908     		.uleb128 0x409
 6151 01bf D73C0000 		.4byte	.LASF811
 6152 01c3 05       		.byte	0x5
 6153 01c4 8A08     		.uleb128 0x40a
 6154 01c6 196A0000 		.4byte	.LASF812
 6155 01ca 05       		.byte	0x5
 6156 01cb 8B08     		.uleb128 0x40b
 6157 01cd FB2F0000 		.4byte	.LASF813
 6158 01d1 05       		.byte	0x5
 6159 01d2 8C08     		.uleb128 0x40c
 6160 01d4 24080000 		.4byte	.LASF814
 6161 01d8 05       		.byte	0x5
 6162 01d9 8D08     		.uleb128 0x40d
 6163 01db B54D0000 		.4byte	.LASF815
 6164 01df 05       		.byte	0x5
 6165 01e0 8E08     		.uleb128 0x40e
 6166 01e2 D6760000 		.4byte	.LASF816
 6167 01e6 05       		.byte	0x5
 6168 01e7 8F08     		.uleb128 0x40f
 6169 01e9 FD470000 		.4byte	.LASF817
 6170 01ed 05       		.byte	0x5
 6171 01ee 9008     		.uleb128 0x410
 6172 01f0 FC2E0000 		.4byte	.LASF818
 6173 01f4 05       		.byte	0x5
 6174 01f5 9108     		.uleb128 0x411
 6175 01f7 1C260000 		.4byte	.LASF819
 6176 01fb 05       		.byte	0x5
 6177 01fc 9208     		.uleb128 0x412
 6178 01fe 134F0000 		.4byte	.LASF820
 6179 0202 05       		.byte	0x5
 6180 0203 9308     		.uleb128 0x413
 6181 0205 1B210000 		.4byte	.LASF821
 6182 0209 05       		.byte	0x5
 6183 020a 9408     		.uleb128 0x414
 6184 020c 81210000 		.4byte	.LASF822
 6185 0210 05       		.byte	0x5
 6186 0211 9508     		.uleb128 0x415
 6187 0213 6B870000 		.4byte	.LASF823
 6188 0217 05       		.byte	0x5
 6189 0218 9608     		.uleb128 0x416
 6190 021a 14760000 		.4byte	.LASF824
ARM GAS  C:\Users\COSMIN~1.MAR\AppData\Local\Temp\cccNbcra.s 			page 119


 6191 021e 05       		.byte	0x5
 6192 021f 9708     		.uleb128 0x417
 6193 0221 08640000 		.4byte	.LASF825
 6194 0225 05       		.byte	0x5
 6195 0226 9808     		.uleb128 0x418
 6196 0228 162B0000 		.4byte	.LASF826
 6197 022c 05       		.byte	0x5
 6198 022d 9908     		.uleb128 0x419
 6199 022f DE2A0000 		.4byte	.LASF827
 6200 0233 05       		.byte	0x5
 6201 0234 9A08     		.uleb128 0x41a
 6202 0236 E12B0000 		.4byte	.LASF828
 6203 023a 05       		.byte	0x5
 6204 023b 9B08     		.uleb128 0x41b
 6205 023d 9C880000 		.4byte	.LASF829
 6206 0241 05       		.byte	0x5
 6207 0242 9C08     		.uleb128 0x41c
 6208 0244 8C4B0000 		.4byte	.LASF830
 6209 0248 05       		.byte	0x5
 6210 0249 9D08     		.uleb128 0x41d
 6211 024b FF1A0000 		.4byte	.LASF831
 6212 024f 05       		.byte	0x5
 6213 0250 9E08     		.uleb128 0x41e
 6214 0252 AF7F0000 		.4byte	.LASF832
 6215 0256 05       		.byte	0x5
 6216 0257 9F08     		.uleb128 0x41f
 6217 0259 FC060000 		.4byte	.LASF833
 6218 025d 05       		.byte	0x5
 6219 025e A008     		.uleb128 0x420
 6220 0260 69080000 		.4byte	.LASF834
 6221 0264 05       		.byte	0x5
 6222 0265 A108     		.uleb128 0x421
 6223 0267 CE340000 		.4byte	.LASF835
 6224 026b 05       		.byte	0x5
 6225 026c A208     		.uleb128 0x422
 6226 026e 846B0000 		.4byte	.LASF836
 6227 0272 05       		.byte	0x5
 6228 0273 A308     		.uleb128 0x423
 6229 0275 A93C0000 		.4byte	.LASF837
 6230 0279 05       		.byte	0x5
 6231 027a A408     		.uleb128 0x424
 6232 027c D94C0000 		.4byte	.LASF838
 6233 0280 05       		.byte	0x5
 6234 0281 A508     		.uleb128 0x425
 6235 0283 7D1E0000 		.4byte	.LASF839
 6236 0287 05       		.byte	0x5
 6237 0288 A608     		.uleb128 0x426
 6238 028a F01E0000 		.4byte	.LASF840
 6239 028e 05       		.byte	0x5
 6240 028f A708     		.uleb128 0x427
 6241 0291 B9440000 		.4byte	.LASF841
 6242 0295 05       		.byte	0x5
 6243 0296 A808     		.uleb128 0x428
 6244 0298 DE930000 		.4byte	.LASF842
 6245 029c 05       		.byte	0x5
 6246 029d A908     		.uleb128 0x429
 6247 029f BE7A0000 		.4byte	.LASF843
ARM GAS  C:\Users\COSMIN~1.MAR\AppData\Local\Temp\cccNbcra.s 			page 120


 6248 02a3 05       		.byte	0x5
 6249 02a4 AA08     		.uleb128 0x42a
 6250 02a6 BC950000 		.4byte	.LASF844
 6251 02aa 05       		.byte	0x5
 6252 02ab AB08     		.uleb128 0x42b
 6253 02ad 90240000 		.4byte	.LASF845
 6254 02b1 05       		.byte	0x5
 6255 02b2 AC08     		.uleb128 0x42c
 6256 02b4 A23A0000 		.4byte	.LASF846
 6257 02b8 05       		.byte	0x5
 6258 02b9 AD08     		.uleb128 0x42d
 6259 02bb 9D720000 		.4byte	.LASF847
 6260 02bf 05       		.byte	0x5
 6261 02c0 AE08     		.uleb128 0x42e
 6262 02c2 63720000 		.4byte	.LASF848
 6263 02c6 05       		.byte	0x5
 6264 02c7 AF08     		.uleb128 0x42f
 6265 02c9 EC8F0000 		.4byte	.LASF849
 6266 02cd 05       		.byte	0x5
 6267 02ce B008     		.uleb128 0x430
 6268 02d0 840E0000 		.4byte	.LASF850
 6269 02d4 05       		.byte	0x5
 6270 02d5 B108     		.uleb128 0x431
 6271 02d7 2A390000 		.4byte	.LASF851
 6272 02db 00       		.byte	0
 6273              		.section	.debug_macro,"G",%progbits,wm4.lpc_types.h.31.fe468f0c170b3f2fb639f9a689afb2c4,comdat
 6274              	.Ldebug_macro11:
 6275 0000 0400     		.2byte	0x4
 6276 0002 00       		.byte	0
 6277 0003 05       		.byte	0x5
 6278 0004 1F       		.uleb128 0x1f
 6279 0005 9E900000 		.4byte	.LASF852
 6280 0009 05       		.byte	0x5
 6281 000a 33       		.uleb128 0x33
 6282 000b 66690000 		.4byte	.LASF853
 6283 000f 05       		.byte	0x5
 6284 0010 39       		.uleb128 0x39
 6285 0011 8E320000 		.4byte	.LASF854
 6286 0015 06       		.byte	0x6
 6287 0016 5F       		.uleb128 0x5f
 6288 0017 D3000000 		.4byte	.LASF855
 6289 001b 05       		.byte	0x5
 6290 001c 61       		.uleb128 0x61
 6291 001d 2F620000 		.4byte	.LASF856
 6292 0021 06       		.byte	0x6
 6293 0022 67       		.uleb128 0x67
 6294 0023 5D310000 		.4byte	.LASF857
 6295 0027 05       		.byte	0x5
 6296 0028 69       		.uleb128 0x69
 6297 0029 CB2E0000 		.4byte	.LASF858
 6298 002d 06       		.byte	0x6
 6299 002e 78       		.uleb128 0x78
 6300 002f 703A0000 		.4byte	.LASF859
 6301 0033 05       		.byte	0x5
 6302 0034 7A       		.uleb128 0x7a
 6303 0035 4D850000 		.4byte	.LASF860
 6304 0039 05       		.byte	0x5
ARM GAS  C:\Users\COSMIN~1.MAR\AppData\Local\Temp\cccNbcra.s 			page 121


 6305 003a 7E       		.uleb128 0x7e
 6306 003b 684F0000 		.4byte	.LASF861
 6307 003f 05       		.byte	0x5
 6308 0040 8201     		.uleb128 0x82
 6309 0042 41890000 		.4byte	.LASF862
 6310 0046 05       		.byte	0x5
 6311 0047 8501     		.uleb128 0x85
 6312 0049 3C280000 		.4byte	.LASF863
 6313 004d 05       		.byte	0x5
 6314 004e 8701     		.uleb128 0x87
 6315 0050 70430000 		.4byte	.LASF864
 6316 0054 00       		.byte	0
 6317              		.section	.debug_macro,"G",%progbits,wm4.lpc17xx_timer.h.48.9c5b76a52ea125e9dfa6c9525b9fba77,comdat
 6318              	.Ldebug_macro12:
 6319 0000 0400     		.2byte	0x4
 6320 0002 00       		.byte	0
 6321 0003 05       		.byte	0x5
 6322 0004 30       		.uleb128 0x30
 6323 0005 4C910000 		.4byte	.LASF865
 6324 0009 05       		.byte	0x5
 6325 000a 36       		.uleb128 0x36
 6326 000b 880D0000 		.4byte	.LASF866
 6327 000f 05       		.byte	0x5
 6328 0010 38       		.uleb128 0x38
 6329 0011 82940000 		.4byte	.LASF867
 6330 0015 05       		.byte	0x5
 6331 0016 3E       		.uleb128 0x3e
 6332 0017 7D2A0000 		.4byte	.LASF868
 6333 001b 05       		.byte	0x5
 6334 001c 40       		.uleb128 0x40
 6335 001d 822E0000 		.4byte	.LASF869
 6336 0021 05       		.byte	0x5
 6337 0022 42       		.uleb128 0x42
 6338 0023 C3350000 		.4byte	.LASF870
 6339 0027 05       		.byte	0x5
 6340 0028 48       		.uleb128 0x48
 6341 0029 2D180000 		.4byte	.LASF871
 6342 002d 05       		.byte	0x5
 6343 002e 4A       		.uleb128 0x4a
 6344 002f 2C950000 		.4byte	.LASF872
 6345 0033 05       		.byte	0x5
 6346 0034 4C       		.uleb128 0x4c
 6347 0035 15920000 		.4byte	.LASF873
 6348 0039 05       		.byte	0x5
 6349 003a 4E       		.uleb128 0x4e
 6350 003b E2840000 		.4byte	.LASF874
 6351 003f 05       		.byte	0x5
 6352 0040 50       		.uleb128 0x50
 6353 0041 D9110000 		.4byte	.LASF875
 6354 0045 05       		.byte	0x5
 6355 0046 55       		.uleb128 0x55
 6356 0047 13670000 		.4byte	.LASF876
 6357 004b 05       		.byte	0x5
 6358 004c 57       		.uleb128 0x57
 6359 004d C1170000 		.4byte	.LASF877
 6360 0051 05       		.byte	0x5
 6361 0052 59       		.uleb128 0x59
ARM GAS  C:\Users\COSMIN~1.MAR\AppData\Local\Temp\cccNbcra.s 			page 122


 6362 0053 813C0000 		.4byte	.LASF878
 6363 0057 05       		.byte	0x5
 6364 0058 5B       		.uleb128 0x5b
 6365 0059 2F480000 		.4byte	.LASF879
 6366 005d 05       		.byte	0x5
 6367 005e 5D       		.uleb128 0x5d
 6368 005f 49100000 		.4byte	.LASF880
 6369 0063 05       		.byte	0x5
 6370 0064 5F       		.uleb128 0x5f
 6371 0065 6E110000 		.4byte	.LASF881
 6372 0069 05       		.byte	0x5
 6373 006a 66       		.uleb128 0x66
 6374 006b 2F3E0000 		.4byte	.LASF882
 6375 006f 05       		.byte	0x5
 6376 0070 68       		.uleb128 0x68
 6377 0071 93090000 		.4byte	.LASF883
 6378 0075 05       		.byte	0x5
 6379 0076 6A       		.uleb128 0x6a
 6380 0077 DB590000 		.4byte	.LASF884
 6381 007b 05       		.byte	0x5
 6382 007c 6C       		.uleb128 0x6c
 6383 007d 4F590000 		.4byte	.LASF885
 6384 0081 05       		.byte	0x5
 6385 0082 6E       		.uleb128 0x6e
 6386 0083 205B0000 		.4byte	.LASF886
 6387 0087 05       		.byte	0x5
 6388 0088 70       		.uleb128 0x70
 6389 0089 89230000 		.4byte	.LASF887
 6390 008d 05       		.byte	0x5
 6391 008e 72       		.uleb128 0x72
 6392 008f 757F0000 		.4byte	.LASF888
 6393 0093 05       		.byte	0x5
 6394 0094 74       		.uleb128 0x74
 6395 0095 6C220000 		.4byte	.LASF889
 6396 0099 05       		.byte	0x5
 6397 009a 79       		.uleb128 0x79
 6398 009b 63470000 		.4byte	.LASF890
 6399 009f 05       		.byte	0x5
 6400 00a0 7B       		.uleb128 0x7b
 6401 00a1 14720000 		.4byte	.LASF891
 6402 00a5 05       		.byte	0x5
 6403 00a6 7D       		.uleb128 0x7d
 6404 00a7 6D940000 		.4byte	.LASF892
 6405 00ab 05       		.byte	0x5
 6406 00ac 7E       		.uleb128 0x7e
 6407 00ad 6F8F0000 		.4byte	.LASF893
 6408 00b1 05       		.byte	0x5
 6409 00b2 9B01     		.uleb128 0x9b
 6410 00b4 6D490000 		.4byte	.LASF894
 6411 00b8 05       		.byte	0x5
 6412 00b9 A701     		.uleb128 0xa7
 6413 00bb 9E860000 		.4byte	.LASF895
 6414 00bf 05       		.byte	0x5
 6415 00c0 AF01     		.uleb128 0xaf
 6416 00c2 3F5B0000 		.4byte	.LASF896
 6417 00c6 05       		.byte	0x5
 6418 00c7 B601     		.uleb128 0xb6
ARM GAS  C:\Users\COSMIN~1.MAR\AppData\Local\Temp\cccNbcra.s 			page 123


 6419 00c9 AE030000 		.4byte	.LASF897
 6420 00cd 05       		.byte	0x5
 6421 00ce C001     		.uleb128 0xc0
 6422 00d0 57630000 		.4byte	.LASF898
 6423 00d4 05       		.byte	0x5
 6424 00d5 CB01     		.uleb128 0xcb
 6425 00d7 86750000 		.4byte	.LASF899
 6426 00db 05       		.byte	0x5
 6427 00dc 9F02     		.uleb128 0x11f
 6428 00de F58C0000 		.4byte	.LASF900
 6429 00e2 00       		.byte	0
 6430              		.section	.debug_macro,"G",%progbits,wm4.lpc17xx_clkpwr.h.28.ed653d213cc31b181c2f984ea62223b0,comda
 6431              	.Ldebug_macro13:
 6432 0000 0400     		.2byte	0x4
 6433 0002 00       		.byte	0
 6434 0003 05       		.byte	0x5
 6435 0004 1C       		.uleb128 0x1c
 6436 0005 2F6E0000 		.4byte	.LASF901
 6437 0009 05       		.byte	0x5
 6438 000a 33       		.uleb128 0x33
 6439 000b 7C850000 		.4byte	.LASF902
 6440 000f 05       		.byte	0x5
 6441 0010 35       		.uleb128 0x35
 6442 0011 441D0000 		.4byte	.LASF903
 6443 0015 05       		.byte	0x5
 6444 0016 37       		.uleb128 0x37
 6445 0017 FE540000 		.4byte	.LASF904
 6446 001b 05       		.byte	0x5
 6447 001c 39       		.uleb128 0x39
 6448 001d 45230000 		.4byte	.LASF905
 6449 0021 05       		.byte	0x5
 6450 0022 3E       		.uleb128 0x3e
 6451 0023 8E000000 		.4byte	.LASF906
 6452 0027 05       		.byte	0x5
 6453 0028 40       		.uleb128 0x40
 6454 0029 1C4A0000 		.4byte	.LASF907
 6455 002d 05       		.byte	0x5
 6456 002e 42       		.uleb128 0x42
 6457 002f B8620000 		.4byte	.LASF908
 6458 0033 05       		.byte	0x5
 6459 0034 44       		.uleb128 0x44
 6460 0035 E14D0000 		.4byte	.LASF909
 6461 0039 05       		.byte	0x5
 6462 003a 46       		.uleb128 0x46
 6463 003b 426E0000 		.4byte	.LASF910
 6464 003f 05       		.byte	0x5
 6465 0040 48       		.uleb128 0x48
 6466 0041 42160000 		.4byte	.LASF911
 6467 0045 05       		.byte	0x5
 6468 0046 4A       		.uleb128 0x4a
 6469 0047 B2870000 		.4byte	.LASF912
 6470 004b 05       		.byte	0x5
 6471 004c 4C       		.uleb128 0x4c
 6472 004d 1A410000 		.4byte	.LASF913
 6473 0051 05       		.byte	0x5
 6474 0052 4E       		.uleb128 0x4e
 6475 0053 B4460000 		.4byte	.LASF914
ARM GAS  C:\Users\COSMIN~1.MAR\AppData\Local\Temp\cccNbcra.s 			page 124


 6476 0057 05       		.byte	0x5
 6477 0058 53       		.uleb128 0x53
 6478 0059 A78E0000 		.4byte	.LASF915
 6479 005d 05       		.byte	0x5
 6480 005e 55       		.uleb128 0x55
 6481 005f AC4E0000 		.4byte	.LASF916
 6482 0063 05       		.byte	0x5
 6483 0064 57       		.uleb128 0x57
 6484 0065 168E0000 		.4byte	.LASF917
 6485 0069 05       		.byte	0x5
 6486 006a 5C       		.uleb128 0x5c
 6487 006b 742B0000 		.4byte	.LASF918
 6488 006f 05       		.byte	0x5
 6489 0070 5E       		.uleb128 0x5e
 6490 0071 15130000 		.4byte	.LASF919
 6491 0075 05       		.byte	0x5
 6492 0076 60       		.uleb128 0x60
 6493 0077 60640000 		.4byte	.LASF920
 6494 007b 05       		.byte	0x5
 6495 007c 65       		.uleb128 0x65
 6496 007d 56410000 		.4byte	.LASF921
 6497 0081 05       		.byte	0x5
 6498 0082 67       		.uleb128 0x67
 6499 0083 A27C0000 		.4byte	.LASF922
 6500 0087 05       		.byte	0x5
 6501 0088 69       		.uleb128 0x69
 6502 0089 9A670000 		.4byte	.LASF923
 6503 008d 05       		.byte	0x5
 6504 008e 6B       		.uleb128 0x6b
 6505 008f CA010000 		.4byte	.LASF924
 6506 0093 05       		.byte	0x5
 6507 0094 6D       		.uleb128 0x6d
 6508 0095 5D600000 		.4byte	.LASF925
 6509 0099 05       		.byte	0x5
 6510 009a 72       		.uleb128 0x72
 6511 009b 976E0000 		.4byte	.LASF926
 6512 009f 05       		.byte	0x5
 6513 00a0 77       		.uleb128 0x77
 6514 00a1 80570000 		.4byte	.LASF927
 6515 00a5 05       		.byte	0x5
 6516 00a6 79       		.uleb128 0x79
 6517 00a7 5D840000 		.4byte	.LASF928
 6518 00ab 05       		.byte	0x5
 6519 00ac 7B       		.uleb128 0x7b
 6520 00ad FC810000 		.4byte	.LASF929
 6521 00b1 05       		.byte	0x5
 6522 00b2 8001     		.uleb128 0x80
 6523 00b4 6E310000 		.4byte	.LASF930
 6524 00b8 05       		.byte	0x5
 6525 00b9 8201     		.uleb128 0x82
 6526 00bb 0C0E0000 		.4byte	.LASF931
 6527 00bf 05       		.byte	0x5
 6528 00c0 8401     		.uleb128 0x84
 6529 00c2 02600000 		.4byte	.LASF932
 6530 00c6 05       		.byte	0x5
 6531 00c7 8901     		.uleb128 0x89
 6532 00c9 9C110000 		.4byte	.LASF933
ARM GAS  C:\Users\COSMIN~1.MAR\AppData\Local\Temp\cccNbcra.s 			page 125


 6533 00cd 05       		.byte	0x5
 6534 00ce 8B01     		.uleb128 0x8b
 6535 00d0 06330000 		.4byte	.LASF934
 6536 00d4 05       		.byte	0x5
 6537 00d5 8D01     		.uleb128 0x8d
 6538 00d7 3E4B0000 		.4byte	.LASF935
 6539 00db 05       		.byte	0x5
 6540 00dc 8F01     		.uleb128 0x8f
 6541 00de 18800000 		.4byte	.LASF936
 6542 00e2 05       		.byte	0x5
 6543 00e3 9101     		.uleb128 0x91
 6544 00e5 1C960000 		.4byte	.LASF937
 6545 00e9 05       		.byte	0x5
 6546 00ea 9601     		.uleb128 0x96
 6547 00ec 29650000 		.4byte	.LASF938
 6548 00f0 05       		.byte	0x5
 6549 00f1 9B01     		.uleb128 0x9b
 6550 00f3 338F0000 		.4byte	.LASF939
 6551 00f7 05       		.byte	0x5
 6552 00f8 9F01     		.uleb128 0x9f
 6553 00fa 3E7F0000 		.4byte	.LASF940
 6554 00fe 05       		.byte	0x5
 6555 00ff A301     		.uleb128 0xa3
 6556 0101 137B0000 		.4byte	.LASF941
 6557 0105 05       		.byte	0x5
 6558 0106 A801     		.uleb128 0xa8
 6559 0108 7F370000 		.4byte	.LASF942
 6560 010c 05       		.byte	0x5
 6561 010d AA01     		.uleb128 0xaa
 6562 010f D08E0000 		.4byte	.LASF943
 6563 0113 05       		.byte	0x5
 6564 0114 B001     		.uleb128 0xb0
 6565 0116 C5420000 		.4byte	.LASF944
 6566 011a 05       		.byte	0x5
 6567 011b B201     		.uleb128 0xb2
 6568 011d 04240000 		.4byte	.LASF945
 6569 0121 05       		.byte	0x5
 6570 0122 B401     		.uleb128 0xb4
 6571 0124 705A0000 		.4byte	.LASF946
 6572 0128 05       		.byte	0x5
 6573 0129 B901     		.uleb128 0xb9
 6574 012b 2A850000 		.4byte	.LASF947
 6575 012f 05       		.byte	0x5
 6576 0130 BB01     		.uleb128 0xbb
 6577 0132 40370000 		.4byte	.LASF948
 6578 0136 05       		.byte	0x5
 6579 0137 BD01     		.uleb128 0xbd
 6580 0139 04440000 		.4byte	.LASF949
 6581 013d 05       		.byte	0x5
 6582 013e BF01     		.uleb128 0xbf
 6583 0140 A7390000 		.4byte	.LASF950
 6584 0144 05       		.byte	0x5
 6585 0145 C101     		.uleb128 0xc1
 6586 0147 756C0000 		.4byte	.LASF951
 6587 014b 05       		.byte	0x5
 6588 014c C301     		.uleb128 0xc3
 6589 014e 93440000 		.4byte	.LASF952
ARM GAS  C:\Users\COSMIN~1.MAR\AppData\Local\Temp\cccNbcra.s 			page 126


 6590 0152 05       		.byte	0x5
 6591 0153 C501     		.uleb128 0xc5
 6592 0155 451C0000 		.4byte	.LASF953
 6593 0159 05       		.byte	0x5
 6594 015a C701     		.uleb128 0xc7
 6595 015c BA4B0000 		.4byte	.LASF954
 6596 0160 05       		.byte	0x5
 6597 0161 C901     		.uleb128 0xc9
 6598 0163 951C0000 		.4byte	.LASF955
 6599 0167 05       		.byte	0x5
 6600 0168 CD01     		.uleb128 0xcd
 6601 016a E8630000 		.4byte	.LASF956
 6602 016e 05       		.byte	0x5
 6603 016f E101     		.uleb128 0xe1
 6604 0171 56480000 		.4byte	.LASF957
 6605 0175 05       		.byte	0x5
 6606 0176 E301     		.uleb128 0xe3
 6607 0178 4F3D0000 		.4byte	.LASF958
 6608 017c 05       		.byte	0x5
 6609 017d E501     		.uleb128 0xe5
 6610 017f 345C0000 		.4byte	.LASF959
 6611 0183 05       		.byte	0x5
 6612 0184 E701     		.uleb128 0xe7
 6613 0186 2A8B0000 		.4byte	.LASF960
 6614 018a 05       		.byte	0x5
 6615 018b E901     		.uleb128 0xe9
 6616 018d D3640000 		.4byte	.LASF961
 6617 0191 05       		.byte	0x5
 6618 0192 EB01     		.uleb128 0xeb
 6619 0194 88700000 		.4byte	.LASF962
 6620 0198 05       		.byte	0x5
 6621 0199 ED01     		.uleb128 0xed
 6622 019b E14B0000 		.4byte	.LASF963
 6623 019f 05       		.byte	0x5
 6624 01a0 EF01     		.uleb128 0xef
 6625 01a2 E71B0000 		.4byte	.LASF964
 6626 01a6 05       		.byte	0x5
 6627 01a7 F101     		.uleb128 0xf1
 6628 01a9 18060000 		.4byte	.LASF965
 6629 01ad 05       		.byte	0x5
 6630 01ae F301     		.uleb128 0xf3
 6631 01b0 600E0000 		.4byte	.LASF966
 6632 01b4 05       		.byte	0x5
 6633 01b5 F501     		.uleb128 0xf5
 6634 01b7 CE6E0000 		.4byte	.LASF967
 6635 01bb 05       		.byte	0x5
 6636 01bc F701     		.uleb128 0xf7
 6637 01be C8890000 		.4byte	.LASF968
 6638 01c2 05       		.byte	0x5
 6639 01c3 F901     		.uleb128 0xf9
 6640 01c5 8A050000 		.4byte	.LASF969
 6641 01c9 05       		.byte	0x5
 6642 01ca FB01     		.uleb128 0xfb
 6643 01cc 685D0000 		.4byte	.LASF970
 6644 01d0 05       		.byte	0x5
 6645 01d1 FD01     		.uleb128 0xfd
 6646 01d3 833B0000 		.4byte	.LASF971
ARM GAS  C:\Users\COSMIN~1.MAR\AppData\Local\Temp\cccNbcra.s 			page 127


 6647 01d7 05       		.byte	0x5
 6648 01d8 FF01     		.uleb128 0xff
 6649 01da 094B0000 		.4byte	.LASF972
 6650 01de 05       		.byte	0x5
 6651 01df 8102     		.uleb128 0x101
 6652 01e1 D1790000 		.4byte	.LASF973
 6653 01e5 05       		.byte	0x5
 6654 01e6 8302     		.uleb128 0x103
 6655 01e8 22320000 		.4byte	.LASF974
 6656 01ec 05       		.byte	0x5
 6657 01ed 8502     		.uleb128 0x105
 6658 01ef 9B080000 		.4byte	.LASF975
 6659 01f3 05       		.byte	0x5
 6660 01f4 8702     		.uleb128 0x107
 6661 01f6 E9620000 		.4byte	.LASF976
 6662 01fa 05       		.byte	0x5
 6663 01fb 8902     		.uleb128 0x109
 6664 01fd DA820000 		.4byte	.LASF977
 6665 0201 05       		.byte	0x5
 6666 0202 8B02     		.uleb128 0x10b
 6667 0204 883D0000 		.4byte	.LASF978
 6668 0208 05       		.byte	0x5
 6669 0209 8D02     		.uleb128 0x10d
 6670 020b BD510000 		.4byte	.LASF979
 6671 020f 05       		.byte	0x5
 6672 0210 8F02     		.uleb128 0x10f
 6673 0212 7C530000 		.4byte	.LASF980
 6674 0216 05       		.byte	0x5
 6675 0217 9102     		.uleb128 0x111
 6676 0219 5E4A0000 		.4byte	.LASF981
 6677 021d 05       		.byte	0x5
 6678 021e 9302     		.uleb128 0x113
 6679 0220 C6700000 		.4byte	.LASF982
 6680 0224 05       		.byte	0x5
 6681 0225 9502     		.uleb128 0x115
 6682 0227 CA240000 		.4byte	.LASF983
 6683 022b 05       		.byte	0x5
 6684 022c 9C02     		.uleb128 0x11c
 6685 022e 6B1C0000 		.4byte	.LASF984
 6686 0232 05       		.byte	0x5
 6687 0233 9E02     		.uleb128 0x11e
 6688 0235 59820000 		.4byte	.LASF985
 6689 0239 05       		.byte	0x5
 6690 023a A002     		.uleb128 0x120
 6691 023c F6000000 		.4byte	.LASF986
 6692 0240 05       		.byte	0x5
 6693 0241 A702     		.uleb128 0x127
 6694 0243 62910000 		.4byte	.LASF987
 6695 0247 05       		.byte	0x5
 6696 0248 A902     		.uleb128 0x129
 6697 024a 19530000 		.4byte	.LASF988
 6698 024e 05       		.byte	0x5
 6699 024f AB02     		.uleb128 0x12b
 6700 0251 8D4D0000 		.4byte	.LASF989
 6701 0255 05       		.byte	0x5
 6702 0256 AD02     		.uleb128 0x12d
 6703 0258 D95D0000 		.4byte	.LASF990
ARM GAS  C:\Users\COSMIN~1.MAR\AppData\Local\Temp\cccNbcra.s 			page 128


 6704 025c 05       		.byte	0x5
 6705 025d AF02     		.uleb128 0x12f
 6706 025f 98910000 		.4byte	.LASF991
 6707 0263 05       		.byte	0x5
 6708 0264 B102     		.uleb128 0x131
 6709 0266 414F0000 		.4byte	.LASF992
 6710 026a 05       		.byte	0x5
 6711 026b B302     		.uleb128 0x133
 6712 026d 58950000 		.4byte	.LASF993
 6713 0271 05       		.byte	0x5
 6714 0272 B502     		.uleb128 0x135
 6715 0274 162C0000 		.4byte	.LASF994
 6716 0278 05       		.byte	0x5
 6717 0279 B702     		.uleb128 0x137
 6718 027b 1B1A0000 		.4byte	.LASF995
 6719 027f 05       		.byte	0x5
 6720 0280 B902     		.uleb128 0x139
 6721 0282 1B700000 		.4byte	.LASF996
 6722 0286 05       		.byte	0x5
 6723 0287 BB02     		.uleb128 0x13b
 6724 0289 3E2D0000 		.4byte	.LASF997
 6725 028d 05       		.byte	0x5
 6726 028e BD02     		.uleb128 0x13d
 6727 0290 5C3B0000 		.4byte	.LASF998
 6728 0294 05       		.byte	0x5
 6729 0295 BF02     		.uleb128 0x13f
 6730 0297 95580000 		.4byte	.LASF999
 6731 029b 05       		.byte	0x5
 6732 029c C102     		.uleb128 0x141
 6733 029e 6F900000 		.4byte	.LASF1000
 6734 02a2 05       		.byte	0x5
 6735 02a3 C302     		.uleb128 0x143
 6736 02a5 421E0000 		.4byte	.LASF1001
 6737 02a9 05       		.byte	0x5
 6738 02aa C502     		.uleb128 0x145
 6739 02ac 6C4E0000 		.4byte	.LASF1002
 6740 02b0 05       		.byte	0x5
 6741 02b1 C702     		.uleb128 0x147
 6742 02b3 A15D0000 		.4byte	.LASF1003
 6743 02b7 05       		.byte	0x5
 6744 02b8 C902     		.uleb128 0x149
 6745 02ba 8F2F0000 		.4byte	.LASF1004
 6746 02be 05       		.byte	0x5
 6747 02bf CB02     		.uleb128 0x14b
 6748 02c1 93010000 		.4byte	.LASF1005
 6749 02c5 05       		.byte	0x5
 6750 02c6 CD02     		.uleb128 0x14d
 6751 02c8 7E830000 		.4byte	.LASF1006
 6752 02cc 05       		.byte	0x5
 6753 02cd CF02     		.uleb128 0x14f
 6754 02cf DD250000 		.4byte	.LASF1007
 6755 02d3 05       		.byte	0x5
 6756 02d4 D102     		.uleb128 0x151
 6757 02d6 F03F0000 		.4byte	.LASF1008
 6758 02da 05       		.byte	0x5
 6759 02db D302     		.uleb128 0x153
 6760 02dd 157C0000 		.4byte	.LASF1009
ARM GAS  C:\Users\COSMIN~1.MAR\AppData\Local\Temp\cccNbcra.s 			page 129


 6761 02e1 05       		.byte	0x5
 6762 02e2 D502     		.uleb128 0x155
 6763 02e4 082D0000 		.4byte	.LASF1010
 6764 02e8 05       		.byte	0x5
 6765 02e9 D702     		.uleb128 0x157
 6766 02eb 8B890000 		.4byte	.LASF1011
 6767 02ef 05       		.byte	0x5
 6768 02f0 D902     		.uleb128 0x159
 6769 02f2 F07F0000 		.4byte	.LASF1012
 6770 02f6 05       		.byte	0x5
 6771 02f7 DB02     		.uleb128 0x15b
 6772 02f9 BF500000 		.4byte	.LASF1013
 6773 02fd 00       		.byte	0
 6774              		.section	.debug_macro,"G",%progbits,wm4.lpc17xx_pinsel.h.28.bc46bf1b2bb0ba1d039ea141cd9f6585,comda
 6775              	.Ldebug_macro14:
 6776 0000 0400     		.2byte	0x4
 6777 0002 00       		.byte	0
 6778 0003 05       		.byte	0x5
 6779 0004 1C       		.uleb128 0x1c
 6780 0005 56670000 		.4byte	.LASF1014
 6781 0009 05       		.byte	0x5
 6782 000a 33       		.uleb128 0x33
 6783 000b D3710000 		.4byte	.LASF1015
 6784 000f 05       		.byte	0x5
 6785 0010 34       		.uleb128 0x34
 6786 0011 155E0000 		.4byte	.LASF1016
 6787 0015 05       		.byte	0x5
 6788 0016 35       		.uleb128 0x35
 6789 0017 91480000 		.4byte	.LASF1017
 6790 001b 05       		.byte	0x5
 6791 001c 36       		.uleb128 0x36
 6792 001d A98A0000 		.4byte	.LASF1018
 6793 0021 05       		.byte	0x5
 6794 0022 49       		.uleb128 0x49
 6795 0023 40800000 		.4byte	.LASF1019
 6796 0027 05       		.byte	0x5
 6797 0028 4A       		.uleb128 0x4a
 6798 0029 205C0000 		.4byte	.LASF1020
 6799 002d 05       		.byte	0x5
 6800 002e 4B       		.uleb128 0x4b
 6801 002f 97350000 		.4byte	.LASF1021
 6802 0033 05       		.byte	0x5
 6803 0034 4C       		.uleb128 0x4c
 6804 0035 B4890000 		.4byte	.LASF1022
 6805 0039 05       		.byte	0x5
 6806 003a 4D       		.uleb128 0x4d
 6807 003b 5B760000 		.4byte	.LASF1023
 6808 003f 05       		.byte	0x5
 6809 0040 53       		.uleb128 0x53
 6810 0041 39190000 		.4byte	.LASF1024
 6811 0045 05       		.byte	0x5
 6812 0046 54       		.uleb128 0x54
 6813 0047 4E460000 		.4byte	.LASF1025
 6814 004b 05       		.byte	0x5
 6815 004c 55       		.uleb128 0x55
 6816 004d 19180000 		.4byte	.LASF1026
 6817 0051 05       		.byte	0x5
ARM GAS  C:\Users\COSMIN~1.MAR\AppData\Local\Temp\cccNbcra.s 			page 130


 6818 0052 56       		.uleb128 0x56
 6819 0053 503F0000 		.4byte	.LASF1027
 6820 0057 05       		.byte	0x5
 6821 0058 5D       		.uleb128 0x5d
 6822 0059 59000000 		.4byte	.LASF1028
 6823 005d 05       		.byte	0x5
 6824 005e 5E       		.uleb128 0x5e
 6825 005f 234E0000 		.4byte	.LASF1029
 6826 0063 05       		.byte	0x5
 6827 0064 5F       		.uleb128 0x5f
 6828 0065 02570000 		.4byte	.LASF1030
 6829 0069 05       		.byte	0x5
 6830 006a 60       		.uleb128 0x60
 6831 006b BA5A0000 		.4byte	.LASF1031
 6832 006f 05       		.byte	0x5
 6833 0070 61       		.uleb128 0x61
 6834 0071 D06B0000 		.4byte	.LASF1032
 6835 0075 05       		.byte	0x5
 6836 0076 62       		.uleb128 0x62
 6837 0077 D40F0000 		.4byte	.LASF1033
 6838 007b 05       		.byte	0x5
 6839 007c 63       		.uleb128 0x63
 6840 007d E2360000 		.4byte	.LASF1034
 6841 0081 05       		.byte	0x5
 6842 0082 64       		.uleb128 0x64
 6843 0083 CD5B0000 		.4byte	.LASF1035
 6844 0087 05       		.byte	0x5
 6845 0088 65       		.uleb128 0x65
 6846 0089 C7820000 		.4byte	.LASF1036
 6847 008d 05       		.byte	0x5
 6848 008e 66       		.uleb128 0x66
 6849 008f DB100000 		.4byte	.LASF1037
 6850 0093 05       		.byte	0x5
 6851 0094 67       		.uleb128 0x67
 6852 0095 681E0000 		.4byte	.LASF1038
 6853 0099 05       		.byte	0x5
 6854 009a 68       		.uleb128 0x68
 6855 009b CE040000 		.4byte	.LASF1039
 6856 009f 05       		.byte	0x5
 6857 00a0 69       		.uleb128 0x69
 6858 00a1 E6500000 		.4byte	.LASF1040
 6859 00a5 05       		.byte	0x5
 6860 00a6 6A       		.uleb128 0x6a
 6861 00a7 52810000 		.4byte	.LASF1041
 6862 00ab 05       		.byte	0x5
 6863 00ac 6B       		.uleb128 0x6b
 6864 00ad AE540000 		.4byte	.LASF1042
 6865 00b1 05       		.byte	0x5
 6866 00b2 6C       		.uleb128 0x6c
 6867 00b3 473B0000 		.4byte	.LASF1043
 6868 00b7 05       		.byte	0x5
 6869 00b8 6D       		.uleb128 0x6d
 6870 00b9 4A610000 		.4byte	.LASF1044
 6871 00bd 05       		.byte	0x5
 6872 00be 6E       		.uleb128 0x6e
 6873 00bf E70F0000 		.4byte	.LASF1045
 6874 00c3 05       		.byte	0x5
ARM GAS  C:\Users\COSMIN~1.MAR\AppData\Local\Temp\cccNbcra.s 			page 131


 6875 00c4 6F       		.uleb128 0x6f
 6876 00c5 CB210000 		.4byte	.LASF1046
 6877 00c9 05       		.byte	0x5
 6878 00ca 70       		.uleb128 0x70
 6879 00cb 69670000 		.4byte	.LASF1047
 6880 00cf 05       		.byte	0x5
 6881 00d0 71       		.uleb128 0x71
 6882 00d1 E78A0000 		.4byte	.LASF1048
 6883 00d5 05       		.byte	0x5
 6884 00d6 72       		.uleb128 0x72
 6885 00d7 84710000 		.4byte	.LASF1049
 6886 00db 05       		.byte	0x5
 6887 00dc 73       		.uleb128 0x73
 6888 00dd 5B5A0000 		.4byte	.LASF1050
 6889 00e1 05       		.byte	0x5
 6890 00e2 74       		.uleb128 0x74
 6891 00e3 7E430000 		.4byte	.LASF1051
 6892 00e7 05       		.byte	0x5
 6893 00e8 75       		.uleb128 0x75
 6894 00e9 DB7F0000 		.4byte	.LASF1052
 6895 00ed 05       		.byte	0x5
 6896 00ee 76       		.uleb128 0x76
 6897 00ef E2400000 		.4byte	.LASF1053
 6898 00f3 05       		.byte	0x5
 6899 00f4 77       		.uleb128 0x77
 6900 00f5 15000000 		.4byte	.LASF1054
 6901 00f9 05       		.byte	0x5
 6902 00fa 78       		.uleb128 0x78
 6903 00fb EE100000 		.4byte	.LASF1055
 6904 00ff 05       		.byte	0x5
 6905 0100 79       		.uleb128 0x79
 6906 0101 018F0000 		.4byte	.LASF1056
 6907 0105 05       		.byte	0x5
 6908 0106 7A       		.uleb128 0x7a
 6909 0107 50250000 		.4byte	.LASF1057
 6910 010b 05       		.byte	0x5
 6911 010c 7B       		.uleb128 0x7b
 6912 010d 77610000 		.4byte	.LASF1058
 6913 0111 05       		.byte	0x5
 6914 0112 7C       		.uleb128 0x7c
 6915 0113 224C0000 		.4byte	.LASF1059
 6916 0117 05       		.byte	0x5
 6917 0118 8201     		.uleb128 0x82
 6918 011a 064C0000 		.4byte	.LASF1060
 6919 011e 05       		.byte	0x5
 6920 011f 8301     		.uleb128 0x83
 6921 0121 FC8A0000 		.4byte	.LASF1061
 6922 0125 05       		.byte	0x5
 6923 0126 8401     		.uleb128 0x84
 6924 0128 29910000 		.4byte	.LASF1062
 6925 012c 05       		.byte	0x5
 6926 012d 8A01     		.uleb128 0x8a
 6927 012f 7E670000 		.4byte	.LASF1063
 6928 0133 05       		.byte	0x5
 6929 0134 8B01     		.uleb128 0x8b
 6930 0136 A2600000 		.4byte	.LASF1064
 6931 013a 05       		.byte	0x5
ARM GAS  C:\Users\COSMIN~1.MAR\AppData\Local\Temp\cccNbcra.s 			page 132


 6932 013b 9101     		.uleb128 0x91
 6933 013d 0D390000 		.4byte	.LASF1065
 6934 0141 05       		.byte	0x5
 6935 0142 9201     		.uleb128 0x92
 6936 0144 07880000 		.4byte	.LASF1066
 6937 0148 00       		.byte	0
 6938              		.section	.debug_macro,"G",%progbits,wm4.lpc17xx_libcfg_default.h.27.7c412cdf4245ef94b86bdcf981a232
 6939              	.Ldebug_macro15:
 6940 0000 0400     		.2byte	0x4
 6941 0002 00       		.byte	0
 6942 0003 05       		.byte	0x5
 6943 0004 1B       		.uleb128 0x1b
 6944 0005 40730000 		.4byte	.LASF1067
 6945 0009 05       		.byte	0x5
 6946 000a 2A       		.uleb128 0x2a
 6947 000b 8A0F0000 		.4byte	.LASF1068
 6948 000f 05       		.byte	0x5
 6949 0010 32       		.uleb128 0x32
 6950 0011 C9600000 		.4byte	.LASF1069
 6951 0015 05       		.byte	0x5
 6952 0016 35       		.uleb128 0x35
 6953 0017 C3540000 		.4byte	.LASF1070
 6954 001b 05       		.byte	0x5
 6955 001c 36       		.uleb128 0x36
 6956 001d 864C0000 		.4byte	.LASF1071
 6957 0021 05       		.byte	0x5
 6958 0022 37       		.uleb128 0x37
 6959 0023 C3670000 		.4byte	.LASF1072
 6960 0027 05       		.byte	0x5
 6961 0028 38       		.uleb128 0x38
 6962 0029 DC3E0000 		.4byte	.LASF1073
 6963 002d 05       		.byte	0x5
 6964 002e 39       		.uleb128 0x39
 6965 002f 3D0E0000 		.4byte	.LASF1074
 6966 0033 05       		.byte	0x5
 6967 0034 3C       		.uleb128 0x3c
 6968 0035 920F0000 		.4byte	.LASF1075
 6969 0039 05       		.byte	0x5
 6970 003a 3F       		.uleb128 0x3f
 6971 003b 5F130000 		.4byte	.LASF1076
 6972 003f 05       		.byte	0x5
 6973 0040 40       		.uleb128 0x40
 6974 0041 CD5A0000 		.4byte	.LASF1077
 6975 0045 05       		.byte	0x5
 6976 0046 41       		.uleb128 0x41
 6977 0047 276E0000 		.4byte	.LASF1078
 6978 004b 05       		.byte	0x5
 6979 004c 45       		.uleb128 0x45
 6980 004d 390C0000 		.4byte	.LASF1079
 6981 0051 05       		.byte	0x5
 6982 0052 46       		.uleb128 0x46
 6983 0053 DC2E0000 		.4byte	.LASF1080
 6984 0057 05       		.byte	0x5
 6985 0058 47       		.uleb128 0x47
 6986 0059 96900000 		.4byte	.LASF1081
 6987 005d 05       		.byte	0x5
 6988 005e 48       		.uleb128 0x48
ARM GAS  C:\Users\COSMIN~1.MAR\AppData\Local\Temp\cccNbcra.s 			page 133


 6989 005f F20B0000 		.4byte	.LASF1082
 6990 0063 05       		.byte	0x5
 6991 0064 4B       		.uleb128 0x4b
 6992 0065 55040000 		.4byte	.LASF1083
 6993 0069 05       		.byte	0x5
 6994 006a 4E       		.uleb128 0x4e
 6995 006b 266F0000 		.4byte	.LASF1084
 6996 006f 05       		.byte	0x5
 6997 0070 52       		.uleb128 0x52
 6998 0071 673A0000 		.4byte	.LASF1085
 6999 0075 05       		.byte	0x5
 7000 0076 56       		.uleb128 0x56
 7001 0077 42440000 		.4byte	.LASF1086
 7002 007b 05       		.byte	0x5
 7003 007c 59       		.uleb128 0x59
 7004 007d B86F0000 		.4byte	.LASF1087
 7005 0081 05       		.byte	0x5
 7006 0082 5D       		.uleb128 0x5d
 7007 0083 52830000 		.4byte	.LASF1088
 7008 0087 05       		.byte	0x5
 7009 0088 5E       		.uleb128 0x5e
 7010 0089 8F350000 		.4byte	.LASF1089
 7011 008d 05       		.byte	0x5
 7012 008e 61       		.uleb128 0x61
 7013 008f 141A0000 		.4byte	.LASF1090
 7014 0093 05       		.byte	0x5
 7015 0094 64       		.uleb128 0x64
 7016 0095 785C0000 		.4byte	.LASF1091
 7017 0099 05       		.byte	0x5
 7018 009a 67       		.uleb128 0x67
 7019 009b B4550000 		.4byte	.LASF1092
 7020 009f 05       		.byte	0x5
 7021 00a0 68       		.uleb128 0x68
 7022 00a1 AE3D0000 		.4byte	.LASF1093
 7023 00a5 05       		.byte	0x5
 7024 00a6 6B       		.uleb128 0x6b
 7025 00a7 025C0000 		.4byte	.LASF1094
 7026 00ab 05       		.byte	0x5
 7027 00ac 6E       		.uleb128 0x6e
 7028 00ad B72F0000 		.4byte	.LASF1095
 7029 00b1 05       		.byte	0x5
 7030 00b2 71       		.uleb128 0x71
 7031 00b3 EF870000 		.4byte	.LASF1096
 7032 00b7 05       		.byte	0x5
 7033 00b8 74       		.uleb128 0x74
 7034 00b9 76120000 		.4byte	.LASF1097
 7035 00bd 05       		.byte	0x5
 7036 00be 77       		.uleb128 0x77
 7037 00bf 9F8E0000 		.4byte	.LASF1098
 7038 00c3 05       		.byte	0x5
 7039 00c4 8601     		.uleb128 0x86
 7040 00c6 3E620000 		.4byte	.LASF1099
 7041 00ca 00       		.byte	0
 7042              		.section	.debug_line,"",%progbits
 7043              	.Ldebug_line0:
 7044 0000 AD050000 		.section	.debug_str,"MS",%progbits,1
 7044      02003702 
ARM GAS  C:\Users\COSMIN~1.MAR\AppData\Local\Temp\cccNbcra.s 			page 134


 7044      00000201 
 7044      FB0E0D00 
 7044      01010101 
 7045              	.LASF1201:
 7046 0000 636F7265 		.ascii	"core/lpc17xx_timer.c\000"
 7046      2F6C7063 
 7046      31377878 
 7046      5F74696D 
 7046      65722E63 
 7047              	.LASF1054:
 7048 0015 50494E53 		.ascii	"PINSEL_PIN_26 ((26))\000"
 7048      454C5F50 
 7048      494E5F32 
 7048      36202828 
 7048      32362929 
 7049              	.LASF611:
 7050 002a 49544D5F 		.ascii	"ITM_TCR_SWOENA_Msk (1UL << ITM_TCR_SWOENA_Pos)\000"
 7050      5443525F 
 7050      53574F45 
 7050      4E415F4D 
 7050      736B2028 
 7051              	.LASF1028:
 7052 0059 50494E53 		.ascii	"PINSEL_PIN_0 ((0))\000"
 7052      454C5F50 
 7052      494E5F30 
 7052      20282830 
 7052      292900
 7053              	.LASF157:
 7054 006c 5F5F4445 		.ascii	"__DECIMAL_DIG__ 17\000"
 7054      43494D41 
 7054      4C5F4449 
 7054      475F5F20 
 7054      313700
 7055              	.LASF294:
 7056 007f 5F5F5548 		.ascii	"__UHA_FBIT__ 8\000"
 7056      415F4642 
 7056      49545F5F 
 7056      203800
 7057              	.LASF906:
 7058 008e 434C4B50 		.ascii	"CLKPWR_CLKOUTCFG_CLKOUTSEL_CPU ((uint32_t)(0x00))\000"
 7058      57525F43 
 7058      4C4B4F55 
 7058      54434647 
 7058      5F434C4B 
 7059              	.LASF660:
 7060 00c0 4D50555F 		.ascii	"MPU_RASR_XN_Pos 28\000"
 7060      52415352 
 7060      5F584E5F 
 7060      506F7320 
 7060      323800
 7061              	.LASF855:
 7062 00d3 5F424954 		.ascii	"_BIT\000"
 7062      00
 7063              	.LASF110:
 7064 00d8 5F5F494E 		.ascii	"__INT_FAST32_MAX__ 2147483647\000"
 7064      545F4641 
 7064      53543332 
ARM GAS  C:\Users\COSMIN~1.MAR\AppData\Local\Temp\cccNbcra.s 			page 135


 7064      5F4D4158 
 7064      5F5F2032 
 7065              	.LASF986:
 7066 00f6 434C4B50 		.ascii	"CLKPWR_PCLKSEL_CCLK_DIV_2 ((uint32_t)(2))\000"
 7066      57525F50 
 7066      434C4B53 
 7066      454C5F43 
 7066      434C4B5F 
 7067              	.LASF1165:
 7068 0120 496E744F 		.ascii	"IntOnCaption\000"
 7068      6E436170 
 7068      74696F6E 
 7068      00
 7069              	.LASF725:
 7070 012d 436F7265 		.ascii	"CoreDebug_DEMCR_VC_CHKERR_Msk (1UL << CoreDebug_DEM"
 7070      44656275 
 7070      675F4445 
 7070      4D43525F 
 7070      56435F43 
 7071 0160 43525F56 		.ascii	"CR_VC_CHKERR_Pos)\000"
 7071      435F4348 
 7071      4B455252 
 7071      5F506F73 
 7071      2900
 7072              	.LASF314:
 7073 0172 5F5F4743 		.ascii	"__GCC_ATOMIC_WCHAR_T_LOCK_FREE 2\000"
 7073      435F4154 
 7073      4F4D4943 
 7073      5F574348 
 7073      41525F54 
 7074              	.LASF1005:
 7075 0193 434C4B50 		.ascii	"CLKPWR_PCONP_PCTIM2 ((uint32_t)(1<<22))\000"
 7075      57525F50 
 7075      434F4E50 
 7075      5F504354 
 7075      494D3220 
 7076              	.LASF293:
 7077 01bb 5F5F5441 		.ascii	"__TA_IBIT__ 64\000"
 7077      5F494249 
 7077      545F5F20 
 7077      363400
 7078              	.LASF924:
 7079 01ca 434C4B50 		.ascii	"CLKPWR_PLL0STAT_PLLC ((uint32_t)(1<<25))\000"
 7079      57525F50 
 7079      4C4C3053 
 7079      5441545F 
 7079      504C4C43 
 7080              	.LASF532:
 7081 01f3 5343425F 		.ascii	"SCB_CCR_NONBASETHRDENA_Pos 0\000"
 7081      4343525F 
 7081      4E4F4E42 
 7081      41534554 
 7081      48524445 
 7082              	.LASF1189:
 7083 0210 54494D5F 		.ascii	"TIM_Cmd\000"
 7083      436D6400 
 7084              	.LASF1117:
ARM GAS  C:\Users\COSMIN~1.MAR\AppData\Local\Temp\cccNbcra.s 			page 136


 7085 0218 73697A65 		.ascii	"sizetype\000"
 7085      74797065 
 7085      00
 7086              	.LASF501:
 7087 0221 5343425F 		.ascii	"SCB_VTOR_TBLOFF_Msk (0x3FFFFFUL << SCB_VTOR_TBLOFF_"
 7087      56544F52 
 7087      5F54424C 
 7087      4F46465F 
 7087      4D736B20 
 7088 0254 506F7329 		.ascii	"Pos)\000"
 7088      00
 7089              	.LASF71:
 7090 0259 5F5F4C4F 		.ascii	"__LONG_LONG_MAX__ 9223372036854775807LL\000"
 7090      4E475F4C 
 7090      4F4E475F 
 7090      4D41585F 
 7090      5F203932 
 7091              	.LASF531:
 7092 0281 5343425F 		.ascii	"SCB_CCR_USERSETMPEND_Msk (1UL << SCB_CCR_USERSETMPE"
 7092      4343525F 
 7092      55534552 
 7092      5345544D 
 7092      50454E44 
 7093 02b4 4E445F50 		.ascii	"ND_Pos)\000"
 7093      6F732900 
 7094              	.LASF728:
 7095 02bc 436F7265 		.ascii	"CoreDebug_DEMCR_VC_MMERR_Pos 4\000"
 7095      44656275 
 7095      675F4445 
 7095      4D43525F 
 7095      56435F4D 
 7096              	.LASF258:
 7097 02db 5F5F4C4C 		.ascii	"__LLACCUM_MIN__ (-0X1P31LLK-0X1P31LLK)\000"
 7097      41434355 
 7097      4D5F4D49 
 7097      4E5F5F20 
 7097      282D3058 
 7098              	.LASF250:
 7099 0302 5F5F4C41 		.ascii	"__LACCUM_EPSILON__ 0x1P-31LK\000"
 7099      4343554D 
 7099      5F455053 
 7099      494C4F4E 
 7099      5F5F2030 
 7100              	.LASF183:
 7101 031f 5F5F4445 		.ascii	"__DEC128_MAX__ 9.999999999999999999999999999999999E"
 7101      43313238 
 7101      5F4D4158 
 7101      5F5F2039 
 7101      2E393939 
 7102 0352 36313434 		.ascii	"6144DL\000"
 7102      444C00
 7103              	.LASF566:
 7104 0359 5343425F 		.ascii	"SCB_CFSR_MEMFAULTSR_Pos 0\000"
 7104      43465352 
 7104      5F4D454D 
 7104      4641554C 
 7104      5453525F 
ARM GAS  C:\Users\COSMIN~1.MAR\AppData\Local\Temp\cccNbcra.s 			page 137


 7105              	.LASF79:
 7106 0373 5F5F494E 		.ascii	"__INTMAX_C(c) c ## LL\000"
 7106      544D4158 
 7106      5F432863 
 7106      29206320 
 7106      2323204C 
 7107              	.LASF1170:
 7108 0389 75736563 		.ascii	"usec\000"
 7108      00
 7109              	.LASF244:
 7110 038e 5F5F5541 		.ascii	"__UACCUM_MAX__ 0XFFFFFFFFP-16UK\000"
 7110      4343554D 
 7110      5F4D4158 
 7110      5F5F2030 
 7110      58464646 
 7111              	.LASF897:
 7112 03ae 50415241 		.ascii	"PARAM_TIM_COUNTER_INPUT_OPT(OPT) ((OPT == TIM_COUNT"
 7112      4D5F5449 
 7112      4D5F434F 
 7112      554E5445 
 7112      525F494E 
 7113 03e1 45525F49 		.ascii	"ER_INCAP0)||(OPT == TIM_COUNTER_INCAP1))\000"
 7113      4E434150 
 7113      30297C7C 
 7113      284F5054 
 7113      203D3D20 
 7114              	.LASF171:
 7115 040a 5F5F4445 		.ascii	"__DEC32_SUBNORMAL_MIN__ 0.000001E-95DF\000"
 7115      4333325F 
 7115      5355424E 
 7115      4F524D41 
 7115      4C5F4D49 
 7116              	.LASF275:
 7117 0431 5F5F5451 		.ascii	"__TQ_IBIT__ 0\000"
 7117      5F494249 
 7117      545F5F20 
 7117      3000
 7118              	.LASF450:
 7119 043f 57494E54 		.ascii	"WINT_MIN __WINT_MIN__\000"
 7119      5F4D494E 
 7119      205F5F57 
 7119      494E545F 
 7119      4D494E5F 
 7120              	.LASF1083:
 7121 0455 5F54494D 		.ascii	"_TIM 1\000"
 7121      203100
 7122              	.LASF513:
 7123 045c 5343425F 		.ascii	"SCB_AIRCR_VECTCLRACTIVE_Msk (1UL << SCB_AIRCR_VECTC"
 7123      41495243 
 7123      525F5645 
 7123      4354434C 
 7123      52414354 
 7124 048f 4C524143 		.ascii	"LRACTIVE_Pos)\000"
 7124      54495645 
 7124      5F506F73 
 7124      2900
 7125              	.LASF11:
ARM GAS  C:\Users\COSMIN~1.MAR\AppData\Local\Temp\cccNbcra.s 			page 138


 7126 049d 5F5F4154 		.ascii	"__ATOMIC_CONSUME 1\000"
 7126      4F4D4943 
 7126      5F434F4E 
 7126      53554D45 
 7126      203100
 7127              	.LASF208:
 7128 04b0 5F5F4C46 		.ascii	"__LFRACT_MIN__ (-0.5LR-0.5LR)\000"
 7128      52414354 
 7128      5F4D494E 
 7128      5F5F2028 
 7128      2D302E35 
 7129              	.LASF1039:
 7130 04ce 50494E53 		.ascii	"PINSEL_PIN_11 ((11))\000"
 7130      454C5F50 
 7130      494E5F31 
 7130      31202828 
 7130      31312929 
 7131              	.LASF732:
 7132 04e3 5343535F 		.ascii	"SCS_BASE (0xE000E000UL)\000"
 7132      42415345 
 7132      20283078 
 7132      45303030 
 7132      45303030 
 7133              	.LASF238:
 7134 04fb 5F5F4143 		.ascii	"__ACCUM_MIN__ (-0X1P15K-0X1P15K)\000"
 7134      43554D5F 
 7134      4D494E5F 
 7134      5F20282D 
 7134      30583150 
 7135              	.LASF734:
 7136 051c 436F7265 		.ascii	"CoreDebug_BASE (0xE000EDF0UL)\000"
 7136      44656275 
 7136      675F4241 
 7136      53452028 
 7136      30784530 
 7137              	.LASF571:
 7138 053a 5343425F 		.ascii	"SCB_HFSR_FORCED_Msk (1UL << SCB_HFSR_FORCED_Pos)\000"
 7138      48465352 
 7138      5F464F52 
 7138      4345445F 
 7138      4D736B20 
 7139              	.LASF741:
 7140 056b 4E564943 		.ascii	"NVIC ((NVIC_Type *) NVIC_BASE)\000"
 7140      2028284E 
 7140      5649435F 
 7140      54797065 
 7140      202A2920 
 7141              	.LASF969:
 7142 058a 434C4B50 		.ascii	"CLKPWR_PCLKSEL_CAN2 ((uint32_t)(28))\000"
 7142      57525F50 
 7142      434C4B53 
 7142      454C5F43 
 7142      414E3220 
 7143              	.LASF1114:
 7144 05af 696E7433 		.ascii	"int32_t\000"
 7144      325F7400 
 7145              	.LASF490:
ARM GAS  C:\Users\COSMIN~1.MAR\AppData\Local\Temp\cccNbcra.s 			page 139


 7146 05b7 5343425F 		.ascii	"SCB_ICSR_ISRPENDING_Pos 22\000"
 7146      49435352 
 7146      5F495352 
 7146      50454E44 
 7146      494E475F 
 7147              	.LASF422:
 7148 05d2 494E5436 		.ascii	"INT64_MAX __INT64_MAX__\000"
 7148      345F4D41 
 7148      58205F5F 
 7148      494E5436 
 7148      345F4D41 
 7149              	.LASF15:
 7150 05ea 5F5F5349 		.ascii	"__SIZEOF_LONG_LONG__ 8\000"
 7150      5A454F46 
 7150      5F4C4F4E 
 7150      475F4C4F 
 7150      4E475F5F 
 7151              	.LASF142:
 7152 0601 5F5F4442 		.ascii	"__DBL_MAX_10_EXP__ 308\000"
 7152      4C5F4D41 
 7152      585F3130 
 7152      5F455850 
 7152      5F5F2033 
 7153              	.LASF965:
 7154 0618 434C4B50 		.ascii	"CLKPWR_PCLKSEL_SSP1 ((uint32_t)(20))\000"
 7154      57525F50 
 7154      434C4B53 
 7154      454C5F53 
 7154      53503120 
 7155              	.LASF198:
 7156 063d 5F5F4652 		.ascii	"__FRACT_MIN__ (-0.5R-0.5R)\000"
 7156      4143545F 
 7156      4D494E5F 
 7156      5F20282D 
 7156      302E3552 
 7157              	.LASF752:
 7158 0658 4C50435F 		.ascii	"LPC_GPIO_BASE (0x2009C000UL)\000"
 7158      4750494F 
 7158      5F424153 
 7158      45202830 
 7158      78323030 
 7159              	.LASF1174:
 7160 0675 746E756D 		.ascii	"tnum\000"
 7160      00
 7161              	.LASF587:
 7162 067a 53797354 		.ascii	"SysTick_CTRL_CLKSOURCE_Msk (1UL << SysTick_CTRL_CLK"
 7162      69636B5F 
 7162      4354524C 
 7162      5F434C4B 
 7162      534F5552 
 7163 06ad 534F5552 		.ascii	"SOURCE_Pos)\000"
 7163      43455F50 
 7163      6F732900 
 7164              	.LASF234:
 7165 06b9 5F5F5553 		.ascii	"__USACCUM_MAX__ 0XFFFFP-8UHK\000"
 7165      41434355 
 7165      4D5F4D41 
ARM GAS  C:\Users\COSMIN~1.MAR\AppData\Local\Temp\cccNbcra.s 			page 140


 7165      585F5F20 
 7165      30584646 
 7166              	.LASF168:
 7167 06d6 5F5F4445 		.ascii	"__DEC32_MIN__ 1E-95DF\000"
 7167      4333325F 
 7167      4D494E5F 
 7167      5F203145 
 7167      2D393544 
 7168              	.LASF346:
 7169 06ec 5F5F4152 		.ascii	"__ARM_NEON_FP 4\000"
 7169      4D5F4E45 
 7169      4F4E5F46 
 7169      50203400 
 7170              	.LASF833:
 7171 06fc 4C50435F 		.ascii	"LPC_CANAF_RAM ((LPC_CANAF_RAM_TypeDef *) LPC_CANAF_"
 7171      43414E41 
 7171      465F5241 
 7171      4D202828 
 7171      4C50435F 
 7172 072f 52414D5F 		.ascii	"RAM_BASE)\000"
 7172      42415345 
 7172      2900
 7173              	.LASF271:
 7174 0739 5F5F5351 		.ascii	"__SQ_IBIT__ 0\000"
 7174      5F494249 
 7174      545F5F20 
 7174      3000
 7175              	.LASF25:
 7176 0747 5F5F4F52 		.ascii	"__ORDER_PDP_ENDIAN__ 3412\000"
 7176      4445525F 
 7176      5044505F 
 7176      454E4449 
 7176      414E5F5F 
 7177              	.LASF29:
 7178 0761 5F5F5349 		.ascii	"__SIZE_TYPE__ unsigned int\000"
 7178      5A455F54 
 7178      5950455F 
 7178      5F20756E 
 7178      7369676E 
 7179              	.LASF174:
 7180 077c 5F5F4445 		.ascii	"__DEC64_MAX_EXP__ 385\000"
 7180      4336345F 
 7180      4D41585F 
 7180      4558505F 
 7180      5F203338 
 7181              	.LASF461:
 7182 0792 5F474343 		.ascii	"_GCC_WRAP_STDINT_H \000"
 7182      5F575241 
 7182      505F5354 
 7182      44494E54 
 7182      5F482000 
 7183              	.LASF529:
 7184 07a6 5343425F 		.ascii	"SCB_CCR_UNALIGN_TRP_Msk (1UL << SCB_CCR_UNALIGN_TRP"
 7184      4343525F 
 7184      554E414C 
 7184      49474E5F 
 7184      5452505F 
ARM GAS  C:\Users\COSMIN~1.MAR\AppData\Local\Temp\cccNbcra.s 			page 141


 7185 07d9 5F506F73 		.ascii	"_Pos)\000"
 7185      2900
 7186              	.LASF134:
 7187 07df 5F5F464C 		.ascii	"__FLT_HAS_DENORM__ 1\000"
 7187      545F4841 
 7187      535F4445 
 7187      4E4F524D 
 7187      5F5F2031 
 7188              	.LASF38:
 7189 07f4 5F5F494E 		.ascii	"__INT8_TYPE__ signed char\000"
 7189      54385F54 
 7189      5950455F 
 7189      5F207369 
 7189      676E6564 
 7190              	.LASF334:
 7191 080e 5F5F4152 		.ascii	"__ARM_ARCH_PROFILE 77\000"
 7191      4D5F4152 
 7191      43485F50 
 7191      524F4649 
 7191      4C452037 
 7192              	.LASF814:
 7193 0824 4C50435F 		.ascii	"LPC_TIM3 ((LPC_TIM_TypeDef *) LPC_TIM3_BASE )\000"
 7193      54494D33 
 7193      2028284C 
 7193      50435F54 
 7193      494D5F54 
 7194              	.LASF233:
 7195 0852 5F5F5553 		.ascii	"__USACCUM_MIN__ 0.0UHK\000"
 7195      41434355 
 7195      4D5F4D49 
 7195      4E5F5F20 
 7195      302E3055 
 7196              	.LASF834:
 7197 0869 4C50435F 		.ascii	"LPC_CANAF ((LPC_CANAF_TypeDef *) LPC_CANAF_BASE )\000"
 7197      43414E41 
 7197      46202828 
 7197      4C50435F 
 7197      43414E41 
 7198              	.LASF975:
 7199 089b 434C4B50 		.ascii	"CLKPWR_PCLKSEL_TIMER2 ((uint32_t)(44))\000"
 7199      57525F50 
 7199      434C4B53 
 7199      454C5F54 
 7199      494D4552 
 7200              	.LASF153:
 7201 08c2 5F5F4C44 		.ascii	"__LDBL_MIN_EXP__ (-1021)\000"
 7201      424C5F4D 
 7201      494E5F45 
 7201      58505F5F 
 7201      20282D31 
 7202              	.LASF151:
 7203 08db 5F5F4C44 		.ascii	"__LDBL_MANT_DIG__ 53\000"
 7203      424C5F4D 
 7203      414E545F 
 7203      4449475F 
 7203      5F203533 
 7204              	.LASF643:
ARM GAS  C:\Users\COSMIN~1.MAR\AppData\Local\Temp\cccNbcra.s 			page 142


 7205 08f0 4D50555F 		.ascii	"MPU_TYPE_DREGION_Msk (0xFFUL << MPU_TYPE_DREGION_Po"
 7205      54595045 
 7205      5F445245 
 7205      47494F4E 
 7205      5F4D736B 
 7206 0923 732900   		.ascii	"s)\000"
 7207              	.LASF101:
 7208 0926 5F5F5549 		.ascii	"__UINT8_C(c) c\000"
 7208      4E54385F 
 7208      43286329 
 7208      206300
 7209              	.LASF39:
 7210 0935 5F5F494E 		.ascii	"__INT16_TYPE__ short int\000"
 7210      5431365F 
 7210      54595045 
 7210      5F5F2073 
 7210      686F7274 
 7211              	.LASF636:
 7212 094e 496E7454 		.ascii	"IntType_ACTLR_DISDEFWBUF_Pos 1\000"
 7212      7970655F 
 7212      4143544C 
 7212      525F4449 
 7212      53444546 
 7213              	.LASF787:
 7214 096d 4C50435F 		.ascii	"LPC_SC_BASE (LPC_APB1_BASE + 0x7C000)\000"
 7214      53435F42 
 7214      41534520 
 7214      284C5043 
 7214      5F415042 
 7215              	.LASF883:
 7216 0993 54494D5F 		.ascii	"TIM_EM_NOTHING ((uint8_t)(0x0))\000"
 7216      454D5F4E 
 7216      4F544849 
 7216      4E472028 
 7216      2875696E 
 7217              	.LASF463:
 7218 09b3 5F5F5353 		.ascii	"__SSAT(ARG1,ARG2) ({ uint32_t __RES, __ARG1 = (ARG1"
 7218      41542841 
 7218      5247312C 
 7218      41524732 
 7218      2920287B 
 7219 09e6 293B205F 		.ascii	"); __ASM (\"ssat %0, %1, %2\" : \"=r\" (__RES) : \""
 7219      5F41534D 
 7219      20282273 
 7219      73617420 
 7219      25302C20 
 7220 0a14 49222028 		.ascii	"I\" (ARG2), \"r\" (__ARG1) ); __RES; })\000"
 7220      41524732 
 7220      292C2022 
 7220      72222028 
 7220      5F5F4152 
 7221              	.LASF720:
 7222 0a39 436F7265 		.ascii	"CoreDebug_DEMCR_VC_BUSERR_Pos 8\000"
 7222      44656275 
 7222      675F4445 
 7222      4D43525F 
 7222      56435F42 
ARM GAS  C:\Users\COSMIN~1.MAR\AppData\Local\Temp\cccNbcra.s 			page 143


 7223              	.LASF772:
 7224 0a59 4C50435F 		.ascii	"LPC_CANCR_BASE (LPC_APB0_BASE + 0x40000)\000"
 7224      43414E43 
 7224      525F4241 
 7224      53452028 
 7224      4C50435F 
 7225              	.LASF437:
 7226 0a82 494E545F 		.ascii	"INT_FAST64_MAX __INT_FAST64_MAX__\000"
 7226      46415354 
 7226      36345F4D 
 7226      4158205F 
 7226      5F494E54 
 7227              	.LASF307:
 7228 0aa4 5F5F4743 		.ascii	"__GCC_HAVE_SYNC_COMPARE_AND_SWAP_1 1\000"
 7228      435F4841 
 7228      56455F53 
 7228      594E435F 
 7228      434F4D50 
 7229              	.LASF666:
 7230 0ac9 4D50555F 		.ascii	"MPU_RASR_S_Pos 18\000"
 7230      52415352 
 7230      5F535F50 
 7230      6F732031 
 7230      3800
 7231              	.LASF1120:
 7232 0adb 43544352 		.ascii	"CTCR\000"
 7232      00
 7233              	.LASF1:
 7234 0ae0 5F5F5354 		.ascii	"__STDC_HOSTED__ 1\000"
 7234      44435F48 
 7234      4F535445 
 7234      445F5F20 
 7234      3100
 7235              	.LASF221:
 7236 0af2 5F5F554C 		.ascii	"__ULLFRACT_FBIT__ 64\000"
 7236      4C465241 
 7236      43545F46 
 7236      4249545F 
 7236      5F203634 
 7237              	.LASF667:
 7238 0b07 4D50555F 		.ascii	"MPU_RASR_S_Msk (1UL << MPU_RASR_S_Pos)\000"
 7238      52415352 
 7238      5F535F4D 
 7238      736B2028 
 7238      31554C20 
 7239              	.LASF737:
 7240 0b2e 5343425F 		.ascii	"SCB_BASE (SCS_BASE + 0x0D00UL)\000"
 7240      42415345 
 7240      20285343 
 7240      535F4241 
 7240      5345202B 
 7241              	.LASF617:
 7242 0b4d 49544D5F 		.ascii	"ITM_TCR_TSENA_Msk (1UL << ITM_TCR_TSENA_Pos)\000"
 7242      5443525F 
 7242      5453454E 
 7242      415F4D73 
 7242      6B202831 
ARM GAS  C:\Users\COSMIN~1.MAR\AppData\Local\Temp\cccNbcra.s 			page 144


 7243              	.LASF57:
 7244 0b7a 5F5F494E 		.ascii	"__INT_FAST64_TYPE__ long long int\000"
 7244      545F4641 
 7244      53543634 
 7244      5F545950 
 7244      455F5F20 
 7245              	.LASF484:
 7246 0b9c 5343425F 		.ascii	"SCB_ICSR_PENDSTSET_Pos 26\000"
 7246      49435352 
 7246      5F50454E 
 7246      44535453 
 7246      45545F50 
 7247              	.LASF758:
 7248 0bb6 4C50435F 		.ascii	"LPC_TIM0_BASE (LPC_APB0_BASE + 0x04000)\000"
 7248      54494D30 
 7248      5F424153 
 7248      4520284C 
 7248      50435F41 
 7249              	.LASF747:
 7250 0bde 5F5F5359 		.ascii	"__SYSTEM_LPC17xx_H \000"
 7250      5354454D 
 7250      5F4C5043 
 7250      31377878 
 7250      5F482000 
 7251              	.LASF1082:
 7252 0bf2 5F493243 		.ascii	"_I2C2 1\000"
 7252      32203100 
 7253              	.LASF715:
 7254 0bfa 436F7265 		.ascii	"CoreDebug_DEMCR_MON_EN_Msk (1UL << CoreDebug_DEMCR_"
 7254      44656275 
 7254      675F4445 
 7254      4D43525F 
 7254      4D4F4E5F 
 7255 0c2d 4D4F4E5F 		.ascii	"MON_EN_Pos)\000"
 7255      454E5F50 
 7255      6F732900 
 7256              	.LASF1079:
 7257 0c39 5F493243 		.ascii	"_I2C 1\000"
 7257      203100
 7258              	.LASF91:
 7259 0c40 5F5F5549 		.ascii	"__UINT64_MAX__ 18446744073709551615ULL\000"
 7259      4E543634 
 7259      5F4D4158 
 7259      5F5F2031 
 7259      38343436 
 7260              	.LASF1200:
 7261 0c67 474E5520 		.ascii	"GNU C 4.9.3 20150303 (release) [ARM/embedded-4_9-br"
 7261      4320342E 
 7261      392E3320 
 7261      32303135 
 7261      30333033 
 7262 0c9a 616E6368 		.ascii	"anch revision 221220] -mcpu=cortex-m3 -mthumb -g -g"
 7262      20726576 
 7262      6973696F 
 7262      6E203232 
 7262      31323230 
 7263 0ccd 67646233 		.ascii	"gdb3 -O0 -std=gnu90 -ffunction-sections -fdata-sect"
ARM GAS  C:\Users\COSMIN~1.MAR\AppData\Local\Temp\cccNbcra.s 			page 145


 7263      202D4F30 
 7263      202D7374 
 7263      643D676E 
 7263      75393020 
 7264 0d00 696F6E73 		.ascii	"ions\000"
 7264      00
 7265              	.LASF559:
 7266 0d05 5343425F 		.ascii	"SCB_SHCSR_BUSFAULTACT_Msk (1UL << SCB_SHCSR_BUSFAUL"
 7266      53484353 
 7266      525F4255 
 7266      53464155 
 7266      4C544143 
 7267 0d38 54414354 		.ascii	"TACT_Pos)\000"
 7267      5F506F73 
 7267      2900
 7268              	.LASF194:
 7269 0d42 5F5F5553 		.ascii	"__USFRACT_MAX__ 0XFFP-8UHR\000"
 7269      46524143 
 7269      545F4D41 
 7269      585F5F20 
 7269      30584646 
 7270              	.LASF586:
 7271 0d5d 53797354 		.ascii	"SysTick_CTRL_CLKSOURCE_Pos 2\000"
 7271      69636B5F 
 7271      4354524C 
 7271      5F434C4B 
 7271      534F5552 
 7272              	.LASF342:
 7273 0d7a 5F5F5448 		.ascii	"__THUMBEL__ 1\000"
 7273      554D4245 
 7273      4C5F5F20 
 7273      3100
 7274              	.LASF866:
 7275 0d88 54494D5F 		.ascii	"TIM_MATCH_INT(n) (_BIT(n & 0x0F))\000"
 7275      4D415443 
 7275      485F494E 
 7275      54286E29 
 7275      20285F42 
 7276              	.LASF769:
 7277 0daa 4C50435F 		.ascii	"LPC_ADC_BASE (LPC_APB0_BASE + 0x34000)\000"
 7277      4144435F 
 7277      42415345 
 7277      20284C50 
 7277      435F4150 
 7278              	.LASF706:
 7279 0dd1 436F7265 		.ascii	"CoreDebug_DEMCR_TRCENA_Pos 24\000"
 7279      44656275 
 7279      675F4445 
 7279      4D43525F 
 7279      54524345 
 7280              	.LASF504:
 7281 0def 5343425F 		.ascii	"SCB_AIRCR_VECTKEYSTAT_Pos 16\000"
 7281      41495243 
 7281      525F5645 
 7281      43544B45 
 7281      59535441 
 7282              	.LASF931:
ARM GAS  C:\Users\COSMIN~1.MAR\AppData\Local\Temp\cccNbcra.s 			page 146


 7283 0e0c 434C4B50 		.ascii	"CLKPWR_PLL1CFG_PSEL(n) ((uint32_t)((n&0x03)<<5))\000"
 7283      57525F50 
 7283      4C4C3143 
 7283      46475F50 
 7283      53454C28 
 7284              	.LASF1074:
 7285 0e3d 5F554152 		.ascii	"_UART3 1\000"
 7285      54332031 
 7285      00
 7286              	.LASF417:
 7287 0e46 55494E54 		.ascii	"UINT32_MAX __UINT32_MAX__\000"
 7287      33325F4D 
 7287      4158205F 
 7287      5F55494E 
 7287      5433325F 
 7288              	.LASF966:
 7289 0e60 434C4B50 		.ascii	"CLKPWR_PCLKSEL_DAC ((uint32_t)(22))\000"
 7289      57525F50 
 7289      434C4B53 
 7289      454C5F44 
 7289      41432028 
 7290              	.LASF850:
 7291 0e84 4C50435F 		.ascii	"LPC_GPDMACH7 ((LPC_GPDMACH_TypeDef *) LPC_GPDMACH7_"
 7291      4750444D 
 7291      41434837 
 7291      2028284C 
 7291      50435F47 
 7292 0eb7 42415345 		.ascii	"BASE )\000"
 7292      202900
 7293              	.LASF808:
 7294 0ebe 4C50435F 		.ascii	"LPC_GPIO3 ((LPC_GPIO_TypeDef *) LPC_GPIO3_BASE )\000"
 7294      4750494F 
 7294      33202828 
 7294      4C50435F 
 7294      4750494F 
 7295              	.LASF713:
 7296 0eef 436F7265 		.ascii	"CoreDebug_DEMCR_MON_PEND_Msk (1UL << CoreDebug_DEMC"
 7296      44656275 
 7296      675F4445 
 7296      4D43525F 
 7296      4D4F4E5F 
 7297 0f22 525F4D4F 		.ascii	"R_MON_PEND_Pos)\000"
 7297      4E5F5045 
 7297      4E445F50 
 7297      6F732900 
 7298              	.LASF211:
 7299 0f32 5F5F554C 		.ascii	"__ULFRACT_FBIT__ 32\000"
 7299      46524143 
 7299      545F4642 
 7299      49545F5F 
 7299      20333200 
 7300              	.LASF797:
 7301 0f46 4C50435F 		.ascii	"LPC_GPDMACH7_BASE (LPC_AHB_BASE + 0x041E0)\000"
 7301      4750444D 
 7301      41434837 
 7301      5F424153 
 7301      4520284C 
ARM GAS  C:\Users\COSMIN~1.MAR\AppData\Local\Temp\cccNbcra.s 			page 147


 7302              	.LASF398:
 7303 0f71 5F5F696E 		.ascii	"__int_fast32_t_defined 1\000"
 7303      745F6661 
 7303      73743332 
 7303      5F745F64 
 7303      6566696E 
 7304              	.LASF1068:
 7305 0f8a 44454255 		.ascii	"DEBUG 1\000"
 7305      47203100 
 7306              	.LASF1075:
 7307 0f92 5F535049 		.ascii	"_SPI 1\000"
 7307      203100
 7308              	.LASF425:
 7309 0f99 494E545F 		.ascii	"INT_LEAST64_MAX __INT_LEAST64_MAX__\000"
 7309      4C454153 
 7309      5436345F 
 7309      4D415820 
 7309      5F5F494E 
 7310              	.LASF602:
 7311 0fbd 49544D5F 		.ascii	"ITM_TPR_PRIVMASK_Pos 0\000"
 7311      5450525F 
 7311      50524956 
 7311      4D41534B 
 7311      5F506F73 
 7312              	.LASF1033:
 7313 0fd4 50494E53 		.ascii	"PINSEL_PIN_5 ((5))\000"
 7313      454C5F50 
 7313      494E5F35 
 7313      20282835 
 7313      292900
 7314              	.LASF1045:
 7315 0fe7 50494E53 		.ascii	"PINSEL_PIN_17 ((17))\000"
 7315      454C5F50 
 7315      494E5F31 
 7315      37202828 
 7315      31372929 
 7316              	.LASF453:
 7317 0ffc 494E5431 		.ascii	"INT16_C(x) __INT16_C(x)\000"
 7317      365F4328 
 7317      7829205F 
 7317      5F494E54 
 7317      31365F43 
 7318              	.LASF190:
 7319 1014 5F5F5346 		.ascii	"__SFRACT_EPSILON__ 0x1P-7HR\000"
 7319      52414354 
 7319      5F455053 
 7319      494C4F4E 
 7319      5F5F2030 
 7320              	.LASF70:
 7321 1030 5F5F4C4F 		.ascii	"__LONG_MAX__ 2147483647L\000"
 7321      4E475F4D 
 7321      41585F5F 
 7321      20323134 
 7321      37343833 
 7322              	.LASF880:
 7323 1049 54494D5F 		.ascii	"TIM_CCR_MASKBIT ((uint32_t)(0x3F))\000"
 7323      4343525F 
ARM GAS  C:\Users\COSMIN~1.MAR\AppData\Local\Temp\cccNbcra.s 			page 148


 7323      4D41534B 
 7323      42495420 
 7323      28287569 
 7324              	.LASF97:
 7325 106c 5F5F494E 		.ascii	"__INT32_C(c) c ## L\000"
 7325      5433325F 
 7325      43286329 
 7325      20632023 
 7325      23204C00 
 7326              	.LASF280:
 7327 1080 5F5F5553 		.ascii	"__USQ_FBIT__ 32\000"
 7327      515F4642 
 7327      49545F5F 
 7327      20333200 
 7328              	.LASF24:
 7329 1090 5F5F4F52 		.ascii	"__ORDER_BIG_ENDIAN__ 4321\000"
 7329      4445525F 
 7329      4249475F 
 7329      454E4449 
 7329      414E5F5F 
 7330              	.LASF806:
 7331 10aa 4C50435F 		.ascii	"LPC_GPIO1 ((LPC_GPIO_TypeDef *) LPC_GPIO1_BASE )\000"
 7331      4750494F 
 7331      31202828 
 7331      4C50435F 
 7331      4750494F 
 7332              	.LASF1037:
 7333 10db 50494E53 		.ascii	"PINSEL_PIN_9 ((9))\000"
 7333      454C5F50 
 7333      494E5F39 
 7333      20282839 
 7333      292900
 7334              	.LASF1055:
 7335 10ee 50494E53 		.ascii	"PINSEL_PIN_27 ((27))\000"
 7335      454C5F50 
 7335      494E5F32 
 7335      37202828 
 7335      32372929 
 7336              	.LASF270:
 7337 1103 5F5F5351 		.ascii	"__SQ_FBIT__ 31\000"
 7337      5F464249 
 7337      545F5F20 
 7337      333100
 7338              	.LASF579:
 7339 1112 5343425F 		.ascii	"SCB_DFSR_DWTTRAP_Msk (1UL << SCB_DFSR_DWTTRAP_Pos)\000"
 7339      44465352 
 7339      5F445754 
 7339      54524150 
 7339      5F4D736B 
 7340              	.LASF508:
 7341 1145 5343425F 		.ascii	"SCB_AIRCR_PRIGROUP_Pos 8\000"
 7341      41495243 
 7341      525F5052 
 7341      4947524F 
 7341      55505F50 
 7342              	.LASF300:
 7343 115e 5F5F5554 		.ascii	"__UTA_FBIT__ 64\000"
ARM GAS  C:\Users\COSMIN~1.MAR\AppData\Local\Temp\cccNbcra.s 			page 149


 7343      415F4642 
 7343      49545F5F 
 7343      20363400 
 7344              	.LASF881:
 7345 116e 54494D5F 		.ascii	"TIM_CCR_CHANNEL_MASKBIT(n) ((uint32_t)(7<<n))\000"
 7345      4343525F 
 7345      4348414E 
 7345      4E454C5F 
 7345      4D41534B 
 7346              	.LASF933:
 7347 119c 434C4B50 		.ascii	"CLKPWR_PLL1STAT_MSEL(n) ((uint32_t)(n&0x1F))\000"
 7347      57525F50 
 7347      4C4C3153 
 7347      5441545F 
 7347      4D53454C 
 7348              	.LASF278:
 7349 11c9 5F5F5548 		.ascii	"__UHQ_FBIT__ 16\000"
 7349      515F4642 
 7349      49545F5F 
 7349      20313600 
 7350              	.LASF875:
 7351 11d9 54494D5F 		.ascii	"TIM_MCR_CHANNEL_MASKBIT(n) ((uint32_t)(7<<n))\000"
 7351      4D43525F 
 7351      4348414E 
 7351      4E454C5F 
 7351      4D41534B 
 7352              	.LASF356:
 7353 1207 5F5F4C50 		.ascii	"__LPC17xx_H__ \000"
 7353      43313778 
 7353      785F485F 
 7353      5F2000
 7354              	.LASF1180:
 7355 1216 54494D5F 		.ascii	"TIM_ClearIntCapturePending\000"
 7355      436C6561 
 7355      72496E74 
 7355      43617074 
 7355      75726550 
 7356              	.LASF598:
 7357 1231 53797354 		.ascii	"SysTick_CALIB_SKEW_Pos 30\000"
 7357      69636B5F 
 7357      43414C49 
 7357      425F534B 
 7357      45575F50 
 7358              	.LASF67:
 7359 124b 5F5F5343 		.ascii	"__SCHAR_MAX__ 127\000"
 7359      4841525F 
 7359      4D41585F 
 7359      5F203132 
 7359      3700
 7360              	.LASF170:
 7361 125d 5F5F4445 		.ascii	"__DEC32_EPSILON__ 1E-6DF\000"
 7361      4333325F 
 7361      45505349 
 7361      4C4F4E5F 
 7361      5F203145 
 7362              	.LASF1097:
 7363 1276 5F524954 		.ascii	"_RIT 1\000"
ARM GAS  C:\Users\COSMIN~1.MAR\AppData\Local\Temp\cccNbcra.s 			page 150


 7363      203100
 7364              	.LASF564:
 7365 127d 5343425F 		.ascii	"SCB_CFSR_BUSFAULTSR_Pos 8\000"
 7365      43465352 
 7365      5F425553 
 7365      4641554C 
 7365      5453525F 
 7366              	.LASF49:
 7367 1297 5F5F494E 		.ascii	"__INT_LEAST64_TYPE__ long long int\000"
 7367      545F4C45 
 7367      41535436 
 7367      345F5459 
 7367      50455F5F 
 7368              	.LASF523:
 7369 12ba 5343425F 		.ascii	"SCB_CCR_STKALIGN_Msk (1UL << SCB_CCR_STKALIGN_Pos)\000"
 7369      4343525F 
 7369      53544B41 
 7369      4C49474E 
 7369      5F4D736B 
 7370              	.LASF365:
 7371 12ed 5F5F4153 		.ascii	"__ASM __asm\000"
 7371      4D205F5F 
 7371      61736D00 
 7372              	.LASF1104:
 7373 12f9 5F5F7569 		.ascii	"__uint8_t\000"
 7373      6E74385F 
 7373      7400
 7374              	.LASF1161:
 7375 1303 54494D5F 		.ascii	"TIM_MATCHCFG_Type\000"
 7375      4D415443 
 7375      48434647 
 7375      5F547970 
 7375      6500
 7376              	.LASF919:
 7377 1315 434C4B50 		.ascii	"CLKPWR_PLL0CFG_NSEL(n) ((uint32_t)((n<<16)&0xFF0000"
 7377      57525F50 
 7377      4C4C3043 
 7377      46475F4E 
 7377      53454C28 
 7378 1348 292900   		.ascii	"))\000"
 7379              	.LASF85:
 7380 134b 5F5F494E 		.ascii	"__INT16_MAX__ 32767\000"
 7380      5431365F 
 7380      4D41585F 
 7380      5F203332 
 7380      37363700 
 7381              	.LASF1076:
 7382 135f 5F535350 		.ascii	"_SSP 1\000"
 7382      203100
 7383              	.LASF344:
 7384 1366 5F5F5646 		.ascii	"__VFP_FP__ 1\000"
 7384      505F4650 
 7384      5F5F2031 
 7384      00
 7385              	.LASF693:
 7386 1373 436F7265 		.ascii	"CoreDebug_DHCSR_C_SNAPSTALL_Msk (1UL << CoreDebug_D"
 7386      44656275 
ARM GAS  C:\Users\COSMIN~1.MAR\AppData\Local\Temp\cccNbcra.s 			page 151


 7386      675F4448 
 7386      4353525F 
 7386      435F534E 
 7387 13a6 48435352 		.ascii	"HCSR_C_SNAPSTALL_Pos)\000"
 7387      5F435F53 
 7387      4E415053 
 7387      54414C4C 
 7387      5F506F73 
 7388              	.LASF78:
 7389 13bc 5F5F494E 		.ascii	"__INTMAX_MAX__ 9223372036854775807LL\000"
 7389      544D4158 
 7389      5F4D4158 
 7389      5F5F2039 
 7389      32323333 
 7390              	.LASF777:
 7391 13e1 4C50435F 		.ascii	"LPC_DAC_BASE (LPC_APB1_BASE + 0x0C000)\000"
 7391      4441435F 
 7391      42415345 
 7391      20284C50 
 7391      435F4150 
 7392              	.LASF1194:
 7393 1408 54494D5F 		.ascii	"TIM_ConfigCapture\000"
 7393      436F6E66 
 7393      69674361 
 7393      70747572 
 7393      6500
 7394              	.LASF424:
 7395 141a 494E545F 		.ascii	"INT_LEAST64_MIN (-__INT_LEAST64_MAX__ - 1)\000"
 7395      4C454153 
 7395      5436345F 
 7395      4D494E20 
 7395      282D5F5F 
 7396              	.LASF582:
 7397 1445 5343425F 		.ascii	"SCB_DFSR_HALTED_Pos 0\000"
 7397      44465352 
 7397      5F48414C 
 7397      5445445F 
 7397      506F7320 
 7398              	.LASF119:
 7399 145b 5F5F4743 		.ascii	"__GCC_IEC_559_COMPLEX 0\000"
 7399      435F4945 
 7399      435F3535 
 7399      395F434F 
 7399      4D504C45 
 7400              	.LASF1185:
 7401 1473 70436F75 		.ascii	"pCounterCfg\000"
 7401      6E746572 
 7401      43666700 
 7402              	.LASF535:
 7403 147f 5343425F 		.ascii	"SCB_SHCSR_USGFAULTENA_Msk (1UL << SCB_SHCSR_USGFAUL"
 7403      53484353 
 7403      525F5553 
 7403      47464155 
 7403      4C54454E 
 7404 14b2 54454E41 		.ascii	"TENA_Pos)\000"
 7404      5F506F73 
 7404      2900
ARM GAS  C:\Users\COSMIN~1.MAR\AppData\Local\Temp\cccNbcra.s 			page 152


 7405              	.LASF533:
 7406 14bc 5343425F 		.ascii	"SCB_CCR_NONBASETHRDENA_Msk (1UL << SCB_CCR_NONBASET"
 7406      4343525F 
 7406      4E4F4E42 
 7406      41534554 
 7406      48524445 
 7407 14ef 48524445 		.ascii	"HRDENA_Pos)\000"
 7407      4E415F50 
 7407      6F732900 
 7408              	.LASF164:
 7409 14fb 5F5F4C44 		.ascii	"__LDBL_HAS_QUIET_NAN__ 1\000"
 7409      424C5F48 
 7409      41535F51 
 7409      55494554 
 7409      5F4E414E 
 7410              	.LASF609:
 7411 1514 49544D5F 		.ascii	"ITM_TCR_TSPrescale_Msk (3UL << ITM_TCR_TSPrescale_P"
 7411      5443525F 
 7411      54535072 
 7411      65736361 
 7411      6C655F4D 
 7412 1547 6F732900 		.ascii	"os)\000"
 7413              	.LASF615:
 7414 154b 49544D5F 		.ascii	"ITM_TCR_SYNCENA_Msk (1UL << ITM_TCR_SYNCENA_Pos)\000"
 7414      5443525F 
 7414      53594E43 
 7414      454E415F 
 7414      4D736B20 
 7415              	.LASF448:
 7416 157c 57434841 		.ascii	"WCHAR_MAX __WCHAR_MAX__\000"
 7416      525F4D41 
 7416      58205F5F 
 7416      57434841 
 7416      525F4D41 
 7417              	.LASF1176:
 7418 1594 496E7446 		.ascii	"IntFlag\000"
 7418      6C616700 
 7419              	.LASF433:
 7420 159c 494E545F 		.ascii	"INT_FAST32_MIN (-__INT_FAST32_MAX__ - 1)\000"
 7420      46415354 
 7420      33325F4D 
 7420      494E2028 
 7420      2D5F5F49 
 7421              	.LASF588:
 7422 15c5 53797354 		.ascii	"SysTick_CTRL_TICKINT_Pos 1\000"
 7422      69636B5F 
 7422      4354524C 
 7422      5F544943 
 7422      4B494E54 
 7423              	.LASF699:
 7424 15e0 436F7265 		.ascii	"CoreDebug_DHCSR_C_HALT_Msk (1UL << CoreDebug_DHCSR_"
 7424      44656275 
 7424      675F4448 
 7424      4353525F 
 7424      435F4841 
 7425 1613 435F4841 		.ascii	"C_HALT_Pos)\000"
 7425      4C545F50 
ARM GAS  C:\Users\COSMIN~1.MAR\AppData\Local\Temp\cccNbcra.s 			page 153


 7425      6F732900 
 7426              	.LASF50:
 7427 161f 5F5F5549 		.ascii	"__UINT_LEAST8_TYPE__ unsigned char\000"
 7427      4E545F4C 
 7427      45415354 
 7427      385F5459 
 7427      50455F5F 
 7428              	.LASF911:
 7429 1642 434C4B50 		.ascii	"CLKPWR_CLKOUTCFG_CLKOUTDIV(n) ((uint32_t)((n&0x0F)<"
 7429      57525F43 
 7429      4C4B4F55 
 7429      54434647 
 7429      5F434C4B 
 7430 1675 3C342929 		.ascii	"<4))\000"
 7430      00
 7431              	.LASF810:
 7432 167a 4C50435F 		.ascii	"LPC_WDT ((LPC_WDT_TypeDef *) LPC_WDT_BASE )\000"
 7432      57445420 
 7432      28284C50 
 7432      435F5744 
 7432      545F5479 
 7433              	.LASF689:
 7434 16a6 436F7265 		.ascii	"CoreDebug_DHCSR_S_HALT_Msk (1UL << CoreDebug_DHCSR_"
 7434      44656275 
 7434      675F4448 
 7434      4353525F 
 7434      535F4841 
 7435 16d9 535F4841 		.ascii	"S_HALT_Pos)\000"
 7435      4C545F50 
 7435      6F732900 
 7436              	.LASF236:
 7437 16e5 5F5F4143 		.ascii	"__ACCUM_FBIT__ 15\000"
 7437      43554D5F 
 7437      46424954 
 7437      5F5F2031 
 7437      3500
 7438              	.LASF372:
 7439 16f7 5F5F474E 		.ascii	"__GNUC_PREREQ(maj,min) ((__GNUC__ << 16) + __GNUC_M"
 7439      55435F50 
 7439      52455245 
 7439      51286D61 
 7439      6A2C6D69 
 7440 172a 494E4F52 		.ascii	"INOR__ >= ((maj) << 16) + (min))\000"
 7440      5F5F203E 
 7440      3D202828 
 7440      6D616A29 
 7440      203C3C20 
 7441              	.LASF242:
 7442 174b 5F5F5541 		.ascii	"__UACCUM_IBIT__ 16\000"
 7442      4343554D 
 7442      5F494249 
 7442      545F5F20 
 7442      313600
 7443              	.LASF1106:
 7444 175e 6C6F6E67 		.ascii	"long int\000"
 7444      20696E74 
 7444      00
ARM GAS  C:\Users\COSMIN~1.MAR\AppData\Local\Temp\cccNbcra.s 			page 154


 7445              	.LASF115:
 7446 1767 5F5F5549 		.ascii	"__UINT_FAST64_MAX__ 18446744073709551615ULL\000"
 7446      4E545F46 
 7446      41535436 
 7446      345F4D41 
 7446      585F5F20 
 7447              	.LASF442:
 7448 1793 53495A45 		.ascii	"SIZE_MAX __SIZE_MAX__\000"
 7448      5F4D4158 
 7448      205F5F53 
 7448      495A455F 
 7448      4D41585F 
 7449              	.LASF574:
 7450 17a9 5343425F 		.ascii	"SCB_DFSR_EXTERNAL_Pos 4\000"
 7450      44465352 
 7450      5F455854 
 7450      45524E41 
 7450      4C5F506F 
 7451              	.LASF877:
 7452 17c1 54494D5F 		.ascii	"TIM_CAP_FALLING(n) (_BIT(((n * 3) + 1)))\000"
 7452      4341505F 
 7452      46414C4C 
 7452      494E4728 
 7452      6E292028 
 7453              	.LASF145:
 7454 17ea 5F5F4442 		.ascii	"__DBL_MIN__ ((double)2.2250738585072014e-308L)\000"
 7454      4C5F4D49 
 7454      4E5F5F20 
 7454      2828646F 
 7454      75626C65 
 7455              	.LASF1026:
 7456 1819 50494E53 		.ascii	"PINSEL_FUNC_2 ((2))\000"
 7456      454C5F46 
 7456      554E435F 
 7456      32202828 
 7456      32292900 
 7457              	.LASF871:
 7458 182d 54494D5F 		.ascii	"TIM_INT_ON_MATCH(n) (_BIT((n * 3)))\000"
 7458      494E545F 
 7458      4F4E5F4D 
 7458      41544348 
 7458      286E2920 
 7459              	.LASF380:
 7460 1851 5F5F5F69 		.ascii	"___int_least16_t_defined 1\000"
 7460      6E745F6C 
 7460      65617374 
 7460      31365F74 
 7460      5F646566 
 7461              	.LASF72:
 7462 186c 5F5F5743 		.ascii	"__WCHAR_MAX__ 4294967295U\000"
 7462      4841525F 
 7462      4D41585F 
 7462      5F203432 
 7462      39343936 
 7463              	.LASF180:
 7464 1886 5F5F4445 		.ascii	"__DEC128_MIN_EXP__ (-6142)\000"
 7464      43313238 
ARM GAS  C:\Users\COSMIN~1.MAR\AppData\Local\Temp\cccNbcra.s 			page 155


 7464      5F4D494E 
 7464      5F455850 
 7464      5F5F2028 
 7465              	.LASF572:
 7466 18a1 5343425F 		.ascii	"SCB_HFSR_VECTTBL_Pos 1\000"
 7466      48465352 
 7466      5F564543 
 7466      5454424C 
 7466      5F506F73 
 7467              	.LASF54:
 7468 18b8 5F5F494E 		.ascii	"__INT_FAST8_TYPE__ int\000"
 7468      545F4641 
 7468      5354385F 
 7468      54595045 
 7468      5F5F2069 
 7469              	.LASF710:
 7470 18cf 436F7265 		.ascii	"CoreDebug_DEMCR_MON_STEP_Pos 18\000"
 7470      44656275 
 7470      675F4445 
 7470      4D43525F 
 7470      4D4F4E5F 
 7471              	.LASF298:
 7472 18ef 5F5F5544 		.ascii	"__UDA_FBIT__ 32\000"
 7472      415F4642 
 7472      49545F5F 
 7472      20333200 
 7473              	.LASF716:
 7474 18ff 436F7265 		.ascii	"CoreDebug_DEMCR_VC_HARDERR_Pos 10\000"
 7474      44656275 
 7474      675F4445 
 7474      4D43525F 
 7474      56435F48 
 7475              	.LASF81:
 7476 1921 5F5F5549 		.ascii	"__UINTMAX_C(c) c ## ULL\000"
 7476      4E544D41 
 7476      585F4328 
 7476      63292063 
 7476      20232320 
 7477              	.LASF1024:
 7478 1939 50494E53 		.ascii	"PINSEL_FUNC_0 ((0))\000"
 7478      454C5F46 
 7478      554E435F 
 7478      30202828 
 7478      30292900 
 7479              	.LASF28:
 7480 194d 5F5F5349 		.ascii	"__SIZEOF_POINTER__ 4\000"
 7480      5A454F46 
 7480      5F504F49 
 7480      4E544552 
 7480      5F5F2034 
 7481              	.LASF46:
 7482 1962 5F5F494E 		.ascii	"__INT_LEAST8_TYPE__ signed char\000"
 7482      545F4C45 
 7482      41535438 
 7482      5F545950 
 7482      455F5F20 
 7483              	.LASF755:
ARM GAS  C:\Users\COSMIN~1.MAR\AppData\Local\Temp\cccNbcra.s 			page 156


 7484 1982 4C50435F 		.ascii	"LPC_AHB_BASE (0x50000000UL)\000"
 7484      4148425F 
 7484      42415345 
 7484      20283078 
 7484      35303030 
 7485              	.LASF310:
 7486 199e 5F5F4743 		.ascii	"__GCC_ATOMIC_BOOL_LOCK_FREE 2\000"
 7486      435F4154 
 7486      4F4D4943 
 7486      5F424F4F 
 7486      4C5F4C4F 
 7487              	.LASF1144:
 7488 19bc 54494D5F 		.ascii	"TIM_EXTMATCH_NOTHING\000"
 7488      4558544D 
 7488      41544348 
 7488      5F4E4F54 
 7488      48494E47 
 7489              	.LASF604:
 7490 19d1 49544D5F 		.ascii	"ITM_TCR_BUSY_Pos 23\000"
 7490      5443525F 
 7490      42555359 
 7490      5F506F73 
 7490      20323300 
 7491              	.LASF619:
 7492 19e5 49544D5F 		.ascii	"ITM_TCR_ITMENA_Msk (1UL << ITM_TCR_ITMENA_Pos)\000"
 7492      5443525F 
 7492      49544D45 
 7492      4E415F4D 
 7492      736B2028 
 7493              	.LASF1090:
 7494 1a14 5F525443 		.ascii	"_RTC 1\000"
 7494      203100
 7495              	.LASF995:
 7496 1a1b 434C4B50 		.ascii	"CLKPWR_PCONP_PCSSP1 ((uint32_t)(1<<10))\000"
 7496      57525F50 
 7496      434F4E50 
 7496      5F504353 
 7496      53503120 
 7497              	.LASF109:
 7498 1a43 5F5F494E 		.ascii	"__INT_FAST16_MAX__ 2147483647\000"
 7498      545F4641 
 7498      53543136 
 7498      5F4D4158 
 7498      5F5F2032 
 7499              	.LASF408:
 7500 1a61 55494E54 		.ascii	"UINT_LEAST8_MAX __UINT_LEAST8_MAX__\000"
 7500      5F4C4541 
 7500      5354385F 
 7500      4D415820 
 7500      5F5F5549 
 7501              	.LASF292:
 7502 1a85 5F5F5441 		.ascii	"__TA_FBIT__ 63\000"
 7502      5F464249 
 7502      545F5F20 
 7502      363300
 7503              	.LASF347:
 7504 1a94 5F5F5448 		.ascii	"__THUMB_INTERWORK__ 1\000"
ARM GAS  C:\Users\COSMIN~1.MAR\AppData\Local\Temp\cccNbcra.s 			page 157


 7504      554D425F 
 7504      494E5445 
 7504      52574F52 
 7504      4B5F5F20 
 7505              	.LASF224:
 7506 1aaa 5F5F554C 		.ascii	"__ULLFRACT_MAX__ 0XFFFFFFFFFFFFFFFFP-64ULLR\000"
 7506      4C465241 
 7506      43545F4D 
 7506      41585F5F 
 7506      20305846 
 7507              	.LASF760:
 7508 1ad6 4C50435F 		.ascii	"LPC_UART0_BASE (LPC_APB0_BASE + 0x0C000)\000"
 7508      55415254 
 7508      305F4241 
 7508      53452028 
 7508      4C50435F 
 7509              	.LASF831:
 7510 1aff 4C50435F 		.ascii	"LPC_ADC ((LPC_ADC_TypeDef *) LPC_ADC_BASE )\000"
 7510      41444320 
 7510      28284C50 
 7510      435F4144 
 7510      435F5479 
 7511              	.LASF563:
 7512 1b2b 5343425F 		.ascii	"SCB_CFSR_USGFAULTSR_Msk (0xFFFFUL << SCB_CFSR_USGFA"
 7512      43465352 
 7512      5F555347 
 7512      4641554C 
 7512      5453525F 
 7513 1b5e 554C5453 		.ascii	"ULTSR_Pos)\000"
 7513      525F506F 
 7513      732900
 7514              	.LASF583:
 7515 1b69 5343425F 		.ascii	"SCB_DFSR_HALTED_Msk (1UL << SCB_DFSR_HALTED_Pos)\000"
 7515      44465352 
 7515      5F48414C 
 7515      5445445F 
 7515      4D736B20 
 7516              	.LASF429:
 7517 1b9a 55494E54 		.ascii	"UINT_FAST8_MAX __UINT_FAST8_MAX__\000"
 7517      5F464153 
 7517      54385F4D 
 7517      4158205F 
 7517      5F55494E 
 7518              	.LASF665:
 7519 1bbc 4D50555F 		.ascii	"MPU_RASR_TEX_Msk (7UL << MPU_RASR_TEX_Pos)\000"
 7519      52415352 
 7519      5F544558 
 7519      5F4D736B 
 7519      20283755 
 7520              	.LASF964:
 7521 1be7 434C4B50 		.ascii	"CLKPWR_PCLKSEL_SPI ((uint32_t)(16))\000"
 7521      57525F50 
 7521      434C4B53 
 7521      454C5F53 
 7521      50492028 
 7522              	.LASF405:
 7523 1c0b 55494E54 		.ascii	"UINT8_MAX __UINT8_MAX__\000"
ARM GAS  C:\Users\COSMIN~1.MAR\AppData\Local\Temp\cccNbcra.s 			page 158


 7523      385F4D41 
 7523      58205F5F 
 7523      55494E54 
 7523      385F4D41 
 7524              	.LASF36:
 7525 1c23 5F5F4348 		.ascii	"__CHAR32_TYPE__ long unsigned int\000"
 7525      41523332 
 7525      5F545950 
 7525      455F5F20 
 7525      6C6F6E67 
 7526              	.LASF953:
 7527 1c45 434C4B50 		.ascii	"CLKPWR_PCON_DSFLAG ((uint32_t)(1<<9))\000"
 7527      57525F50 
 7527      434F4E5F 
 7527      4453464C 
 7527      41472028 
 7528              	.LASF984:
 7529 1c6b 434C4B50 		.ascii	"CLKPWR_PCLKSEL_CCLK_DIV_4 ((uint32_t)(0))\000"
 7529      57525F50 
 7529      434C4B53 
 7529      454C5F43 
 7529      434C4B5F 
 7530              	.LASF955:
 7531 1c95 434C4B50 		.ascii	"CLKPWR_PCON_DPDFLAG ((uint32_t)(1<<11))\000"
 7531      57525F50 
 7531      434F4E5F 
 7531      44504446 
 7531      4C414720 
 7532              	.LASF127:
 7533 1cbd 5F5F464C 		.ascii	"__FLT_MAX_EXP__ 128\000"
 7533      545F4D41 
 7533      585F4558 
 7533      505F5F20 
 7533      31323800 
 7534              	.LASF14:
 7535 1cd1 5F5F5349 		.ascii	"__SIZEOF_LONG__ 4\000"
 7535      5A454F46 
 7535      5F4C4F4E 
 7535      475F5F20 
 7535      3400
 7536              	.LASF633:
 7537 1ce3 496E7454 		.ascii	"IntType_ICTR_INTLINESNUM_Msk (0x1FUL << IntType_ICT"
 7537      7970655F 
 7537      49435452 
 7537      5F494E54 
 7537      4C494E45 
 7538 1d16 525F494E 		.ascii	"R_INTLINESNUM_Pos)\000"
 7538      544C494E 
 7538      45534E55 
 7538      4D5F506F 
 7538      732900
 7539              	.LASF550:
 7540 1d29 5343425F 		.ascii	"SCB_SHCSR_PENDSVACT_Pos 10\000"
 7540      53484353 
 7540      525F5045 
 7540      4E445356 
 7540      4143545F 
ARM GAS  C:\Users\COSMIN~1.MAR\AppData\Local\Temp\cccNbcra.s 			page 159


 7541              	.LASF903:
 7542 1d44 434C4B50 		.ascii	"CLKPWR_CLKSRCSEL_CLKSRC_MAINOSC ((uint32_t)(0x01))\000"
 7542      57525F43 
 7542      4C4B5352 
 7542      4353454C 
 7542      5F434C4B 
 7543              	.LASF104:
 7544 1d77 5F5F5549 		.ascii	"__UINT_LEAST32_MAX__ 4294967295UL\000"
 7544      4E545F4C 
 7544      45415354 
 7544      33325F4D 
 7544      41585F5F 
 7545              	.LASF18:
 7546 1d99 5F5F5349 		.ascii	"__SIZEOF_DOUBLE__ 8\000"
 7546      5A454F46 
 7546      5F444F55 
 7546      424C455F 
 7546      5F203800 
 7547              	.LASF1140:
 7548 1dad 54494D5F 		.ascii	"TIM_PRESCALE_TICKVAL\000"
 7548      50524553 
 7548      43414C45 
 7548      5F544943 
 7548      4B56414C 
 7549              	.LASF708:
 7550 1dc2 436F7265 		.ascii	"CoreDebug_DEMCR_MON_REQ_Pos 19\000"
 7550      44656275 
 7550      675F4445 
 7550      4D43525F 
 7550      4D4F4E5F 
 7551              	.LASF695:
 7552 1de1 436F7265 		.ascii	"CoreDebug_DHCSR_C_MASKINTS_Msk (1UL << CoreDebug_DH"
 7552      44656275 
 7552      675F4448 
 7552      4353525F 
 7552      435F4D41 
 7553 1e14 4353525F 		.ascii	"CSR_C_MASKINTS_Pos)\000"
 7553      435F4D41 
 7553      534B494E 
 7553      54535F50 
 7553      6F732900 
 7554              	.LASF494:
 7555 1e28 5343425F 		.ascii	"SCB_ICSR_RETTOBASE_Pos 11\000"
 7555      49435352 
 7555      5F524554 
 7555      544F4241 
 7555      53455F50 
 7556              	.LASF1001:
 7557 1e42 434C4B50 		.ascii	"CLKPWR_PCONP_PCMC ((uint32_t)(1<<17))\000"
 7557      57525F50 
 7557      434F4E50 
 7557      5F50434D 
 7557      43202828 
 7558              	.LASF1038:
 7559 1e68 50494E53 		.ascii	"PINSEL_PIN_10 ((10))\000"
 7559      454C5F50 
 7559      494E5F31 
ARM GAS  C:\Users\COSMIN~1.MAR\AppData\Local\Temp\cccNbcra.s 			page 160


 7559      30202828 
 7559      31302929 
 7560              	.LASF839:
 7561 1e7d 4C50435F 		.ascii	"LPC_QEI ((LPC_QEI_TypeDef *) LPC_QEI_BASE )\000"
 7561      51454920 
 7561      28284C50 
 7561      435F5145 
 7561      495F5479 
 7562              	.LASF779:
 7563 1ea9 4C50435F 		.ascii	"LPC_TIM3_BASE (LPC_APB1_BASE + 0x14000)\000"
 7563      54494D33 
 7563      5F424153 
 7563      4520284C 
 7563      50435F41 
 7564              	.LASF638:
 7565 1ed1 496E7454 		.ascii	"IntType_ACTLR_DISMCYCINT_Pos 0\000"
 7565      7970655F 
 7565      4143544C 
 7565      525F4449 
 7565      534D4359 
 7566              	.LASF840:
 7567 1ef0 4C50435F 		.ascii	"LPC_EMAC ((LPC_EMAC_TypeDef *) LPC_EMAC_BASE )\000"
 7567      454D4143 
 7567      2028284C 
 7567      50435F45 
 7567      4D41435F 
 7568              	.LASF585:
 7569 1f1f 53797354 		.ascii	"SysTick_CTRL_COUNTFLAG_Msk (1UL << SysTick_CTRL_COU"
 7569      69636B5F 
 7569      4354524C 
 7569      5F434F55 
 7569      4E54464C 
 7570 1f52 4E54464C 		.ascii	"NTFLAG_Pos)\000"
 7570      41475F50 
 7570      6F732900 
 7571              	.LASF176:
 7572 1f5e 5F5F4445 		.ascii	"__DEC64_MAX__ 9.999999999999999E384DD\000"
 7572      4336345F 
 7572      4D41585F 
 7572      5F20392E 
 7572      39393939 
 7573              	.LASF370:
 7574 1f84 5F5F4E45 		.ascii	"__NEWLIB__ 2\000"
 7574      574C4942 
 7574      5F5F2032 
 7574      00
 7575              	.LASF519:
 7576 1f91 5343425F 		.ascii	"SCB_SCR_SLEEPDEEP_Msk (1UL << SCB_SCR_SLEEPDEEP_Pos"
 7576      5343525F 
 7576      534C4545 
 7576      50444545 
 7576      505F4D73 
 7577 1fc4 2900     		.ascii	")\000"
 7578              	.LASF126:
 7579 1fc6 5F5F464C 		.ascii	"__FLT_MIN_10_EXP__ (-37)\000"
 7579      545F4D49 
 7579      4E5F3130 
ARM GAS  C:\Users\COSMIN~1.MAR\AppData\Local\Temp\cccNbcra.s 			page 161


 7579      5F455850 
 7579      5F5F2028 
 7580              	.LASF575:
 7581 1fdf 5343425F 		.ascii	"SCB_DFSR_EXTERNAL_Msk (1UL << SCB_DFSR_EXTERNAL_Pos"
 7581      44465352 
 7581      5F455854 
 7581      45524E41 
 7581      4C5F4D73 
 7582 2012 2900     		.ascii	")\000"
 7583              	.LASF129:
 7584 2014 5F5F464C 		.ascii	"__FLT_DECIMAL_DIG__ 9\000"
 7584      545F4445 
 7584      43494D41 
 7584      4C5F4449 
 7584      475F5F20 
 7585              	.LASF705:
 7586 202a 436F7265 		.ascii	"CoreDebug_DCRSR_REGSEL_Msk (0x1FUL << CoreDebug_DCR"
 7586      44656275 
 7586      675F4443 
 7586      5253525F 
 7586      52454753 
 7587 205d 53525F52 		.ascii	"SR_REGSEL_Pos)\000"
 7587      45475345 
 7587      4C5F506F 
 7587      732900
 7588              	.LASF475:
 7589 206c 5343425F 		.ascii	"SCB_CPUID_PARTNO_Msk (0xFFFUL << SCB_CPUID_PARTNO_P"
 7589      43505549 
 7589      445F5041 
 7589      52544E4F 
 7589      5F4D736B 
 7590 209f 6F732900 		.ascii	"os)\000"
 7591              	.LASF1100:
 7592 20a3 7369676E 		.ascii	"signed char\000"
 7592      65642063 
 7592      68617200 
 7593              	.LASF1113:
 7594 20af 75696E74 		.ascii	"uint8_t\000"
 7594      385F7400 
 7595              	.LASF440:
 7596 20b7 494E544D 		.ascii	"INTMAX_MIN (-INTMAX_MAX - 1)\000"
 7596      41585F4D 
 7596      494E2028 
 7596      2D494E54 
 7596      4D41585F 
 7597              	.LASF754:
 7598 20d4 4C50435F 		.ascii	"LPC_APB1_BASE (0x40080000UL)\000"
 7598      41504231 
 7598      5F424153 
 7598      45202830 
 7598      78343030 
 7599              	.LASF196:
 7600 20f1 5F5F4652 		.ascii	"__FRACT_FBIT__ 15\000"
 7600      4143545F 
 7600      46424954 
 7600      5F5F2031 
 7600      3500
ARM GAS  C:\Users\COSMIN~1.MAR\AppData\Local\Temp\cccNbcra.s 			page 162


 7601              	.LASF136:
 7602 2103 5F5F464C 		.ascii	"__FLT_HAS_QUIET_NAN__ 1\000"
 7602      545F4841 
 7602      535F5155 
 7602      4945545F 
 7602      4E414E5F 
 7603              	.LASF821:
 7604 211b 4C50435F 		.ascii	"LPC_I2C0 ((LPC_I2C_TypeDef *) LPC_I2C0_BASE )\000"
 7604      49324330 
 7604      2028284C 
 7604      50435F49 
 7604      32435F54 
 7605              	.LASF313:
 7606 2149 5F5F4743 		.ascii	"__GCC_ATOMIC_CHAR32_T_LOCK_FREE 2\000"
 7606      435F4154 
 7606      4F4D4943 
 7606      5F434841 
 7606      5233325F 
 7607              	.LASF4:
 7608 216b 5F5F474E 		.ascii	"__GNUC_PATCHLEVEL__ 3\000"
 7608      55435F50 
 7608      41544348 
 7608      4C455645 
 7608      4C5F5F20 
 7609              	.LASF822:
 7610 2181 4C50435F 		.ascii	"LPC_I2C1 ((LPC_I2C_TypeDef *) LPC_I2C1_BASE )\000"
 7610      49324331 
 7610      2028284C 
 7610      50435F49 
 7610      32435F54 
 7611              	.LASF402:
 7612 21af 55494E54 		.ascii	"UINTPTR_MAX __UINTPTR_MAX__\000"
 7612      5054525F 
 7612      4D415820 
 7612      5F5F5549 
 7612      4E545054 
 7613              	.LASF1046:
 7614 21cb 50494E53 		.ascii	"PINSEL_PIN_18 ((18))\000"
 7614      454C5F50 
 7614      494E5F31 
 7614      38202828 
 7614      31382929 
 7615              	.LASF367:
 7616 21e0 5F535444 		.ascii	"_STDINT_H \000"
 7616      494E545F 
 7616      482000
 7617              	.LASF497:
 7618 21eb 5343425F 		.ascii	"SCB_ICSR_VECTACTIVE_Msk (0x1FFUL << SCB_ICSR_VECTAC"
 7618      49435352 
 7618      5F564543 
 7618      54414354 
 7618      4956455F 
 7619 221e 54495645 		.ascii	"TIVE_Pos)\000"
 7619      5F506F73 
 7619      2900
 7620              	.LASF229:
 7621 2228 5F5F5341 		.ascii	"__SACCUM_MAX__ 0X7FFFP-7HK\000"
ARM GAS  C:\Users\COSMIN~1.MAR\AppData\Local\Temp\cccNbcra.s 			page 163


 7621      4343554D 
 7621      5F4D4158 
 7621      5F5F2030 
 7621      58374646 
 7622              	.LASF430:
 7623 2243 494E545F 		.ascii	"INT_FAST16_MIN (-__INT_FAST16_MAX__ - 1)\000"
 7623      46415354 
 7623      31365F4D 
 7623      494E2028 
 7623      2D5F5F49 
 7624              	.LASF889:
 7625 226c 54494D5F 		.ascii	"TIM_EMR_MASKBIT 0x0FFF\000"
 7625      454D525F 
 7625      4D41534B 
 7625      42495420 
 7625      30783046 
 7626              	.LASF578:
 7627 2283 5343425F 		.ascii	"SCB_DFSR_DWTTRAP_Pos 2\000"
 7627      44465352 
 7627      5F445754 
 7627      54524150 
 7627      5F506F73 
 7628              	.LASF385:
 7629 229a 5F5F5354 		.ascii	"__STDINT_EXP(x) __ ##x ##__\000"
 7629      44494E54 
 7629      5F455850 
 7629      28782920 
 7629      5F5F2023 
 7630              	.LASF1118:
 7631 22b6 52455345 		.ascii	"RESERVED0\000"
 7631      52564544 
 7631      3000
 7632              	.LASF1119:
 7633 22c0 52455345 		.ascii	"RESERVED1\000"
 7633      52564544 
 7633      3100
 7634              	.LASF1101:
 7635 22ca 756E7369 		.ascii	"unsigned char\000"
 7635      676E6564 
 7635      20636861 
 7635      7200
 7636              	.LASF227:
 7637 22d8 5F5F5341 		.ascii	"__SACCUM_IBIT__ 8\000"
 7637      4343554D 
 7637      5F494249 
 7637      545F5F20 
 7637      3800
 7638              	.LASF719:
 7639 22ea 436F7265 		.ascii	"CoreDebug_DEMCR_VC_INTERR_Msk (1UL << CoreDebug_DEM"
 7639      44656275 
 7639      675F4445 
 7639      4D43525F 
 7639      56435F49 
 7640 231d 43525F56 		.ascii	"CR_VC_INTERR_Pos)\000"
 7640      435F494E 
 7640      54455252 
 7640      5F506F73 
ARM GAS  C:\Users\COSMIN~1.MAR\AppData\Local\Temp\cccNbcra.s 			page 164


 7640      2900
 7641              	.LASF128:
 7642 232f 5F5F464C 		.ascii	"__FLT_MAX_10_EXP__ 38\000"
 7642      545F4D41 
 7642      585F3130 
 7642      5F455850 
 7642      5F5F2033 
 7643              	.LASF905:
 7644 2345 434C4B50 		.ascii	"CLKPWR_CLKSRCSEL_BITMASK ((uint32_t)(0x03))\000"
 7644      57525F43 
 7644      4C4B5352 
 7644      4353454C 
 7644      5F424954 
 7645              	.LASF181:
 7646 2371 5F5F4445 		.ascii	"__DEC128_MAX_EXP__ 6145\000"
 7646      43313238 
 7646      5F4D4158 
 7646      5F455850 
 7646      5F5F2036 
 7647              	.LASF887:
 7648 2389 54494D5F 		.ascii	"TIM_EM_SET(n,s) (_SBF(((n << 1) + 4), (s & 0x03)))\000"
 7648      454D5F53 
 7648      4554286E 
 7648      2C732920 
 7648      285F5342 
 7649              	.LASF419:
 7650 23bc 494E545F 		.ascii	"INT_LEAST32_MAX __INT_LEAST32_MAX__\000"
 7650      4C454153 
 7650      5433325F 
 7650      4D415820 
 7650      5F5F494E 
 7651              	.LASF87:
 7652 23e0 5F5F494E 		.ascii	"__INT64_MAX__ 9223372036854775807LL\000"
 7652      5436345F 
 7652      4D41585F 
 7652      5F203932 
 7652      32333337 
 7653              	.LASF945:
 7654 2404 434C4B50 		.ascii	"CLKPWR_PCLKSEL_BITMASK(p) _SBF(p,0x03)\000"
 7654      57525F50 
 7654      434C4B53 
 7654      454C5F42 
 7654      49544D41 
 7655              	.LASF1138:
 7656 242b 54494D5F 		.ascii	"TIM_COUNTER_FALLING_MODE\000"
 7656      434F554E 
 7656      5445525F 
 7656      46414C4C 
 7656      494E475F 
 7657              	.LASF7:
 7658 2444 5F5F4154 		.ascii	"__ATOMIC_SEQ_CST 5\000"
 7658      4F4D4943 
 7658      5F534551 
 7658      5F435354 
 7658      203500
 7659              	.LASF521:
 7660 2457 5343425F 		.ascii	"SCB_SCR_SLEEPONEXIT_Msk (1UL << SCB_SCR_SLEEPONEXIT"
ARM GAS  C:\Users\COSMIN~1.MAR\AppData\Local\Temp\cccNbcra.s 			page 165


 7660      5343525F 
 7660      534C4545 
 7660      504F4E45 
 7660      5849545F 
 7661 248a 5F506F73 		.ascii	"_Pos)\000"
 7661      2900
 7662              	.LASF845:
 7663 2490 4C50435F 		.ascii	"LPC_GPDMACH2 ((LPC_GPDMACH_TypeDef *) LPC_GPDMACH2_"
 7663      4750444D 
 7663      41434832 
 7663      2028284C 
 7663      50435F47 
 7664 24c3 42415345 		.ascii	"BASE )\000"
 7664      202900
 7665              	.LASF983:
 7666 24ca 434C4B50 		.ascii	"CLKPWR_PCLKSEL_MC ((uint32_t)(62))\000"
 7666      57525F50 
 7666      434C4B53 
 7666      454C5F4D 
 7666      43202828 
 7667              	.LASF668:
 7668 24ed 4D50555F 		.ascii	"MPU_RASR_C_Pos 17\000"
 7668      52415352 
 7668      5F435F50 
 7668      6F732031 
 7668      3700
 7669              	.LASF363:
 7670 24ff 5F5F434D 		.ascii	"__CM3_CMSIS_VERSION ((__CM3_CMSIS_VERSION_MAIN << 1"
 7670      335F434D 
 7670      5349535F 
 7670      56455253 
 7670      494F4E20 
 7671 2532 3629207C 		.ascii	"6) | __CM3_CMSIS_VERSION_SUB)\000"
 7671      205F5F43 
 7671      4D335F43 
 7671      4D534953 
 7671      5F564552 
 7672              	.LASF1057:
 7673 2550 50494E53 		.ascii	"PINSEL_PIN_29 ((29))\000"
 7673      454C5F50 
 7673      494E5F32 
 7673      39202828 
 7673      32392929 
 7674              	.LASF644:
 7675 2565 4D50555F 		.ascii	"MPU_TYPE_SEPARATE_Pos 0\000"
 7675      54595045 
 7675      5F534550 
 7675      41524154 
 7675      455F506F 
 7676              	.LASF739:
 7677 257d 53434220 		.ascii	"SCB ((SCB_Type *) SCB_BASE)\000"
 7677      28285343 
 7677      425F5479 
 7677      7065202A 
 7677      29205343 
 7678              	.LASF141:
 7679 2599 5F5F4442 		.ascii	"__DBL_MAX_EXP__ 1024\000"
ARM GAS  C:\Users\COSMIN~1.MAR\AppData\Local\Temp\cccNbcra.s 			page 166


 7679      4C5F4D41 
 7679      585F4558 
 7679      505F5F20 
 7679      31303234 
 7680              	.LASF112:
 7681 25ae 5F5F5549 		.ascii	"__UINT_FAST8_MAX__ 4294967295U\000"
 7681      4E545F46 
 7681      41535438 
 7681      5F4D4158 
 7681      5F5F2034 
 7682              	.LASF274:
 7683 25cd 5F5F5451 		.ascii	"__TQ_FBIT__ 127\000"
 7683      5F464249 
 7683      545F5F20 
 7683      31323700 
 7684              	.LASF1007:
 7685 25dd 434C4B50 		.ascii	"CLKPWR_PCONP_PCUART2 ((uint32_t)(1<<24))\000"
 7685      57525F50 
 7685      434F4E50 
 7685      5F504355 
 7685      41525432 
 7686              	.LASF155:
 7687 2606 5F5F4C44 		.ascii	"__LDBL_MAX_EXP__ 1024\000"
 7687      424C5F4D 
 7687      41585F45 
 7687      58505F5F 
 7687      20313032 
 7688              	.LASF819:
 7689 261c 4C50435F 		.ascii	"LPC_UART3 ((LPC_UART_TypeDef *) LPC_UART3_BASE )\000"
 7689      55415254 
 7689      33202828 
 7689      4C50435F 
 7689      55415254 
 7690              	.LASF399:
 7691 264d 5F5F696E 		.ascii	"__int_fast64_t_defined 1\000"
 7691      745F6661 
 7691      73743634 
 7691      5F745F64 
 7691      6566696E 
 7692              	.LASF354:
 7693 2666 5F5F5553 		.ascii	"__USES_INITFINI__ 1\000"
 7693      45535F49 
 7693      4E495446 
 7693      494E495F 
 7693      5F203100 
 7694              	.LASF558:
 7695 267a 5343425F 		.ascii	"SCB_SHCSR_BUSFAULTACT_Pos 1\000"
 7695      53484353 
 7695      525F4255 
 7695      53464155 
 7695      4C544143 
 7696              	.LASF16:
 7697 2696 5F5F5349 		.ascii	"__SIZEOF_SHORT__ 2\000"
 7697      5A454F46 
 7697      5F53484F 
 7697      52545F5F 
 7697      203200
ARM GAS  C:\Users\COSMIN~1.MAR\AppData\Local\Temp\cccNbcra.s 			page 167


 7698              	.LASF261:
 7699 26a9 5F5F554C 		.ascii	"__ULLACCUM_FBIT__ 32\000"
 7699      4C414343 
 7699      554D5F46 
 7699      4249545F 
 7699      5F203332 
 7700              	.LASF551:
 7701 26be 5343425F 		.ascii	"SCB_SHCSR_PENDSVACT_Msk (1UL << SCB_SHCSR_PENDSVACT"
 7701      53484353 
 7701      525F5045 
 7701      4E445356 
 7701      4143545F 
 7702 26f1 5F506F73 		.ascii	"_Pos)\000"
 7702      2900
 7703              	.LASF794:
 7704 26f7 4C50435F 		.ascii	"LPC_GPDMACH4_BASE (LPC_AHB_BASE + 0x04180)\000"
 7704      4750444D 
 7704      41434834 
 7704      5F424153 
 7704      4520284C 
 7705              	.LASF360:
 7706 2722 5F5F434F 		.ascii	"__CORE_CM3_H_GENERIC \000"
 7706      52455F43 
 7706      4D335F48 
 7706      5F47454E 
 7706      45524943 
 7707              	.LASF727:
 7708 2738 436F7265 		.ascii	"CoreDebug_DEMCR_VC_NOCPERR_Msk (1UL << CoreDebug_DE"
 7708      44656275 
 7708      675F4445 
 7708      4D43525F 
 7708      56435F4E 
 7709 276b 4D43525F 		.ascii	"MCR_VC_NOCPERR_Pos)\000"
 7709      56435F4E 
 7709      4F435045 
 7709      52525F50 
 7709      6F732900 
 7710              	.LASF765:
 7711 277f 4C50435F 		.ascii	"LPC_RTC_BASE (LPC_APB0_BASE + 0x24000)\000"
 7711      5254435F 
 7711      42415345 
 7711      20284C50 
 7711      435F4150 
 7712              	.LASF722:
 7713 27a6 436F7265 		.ascii	"CoreDebug_DEMCR_VC_STATERR_Pos 7\000"
 7713      44656275 
 7713      675F4445 
 7713      4D43525F 
 7713      56435F53 
 7714              	.LASF685:
 7715 27c7 436F7265 		.ascii	"CoreDebug_DHCSR_S_LOCKUP_Msk (1UL << CoreDebug_DHCS"
 7715      44656275 
 7715      675F4448 
 7715      4353525F 
 7715      535F4C4F 
 7716 27fa 525F535F 		.ascii	"R_S_LOCKUP_Pos)\000"
 7716      4C4F434B 
ARM GAS  C:\Users\COSMIN~1.MAR\AppData\Local\Temp\cccNbcra.s 			page 168


 7716      55505F50 
 7716      6F732900 
 7717              	.LASF369:
 7718 280a 5F535953 		.ascii	"_SYS_FEATURES_H \000"
 7718      5F464541 
 7718      54555245 
 7718      535F4820 
 7718      00
 7719              	.LASF694:
 7720 281b 436F7265 		.ascii	"CoreDebug_DHCSR_C_MASKINTS_Pos 3\000"
 7720      44656275 
 7720      675F4448 
 7720      4353525F 
 7720      435F4D41 
 7721              	.LASF863:
 7722 283c 53544154 		.ascii	"STATIC static\000"
 7722      49432073 
 7722      74617469 
 7722      6300
 7723              	.LASF547:
 7724 284a 5343425F 		.ascii	"SCB_SHCSR_USGFAULTPENDED_Msk (1UL << SCB_SHCSR_USGF"
 7724      53484353 
 7724      525F5553 
 7724      47464155 
 7724      4C545045 
 7725 287d 41554C54 		.ascii	"AULTPENDED_Pos)\000"
 7725      50454E44 
 7725      45445F50 
 7725      6F732900 
 7726              	.LASF487:
 7727 288d 5343425F 		.ascii	"SCB_ICSR_PENDSTCLR_Msk (1UL << SCB_ICSR_PENDSTCLR_P"
 7727      49435352 
 7727      5F50454E 
 7727      44535443 
 7727      4C525F4D 
 7728 28c0 6F732900 		.ascii	"os)\000"
 7729              	.LASF549:
 7730 28c4 5343425F 		.ascii	"SCB_SHCSR_SYSTICKACT_Msk (1UL << SCB_SHCSR_SYSTICKA"
 7730      53484353 
 7730      525F5359 
 7730      53544943 
 7730      4B414354 
 7731 28f7 43545F50 		.ascii	"CT_Pos)\000"
 7731      6F732900 
 7732              	.LASF801:
 7733 28ff 4C50435F 		.ascii	"LPC_GPIO2_BASE (LPC_GPIO_BASE + 0x00040)\000"
 7733      4750494F 
 7733      325F4241 
 7733      53452028 
 7733      4C50435F 
 7734              	.LASF509:
 7735 2928 5343425F 		.ascii	"SCB_AIRCR_PRIGROUP_Msk (7UL << SCB_AIRCR_PRIGROUP_P"
 7735      41495243 
 7735      525F5052 
 7735      4947524F 
 7735      55505F4D 
 7736 295b 6F732900 		.ascii	"os)\000"
ARM GAS  C:\Users\COSMIN~1.MAR\AppData\Local\Temp\cccNbcra.s 			page 169


 7737              	.LASF19:
 7738 295f 5F5F5349 		.ascii	"__SIZEOF_LONG_DOUBLE__ 8\000"
 7738      5A454F46 
 7738      5F4C4F4E 
 7738      475F444F 
 7738      55424C45 
 7739              	.LASF809:
 7740 2978 4C50435F 		.ascii	"LPC_GPIO4 ((LPC_GPIO_TypeDef *) LPC_GPIO4_BASE )\000"
 7740      4750494F 
 7740      34202828 
 7740      4C50435F 
 7740      4750494F 
 7741              	.LASF322:
 7742 29a9 5F5F5052 		.ascii	"__PRAGMA_REDEFINE_EXTNAME 1\000"
 7742      41474D41 
 7742      5F524544 
 7742      4546494E 
 7742      455F4558 
 7743              	.LASF31:
 7744 29c5 5F5F5743 		.ascii	"__WCHAR_TYPE__ unsigned int\000"
 7744      4841525F 
 7744      54595045 
 7744      5F5F2075 
 7744      6E736967 
 7745              	.LASF449:
 7746 29e1 57494E54 		.ascii	"WINT_MAX __WINT_MAX__\000"
 7746      5F4D4158 
 7746      205F5F57 
 7746      494E545F 
 7746      4D41585F 
 7747              	.LASF1129:
 7748 29f7 63686172 		.ascii	"char\000"
 7748      00
 7749              	.LASF297:
 7750 29fc 5F5F5553 		.ascii	"__USA_IBIT__ 16\000"
 7750      415F4942 
 7750      49545F5F 
 7750      20313600 
 7751              	.LASF308:
 7752 2a0c 5F5F4743 		.ascii	"__GCC_HAVE_SYNC_COMPARE_AND_SWAP_2 1\000"
 7752      435F4841 
 7752      56455F53 
 7752      594E435F 
 7752      434F4D50 
 7753              	.LASF459:
 7754 2a31 494E544D 		.ascii	"INTMAX_C(x) __INTMAX_C(x)\000"
 7754      41585F43 
 7754      28782920 
 7754      5F5F494E 
 7754      544D4158 
 7755              	.LASF446:
 7756 2a4b 50545244 		.ascii	"PTRDIFF_MIN (-PTRDIFF_MAX - 1)\000"
 7756      4946465F 
 7756      4D494E20 
 7756      282D5054 
 7756      52444946 
 7757              	.LASF358:
ARM GAS  C:\Users\COSMIN~1.MAR\AppData\Local\Temp\cccNbcra.s 			page 170


 7758 2a6a 5F5F4E56 		.ascii	"__NVIC_PRIO_BITS 5\000"
 7758      49435F50 
 7758      52494F5F 
 7758      42495453 
 7758      203500
 7759              	.LASF868:
 7760 2a7d 54494D5F 		.ascii	"TIM_ENABLE ((uint32_t)(1<<0))\000"
 7760      454E4142 
 7760      4C452028 
 7760      2875696E 
 7760      7433325F 
 7761              	.LASF66:
 7762 2a9b 5F5F4758 		.ascii	"__GXX_ABI_VERSION 1002\000"
 7762      585F4142 
 7762      495F5645 
 7762      5253494F 
 7762      4E203130 
 7763              	.LASF61:
 7764 2ab2 5F5F5549 		.ascii	"__UINT_FAST64_TYPE__ long long unsigned int\000"
 7764      4E545F46 
 7764      41535436 
 7764      345F5459 
 7764      50455F5F 
 7765              	.LASF827:
 7766 2ade 4C50435F 		.ascii	"LPC_GPIOINT ((LPC_GPIOINT_TypeDef *) LPC_GPIOINT_BA"
 7766      4750494F 
 7766      494E5420 
 7766      28284C50 
 7766      435F4750 
 7767 2b11 53452029 		.ascii	"SE )\000"
 7767      00
 7768              	.LASF826:
 7769 2b16 4C50435F 		.ascii	"LPC_RTC ((LPC_RTC_TypeDef *) LPC_RTC_BASE )\000"
 7769      52544320 
 7769      28284C50 
 7769      435F5254 
 7769      435F5479 
 7770              	.LASF131:
 7771 2b42 5F5F464C 		.ascii	"__FLT_MIN__ 1.1754943508222875e-38F\000"
 7771      545F4D49 
 7771      4E5F5F20 
 7771      312E3137 
 7771      35343934 
 7772              	.LASF286:
 7773 2b66 5F5F4841 		.ascii	"__HA_FBIT__ 7\000"
 7773      5F464249 
 7773      545F5F20 
 7773      3700
 7774              	.LASF918:
 7775 2b74 434C4B50 		.ascii	"CLKPWR_PLL0CFG_MSEL(n) ((uint32_t)(n&0x7FFF))\000"
 7775      57525F50 
 7775      4C4C3043 
 7775      46475F4D 
 7775      53454C28 
 7776              	.LASF620:
 7777 2ba2 49544D5F 		.ascii	"ITM_IWR_ATVALIDM_Pos 0\000"
 7777      4957525F 
ARM GAS  C:\Users\COSMIN~1.MAR\AppData\Local\Temp\cccNbcra.s 			page 171


 7777      41545641 
 7777      4C49444D 
 7777      5F506F73 
 7778              	.LASF1186:
 7779 2bb9 54494D5F 		.ascii	"TIM_Init\000"
 7779      496E6974 
 7779      00
 7780              	.LASF318:
 7781 2bc2 5F5F4743 		.ascii	"__GCC_ATOMIC_LLONG_LOCK_FREE 1\000"
 7781      435F4154 
 7781      4F4D4943 
 7781      5F4C4C4F 
 7781      4E475F4C 
 7782              	.LASF828:
 7783 2be1 4C50435F 		.ascii	"LPC_PINCON ((LPC_PINCON_TypeDef *) LPC_PINCON_BASE "
 7783      50494E43 
 7783      4F4E2028 
 7783      284C5043 
 7783      5F50494E 
 7784 2c14 2900     		.ascii	")\000"
 7785              	.LASF994:
 7786 2c16 434C4B50 		.ascii	"CLKPWR_PCONP_PCRTC ((uint32_t)(1<<9))\000"
 7786      57525F50 
 7786      434F4E50 
 7786      5F504352 
 7786      54432028 
 7787              	.LASF1153:
 7788 2c3c 436F756E 		.ascii	"CountInputSelect\000"
 7788      74496E70 
 7788      75745365 
 7788      6C656374 
 7788      00
 7789              	.LASF166:
 7790 2c4d 5F5F4445 		.ascii	"__DEC32_MIN_EXP__ (-94)\000"
 7790      4333325F 
 7790      4D494E5F 
 7790      4558505F 
 7790      5F20282D 
 7791              	.LASF192:
 7792 2c65 5F5F5553 		.ascii	"__USFRACT_IBIT__ 0\000"
 7792      46524143 
 7792      545F4942 
 7792      49545F5F 
 7792      203000
 7793              	.LASF1146:
 7794 2c78 54494D5F 		.ascii	"TIM_EXTMATCH_HIGH\000"
 7794      4558544D 
 7794      41544348 
 7794      5F484947 
 7794      4800
 7795              	.LASF193:
 7796 2c8a 5F5F5553 		.ascii	"__USFRACT_MIN__ 0.0UHR\000"
 7796      46524143 
 7796      545F4D49 
 7796      4E5F5F20 
 7796      302E3055 
 7797              	.LASF649:
ARM GAS  C:\Users\COSMIN~1.MAR\AppData\Local\Temp\cccNbcra.s 			page 172


 7798 2ca1 4D50555F 		.ascii	"MPU_CTRL_HFNMIENA_Msk (1UL << MPU_CTRL_HFNMIENA_Pos"
 7798      4354524C 
 7798      5F48464E 
 7798      4D49454E 
 7798      415F4D73 
 7799 2cd4 2900     		.ascii	")\000"
 7800              	.LASF1169:
 7801 2cd6 74696D65 		.ascii	"timernum\000"
 7801      726E756D 
 7801      00
 7802              	.LASF1179:
 7803 2cdf 54494D5F 		.ascii	"TIM_ClearIntPending\000"
 7803      436C6561 
 7803      72496E74 
 7803      50656E64 
 7803      696E6700 
 7804              	.LASF376:
 7805 2cf3 5F5F5F69 		.ascii	"___int16_t_defined 1\000"
 7805      6E743136 
 7805      5F745F64 
 7805      6566696E 
 7805      65642031 
 7806              	.LASF1010:
 7807 2d08 434C4B50 		.ascii	"CLKPWR_PCONP_PCI2S ((uint32_t)(1<<27))\000"
 7807      57525F50 
 7807      434F4E50 
 7807      5F504349 
 7807      32532028 
 7808              	.LASF1187:
 7809 2d2f 74696D65 		.ascii	"timer\000"
 7809      7200
 7810              	.LASF1184:
 7811 2d35 7054696D 		.ascii	"pTimeCfg\000"
 7811      65436667 
 7811      00
 7812              	.LASF997:
 7813 2d3e 434C4B50 		.ascii	"CLKPWR_PCONP_PCAN1 ((uint32_t)(1<<13))\000"
 7813      57525F50 
 7813      434F4E50 
 7813      5F504341 
 7813      4E312028 
 7814              	.LASF520:
 7815 2d65 5343425F 		.ascii	"SCB_SCR_SLEEPONEXIT_Pos 1\000"
 7815      5343525F 
 7815      534C4545 
 7815      504F4E45 
 7815      5849545F 
 7816              	.LASF51:
 7817 2d7f 5F5F5549 		.ascii	"__UINT_LEAST16_TYPE__ short unsigned int\000"
 7817      4E545F4C 
 7817      45415354 
 7817      31365F54 
 7817      5950455F 
 7818              	.LASF388:
 7819 2da8 5F5F696E 		.ascii	"__int8_t_defined 1\000"
 7819      74385F74 
 7819      5F646566 
ARM GAS  C:\Users\COSMIN~1.MAR\AppData\Local\Temp\cccNbcra.s 			page 173


 7819      696E6564 
 7819      203100
 7820              	.LASF148:
 7821 2dbb 5F5F4442 		.ascii	"__DBL_HAS_DENORM__ 1\000"
 7821      4C5F4841 
 7821      535F4445 
 7821      4E4F524D 
 7821      5F5F2031 
 7822              	.LASF496:
 7823 2dd0 5343425F 		.ascii	"SCB_ICSR_VECTACTIVE_Pos 0\000"
 7823      49435352 
 7823      5F564543 
 7823      54414354 
 7823      4956455F 
 7824              	.LASF697:
 7825 2dea 436F7265 		.ascii	"CoreDebug_DHCSR_C_STEP_Msk (1UL << CoreDebug_DHCSR_"
 7825      44656275 
 7825      675F4448 
 7825      4353525F 
 7825      435F5354 
 7826 2e1d 435F5354 		.ascii	"C_STEP_Pos)\000"
 7826      45505F50 
 7826      6F732900 
 7827              	.LASF590:
 7828 2e29 53797354 		.ascii	"SysTick_CTRL_ENABLE_Pos 0\000"
 7828      69636B5F 
 7828      4354524C 
 7828      5F454E41 
 7828      424C455F 
 7829              	.LASF616:
 7830 2e43 49544D5F 		.ascii	"ITM_TCR_TSENA_Pos 1\000"
 7830      5443525F 
 7830      5453454E 
 7830      415F506F 
 7830      73203100 
 7831              	.LASF792:
 7832 2e57 4C50435F 		.ascii	"LPC_GPDMACH2_BASE (LPC_AHB_BASE + 0x04140)\000"
 7832      4750444D 
 7832      41434832 
 7832      5F424153 
 7832      4520284C 
 7833              	.LASF869:
 7834 2e82 54494D5F 		.ascii	"TIM_RESET ((uint32_t)(1<<1))\000"
 7834      52455345 
 7834      54202828 
 7834      75696E74 
 7834      33325F74 
 7835              	.LASF534:
 7836 2e9f 5343425F 		.ascii	"SCB_SHCSR_USGFAULTENA_Pos 18\000"
 7836      53484353 
 7836      525F5553 
 7836      47464155 
 7836      4C54454E 
 7837              	.LASF290:
 7838 2ebc 5F5F4441 		.ascii	"__DA_FBIT__ 31\000"
 7838      5F464249 
 7838      545F5F20 
ARM GAS  C:\Users\COSMIN~1.MAR\AppData\Local\Temp\cccNbcra.s 			page 174


 7838      333100
 7839              	.LASF858:
 7840 2ecb 5F534246 		.ascii	"_SBF(f,v) (v<<f)\000"
 7840      28662C76 
 7840      29202876 
 7840      3C3C6629 
 7840      00
 7841              	.LASF1080:
 7842 2edc 5F493243 		.ascii	"_I2C0 1\000"
 7842      30203100 
 7843              	.LASF518:
 7844 2ee4 5343425F 		.ascii	"SCB_SCR_SLEEPDEEP_Pos 2\000"
 7844      5343525F 
 7844      534C4545 
 7844      50444545 
 7844      505F506F 
 7845              	.LASF818:
 7846 2efc 4C50435F 		.ascii	"LPC_UART2 ((LPC_UART_TypeDef *) LPC_UART2_BASE )\000"
 7846      55415254 
 7846      32202828 
 7846      4C50435F 
 7846      55415254 
 7847              	.LASF483:
 7848 2f2d 5343425F 		.ascii	"SCB_ICSR_PENDSVCLR_Msk (1UL << SCB_ICSR_PENDSVCLR_P"
 7848      49435352 
 7848      5F50454E 
 7848      44535643 
 7848      4C525F4D 
 7849 2f60 6F732900 		.ascii	"os)\000"
 7850              	.LASF133:
 7851 2f64 5F5F464C 		.ascii	"__FLT_DENORM_MIN__ 1.4012984643248171e-45F\000"
 7851      545F4445 
 7851      4E4F524D 
 7851      5F4D494E 
 7851      5F5F2031 
 7852              	.LASF1004:
 7853 2f8f 434C4B50 		.ascii	"CLKPWR_PCONP_PCSSP0 ((uint32_t)(1<<21))\000"
 7853      57525F50 
 7853      434F4E50 
 7853      5F504353 
 7853      53503020 
 7854              	.LASF1095:
 7855 2fb7 5F4D4350 		.ascii	"_MCPWM 1\000"
 7855      574D2031 
 7855      00
 7856              	.LASF94:
 7857 2fc0 5F5F494E 		.ascii	"__INT_LEAST16_MAX__ 32767\000"
 7857      545F4C45 
 7857      41535431 
 7857      365F4D41 
 7857      585F5F20 
 7858              	.LASF265:
 7859 2fda 5F5F554C 		.ascii	"__ULLACCUM_EPSILON__ 0x1P-32ULLK\000"
 7859      4C414343 
 7859      554D5F45 
 7859      5053494C 
 7859      4F4E5F5F 
ARM GAS  C:\Users\COSMIN~1.MAR\AppData\Local\Temp\cccNbcra.s 			page 175


 7860              	.LASF813:
 7861 2ffb 4C50435F 		.ascii	"LPC_TIM2 ((LPC_TIM_TypeDef *) LPC_TIM2_BASE )\000"
 7861      54494D32 
 7861      2028284C 
 7861      50435F54 
 7861      494D5F54 
 7862              	.LASF536:
 7863 3029 5343425F 		.ascii	"SCB_SHCSR_BUSFAULTENA_Pos 17\000"
 7863      53484353 
 7863      525F4255 
 7863      53464155 
 7863      4C54454E 
 7864              	.LASF407:
 7865 3046 494E545F 		.ascii	"INT_LEAST8_MAX __INT_LEAST8_MAX__\000"
 7865      4C454153 
 7865      54385F4D 
 7865      4158205F 
 7865      5F494E54 
 7866              	.LASF635:
 7867 3068 496E7454 		.ascii	"IntType_ACTLR_DISFOLD_Msk (1UL << IntType_ACTLR_DIS"
 7867      7970655F 
 7867      4143544C 
 7867      525F4449 
 7867      53464F4C 
 7868 309b 464F4C44 		.ascii	"FOLD_Pos)\000"
 7868      5F506F73 
 7868      2900
 7869              	.LASF65:
 7870 30a5 5F5F6861 		.ascii	"__has_include_next(STR) __has_include_next__(STR)\000"
 7870      735F696E 
 7870      636C7564 
 7870      655F6E65 
 7870      78742853 
 7871              	.LASF718:
 7872 30d7 436F7265 		.ascii	"CoreDebug_DEMCR_VC_INTERR_Pos 9\000"
 7872      44656275 
 7872      675F4445 
 7872      4D43525F 
 7872      56435F49 
 7873              	.LASF105:
 7874 30f7 5F5F5549 		.ascii	"__UINT32_C(c) c ## UL\000"
 7874      4E543332 
 7874      5F432863 
 7874      29206320 
 7874      23232055 
 7875              	.LASF474:
 7876 310d 5343425F 		.ascii	"SCB_CPUID_PARTNO_Pos 4\000"
 7876      43505549 
 7876      445F5041 
 7876      52544E4F 
 7876      5F506F73 
 7877              	.LASF479:
 7878 3124 5343425F 		.ascii	"SCB_ICSR_NMIPENDSET_Msk (1UL << SCB_ICSR_NMIPENDSET"
 7878      49435352 
 7878      5F4E4D49 
 7878      50454E44 
 7878      5345545F 
ARM GAS  C:\Users\COSMIN~1.MAR\AppData\Local\Temp\cccNbcra.s 			page 176


 7879 3157 5F506F73 		.ascii	"_Pos)\000"
 7879      2900
 7880              	.LASF857:
 7881 315d 5F534246 		.ascii	"_SBF\000"
 7881      00
 7882              	.LASF1133:
 7883 3162 54494D5F 		.ascii	"TIM_MR3_INT\000"
 7883      4D52335F 
 7883      494E5400 
 7884              	.LASF930:
 7885 316e 434C4B50 		.ascii	"CLKPWR_PLL1CFG_MSEL(n) ((uint32_t)(n&0x1F))\000"
 7885      57525F50 
 7885      4C4C3143 
 7885      46475F4D 
 7885      53454C28 
 7886              	.LASF132:
 7887 319a 5F5F464C 		.ascii	"__FLT_EPSILON__ 1.1920928955078125e-7F\000"
 7887      545F4550 
 7887      53494C4F 
 7887      4E5F5F20 
 7887      312E3139 
 7888              	.LASF703:
 7889 31c1 436F7265 		.ascii	"CoreDebug_DCRSR_REGWnR_Msk (1UL << CoreDebug_DCRSR_"
 7889      44656275 
 7889      675F4443 
 7889      5253525F 
 7889      52454757 
 7890 31f4 52454757 		.ascii	"REGWnR_Pos)\000"
 7890      6E525F50 
 7890      6F732900 
 7891              	.LASF680:
 7892 3200 436F7265 		.ascii	"CoreDebug_DHCSR_S_RESET_ST_Pos 25\000"
 7892      44656275 
 7892      675F4448 
 7892      4353525F 
 7892      535F5245 
 7893              	.LASF974:
 7894 3222 434C4B50 		.ascii	"CLKPWR_PCLKSEL_SSP0 ((uint32_t)(42))\000"
 7894      57525F50 
 7894      434C4B53 
 7894      454C5F53 
 7894      53503020 
 7895              	.LASF556:
 7896 3247 5343425F 		.ascii	"SCB_SHCSR_USGFAULTACT_Pos 3\000"
 7896      53484353 
 7896      525F5553 
 7896      47464155 
 7896      4C544143 
 7897              	.LASF605:
 7898 3263 49544D5F 		.ascii	"ITM_TCR_BUSY_Msk (1UL << ITM_TCR_BUSY_Pos)\000"
 7898      5443525F 
 7898      42555359 
 7898      5F4D736B 
 7898      20283155 
 7899              	.LASF854:
 7900 328e 50415241 		.ascii	"PARAM_FUNCTIONALSTATE(State) ((State==DISABLE) || ("
 7900      4D5F4655 
ARM GAS  C:\Users\COSMIN~1.MAR\AppData\Local\Temp\cccNbcra.s 			page 177


 7900      4E435449 
 7900      4F4E414C 
 7900      53544154 
 7901 32c1 53746174 		.ascii	"State==ENABLE))\000"
 7901      653D3D45 
 7901      4E41424C 
 7901      45292900 
 7902              	.LASF527:
 7903 32d1 5343425F 		.ascii	"SCB_CCR_DIV_0_TRP_Msk (1UL << SCB_CCR_DIV_0_TRP_Pos"
 7903      4343525F 
 7903      4449565F 
 7903      305F5452 
 7903      505F4D73 
 7904 3304 2900     		.ascii	")\000"
 7905              	.LASF934:
 7906 3306 434C4B50 		.ascii	"CLKPWR_PLL1STAT_PSEL(n) ((uint32_t)((n>>5)&0x03))\000"
 7906      57525F50 
 7906      4C4C3153 
 7906      5441545F 
 7906      5053454C 
 7907              	.LASF584:
 7908 3338 53797354 		.ascii	"SysTick_CTRL_COUNTFLAG_Pos 16\000"
 7908      69636B5F 
 7908      4354524C 
 7908      5F434F55 
 7908      4E54464C 
 7909              	.LASF391:
 7910 3356 5F5F696E 		.ascii	"__int_least16_t_defined 1\000"
 7910      745F6C65 
 7910      61737431 
 7910      365F745F 
 7910      64656669 
 7911              	.LASF245:
 7912 3370 5F5F5541 		.ascii	"__UACCUM_EPSILON__ 0x1P-16UK\000"
 7912      4343554D 
 7912      5F455053 
 7912      494C4F4E 
 7912      5F5F2030 
 7913              	.LASF701:
 7914 338d 436F7265 		.ascii	"CoreDebug_DHCSR_C_DEBUGEN_Msk (1UL << CoreDebug_DHC"
 7914      44656275 
 7914      675F4448 
 7914      4353525F 
 7914      435F4445 
 7915 33c0 53525F43 		.ascii	"SR_C_DEBUGEN_Pos)\000"
 7915      5F444542 
 7915      5547454E 
 7915      5F506F73 
 7915      2900
 7916              	.LASF1162:
 7917 33d2 43617074 		.ascii	"CaptureChannel\000"
 7917      75726543 
 7917      68616E6E 
 7917      656C00
 7918              	.LASF315:
 7919 33e1 5F5F4743 		.ascii	"__GCC_ATOMIC_SHORT_LOCK_FREE 2\000"
 7919      435F4154 
ARM GAS  C:\Users\COSMIN~1.MAR\AppData\Local\Temp\cccNbcra.s 			page 178


 7919      4F4D4943 
 7919      5F53484F 
 7919      52545F4C 
 7920              	.LASF562:
 7921 3400 5343425F 		.ascii	"SCB_CFSR_USGFAULTSR_Pos 16\000"
 7921      43465352 
 7921      5F555347 
 7921      4641554C 
 7921      5453525F 
 7922              	.LASF655:
 7923 341b 4D50555F 		.ascii	"MPU_RBAR_ADDR_Msk (0x7FFFFFFUL << MPU_RBAR_ADDR_Pos"
 7923      52424152 
 7923      5F414444 
 7923      525F4D73 
 7923      6B202830 
 7924 344e 2900     		.ascii	")\000"
 7925              	.LASF597:
 7926 3450 53797354 		.ascii	"SysTick_CALIB_NOREF_Msk (1UL << SysTick_CALIB_NOREF"
 7926      69636B5F 
 7926      43414C49 
 7926      425F4E4F 
 7926      5245465F 
 7927 3483 5F506F73 		.ascii	"_Pos)\000"
 7927      2900
 7928              	.LASF269:
 7929 3489 5F5F4851 		.ascii	"__HQ_IBIT__ 0\000"
 7929      5F494249 
 7929      545F5F20 
 7929      3000
 7930              	.LASF231:
 7931 3497 5F5F5553 		.ascii	"__USACCUM_FBIT__ 8\000"
 7931      41434355 
 7931      4D5F4642 
 7931      49545F5F 
 7931      203800
 7932              	.LASF319:
 7933 34aa 5F5F4743 		.ascii	"__GCC_ATOMIC_TEST_AND_SET_TRUEVAL 1\000"
 7933      435F4154 
 7933      4F4D4943 
 7933      5F544553 
 7933      545F414E 
 7934              	.LASF835:
 7935 34ce 4C50435F 		.ascii	"LPC_CANCR ((LPC_CANCR_TypeDef *) LPC_CANCR_BASE )\000"
 7935      43414E43 
 7935      52202828 
 7935      4C50435F 
 7935      43414E43 
 7936              	.LASF493:
 7937 3500 5343425F 		.ascii	"SCB_ICSR_VECTPENDING_Msk (0x1FFUL << SCB_ICSR_VECTP"
 7937      49435352 
 7937      5F564543 
 7937      5450454E 
 7937      44494E47 
 7938 3533 454E4449 		.ascii	"ENDING_Pos)\000"
 7938      4E475F50 
 7938      6F732900 
 7939              	.LASF539:
ARM GAS  C:\Users\COSMIN~1.MAR\AppData\Local\Temp\cccNbcra.s 			page 179


 7940 353f 5343425F 		.ascii	"SCB_SHCSR_MEMFAULTENA_Msk (1UL << SCB_SHCSR_MEMFAUL"
 7940      53484353 
 7940      525F4D45 
 7940      4D464155 
 7940      4C54454E 
 7941 3572 54454E41 		.ascii	"TENA_Pos)\000"
 7941      5F506F73 
 7941      2900
 7942              	.LASF246:
 7943 357c 5F5F4C41 		.ascii	"__LACCUM_FBIT__ 31\000"
 7943      4343554D 
 7943      5F464249 
 7943      545F5F20 
 7943      333100
 7944              	.LASF1089:
 7945 358f 5F50574D 		.ascii	"_PWM1 1\000"
 7945      31203100 
 7946              	.LASF1021:
 7947 3597 50494E53 		.ascii	"PINSEL_PORT_2 ((2))\000"
 7947      454C5F50 
 7947      4F52545F 
 7947      32202828 
 7947      32292900 
 7948              	.LASF163:
 7949 35ab 5F5F4C44 		.ascii	"__LDBL_HAS_INFINITY__ 1\000"
 7949      424C5F48 
 7949      41535F49 
 7949      4E46494E 
 7949      4954595F 
 7950              	.LASF870:
 7951 35c3 54494D5F 		.ascii	"TIM_TCR_MASKBIT ((uint32_t)(3))\000"
 7951      5443525F 
 7951      4D41534B 
 7951      42495420 
 7951      28287569 
 7952              	.LASF1141:
 7953 35e3 54494D5F 		.ascii	"TIM_PRESCALE_USVAL\000"
 7953      50524553 
 7953      43414C45 
 7953      5F555356 
 7953      414C00
 7954              	.LASF169:
 7955 35f6 5F5F4445 		.ascii	"__DEC32_MAX__ 9.999999E96DF\000"
 7955      4333325F 
 7955      4D41585F 
 7955      5F20392E 
 7955      39393939 
 7956              	.LASF411:
 7957 3612 55494E54 		.ascii	"UINT16_MAX __UINT16_MAX__\000"
 7957      31365F4D 
 7957      4158205F 
 7957      5F55494E 
 7957      5431365F 
 7958              	.LASF355:
 7959 362c 5F5F4C50 		.ascii	"__LPC17XX_TIMER_H_ \000"
 7959      43313758 
 7959      585F5449 
ARM GAS  C:\Users\COSMIN~1.MAR\AppData\Local\Temp\cccNbcra.s 			page 180


 7959      4D45525F 
 7959      485F2000 
 7960              	.LASF400:
 7961 3640 494E5450 		.ascii	"INTPTR_MIN (-__INTPTR_MAX__ - 1)\000"
 7961      54525F4D 
 7961      494E2028 
 7961      2D5F5F49 
 7961      4E545054 
 7962              	.LASF653:
 7963 3661 4D50555F 		.ascii	"MPU_RNR_REGION_Msk (0xFFUL << MPU_RNR_REGION_Pos)\000"
 7963      524E525F 
 7963      52454749 
 7963      4F4E5F4D 
 7963      736B2028 
 7964              	.LASF790:
 7965 3693 4C50435F 		.ascii	"LPC_GPDMACH0_BASE (LPC_AHB_BASE + 0x04100)\000"
 7965      4750444D 
 7965      41434830 
 7965      5F424153 
 7965      4520284C 
 7966              	.LASF351:
 7967 36be 5F5F4152 		.ascii	"__ARM_ARCH_EXT_IDIV__ 1\000"
 7967      4D5F4152 
 7967      43485F45 
 7967      58545F49 
 7967      4449565F 
 7968              	.LASF349:
 7969 36d6 5F5F4152 		.ascii	"__ARM_PCS 1\000"
 7969      4D5F5043 
 7969      53203100 
 7970              	.LASF1034:
 7971 36e2 50494E53 		.ascii	"PINSEL_PIN_6 ((6))\000"
 7971      454C5F50 
 7971      494E5F36 
 7971      20282836 
 7971      292900
 7972              	.LASF1181:
 7973 36f5 54494D5F 		.ascii	"TIM_ConfigStructInit\000"
 7973      436F6E66 
 7973      69675374 
 7973      72756374 
 7973      496E6974 
 7974              	.LASF764:
 7975 370a 4C50435F 		.ascii	"LPC_SPI_BASE (LPC_APB0_BASE + 0x20000)\000"
 7975      5350495F 
 7975      42415345 
 7975      20284C50 
 7975      435F4150 
 7976              	.LASF1136:
 7977 3731 54494D5F 		.ascii	"TIM_TIMER_MODE\000"
 7977      54494D45 
 7977      525F4D4F 
 7977      444500
 7978              	.LASF948:
 7979 3740 434C4B50 		.ascii	"CLKPWR_PCON_PM1 ((uint32_t)(1<<1))\000"
 7979      57525F50 
 7979      434F4E5F 
ARM GAS  C:\Users\COSMIN~1.MAR\AppData\Local\Temp\cccNbcra.s 			page 181


 7979      504D3120 
 7979      28287569 
 7980              	.LASF441:
 7981 3763 55494E54 		.ascii	"UINTMAX_MAX __UINTMAX_MAX__\000"
 7981      4D41585F 
 7981      4D415820 
 7981      5F5F5549 
 7981      4E544D41 
 7982              	.LASF942:
 7983 377f 434C4B50 		.ascii	"CLKPWR_PCLKSEL0_BITMASK ((uint32_t)(0xFFF3F3FF))\000"
 7983      57525F50 
 7983      434C4B53 
 7983      454C305F 
 7983      4249544D 
 7984              	.LASF83:
 7985 37b0 5F5F5349 		.ascii	"__SIG_ATOMIC_MIN__ (-__SIG_ATOMIC_MAX__ - 1)\000"
 7985      475F4154 
 7985      4F4D4943 
 7985      5F4D494E 
 7985      5F5F2028 
 7986              	.LASF243:
 7987 37dd 5F5F5541 		.ascii	"__UACCUM_MIN__ 0.0UK\000"
 7987      4343554D 
 7987      5F4D494E 
 7987      5F5F2030 
 7987      2E30554B 
 7988              	.LASF480:
 7989 37f2 5343425F 		.ascii	"SCB_ICSR_PENDSVSET_Pos 28\000"
 7989      49435352 
 7989      5F50454E 
 7989      44535653 
 7989      45545F50 
 7990              	.LASF749:
 7991 380c 4C50435F 		.ascii	"LPC_RAM_BASE (0x10000000UL)\000"
 7991      52414D5F 
 7991      42415345 
 7991      20283078 
 7991      31303030 
 7992              	.LASF510:
 7993 3828 5343425F 		.ascii	"SCB_AIRCR_SYSRESETREQ_Pos 2\000"
 7993      41495243 
 7993      525F5359 
 7993      53524553 
 7993      45545245 
 7994              	.LASF468:
 7995 3844 5F5F4F20 		.ascii	"__O volatile\000"
 7995      766F6C61 
 7995      74696C65 
 7995      00
 7996              	.LASF410:
 7997 3851 494E5431 		.ascii	"INT16_MAX __INT16_MAX__\000"
 7997      365F4D41 
 7997      58205F5F 
 7997      494E5431 
 7997      365F4D41 
 7998              	.LASF362:
 7999 3869 5F5F434D 		.ascii	"__CM3_CMSIS_VERSION_SUB (0x00)\000"
ARM GAS  C:\Users\COSMIN~1.MAR\AppData\Local\Temp\cccNbcra.s 			page 182


 7999      335F434D 
 7999      5349535F 
 7999      56455253 
 7999      494F4E5F 
 8000              	.LASF443:
 8001 3888 5349475F 		.ascii	"SIG_ATOMIC_MIN (-__STDINT_EXP(INT_MAX) - 1)\000"
 8001      41544F4D 
 8001      49435F4D 
 8001      494E2028 
 8001      2D5F5F53 
 8002              	.LASF577:
 8003 38b4 5343425F 		.ascii	"SCB_DFSR_VCATCH_Msk (1UL << SCB_DFSR_VCATCH_Pos)\000"
 8003      44465352 
 8003      5F564341 
 8003      5443485F 
 8003      4D736B20 
 8004              	.LASF776:
 8005 38e5 4C50435F 		.ascii	"LPC_SSP0_BASE (LPC_APB1_BASE + 0x08000)\000"
 8005      53535030 
 8005      5F424153 
 8005      4520284C 
 8005      50435F41 
 8006              	.LASF1065:
 8007 390d 50494E53 		.ascii	"PINSEL_I2C_Normal_Mode ((0))\000"
 8007      454C5F49 
 8007      32435F4E 
 8007      6F726D61 
 8007      6C5F4D6F 
 8008              	.LASF851:
 8009 392a 4C50435F 		.ascii	"LPC_USB ((LPC_USB_TypeDef *) LPC_USB_BASE )\000"
 8009      55534220 
 8009      28284C50 
 8009      435F5553 
 8009      425F5479 
 8010              	.LASF395:
 8011 3956 5F5F696E 		.ascii	"__int_least64_t_defined 1\000"
 8011      745F6C65 
 8011      61737436 
 8011      345F745F 
 8011      64656669 
 8012              	.LASF648:
 8013 3970 4D50555F 		.ascii	"MPU_CTRL_HFNMIENA_Pos 1\000"
 8013      4354524C 
 8013      5F48464E 
 8013      4D49454E 
 8013      415F506F 
 8014              	.LASF632:
 8015 3988 496E7454 		.ascii	"IntType_ICTR_INTLINESNUM_Pos 0\000"
 8015      7970655F 
 8015      49435452 
 8015      5F494E54 
 8015      4C494E45 
 8016              	.LASF950:
 8017 39a7 434C4B50 		.ascii	"CLKPWR_PCON_BOGD ((uint32_t)(1<<3))\000"
 8017      57525F50 
 8017      434F4E5F 
 8017      424F4744 
ARM GAS  C:\Users\COSMIN~1.MAR\AppData\Local\Temp\cccNbcra.s 			page 183


 8017      20282875 
 8018              	.LASF543:
 8019 39cb 5343425F 		.ascii	"SCB_SHCSR_BUSFAULTPENDED_Msk (1UL << SCB_SHCSR_BUSF"
 8019      53484353 
 8019      525F4255 
 8019      53464155 
 8019      4C545045 
 8020 39fe 41554C54 		.ascii	"AULTPENDED_Pos)\000"
 8020      50454E44 
 8020      45445F50 
 8020      6F732900 
 8021              	.LASF1171:
 8022 3a0e 636C6B64 		.ascii	"clkdlycnt\000"
 8022      6C79636E 
 8022      7400
 8023              	.LASF178:
 8024 3a18 5F5F4445 		.ascii	"__DEC64_SUBNORMAL_MIN__ 0.000000000000001E-383DD\000"
 8024      4336345F 
 8024      5355424E 
 8024      4F524D41 
 8024      4C5F4D49 
 8025              	.LASF195:
 8026 3a49 5F5F5553 		.ascii	"__USFRACT_EPSILON__ 0x1P-8UHR\000"
 8026      46524143 
 8026      545F4550 
 8026      53494C4F 
 8026      4E5F5F20 
 8027              	.LASF1085:
 8028 3a67 5F475044 		.ascii	"_GPDMA 1\000"
 8028      4D412031 
 8028      00
 8029              	.LASF859:
 8030 3a70 5F424954 		.ascii	"_BITMASK\000"
 8030      4D41534B 
 8030      00
 8031              	.LASF111:
 8032 3a79 5F5F494E 		.ascii	"__INT_FAST64_MAX__ 9223372036854775807LL\000"
 8032      545F4641 
 8032      53543634 
 8032      5F4D4158 
 8032      5F5F2039 
 8033              	.LASF846:
 8034 3aa2 4C50435F 		.ascii	"LPC_GPDMACH3 ((LPC_GPDMACH_TypeDef *) LPC_GPDMACH3_"
 8034      4750444D 
 8034      41434833 
 8034      2028284C 
 8034      50435F47 
 8035 3ad5 42415345 		.ascii	"BASE )\000"
 8035      202900
 8036              	.LASF191:
 8037 3adc 5F5F5553 		.ascii	"__USFRACT_FBIT__ 8\000"
 8037      46524143 
 8037      545F4642 
 8037      49545F5F 
 8037      203800
 8038              	.LASF259:
 8039 3aef 5F5F4C4C 		.ascii	"__LLACCUM_MAX__ 0X7FFFFFFFFFFFFFFFP-31LLK\000"
ARM GAS  C:\Users\COSMIN~1.MAR\AppData\Local\Temp\cccNbcra.s 			page 184


 8039      41434355 
 8039      4D5F4D41 
 8039      585F5F20 
 8039      30583746 
 8040              	.LASF673:
 8041 3b19 4D50555F 		.ascii	"MPU_RASR_SRD_Msk (0xFFUL << MPU_RASR_SRD_Pos)\000"
 8041      52415352 
 8041      5F535244 
 8041      5F4D736B 
 8041      20283078 
 8042              	.LASF1043:
 8043 3b47 50494E53 		.ascii	"PINSEL_PIN_15 ((15))\000"
 8043      454C5F50 
 8043      494E5F31 
 8043      35202828 
 8043      31352929 
 8044              	.LASF998:
 8045 3b5c 434C4B50 		.ascii	"CLKPWR_PCONP_PCAN2 ((uint32_t)(1<<14))\000"
 8045      57525F50 
 8045      434F4E50 
 8045      5F504341 
 8045      4E322028 
 8046              	.LASF971:
 8047 3b83 434C4B50 		.ascii	"CLKPWR_PCLKSEL_QEI ((uint32_t)(32))\000"
 8047      57525F50 
 8047      434C4B53 
 8047      454C5F51 
 8047      45492028 
 8048              	.LASF393:
 8049 3ba7 5F5F696E 		.ascii	"__int_least32_t_defined 1\000"
 8049      745F6C65 
 8049      61737433 
 8049      325F745F 
 8049      64656669 
 8050              	.LASF303:
 8051 3bc1 5F5F5553 		.ascii	"__USER_LABEL_PREFIX__ \000"
 8051      45525F4C 
 8051      4142454C 
 8051      5F505245 
 8051      4649585F 
 8052              	.LASF428:
 8053 3bd8 494E545F 		.ascii	"INT_FAST8_MAX __INT_FAST8_MAX__\000"
 8053      46415354 
 8053      385F4D41 
 8053      58205F5F 
 8053      494E545F 
 8054              	.LASF669:
 8055 3bf8 4D50555F 		.ascii	"MPU_RASR_C_Msk (1UL << MPU_RASR_C_Pos)\000"
 8055      52415352 
 8055      5F435F4D 
 8055      736B2028 
 8055      31554C20 
 8056              	.LASF457:
 8057 3c1f 494E5436 		.ascii	"INT64_C(x) __INT64_C(x)\000"
 8057      345F4328 
 8057      7829205F 
 8057      5F494E54 
ARM GAS  C:\Users\COSMIN~1.MAR\AppData\Local\Temp\cccNbcra.s 			page 185


 8057      36345F43 
 8058              	.LASF403:
 8059 3c37 494E5438 		.ascii	"INT8_MIN (-__INT8_MAX__ - 1)\000"
 8059      5F4D494E 
 8059      20282D5F 
 8059      5F494E54 
 8059      385F4D41 
 8060              	.LASF770:
 8061 3c54 4C50435F 		.ascii	"LPC_CANAF_RAM_BASE (LPC_APB0_BASE + 0x38000)\000"
 8061      43414E41 
 8061      465F5241 
 8061      4D5F4241 
 8061      53452028 
 8062              	.LASF878:
 8063 3c81 54494D5F 		.ascii	"TIM_INT_ON_CAP(n) (_BIT(((n * 3) + 2)))\000"
 8063      494E545F 
 8063      4F4E5F43 
 8063      4150286E 
 8063      2920285F 
 8064              	.LASF837:
 8065 3ca9 4C50435F 		.ascii	"LPC_CAN2 ((LPC_CAN_TypeDef *) LPC_CAN2_BASE )\000"
 8065      43414E32 
 8065      2028284C 
 8065      50435F43 
 8065      414E5F54 
 8066              	.LASF811:
 8067 3cd7 4C50435F 		.ascii	"LPC_TIM0 ((LPC_TIM_TypeDef *) LPC_TIM0_BASE )\000"
 8067      54494D30 
 8067      2028284C 
 8067      50435F54 
 8067      494D5F54 
 8068              	.LASF320:
 8069 3d05 5F5F4743 		.ascii	"__GCC_ATOMIC_POINTER_LOCK_FREE 2\000"
 8069      435F4154 
 8069      4F4D4943 
 8069      5F504F49 
 8069      4E544552 
 8070              	.LASF326:
 8071 3d26 5F5F4152 		.ascii	"__ARM_FEATURE_QBIT 1\000"
 8071      4D5F4645 
 8071      41545552 
 8071      455F5142 
 8071      49542031 
 8072              	.LASF331:
 8073 3d3b 5F5F4152 		.ascii	"__ARM_FEATURE_CLZ 1\000"
 8073      4D5F4645 
 8073      41545552 
 8073      455F434C 
 8073      5A203100 
 8074              	.LASF958:
 8075 3d4f 434C4B50 		.ascii	"CLKPWR_PCLKSEL_TIMER0 ((uint32_t)(2))\000"
 8075      57525F50 
 8075      434C4B53 
 8075      454C5F54 
 8075      494D4552 
 8076              	.LASF8:
 8077 3d75 5F5F4154 		.ascii	"__ATOMIC_ACQUIRE 2\000"
ARM GAS  C:\Users\COSMIN~1.MAR\AppData\Local\Temp\cccNbcra.s 			page 186


 8077      4F4D4943 
 8077      5F414351 
 8077      55495245 
 8077      203200
 8078              	.LASF978:
 8079 3d88 434C4B50 		.ascii	"CLKPWR_PCLKSEL_UART3 ((uint32_t)(50))\000"
 8079      57525F50 
 8079      434C4B53 
 8079      454C5F55 
 8079      41525433 
 8080              	.LASF1093:
 8081 3dae 5F555342 		.ascii	"_USB_DMA 1\000"
 8081      5F444D41 
 8081      203100
 8082              	.LASF515:
 8083 3db9 5343425F 		.ascii	"SCB_AIRCR_VECTRESET_Msk (1UL << SCB_AIRCR_VECTRESET"
 8083      41495243 
 8083      525F5645 
 8083      43545245 
 8083      5345545F 
 8084 3dec 5F506F73 		.ascii	"_Pos)\000"
 8084      2900
 8085              	.LASF759:
 8086 3df2 4C50435F 		.ascii	"LPC_TIM1_BASE (LPC_APB0_BASE + 0x08000)\000"
 8086      54494D31 
 8086      5F424153 
 8086      4520284C 
 8086      50435F41 
 8087              	.LASF610:
 8088 3e1a 49544D5F 		.ascii	"ITM_TCR_SWOENA_Pos 4\000"
 8088      5443525F 
 8088      53574F45 
 8088      4E415F50 
 8088      6F732034 
 8089              	.LASF882:
 8090 3e2f 54494D5F 		.ascii	"TIM_EM(n) _BIT(n)\000"
 8090      454D286E 
 8090      29205F42 
 8090      4954286E 
 8090      2900
 8091              	.LASF333:
 8092 3e41 5F5F4152 		.ascii	"__ARM_SIZEOF_WCHAR_T 4\000"
 8092      4D5F5349 
 8092      5A454F46 
 8092      5F574348 
 8092      41525F54 
 8093              	.LASF717:
 8094 3e58 436F7265 		.ascii	"CoreDebug_DEMCR_VC_HARDERR_Msk (1UL << CoreDebug_DE"
 8094      44656275 
 8094      675F4445 
 8094      4D43525F 
 8094      56435F48 
 8095 3e8b 4D43525F 		.ascii	"MCR_VC_HARDERR_Pos)\000"
 8095      56435F48 
 8095      41524445 
 8095      52525F50 
 8095      6F732900 
ARM GAS  C:\Users\COSMIN~1.MAR\AppData\Local\Temp\cccNbcra.s 			page 187


 8096              	.LASF64:
 8097 3e9f 5F5F6861 		.ascii	"__has_include(STR) __has_include__(STR)\000"
 8097      735F696E 
 8097      636C7564 
 8097      65285354 
 8097      5229205F 
 8098              	.LASF302:
 8099 3ec7 5F5F5245 		.ascii	"__REGISTER_PREFIX__ \000"
 8099      47495354 
 8099      45525F50 
 8099      52454649 
 8099      585F5F20 
 8100              	.LASF1073:
 8101 3edc 5F554152 		.ascii	"_UART2 1\000"
 8101      54322031 
 8101      00
 8102              	.LASF477:
 8103 3ee5 5343425F 		.ascii	"SCB_CPUID_REVISION_Msk (0xFUL << SCB_CPUID_REVISION"
 8103      43505549 
 8103      445F5245 
 8103      56495349 
 8103      4F4E5F4D 
 8104 3f18 5F506F73 		.ascii	"_Pos)\000"
 8104      2900
 8105              	.LASF146:
 8106 3f1e 5F5F4442 		.ascii	"__DBL_EPSILON__ ((double)2.2204460492503131e-16L)\000"
 8106      4C5F4550 
 8106      53494C4F 
 8106      4E5F5F20 
 8106      2828646F 
 8107              	.LASF1027:
 8108 3f50 50494E53 		.ascii	"PINSEL_FUNC_3 ((3))\000"
 8108      454C5F46 
 8108      554E435F 
 8108      33202828 
 8108      33292900 
 8109              	.LASF576:
 8110 3f64 5343425F 		.ascii	"SCB_DFSR_VCATCH_Pos 3\000"
 8110      44465352 
 8110      5F564341 
 8110      5443485F 
 8110      506F7320 
 8111              	.LASF135:
 8112 3f7a 5F5F464C 		.ascii	"__FLT_HAS_INFINITY__ 1\000"
 8112      545F4841 
 8112      535F494E 
 8112      46494E49 
 8112      54595F5F 
 8113              	.LASF1110:
 8114 3f91 5F5F7569 		.ascii	"__uint64_t\000"
 8114      6E743634 
 8114      5F7400
 8115              	.LASF491:
 8116 3f9c 5343425F 		.ascii	"SCB_ICSR_ISRPENDING_Msk (1UL << SCB_ICSR_ISRPENDING"
 8116      49435352 
 8116      5F495352 
 8116      50454E44 
ARM GAS  C:\Users\COSMIN~1.MAR\AppData\Local\Temp\cccNbcra.s 			page 188


 8116      494E475F 
 8117 3fcf 5F506F73 		.ascii	"_Pos)\000"
 8117      2900
 8118              	.LASF154:
 8119 3fd5 5F5F4C44 		.ascii	"__LDBL_MIN_10_EXP__ (-307)\000"
 8119      424C5F4D 
 8119      494E5F31 
 8119      305F4558 
 8119      505F5F20 
 8120              	.LASF1008:
 8121 3ff0 434C4B50 		.ascii	"CLKPWR_PCONP_PCUART3 ((uint32_t)(1<<25))\000"
 8121      57525F50 
 8121      434F4E50 
 8121      5F504355 
 8121      41525433 
 8122              	.LASF321:
 8123 4019 5F5F4743 		.ascii	"__GCC_HAVE_DWARF2_CFI_ASM 1\000"
 8123      435F4841 
 8123      56455F44 
 8123      57415246 
 8123      325F4346 
 8124              	.LASF375:
 8125 4035 5F5F5F69 		.ascii	"___int8_t_defined 1\000"
 8125      6E74385F 
 8125      745F6465 
 8125      66696E65 
 8125      64203100 
 8126              	.LASF188:
 8127 4049 5F5F5346 		.ascii	"__SFRACT_MIN__ (-0.5HR-0.5HR)\000"
 8127      52414354 
 8127      5F4D494E 
 8127      5F5F2028 
 8127      2D302E35 
 8128              	.LASF1108:
 8129 4067 6C6F6E67 		.ascii	"long unsigned int\000"
 8129      20756E73 
 8129      69676E65 
 8129      6420696E 
 8129      7400
 8130              	.LASF289:
 8131 4079 5F5F5341 		.ascii	"__SA_IBIT__ 16\000"
 8131      5F494249 
 8131      545F5F20 
 8131      313600
 8132              	.LASF2:
 8133 4088 5F5F474E 		.ascii	"__GNUC__ 4\000"
 8133      55435F5F 
 8133      203400
 8134              	.LASF788:
 8135 4093 4C50435F 		.ascii	"LPC_EMAC_BASE (LPC_AHB_BASE + 0x00000)\000"
 8135      454D4143 
 8135      5F424153 
 8135      4520284C 
 8135      50435F41 
 8136              	.LASF774:
 8137 40ba 4C50435F 		.ascii	"LPC_CAN2_BASE (LPC_APB0_BASE + 0x48000)\000"
 8137      43414E32 
ARM GAS  C:\Users\COSMIN~1.MAR\AppData\Local\Temp\cccNbcra.s 			page 189


 8137      5F424153 
 8137      4520284C 
 8137      50435F41 
 8138              	.LASF1053:
 8139 40e2 50494E53 		.ascii	"PINSEL_PIN_25 ((25))\000"
 8139      454C5F50 
 8139      494E5F32 
 8139      35202828 
 8139      32352929 
 8140              	.LASF43:
 8141 40f7 5F5F5549 		.ascii	"__UINT16_TYPE__ short unsigned int\000"
 8141      4E543136 
 8141      5F545950 
 8141      455F5F20 
 8141      73686F72 
 8142              	.LASF913:
 8143 411a 434C4B50 		.ascii	"CLKPWR_CLKOUTCFG_CLKOUT_ACT ((uint32_t)(1<<9))\000"
 8143      57525F43 
 8143      4C4B4F55 
 8143      54434647 
 8143      5F434C4B 
 8144              	.LASF343:
 8145 4149 5F5F534F 		.ascii	"__SOFTFP__ 1\000"
 8145      46544650 
 8145      5F5F2031 
 8145      00
 8146              	.LASF921:
 8147 4156 434C4B50 		.ascii	"CLKPWR_PLL0STAT_MSEL(n) ((uint32_t)(n&0x7FFF))\000"
 8147      57525F50 
 8147      4C4C3053 
 8147      5441545F 
 8147      4D53454C 
 8148              	.LASF392:
 8149 4185 5F5F696E 		.ascii	"__int32_t_defined 1\000"
 8149      7433325F 
 8149      745F6465 
 8149      66696E65 
 8149      64203100 
 8150              	.LASF631:
 8151 4199 49544D5F 		.ascii	"ITM_LSR_Present_Msk (1UL << ITM_LSR_Present_Pos)\000"
 8151      4C53525F 
 8151      50726573 
 8151      656E745F 
 8151      4D736B20 
 8152              	.LASF167:
 8153 41ca 5F5F4445 		.ascii	"__DEC32_MAX_EXP__ 97\000"
 8153      4333325F 
 8153      4D41585F 
 8153      4558505F 
 8153      5F203937 
 8154              	.LASF600:
 8155 41df 53797354 		.ascii	"SysTick_CALIB_TENMS_Pos 0\000"
 8155      69636B5F 
 8155      43414C49 
 8155      425F5445 
 8155      4E4D535F 
 8156              	.LASF489:
ARM GAS  C:\Users\COSMIN~1.MAR\AppData\Local\Temp\cccNbcra.s 			page 190


 8157 41f9 5343425F 		.ascii	"SCB_ICSR_ISRPREEMPT_Msk (1UL << SCB_ICSR_ISRPREEMPT"
 8157      49435352 
 8157      5F495352 
 8157      50524545 
 8157      4D50545F 
 8158 422c 5F506F73 		.ascii	"_Pos)\000"
 8158      2900
 8159              	.LASF761:
 8160 4232 4C50435F 		.ascii	"LPC_UART1_BASE (LPC_APB0_BASE + 0x10000)\000"
 8160      55415254 
 8160      315F4241 
 8160      53452028 
 8160      4C50435F 
 8161              	.LASF735:
 8162 425b 53797354 		.ascii	"SysTick_BASE (SCS_BASE + 0x0010UL)\000"
 8162      69636B5F 
 8162      42415345 
 8162      20285343 
 8162      535F4241 
 8163              	.LASF451:
 8164 427e 494E5438 		.ascii	"INT8_C(x) __INT8_C(x)\000"
 8164      5F432878 
 8164      29205F5F 
 8164      494E5438 
 8164      5F432878 
 8165              	.LASF651:
 8166 4294 4D50555F 		.ascii	"MPU_CTRL_ENABLE_Msk (1UL << MPU_CTRL_ENABLE_Pos)\000"
 8166      4354524C 
 8166      5F454E41 
 8166      424C455F 
 8166      4D736B20 
 8167              	.LASF944:
 8168 42c5 434C4B50 		.ascii	"CLKPWR_PCLKSEL_SET(p,n) _SBF(p,n)\000"
 8168      57525F50 
 8168      434C4B53 
 8168      454C5F53 
 8168      45542870 
 8169              	.LASF58:
 8170 42e7 5F5F5549 		.ascii	"__UINT_FAST8_TYPE__ unsigned int\000"
 8170      4E545F46 
 8170      41535438 
 8170      5F545950 
 8170      455F5F20 
 8171              	.LASF257:
 8172 4308 5F5F4C4C 		.ascii	"__LLACCUM_IBIT__ 32\000"
 8172      41434355 
 8172      4D5F4942 
 8172      49545F5F 
 8172      20333200 
 8173              	.LASF555:
 8174 431c 5343425F 		.ascii	"SCB_SHCSR_SVCALLACT_Msk (1UL << SCB_SHCSR_SVCALLACT"
 8174      53484353 
 8174      525F5356 
 8174      43414C4C 
 8174      4143545F 
 8175 434f 5F506F73 		.ascii	"_Pos)\000"
 8175      2900
ARM GAS  C:\Users\COSMIN~1.MAR\AppData\Local\Temp\cccNbcra.s 			page 191


 8176              	.LASF200:
 8177 4355 5F5F4652 		.ascii	"__FRACT_EPSILON__ 0x1P-15R\000"
 8177      4143545F 
 8177      45505349 
 8177      4C4F4E5F 
 8177      5F203078 
 8178              	.LASF864:
 8179 4370 45585445 		.ascii	"EXTERN extern\000"
 8179      524E2065 
 8179      78746572 
 8179      6E00
 8180              	.LASF1051:
 8181 437e 50494E53 		.ascii	"PINSEL_PIN_23 ((23))\000"
 8181      454C5F50 
 8181      494E5F32 
 8181      33202828 
 8181      32332929 
 8182              	.LASF364:
 8183 4393 5F5F434F 		.ascii	"__CORTEX_M (0x03)\000"
 8183      52544558 
 8183      5F4D2028 
 8183      30783033 
 8183      2900
 8184              	.LASF1172:
 8185 43a5 54494D5F 		.ascii	"TIM_ConverPtrToTimeNum\000"
 8185      436F6E76 
 8185      65725074 
 8185      72546F54 
 8185      696D654E 
 8186              	.LASF352:
 8187 43bc 5F5F4758 		.ascii	"__GXX_TYPEINFO_EQUALITY_INLINE 0\000"
 8187      585F5459 
 8187      5045494E 
 8187      464F5F45 
 8187      5155414C 
 8188              	.LASF522:
 8189 43dd 5343425F 		.ascii	"SCB_CCR_STKALIGN_Pos 9\000"
 8189      4343525F 
 8189      53544B41 
 8189      4C49474E 
 8189      5F506F73 
 8190              	.LASF357:
 8191 43f4 5F5F4D50 		.ascii	"__MPU_PRESENT 1\000"
 8191      555F5052 
 8191      4553454E 
 8191      54203100 
 8192              	.LASF949:
 8193 4404 434C4B50 		.ascii	"CLKPWR_PCON_BODPDM ((uint32_t)(1<<2))\000"
 8193      57525F50 
 8193      434F4E5F 
 8193      424F4450 
 8193      444D2028 
 8194              	.LASF37:
 8195 442a 5F5F5349 		.ascii	"__SIG_ATOMIC_TYPE__ int\000"
 8195      475F4154 
 8195      4F4D4943 
 8195      5F545950 
ARM GAS  C:\Users\COSMIN~1.MAR\AppData\Local\Temp\cccNbcra.s 			page 192


 8195      455F5F20 
 8196              	.LASF1086:
 8197 4442 5F444143 		.ascii	"_DAC 1\000"
 8197      203100
 8198              	.LASF624:
 8199 4449 49544D5F 		.ascii	"ITM_IMCR_INTEGRATION_Pos 0\000"
 8199      494D4352 
 8199      5F494E54 
 8199      45475241 
 8199      54494F4E 
 8200              	.LASF657:
 8201 4464 4D50555F 		.ascii	"MPU_RBAR_VALID_Msk (1UL << MPU_RBAR_VALID_Pos)\000"
 8201      52424152 
 8201      5F56414C 
 8201      49445F4D 
 8201      736B2028 
 8202              	.LASF952:
 8203 4493 434C4B50 		.ascii	"CLKPWR_PCON_SMFLAG ((uint32_t)(1<<8))\000"
 8203      57525F50 
 8203      434F4E5F 
 8203      534D464C 
 8203      41472028 
 8204              	.LASF841:
 8205 44b9 4C50435F 		.ascii	"LPC_GPDMA ((LPC_GPDMA_TypeDef *) LPC_GPDMA_BASE )\000"
 8205      4750444D 
 8205      41202828 
 8205      4C50435F 
 8205      4750444D 
 8206              	.LASF503:
 8207 44eb 5343425F 		.ascii	"SCB_AIRCR_VECTKEY_Msk (0xFFFFUL << SCB_AIRCR_VECTKE"
 8207      41495243 
 8207      525F5645 
 8207      43544B45 
 8207      595F4D73 
 8208 451e 595F506F 		.ascii	"Y_Pos)\000"
 8208      732900
 8209              	.LASF69:
 8210 4525 5F5F494E 		.ascii	"__INT_MAX__ 2147483647\000"
 8210      545F4D41 
 8210      585F5F20 
 8210      32313437 
 8210      34383336 
 8211              	.LASF545:
 8212 453c 5343425F 		.ascii	"SCB_SHCSR_MEMFAULTPENDED_Msk (1UL << SCB_SHCSR_MEMF"
 8212      53484353 
 8212      525F4D45 
 8212      4D464155 
 8212      4C545045 
 8213 456f 41554C54 		.ascii	"AULTPENDED_Pos)\000"
 8213      50454E44 
 8213      45445F50 
 8213      6F732900 
 8214              	.LASF53:
 8215 457f 5F5F5549 		.ascii	"__UINT_LEAST64_TYPE__ long long unsigned int\000"
 8215      4E545F4C 
 8215      45415354 
 8215      36345F54 
ARM GAS  C:\Users\COSMIN~1.MAR\AppData\Local\Temp\cccNbcra.s 			page 193


 8215      5950455F 
 8216              	.LASF184:
 8217 45ac 5F5F4445 		.ascii	"__DEC128_EPSILON__ 1E-33DL\000"
 8217      43313238 
 8217      5F455053 
 8217      494C4F4E 
 8217      5F5F2031 
 8218              	.LASF786:
 8219 45c7 4C50435F 		.ascii	"LPC_QEI_BASE (LPC_APB1_BASE + 0x3C000)\000"
 8219      5145495F 
 8219      42415345 
 8219      20284C50 
 8219      435F4150 
 8220              	.LASF552:
 8221 45ee 5343425F 		.ascii	"SCB_SHCSR_MONITORACT_Pos 8\000"
 8221      53484353 
 8221      525F4D4F 
 8221      4E49544F 
 8221      52414354 
 8222              	.LASF160:
 8223 4609 5F5F4C44 		.ascii	"__LDBL_EPSILON__ 2.2204460492503131e-16L\000"
 8223      424C5F45 
 8223      5053494C 
 8223      4F4E5F5F 
 8223      20322E32 
 8224              	.LASF634:
 8225 4632 496E7454 		.ascii	"IntType_ACTLR_DISFOLD_Pos 2\000"
 8225      7970655F 
 8225      4143544C 
 8225      525F4449 
 8225      53464F4C 
 8226              	.LASF1025:
 8227 464e 50494E53 		.ascii	"PINSEL_FUNC_1 ((1))\000"
 8227      454C5F46 
 8227      554E435F 
 8227      31202828 
 8227      31292900 
 8228              	.LASF502:
 8229 4662 5343425F 		.ascii	"SCB_AIRCR_VECTKEY_Pos 16\000"
 8229      41495243 
 8229      525F5645 
 8229      43544B45 
 8229      595F506F 
 8230              	.LASF1167:
 8231 467b 54494D5F 		.ascii	"TIM_GetPClock\000"
 8231      47657450 
 8231      436C6F63 
 8231      6B00
 8232              	.LASF766:
 8233 4689 4C50435F 		.ascii	"LPC_GPIOINT_BASE (LPC_APB0_BASE + 0x28080)\000"
 8233      4750494F 
 8233      494E545F 
 8233      42415345 
 8233      20284C50 
 8234              	.LASF914:
 8235 46b4 434C4B50 		.ascii	"CLKPWR_CLKOUTCFG_BITMASK ((uint32_t)(0x3FF))\000"
 8235      57525F43 
ARM GAS  C:\Users\COSMIN~1.MAR\AppData\Local\Temp\cccNbcra.s 			page 194


 8235      4C4B4F55 
 8235      54434647 
 8235      5F424954 
 8236              	.LASF9:
 8237 46e1 5F5F4154 		.ascii	"__ATOMIC_RELEASE 3\000"
 8237      4F4D4943 
 8237      5F52454C 
 8237      45415345 
 8237      203300
 8238              	.LASF1183:
 8239 46f4 54494D5F 		.ascii	"TIM_ConfigStruct\000"
 8239      436F6E66 
 8239      69675374 
 8239      72756374 
 8239      00
 8240              	.LASF743:
 8241 4705 436F7265 		.ascii	"CoreDebug ((CoreDebug_Type *) CoreDebug_BASE)\000"
 8241      44656275 
 8241      67202828 
 8241      436F7265 
 8241      44656275 
 8242              	.LASF123:
 8243 4733 5F5F464C 		.ascii	"__FLT_MANT_DIG__ 24\000"
 8243      545F4D41 
 8243      4E545F44 
 8243      49475F5F 
 8243      20323400 
 8244              	.LASF742:
 8245 4747 49544D20 		.ascii	"ITM ((ITM_Type *) ITM_BASE)\000"
 8245      28284954 
 8245      4D5F5479 
 8245      7065202A 
 8245      29204954 
 8246              	.LASF890:
 8247 4763 54494D5F 		.ascii	"TIM_CTCR_MODE_MASK 0x3\000"
 8247      43544352 
 8247      5F4D4F44 
 8247      455F4D41 
 8247      534B2030 
 8248              	.LASF56:
 8249 477a 5F5F494E 		.ascii	"__INT_FAST32_TYPE__ int\000"
 8249      545F4641 
 8249      53543332 
 8249      5F545950 
 8249      455F5F20 
 8250              	.LASF675:
 8251 4792 4D50555F 		.ascii	"MPU_RASR_SIZE_Msk (0x1FUL << MPU_RASR_SIZE_Pos)\000"
 8251      52415352 
 8251      5F53495A 
 8251      455F4D73 
 8251      6B202830 
 8252              	.LASF746:
 8253 47c2 49544D5F 		.ascii	"ITM_RXBUFFER_EMPTY 0x5AA55AA5\000"
 8253      52584255 
 8253      46464552 
 8253      5F454D50 
 8253      54592030 
ARM GAS  C:\Users\COSMIN~1.MAR\AppData\Local\Temp\cccNbcra.s 			page 195


 8254              	.LASF316:
 8255 47e0 5F5F4743 		.ascii	"__GCC_ATOMIC_INT_LOCK_FREE 2\000"
 8255      435F4154 
 8255      4F4D4943 
 8255      5F494E54 
 8255      5F4C4F43 
 8256              	.LASF817:
 8257 47fd 4C50435F 		.ascii	"LPC_UART1 ((LPC_UART1_TypeDef *) LPC_UART1_BASE )\000"
 8257      55415254 
 8257      31202828 
 8257      4C50435F 
 8257      55415254 
 8258              	.LASF879:
 8259 482f 54494D5F 		.ascii	"TIM_EDGE_MASK(n) (_SBF((n * 3), 0x03))\000"
 8259      45444745 
 8259      5F4D4153 
 8259      4B286E29 
 8259      20285F53 
 8260              	.LASF957:
 8261 4856 434C4B50 		.ascii	"CLKPWR_PCLKSEL_WDT ((uint32_t)(0))\000"
 8261      57525F50 
 8261      434C4B53 
 8261      454C5F57 
 8261      44542028 
 8262              	.LASF466:
 8263 4879 5F5F434F 		.ascii	"__CORE_CM3_H_DEPENDANT \000"
 8263      52455F43 
 8263      4D335F48 
 8263      5F444550 
 8263      454E4441 
 8264              	.LASF1017:
 8265 4891 50494E53 		.ascii	"PINSEL_I2CPADCFG_SCLDRV0 _BIT(2)\000"
 8265      454C5F49 
 8265      32435041 
 8265      44434647 
 8265      5F53434C 
 8266              	.LASF467:
 8267 48b2 5F5F4920 		.ascii	"__I volatile const\000"
 8267      766F6C61 
 8267      74696C65 
 8267      20636F6E 
 8267      737400
 8268              	.LASF740:
 8269 48c5 53797354 		.ascii	"SysTick ((SysTick_Type *) SysTick_BASE)\000"
 8269      69636B20 
 8269      28285379 
 8269      73546963 
 8269      6B5F5479 
 8270              	.LASF161:
 8271 48ed 5F5F4C44 		.ascii	"__LDBL_DENORM_MIN__ 4.9406564584124654e-324L\000"
 8271      424C5F44 
 8271      454E4F52 
 8271      4D5F4D49 
 8271      4E5F5F20 
 8272              	.LASF642:
 8273 491a 4D50555F 		.ascii	"MPU_TYPE_DREGION_Pos 8\000"
 8273      54595045 
ARM GAS  C:\Users\COSMIN~1.MAR\AppData\Local\Temp\cccNbcra.s 			page 196


 8273      5F445245 
 8273      47494F4E 
 8273      5F506F73 
 8274              	.LASF327:
 8275 4931 5F5F4152 		.ascii	"__ARM_FEATURE_SAT 1\000"
 8275      4D5F4645 
 8275      41545552 
 8275      455F5341 
 8275      54203100 
 8276              	.LASF390:
 8277 4945 5F5F696E 		.ascii	"__int16_t_defined 1\000"
 8277      7431365F 
 8277      745F6465 
 8277      66696E65 
 8277      64203100 
 8278              	.LASF222:
 8279 4959 5F5F554C 		.ascii	"__ULLFRACT_IBIT__ 0\000"
 8279      4C465241 
 8279      43545F49 
 8279      4249545F 
 8279      5F203000 
 8280              	.LASF894:
 8281 496d 50415241 		.ascii	"PARAM_TIM_INT_TYPE(TYPE) ((TYPE ==TIM_MR0_INT)||(TY"
 8281      4D5F5449 
 8281      4D5F494E 
 8281      545F5459 
 8281      50452854 
 8282 49a0 5045203D 		.ascii	"PE ==TIM_MR1_INT)||(TYPE ==TIM_MR2_INT)||(TYPE ==TI"
 8282      3D54494D 
 8282      5F4D5231 
 8282      5F494E54 
 8282      297C7C28 
 8283 49d3 4D5F4D52 		.ascii	"M_MR3_INT)||(TYPE ==TIM_CR0_INT)||(TYPE ==TIM_CR1_I"
 8283      335F494E 
 8283      54297C7C 
 8283      28545950 
 8283      45203D3D 
 8284 4a06 4E542929 		.ascii	"NT))\000"
 8284      00
 8285              	.LASF1191:
 8286 4a0b 54494D5F 		.ascii	"TIM_ResetCounter\000"
 8286      52657365 
 8286      74436F75 
 8286      6E746572 
 8286      00
 8287              	.LASF907:
 8288 4a1c 434C4B50 		.ascii	"CLKPWR_CLKOUTCFG_CLKOUTSEL_MAINOSC ((uint32_t)(0x01"
 8288      57525F43 
 8288      4C4B4F55 
 8288      54434647 
 8288      5F434C4B 
 8289 4a4f 292900   		.ascii	"))\000"
 8290              	.LASF1132:
 8291 4a52 54494D5F 		.ascii	"TIM_MR2_INT\000"
 8291      4D52325F 
 8291      494E5400 
 8292              	.LASF981:
ARM GAS  C:\Users\COSMIN~1.MAR\AppData\Local\Temp\cccNbcra.s 			page 197


 8293 4a5e 434C4B50 		.ascii	"CLKPWR_PCLKSEL_RIT ((uint32_t)(58))\000"
 8293      57525F50 
 8293      434C4B53 
 8293      454C5F52 
 8293      49542028 
 8294              	.LASF711:
 8295 4a82 436F7265 		.ascii	"CoreDebug_DEMCR_MON_STEP_Msk (1UL << CoreDebug_DEMC"
 8295      44656275 
 8295      675F4445 
 8295      4D43525F 
 8295      4D4F4E5F 
 8296 4ab5 525F4D4F 		.ascii	"R_MON_STEP_Pos)\000"
 8296      4E5F5354 
 8296      45505F50 
 8296      6F732900 
 8297              	.LASF795:
 8298 4ac5 4C50435F 		.ascii	"LPC_GPDMACH5_BASE (LPC_AHB_BASE + 0x041A0)\000"
 8298      4750444D 
 8298      41434835 
 8298      5F424153 
 8298      4520284C 
 8299              	.LASF476:
 8300 4af0 5343425F 		.ascii	"SCB_CPUID_REVISION_Pos 0\000"
 8300      43505549 
 8300      445F5245 
 8300      56495349 
 8300      4F4E5F50 
 8301              	.LASF972:
 8302 4b09 434C4B50 		.ascii	"CLKPWR_PCLKSEL_PCB ((uint32_t)(36))\000"
 8302      57525F50 
 8302      434C4B53 
 8302      454C5F50 
 8302      43422028 
 8303              	.LASF1145:
 8304 4b2d 54494D5F 		.ascii	"TIM_EXTMATCH_LOW\000"
 8304      4558544D 
 8304      41544348 
 8304      5F4C4F57 
 8304      00
 8305              	.LASF935:
 8306 4b3e 434C4B50 		.ascii	"CLKPWR_PLL1STAT_PLLE ((uint32_t)(1<<8))\000"
 8306      57525F50 
 8306      4C4C3153 
 8306      5441545F 
 8306      504C4C45 
 8307              	.LASF798:
 8308 4b66 4C50435F 		.ascii	"LPC_USB_BASE (LPC_AHB_BASE + 0x0C000)\000"
 8308      5553425F 
 8308      42415345 
 8308      20284C50 
 8308      435F4148 
 8309              	.LASF830:
 8310 4b8c 4C50435F 		.ascii	"LPC_SSP1 ((LPC_SSP_TypeDef *) LPC_SSP1_BASE )\000"
 8310      53535031 
 8310      2028284C 
 8310      50435F53 
 8310      53505F54 
ARM GAS  C:\Users\COSMIN~1.MAR\AppData\Local\Temp\cccNbcra.s 			page 198


 8311              	.LASF954:
 8312 4bba 434C4B50 		.ascii	"CLKPWR_PCON_PDFLAG ((uint32_t)(1<<10))\000"
 8312      57525F50 
 8312      434F4E5F 
 8312      5044464C 
 8312      41472028 
 8313              	.LASF963:
 8314 4be1 434C4B50 		.ascii	"CLKPWR_PCLKSEL_I2C0 ((uint32_t)(14))\000"
 8314      57525F50 
 8314      434C4B53 
 8314      454C5F49 
 8314      32433020 
 8315              	.LASF1060:
 8316 4c06 50494E53 		.ascii	"PINSEL_PINMODE_PULLUP ((0))\000"
 8316      454C5F50 
 8316      494E4D4F 
 8316      44455F50 
 8316      554C4C55 
 8317              	.LASF1059:
 8318 4c22 50494E53 		.ascii	"PINSEL_PIN_31 ((31))\000"
 8318      454C5F50 
 8318      494E5F33 
 8318      31202828 
 8318      33312929 
 8319              	.LASF130:
 8320 4c37 5F5F464C 		.ascii	"__FLT_MAX__ 3.4028234663852886e+38F\000"
 8320      545F4D41 
 8320      585F5F20 
 8320      332E3430 
 8320      32383233 
 8321              	.LASF416:
 8322 4c5b 494E5433 		.ascii	"INT32_MAX __INT32_MAX__\000"
 8322      325F4D41 
 8322      58205F5F 
 8322      494E5433 
 8322      325F4D41 
 8323              	.LASF241:
 8324 4c73 5F5F5541 		.ascii	"__UACCUM_FBIT__ 16\000"
 8324      4343554D 
 8324      5F464249 
 8324      545F5F20 
 8324      313600
 8325              	.LASF1071:
 8326 4c86 5F554152 		.ascii	"_UART0 1\000"
 8326      54302031 
 8326      00
 8327              	.LASF205:
 8328 4c8f 5F5F5546 		.ascii	"__UFRACT_EPSILON__ 0x1P-16UR\000"
 8328      52414354 
 8328      5F455053 
 8328      494C4F4E 
 8328      5F5F2030 
 8329              	.LASF73:
 8330 4cac 5F5F5743 		.ascii	"__WCHAR_MIN__ 0U\000"
 8330      4841525F 
 8330      4D494E5F 
 8330      5F203055 
ARM GAS  C:\Users\COSMIN~1.MAR\AppData\Local\Temp\cccNbcra.s 			page 199


 8330      00
 8331              	.LASF90:
 8332 4cbd 5F5F5549 		.ascii	"__UINT32_MAX__ 4294967295UL\000"
 8332      4E543332 
 8332      5F4D4158 
 8332      5F5F2034 
 8332      32393439 
 8333              	.LASF838:
 8334 4cd9 4C50435F 		.ascii	"LPC_MCPWM ((LPC_MCPWM_TypeDef *) LPC_MCPWM_BASE )\000"
 8334      4D435057 
 8334      4D202828 
 8334      4C50435F 
 8334      4D435057 
 8335              	.LASF277:
 8336 4d0b 5F5F5551 		.ascii	"__UQQ_IBIT__ 0\000"
 8336      515F4942 
 8336      49545F5F 
 8336      203000
 8337              	.LASF317:
 8338 4d1a 5F5F4743 		.ascii	"__GCC_ATOMIC_LONG_LOCK_FREE 2\000"
 8338      435F4154 
 8338      4F4D4943 
 8338      5F4C4F4E 
 8338      475F4C4F 
 8339              	.LASF253:
 8340 4d38 5F5F554C 		.ascii	"__ULACCUM_MIN__ 0.0ULK\000"
 8340      41434355 
 8340      4D5F4D49 
 8340      4E5F5F20 
 8340      302E3055 
 8341              	.LASF1107:
 8342 4d4f 5F5F7569 		.ascii	"__uint32_t\000"
 8342      6E743332 
 8342      5F7400
 8343              	.LASF158:
 8344 4d5a 5F5F4C44 		.ascii	"__LDBL_MAX__ 1.7976931348623157e+308L\000"
 8344      424C5F4D 
 8344      41585F5F 
 8344      20312E37 
 8344      39373639 
 8345              	.LASF336:
 8346 4d80 5F5F4152 		.ascii	"__ARM_ARCH 7\000"
 8346      4D5F4152 
 8346      43482037 
 8346      00
 8347              	.LASF989:
 8348 4d8d 434C4B50 		.ascii	"CLKPWR_PCONP_PCUART0 ((uint32_t)(1<<3))\000"
 8348      57525F50 
 8348      434F4E50 
 8348      5F504355 
 8348      41525430 
 8349              	.LASF815:
 8350 4db5 4C50435F 		.ascii	"LPC_RIT ((LPC_RIT_TypeDef *) LPC_RIT_BASE )\000"
 8350      52495420 
 8350      28284C50 
 8350      435F5249 
 8350      545F5479 
ARM GAS  C:\Users\COSMIN~1.MAR\AppData\Local\Temp\cccNbcra.s 			page 200


 8351              	.LASF909:
 8352 4de1 434C4B50 		.ascii	"CLKPWR_CLKOUTCFG_CLKOUTSEL_USB ((uint32_t)(0x03))\000"
 8352      57525F43 
 8352      4C4B4F55 
 8352      54434647 
 8352      5F434C4B 
 8353              	.LASF122:
 8354 4e13 5F5F464C 		.ascii	"__FLT_RADIX__ 2\000"
 8354      545F5241 
 8354      4449585F 
 8354      5F203200 
 8355              	.LASF1029:
 8356 4e23 50494E53 		.ascii	"PINSEL_PIN_1 ((1))\000"
 8356      454C5F50 
 8356      494E5F31 
 8356      20282831 
 8356      292900
 8357              	.LASF1109:
 8358 4e36 6C6F6E67 		.ascii	"long long int\000"
 8358      206C6F6E 
 8358      6720696E 
 8358      7400
 8359              	.LASF775:
 8360 4e44 4C50435F 		.ascii	"LPC_I2C1_BASE (LPC_APB0_BASE + 0x5C000)\000"
 8360      49324331 
 8360      5F424153 
 8360      4520284C 
 8360      50435F41 
 8361              	.LASF1002:
 8362 4e6c 434C4B50 		.ascii	"CLKPWR_PCONP_PCQEI ((uint32_t)(1<<18))\000"
 8362      57525F50 
 8362      434F4E50 
 8362      5F504351 
 8362      45492028 
 8363              	.LASF74:
 8364 4e93 5F5F5749 		.ascii	"__WINT_MAX__ 4294967295U\000"
 8364      4E545F4D 
 8364      41585F5F 
 8364      20343239 
 8364      34393637 
 8365              	.LASF916:
 8366 4eac 434C4B50 		.ascii	"CLKPWR_PLL0CON_CONNECT ((uint32_t)(0x02))\000"
 8366      57525F50 
 8366      4C4C3043 
 8366      4F4E5F43 
 8366      4F4E4E45 
 8367              	.LASF557:
 8368 4ed6 5343425F 		.ascii	"SCB_SHCSR_USGFAULTACT_Msk (1UL << SCB_SHCSR_USGFAUL"
 8368      53484353 
 8368      525F5553 
 8368      47464155 
 8368      4C544143 
 8369 4f09 54414354 		.ascii	"TACT_Pos)\000"
 8369      5F506F73 
 8369      2900
 8370              	.LASF820:
 8371 4f13 4C50435F 		.ascii	"LPC_PWM1 ((LPC_PWM_TypeDef *) LPC_PWM1_BASE )\000"
ARM GAS  C:\Users\COSMIN~1.MAR\AppData\Local\Temp\cccNbcra.s 			page 201


 8371      50574D31 
 8371      2028284C 
 8371      50435F50 
 8371      574D5F54 
 8372              	.LASF992:
 8373 4f41 434C4B50 		.ascii	"CLKPWR_PCONP_PCI2C0 ((uint32_t)(1<<7))\000"
 8373      57525F50 
 8373      434F4E50 
 8373      5F504349 
 8373      32433020 
 8374              	.LASF861:
 8375 4f68 4E554C4C 		.ascii	"NULL ((void*) 0)\000"
 8375      20282876 
 8375      6F69642A 
 8375      29203029 
 8375      00
 8376              	.LASF799:
 8377 4f79 4C50435F 		.ascii	"LPC_GPIO0_BASE (LPC_GPIO_BASE + 0x00000)\000"
 8377      4750494F 
 8377      305F4241 
 8377      53452028 
 8377      4C50435F 
 8378              	.LASF287:
 8379 4fa2 5F5F4841 		.ascii	"__HA_IBIT__ 8\000"
 8379      5F494249 
 8379      545F5F20 
 8379      3800
 8380              	.LASF687:
 8381 4fb0 436F7265 		.ascii	"CoreDebug_DHCSR_S_SLEEP_Msk (1UL << CoreDebug_DHCSR"
 8381      44656275 
 8381      675F4448 
 8381      4353525F 
 8381      535F534C 
 8382 4fe3 5F535F53 		.ascii	"_S_SLEEP_Pos)\000"
 8382      4C454550 
 8382      5F506F73 
 8382      2900
 8383              	.LASF304:
 8384 4ff1 5F5F474E 		.ascii	"__GNUC_GNU_INLINE__ 1\000"
 8384      55435F47 
 8384      4E555F49 
 8384      4E4C494E 
 8384      455F5F20 
 8385              	.LASF723:
 8386 5007 436F7265 		.ascii	"CoreDebug_DEMCR_VC_STATERR_Msk (1UL << CoreDebug_DE"
 8386      44656275 
 8386      675F4445 
 8386      4D43525F 
 8386      56435F53 
 8387 503a 4D43525F 		.ascii	"MCR_VC_STATERR_Pos)\000"
 8387      56435F53 
 8387      54415445 
 8387      52525F50 
 8387      6F732900 
 8388              	.LASF800:
 8389 504e 4C50435F 		.ascii	"LPC_GPIO1_BASE (LPC_GPIO_BASE + 0x00020)\000"
 8389      4750494F 
ARM GAS  C:\Users\COSMIN~1.MAR\AppData\Local\Temp\cccNbcra.s 			page 202


 8389      315F4241 
 8389      53452028 
 8389      4C50435F 
 8390              	.LASF439:
 8391 5077 494E544D 		.ascii	"INTMAX_MAX __INTMAX_MAX__\000"
 8391      41585F4D 
 8391      4158205F 
 8391      5F494E54 
 8391      4D41585F 
 8392              	.LASF626:
 8393 5091 49544D5F 		.ascii	"ITM_LSR_ByteAcc_Pos 2\000"
 8393      4C53525F 
 8393      42797465 
 8393      4163635F 
 8393      506F7320 
 8394              	.LASF1158:
 8395 50a7 52657365 		.ascii	"ResetOnMatch\000"
 8395      744F6E4D 
 8395      61746368 
 8395      00
 8396              	.LASF1160:
 8397 50b4 4D617463 		.ascii	"MatchValue\000"
 8397      6856616C 
 8397      756500
 8398              	.LASF1013:
 8399 50bf 434C4B50 		.ascii	"CLKPWR_PCONP_PCUSB ((uint32_t)(1<<31))\000"
 8399      57525F50 
 8399      434F4E50 
 8399      5F504355 
 8399      53422028 
 8400              	.LASF1040:
 8401 50e6 50494E53 		.ascii	"PINSEL_PIN_12 ((12))\000"
 8401      454C5F50 
 8401      494E5F31 
 8401      32202828 
 8401      31322929 
 8402              	.LASF41:
 8403 50fb 5F5F494E 		.ascii	"__INT64_TYPE__ long long int\000"
 8403      5436345F 
 8403      54595045 
 8403      5F5F206C 
 8403      6F6E6720 
 8404              	.LASF206:
 8405 5118 5F5F4C46 		.ascii	"__LFRACT_FBIT__ 31\000"
 8405      52414354 
 8405      5F464249 
 8405      545F5F20 
 8405      333100
 8406              	.LASF21:
 8407 512b 5F5F4348 		.ascii	"__CHAR_BIT__ 8\000"
 8407      41525F42 
 8407      49545F5F 
 8407      203800
 8408              	.LASF323:
 8409 513a 5F5F5349 		.ascii	"__SIZEOF_WCHAR_T__ 4\000"
 8409      5A454F46 
 8409      5F574348 
ARM GAS  C:\Users\COSMIN~1.MAR\AppData\Local\Temp\cccNbcra.s 			page 203


 8409      41525F54 
 8409      5F5F2034 
 8410              	.LASF714:
 8411 514f 436F7265 		.ascii	"CoreDebug_DEMCR_MON_EN_Pos 16\000"
 8411      44656275 
 8411      675F4445 
 8411      4D43525F 
 8411      4D4F4E5F 
 8412              	.LASF412:
 8413 516d 494E545F 		.ascii	"INT_LEAST16_MIN (-__INT_LEAST16_MAX__ - 1)\000"
 8413      4C454153 
 8413      5431365F 
 8413      4D494E20 
 8413      282D5F5F 
 8414              	.LASF465:
 8415 5198 5F5F434F 		.ascii	"__CORE_CMFUNC_H__ \000"
 8415      52455F43 
 8415      4D46554E 
 8415      435F485F 
 8415      5F2000
 8416              	.LASF88:
 8417 51ab 5F5F5549 		.ascii	"__UINT8_MAX__ 255\000"
 8417      4E54385F 
 8417      4D41585F 
 8417      5F203235 
 8417      3500
 8418              	.LASF979:
 8419 51bd 434C4B50 		.ascii	"CLKPWR_PCLKSEL_I2C2 ((uint32_t)(52))\000"
 8419      57525F50 
 8419      434C4B53 
 8419      454C5F49 
 8419      32433220 
 8420              	.LASF492:
 8421 51e2 5343425F 		.ascii	"SCB_ICSR_VECTPENDING_Pos 12\000"
 8421      49435352 
 8421      5F564543 
 8421      5450454E 
 8421      44494E47 
 8422              	.LASF733:
 8423 51fe 49544D5F 		.ascii	"ITM_BASE (0xE0000000UL)\000"
 8423      42415345 
 8423      20283078 
 8423      45303030 
 8423      30303030 
 8424              	.LASF204:
 8425 5216 5F5F5546 		.ascii	"__UFRACT_MAX__ 0XFFFFP-16UR\000"
 8425      52414354 
 8425      5F4D4158 
 8425      5F5F2030 
 8425      58464646 
 8426              	.LASF613:
 8427 5232 49544D5F 		.ascii	"ITM_TCR_DWTENA_Msk (1UL << ITM_TCR_DWTENA_Pos)\000"
 8427      5443525F 
 8427      44575445 
 8427      4E415F4D 
 8427      736B2028 
 8428              	.LASF382:
ARM GAS  C:\Users\COSMIN~1.MAR\AppData\Local\Temp\cccNbcra.s 			page 204


 8429 5261 5F5F5F69 		.ascii	"___int_least64_t_defined 1\000"
 8429      6E745F6C 
 8429      65617374 
 8429      36345F74 
 8429      5F646566 
 8430              	.LASF805:
 8431 527c 4C50435F 		.ascii	"LPC_GPIO0 ((LPC_GPIO_TypeDef *) LPC_GPIO0_BASE )\000"
 8431      4750494F 
 8431      30202828 
 8431      4C50435F 
 8431      4750494F 
 8432              	.LASF1203:
 8433 52ad 49544D5F 		.ascii	"ITM_RxBuffer\000"
 8433      52784275 
 8433      66666572 
 8433      00
 8434              	.LASF495:
 8435 52ba 5343425F 		.ascii	"SCB_ICSR_RETTOBASE_Msk (1UL << SCB_ICSR_RETTOBASE_P"
 8435      49435352 
 8435      5F524554 
 8435      544F4241 
 8435      53455F4D 
 8436 52ed 6F732900 		.ascii	"os)\000"
 8437              	.LASF470:
 8438 52f1 5343425F 		.ascii	"SCB_CPUID_IMPLEMENTER_Pos 24\000"
 8438      43505549 
 8438      445F494D 
 8438      504C454D 
 8438      454E5445 
 8439              	.LASF1163:
 8440 530e 52697369 		.ascii	"RisingEdge\000"
 8440      6E674564 
 8440      676500
 8441              	.LASF988:
 8442 5319 434C4B50 		.ascii	"CLKPWR_PCONP_PCTIM1 ((uint32_t)(1<<2))\000"
 8442      57525F50 
 8442      434F4E50 
 8442      5F504354 
 8442      494D3120 
 8443              	.LASF374:
 8444 5340 5F5F4558 		.ascii	"__EXP(x) __ ##x ##__\000"
 8444      50287829 
 8444      205F5F20 
 8444      23237820 
 8444      23235F5F 
 8445              	.LASF26:
 8446 5355 5F5F4259 		.ascii	"__BYTE_ORDER__ __ORDER_LITTLE_ENDIAN__\000"
 8446      54455F4F 
 8446      52444552 
 8446      5F5F205F 
 8446      5F4F5244 
 8447              	.LASF980:
 8448 537c 434C4B50 		.ascii	"CLKPWR_PCLKSEL_I2S ((uint32_t)(54))\000"
 8448      57525F50 
 8448      434C4B53 
 8448      454C5F49 
 8448      32532028 
ARM GAS  C:\Users\COSMIN~1.MAR\AppData\Local\Temp\cccNbcra.s 			page 205


 8449              	.LASF569:
 8450 53a0 5343425F 		.ascii	"SCB_HFSR_DEBUGEVT_Msk (1UL << SCB_HFSR_DEBUGEVT_Pos"
 8450      48465352 
 8450      5F444542 
 8450      55474556 
 8450      545F4D73 
 8451 53d3 2900     		.ascii	")\000"
 8452              	.LASF438:
 8453 53d5 55494E54 		.ascii	"UINT_FAST64_MAX __UINT_FAST64_MAX__\000"
 8453      5F464153 
 8453      5436345F 
 8453      4D415820 
 8453      5F5F5549 
 8454              	.LASF731:
 8455 53f9 436F7265 		.ascii	"CoreDebug_DEMCR_VC_CORERESET_Msk (1UL << CoreDebug_"
 8455      44656275 
 8455      675F4445 
 8455      4D43525F 
 8455      56435F43 
 8456 542c 44454D43 		.ascii	"DEMCR_VC_CORERESET_Pos)\000"
 8456      525F5643 
 8456      5F434F52 
 8456      45524553 
 8456      45545F50 
 8457              	.LASF784:
 8458 5444 4C50435F 		.ascii	"LPC_RIT_BASE (LPC_APB1_BASE + 0x30000)\000"
 8458      5249545F 
 8458      42415345 
 8458      20284C50 
 8458      435F4150 
 8459              	.LASF691:
 8460 546b 436F7265 		.ascii	"CoreDebug_DHCSR_S_REGRDY_Msk (1UL << CoreDebug_DHCS"
 8460      44656275 
 8460      675F4448 
 8460      4353525F 
 8460      535F5245 
 8461 549e 525F535F 		.ascii	"R_S_REGRDY_Pos)\000"
 8461      52454752 
 8461      44595F50 
 8461      6F732900 
 8462              	.LASF1042:
 8463 54ae 50494E53 		.ascii	"PINSEL_PIN_14 ((14))\000"
 8463      454C5F50 
 8463      494E5F31 
 8463      34202828 
 8463      31342929 
 8464              	.LASF1070:
 8465 54c3 5F554152 		.ascii	"_UART 1\000"
 8465      54203100 
 8466              	.LASF621:
 8467 54cb 49544D5F 		.ascii	"ITM_IWR_ATVALIDM_Msk (1UL << ITM_IWR_ATVALIDM_Pos)\000"
 8467      4957525F 
 8467      41545641 
 8467      4C49444D 
 8467      5F4D736B 
 8468              	.LASF904:
 8469 54fe 434C4B50 		.ascii	"CLKPWR_CLKSRCSEL_CLKSRC_RTC ((uint32_t)(0x02))\000"
ARM GAS  C:\Users\COSMIN~1.MAR\AppData\Local\Temp\cccNbcra.s 			page 206


 8469      57525F43 
 8469      4C4B5352 
 8469      4353454C 
 8469      5F434C4B 
 8470              	.LASF32:
 8471 552d 5F5F5749 		.ascii	"__WINT_TYPE__ unsigned int\000"
 8471      4E545F54 
 8471      5950455F 
 8471      5F20756E 
 8471      7369676E 
 8472              	.LASF282:
 8473 5548 5F5F5544 		.ascii	"__UDQ_FBIT__ 64\000"
 8473      515F4642 
 8473      49545F5F 
 8473      20363400 
 8474              	.LASF366:
 8475 5558 5F5F494E 		.ascii	"__INLINE inline\000"
 8475      4C494E45 
 8475      20696E6C 
 8475      696E6500 
 8476              	.LASF1175:
 8477 5568 54494D5F 		.ascii	"TIM_GetIntStatus\000"
 8477      47657449 
 8477      6E745374 
 8477      61747573 
 8477      00
 8478              	.LASF1156:
 8479 5579 496E744F 		.ascii	"IntOnMatch\000"
 8479      6E4D6174 
 8479      636800
 8480              	.LASF548:
 8481 5584 5343425F 		.ascii	"SCB_SHCSR_SYSTICKACT_Pos 11\000"
 8481      53484353 
 8481      525F5359 
 8481      53544943 
 8481      4B414354 
 8482              	.LASF1196:
 8483 55a0 54494D5F 		.ascii	"TIM_GetCaptureValue\000"
 8483      47657443 
 8483      61707475 
 8483      72655661 
 8483      6C756500 
 8484              	.LASF1092:
 8485 55b4 5F555342 		.ascii	"_USBDEV 1\000"
 8485      44455620 
 8485      3100
 8486              	.LASF622:
 8487 55be 49544D5F 		.ascii	"ITM_IRR_ATREADYM_Pos 0\000"
 8487      4952525F 
 8487      41545245 
 8487      4144594D 
 8487      5F506F73 
 8488              	.LASF1159:
 8489 55d5 4578744D 		.ascii	"ExtMatchOutputType\000"
 8489      61746368 
 8489      4F757470 
 8489      75745479 
ARM GAS  C:\Users\COSMIN~1.MAR\AppData\Local\Temp\cccNbcra.s 			page 207


 8489      706500
 8490              	.LASF486:
 8491 55e8 5343425F 		.ascii	"SCB_ICSR_PENDSTCLR_Pos 25\000"
 8491      49435352 
 8491      5F50454E 
 8491      44535443 
 8491      4C525F50 
 8492              	.LASF1112:
 8493 5602 756E7369 		.ascii	"unsigned int\000"
 8493      676E6564 
 8493      20696E74 
 8493      00
 8494              	.LASF199:
 8495 560f 5F5F4652 		.ascii	"__FRACT_MAX__ 0X7FFFP-15R\000"
 8495      4143545F 
 8495      4D41585F 
 8495      5F203058 
 8495      37464646 
 8496              	.LASF371:
 8497 5629 5F5F4E45 		.ascii	"__NEWLIB_MINOR__ 2\000"
 8497      574C4942 
 8497      5F4D494E 
 8497      4F525F5F 
 8497      203200
 8498              	.LASF125:
 8499 563c 5F5F464C 		.ascii	"__FLT_MIN_EXP__ (-125)\000"
 8499      545F4D49 
 8499      4E5F4558 
 8499      505F5F20 
 8499      282D3132 
 8500              	.LASF121:
 8501 5653 5F5F4445 		.ascii	"__DEC_EVAL_METHOD__ 2\000"
 8501      435F4556 
 8501      414C5F4D 
 8501      4554484F 
 8501      445F5F20 
 8502              	.LASF456:
 8503 5669 55494E54 		.ascii	"UINT32_C(x) __UINT32_C(x)\000"
 8503      33325F43 
 8503      28782920 
 8503      5F5F5549 
 8503      4E543332 
 8504              	.LASF473:
 8505 5683 5343425F 		.ascii	"SCB_CPUID_VARIANT_Msk (0xFUL << SCB_CPUID_VARIANT_P"
 8505      43505549 
 8505      445F5641 
 8505      5249414E 
 8505      545F4D73 
 8506 56b6 6F732900 		.ascii	"os)\000"
 8507              	.LASF264:
 8508 56ba 5F5F554C 		.ascii	"__ULLACCUM_MAX__ 0XFFFFFFFFFFFFFFFFP-32ULLK\000"
 8508      4C414343 
 8508      554D5F4D 
 8508      41585F5F 
 8508      20305846 
 8509              	.LASF1190:
 8510 56e6 4E657753 		.ascii	"NewState\000"
ARM GAS  C:\Users\COSMIN~1.MAR\AppData\Local\Temp\cccNbcra.s 			page 208


 8510      74617465 
 8510      00
 8511              	.LASF232:
 8512 56ef 5F5F5553 		.ascii	"__USACCUM_IBIT__ 8\000"
 8512      41434355 
 8512      4D5F4942 
 8512      49545F5F 
 8512      203800
 8513              	.LASF1030:
 8514 5702 50494E53 		.ascii	"PINSEL_PIN_2 ((2))\000"
 8514      454C5F50 
 8514      494E5F32 
 8514      20282832 
 8514      292900
 8515              	.LASF427:
 8516 5715 494E545F 		.ascii	"INT_FAST8_MIN (-__INT_FAST8_MAX__ - 1)\000"
 8516      46415354 
 8516      385F4D49 
 8516      4E20282D 
 8516      5F5F494E 
 8517              	.LASF763:
 8518 573c 4C50435F 		.ascii	"LPC_I2C0_BASE (LPC_APB0_BASE + 0x1C000)\000"
 8518      49324330 
 8518      5F424153 
 8518      4520284C 
 8518      50435F41 
 8519              	.LASF117:
 8520 5764 5F5F5549 		.ascii	"__UINTPTR_MAX__ 4294967295U\000"
 8520      4E545054 
 8520      525F4D41 
 8520      585F5F20 
 8520      34323934 
 8521              	.LASF927:
 8522 5780 434C4B50 		.ascii	"CLKPWR_PLL1CON_ENABLE ((uint32_t)(0x01))\000"
 8522      57525F50 
 8522      4C4C3143 
 8522      4F4E5F45 
 8522      4E41424C 
 8523              	.LASF124:
 8524 57a9 5F5F464C 		.ascii	"__FLT_DIG__ 6\000"
 8524      545F4449 
 8524      475F5F20 
 8524      3600
 8525              	.LASF34:
 8526 57b7 5F5F5549 		.ascii	"__UINTMAX_TYPE__ long long unsigned int\000"
 8526      4E544D41 
 8526      585F5459 
 8526      50455F5F 
 8526      206C6F6E 
 8527              	.LASF641:
 8528 57df 4D50555F 		.ascii	"MPU_TYPE_IREGION_Msk (0xFFUL << MPU_TYPE_IREGION_Po"
 8528      54595045 
 8528      5F495245 
 8528      47494F4E 
 8528      5F4D736B 
 8529 5812 732900   		.ascii	"s)\000"
 8530              	.LASF750:
ARM GAS  C:\Users\COSMIN~1.MAR\AppData\Local\Temp\cccNbcra.s 			page 209


 8531 5815 4C50435F 		.ascii	"LPC_AHBRAM0_BASE (0x2007C000UL)\000"
 8531      41484252 
 8531      414D305F 
 8531      42415345 
 8531      20283078 
 8532              	.LASF120:
 8533 5835 5F5F464C 		.ascii	"__FLT_EVAL_METHOD__ 0\000"
 8533      545F4556 
 8533      414C5F4D 
 8533      4554484F 
 8533      445F5F20 
 8534              	.LASF397:
 8535 584b 5F5F696E 		.ascii	"__int_fast16_t_defined 1\000"
 8535      745F6661 
 8535      73743136 
 8535      5F745F64 
 8535      6566696E 
 8536              	.LASF348:
 8537 5864 5F5F4152 		.ascii	"__ARM_ARCH_7M__ 1\000"
 8537      4D5F4152 
 8537      43485F37 
 8537      4D5F5F20 
 8537      3100
 8538              	.LASF744:
 8539 5876 4D50555F 		.ascii	"MPU_BASE (SCS_BASE + 0x0D90UL)\000"
 8539      42415345 
 8539      20285343 
 8539      535F4241 
 8539      5345202B 
 8540              	.LASF999:
 8541 5895 434C4B50 		.ascii	"CLKPWR_PCONP_PCGPIO ((uint32_t)(1<<15))\000"
 8541      57525F50 
 8541      434F4E50 
 8541      5F504347 
 8541      50494F20 
 8542              	.LASF116:
 8543 58bd 5F5F494E 		.ascii	"__INTPTR_MAX__ 2147483647\000"
 8543      54505452 
 8543      5F4D4158 
 8543      5F5F2032 
 8543      31343734 
 8544              	.LASF276:
 8545 58d7 5F5F5551 		.ascii	"__UQQ_FBIT__ 8\000"
 8545      515F4642 
 8545      49545F5F 
 8545      203800
 8546              	.LASF595:
 8547 58e6 53797354 		.ascii	"SysTick_VAL_CURRENT_Msk (0xFFFFFFUL << SysTick_VAL_"
 8547      69636B5F 
 8547      56414C5F 
 8547      43555252 
 8547      454E545F 
 8548 5919 43555252 		.ascii	"CURRENT_Pos)\000"
 8548      454E545F 
 8548      506F7329 
 8548      00
 8549              	.LASF173:
ARM GAS  C:\Users\COSMIN~1.MAR\AppData\Local\Temp\cccNbcra.s 			page 210


 8550 5926 5F5F4445 		.ascii	"__DEC64_MIN_EXP__ (-382)\000"
 8550      4336345F 
 8550      4D494E5F 
 8550      4558505F 
 8550      5F20282D 
 8551              	.LASF118:
 8552 593f 5F5F4743 		.ascii	"__GCC_IEC_559 0\000"
 8552      435F4945 
 8552      435F3535 
 8552      39203000 
 8553              	.LASF885:
 8554 594f 54494D5F 		.ascii	"TIM_EM_HIGH ((uint8_t)(0x2))\000"
 8554      454D5F48 
 8554      49474820 
 8554      28287569 
 8554      6E74385F 
 8555              	.LASF1149:
 8556 596c 52657365 		.ascii	"Reserved\000"
 8556      72766564 
 8556      00
 8557              	.LASF413:
 8558 5975 494E545F 		.ascii	"INT_LEAST16_MAX __INT_LEAST16_MAX__\000"
 8558      4C454153 
 8558      5431365F 
 8558      4D415820 
 8558      5F5F494E 
 8559              	.LASF209:
 8560 5999 5F5F4C46 		.ascii	"__LFRACT_MAX__ 0X7FFFFFFFP-31LR\000"
 8560      52414354 
 8560      5F4D4158 
 8560      5F5F2030 
 8560      58374646 
 8561              	.LASF325:
 8562 59b9 5F5F5349 		.ascii	"__SIZEOF_PTRDIFF_T__ 4\000"
 8562      5A454F46 
 8562      5F505452 
 8562      44494646 
 8562      5F545F5F 
 8563              	.LASF0:
 8564 59d0 5F5F5354 		.ascii	"__STDC__ 1\000"
 8564      44435F5F 
 8564      203100
 8565              	.LASF884:
 8566 59db 54494D5F 		.ascii	"TIM_EM_LOW ((uint8_t)(0x1))\000"
 8566      454D5F4C 
 8566      4F572028 
 8566      2875696E 
 8566      74385F74 
 8567              	.LASF379:
 8568 59f7 5F5F5F69 		.ascii	"___int_least8_t_defined 1\000"
 8568      6E745F6C 
 8568      65617374 
 8568      385F745F 
 8568      64656669 
 8569              	.LASF27:
 8570 5a11 5F5F464C 		.ascii	"__FLOAT_WORD_ORDER__ __ORDER_LITTLE_ENDIAN__\000"
 8570      4F41545F 
ARM GAS  C:\Users\COSMIN~1.MAR\AppData\Local\Temp\cccNbcra.s 			page 211


 8570      574F5244 
 8570      5F4F5244 
 8570      45525F5F 
 8571              	.LASF42:
 8572 5a3e 5F5F5549 		.ascii	"__UINT8_TYPE__ unsigned char\000"
 8572      4E54385F 
 8572      54595045 
 8572      5F5F2075 
 8572      6E736967 
 8573              	.LASF1050:
 8574 5a5b 50494E53 		.ascii	"PINSEL_PIN_22 ((22))\000"
 8574      454C5F50 
 8574      494E5F32 
 8574      32202828 
 8574      32322929 
 8575              	.LASF946:
 8576 5a70 434C4B50 		.ascii	"CLKPWR_PCLKSEL_GET(p,n) ((uint32_t)((n>>p)&0x03))\000"
 8576      57525F50 
 8576      434C4B53 
 8576      454C5F47 
 8576      45542870 
 8577              	.LASF396:
 8578 5aa2 5F5F696E 		.ascii	"__int_fast8_t_defined 1\000"
 8578      745F6661 
 8578      7374385F 
 8578      745F6465 
 8578      66696E65 
 8579              	.LASF1031:
 8580 5aba 50494E53 		.ascii	"PINSEL_PIN_3 ((3))\000"
 8580      454C5F50 
 8580      494E5F33 
 8580      20282833 
 8580      292900
 8581              	.LASF1077:
 8582 5acd 5F535350 		.ascii	"_SSP0 1\000"
 8582      30203100 
 8583              	.LASF423:
 8584 5ad5 55494E54 		.ascii	"UINT64_MAX __UINT64_MAX__\000"
 8584      36345F4D 
 8584      4158205F 
 8584      5F55494E 
 8584      5436345F 
 8585              	.LASF807:
 8586 5aef 4C50435F 		.ascii	"LPC_GPIO2 ((LPC_GPIO_TypeDef *) LPC_GPIO2_BASE )\000"
 8586      4750494F 
 8586      32202828 
 8586      4C50435F 
 8586      4750494F 
 8587              	.LASF886:
 8588 5b20 54494D5F 		.ascii	"TIM_EM_TOGGLE ((uint8_t)(0x3))\000"
 8588      454D5F54 
 8588      4F47474C 
 8588      45202828 
 8588      75696E74 
 8589              	.LASF896:
 8590 5b3f 50415241 		.ascii	"PARAM_TIM_PRESCALE_OPT(OPT) ((OPT == TIM_PRESCALE_T"
 8590      4D5F5449 
ARM GAS  C:\Users\COSMIN~1.MAR\AppData\Local\Temp\cccNbcra.s 			page 212


 8590      4D5F5052 
 8590      45534341 
 8590      4C455F4F 
 8591 5b72 49434B56 		.ascii	"ICKVAL)||(OPT == TIM_PRESCALE_USVAL))\000"
 8591      414C297C 
 8591      7C284F50 
 8591      54203D3D 
 8591      2054494D 
 8592              	.LASF179:
 8593 5b98 5F5F4445 		.ascii	"__DEC128_MANT_DIG__ 34\000"
 8593      43313238 
 8593      5F4D414E 
 8593      545F4449 
 8593      475F5F20 
 8594              	.LASF82:
 8595 5baf 5F5F5349 		.ascii	"__SIG_ATOMIC_MAX__ 2147483647\000"
 8595      475F4154 
 8595      4F4D4943 
 8595      5F4D4158 
 8595      5F5F2032 
 8596              	.LASF1035:
 8597 5bcd 50494E53 		.ascii	"PINSEL_PIN_7 ((7))\000"
 8597      454C5F50 
 8597      494E5F37 
 8597      20282837 
 8597      292900
 8598              	.LASF670:
 8599 5be0 4D50555F 		.ascii	"MPU_RASR_B_Pos 16\000"
 8599      52415352 
 8599      5F425F50 
 8599      6F732031 
 8599      3600
 8600              	.LASF296:
 8601 5bf2 5F5F5553 		.ascii	"__USA_FBIT__ 16\000"
 8601      415F4642 
 8601      49545F5F 
 8601      20313600 
 8602              	.LASF1094:
 8603 5c02 5F514549 		.ascii	"_QEI 1\000"
 8603      203100
 8604              	.LASF570:
 8605 5c09 5343425F 		.ascii	"SCB_HFSR_FORCED_Pos 30\000"
 8605      48465352 
 8605      5F464F52 
 8605      4345445F 
 8605      506F7320 
 8606              	.LASF1020:
 8607 5c20 50494E53 		.ascii	"PINSEL_PORT_1 ((1))\000"
 8607      454C5F50 
 8607      4F52545F 
 8607      31202828 
 8607      31292900 
 8608              	.LASF959:
 8609 5c34 434C4B50 		.ascii	"CLKPWR_PCLKSEL_TIMER1 ((uint32_t)(4))\000"
 8609      57525F50 
 8609      434C4B53 
 8609      454C5F54 
ARM GAS  C:\Users\COSMIN~1.MAR\AppData\Local\Temp\cccNbcra.s 			page 213


 8609      494D4552 
 8610              	.LASF311:
 8611 5c5a 5F5F4743 		.ascii	"__GCC_ATOMIC_CHAR_LOCK_FREE 2\000"
 8611      435F4154 
 8611      4F4D4943 
 8611      5F434841 
 8611      525F4C4F 
 8612              	.LASF1091:
 8613 5c78 5F493253 		.ascii	"_I2S 1\000"
 8613      203100
 8614              	.LASF210:
 8615 5c7f 5F5F4C46 		.ascii	"__LFRACT_EPSILON__ 0x1P-31LR\000"
 8615      52414354 
 8615      5F455053 
 8615      494C4F4E 
 8615      5F5F2030 
 8616              	.LASF444:
 8617 5c9c 5349475F 		.ascii	"SIG_ATOMIC_MAX __STDINT_EXP(INT_MAX)\000"
 8617      41544F4D 
 8617      49435F4D 
 8617      4158205F 
 8617      5F535444 
 8618              	.LASF332:
 8619 5cc1 5F5F4152 		.ascii	"__ARM_SIZEOF_MINIMAL_ENUM 1\000"
 8619      4D5F5349 
 8619      5A454F46 
 8619      5F4D494E 
 8619      494D414C 
 8620              	.LASF92:
 8621 5cdd 5F5F494E 		.ascii	"__INT_LEAST8_MAX__ 127\000"
 8621      545F4C45 
 8621      41535438 
 8621      5F4D4158 
 8621      5F5F2031 
 8622              	.LASF541:
 8623 5cf4 5343425F 		.ascii	"SCB_SHCSR_SVCALLPENDED_Msk (1UL << SCB_SHCSR_SVCALL"
 8623      53484353 
 8623      525F5356 
 8623      43414C4C 
 8623      50454E44 
 8624 5d27 50454E44 		.ascii	"PENDED_Pos)\000"
 8624      45445F50 
 8624      6F732900 
 8625              	.LASF796:
 8626 5d33 4C50435F 		.ascii	"LPC_GPDMACH6_BASE (LPC_AHB_BASE + 0x041C0)\000"
 8626      4750444D 
 8626      41434836 
 8626      5F424153 
 8626      4520284C 
 8627              	.LASF335:
 8628 5d5e 5F5F6172 		.ascii	"__arm__ 1\000"
 8628      6D5F5F20 
 8628      3100
 8629              	.LASF970:
 8630 5d68 434C4B50 		.ascii	"CLKPWR_PCLKSEL_ACF ((uint32_t)(30))\000"
 8630      57525F50 
 8630      434C4B53 
ARM GAS  C:\Users\COSMIN~1.MAR\AppData\Local\Temp\cccNbcra.s 			page 214


 8630      454C5F41 
 8630      43462028 
 8631              	.LASF1139:
 8632 5d8c 54494D5F 		.ascii	"TIM_COUNTER_ANY_MODE\000"
 8632      434F554E 
 8632      5445525F 
 8632      414E595F 
 8632      4D4F4445 
 8633              	.LASF1003:
 8634 5da1 434C4B50 		.ascii	"CLKPWR_PCONP_PCI2C1 ((uint32_t)(1<<19))\000"
 8634      57525F50 
 8634      434F4E50 
 8634      5F504349 
 8634      32433120 
 8635              	.LASF1121:
 8636 5dc9 4C50435F 		.ascii	"LPC_TIM_TypeDef\000"
 8636      54494D5F 
 8636      54797065 
 8636      44656600 
 8637              	.LASF990:
 8638 5dd9 434C4B50 		.ascii	"CLKPWR_PCONP_PCUART1 ((uint32_t)(1<<4))\000"
 8638      57525F50 
 8638      434F4E50 
 8638      5F504355 
 8638      41525431 
 8639              	.LASF580:
 8640 5e01 5343425F 		.ascii	"SCB_DFSR_BKPT_Pos 1\000"
 8640      44465352 
 8640      5F424B50 
 8640      545F506F 
 8640      73203100 
 8641              	.LASF1016:
 8642 5e15 50494E53 		.ascii	"PINSEL_I2CPADCFG_SDAI2C0 _BIT(1)\000"
 8642      454C5F49 
 8642      32435041 
 8642      44434647 
 8642      5F534441 
 8643              	.LASF409:
 8644 5e36 494E5431 		.ascii	"INT16_MIN (-__INT16_MAX__ - 1)\000"
 8644      365F4D49 
 8644      4E20282D 
 8644      5F5F494E 
 8644      5431365F 
 8645              	.LASF745:
 8646 5e55 4D505520 		.ascii	"MPU ((MPU_Type*) MPU_BASE)\000"
 8646      28284D50 
 8646      555F5479 
 8646      70652A29 
 8646      204D5055 
 8647              	.LASF404:
 8648 5e70 494E5438 		.ascii	"INT8_MAX __INT8_MAX__\000"
 8648      5F4D4158 
 8648      205F5F49 
 8648      4E54385F 
 8648      4D41585F 
 8649              	.LASF736:
 8650 5e86 4E564943 		.ascii	"NVIC_BASE (SCS_BASE + 0x0100UL)\000"
ARM GAS  C:\Users\COSMIN~1.MAR\AppData\Local\Temp\cccNbcra.s 			page 215


 8650      5F424153 
 8650      45202853 
 8650      43535F42 
 8650      41534520 
 8651              	.LASF768:
 8652 5ea6 4C50435F 		.ascii	"LPC_SSP1_BASE (LPC_APB0_BASE + 0x30000)\000"
 8652      53535031 
 8652      5F424153 
 8652      4520284C 
 8652      50435F41 
 8653              	.LASF165:
 8654 5ece 5F5F4445 		.ascii	"__DEC32_MANT_DIG__ 7\000"
 8654      4333325F 
 8654      4D414E54 
 8654      5F444947 
 8654      5F5F2037 
 8655              	.LASF436:
 8656 5ee3 494E545F 		.ascii	"INT_FAST64_MIN (-__INT_FAST64_MAX__ - 1)\000"
 8656      46415354 
 8656      36345F4D 
 8656      494E2028 
 8656      2D5F5F49 
 8657              	.LASF1131:
 8658 5f0c 54494D5F 		.ascii	"TIM_MR1_INT\000"
 8658      4D52315F 
 8658      494E5400 
 8659              	.LASF368:
 8660 5f18 5F4D4143 		.ascii	"_MACHINE__DEFAULT_TYPES_H \000"
 8660      48494E45 
 8660      5F5F4445 
 8660      4641554C 
 8660      545F5459 
 8661              	.LASF1122:
 8662 5f33 46414C53 		.ascii	"FALSE\000"
 8662      4500
 8663              	.LASF726:
 8664 5f39 436F7265 		.ascii	"CoreDebug_DEMCR_VC_NOCPERR_Pos 5\000"
 8664      44656275 
 8664      675F4445 
 8664      4D43525F 
 8664      56435F4E 
 8665              	.LASF516:
 8666 5f5a 5343425F 		.ascii	"SCB_SCR_SEVONPEND_Pos 4\000"
 8666      5343525F 
 8666      5345564F 
 8666      4E50454E 
 8666      445F506F 
 8667              	.LASF707:
 8668 5f72 436F7265 		.ascii	"CoreDebug_DEMCR_TRCENA_Msk (1UL << CoreDebug_DEMCR_"
 8668      44656275 
 8668      675F4445 
 8668      4D43525F 
 8668      54524345 
 8669 5fa5 54524345 		.ascii	"TRCENA_Pos)\000"
 8669      4E415F50 
 8669      6F732900 
 8670              	.LASF485:
ARM GAS  C:\Users\COSMIN~1.MAR\AppData\Local\Temp\cccNbcra.s 			page 216


 8671 5fb1 5343425F 		.ascii	"SCB_ICSR_PENDSTSET_Msk (1UL << SCB_ICSR_PENDSTSET_P"
 8671      49435352 
 8671      5F50454E 
 8671      44535453 
 8671      45545F4D 
 8672 5fe4 6F732900 		.ascii	"os)\000"
 8673              	.LASF594:
 8674 5fe8 53797354 		.ascii	"SysTick_VAL_CURRENT_Pos 0\000"
 8674      69636B5F 
 8674      56414C5F 
 8674      43555252 
 8674      454E545F 
 8675              	.LASF932:
 8676 6002 434C4B50 		.ascii	"CLKPWR_PLL1CFG_BITMASK ((uint32_t)(0x7F))\000"
 8676      57525F50 
 8676      4C4C3143 
 8676      46475F42 
 8676      49544D41 
 8677              	.LASF658:
 8678 602c 4D50555F 		.ascii	"MPU_RBAR_REGION_Pos 0\000"
 8678      52424152 
 8678      5F524547 
 8678      494F4E5F 
 8678      506F7320 
 8679              	.LASF488:
 8680 6042 5343425F 		.ascii	"SCB_ICSR_ISRPREEMPT_Pos 23\000"
 8680      49435352 
 8680      5F495352 
 8680      50524545 
 8680      4D50545F 
 8681              	.LASF925:
 8682 605d 434C4B50 		.ascii	"CLKPWR_PLL0STAT_PLOCK ((uint32_t)(1<<26))\000"
 8682      57525F50 
 8682      4C4C3053 
 8682      5441545F 
 8682      504C4F43 
 8683              	.LASF478:
 8684 6087 5343425F 		.ascii	"SCB_ICSR_NMIPENDSET_Pos 31\000"
 8684      49435352 
 8684      5F4E4D49 
 8684      50454E44 
 8684      5345545F 
 8685              	.LASF1064:
 8686 60a2 50494E53 		.ascii	"PINSEL_PINMODE_OPENDRAIN ((1))\000"
 8686      454C5F50 
 8686      494E4D4F 
 8686      44455F4F 
 8686      50454E44 
 8687              	.LASF1126:
 8688 60c1 44495341 		.ascii	"DISABLE\000"
 8688      424C4500 
 8689              	.LASF1069:
 8690 60c9 5F475049 		.ascii	"_GPIO 1\000"
 8690      4F203100 
 8691              	.LASF645:
 8692 60d1 4D50555F 		.ascii	"MPU_TYPE_SEPARATE_Msk (1UL << MPU_TYPE_SEPARATE_Pos"
 8692      54595045 
ARM GAS  C:\Users\COSMIN~1.MAR\AppData\Local\Temp\cccNbcra.s 			page 217


 8692      5F534550 
 8692      41524154 
 8692      455F4D73 
 8693 6104 2900     		.ascii	")\000"
 8694              	.LASF340:
 8695 6106 5F5F4152 		.ascii	"__ARM_ARCH_ISA_THUMB 2\000"
 8695      4D5F4152 
 8695      43485F49 
 8695      53415F54 
 8695      48554D42 
 8696              	.LASF106:
 8697 611d 5F5F5549 		.ascii	"__UINT_LEAST64_MAX__ 18446744073709551615ULL\000"
 8697      4E545F4C 
 8697      45415354 
 8697      36345F4D 
 8697      41585F5F 
 8698              	.LASF1044:
 8699 614a 50494E53 		.ascii	"PINSEL_PIN_16 ((16))\000"
 8699      454C5F50 
 8699      494E5F31 
 8699      36202828 
 8699      31362929 
 8700              	.LASF447:
 8701 615f 57434841 		.ascii	"WCHAR_MIN __WCHAR_MIN__\000"
 8701      525F4D49 
 8701      4E205F5F 
 8701      57434841 
 8701      525F4D49 
 8702              	.LASF1058:
 8703 6177 50494E53 		.ascii	"PINSEL_PIN_30 ((30))\000"
 8703      454C5F50 
 8703      494E5F33 
 8703      30202828 
 8703      33302929 
 8704              	.LASF108:
 8705 618c 5F5F494E 		.ascii	"__INT_FAST8_MAX__ 2147483647\000"
 8705      545F4641 
 8705      5354385F 
 8705      4D41585F 
 8705      5F203231 
 8706              	.LASF783:
 8707 61a9 4C50435F 		.ascii	"LPC_I2S_BASE (LPC_APB1_BASE + 0x28000)\000"
 8707      4932535F 
 8707      42415345 
 8707      20284C50 
 8707      435F4150 
 8708              	.LASF202:
 8709 61d0 5F5F5546 		.ascii	"__UFRACT_IBIT__ 0\000"
 8709      52414354 
 8709      5F494249 
 8709      545F5F20 
 8709      3000
 8710              	.LASF329:
 8711 61e2 5F5F4152 		.ascii	"__ARM_32BIT_STATE 1\000"
 8711      4D5F3332 
 8711      4249545F 
 8711      53544154 
ARM GAS  C:\Users\COSMIN~1.MAR\AppData\Local\Temp\cccNbcra.s 			page 218


 8711      45203100 
 8712              	.LASF93:
 8713 61f6 5F5F494E 		.ascii	"__INT8_C(c) c\000"
 8713      54385F43 
 8713      28632920 
 8713      6300
 8714              	.LASF207:
 8715 6204 5F5F4C46 		.ascii	"__LFRACT_IBIT__ 0\000"
 8715      52414354 
 8715      5F494249 
 8715      545F5F20 
 8715      3000
 8716              	.LASF359:
 8717 6216 5F5F5665 		.ascii	"__Vendor_SysTickConfig 0\000"
 8717      6E646F72 
 8717      5F537973 
 8717      5469636B 
 8717      436F6E66 
 8718              	.LASF856:
 8719 622f 5F424954 		.ascii	"_BIT(n) (1<<n)\000"
 8719      286E2920 
 8719      28313C3C 
 8719      6E2900
 8720              	.LASF1099:
 8721 623e 43484543 		.ascii	"CHECK_PARAM(expr) ((expr) ? (void)0 : check_failed("
 8721      4B5F5041 
 8721      52414D28 
 8721      65787072 
 8721      29202828 
 8722 6271 2875696E 		.ascii	"(uint8_t *)__FILE__, __LINE__))\000"
 8722      74385F74 
 8722      202A295F 
 8722      5F46494C 
 8722      455F5F2C 
 8723              	.LASF139:
 8724 6291 5F5F4442 		.ascii	"__DBL_MIN_EXP__ (-1021)\000"
 8724      4C5F4D49 
 8724      4E5F4558 
 8724      505F5F20 
 8724      282D3130 
 8725              	.LASF1148:
 8726 62a9 50726573 		.ascii	"PrescaleOption\000"
 8726      63616C65 
 8726      4F707469 
 8726      6F6E00
 8727              	.LASF908:
 8728 62b8 434C4B50 		.ascii	"CLKPWR_CLKOUTCFG_CLKOUTSEL_RC ((uint32_t)(0x02))\000"
 8728      57525F43 
 8728      4C4B4F55 
 8728      54434647 
 8728      5F434C4B 
 8729              	.LASF976:
 8730 62e9 434C4B50 		.ascii	"CLKPWR_PCLKSEL_TIMER3 ((uint32_t)(46))\000"
 8730      57525F50 
 8730      434C4B53 
 8730      454C5F54 
 8730      494D4552 
ARM GAS  C:\Users\COSMIN~1.MAR\AppData\Local\Temp\cccNbcra.s 			page 219


 8731              	.LASF677:
 8732 6310 4D50555F 		.ascii	"MPU_RASR_ENA_Msk (0x1UL << MPU_RASR_ENA_Pos)\000"
 8732      52415352 
 8732      5F454E41 
 8732      5F4D736B 
 8732      20283078 
 8733              	.LASF86:
 8734 633d 5F5F494E 		.ascii	"__INT32_MAX__ 2147483647L\000"
 8734      5433325F 
 8734      4D41585F 
 8734      5F203231 
 8734      34373438 
 8735              	.LASF898:
 8736 6357 50415241 		.ascii	"PARAM_TIM_EXTMATCH_OPT(OPT) ((OPT == TIM_EXTMATCH_N"
 8736      4D5F5449 
 8736      4D5F4558 
 8736      544D4154 
 8736      43485F4F 
 8737 638a 4F544849 		.ascii	"OTHING)||(OPT == TIM_EXTMATCH_LOW)||(OPT == TIM_EXT"
 8737      4E47297C 
 8737      7C284F50 
 8737      54203D3D 
 8737      2054494D 
 8738 63bd 4D415443 		.ascii	"MATCH_HIGH)||(OPT == TIM_EXTMATCH_TOGGLE))\000"
 8738      485F4849 
 8738      4748297C 
 8738      7C284F50 
 8738      54203D3D 
 8739              	.LASF956:
 8740 63e8 434C4B50 		.ascii	"CLKPWR_PCONP_BITMASK 0xEFEFF7DE\000"
 8740      57525F50 
 8740      434F4E50 
 8740      5F424954 
 8740      4D41534B 
 8741              	.LASF825:
 8742 6408 4C50435F 		.ascii	"LPC_SPI ((LPC_SPI_TypeDef *) LPC_SPI_BASE )\000"
 8742      53504920 
 8742      28284C50 
 8742      435F5350 
 8742      495F5479 
 8743              	.LASF175:
 8744 6434 5F5F4445 		.ascii	"__DEC64_MIN__ 1E-383DD\000"
 8744      4336345F 
 8744      4D494E5F 
 8744      5F203145 
 8744      2D333833 
 8745              	.LASF612:
 8746 644b 49544D5F 		.ascii	"ITM_TCR_DWTENA_Pos 3\000"
 8746      5443525F 
 8746      44575445 
 8746      4E415F50 
 8746      6F732033 
 8747              	.LASF920:
 8748 6460 434C4B50 		.ascii	"CLKPWR_PLL0CFG_BITMASK ((uint32_t)(0xFF7FFF))\000"
 8748      57525F50 
 8748      4C4C3043 
 8748      46475F42 
ARM GAS  C:\Users\COSMIN~1.MAR\AppData\Local\Temp\cccNbcra.s 			page 220


 8748      49544D41 
 8749              	.LASF785:
 8750 648e 4C50435F 		.ascii	"LPC_MCPWM_BASE (LPC_APB1_BASE + 0x38000)\000"
 8750      4D435057 
 8750      4D5F4241 
 8750      53452028 
 8750      4C50435F 
 8751              	.LASF460:
 8752 64b7 55494E54 		.ascii	"UINTMAX_C(x) __UINTMAX_C(x)\000"
 8752      4D41585F 
 8752      43287829 
 8752      205F5F55 
 8752      494E544D 
 8753              	.LASF961:
 8754 64d3 434C4B50 		.ascii	"CLKPWR_PCLKSEL_UART1 ((uint32_t)(8))\000"
 8754      57525F50 
 8754      434C4B53 
 8754      454C5F55 
 8754      41525431 
 8755              	.LASF383:
 8756 64f8 5F5F4558 		.ascii	"__EXP\000"
 8756      5000
 8757              	.LASF378:
 8758 64fe 5F5F5F69 		.ascii	"___int64_t_defined 1\000"
 8758      6E743634 
 8758      5F745F64 
 8758      6566696E 
 8758      65642031 
 8759              	.LASF162:
 8760 6513 5F5F4C44 		.ascii	"__LDBL_HAS_DENORM__ 1\000"
 8760      424C5F48 
 8760      41535F44 
 8760      454E4F52 
 8760      4D5F5F20 
 8761              	.LASF938:
 8762 6529 434C4B50 		.ascii	"CLKPWR_PLL1FEED_BITMASK ((uint32_t)0xFF)\000"
 8762      57525F50 
 8762      4C4C3146 
 8762      4545445F 
 8762      4249544D 
 8763              	.LASF309:
 8764 6552 5F5F4743 		.ascii	"__GCC_HAVE_SYNC_COMPARE_AND_SWAP_4 1\000"
 8764      435F4841 
 8764      56455F53 
 8764      594E435F 
 8764      434F4D50 
 8765              	.LASF107:
 8766 6577 5F5F5549 		.ascii	"__UINT64_C(c) c ## ULL\000"
 8766      4E543634 
 8766      5F432863 
 8766      29206320 
 8766      23232055 
 8767              	.LASF239:
 8768 658e 5F5F4143 		.ascii	"__ACCUM_MAX__ 0X7FFFFFFFP-15K\000"
 8768      43554D5F 
 8768      4D41585F 
 8768      5F203058 
ARM GAS  C:\Users\COSMIN~1.MAR\AppData\Local\Temp\cccNbcra.s 			page 221


 8768      37464646 
 8769              	.LASF601:
 8770 65ac 53797354 		.ascii	"SysTick_CALIB_TENMS_Msk (0xFFFFFFUL << SysTick_VAL_"
 8770      69636B5F 
 8770      43414C49 
 8770      425F5445 
 8770      4E4D535F 
 8771 65df 43555252 		.ascii	"CURRENT_Pos)\000"
 8771      454E545F 
 8771      506F7329 
 8771      00
 8772              	.LASF435:
 8773 65ec 55494E54 		.ascii	"UINT_FAST32_MAX __UINT_FAST32_MAX__\000"
 8773      5F464153 
 8773      5433325F 
 8773      4D415820 
 8773      5F5F5549 
 8774              	.LASF748:
 8775 6610 4C50435F 		.ascii	"LPC_FLASH_BASE (0x00000000UL)\000"
 8775      464C4153 
 8775      485F4241 
 8775      53452028 
 8775      30783030 
 8776              	.LASF671:
 8777 662e 4D50555F 		.ascii	"MPU_RASR_B_Msk (1UL << MPU_RASR_B_Pos)\000"
 8777      52415352 
 8777      5F425F4D 
 8777      736B2028 
 8777      31554C20 
 8778              	.LASF48:
 8779 6655 5F5F494E 		.ascii	"__INT_LEAST32_TYPE__ long int\000"
 8779      545F4C45 
 8779      41535433 
 8779      325F5459 
 8779      50455F5F 
 8780              	.LASF1197:
 8781 6673 54696D65 		.ascii	"Timer0_Wait\000"
 8781      72305F57 
 8781      61697400 
 8782              	.LASF780:
 8783 667f 4C50435F 		.ascii	"LPC_UART2_BASE (LPC_APB1_BASE + 0x18000)\000"
 8783      55415254 
 8783      325F4241 
 8783      53452028 
 8783      4C50435F 
 8784              	.LASF640:
 8785 66a8 4D50555F 		.ascii	"MPU_TYPE_IREGION_Pos 16\000"
 8785      54595045 
 8785      5F495245 
 8785      47494F4E 
 8785      5F506F73 
 8786              	.LASF793:
 8787 66c0 4C50435F 		.ascii	"LPC_GPDMACH3_BASE (LPC_AHB_BASE + 0x04160)\000"
 8787      4750444D 
 8787      41434833 
 8787      5F424153 
 8787      4520284C 
ARM GAS  C:\Users\COSMIN~1.MAR\AppData\Local\Temp\cccNbcra.s 			page 222


 8788              	.LASF778:
 8789 66eb 4C50435F 		.ascii	"LPC_TIM2_BASE (LPC_APB1_BASE + 0x10000)\000"
 8789      54494D32 
 8789      5F424153 
 8789      4520284C 
 8789      50435F41 
 8790              	.LASF876:
 8791 6713 54494D5F 		.ascii	"TIM_CAP_RISING(n) (_BIT((n * 3)))\000"
 8791      4341505F 
 8791      52495349 
 8791      4E47286E 
 8791      2920285F 
 8792              	.LASF197:
 8793 6735 5F5F4652 		.ascii	"__FRACT_IBIT__ 0\000"
 8793      4143545F 
 8793      49424954 
 8793      5F5F2030 
 8793      00
 8794              	.LASF1128:
 8795 6746 46756E63 		.ascii	"FunctionalState\000"
 8795      74696F6E 
 8795      616C5374 
 8795      61746500 
 8796              	.LASF1014:
 8797 6756 4C504331 		.ascii	"LPC17XX_PINSEL_H_ \000"
 8797      3758585F 
 8797      50494E53 
 8797      454C5F48 
 8797      5F2000
 8798              	.LASF1047:
 8799 6769 50494E53 		.ascii	"PINSEL_PIN_19 ((19))\000"
 8799      454C5F50 
 8799      494E5F31 
 8799      39202828 
 8799      31392929 
 8800              	.LASF1063:
 8801 677e 50494E53 		.ascii	"PINSEL_PINMODE_NORMAL ((0))\000"
 8801      454C5F50 
 8801      494E4D4F 
 8801      44455F4E 
 8801      4F524D41 
 8802              	.LASF923:
 8803 679a 434C4B50 		.ascii	"CLKPWR_PLL0STAT_PLLE ((uint32_t)(1<<24))\000"
 8803      57525F50 
 8803      4C4C3053 
 8803      5441545F 
 8803      504C4C45 
 8804              	.LASF1072:
 8805 67c3 5F554152 		.ascii	"_UART1 1\000"
 8805      54312031 
 8805      00
 8806              	.LASF23:
 8807 67cc 5F5F4F52 		.ascii	"__ORDER_LITTLE_ENDIAN__ 1234\000"
 8807      4445525F 
 8807      4C495454 
 8807      4C455F45 
 8807      4E444941 
ARM GAS  C:\Users\COSMIN~1.MAR\AppData\Local\Temp\cccNbcra.s 			page 223


 8808              	.LASF568:
 8809 67e9 5343425F 		.ascii	"SCB_HFSR_DEBUGEVT_Pos 31\000"
 8809      48465352 
 8809      5F444542 
 8809      55474556 
 8809      545F506F 
 8810              	.LASF361:
 8811 6802 5F5F434D 		.ascii	"__CM3_CMSIS_VERSION_MAIN (0x02)\000"
 8811      335F434D 
 8811      5349535F 
 8811      56455253 
 8811      494F4E5F 
 8812              	.LASF172:
 8813 6822 5F5F4445 		.ascii	"__DEC64_MANT_DIG__ 16\000"
 8813      4336345F 
 8813      4D414E54 
 8813      5F444947 
 8813      5F5F2031 
 8814              	.LASF1111:
 8815 6838 6C6F6E67 		.ascii	"long long unsigned int\000"
 8815      206C6F6E 
 8815      6720756E 
 8815      7369676E 
 8815      65642069 
 8816              	.LASF544:
 8817 684f 5343425F 		.ascii	"SCB_SHCSR_MEMFAULTPENDED_Pos 13\000"
 8817      53484353 
 8817      525F4D45 
 8817      4D464155 
 8817      4C545045 
 8818              	.LASF676:
 8819 686f 4D50555F 		.ascii	"MPU_RASR_ENA_Pos 0\000"
 8819      52415352 
 8819      5F454E41 
 8819      5F506F73 
 8819      203000
 8820              	.LASF252:
 8821 6882 5F5F554C 		.ascii	"__ULACCUM_IBIT__ 32\000"
 8821      41434355 
 8821      4D5F4942 
 8821      49545F5F 
 8821      20333200 
 8822              	.LASF573:
 8823 6896 5343425F 		.ascii	"SCB_HFSR_VECTTBL_Msk (1UL << SCB_HFSR_VECTTBL_Pos)\000"
 8823      48465352 
 8823      5F564543 
 8823      5454424C 
 8823      5F4D736B 
 8824              	.LASF30:
 8825 68c9 5F5F5054 		.ascii	"__PTRDIFF_TYPE__ int\000"
 8825      52444946 
 8825      465F5459 
 8825      50455F5F 
 8825      20696E74 
 8826              	.LASF683:
 8827 68de 436F7265 		.ascii	"CoreDebug_DHCSR_S_RETIRE_ST_Msk (1UL << CoreDebug_D"
 8827      44656275 
ARM GAS  C:\Users\COSMIN~1.MAR\AppData\Local\Temp\cccNbcra.s 			page 224


 8827      675F4448 
 8827      4353525F 
 8827      535F5245 
 8828 6911 48435352 		.ascii	"HCSR_S_RETIRE_ST_Pos)\000"
 8828      5F535F52 
 8828      45544952 
 8828      455F5354 
 8828      5F506F73 
 8829              	.LASF337:
 8830 6927 5F5F4150 		.ascii	"__APCS_32__ 1\000"
 8830      43535F33 
 8830      325F5F20 
 8830      3100
 8831              	.LASF272:
 8832 6935 5F5F4451 		.ascii	"__DQ_FBIT__ 63\000"
 8832      5F464249 
 8832      545F5F20 
 8832      363300
 8833              	.LASF60:
 8834 6944 5F5F5549 		.ascii	"__UINT_FAST32_TYPE__ unsigned int\000"
 8834      4E545F46 
 8834      41535433 
 8834      325F5459 
 8834      50455F5F 
 8835              	.LASF853:
 8836 6966 50415241 		.ascii	"PARAM_SETSTATE(State) ((State==RESET) || (State==SE"
 8836      4D5F5345 
 8836      54535441 
 8836      54452853 
 8836      74617465 
 8837 6999 54292900 		.ascii	"T))\000"
 8838              	.LASF782:
 8839 699d 4C50435F 		.ascii	"LPC_I2C2_BASE (LPC_APB1_BASE + 0x20000)\000"
 8839      49324332 
 8839      5F424153 
 8839      4520284C 
 8839      50435F41 
 8840              	.LASF567:
 8841 69c5 5343425F 		.ascii	"SCB_CFSR_MEMFAULTSR_Msk (0xFFUL << SCB_CFSR_MEMFAUL"
 8841      43465352 
 8841      5F4D454D 
 8841      4641554C 
 8841      5453525F 
 8842 69f8 5453525F 		.ascii	"TSR_Pos)\000"
 8842      506F7329 
 8842      00
 8843              	.LASF55:
 8844 6a01 5F5F494E 		.ascii	"__INT_FAST16_TYPE__ int\000"
 8844      545F4641 
 8844      53543136 
 8844      5F545950 
 8844      455F5F20 
 8845              	.LASF812:
 8846 6a19 4C50435F 		.ascii	"LPC_TIM1 ((LPC_TIM_TypeDef *) LPC_TIM1_BASE )\000"
 8846      54494D31 
 8846      2028284C 
 8846      50435F54 
ARM GAS  C:\Users\COSMIN~1.MAR\AppData\Local\Temp\cccNbcra.s 			page 225


 8846      494D5F54 
 8847              	.LASF561:
 8848 6a47 5343425F 		.ascii	"SCB_SHCSR_MEMFAULTACT_Msk (1UL << SCB_SHCSR_MEMFAUL"
 8848      53484353 
 8848      525F4D45 
 8848      4D464155 
 8848      4C544143 
 8849 6a7a 54414354 		.ascii	"TACT_Pos)\000"
 8849      5F506F73 
 8849      2900
 8850              	.LASF228:
 8851 6a84 5F5F5341 		.ascii	"__SACCUM_MIN__ (-0X1P7HK-0X1P7HK)\000"
 8851      4343554D 
 8851      5F4D494E 
 8851      5F5F2028 
 8851      2D305831 
 8852              	.LASF214:
 8853 6aa6 5F5F554C 		.ascii	"__ULFRACT_MAX__ 0XFFFFFFFFP-32ULR\000"
 8853      46524143 
 8853      545F4D41 
 8853      585F5F20 
 8853      30584646 
 8854              	.LASF1150:
 8855 6ac8 50726573 		.ascii	"PrescaleValue\000"
 8855      63616C65 
 8855      56616C75 
 8855      6500
 8856              	.LASF524:
 8857 6ad6 5343425F 		.ascii	"SCB_CCR_BFHFNMIGN_Pos 8\000"
 8857      4343525F 
 8857      42464846 
 8857      4E4D4947 
 8857      4E5F506F 
 8858              	.LASF249:
 8859 6aee 5F5F4C41 		.ascii	"__LACCUM_MAX__ 0X7FFFFFFFFFFFFFFFP-31LK\000"
 8859      4343554D 
 8859      5F4D4158 
 8859      5F5F2030 
 8859      58374646 
 8860              	.LASF35:
 8861 6b16 5F5F4348 		.ascii	"__CHAR16_TYPE__ short unsigned int\000"
 8861      41523136 
 8861      5F545950 
 8861      455F5F20 
 8861      73686F72 
 8862              	.LASF525:
 8863 6b39 5343425F 		.ascii	"SCB_CCR_BFHFNMIGN_Msk (1UL << SCB_CCR_BFHFNMIGN_Pos"
 8863      4343525F 
 8863      42464846 
 8863      4E4D4947 
 8863      4E5F4D73 
 8864 6b6c 2900     		.ascii	")\000"
 8865              	.LASF614:
 8866 6b6e 49544D5F 		.ascii	"ITM_TCR_SYNCENA_Pos 2\000"
 8866      5443525F 
 8866      53594E43 
 8866      454E415F 
ARM GAS  C:\Users\COSMIN~1.MAR\AppData\Local\Temp\cccNbcra.s 			page 226


 8866      506F7320 
 8867              	.LASF836:
 8868 6b84 4C50435F 		.ascii	"LPC_CAN1 ((LPC_CAN_TypeDef *) LPC_CAN1_BASE )\000"
 8868      43414E31 
 8868      2028284C 
 8868      50435F43 
 8868      414E5F54 
 8869              	.LASF702:
 8870 6bb2 436F7265 		.ascii	"CoreDebug_DCRSR_REGWnR_Pos 16\000"
 8870      44656275 
 8870      675F4443 
 8870      5253525F 
 8870      52454757 
 8871              	.LASF1032:
 8872 6bd0 50494E53 		.ascii	"PINSEL_PIN_4 ((4))\000"
 8872      454C5F50 
 8872      494E5F34 
 8872      20282834 
 8872      292900
 8873              	.LASF102:
 8874 6be3 5F5F5549 		.ascii	"__UINT_LEAST16_MAX__ 65535\000"
 8874      4E545F4C 
 8874      45415354 
 8874      31365F4D 
 8874      41585F5F 
 8875              	.LASF284:
 8876 6bfe 5F5F5554 		.ascii	"__UTQ_FBIT__ 128\000"
 8876      515F4642 
 8876      49545F5F 
 8876      20313238 
 8876      00
 8877              	.LASF663:
 8878 6c0f 4D50555F 		.ascii	"MPU_RASR_AP_Msk (7UL << MPU_RASR_AP_Pos)\000"
 8878      52415352 
 8878      5F41505F 
 8878      4D736B20 
 8878      2837554C 
 8879              	.LASF537:
 8880 6c38 5343425F 		.ascii	"SCB_SHCSR_BUSFAULTENA_Msk (1UL << SCB_SHCSR_BUSFAUL"
 8880      53484353 
 8880      525F4255 
 8880      53464155 
 8880      4C54454E 
 8881 6c6b 54454E41 		.ascii	"TENA_Pos)\000"
 8881      5F506F73 
 8881      2900
 8882              	.LASF951:
 8883 6c75 434C4B50 		.ascii	"CLKPWR_PCON_BORD ((uint32_t)(1<<4))\000"
 8883      57525F50 
 8883      434F4E5F 
 8883      424F5244 
 8883      20282875 
 8884              	.LASF762:
 8885 6c99 4C50435F 		.ascii	"LPC_PWM1_BASE (LPC_APB0_BASE + 0x18000)\000"
 8885      50574D31 
 8885      5F424153 
 8885      4520284C 
ARM GAS  C:\Users\COSMIN~1.MAR\AppData\Local\Temp\cccNbcra.s 			page 227


 8885      50435F41 
 8886              	.LASF260:
 8887 6cc1 5F5F4C4C 		.ascii	"__LLACCUM_EPSILON__ 0x1P-31LLK\000"
 8887      41434355 
 8887      4D5F4550 
 8887      53494C4F 
 8887      4E5F5F20 
 8888              	.LASF12:
 8889 6ce0 5F5F4649 		.ascii	"__FINITE_MATH_ONLY__ 0\000"
 8889      4E495445 
 8889      5F4D4154 
 8889      485F4F4E 
 8889      4C595F5F 
 8890              	.LASF526:
 8891 6cf7 5343425F 		.ascii	"SCB_CCR_DIV_0_TRP_Pos 4\000"
 8891      4343525F 
 8891      4449565F 
 8891      305F5452 
 8891      505F506F 
 8892              	.LASF386:
 8893 6d0f 5F5F6861 		.ascii	"__have_longlong64 1\000"
 8893      76655F6C 
 8893      6F6E676C 
 8893      6F6E6736 
 8893      34203100 
 8894              	.LASF628:
 8895 6d23 49544D5F 		.ascii	"ITM_LSR_Access_Pos 1\000"
 8895      4C53525F 
 8895      41636365 
 8895      73735F50 
 8895      6F732031 
 8896              	.LASF686:
 8897 6d38 436F7265 		.ascii	"CoreDebug_DHCSR_S_SLEEP_Pos 18\000"
 8897      44656275 
 8897      675F4448 
 8897      4353525F 
 8897      535F534C 
 8898              	.LASF445:
 8899 6d57 50545244 		.ascii	"PTRDIFF_MAX __PTRDIFF_MAX__\000"
 8899      4946465F 
 8899      4D415820 
 8899      5F5F5054 
 8899      52444946 
 8900              	.LASF684:
 8901 6d73 436F7265 		.ascii	"CoreDebug_DHCSR_S_LOCKUP_Pos 19\000"
 8901      44656275 
 8901      675F4448 
 8901      4353525F 
 8901      535F4C4F 
 8902              	.LASF757:
 8903 6d93 4C50435F 		.ascii	"LPC_WDT_BASE (LPC_APB0_BASE + 0x00000)\000"
 8903      5744545F 
 8903      42415345 
 8903      20284C50 
 8903      435F4150 
 8904              	.LASF804:
 8905 6dba 4C50435F 		.ascii	"LPC_SC ((LPC_SC_TypeDef *) LPC_SC_BASE )\000"
ARM GAS  C:\Users\COSMIN~1.MAR\AppData\Local\Temp\cccNbcra.s 			page 228


 8905      53432028 
 8905      284C5043 
 8905      5F53435F 
 8905      54797065 
 8906              	.LASF554:
 8907 6de3 5343425F 		.ascii	"SCB_SHCSR_SVCALLACT_Pos 7\000"
 8907      53484353 
 8907      525F5356 
 8907      43414C4C 
 8907      4143545F 
 8908              	.LASF254:
 8909 6dfd 5F5F554C 		.ascii	"__ULACCUM_MAX__ 0XFFFFFFFFFFFFFFFFP-32ULK\000"
 8909      41434355 
 8909      4D5F4D41 
 8909      585F5F20 
 8909      30584646 
 8910              	.LASF1078:
 8911 6e27 5F535350 		.ascii	"_SSP1 1\000"
 8911      31203100 
 8912              	.LASF901:
 8913 6e2f 4C504331 		.ascii	"LPC17XX_CLKPWR_H_ \000"
 8913      3758585F 
 8913      434C4B50 
 8913      57525F48 
 8913      5F2000
 8914              	.LASF910:
 8915 6e42 434C4B50 		.ascii	"CLKPWR_CLKOUTCFG_CLKOUTSEL_RTC ((uint32_t)(0x04))\000"
 8915      57525F43 
 8915      4C4B4F55 
 8915      54434647 
 8915      5F434C4B 
 8916              	.LASF1199:
 8917 6e74 54696D65 		.ascii	"Timer0_us_Wait\000"
 8917      72305F75 
 8917      735F5761 
 8917      697400
 8918              	.LASF1168:
 8919 6e83 54494D5F 		.ascii	"TIM_ConverUSecToVal\000"
 8919      436F6E76 
 8919      65725553 
 8919      6563546F 
 8919      56616C00 
 8920              	.LASF926:
 8921 6e97 434C4B50 		.ascii	"CLKPWR_PLL0FEED_BITMASK ((uint32_t)0xFF)\000"
 8921      57525F50 
 8921      4C4C3046 
 8921      4545445F 
 8921      4249544D 
 8922              	.LASF273:
 8923 6ec0 5F5F4451 		.ascii	"__DQ_IBIT__ 0\000"
 8923      5F494249 
 8923      545F5F20 
 8923      3000
 8924              	.LASF967:
 8925 6ece 434C4B50 		.ascii	"CLKPWR_PCLKSEL_ADC ((uint32_t)(24))\000"
 8925      57525F50 
 8925      434C4B53 
ARM GAS  C:\Users\COSMIN~1.MAR\AppData\Local\Temp\cccNbcra.s 			page 229


 8925      454C5F41 
 8925      44432028 
 8926              	.LASF546:
 8927 6ef2 5343425F 		.ascii	"SCB_SHCSR_USGFAULTPENDED_Pos 12\000"
 8927      53484353 
 8927      525F5553 
 8927      47464155 
 8927      4C545045 
 8928              	.LASF1154:
 8929 6f12 54494D5F 		.ascii	"TIM_COUNTERCFG_Type\000"
 8929      434F554E 
 8929      54455243 
 8929      46475F54 
 8929      79706500 
 8930              	.LASF1084:
 8931 6f26 5F574454 		.ascii	"_WDT 1\000"
 8931      203100
 8932              	.LASF692:
 8933 6f2d 436F7265 		.ascii	"CoreDebug_DHCSR_C_SNAPSTALL_Pos 5\000"
 8933      44656275 
 8933      675F4448 
 8933      4353525F 
 8933      435F534E 
 8934              	.LASF472:
 8935 6f4f 5343425F 		.ascii	"SCB_CPUID_VARIANT_Pos 20\000"
 8935      43505549 
 8935      445F5641 
 8935      5249414E 
 8935      545F506F 
 8936              	.LASF738:
 8937 6f68 496E7465 		.ascii	"InterruptType ((InterruptType_Type *) SCS_BASE)\000"
 8937      72727570 
 8937      74547970 
 8937      65202828 
 8937      496E7465 
 8938              	.LASF724:
 8939 6f98 436F7265 		.ascii	"CoreDebug_DEMCR_VC_CHKERR_Pos 6\000"
 8939      44656275 
 8939      675F4445 
 8939      4D43525F 
 8939      56435F43 
 8940              	.LASF1087:
 8941 6fb8 5F414443 		.ascii	"_ADC 1\000"
 8941      203100
 8942              	.LASF98:
 8943 6fbf 5F5F494E 		.ascii	"__INT_LEAST64_MAX__ 9223372036854775807LL\000"
 8943      545F4C45 
 8943      41535436 
 8943      345F4D41 
 8943      585F5F20 
 8944              	.LASF414:
 8945 6fe9 55494E54 		.ascii	"UINT_LEAST16_MAX __UINT_LEAST16_MAX__\000"
 8945      5F4C4541 
 8945      53543136 
 8945      5F4D4158 
 8945      205F5F55 
 8946              	.LASF1164:
ARM GAS  C:\Users\COSMIN~1.MAR\AppData\Local\Temp\cccNbcra.s 			page 230


 8947 700f 46616C6C 		.ascii	"FallingEdge\000"
 8947      696E6745 
 8947      64676500 
 8948              	.LASF996:
 8949 701b 434C4B50 		.ascii	"CLKPWR_PCONP_PCAD ((uint32_t)(1<<12))\000"
 8949      57525F50 
 8949      434F4E50 
 8949      5F504341 
 8949      44202828 
 8950              	.LASF589:
 8951 7041 53797354 		.ascii	"SysTick_CTRL_TICKINT_Msk (1UL << SysTick_CTRL_TICKI"
 8951      69636B5F 
 8951      4354524C 
 8951      5F544943 
 8951      4B494E54 
 8952 7074 4E545F50 		.ascii	"NT_Pos)\000"
 8952      6F732900 
 8953              	.LASF345:
 8954 707c 5F5F4152 		.ascii	"__ARM_FP 12\000"
 8954      4D5F4650 
 8954      20313200 
 8955              	.LASF962:
 8956 7088 434C4B50 		.ascii	"CLKPWR_PCLKSEL_PWM1 ((uint32_t)(12))\000"
 8956      57525F50 
 8956      434C4B53 
 8956      454C5F50 
 8956      574D3120 
 8957              	.LASF77:
 8958 70ad 5F5F5349 		.ascii	"__SIZE_MAX__ 4294967295U\000"
 8958      5A455F4D 
 8958      41585F5F 
 8958      20343239 
 8958      34393637 
 8959              	.LASF982:
 8960 70c6 434C4B50 		.ascii	"CLKPWR_PCLKSEL_SYSCON ((uint32_t)(60))\000"
 8960      57525F50 
 8960      434C4B53 
 8960      454C5F53 
 8960      5953434F 
 8961              	.LASF1124:
 8962 70ed 52455345 		.ascii	"RESET\000"
 8962      5400
 8963              	.LASF285:
 8964 70f3 5F5F5554 		.ascii	"__UTQ_IBIT__ 0\000"
 8964      515F4942 
 8964      49545F5F 
 8964      203000
 8965              	.LASF434:
 8966 7102 494E545F 		.ascii	"INT_FAST32_MAX __INT_FAST32_MAX__\000"
 8966      46415354 
 8966      33325F4D 
 8966      4158205F 
 8966      5F494E54 
 8967              	.LASF288:
 8968 7124 5F5F5341 		.ascii	"__SA_FBIT__ 15\000"
 8968      5F464249 
 8968      545F5F20 
ARM GAS  C:\Users\COSMIN~1.MAR\AppData\Local\Temp\cccNbcra.s 			page 231


 8968      313500
 8969              	.LASF771:
 8970 7133 4C50435F 		.ascii	"LPC_CANAF_BASE (LPC_APB0_BASE + 0x3C000)\000"
 8970      43414E41 
 8970      465F4241 
 8970      53452028 
 8970      4C50435F 
 8971              	.LASF789:
 8972 715c 4C50435F 		.ascii	"LPC_GPDMA_BASE (LPC_AHB_BASE + 0x04000)\000"
 8972      4750444D 
 8972      415F4241 
 8972      53452028 
 8972      4C50435F 
 8973              	.LASF1049:
 8974 7184 50494E53 		.ascii	"PINSEL_PIN_21 ((21))\000"
 8974      454C5F50 
 8974      494E5F32 
 8974      31202828 
 8974      32312929 
 8975              	.LASF353:
 8976 7199 5F5F454C 		.ascii	"__ELF__ 1\000"
 8976      465F5F20 
 8976      3100
 8977              	.LASF415:
 8978 71a3 494E5433 		.ascii	"INT32_MIN (-__INT32_MAX__ - 1)\000"
 8978      325F4D49 
 8978      4E20282D 
 8978      5F5F494E 
 8978      5433325F 
 8979              	.LASF84:
 8980 71c2 5F5F494E 		.ascii	"__INT8_MAX__ 127\000"
 8980      54385F4D 
 8980      41585F5F 
 8980      20313237 
 8980      00
 8981              	.LASF1015:
 8982 71d3 50494E53 		.ascii	"PINSEL_I2CPADCFG_SDADRV0 _BIT(0)\000"
 8982      454C5F49 
 8982      32435041 
 8982      44434647 
 8982      5F534441 
 8983              	.LASF542:
 8984 71f4 5343425F 		.ascii	"SCB_SHCSR_BUSFAULTPENDED_Pos 14\000"
 8984      53484353 
 8984      525F4255 
 8984      53464155 
 8984      4C545045 
 8985              	.LASF891:
 8986 7214 54494D5F 		.ascii	"TIM_CTCR_INPUT_MASK 0xC\000"
 8986      43544352 
 8986      5F494E50 
 8986      55545F4D 
 8986      41534B20 
 8987              	.LASF803:
 8988 722c 4C50435F 		.ascii	"LPC_GPIO4_BASE (LPC_GPIO_BASE + 0x00080)\000"
 8988      4750494F 
 8988      345F4241 
ARM GAS  C:\Users\COSMIN~1.MAR\AppData\Local\Temp\cccNbcra.s 			page 232


 8988      53452028 
 8988      4C50435F 
 8989              	.LASF267:
 8990 7255 5F5F5151 		.ascii	"__QQ_IBIT__ 0\000"
 8990      5F494249 
 8990      545F5F20 
 8990      3000
 8991              	.LASF848:
 8992 7263 4C50435F 		.ascii	"LPC_GPDMACH5 ((LPC_GPDMACH_TypeDef *) LPC_GPDMACH5_"
 8992      4750444D 
 8992      41434835 
 8992      2028284C 
 8992      50435F47 
 8993 7296 42415345 		.ascii	"BASE )\000"
 8993      202900
 8994              	.LASF847:
 8995 729d 4C50435F 		.ascii	"LPC_GPDMACH4 ((LPC_GPDMACH_TypeDef *) LPC_GPDMACH4_"
 8995      4750444D 
 8995      41434834 
 8995      2028284C 
 8995      50435F47 
 8996 72d0 42415345 		.ascii	"BASE )\000"
 8996      202900
 8997              	.LASF1152:
 8998 72d7 436F756E 		.ascii	"CounterOption\000"
 8998      7465724F 
 8998      7074696F 
 8998      6E00
 8999              	.LASF1198:
 9000 72e5 74696D65 		.ascii	"time\000"
 9000      00
 9001              	.LASF458:
 9002 72ea 55494E54 		.ascii	"UINT64_C(x) __UINT64_C(x)\000"
 9002      36345F43 
 9002      28782920 
 9002      5F5F5549 
 9002      4E543634 
 9003              	.LASF256:
 9004 7304 5F5F4C4C 		.ascii	"__LLACCUM_FBIT__ 31\000"
 9004      41434355 
 9004      4D5F4642 
 9004      49545F5F 
 9004      20333100 
 9005              	.LASF80:
 9006 7318 5F5F5549 		.ascii	"__UINTMAX_MAX__ 18446744073709551615ULL\000"
 9006      4E544D41 
 9006      585F4D41 
 9006      585F5F20 
 9006      31383434 
 9007              	.LASF1067:
 9008 7340 4C504331 		.ascii	"LPC17XX_LIBCFG_DEFAULT_H_ \000"
 9008      3758585F 
 9008      4C494243 
 9008      46475F44 
 9008      45464155 
 9009              	.LASF756:
 9010 735b 4C50435F 		.ascii	"LPC_CM3_BASE (0xE0000000UL)\000"
ARM GAS  C:\Users\COSMIN~1.MAR\AppData\Local\Temp\cccNbcra.s 			page 233


 9010      434D335F 
 9010      42415345 
 9010      20283078 
 9010      45303030 
 9011              	.LASF281:
 9012 7377 5F5F5553 		.ascii	"__USQ_IBIT__ 0\000"
 9012      515F4942 
 9012      49545F5F 
 9012      203000
 9013              	.LASF662:
 9014 7386 4D50555F 		.ascii	"MPU_RASR_AP_Pos 24\000"
 9014      52415352 
 9014      5F41505F 
 9014      506F7320 
 9014      323400
 9015              	.LASF52:
 9016 7399 5F5F5549 		.ascii	"__UINT_LEAST32_TYPE__ long unsigned int\000"
 9016      4E545F4C 
 9016      45415354 
 9016      33325F54 
 9016      5950455F 
 9017              	.LASF696:
 9018 73c1 436F7265 		.ascii	"CoreDebug_DHCSR_C_STEP_Pos 2\000"
 9018      44656275 
 9018      675F4448 
 9018      4353525F 
 9018      435F5354 
 9019              	.LASF279:
 9020 73de 5F5F5548 		.ascii	"__UHQ_IBIT__ 0\000"
 9020      515F4942 
 9020      49545F5F 
 9020      203000
 9021              	.LASF3:
 9022 73ed 5F5F474E 		.ascii	"__GNUC_MINOR__ 9\000"
 9022      55435F4D 
 9022      494E4F52 
 9022      5F5F2039 
 9022      00
 9023              	.LASF1125:
 9024 73fe 466C6167 		.ascii	"FlagStatus\000"
 9024      53746174 
 9024      757300
 9025              	.LASF96:
 9026 7409 5F5F494E 		.ascii	"__INT_LEAST32_MAX__ 2147483647L\000"
 9026      545F4C45 
 9026      41535433 
 9026      325F4D41 
 9026      585F5F20 
 9027              	.LASF306:
 9028 7429 5F5F4348 		.ascii	"__CHAR_UNSIGNED__ 1\000"
 9028      41525F55 
 9028      4E534947 
 9028      4E45445F 
 9028      5F203100 
 9029              	.LASF553:
 9030 743d 5343425F 		.ascii	"SCB_SHCSR_MONITORACT_Msk (1UL << SCB_SHCSR_MONITORA"
 9030      53484353 
ARM GAS  C:\Users\COSMIN~1.MAR\AppData\Local\Temp\cccNbcra.s 			page 234


 9030      525F4D4F 
 9030      4E49544F 
 9030      52414354 
 9031 7470 43545F50 		.ascii	"CT_Pos)\000"
 9031      6F732900 
 9032              	.LASF729:
 9033 7478 436F7265 		.ascii	"CoreDebug_DEMCR_VC_MMERR_Msk (1UL << CoreDebug_DEMC"
 9033      44656275 
 9033      675F4445 
 9033      4D43525F 
 9033      56435F4D 
 9034 74ab 525F5643 		.ascii	"R_VC_MMERR_Pos)\000"
 9034      5F4D4D45 
 9034      52525F50 
 9034      6F732900 
 9035              	.LASF688:
 9036 74bb 436F7265 		.ascii	"CoreDebug_DHCSR_S_HALT_Pos 17\000"
 9036      44656275 
 9036      675F4448 
 9036      4353525F 
 9036      535F4841 
 9037              	.LASF654:
 9038 74d9 4D50555F 		.ascii	"MPU_RBAR_ADDR_Pos 5\000"
 9038      52424152 
 9038      5F414444 
 9038      525F506F 
 9038      73203500 
 9039              	.LASF639:
 9040 74ed 496E7454 		.ascii	"IntType_ACTLR_DISMCYCINT_Msk (1UL << IntType_ACTLR_"
 9040      7970655F 
 9040      4143544C 
 9040      525F4449 
 9040      534D4359 
 9041 7520 4449534D 		.ascii	"DISMCYCINT_Pos)\000"
 9041      43594349 
 9041      4E545F50 
 9041      6F732900 
 9042              	.LASF652:
 9043 7530 4D50555F 		.ascii	"MPU_RNR_REGION_Pos 0\000"
 9043      524E525F 
 9043      52454749 
 9043      4F4E5F50 
 9043      6F732030 
 9044              	.LASF709:
 9045 7545 436F7265 		.ascii	"CoreDebug_DEMCR_MON_REQ_Msk (1UL << CoreDebug_DEMCR"
 9045      44656275 
 9045      675F4445 
 9045      4D43525F 
 9045      4D4F4E5F 
 9046 7578 5F4D4F4E 		.ascii	"_MON_REQ_Pos)\000"
 9046      5F524551 
 9046      5F506F73 
 9046      2900
 9047              	.LASF899:
 9048 7586 50415241 		.ascii	"PARAM_TIM_CAP_MODE_OPT(OPT) ((OPT == TIM_CAPTURE_NO"
 9048      4D5F5449 
 9048      4D5F4341 
ARM GAS  C:\Users\COSMIN~1.MAR\AppData\Local\Temp\cccNbcra.s 			page 235


 9048      505F4D4F 
 9048      44455F4F 
 9049 75b9 4E45297C 		.ascii	"NE)||(OPT == TIM_CAPTURE_RISING) ||(OPT == TIM_CAPT"
 9049      7C284F50 
 9049      54203D3D 
 9049      2054494D 
 9049      5F434150 
 9050 75ec 5552455F 		.ascii	"URE_FALLING)||(OPT == TIM_CAPTURE_ANY))\000"
 9050      46414C4C 
 9050      494E4729 
 9050      7C7C284F 
 9050      5054203D 
 9051              	.LASF824:
 9052 7614 4C50435F 		.ascii	"LPC_I2S ((LPC_I2S_TypeDef *) LPC_I2S_BASE )\000"
 9052      49325320 
 9052      28284C50 
 9052      435F4932 
 9052      535F5479 
 9053              	.LASF381:
 9054 7640 5F5F5F69 		.ascii	"___int_least32_t_defined 1\000"
 9054      6E745F6C 
 9054      65617374 
 9054      33325F74 
 9054      5F646566 
 9055              	.LASF1023:
 9056 765b 50494E53 		.ascii	"PINSEL_PORT_4 ((4))\000"
 9056      454C5F50 
 9056      4F52545F 
 9056      34202828 
 9056      34292900 
 9057              	.LASF627:
 9058 766f 49544D5F 		.ascii	"ITM_LSR_ByteAcc_Msk (1UL << ITM_LSR_ByteAcc_Pos)\000"
 9058      4C53525F 
 9058      42797465 
 9058      4163635F 
 9058      4D736B20 
 9059              	.LASF235:
 9060 76a0 5F5F5553 		.ascii	"__USACCUM_EPSILON__ 0x1P-8UHK\000"
 9060      41434355 
 9060      4D5F4550 
 9060      53494C4F 
 9060      4E5F5F20 
 9061              	.LASF150:
 9062 76be 5F5F4442 		.ascii	"__DBL_HAS_QUIET_NAN__ 1\000"
 9062      4C5F4841 
 9062      535F5155 
 9062      4945545F 
 9062      4E414E5F 
 9063              	.LASF816:
 9064 76d6 4C50435F 		.ascii	"LPC_UART0 ((LPC_UART_TypeDef *) LPC_UART0_BASE )\000"
 9064      55415254 
 9064      30202828 
 9064      4C50435F 
 9064      55415254 
 9065              	.LASF1130:
 9066 7707 54494D5F 		.ascii	"TIM_MR0_INT\000"
 9066      4D52305F 
ARM GAS  C:\Users\COSMIN~1.MAR\AppData\Local\Temp\cccNbcra.s 			page 236


 9066      494E5400 
 9067              	.LASF455:
 9068 7713 494E5433 		.ascii	"INT32_C(x) __INT32_C(x)\000"
 9068      325F4328 
 9068      7829205F 
 9068      5F494E54 
 9068      33325F43 
 9069              	.LASF219:
 9070 772b 5F5F4C4C 		.ascii	"__LLFRACT_MAX__ 0X7FFFFFFFFFFFFFFFP-63LLR\000"
 9070      46524143 
 9070      545F4D41 
 9070      585F5F20 
 9070      30583746 
 9071              	.LASF1173:
 9072 7755 54494D78 		.ascii	"TIMx\000"
 9072      00
 9073              	.LASF593:
 9074 775a 53797354 		.ascii	"SysTick_LOAD_RELOAD_Msk (0xFFFFFFUL << SysTick_LOAD"
 9074      69636B5F 
 9074      4C4F4144 
 9074      5F52454C 
 9074      4F41445F 
 9075 778d 5F52454C 		.ascii	"_RELOAD_Pos)\000"
 9075      4F41445F 
 9075      506F7329 
 9075      00
 9076              	.LASF767:
 9077 779a 4C50435F 		.ascii	"LPC_PINCON_BASE (LPC_APB0_BASE + 0x2C000)\000"
 9077      50494E43 
 9077      4F4E5F42 
 9077      41534520 
 9077      284C5043 
 9078              	.LASF76:
 9079 77c4 5F5F5054 		.ascii	"__PTRDIFF_MAX__ 2147483647\000"
 9079      52444946 
 9079      465F4D41 
 9079      585F5F20 
 9079      32313437 
 9080              	.LASF481:
 9081 77df 5343425F 		.ascii	"SCB_ICSR_PENDSVSET_Msk (1UL << SCB_ICSR_PENDSVSET_P"
 9081      49435352 
 9081      5F50454E 
 9081      44535653 
 9081      45545F4D 
 9082 7812 6F732900 		.ascii	"os)\000"
 9083              	.LASF596:
 9084 7816 53797354 		.ascii	"SysTick_CALIB_NOREF_Pos 31\000"
 9084      69636B5F 
 9084      43414C49 
 9084      425F4E4F 
 9084      5245465F 
 9085              	.LASF1193:
 9086 7831 54494D5F 		.ascii	"TIM_MatchConfigStruct\000"
 9086      4D617463 
 9086      68436F6E 
 9086      66696753 
 9086      74727563 
ARM GAS  C:\Users\COSMIN~1.MAR\AppData\Local\Temp\cccNbcra.s 			page 237


 9087              	.LASF62:
 9088 7847 5F5F494E 		.ascii	"__INTPTR_TYPE__ int\000"
 9088      54505452 
 9088      5F545950 
 9088      455F5F20 
 9088      696E7400 
 9089              	.LASF514:
 9090 785b 5343425F 		.ascii	"SCB_AIRCR_VECTRESET_Pos 0\000"
 9090      41495243 
 9090      525F5645 
 9090      43545245 
 9090      5345545F 
 9091              	.LASF63:
 9092 7875 5F5F5549 		.ascii	"__UINTPTR_TYPE__ unsigned int\000"
 9092      4E545054 
 9092      525F5459 
 9092      50455F5F 
 9092      20756E73 
 9093              	.LASF591:
 9094 7893 53797354 		.ascii	"SysTick_CTRL_ENABLE_Msk (1UL << SysTick_CTRL_ENABLE"
 9094      69636B5F 
 9094      4354524C 
 9094      5F454E41 
 9094      424C455F 
 9095 78c6 5F506F73 		.ascii	"_Pos)\000"
 9095      2900
 9096              	.LASF1142:
 9097 78cc 54494D5F 		.ascii	"TIM_COUNTER_INCAP0\000"
 9097      434F554E 
 9097      5445525F 
 9097      494E4341 
 9097      503000
 9098              	.LASF1143:
 9099 78df 54494D5F 		.ascii	"TIM_COUNTER_INCAP1\000"
 9099      434F554E 
 9099      5445525F 
 9099      494E4341 
 9099      503100
 9100              	.LASF185:
 9101 78f2 5F5F4445 		.ascii	"__DEC128_SUBNORMAL_MIN__ 0.000000000000000000000000"
 9101      43313238 
 9101      5F535542 
 9101      4E4F524D 
 9101      414C5F4D 
 9102 7925 30303030 		.ascii	"000000001E-6143DL\000"
 9102      30303030 
 9102      31452D36 
 9102      31343344 
 9102      4C00
 9103              	.LASF138:
 9104 7937 5F5F4442 		.ascii	"__DBL_DIG__ 15\000"
 9104      4C5F4449 
 9104      475F5F20 
 9104      313500
 9105              	.LASF215:
 9106 7946 5F5F554C 		.ascii	"__ULFRACT_EPSILON__ 0x1P-32ULR\000"
 9106      46524143 
ARM GAS  C:\Users\COSMIN~1.MAR\AppData\Local\Temp\cccNbcra.s 			page 238


 9106      545F4550 
 9106      53494C4F 
 9106      4E5F5F20 
 9107              	.LASF499:
 9108 7965 5343425F 		.ascii	"SCB_VTOR_TBLBASE_Msk (1UL << SCB_VTOR_TBLBASE_Pos)\000"
 9108      56544F52 
 9108      5F54424C 
 9108      42415345 
 9108      5F4D736B 
 9109              	.LASF507:
 9110 7998 5343425F 		.ascii	"SCB_AIRCR_ENDIANESS_Msk (1UL << SCB_AIRCR_ENDIANESS"
 9110      41495243 
 9110      525F454E 
 9110      4449414E 
 9110      4553535F 
 9111 79cb 5F506F73 		.ascii	"_Pos)\000"
 9111      2900
 9112              	.LASF973:
 9113 79d1 434C4B50 		.ascii	"CLKPWR_PCLKSEL_I2C1 ((uint32_t)(38))\000"
 9113      57525F50 
 9113      434C4B53 
 9113      454C5F49 
 9113      32433120 
 9114              	.LASF452:
 9115 79f6 55494E54 		.ascii	"UINT8_C(x) __UINT8_C(x)\000"
 9115      385F4328 
 9115      7829205F 
 9115      5F55494E 
 9115      54385F43 
 9116              	.LASF20:
 9117 7a0e 5F5F5349 		.ascii	"__SIZEOF_SIZE_T__ 4\000"
 9117      5A454F46 
 9117      5F53495A 
 9117      455F545F 
 9117      5F203400 
 9118              	.LASF751:
 9119 7a22 4C50435F 		.ascii	"LPC_AHBRAM1_BASE (0x20080000UL)\000"
 9119      41484252 
 9119      414D315F 
 9119      42415345 
 9119      20283078 
 9120              	.LASF45:
 9121 7a42 5F5F5549 		.ascii	"__UINT64_TYPE__ long long unsigned int\000"
 9121      4E543634 
 9121      5F545950 
 9121      455F5F20 
 9121      6C6F6E67 
 9122              	.LASF182:
 9123 7a69 5F5F4445 		.ascii	"__DEC128_MIN__ 1E-6143DL\000"
 9123      43313238 
 9123      5F4D494E 
 9123      5F5F2031 
 9123      452D3631 
 9124              	.LASF99:
 9125 7a82 5F5F494E 		.ascii	"__INT64_C(c) c ## LL\000"
 9125      5436345F 
 9125      43286329 
ARM GAS  C:\Users\COSMIN~1.MAR\AppData\Local\Temp\cccNbcra.s 			page 239


 9125      20632023 
 9125      23204C4C 
 9126              	.LASF247:
 9127 7a97 5F5F4C41 		.ascii	"__LACCUM_IBIT__ 32\000"
 9127      4343554D 
 9127      5F494249 
 9127      545F5F20 
 9127      333200
 9128              	.LASF664:
 9129 7aaa 4D50555F 		.ascii	"MPU_RASR_TEX_Pos 19\000"
 9129      52415352 
 9129      5F544558 
 9129      5F506F73 
 9129      20313900 
 9130              	.LASF843:
 9131 7abe 4C50435F 		.ascii	"LPC_GPDMACH0 ((LPC_GPDMACH_TypeDef *) LPC_GPDMACH0_"
 9131      4750444D 
 9131      41434830 
 9131      2028284C 
 9131      50435F47 
 9132 7af1 42415345 		.ascii	"BASE )\000"
 9132      202900
 9133              	.LASF530:
 9134 7af8 5343425F 		.ascii	"SCB_CCR_USERSETMPEND_Pos 1\000"
 9134      4343525F 
 9134      55534552 
 9134      5345544D 
 9134      50454E44 
 9135              	.LASF941:
 9136 7b13 434C4B50 		.ascii	"CLKPWR_IRCTRIM_BITMASK ((uint32_t)(0x0F))\000"
 9136      57525F49 
 9136      52435452 
 9136      494D5F42 
 9136      49544D41 
 9137              	.LASF418:
 9138 7b3d 494E545F 		.ascii	"INT_LEAST32_MIN (-__INT_LEAST32_MAX__ - 1)\000"
 9138      4C454153 
 9138      5433325F 
 9138      4D494E20 
 9138      282D5F5F 
 9139              	.LASF781:
 9140 7b68 4C50435F 		.ascii	"LPC_UART3_BASE (LPC_APB1_BASE + 0x1C000)\000"
 9140      55415254 
 9140      335F4241 
 9140      53452028 
 9140      4C50435F 
 9141              	.LASF1135:
 9142 7b91 54494D5F 		.ascii	"TIM_CR1_INT\000"
 9142      4352315F 
 9142      494E5400 
 9143              	.LASF159:
 9144 7b9d 5F5F4C44 		.ascii	"__LDBL_MIN__ 2.2250738585072014e-308L\000"
 9144      424C5F4D 
 9144      494E5F5F 
 9144      20322E32 
 9144      32353037 
 9145              	.LASF672:
ARM GAS  C:\Users\COSMIN~1.MAR\AppData\Local\Temp\cccNbcra.s 			page 240


 9146 7bc3 4D50555F 		.ascii	"MPU_RASR_SRD_Pos 8\000"
 9146      52415352 
 9146      5F535244 
 9146      5F506F73 
 9146      203800
 9147              	.LASF237:
 9148 7bd6 5F5F4143 		.ascii	"__ACCUM_IBIT__ 16\000"
 9148      43554D5F 
 9148      49424954 
 9148      5F5F2031 
 9148      3600
 9149              	.LASF22:
 9150 7be8 5F5F4249 		.ascii	"__BIGGEST_ALIGNMENT__ 8\000"
 9150      47474553 
 9150      545F414C 
 9150      49474E4D 
 9150      454E545F 
 9151              	.LASF89:
 9152 7c00 5F5F5549 		.ascii	"__UINT16_MAX__ 65535\000"
 9152      4E543136 
 9152      5F4D4158 
 9152      5F5F2036 
 9152      35353335 
 9153              	.LASF1009:
 9154 7c15 434C4B50 		.ascii	"CLKPWR_PCONP_PCI2C2 ((uint32_t)(1<<26))\000"
 9154      57525F50 
 9154      434F4E50 
 9154      5F504349 
 9154      32433220 
 9155              	.LASF312:
 9156 7c3d 5F5F4743 		.ascii	"__GCC_ATOMIC_CHAR16_T_LOCK_FREE 2\000"
 9156      435F4154 
 9156      4F4D4943 
 9156      5F434841 
 9156      5231365F 
 9157              	.LASF637:
 9158 7c5f 496E7454 		.ascii	"IntType_ACTLR_DISDEFWBUF_Msk (1UL << IntType_ACTLR_"
 9158      7970655F 
 9158      4143544C 
 9158      525F4449 
 9158      53444546 
 9159 7c92 44495344 		.ascii	"DISDEFWBUF_Pos)\000"
 9159      45465742 
 9159      55465F50 
 9159      6F732900 
 9160              	.LASF922:
 9161 7ca2 434C4B50 		.ascii	"CLKPWR_PLL0STAT_NSEL(n) ((uint32_t)((n>>16)&0xFF))\000"
 9161      57525F50 
 9161      4C4C3053 
 9161      5441545F 
 9161      4E53454C 
 9162              	.LASF1102:
 9163 7cd5 73686F72 		.ascii	"short int\000"
 9163      7420696E 
 9163      7400
 9164              	.LASF540:
 9165 7cdf 5343425F 		.ascii	"SCB_SHCSR_SVCALLPENDED_Pos 15\000"
ARM GAS  C:\Users\COSMIN~1.MAR\AppData\Local\Temp\cccNbcra.s 			page 241


 9165      53484353 
 9165      525F5356 
 9165      43414C4C 
 9165      50454E44 
 9166              	.LASF201:
 9167 7cfd 5F5F5546 		.ascii	"__UFRACT_FBIT__ 16\000"
 9167      52414354 
 9167      5F464249 
 9167      545F5F20 
 9167      313600
 9168              	.LASF103:
 9169 7d10 5F5F5549 		.ascii	"__UINT16_C(c) c\000"
 9169      4E543136 
 9169      5F432863 
 9169      29206300 
 9170              	.LASF1116:
 9171 7d20 75696E74 		.ascii	"uint64_t\000"
 9171      36345F74 
 9171      00
 9172              	.LASF299:
 9173 7d29 5F5F5544 		.ascii	"__UDA_IBIT__ 32\000"
 9173      415F4942 
 9173      49545F5F 
 9173      20333200 
 9174              	.LASF618:
 9175 7d39 49544D5F 		.ascii	"ITM_TCR_ITMENA_Pos 0\000"
 9175      5443525F 
 9175      49544D45 
 9175      4E415F50 
 9175      6F732030 
 9176              	.LASF305:
 9177 7d4e 5F5F4E4F 		.ascii	"__NO_INLINE__ 1\000"
 9177      5F494E4C 
 9177      494E455F 
 9177      5F203100 
 9178              	.LASF1182:
 9179 7d5e 54696D65 		.ascii	"TimerCounterMode\000"
 9179      72436F75 
 9179      6E746572 
 9179      4D6F6465 
 9179      00
 9180              	.LASF704:
 9181 7d6f 436F7265 		.ascii	"CoreDebug_DCRSR_REGSEL_Pos 0\000"
 9181      44656275 
 9181      675F4443 
 9181      5253525F 
 9181      52454753 
 9182              	.LASF421:
 9183 7d8c 494E5436 		.ascii	"INT64_MIN (-__INT64_MAX__ - 1)\000"
 9183      345F4D49 
 9183      4E20282D 
 9183      5F5F494E 
 9183      5436345F 
 9184              	.LASF791:
 9185 7dab 4C50435F 		.ascii	"LPC_GPDMACH1_BASE (LPC_AHB_BASE + 0x04120)\000"
 9185      4750444D 
 9185      41434831 
ARM GAS  C:\Users\COSMIN~1.MAR\AppData\Local\Temp\cccNbcra.s 			page 242


 9185      5F424153 
 9185      4520284C 
 9186              	.LASF464:
 9187 7dd6 5F5F5553 		.ascii	"__USAT(ARG1,ARG2) ({ uint32_t __RES, __ARG1 = (ARG1"
 9187      41542841 
 9187      5247312C 
 9187      41524732 
 9187      2920287B 
 9188 7e09 293B205F 		.ascii	"); __ASM (\"usat %0, %1, %2\" : \"=r\" (__RES) : \""
 9188      5F41534D 
 9188      20282275 
 9188      73617420 
 9188      25302C20 
 9189 7e37 49222028 		.ascii	"I\" (ARG2), \"r\" (__ARG1) ); __RES; })\000"
 9189      41524732 
 9189      292C2022 
 9189      72222028 
 9189      5F5F4152 
 9190              	.LASF6:
 9191 7e5c 5F5F4154 		.ascii	"__ATOMIC_RELAXED 0\000"
 9191      4F4D4943 
 9191      5F52454C 
 9191      41584544 
 9191      203000
 9192              	.LASF678:
 9193 7e6f 436F7265 		.ascii	"CoreDebug_DHCSR_DBGKEY_Pos 16\000"
 9193      44656275 
 9193      675F4448 
 9193      4353525F 
 9193      4442474B 
 9194              	.LASF656:
 9195 7e8d 4D50555F 		.ascii	"MPU_RBAR_VALID_Pos 4\000"
 9195      52424152 
 9195      5F56414C 
 9195      49445F50 
 9195      6F732034 
 9196              	.LASF149:
 9197 7ea2 5F5F4442 		.ascii	"__DBL_HAS_INFINITY__ 1\000"
 9197      4C5F4841 
 9197      535F494E 
 9197      46494E49 
 9197      54595F5F 
 9198              	.LASF426:
 9199 7eb9 55494E54 		.ascii	"UINT_LEAST64_MAX __UINT_LEAST64_MAX__\000"
 9199      5F4C4541 
 9199      53543634 
 9199      5F4D4158 
 9199      205F5F55 
 9200              	.LASF420:
 9201 7edf 55494E54 		.ascii	"UINT_LEAST32_MAX __UINT_LEAST32_MAX__\000"
 9201      5F4C4541 
 9201      53543332 
 9201      5F4D4158 
 9201      205F5F55 
 9202              	.LASF647:
 9203 7f05 4D50555F 		.ascii	"MPU_CTRL_PRIVDEFENA_Msk (1UL << MPU_CTRL_PRIVDEFENA"
 9203      4354524C 
ARM GAS  C:\Users\COSMIN~1.MAR\AppData\Local\Temp\cccNbcra.s 			page 243


 9203      5F505249 
 9203      56444546 
 9203      454E415F 
 9204 7f38 5F506F73 		.ascii	"_Pos)\000"
 9204      2900
 9205              	.LASF940:
 9206 7f3e 434C4B50 		.ascii	"CLKPWR_USBCLKCFG_BITMASK ((uint32_t)(0x0F))\000"
 9206      57525F55 
 9206      5342434C 
 9206      4B434647 
 9206      5F424954 
 9207              	.LASF1188:
 9208 7f6a 54494D5F 		.ascii	"TIM_DeInit\000"
 9208      4465496E 
 9208      697400
 9209              	.LASF888:
 9210 7f75 54494D5F 		.ascii	"TIM_EM_MASK(n) (_SBF(((n << 1) + 4), 0x03))\000"
 9210      454D5F4D 
 9210      41534B28 
 9210      6E292028 
 9210      5F534246 
 9211              	.LASF469:
 9212 7fa1 5F5F494F 		.ascii	"__IO volatile\000"
 9212      20766F6C 
 9212      6174696C 
 9212      6500
 9213              	.LASF832:
 9214 7faf 4C50435F 		.ascii	"LPC_DAC ((LPC_DAC_TypeDef *) LPC_DAC_BASE )\000"
 9214      44414320 
 9214      28284C50 
 9214      435F4441 
 9214      435F5479 
 9215              	.LASF1052:
 9216 7fdb 50494E53 		.ascii	"PINSEL_PIN_24 ((24))\000"
 9216      454C5F50 
 9216      494E5F32 
 9216      34202828 
 9216      32342929 
 9217              	.LASF1012:
 9218 7ff0 434C4B50 		.ascii	"CLKPWR_PCONP_PCENET ((uint32_t)(1<<30))\000"
 9218      57525F50 
 9218      434F4E50 
 9218      5F504345 
 9218      4E455420 
 9219              	.LASF936:
 9220 8018 434C4B50 		.ascii	"CLKPWR_PLL1STAT_PLLC ((uint32_t)(1<<9))\000"
 9220      57525F50 
 9220      4C4C3153 
 9220      5441545F 
 9220      504C4C43 
 9221              	.LASF1019:
 9222 8040 50494E53 		.ascii	"PINSEL_PORT_0 ((0))\000"
 9222      454C5F50 
 9222      4F52545F 
 9222      30202828 
 9222      30292900 
 9223              	.LASF17:
ARM GAS  C:\Users\COSMIN~1.MAR\AppData\Local\Temp\cccNbcra.s 			page 244


 9224 8054 5F5F5349 		.ascii	"__SIZEOF_FLOAT__ 4\000"
 9224      5A454F46 
 9224      5F464C4F 
 9224      41545F5F 
 9224      203400
 9225              	.LASF1123:
 9226 8067 54525545 		.ascii	"TRUE\000"
 9226      00
 9227              	.LASF68:
 9228 806c 5F5F5348 		.ascii	"__SHRT_MAX__ 32767\000"
 9228      52545F4D 
 9228      41585F5F 
 9228      20333237 
 9228      363700
 9229              	.LASF730:
 9230 807f 436F7265 		.ascii	"CoreDebug_DEMCR_VC_CORERESET_Pos 0\000"
 9230      44656275 
 9230      675F4445 
 9230      4D43525F 
 9230      56435F43 
 9231              	.LASF143:
 9232 80a2 5F5F4442 		.ascii	"__DBL_DECIMAL_DIG__ 17\000"
 9232      4C5F4445 
 9232      43494D41 
 9232      4C5F4449 
 9232      475F5F20 
 9233              	.LASF482:
 9234 80b9 5343425F 		.ascii	"SCB_ICSR_PENDSVCLR_Pos 27\000"
 9234      49435352 
 9234      5F50454E 
 9234      44535643 
 9234      4C525F50 
 9235              	.LASF387:
 9236 80d3 5F5F6861 		.ascii	"__have_long32 1\000"
 9236      76655F6C 
 9236      6F6E6733 
 9236      32203100 
 9237              	.LASF406:
 9238 80e3 494E545F 		.ascii	"INT_LEAST8_MIN (-__INT_LEAST8_MAX__ - 1)\000"
 9238      4C454153 
 9238      54385F4D 
 9238      494E2028 
 9238      2D5F5F49 
 9239              	.LASF1127:
 9240 810c 454E4142 		.ascii	"ENABLE\000"
 9240      4C4500
 9241              	.LASF251:
 9242 8113 5F5F554C 		.ascii	"__ULACCUM_FBIT__ 32\000"
 9242      41434355 
 9242      4D5F4642 
 9242      49545F5F 
 9242      20333200 
 9243              	.LASF506:
 9244 8127 5343425F 		.ascii	"SCB_AIRCR_ENDIANESS_Pos 15\000"
 9244      41495243 
 9244      525F454E 
 9244      4449414E 
ARM GAS  C:\Users\COSMIN~1.MAR\AppData\Local\Temp\cccNbcra.s 			page 245


 9244      4553535F 
 9245              	.LASF1192:
 9246 8142 54494D5F 		.ascii	"TIM_ConfigMatch\000"
 9246      436F6E66 
 9246      69674D61 
 9246      74636800 
 9247              	.LASF1041:
 9248 8152 50494E53 		.ascii	"PINSEL_PIN_13 ((13))\000"
 9248      454C5F50 
 9248      494E5F31 
 9248      33202828 
 9248      31332929 
 9249              	.LASF625:
 9250 8167 49544D5F 		.ascii	"ITM_IMCR_INTEGRATION_Msk (1UL << ITM_IMCR_INTEGRATI"
 9250      494D4352 
 9250      5F494E54 
 9250      45475241 
 9250      54494F4E 
 9251 819a 4F4E5F50 		.ascii	"ON_Pos)\000"
 9251      6F732900 
 9252              	.LASF394:
 9253 81a2 5F5F696E 		.ascii	"__int64_t_defined 1\000"
 9253      7436345F 
 9253      745F6465 
 9253      66696E65 
 9253      64203100 
 9254              	.LASF592:
 9255 81b6 53797354 		.ascii	"SysTick_LOAD_RELOAD_Pos 0\000"
 9255      69636B5F 
 9255      4C4F4144 
 9255      5F52454C 
 9255      4F41445F 
 9256              	.LASF341:
 9257 81d0 5F5F4152 		.ascii	"__ARMEL__ 1\000"
 9257      4D454C5F 
 9257      5F203100 
 9258              	.LASF690:
 9259 81dc 436F7265 		.ascii	"CoreDebug_DHCSR_S_REGRDY_Pos 16\000"
 9259      44656275 
 9259      675F4448 
 9259      4353525F 
 9259      535F5245 
 9260              	.LASF929:
 9261 81fc 434C4B50 		.ascii	"CLKPWR_PLL1CON_BITMASK ((uint32_t)(0x03))\000"
 9261      57525F50 
 9261      4C4C3143 
 9261      4F4E5F42 
 9261      49544D41 
 9262              	.LASF623:
 9263 8226 49544D5F 		.ascii	"ITM_IRR_ATREADYM_Msk (1UL << ITM_IRR_ATREADYM_Pos)\000"
 9263      4952525F 
 9263      41545245 
 9263      4144594D 
 9263      5F4D736B 
 9264              	.LASF985:
 9265 8259 434C4B50 		.ascii	"CLKPWR_PCLKSEL_CCLK_DIV_1 ((uint32_t)(1))\000"
 9265      57525F50 
ARM GAS  C:\Users\COSMIN~1.MAR\AppData\Local\Temp\cccNbcra.s 			page 246


 9265      434C4B53 
 9265      454C5F43 
 9265      434C4B5F 
 9266              	.LASF698:
 9267 8283 436F7265 		.ascii	"CoreDebug_DHCSR_C_HALT_Pos 1\000"
 9267      44656275 
 9267      675F4448 
 9267      4353525F 
 9267      435F4841 
 9268              	.LASF606:
 9269 82a0 49544D5F 		.ascii	"ITM_TCR_ATBID_Pos 16\000"
 9269      5443525F 
 9269      41544249 
 9269      445F506F 
 9269      73203136 
 9270              	.LASF1151:
 9271 82b5 54494D5F 		.ascii	"TIM_TIMERCFG_Type\000"
 9271      54494D45 
 9271      52434647 
 9271      5F547970 
 9271      6500
 9272              	.LASF1036:
 9273 82c7 50494E53 		.ascii	"PINSEL_PIN_8 ((8))\000"
 9273      454C5F50 
 9273      494E5F38 
 9273      20282838 
 9273      292900
 9274              	.LASF977:
 9275 82da 434C4B50 		.ascii	"CLKPWR_PCLKSEL_UART2 ((uint32_t)(48))\000"
 9275      57525F50 
 9275      434C4B53 
 9275      454C5F55 
 9275      41525432 
 9276              	.LASF266:
 9277 8300 5F5F5151 		.ascii	"__QQ_FBIT__ 7\000"
 9277      5F464249 
 9277      545F5F20 
 9277      3700
 9278              	.LASF213:
 9279 830e 5F5F554C 		.ascii	"__ULFRACT_MIN__ 0.0ULR\000"
 9279      46524143 
 9279      545F4D49 
 9279      4E5F5F20 
 9279      302E3055 
 9280              	.LASF373:
 9281 8325 5F5F474E 		.ascii	"__GNUC_PREREQ__(ma,mi) __GNUC_PREREQ(ma, mi)\000"
 9281      55435F50 
 9281      52455245 
 9281      515F5F28 
 9281      6D612C6D 
 9282              	.LASF1088:
 9283 8352 5F50574D 		.ascii	"_PWM 1\000"
 9283      203100
 9284              	.LASF301:
 9285 8359 5F5F5554 		.ascii	"__UTA_IBIT__ 64\000"
 9285      415F4942 
 9285      49545F5F 
ARM GAS  C:\Users\COSMIN~1.MAR\AppData\Local\Temp\cccNbcra.s 			page 247


 9285      20363400 
 9286              	.LASF262:
 9287 8369 5F5F554C 		.ascii	"__ULLACCUM_IBIT__ 32\000"
 9287      4C414343 
 9287      554D5F49 
 9287      4249545F 
 9287      5F203332 
 9288              	.LASF1006:
 9289 837e 434C4B50 		.ascii	"CLKPWR_PCONP_PCTIM3 ((uint32_t)(1<<23))\000"
 9289      57525F50 
 9289      434F4E50 
 9289      5F504354 
 9289      494D3320 
 9290              	.LASF225:
 9291 83a6 5F5F554C 		.ascii	"__ULLFRACT_EPSILON__ 0x1P-64ULLR\000"
 9291      4C465241 
 9291      43545F45 
 9291      5053494C 
 9291      4F4E5F5F 
 9292              	.LASF1166:
 9293 83c7 54494D5F 		.ascii	"TIM_CAPTURECFG_Type\000"
 9293      43415054 
 9293      55524543 
 9293      46475F54 
 9293      79706500 
 9294              	.LASF324:
 9295 83db 5F5F5349 		.ascii	"__SIZEOF_WINT_T__ 4\000"
 9295      5A454F46 
 9295      5F57494E 
 9295      545F545F 
 9295      5F203400 
 9296              	.LASF328:
 9297 83ef 5F5F4152 		.ascii	"__ARM_FEATURE_UNALIGNED 1\000"
 9297      4D5F4645 
 9297      41545552 
 9297      455F554E 
 9297      414C4947 
 9298              	.LASF218:
 9299 8409 5F5F4C4C 		.ascii	"__LLFRACT_MIN__ (-0.5LLR-0.5LLR)\000"
 9299      46524143 
 9299      545F4D49 
 9299      4E5F5F20 
 9299      282D302E 
 9300              	.LASF248:
 9301 842a 5F5F4C41 		.ascii	"__LACCUM_MIN__ (-0X1P31LK-0X1P31LK)\000"
 9301      4343554D 
 9301      5F4D494E 
 9301      5F5F2028 
 9301      2D305831 
 9302              	.LASF350:
 9303 844e 5F5F4152 		.ascii	"__ARM_EABI__ 1\000"
 9303      4D5F4541 
 9303      42495F5F 
 9303      203100
 9304              	.LASF928:
 9305 845d 434C4B50 		.ascii	"CLKPWR_PLL1CON_CONNECT ((uint32_t)(0x02))\000"
 9305      57525F50 
ARM GAS  C:\Users\COSMIN~1.MAR\AppData\Local\Temp\cccNbcra.s 			page 248


 9305      4C4C3143 
 9305      4F4E5F43 
 9305      4F4E4E45 
 9306              	.LASF147:
 9307 8487 5F5F4442 		.ascii	"__DBL_DENORM_MIN__ ((double)4.9406564584124654e-324"
 9307      4C5F4445 
 9307      4E4F524D 
 9307      5F4D494E 
 9307      5F5F2028 
 9308 84ba 4C2900   		.ascii	"L)\000"
 9309              	.LASF263:
 9310 84bd 5F5F554C 		.ascii	"__ULLACCUM_MIN__ 0.0ULLK\000"
 9310      4C414343 
 9310      554D5F4D 
 9310      494E5F5F 
 9310      20302E30 
 9311              	.LASF1157:
 9312 84d6 53746F70 		.ascii	"StopOnMatch\000"
 9312      4F6E4D61 
 9312      74636800 
 9313              	.LASF874:
 9314 84e2 54494D5F 		.ascii	"TIM_MCR_MASKBIT ((uint32_t)(0x0FFF))\000"
 9314      4D43525F 
 9314      4D41534B 
 9314      42495420 
 9314      28287569 
 9315              	.LASF682:
 9316 8507 436F7265 		.ascii	"CoreDebug_DHCSR_S_RETIRE_ST_Pos 24\000"
 9316      44656275 
 9316      675F4448 
 9316      4353525F 
 9316      535F5245 
 9317              	.LASF947:
 9318 852a 434C4B50 		.ascii	"CLKPWR_PCON_PM0 ((uint32_t)(1<<0))\000"
 9318      57525F50 
 9318      434F4E5F 
 9318      504D3020 
 9318      28287569 
 9319              	.LASF860:
 9320 854d 5F424954 		.ascii	"_BITMASK(field_width) ( _BIT(field_width) - 1)\000"
 9320      4D41534B 
 9320      28666965 
 9320      6C645F77 
 9320      69647468 
 9321              	.LASF902:
 9322 857c 434C4B50 		.ascii	"CLKPWR_CLKSRCSEL_CLKSRC_IRC ((uint32_t)(0x00))\000"
 9322      57525F43 
 9322      4C4B5352 
 9322      4353454C 
 9322      5F434C4B 
 9323              	.LASF44:
 9324 85ab 5F5F5549 		.ascii	"__UINT32_TYPE__ long unsigned int\000"
 9324      4E543332 
 9324      5F545950 
 9324      455F5F20 
 9324      6C6F6E67 
 9325              	.LASF401:
ARM GAS  C:\Users\COSMIN~1.MAR\AppData\Local\Temp\cccNbcra.s 			page 249


 9326 85cd 494E5450 		.ascii	"INTPTR_MAX __INTPTR_MAX__\000"
 9326      54525F4D 
 9326      4158205F 
 9326      5F494E54 
 9326      5054525F 
 9327              	.LASF339:
 9328 85e7 5F5F7468 		.ascii	"__thumb2__ 1\000"
 9328      756D6232 
 9328      5F5F2031 
 9328      00
 9329              	.LASF607:
 9330 85f4 49544D5F 		.ascii	"ITM_TCR_ATBID_Msk (0x7FUL << ITM_TCR_ATBID_Pos)\000"
 9330      5443525F 
 9330      41544249 
 9330      445F4D73 
 9330      6B202830 
 9331              	.LASF500:
 9332 8624 5343425F 		.ascii	"SCB_VTOR_TBLOFF_Pos 7\000"
 9332      56544F52 
 9332      5F54424C 
 9332      4F46465F 
 9332      506F7320 
 9333              	.LASF565:
 9334 863a 5343425F 		.ascii	"SCB_CFSR_BUSFAULTSR_Msk (0xFFUL << SCB_CFSR_BUSFAUL"
 9334      43465352 
 9334      5F425553 
 9334      4641554C 
 9334      5453525F 
 9335 866d 5453525F 		.ascii	"TSR_Pos)\000"
 9335      506F7329 
 9335      00
 9336              	.LASF773:
 9337 8676 4C50435F 		.ascii	"LPC_CAN1_BASE (LPC_APB0_BASE + 0x44000)\000"
 9337      43414E31 
 9337      5F424153 
 9337      4520284C 
 9337      50435F41 
 9338              	.LASF895:
 9339 869e 50415241 		.ascii	"PARAM_TIM_MODE_OPT(MODE) ((MODE == TIM_TIMER_MODE)|"
 9339      4D5F5449 
 9339      4D5F4D4F 
 9339      44455F4F 
 9339      5054284D 
 9340 86d1 7C284D4F 		.ascii	"|(MODE == TIM_COUNTER_RISING_MODE)|| (MODE == TIM_C"
 9340      4445203D 
 9340      3D205449 
 9340      4D5F434F 
 9340      554E5445 
 9341 8704 4F554E54 		.ascii	"OUNTER_RISING_MODE)||(MODE == TIM_COUNTER_RISING_MO"
 9341      45525F52 
 9341      4953494E 
 9341      475F4D4F 
 9341      4445297C 
 9342 8737 44452929 		.ascii	"DE))\000"
 9342      00
 9343              	.LASF629:
 9344 873c 49544D5F 		.ascii	"ITM_LSR_Access_Msk (1UL << ITM_LSR_Access_Pos)\000"
ARM GAS  C:\Users\COSMIN~1.MAR\AppData\Local\Temp\cccNbcra.s 			page 250


 9344      4C53525F 
 9344      41636365 
 9344      73735F4D 
 9344      736B2028 
 9345              	.LASF823:
 9346 876b 4C50435F 		.ascii	"LPC_I2C2 ((LPC_I2C_TypeDef *) LPC_I2C2_BASE )\000"
 9346      49324332 
 9346      2028284C 
 9346      50435F49 
 9346      32435F54 
 9347              	.LASF223:
 9348 8799 5F5F554C 		.ascii	"__ULLFRACT_MIN__ 0.0ULLR\000"
 9348      4C465241 
 9348      43545F4D 
 9348      494E5F5F 
 9348      20302E30 
 9349              	.LASF912:
 9350 87b2 434C4B50 		.ascii	"CLKPWR_CLKOUTCFG_CLKOUT_EN ((uint32_t)(1<<8))\000"
 9350      57525F43 
 9350      4C4B4F55 
 9350      54434647 
 9350      5F434C4B 
 9351              	.LASF283:
 9352 87e0 5F5F5544 		.ascii	"__UDQ_IBIT__ 0\000"
 9352      515F4942 
 9352      49545F5F 
 9352      203000
 9353              	.LASF1096:
 9354 87ef 5F43414E 		.ascii	"_CAN 1\000"
 9354      203100
 9355              	.LASF13:
 9356 87f6 5F5F5349 		.ascii	"__SIZEOF_INT__ 4\000"
 9356      5A454F46 
 9356      5F494E54 
 9356      5F5F2034 
 9356      00
 9357              	.LASF1066:
 9358 8807 50494E53 		.ascii	"PINSEL_I2C_Fast_Mode ((1))\000"
 9358      454C5F49 
 9358      32435F46 
 9358      6173745F 
 9358      4D6F6465 
 9359              	.LASF217:
 9360 8822 5F5F4C4C 		.ascii	"__LLFRACT_IBIT__ 0\000"
 9360      46524143 
 9360      545F4942 
 9360      49545F5F 
 9360      203000
 9361              	.LASF454:
 9362 8835 55494E54 		.ascii	"UINT16_C(x) __UINT16_C(x)\000"
 9362      31365F43 
 9362      28782920 
 9362      5F5F5549 
 9362      4E543136 
 9363              	.LASF679:
 9364 884f 436F7265 		.ascii	"CoreDebug_DHCSR_DBGKEY_Msk (0xFFFFUL << CoreDebug_D"
 9364      44656275 
ARM GAS  C:\Users\COSMIN~1.MAR\AppData\Local\Temp\cccNbcra.s 			page 251


 9364      675F4448 
 9364      4353525F 
 9364      4442474B 
 9365 8882 48435352 		.ascii	"HCSR_DBGKEY_Pos)\000"
 9365      5F444247 
 9365      4B45595F 
 9365      506F7329 
 9365      00
 9366              	.LASF1115:
 9367 8893 75696E74 		.ascii	"uint32_t\000"
 9367      33325F74 
 9367      00
 9368              	.LASF829:
 9369 889c 4C50435F 		.ascii	"LPC_SSP0 ((LPC_SSP_TypeDef *) LPC_SSP0_BASE )\000"
 9369      53535030 
 9369      2028284C 
 9369      50435F53 
 9369      53505F54 
 9370              	.LASF630:
 9371 88ca 49544D5F 		.ascii	"ITM_LSR_Present_Pos 0\000"
 9371      4C53525F 
 9371      50726573 
 9371      656E745F 
 9371      506F7320 
 9372              	.LASF384:
 9373 88e0 5F535953 		.ascii	"_SYS__INTSUP_H \000"
 9373      5F5F494E 
 9373      54535550 
 9373      5F482000 
 9374              	.LASF1178:
 9375 88f0 54494D5F 		.ascii	"TIM_GetIntCaptureStatus\000"
 9375      47657449 
 9375      6E744361 
 9375      70747572 
 9375      65537461 
 9376              	.LASF753:
 9377 8908 4C50435F 		.ascii	"LPC_APB0_BASE (0x40000000UL)\000"
 9377      41504230 
 9377      5F424153 
 9377      45202830 
 9377      78343030 
 9378              	.LASF230:
 9379 8925 5F5F5341 		.ascii	"__SACCUM_EPSILON__ 0x1P-7HK\000"
 9379      4343554D 
 9379      5F455053 
 9379      494C4F4E 
 9379      5F5F2030 
 9380              	.LASF862:
 9381 8941 4E454C45 		.ascii	"NELEMENTS(array) (sizeof (array) / sizeof (array[0]"
 9381      4D454E54 
 9381      53286172 
 9381      72617929 
 9381      20287369 
 9382 8974 292900   		.ascii	"))\000"
 9383              	.LASF674:
 9384 8977 4D50555F 		.ascii	"MPU_RASR_SIZE_Pos 1\000"
 9384      52415352 
ARM GAS  C:\Users\COSMIN~1.MAR\AppData\Local\Temp\cccNbcra.s 			page 252


 9384      5F53495A 
 9384      455F506F 
 9384      73203100 
 9385              	.LASF1011:
 9386 898b 434C4B50 		.ascii	"CLKPWR_PCONP_PCGPDMA ((uint32_t)(1<<29))\000"
 9386      57525F50 
 9386      434F4E50 
 9386      5F504347 
 9386      50444D41 
 9387              	.LASF1022:
 9388 89b4 50494E53 		.ascii	"PINSEL_PORT_3 ((3))\000"
 9388      454C5F50 
 9388      4F52545F 
 9388      33202828 
 9388      33292900 
 9389              	.LASF968:
 9390 89c8 434C4B50 		.ascii	"CLKPWR_PCLKSEL_CAN1 ((uint32_t)(26))\000"
 9390      57525F50 
 9390      434C4B53 
 9390      454C5F43 
 9390      414E3120 
 9391              	.LASF59:
 9392 89ed 5F5F5549 		.ascii	"__UINT_FAST16_TYPE__ unsigned int\000"
 9392      4E545F46 
 9392      41535431 
 9392      365F5459 
 9392      50455F5F 
 9393              	.LASF599:
 9394 8a0f 53797354 		.ascii	"SysTick_CALIB_SKEW_Msk (1UL << SysTick_CALIB_SKEW_P"
 9394      69636B5F 
 9394      43414C49 
 9394      425F534B 
 9394      45575F4D 
 9395 8a42 6F732900 		.ascii	"os)\000"
 9396              	.LASF295:
 9397 8a46 5F5F5548 		.ascii	"__UHA_IBIT__ 8\000"
 9397      415F4942 
 9397      49545F5F 
 9397      203800
 9398              	.LASF646:
 9399 8a55 4D50555F 		.ascii	"MPU_CTRL_PRIVDEFENA_Pos 2\000"
 9399      4354524C 
 9399      5F505249 
 9399      56444546 
 9399      454E415F 
 9400              	.LASF240:
 9401 8a6f 5F5F4143 		.ascii	"__ACCUM_EPSILON__ 0x1P-15K\000"
 9401      43554D5F 
 9401      45505349 
 9401      4C4F4E5F 
 9401      5F203078 
 9402              	.LASF255:
 9403 8a8a 5F5F554C 		.ascii	"__ULACCUM_EPSILON__ 0x1P-32ULK\000"
 9403      41434355 
 9403      4D5F4550 
 9403      53494C4F 
 9403      4E5F5F20 
ARM GAS  C:\Users\COSMIN~1.MAR\AppData\Local\Temp\cccNbcra.s 			page 253


 9404              	.LASF1018:
 9405 8aa9 50494E53 		.ascii	"PINSEL_I2CPADCFG_SCLI2C0 _BIT(3)\000"
 9405      454C5F49 
 9405      32435041 
 9405      44434647 
 9405      5F53434C 
 9406              	.LASF152:
 9407 8aca 5F5F4C44 		.ascii	"__LDBL_DIG__ 15\000"
 9407      424C5F44 
 9407      49475F5F 
 9407      20313500 
 9408              	.LASF1155:
 9409 8ada 4D617463 		.ascii	"MatchChannel\000"
 9409      68436861 
 9409      6E6E656C 
 9409      00
 9410              	.LASF1048:
 9411 8ae7 50494E53 		.ascii	"PINSEL_PIN_20 ((20))\000"
 9411      454C5F50 
 9411      494E5F32 
 9411      30202828 
 9411      32302929 
 9412              	.LASF1061:
 9413 8afc 50494E53 		.ascii	"PINSEL_PINMODE_TRISTATE ((2))\000"
 9413      454C5F50 
 9413      494E4D4F 
 9413      44455F54 
 9413      52495354 
 9414              	.LASF75:
 9415 8b1a 5F5F5749 		.ascii	"__WINT_MIN__ 0U\000"
 9415      4E545F4D 
 9415      494E5F5F 
 9415      20305500 
 9416              	.LASF960:
 9417 8b2a 434C4B50 		.ascii	"CLKPWR_PCLKSEL_UART0 ((uint32_t)(6))\000"
 9417      57525F50 
 9417      434C4B53 
 9417      454C5F55 
 9417      41525430 
 9418              	.LASF177:
 9419 8b4f 5F5F4445 		.ascii	"__DEC64_EPSILON__ 1E-15DD\000"
 9419      4336345F 
 9419      45505349 
 9419      4C4F4E5F 
 9419      5F203145 
 9420              	.LASF700:
 9421 8b69 436F7265 		.ascii	"CoreDebug_DHCSR_C_DEBUGEN_Pos 0\000"
 9421      44656275 
 9421      675F4448 
 9421      4353525F 
 9421      435F4445 
 9422              	.LASF498:
 9423 8b89 5343425F 		.ascii	"SCB_VTOR_TBLBASE_Pos 29\000"
 9423      56544F52 
 9423      5F54424C 
 9423      42415345 
 9423      5F506F73 
ARM GAS  C:\Users\COSMIN~1.MAR\AppData\Local\Temp\cccNbcra.s 			page 254


 9424              	.LASF432:
 9425 8ba1 55494E54 		.ascii	"UINT_FAST16_MAX __UINT_FAST16_MAX__\000"
 9425      5F464153 
 9425      5431365F 
 9425      4D415820 
 9425      5F5F5549 
 9426              	.LASF47:
 9427 8bc5 5F5F494E 		.ascii	"__INT_LEAST16_TYPE__ short int\000"
 9427      545F4C45 
 9427      41535431 
 9427      365F5459 
 9427      50455F5F 
 9428              	.LASF144:
 9429 8be4 5F5F4442 		.ascii	"__DBL_MAX__ ((double)1.7976931348623157e+308L)\000"
 9429      4C5F4D41 
 9429      585F5F20 
 9429      2828646F 
 9429      75626C65 
 9430              	.LASF1103:
 9431 8c13 73686F72 		.ascii	"short unsigned int\000"
 9431      7420756E 
 9431      7369676E 
 9431      65642069 
 9431      6E7400
 9432              	.LASF216:
 9433 8c26 5F5F4C4C 		.ascii	"__LLFRACT_FBIT__ 63\000"
 9433      46524143 
 9433      545F4642 
 9433      49545F5F 
 9433      20363300 
 9434              	.LASF471:
 9435 8c3a 5343425F 		.ascii	"SCB_CPUID_IMPLEMENTER_Msk (0xFFUL << SCB_CPUID_IMPL"
 9435      43505549 
 9435      445F494D 
 9435      504C454D 
 9435      454E5445 
 9436 8c6d 454D454E 		.ascii	"EMENTER_Pos)\000"
 9436      5445525F 
 9436      506F7329 
 9436      00
 9437              	.LASF338:
 9438 8c7a 5F5F7468 		.ascii	"__thumb__ 1\000"
 9438      756D625F 
 9438      5F203100 
 9439              	.LASF156:
 9440 8c86 5F5F4C44 		.ascii	"__LDBL_MAX_10_EXP__ 308\000"
 9440      424C5F4D 
 9440      41585F31 
 9440      305F4558 
 9440      505F5F20 
 9441              	.LASF377:
 9442 8c9e 5F5F5F69 		.ascii	"___int32_t_defined 1\000"
 9442      6E743332 
 9442      5F745F64 
 9442      6566696E 
 9442      65642031 
 9443              	.LASF431:
ARM GAS  C:\Users\COSMIN~1.MAR\AppData\Local\Temp\cccNbcra.s 			page 255


 9444 8cb3 494E545F 		.ascii	"INT_FAST16_MAX __INT_FAST16_MAX__\000"
 9444      46415354 
 9444      31365F4D 
 9444      4158205F 
 9444      5F494E54 
 9445              	.LASF113:
 9446 8cd5 5F5F5549 		.ascii	"__UINT_FAST16_MAX__ 4294967295U\000"
 9446      4E545F46 
 9446      41535431 
 9446      365F4D41 
 9446      585F5F20 
 9447              	.LASF900:
 9448 8cf5 50415241 		.ascii	"PARAM_TIMx(n) ((((uint32_t *)n)==((uint32_t *)LPC_T"
 9448      4D5F5449 
 9448      4D78286E 
 9448      29202828 
 9448      28287569 
 9449 8d28 494D3029 		.ascii	"IM0)) || (((uint32_t *)n)==((uint32_t *)LPC_TIM1)) "
 9449      29207C7C 
 9449      20282828 
 9449      75696E74 
 9449      33325F74 
 9450 8d5b 7C7C2028 		.ascii	"|| (((uint32_t *)n)==((uint32_t *)LPC_TIM2)) || ((("
 9450      28287569 
 9450      6E743332 
 9450      5F74202A 
 9450      296E293D 
 9451 8d8e 75696E74 		.ascii	"uint32_t *)n)==((uint32_t *)LPC_TIM3)))\000"
 9451      33325F74 
 9451      202A296E 
 9451      293D3D28 
 9451      2875696E 
 9452              	.LASF462:
 9453 8db6 5F5F434F 		.ascii	"__CORE_CMINSTR_H__ \000"
 9453      52455F43 
 9453      4D494E53 
 9453      54525F48 
 9453      5F5F2000 
 9454              	.LASF268:
 9455 8dca 5F5F4851 		.ascii	"__HQ_FBIT__ 15\000"
 9455      5F464249 
 9455      545F5F20 
 9455      313500
 9456              	.LASF511:
 9457 8dd9 5343425F 		.ascii	"SCB_AIRCR_SYSRESETREQ_Msk (1UL << SCB_AIRCR_SYSRESE"
 9457      41495243 
 9457      525F5359 
 9457      53524553 
 9457      45545245 
 9458 8e0c 54524551 		.ascii	"TREQ_Pos)\000"
 9458      5F506F73 
 9458      2900
 9459              	.LASF917:
 9460 8e16 434C4B50 		.ascii	"CLKPWR_PLL0CON_BITMASK ((uint32_t)(0x03))\000"
 9460      57525F50 
 9460      4C4C3043 
 9460      4F4E5F42 
ARM GAS  C:\Users\COSMIN~1.MAR\AppData\Local\Temp\cccNbcra.s 			page 256


 9460      49544D41 
 9461              	.LASF1137:
 9462 8e40 54494D5F 		.ascii	"TIM_COUNTER_RISING_MODE\000"
 9462      434F554E 
 9462      5445525F 
 9462      52495349 
 9462      4E475F4D 
 9463              	.LASF661:
 9464 8e58 4D50555F 		.ascii	"MPU_RASR_XN_Msk (1UL << MPU_RASR_XN_Pos)\000"
 9464      52415352 
 9464      5F584E5F 
 9464      4D736B20 
 9464      2831554C 
 9465              	.LASF512:
 9466 8e81 5343425F 		.ascii	"SCB_AIRCR_VECTCLRACTIVE_Pos 1\000"
 9466      41495243 
 9466      525F5645 
 9466      4354434C 
 9466      52414354 
 9467              	.LASF1098:
 9468 8e9f 5F454D41 		.ascii	"_EMAC 1\000"
 9468      43203100 
 9469              	.LASF915:
 9470 8ea7 434C4B50 		.ascii	"CLKPWR_PLL0CON_ENABLE ((uint32_t)(0x01))\000"
 9470      57525F50 
 9470      4C4C3043 
 9470      4F4E5F45 
 9470      4E41424C 
 9471              	.LASF943:
 9472 8ed0 434C4B50 		.ascii	"CLKPWR_PCLKSEL1_BITMASK ((uint32_t)(0xFCF3F0F3))\000"
 9472      57525F50 
 9472      434C4B53 
 9472      454C315F 
 9472      4249544D 
 9473              	.LASF1056:
 9474 8f01 50494E53 		.ascii	"PINSEL_PIN_28 ((28))\000"
 9474      454C5F50 
 9474      494E5F32 
 9474      38202828 
 9474      32382929 
 9475              	.LASF538:
 9476 8f16 5343425F 		.ascii	"SCB_SHCSR_MEMFAULTENA_Pos 16\000"
 9476      53484353 
 9476      525F4D45 
 9476      4D464155 
 9476      4C54454E 
 9477              	.LASF939:
 9478 8f33 434C4B50 		.ascii	"CLKPWR_CCLKCFG_BITMASK ((uint32_t)(0xFF))\000"
 9478      57525F43 
 9478      434C4B43 
 9478      46475F42 
 9478      49544D41 
 9479              	.LASF187:
 9480 8f5d 5F5F5346 		.ascii	"__SFRACT_IBIT__ 0\000"
 9480      52414354 
 9480      5F494249 
 9480      545F5F20 
ARM GAS  C:\Users\COSMIN~1.MAR\AppData\Local\Temp\cccNbcra.s 			page 257


 9480      3000
 9481              	.LASF893:
 9482 8f6f 54494D5F 		.ascii	"TIM_COUNTER_MODE ((uint8_t)(1))\000"
 9482      434F554E 
 9482      5445525F 
 9482      4D4F4445 
 9482      20282875 
 9483              	.LASF389:
 9484 8f8f 5F5F696E 		.ascii	"__int_least8_t_defined 1\000"
 9484      745F6C65 
 9484      61737438 
 9484      5F745F64 
 9484      6566696E 
 9485              	.LASF1105:
 9486 8fa8 5F5F696E 		.ascii	"__int32_t\000"
 9486      7433325F 
 9486      7400
 9487              	.LASF528:
 9488 8fb2 5343425F 		.ascii	"SCB_CCR_UNALIGN_TRP_Pos 3\000"
 9488      4343525F 
 9488      554E414C 
 9488      49474E5F 
 9488      5452505F 
 9489              	.LASF712:
 9490 8fcc 436F7265 		.ascii	"CoreDebug_DEMCR_MON_PEND_Pos 17\000"
 9490      44656275 
 9490      675F4445 
 9490      4D43525F 
 9490      4D4F4E5F 
 9491              	.LASF849:
 9492 8fec 4C50435F 		.ascii	"LPC_GPDMACH6 ((LPC_GPDMACH_TypeDef *) LPC_GPDMACH6_"
 9492      4750444D 
 9492      41434836 
 9492      2028284C 
 9492      50435F47 
 9493 901f 42415345 		.ascii	"BASE )\000"
 9493      202900
 9494              	.LASF659:
 9495 9026 4D50555F 		.ascii	"MPU_RBAR_REGION_Msk (0xFUL << MPU_RBAR_REGION_Pos)\000"
 9495      52424152 
 9495      5F524547 
 9495      494F4E5F 
 9495      4D736B20 
 9496              	.LASF330:
 9497 9059 5F5F4152 		.ascii	"__ARM_FEATURE_LDREX 7\000"
 9497      4D5F4645 
 9497      41545552 
 9497      455F4C44 
 9497      52455820 
 9498              	.LASF1000:
 9499 906f 434C4B50 		.ascii	"CLKPWR_PCONP_PCRIT ((uint32_t)(1<<16))\000"
 9499      57525F50 
 9499      434F4E50 
 9499      5F504352 
 9499      49542028 
 9500              	.LASF1081:
 9501 9096 5F493243 		.ascii	"_I2C1 1\000"
ARM GAS  C:\Users\COSMIN~1.MAR\AppData\Local\Temp\cccNbcra.s 			page 258


 9501      31203100 
 9502              	.LASF852:
 9503 909e 4C50435F 		.ascii	"LPC_TYPES_H \000"
 9503      54595045 
 9503      535F4820 
 9503      00
 9504              	.LASF33:
 9505 90ab 5F5F494E 		.ascii	"__INTMAX_TYPE__ long long int\000"
 9505      544D4158 
 9505      5F545950 
 9505      455F5F20 
 9505      6C6F6E67 
 9506              	.LASF220:
 9507 90c9 5F5F4C4C 		.ascii	"__LLFRACT_EPSILON__ 0x1P-63LLR\000"
 9507      46524143 
 9507      545F4550 
 9507      53494C4F 
 9507      4E5F5F20 
 9508              	.LASF560:
 9509 90e8 5343425F 		.ascii	"SCB_SHCSR_MEMFAULTACT_Pos 0\000"
 9509      53484353 
 9509      525F4D45 
 9509      4D464155 
 9509      4C544143 
 9510              	.LASF189:
 9511 9104 5F5F5346 		.ascii	"__SFRACT_MAX__ 0X7FP-7HR\000"
 9511      52414354 
 9511      5F4D4158 
 9511      5F5F2030 
 9511      58374650 
 9512              	.LASF1134:
 9513 911d 54494D5F 		.ascii	"TIM_CR0_INT\000"
 9513      4352305F 
 9513      494E5400 
 9514              	.LASF1062:
 9515 9129 50494E53 		.ascii	"PINSEL_PINMODE_PULLDOWN ((3))\000"
 9515      454C5F50 
 9515      494E4D4F 
 9515      44455F50 
 9515      554C4C44 
 9516              	.LASF1177:
 9517 9147 74656D70 		.ascii	"temp\000"
 9517      00
 9518              	.LASF865:
 9519 914c 54494D5F 		.ascii	"TIM_IR_CLR(n) _BIT(n)\000"
 9519      49525F43 
 9519      4C52286E 
 9519      29205F42 
 9519      4954286E 
 9520              	.LASF987:
 9521 9162 434C4B50 		.ascii	"CLKPWR_PCONP_PCTIM0 ((uint32_t)(1<<1))\000"
 9521      57525F50 
 9521      434F4E50 
 9521      5F504354 
 9521      494D3020 
 9522              	.LASF95:
 9523 9189 5F5F494E 		.ascii	"__INT16_C(c) c\000"
ARM GAS  C:\Users\COSMIN~1.MAR\AppData\Local\Temp\cccNbcra.s 			page 259


 9523      5431365F 
 9523      43286329 
 9523      206300
 9524              	.LASF991:
 9525 9198 434C4B50 		.ascii	"CLKPWR_PCONP_PCPWM1 ((uint32_t)(1<<6))\000"
 9525      57525F50 
 9525      434F4E50 
 9525      5F504350 
 9525      574D3120 
 9526              	.LASF681:
 9527 91bf 436F7265 		.ascii	"CoreDebug_DHCSR_S_RESET_ST_Msk (1UL << CoreDebug_DH"
 9527      44656275 
 9527      675F4448 
 9527      4353525F 
 9527      535F5245 
 9528 91f2 4353525F 		.ascii	"CSR_S_RESET_ST_Pos)\000"
 9528      535F5245 
 9528      5345545F 
 9528      53545F50 
 9528      6F732900 
 9529              	.LASF291:
 9530 9206 5F5F4441 		.ascii	"__DA_IBIT__ 32\000"
 9530      5F494249 
 9530      545F5F20 
 9530      333200
 9531              	.LASF873:
 9532 9215 54494D5F 		.ascii	"TIM_STOP_ON_MATCH(n) (_BIT(((n * 3) + 2)))\000"
 9532      53544F50 
 9532      5F4F4E5F 
 9532      4D415443 
 9532      48286E29 
 9533              	.LASF603:
 9534 9240 49544D5F 		.ascii	"ITM_TPR_PRIVMASK_Msk (0xFUL << ITM_TPR_PRIVMASK_Pos"
 9534      5450525F 
 9534      50524956 
 9534      4D41534B 
 9534      5F4D736B 
 9535 9273 2900     		.ascii	")\000"
 9536              	.LASF517:
 9537 9275 5343425F 		.ascii	"SCB_SCR_SEVONPEND_Msk (1UL << SCB_SCR_SEVONPEND_Pos"
 9537      5343525F 
 9537      5345564F 
 9537      4E50454E 
 9537      445F4D73 
 9538 92a8 2900     		.ascii	")\000"
 9539              	.LASF581:
 9540 92aa 5343425F 		.ascii	"SCB_DFSR_BKPT_Msk (1UL << SCB_DFSR_BKPT_Pos)\000"
 9540      44465352 
 9540      5F424B50 
 9540      545F4D73 
 9540      6B202831 
 9541              	.LASF10:
 9542 92d7 5F5F4154 		.ascii	"__ATOMIC_ACQ_REL 4\000"
 9542      4F4D4943 
 9542      5F414351 
 9542      5F52454C 
 9542      203400
ARM GAS  C:\Users\COSMIN~1.MAR\AppData\Local\Temp\cccNbcra.s 			page 260


 9543              	.LASF5:
 9544 92ea 5F5F5645 		.ascii	"__VERSION__ \"4.9.3 20150303 (release) [ARM/embedde"
 9544      5253494F 
 9544      4E5F5F20 
 9544      22342E39 
 9544      2E332032 
 9545 931c 642D345F 		.ascii	"d-4_9-branch revision 221220]\"\000"
 9545      392D6272 
 9545      616E6368 
 9545      20726576 
 9545      6973696F 
 9546              	.LASF40:
 9547 933b 5F5F494E 		.ascii	"__INT32_TYPE__ long int\000"
 9547      5433325F 
 9547      54595045 
 9547      5F5F206C 
 9547      6F6E6720 
 9548              	.LASF140:
 9549 9353 5F5F4442 		.ascii	"__DBL_MIN_10_EXP__ (-307)\000"
 9549      4C5F4D49 
 9549      4E5F3130 
 9549      5F455850 
 9549      5F5F2028 
 9550              	.LASF505:
 9551 936d 5343425F 		.ascii	"SCB_AIRCR_VECTKEYSTAT_Msk (0xFFFFUL << SCB_AIRCR_VE"
 9551      41495243 
 9551      525F5645 
 9551      43544B45 
 9551      59535441 
 9552 93a0 43544B45 		.ascii	"CTKEYSTAT_Pos)\000"
 9552      59535441 
 9552      545F506F 
 9552      732900
 9553              	.LASF1202:
 9554 93af 443A5C77 		.ascii	"D:\\work\\Embedded\\aoaa\000"
 9554      6F726B5C 
 9554      456D6265 
 9554      64646564 
 9554      5C616F61 
 9555              	.LASF608:
 9556 93c5 49544D5F 		.ascii	"ITM_TCR_TSPrescale_Pos 8\000"
 9556      5443525F 
 9556      54535072 
 9556      65736361 
 9556      6C655F50 
 9557              	.LASF842:
 9558 93de 444D4152 		.ascii	"DMAREQSEL (*(__IO uint32_t *) ( 0x4000C1C4))\000"
 9558      45515345 
 9558      4C20282A 
 9558      285F5F49 
 9558      4F207569 
 9559              	.LASF186:
 9560 940b 5F5F5346 		.ascii	"__SFRACT_FBIT__ 7\000"
 9560      52414354 
 9560      5F464249 
 9560      545F5F20 
 9560      3700
ARM GAS  C:\Users\COSMIN~1.MAR\AppData\Local\Temp\cccNbcra.s 			page 261


 9561              	.LASF1195:
 9562 941d 54494D5F 		.ascii	"TIM_CaptureConfigStruct\000"
 9562      43617074 
 9562      75726543 
 9562      6F6E6669 
 9562      67537472 
 9563              	.LASF114:
 9564 9435 5F5F5549 		.ascii	"__UINT_FAST32_MAX__ 4294967295U\000"
 9564      4E545F46 
 9564      41535433 
 9564      325F4D41 
 9564      585F5F20 
 9565              	.LASF100:
 9566 9455 5F5F5549 		.ascii	"__UINT_LEAST8_MAX__ 255\000"
 9566      4E545F4C 
 9566      45415354 
 9566      385F4D41 
 9566      585F5F20 
 9567              	.LASF892:
 9568 946d 54494D5F 		.ascii	"TIM_CTCR_MASKBIT 0xF\000"
 9568      43544352 
 9568      5F4D4153 
 9568      4B424954 
 9568      20307846 
 9569              	.LASF867:
 9570 9482 54494D5F 		.ascii	"TIM_CAP_INT(n) (_BIT(((n & 0x0F) + 4)))\000"
 9570      4341505F 
 9570      494E5428 
 9570      6E292028 
 9570      5F424954 
 9571              	.LASF721:
 9572 94aa 436F7265 		.ascii	"CoreDebug_DEMCR_VC_BUSERR_Msk (1UL << CoreDebug_DEM"
 9572      44656275 
 9572      675F4445 
 9572      4D43525F 
 9572      56435F42 
 9573 94dd 43525F56 		.ascii	"CR_VC_BUSERR_Pos)\000"
 9573      435F4255 
 9573      53455252 
 9573      5F506F73 
 9573      2900
 9574              	.LASF137:
 9575 94ef 5F5F4442 		.ascii	"__DBL_MANT_DIG__ 53\000"
 9575      4C5F4D41 
 9575      4E545F44 
 9575      49475F5F 
 9575      20353300 
 9576              	.LASF212:
 9577 9503 5F5F554C 		.ascii	"__ULFRACT_IBIT__ 0\000"
 9577      46524143 
 9577      545F4942 
 9577      49545F5F 
 9577      203000
 9578              	.LASF650:
 9579 9516 4D50555F 		.ascii	"MPU_CTRL_ENABLE_Pos 0\000"
 9579      4354524C 
 9579      5F454E41 
ARM GAS  C:\Users\COSMIN~1.MAR\AppData\Local\Temp\cccNbcra.s 			page 262


 9579      424C455F 
 9579      506F7320 
 9580              	.LASF872:
 9581 952c 54494D5F 		.ascii	"TIM_RESET_ON_MATCH(n) (_BIT(((n * 3) + 1)))\000"
 9581      52455345 
 9581      545F4F4E 
 9581      5F4D4154 
 9581      4348286E 
 9582              	.LASF993:
 9583 9558 434C4B50 		.ascii	"CLKPWR_PCONP_PCSPI ((uint32_t)(1<<8))\000"
 9583      57525F50 
 9583      434F4E50 
 9583      5F504353 
 9583      50492028 
 9584              	.LASF802:
 9585 957e 4C50435F 		.ascii	"LPC_GPIO3_BASE (LPC_GPIO_BASE + 0x00060)\000"
 9585      4750494F 
 9585      335F4241 
 9585      53452028 
 9585      4C50435F 
 9586              	.LASF203:
 9587 95a7 5F5F5546 		.ascii	"__UFRACT_MIN__ 0.0UR\000"
 9587      52414354 
 9587      5F4D494E 
 9587      5F5F2030 
 9587      2E305552 
 9588              	.LASF844:
 9589 95bc 4C50435F 		.ascii	"LPC_GPDMACH1 ((LPC_GPDMACH_TypeDef *) LPC_GPDMACH1_"
 9589      4750444D 
 9589      41434831 
 9589      2028284C 
 9589      50435F47 
 9590 95ef 42415345 		.ascii	"BASE )\000"
 9590      202900
 9591              	.LASF1147:
 9592 95f6 54494D5F 		.ascii	"TIM_EXTMATCH_TOGGLE\000"
 9592      4558544D 
 9592      41544348 
 9592      5F544F47 
 9592      474C4500 
 9593              	.LASF226:
 9594 960a 5F5F5341 		.ascii	"__SACCUM_FBIT__ 7\000"
 9594      4343554D 
 9594      5F464249 
 9594      545F5F20 
 9594      3700
 9595              	.LASF937:
 9596 961c 434C4B50 		.ascii	"CLKPWR_PLL1STAT_PLOCK ((uint32_t)(1<<10))\000"
 9596      57525F50 
 9596      4C4C3153 
 9596      5441545F 
 9596      504C4F43 
 9597              		.ident	"GCC: (GNU Tools for ARM Embedded Processors) 4.9.3 20150303 (release) [ARM/embedded-4_9-br
ARM GAS  C:\Users\COSMIN~1.MAR\AppData\Local\Temp\cccNbcra.s 			page 263


DEFINED SYMBOLS
                            *ABS*:00000000 lpc17xx_timer.c
C:\Users\COSMIN~1.MAR\AppData\Local\Temp\cccNbcra.s:54     .text.TIM_GetPClock:00000000 $t
C:\Users\COSMIN~1.MAR\AppData\Local\Temp\cccNbcra.s:59     .text.TIM_GetPClock:00000000 TIM_GetPClock
C:\Users\COSMIN~1.MAR\AppData\Local\Temp\cccNbcra.s:83     .text.TIM_GetPClock:00000014 $d
C:\Users\COSMIN~1.MAR\AppData\Local\Temp\cccNbcra.s:87     .text.TIM_GetPClock:00000024 $t
C:\Users\COSMIN~1.MAR\AppData\Local\Temp\cccNbcra.s:132    .text.TIM_ConverUSecToVal:00000000 $t
C:\Users\COSMIN~1.MAR\AppData\Local\Temp\cccNbcra.s:137    .text.TIM_ConverUSecToVal:00000000 TIM_ConverUSecToVal
C:\Users\COSMIN~1.MAR\AppData\Local\Temp\cccNbcra.s:194    .text.TIM_ConverUSecToVal:0000005c $d
C:\Users\COSMIN~1.MAR\AppData\Local\Temp\cccNbcra.s:199    .text.TIM_ConverPtrToTimeNum:00000000 $t
C:\Users\COSMIN~1.MAR\AppData\Local\Temp\cccNbcra.s:204    .text.TIM_ConverPtrToTimeNum:00000000 TIM_ConverPtrToTimeNum
C:\Users\COSMIN~1.MAR\AppData\Local\Temp\cccNbcra.s:276    .text.TIM_ConverPtrToTimeNum:00000054 $d
C:\Users\COSMIN~1.MAR\AppData\Local\Temp\cccNbcra.s:283    .rodata:00000000 $d
C:\Users\COSMIN~1.MAR\AppData\Local\Temp\cccNbcra.s:287    .text.TIM_GetIntStatus:00000000 $t
C:\Users\COSMIN~1.MAR\AppData\Local\Temp\cccNbcra.s:292    .text.TIM_GetIntStatus:00000000 TIM_GetIntStatus
C:\Users\COSMIN~1.MAR\AppData\Local\Temp\cccNbcra.s:394    .text.TIM_GetIntStatus:00000088 $d
C:\Users\COSMIN~1.MAR\AppData\Local\Temp\cccNbcra.s:402    .text.TIM_GetIntCaptureStatus:00000000 $t
C:\Users\COSMIN~1.MAR\AppData\Local\Temp\cccNbcra.s:407    .text.TIM_GetIntCaptureStatus:00000000 TIM_GetIntCaptureStatus
C:\Users\COSMIN~1.MAR\AppData\Local\Temp\cccNbcra.s:510    .text.TIM_GetIntCaptureStatus:0000008c $d
C:\Users\COSMIN~1.MAR\AppData\Local\Temp\cccNbcra.s:518    .text.TIM_ClearIntPending:00000000 $t
C:\Users\COSMIN~1.MAR\AppData\Local\Temp\cccNbcra.s:523    .text.TIM_ClearIntPending:00000000 TIM_ClearIntPending
C:\Users\COSMIN~1.MAR\AppData\Local\Temp\cccNbcra.s:612    .text.TIM_ClearIntPending:00000078 $d
C:\Users\COSMIN~1.MAR\AppData\Local\Temp\cccNbcra.s:620    .text.TIM_ClearIntCapturePending:00000000 $t
C:\Users\COSMIN~1.MAR\AppData\Local\Temp\cccNbcra.s:625    .text.TIM_ClearIntCapturePending:00000000 TIM_ClearIntCapturePending
C:\Users\COSMIN~1.MAR\AppData\Local\Temp\cccNbcra.s:715    .text.TIM_ClearIntCapturePending:0000007c $d
C:\Users\COSMIN~1.MAR\AppData\Local\Temp\cccNbcra.s:723    .text.TIM_ConfigStructInit:00000000 $t
C:\Users\COSMIN~1.MAR\AppData\Local\Temp\cccNbcra.s:728    .text.TIM_ConfigStructInit:00000000 TIM_ConfigStructInit
C:\Users\COSMIN~1.MAR\AppData\Local\Temp\cccNbcra.s:788    .text.TIM_Init:00000000 $t
C:\Users\COSMIN~1.MAR\AppData\Local\Temp\cccNbcra.s:793    .text.TIM_Init:00000000 TIM_Init
C:\Users\COSMIN~1.MAR\AppData\Local\Temp\cccNbcra.s:1011   .text.TIM_Init:0000015c $d
C:\Users\COSMIN~1.MAR\AppData\Local\Temp\cccNbcra.s:1019   .text.TIM_DeInit:00000000 $t
C:\Users\COSMIN~1.MAR\AppData\Local\Temp\cccNbcra.s:1024   .text.TIM_DeInit:00000000 TIM_DeInit
C:\Users\COSMIN~1.MAR\AppData\Local\Temp\cccNbcra.s:1119   .text.TIM_DeInit:00000088 $d
C:\Users\COSMIN~1.MAR\AppData\Local\Temp\cccNbcra.s:1127   .text.TIM_Cmd:00000000 $t
C:\Users\COSMIN~1.MAR\AppData\Local\Temp\cccNbcra.s:1132   .text.TIM_Cmd:00000000 TIM_Cmd
C:\Users\COSMIN~1.MAR\AppData\Local\Temp\cccNbcra.s:1202   .text.TIM_Cmd:0000005c $d
C:\Users\COSMIN~1.MAR\AppData\Local\Temp\cccNbcra.s:1210   .text.TIM_ResetCounter:00000000 $t
C:\Users\COSMIN~1.MAR\AppData\Local\Temp\cccNbcra.s:1215   .text.TIM_ResetCounter:00000000 TIM_ResetCounter
C:\Users\COSMIN~1.MAR\AppData\Local\Temp\cccNbcra.s:1276   .text.TIM_ResetCounter:00000050 $d
C:\Users\COSMIN~1.MAR\AppData\Local\Temp\cccNbcra.s:1284   .text.TIM_ConfigMatch:00000000 $t
C:\Users\COSMIN~1.MAR\AppData\Local\Temp\cccNbcra.s:1289   .text.TIM_ConfigMatch:00000000 TIM_ConfigMatch
C:\Users\COSMIN~1.MAR\AppData\Local\Temp\cccNbcra.s:1492   .text.TIM_ConfigMatch:00000148 $d
C:\Users\COSMIN~1.MAR\AppData\Local\Temp\cccNbcra.s:1500   .text.TIM_ConfigCapture:00000000 $t
C:\Users\COSMIN~1.MAR\AppData\Local\Temp\cccNbcra.s:1505   .text.TIM_ConfigCapture:00000000 TIM_ConfigCapture
C:\Users\COSMIN~1.MAR\AppData\Local\Temp\cccNbcra.s:1633   .text.TIM_ConfigCapture:000000c8 $d
C:\Users\COSMIN~1.MAR\AppData\Local\Temp\cccNbcra.s:1641   .text.TIM_GetCaptureValue:00000000 $t
C:\Users\COSMIN~1.MAR\AppData\Local\Temp\cccNbcra.s:1646   .text.TIM_GetCaptureValue:00000000 TIM_GetCaptureValue
C:\Users\COSMIN~1.MAR\AppData\Local\Temp\cccNbcra.s:1724   .text.TIM_GetCaptureValue:00000064 $d
C:\Users\COSMIN~1.MAR\AppData\Local\Temp\cccNbcra.s:1732   .text.Timer0_Wait:00000000 $t
C:\Users\COSMIN~1.MAR\AppData\Local\Temp\cccNbcra.s:1737   .text.Timer0_Wait:00000000 Timer0_Wait
C:\Users\COSMIN~1.MAR\AppData\Local\Temp\cccNbcra.s:1816   .text.Timer0_us_Wait:00000000 $t
C:\Users\COSMIN~1.MAR\AppData\Local\Temp\cccNbcra.s:1821   .text.Timer0_us_Wait:00000000 Timer0_us_Wait
                     .debug_frame:00000010 $d
                           .group:00000000 wm4.0.1834ce015d70b8127b1e5f7bc96e3d8e
                           .group:00000000 wm4.LPC17xx.h.27.964facdaadd4aa3f18ac78c8a78f0013
                           .group:00000000 wm4.core_cm3.h.32.ec4df48419563a0d596421d1133ac586
                           .group:00000000 wm4.features.h.22.2e382148a0560adabf236cddd4e880f4
ARM GAS  C:\Users\COSMIN~1.MAR\AppData\Local\Temp\cccNbcra.s 			page 264


                           .group:00000000 wm4._default_types.h.15.933e8edd27a65e0b69af4a865eb623d2
                           .group:00000000 wm4._intsup.h.10.ca9f32a61b410c270a48d1161ca2c217
                           .group:00000000 wm4.stdint.h.22.f4a337c398d8b6d821a97202448bc0d0
                           .group:00000000 wm4.core_cmInstr.h.25.367280a3dbe1a27f086157cbbb6352e1
                           .group:00000000 wm4.core_cm3.h.90.d0c8a7fd6bb95729c958e48b22262446
                           .group:00000000 wm4.LPC17xx.h.953.77a3a85f2f7c5b921d480655a6f3d5b1
                           .group:00000000 wm4.lpc_types.h.31.fe468f0c170b3f2fb639f9a689afb2c4
                           .group:00000000 wm4.lpc17xx_timer.h.48.9c5b76a52ea125e9dfa6c9525b9fba77
                           .group:00000000 wm4.lpc17xx_clkpwr.h.28.ed653d213cc31b181c2f984ea62223b0
                           .group:00000000 wm4.lpc17xx_pinsel.h.28.bc46bf1b2bb0ba1d039ea141cd9f6585
                           .group:00000000 wm4.lpc17xx_libcfg_default.h.27.7c412cdf4245ef94b86bdcf981a232f0

UNDEFINED SYMBOLS
CLKPWR_GetPCLK
__aeabi_uldivmod
check_failed
CLKPWR_ConfigPPWR
CLKPWR_SetPCLKDiv
