ARM GAS  C:\Users\COSMIN~1.MAR\AppData\Local\Temp\cccNbcra.s 			page 1


   1              		.syntax unified
   2              		.cpu cortex-m3
   3              		.fpu softvfp
   4              		.eabi_attribute 20, 1	@ Tag_ABI_FP_denormal
   5              		.eabi_attribute 21, 1	@ Tag_ABI_FP_exceptions
   6              		.eabi_attribute 23, 3	@ Tag_ABI_FP_number_model
   7              		.eabi_attribute 24, 1	@ Tag_ABI_align8_needed
   8              		.eabi_attribute 25, 1	@ Tag_ABI_align8_preserved
   9              		.eabi_attribute 26, 1	@ Tag_ABI_enum_size
  10              		.eabi_attribute 30, 6	@ Tag_ABI_optimization_goals
  11              		.eabi_attribute 34, 1	@ Tag_CPU_unaligned_access
  12              		.eabi_attribute 18, 4	@ Tag_ABI_PCS_wchar_t
  13              		.file	"lpc17xx_timer.c"
  14              	@ GNU C (GNU Tools for ARM Embedded Processors) version 4.9.3 20150303 (release) [ARM/embedded-4_9-
  15              	@	compiled by GNU C version 4.7.4, GMP version 4.3.2, MPFR version 2.4.2, MPC version 0.8.1
  16              	@ GGC heuristics: --param ggc-min-expand=100 --param ggc-min-heapsize=131072
  17              	@ options passed:  -I . -I config -I system -I core -I drivers -I FreeRTOS
  18              	@ -I FreeRTOS/include -I FreeRTOS/portable/GCC/ARM_CM3 -I FreeRTOS/portable
  19              	@ -I tasks/rc_task_leds -I modules/rc_leds -I drivers/rc_system
  20              	@ -I drivers/rc_gpio -I drivers/rc_uart -I drivers/rc_pinsel
  21              	@ -I drivers/rc_timer -I drivers/rc_adc -imultilib armv7-m
  22              	@ -iprefix c:\gnu tools arm embedded\4.9 2015q1\bin\../lib/gcc/arm-none-eabi/4.9.3/
  23              	@ -isysroot c:\gnu tools arm embedded\4.9 2015q1\bin\../arm-none-eabi
  24              	@ -MD out/lpc17xx_timer.d -MF out/lpc17xx_timer.d -MP
  25              	@ -MQ out/lpc17xx_timer.o -D__USES_INITFINI__ core/lpc17xx_timer.c
  26              	@ -mcpu=cortex-m3 -mthumb -auxbase-strip out/lpc17xx_timer.o -g -ggdb3 -O0
  27              	@ -Wall -Wstrict-prototypes -Wextra -std=gnu90 -ffunction-sections
  28              	@ -fdata-sections -fverbose-asm
  29              	@ options enabled:  -faggressive-loop-optimizations -fauto-inc-dec -fcommon
  30              	@ -fdata-sections -fdelete-null-pointer-checks -fdwarf2-cfi-asm
  31              	@ -fearly-inlining -feliminate-unused-debug-types -ffunction-cse
  32              	@ -ffunction-sections -fgcse-lm -fgnu-runtime -fgnu-unique -fident
  33              	@ -finline-atomics -fira-hoist-pressure -fira-share-save-slots
  34              	@ -fira-share-spill-slots -fivopts -fkeep-static-consts
  35              	@ -fleading-underscore -flifetime-dse -fmath-errno -fmerge-debug-strings
  36              	@ -fpeephole -fprefetch-loop-arrays -freg-struct-return
  37              	@ -fsched-critical-path-heuristic -fsched-dep-count-heuristic
  38              	@ -fsched-group-heuristic -fsched-interblock -fsched-last-insn-heuristic
  39              	@ -fsched-rank-heuristic -fsched-spec -fsched-spec-insn-heuristic
  40              	@ -fsched-stalled-insns-dep -fshow-column -fsigned-zeros
  41              	@ -fsplit-ivs-in-unroller -fstrict-volatile-bitfields -fsync-libcalls
  42              	@ -ftrapping-math -ftree-coalesce-vars -ftree-cselim -ftree-forwprop
  43              	@ -ftree-loop-if-convert -ftree-loop-im -ftree-loop-ivcanon
  44              	@ -ftree-loop-optimize -ftree-parallelize-loops= -ftree-phiprop
  45              	@ -ftree-reassoc -ftree-scev-cprop -funit-at-a-time -fverbose-asm
  46              	@ -fzero-initialized-in-bss -mfix-cortex-m3-ldrd -mlittle-endian -mlra
  47              	@ -mpic-data-is-text-relative -msched-prolog -mthumb -munaligned-access
  48              	@ -mvectorize-with-neon-quad
  49              	
  50              		.text
  51              	.Ltext0:
  52              		.cfi_sections	.debug_frame
  53              		.section	.text.TIM_GetPClock,"ax",%progbits
  54              		.align	2
  55              		.global	TIM_GetPClock
  56              		.thumb
  57              		.thumb_func
ARM GAS  C:\Users\COSMIN~1.MAR\AppData\Local\Temp\cccNbcra.s 			page 2


  58              		.type	TIM_GetPClock, %function
  59              	TIM_GetPClock:
  60              	.LFB55:
  61              		.file 1 "core/lpc17xx_timer.c"
   1:core/lpc17xx_timer.c **** /**
   2:core/lpc17xx_timer.c ****  * @file	: lpc17xx_timer.c
   3:core/lpc17xx_timer.c ****  * @brief	: Contains all functions support for Timer firmware library on LPC17xx
   4:core/lpc17xx_timer.c ****  * @version	: 1.0
   5:core/lpc17xx_timer.c ****  * @date	: 14. April. 2009
   6:core/lpc17xx_timer.c ****  * @author	: HieuNguyen
   7:core/lpc17xx_timer.c ****  **************************************************************************
   8:core/lpc17xx_timer.c ****  * Software that is described herein is for illustrative purposes only
   9:core/lpc17xx_timer.c ****  * which provides customers with programming information regarding the
  10:core/lpc17xx_timer.c ****  * products. This software is supplied "AS IS" without any warranties.
  11:core/lpc17xx_timer.c ****  * NXP Semiconductors assumes no responsibility or liability for the
  12:core/lpc17xx_timer.c ****  * use of the software, conveys no license or title under any patent,
  13:core/lpc17xx_timer.c ****  * copyright, or mask work right to the product. NXP Semiconductors
  14:core/lpc17xx_timer.c ****  * reserves the right to make changes in the software without
  15:core/lpc17xx_timer.c ****  * notification. NXP Semiconductors also make no representation or
  16:core/lpc17xx_timer.c ****  * warranty that such application will be suitable for the specified
  17:core/lpc17xx_timer.c ****  * use without further testing or modification.
  18:core/lpc17xx_timer.c ****  **********************************************************************/
  19:core/lpc17xx_timer.c **** 
  20:core/lpc17xx_timer.c **** /* Peripheral group ----------------------------------------------------------- */
  21:core/lpc17xx_timer.c **** /** @addtogroup TIM
  22:core/lpc17xx_timer.c ****  * @{
  23:core/lpc17xx_timer.c ****  */
  24:core/lpc17xx_timer.c **** 
  25:core/lpc17xx_timer.c **** /* Includes ------------------------------------------------------------------- */
  26:core/lpc17xx_timer.c **** #include "lpc17xx_timer.h"
  27:core/lpc17xx_timer.c **** #include "lpc17xx_clkpwr.h"
  28:core/lpc17xx_timer.c **** #include "lpc17xx_pinsel.h"
  29:core/lpc17xx_timer.c **** 
  30:core/lpc17xx_timer.c **** /* If this source file built with example, the LPC17xx FW library configuration
  31:core/lpc17xx_timer.c ****  * file in each example directory ("lpc17xx_libcfg.h") must be included,
  32:core/lpc17xx_timer.c ****  * otherwise the default FW library configuration file must be included instead
  33:core/lpc17xx_timer.c ****  */
  34:core/lpc17xx_timer.c **** #ifdef __BUILD_WITH_EXAMPLE__
  35:core/lpc17xx_timer.c **** #include "lpc17xx_libcfg.h"
  36:core/lpc17xx_timer.c **** #else
  37:core/lpc17xx_timer.c **** #include "lpc17xx_libcfg_default.h"
  38:core/lpc17xx_timer.c **** #endif /* __BUILD_WITH_EXAMPLE__ */
  39:core/lpc17xx_timer.c **** 
  40:core/lpc17xx_timer.c **** #ifdef _TIM
  41:core/lpc17xx_timer.c **** 
  42:core/lpc17xx_timer.c **** /* Private Functions ---------------------------------------------------------- */
  43:core/lpc17xx_timer.c **** /** @defgroup TIM_Private_Functions
  44:core/lpc17xx_timer.c ****  * @{
  45:core/lpc17xx_timer.c ****  */
  46:core/lpc17xx_timer.c **** 
  47:core/lpc17xx_timer.c **** uint32_t TIM_GetPClock (uint32_t timernum);
  48:core/lpc17xx_timer.c **** uint32_t TIM_ConverUSecToVal (uint32_t timernum, uint32_t usec);
  49:core/lpc17xx_timer.c **** uint32_t TIM_ConverPtrToTimeNum (LPC_TIM_TypeDef *TIMx);
  50:core/lpc17xx_timer.c **** 
  51:core/lpc17xx_timer.c **** 
  52:core/lpc17xx_timer.c **** /*********************************************************************//**
  53:core/lpc17xx_timer.c ****  * @brief 		Get peripheral clock of each timer controller
ARM GAS  C:\Users\COSMIN~1.MAR\AppData\Local\Temp\cccNbcra.s 			page 3


  54:core/lpc17xx_timer.c ****  * @param[in]	timernum Timer number
  55:core/lpc17xx_timer.c ****  * @return 		Peripheral clock of timer
  56:core/lpc17xx_timer.c ****  **********************************************************************/
  57:core/lpc17xx_timer.c **** 
  58:core/lpc17xx_timer.c **** uint32_t TIM_GetPClock (uint32_t timernum)
  59:core/lpc17xx_timer.c **** {
  62              		.loc 1 59 0
  63              		.cfi_startproc
  64              		@ args = 0, pretend = 0, frame = 16
  65              		@ frame_needed = 1, uses_anonymous_args = 0
  66 0000 80B5     		push	{r7, lr}	@
  67              		.cfi_def_cfa_offset 8
  68              		.cfi_offset 7, -8
  69              		.cfi_offset 14, -4
  70 0002 84B0     		sub	sp, sp, #16	@,,
  71              		.cfi_def_cfa_offset 24
  72 0004 00AF     		add	r7, sp, #0	@,,
  73              		.cfi_def_cfa_register 7
  74 0006 7860     		str	r0, [r7, #4]	@ timernum, timernum
  60:core/lpc17xx_timer.c **** 	uint32_t clkdlycnt;
  61:core/lpc17xx_timer.c **** 	switch (timernum)
  75              		.loc 1 61 0
  76 0008 7B68     		ldr	r3, [r7, #4]	@ tmp112, timernum
  77 000a 032B     		cmp	r3, #3	@ tmp112,
  78 000c 1ED8     		bhi	.L2	@
  79 000e 01A2     		adr	r2, .L4	@ tmp114,
  80 0010 52F823F0 		ldr	pc, [r2, r3, lsl #2]	@ tmp114, tmp112
  81              		.p2align 2
  82              	.L4:
  83 0014 25000000 		.word	.L3+1
  84 0018 2F000000 		.word	.L5+1
  85 001c 39000000 		.word	.L6+1
  86 0020 43000000 		.word	.L7+1
  87              		.p2align 1
  88              	.L3:
  62:core/lpc17xx_timer.c **** 	{
  63:core/lpc17xx_timer.c **** 	case 0:
  64:core/lpc17xx_timer.c **** 		clkdlycnt = CLKPWR_GetPCLK (CLKPWR_PCLKSEL_TIMER0);
  89              		.loc 1 64 0
  90 0024 0220     		movs	r0, #2	@,
  91 0026 FFF7FEFF 		bl	CLKPWR_GetPCLK	@
  92 002a F860     		str	r0, [r7, #12]	@, clkdlycnt
  65:core/lpc17xx_timer.c **** 		break;
  93              		.loc 1 65 0
  94 002c 0EE0     		b	.L2	@
  95              	.L5:
  66:core/lpc17xx_timer.c **** 
  67:core/lpc17xx_timer.c **** 	case 1:
  68:core/lpc17xx_timer.c **** 		clkdlycnt = CLKPWR_GetPCLK (CLKPWR_PCLKSEL_TIMER1);
  96              		.loc 1 68 0
  97 002e 0420     		movs	r0, #4	@,
  98 0030 FFF7FEFF 		bl	CLKPWR_GetPCLK	@
  99 0034 F860     		str	r0, [r7, #12]	@, clkdlycnt
  69:core/lpc17xx_timer.c **** 		break;
 100              		.loc 1 69 0
 101 0036 09E0     		b	.L2	@
 102              	.L6:
ARM GAS  C:\Users\COSMIN~1.MAR\AppData\Local\Temp\cccNbcra.s 			page 4


  70:core/lpc17xx_timer.c **** 
  71:core/lpc17xx_timer.c **** 	case 2:
  72:core/lpc17xx_timer.c **** 		clkdlycnt = CLKPWR_GetPCLK (CLKPWR_PCLKSEL_TIMER2);
 103              		.loc 1 72 0
 104 0038 2C20     		movs	r0, #44	@,
 105 003a FFF7FEFF 		bl	CLKPWR_GetPCLK	@
 106 003e F860     		str	r0, [r7, #12]	@, clkdlycnt
  73:core/lpc17xx_timer.c **** 		break;
 107              		.loc 1 73 0
 108 0040 04E0     		b	.L2	@
 109              	.L7:
  74:core/lpc17xx_timer.c **** 
  75:core/lpc17xx_timer.c **** 	case 3:
  76:core/lpc17xx_timer.c **** 		clkdlycnt = CLKPWR_GetPCLK (CLKPWR_PCLKSEL_TIMER3);
 110              		.loc 1 76 0
 111 0042 2E20     		movs	r0, #46	@,
 112 0044 FFF7FEFF 		bl	CLKPWR_GetPCLK	@
 113 0048 F860     		str	r0, [r7, #12]	@, clkdlycnt
  77:core/lpc17xx_timer.c **** 		break;
 114              		.loc 1 77 0
 115 004a 00BF     		nop
 116              	.L2:
  78:core/lpc17xx_timer.c **** 	}
  79:core/lpc17xx_timer.c **** 	return clkdlycnt;
 117              		.loc 1 79 0
 118 004c FB68     		ldr	r3, [r7, #12]	@ D.5936, clkdlycnt
  80:core/lpc17xx_timer.c **** }
 119              		.loc 1 80 0
 120 004e 1846     		mov	r0, r3	@, <retval>
 121 0050 1037     		adds	r7, r7, #16	@,,
 122              		.cfi_def_cfa_offset 8
 123 0052 BD46     		mov	sp, r7	@,
 124              		.cfi_def_cfa_register 13
 125              		@ sp needed	@
 126 0054 80BD     		pop	{r7, pc}	@
 127              		.cfi_endproc
 128              	.LFE55:
 129              		.size	TIM_GetPClock, .-TIM_GetPClock
 130              		.global	__aeabi_uldivmod
 131 0056 00BF     		.section	.text.TIM_ConverUSecToVal,"ax",%progbits
 132              		.align	2
 133              		.global	TIM_ConverUSecToVal
 134              		.thumb
 135              		.thumb_func
 136              		.type	TIM_ConverUSecToVal, %function
 137              	TIM_ConverUSecToVal:
 138              	.LFB56:
  81:core/lpc17xx_timer.c **** 
  82:core/lpc17xx_timer.c **** 
  83:core/lpc17xx_timer.c **** /*********************************************************************//**
  84:core/lpc17xx_timer.c ****  * @brief 		Convert a time to a timer count value
  85:core/lpc17xx_timer.c ****  * @param[in]	timernum Timer number
  86:core/lpc17xx_timer.c ****  * @param[in]	usec Time in microseconds
  87:core/lpc17xx_timer.c ****  * @return 		The number of required clock ticks to give the time delay
  88:core/lpc17xx_timer.c ****  **********************************************************************/
  89:core/lpc17xx_timer.c **** uint32_t TIM_ConverUSecToVal (uint32_t timernum, uint32_t usec)
  90:core/lpc17xx_timer.c **** {
ARM GAS  C:\Users\COSMIN~1.MAR\AppData\Local\Temp\cccNbcra.s 			page 5


 139              		.loc 1 90 0
 140              		.cfi_startproc
 141              		@ args = 0, pretend = 0, frame = 16
 142              		@ frame_needed = 1, uses_anonymous_args = 0
 143 0000 80B5     		push	{r7, lr}	@
 144              		.cfi_def_cfa_offset 8
 145              		.cfi_offset 7, -8
 146              		.cfi_offset 14, -4
 147 0002 84B0     		sub	sp, sp, #16	@,,
 148              		.cfi_def_cfa_offset 24
 149 0004 00AF     		add	r7, sp, #0	@,,
 150              		.cfi_def_cfa_register 7
 151 0006 7860     		str	r0, [r7, #4]	@ timernum, timernum
 152 0008 3960     		str	r1, [r7]	@ usec, usec
  91:core/lpc17xx_timer.c **** 	uint64_t clkdlycnt;
  92:core/lpc17xx_timer.c **** 
  93:core/lpc17xx_timer.c **** 	// Get Pclock of timer
  94:core/lpc17xx_timer.c **** 	clkdlycnt = (uint64_t) TIM_GetPClock (timernum);
 153              		.loc 1 94 0
 154 000a 7868     		ldr	r0, [r7, #4]	@, timernum
 155 000c FFF7FEFF 		bl	TIM_GetPClock	@
 156 0010 0346     		mov	r3, r0	@ D.5937,
 157 0012 1A46     		mov	r2, r3	@ tmp115, D.5937
 158 0014 4FF00003 		mov	r3, #0	@,
 159 0018 C7E90223 		strd	r2, [r7, #8]	@ tmp115,,
  95:core/lpc17xx_timer.c **** 
  96:core/lpc17xx_timer.c **** 	clkdlycnt = (clkdlycnt * usec) / 1000000;
 160              		.loc 1 96 0
 161 001c 3B68     		ldr	r3, [r7]	@ tmp116, usec
 162 001e 1A46     		mov	r2, r3	@ D.5938, tmp116
 163 0020 4FF00003 		mov	r3, #0	@ D.5938,
 164 0024 B968     		ldr	r1, [r7, #8]	@ tmp118, clkdlycnt
 165 0026 03FB01F0 		mul	r0, r3, r1	@ tmp117, D.5938, tmp118
 166 002a F968     		ldr	r1, [r7, #12]	@ tmp120, clkdlycnt
 167 002c 02FB01F1 		mul	r1, r2, r1	@ tmp119, D.5938, tmp120
 168 0030 0144     		add	r1, r1, r0	@ tmp121, tmp117
 169 0032 B868     		ldr	r0, [r7, #8]	@ tmp122, clkdlycnt
 170 0034 A0FB0223 		umull	r2, r3, r0, r2	@ D.5938, tmp122, D.5938
 171 0038 1944     		add	r1, r1, r3	@ tmp123, D.5938
 172 003a 0B46     		mov	r3, r1	@ D.5938, tmp123
 173 003c 1046     		mov	r0, r2	@, D.5938
 174 003e 1946     		mov	r1, r3	@, D.5938
 175 0040 064A     		ldr	r2, .L11	@,
 176 0042 4FF00003 		mov	r3, #0	@,
 177 0046 FFF7FEFF 		bl	__aeabi_uldivmod	@
 178 004a 0246     		mov	r2, r0	@ tmp126,
 179 004c 0B46     		mov	r3, r1	@,
 180 004e C7E90223 		strd	r2, [r7, #8]	@ tmp126,,
  97:core/lpc17xx_timer.c **** 	return (uint32_t) clkdlycnt;
 181              		.loc 1 97 0
 182 0052 BB68     		ldr	r3, [r7, #8]	@ D.5939, clkdlycnt
  98:core/lpc17xx_timer.c **** }
 183              		.loc 1 98 0
 184 0054 1846     		mov	r0, r3	@, <retval>
 185 0056 1037     		adds	r7, r7, #16	@,,
 186              		.cfi_def_cfa_offset 8
 187 0058 BD46     		mov	sp, r7	@,
ARM GAS  C:\Users\COSMIN~1.MAR\AppData\Local\Temp\cccNbcra.s 			page 6


 188              		.cfi_def_cfa_register 13
 189              		@ sp needed	@
 190 005a 80BD     		pop	{r7, pc}	@
 191              	.L12:
 192              		.align	2
 193              	.L11:
 194 005c 40420F00 		.word	1000000
 195              		.cfi_endproc
 196              	.LFE56:
 197              		.size	TIM_ConverUSecToVal, .-TIM_ConverUSecToVal
 198              		.section	.text.TIM_ConverPtrToTimeNum,"ax",%progbits
 199              		.align	2
 200              		.global	TIM_ConverPtrToTimeNum
 201              		.thumb
 202              		.thumb_func
 203              		.type	TIM_ConverPtrToTimeNum, %function
 204              	TIM_ConverPtrToTimeNum:
 205              	.LFB57:
  99:core/lpc17xx_timer.c **** 
 100:core/lpc17xx_timer.c **** 
 101:core/lpc17xx_timer.c **** /*********************************************************************//**
 102:core/lpc17xx_timer.c ****  * @brief 		Convert a timer register pointer to a timer number
 103:core/lpc17xx_timer.c ****  * @param[in]	TIMx Pointer to a timer register set
 104:core/lpc17xx_timer.c ****  * @return 		The timer number (0 to 3) or -1 if register pointer is bad
 105:core/lpc17xx_timer.c ****  **********************************************************************/
 106:core/lpc17xx_timer.c **** uint32_t TIM_ConverPtrToTimeNum (LPC_TIM_TypeDef *TIMx)
 107:core/lpc17xx_timer.c **** {
 206              		.loc 1 107 0
 207              		.cfi_startproc
 208              		@ args = 0, pretend = 0, frame = 16
 209              		@ frame_needed = 1, uses_anonymous_args = 0
 210              		@ link register save eliminated.
 211 0000 80B4     		push	{r7}	@
 212              		.cfi_def_cfa_offset 4
 213              		.cfi_offset 7, -4
 214 0002 85B0     		sub	sp, sp, #20	@,,
 215              		.cfi_def_cfa_offset 24
 216 0004 00AF     		add	r7, sp, #0	@,,
 217              		.cfi_def_cfa_register 7
 218 0006 7860     		str	r0, [r7, #4]	@ TIMx, TIMx
 108:core/lpc17xx_timer.c **** 	uint32_t tnum = -1;
 219              		.loc 1 108 0
 220 0008 4FF0FF33 		mov	r3, #-1	@ tmp112,
 221 000c FB60     		str	r3, [r7, #12]	@ tmp112, tnum
 109:core/lpc17xx_timer.c **** 
 110:core/lpc17xx_timer.c **** 	if (TIMx == LPC_TIM0)
 222              		.loc 1 110 0
 223 000e 7B68     		ldr	r3, [r7, #4]	@ tmp113, TIMx
 224 0010 B3F1402F 		cmp	r3, #1073758208	@ tmp113,
 225 0014 02D1     		bne	.L14	@,
 111:core/lpc17xx_timer.c **** 	{
 112:core/lpc17xx_timer.c **** 		tnum = 0;
 226              		.loc 1 112 0
 227 0016 0023     		movs	r3, #0	@ tmp114,
 228 0018 FB60     		str	r3, [r7, #12]	@ tmp114, tnum
 229 001a 13E0     		b	.L15	@
 230              	.L14:
ARM GAS  C:\Users\COSMIN~1.MAR\AppData\Local\Temp\cccNbcra.s 			page 7


 113:core/lpc17xx_timer.c **** 	}
 114:core/lpc17xx_timer.c **** 	else if (TIMx == LPC_TIM1)
 231              		.loc 1 114 0
 232 001c 7B68     		ldr	r3, [r7, #4]	@ tmp115, TIMx
 233 001e 0D4A     		ldr	r2, .L19	@ tmp116,
 234 0020 9342     		cmp	r3, r2	@ tmp115, tmp116
 235 0022 02D1     		bne	.L16	@,
 115:core/lpc17xx_timer.c **** 	{
 116:core/lpc17xx_timer.c **** 		tnum = 1;
 236              		.loc 1 116 0
 237 0024 0123     		movs	r3, #1	@ tmp117,
 238 0026 FB60     		str	r3, [r7, #12]	@ tmp117, tnum
 239 0028 0CE0     		b	.L15	@
 240              	.L16:
 117:core/lpc17xx_timer.c **** 	}
 118:core/lpc17xx_timer.c **** 	else if (TIMx == LPC_TIM2)
 241              		.loc 1 118 0
 242 002a 7B68     		ldr	r3, [r7, #4]	@ tmp118, TIMx
 243 002c 0A4A     		ldr	r2, .L19+4	@ tmp119,
 244 002e 9342     		cmp	r3, r2	@ tmp118, tmp119
 245 0030 02D1     		bne	.L17	@,
 119:core/lpc17xx_timer.c **** 	{
 120:core/lpc17xx_timer.c **** 		tnum = 2;
 246              		.loc 1 120 0
 247 0032 0223     		movs	r3, #2	@ tmp120,
 248 0034 FB60     		str	r3, [r7, #12]	@ tmp120, tnum
 249 0036 05E0     		b	.L15	@
 250              	.L17:
 121:core/lpc17xx_timer.c **** 	}
 122:core/lpc17xx_timer.c **** 	else if (TIMx == LPC_TIM3)
 251              		.loc 1 122 0
 252 0038 7B68     		ldr	r3, [r7, #4]	@ tmp121, TIMx
 253 003a 084A     		ldr	r2, .L19+8	@ tmp122,
 254 003c 9342     		cmp	r3, r2	@ tmp121, tmp122
 255 003e 01D1     		bne	.L15	@,
 123:core/lpc17xx_timer.c **** 	{
 124:core/lpc17xx_timer.c **** 		tnum = 3;
 256              		.loc 1 124 0
 257 0040 0323     		movs	r3, #3	@ tmp123,
 258 0042 FB60     		str	r3, [r7, #12]	@ tmp123, tnum
 259              	.L15:
 125:core/lpc17xx_timer.c **** 	}
 126:core/lpc17xx_timer.c **** 
 127:core/lpc17xx_timer.c **** 	return tnum;
 260              		.loc 1 127 0
 261 0044 FB68     		ldr	r3, [r7, #12]	@ D.5940, tnum
 128:core/lpc17xx_timer.c **** }
 262              		.loc 1 128 0
 263 0046 1846     		mov	r0, r3	@, <retval>
 264 0048 1437     		adds	r7, r7, #20	@,,
 265              		.cfi_def_cfa_offset 4
 266 004a BD46     		mov	sp, r7	@,
 267              		.cfi_def_cfa_register 13
 268              		@ sp needed	@
 269 004c 5DF8047B 		ldr	r7, [sp], #4	@,
 270              		.cfi_restore 7
 271              		.cfi_def_cfa_offset 0
ARM GAS  C:\Users\COSMIN~1.MAR\AppData\Local\Temp\cccNbcra.s 			page 8


 272 0050 7047     		bx	lr	@
 273              	.L20:
 274 0052 00BF     		.align	2
 275              	.L19:
 276 0054 00800040 		.word	1073774592
 277 0058 00000940 		.word	1074331648
 278 005c 00400940 		.word	1074348032
 279              		.cfi_endproc
 280              	.LFE57:
 281              		.size	TIM_ConverPtrToTimeNum, .-TIM_ConverPtrToTimeNum
 282              		.section	.rodata
 283              		.align	2
 284              	.LC0:
 285 0000 636F7265 		.ascii	"core/lpc17xx_timer.c\000"
 285      2F6C7063 
 285      31377878 
 285      5F74696D 
 285      65722E63 
 286 0015 000000   		.section	.text.TIM_GetIntStatus,"ax",%progbits
 287              		.align	2
 288              		.global	TIM_GetIntStatus
 289              		.thumb
 290              		.thumb_func
 291              		.type	TIM_GetIntStatus, %function
 292              	TIM_GetIntStatus:
 293              	.LFB58:
 129:core/lpc17xx_timer.c **** 
 130:core/lpc17xx_timer.c **** /**
 131:core/lpc17xx_timer.c ****  * @}
 132:core/lpc17xx_timer.c ****  */
 133:core/lpc17xx_timer.c **** 
 134:core/lpc17xx_timer.c **** 
 135:core/lpc17xx_timer.c **** /* Public Functions ----------------------------------------------------------- */
 136:core/lpc17xx_timer.c **** /** @addtogroup TIM_Public_Functions
 137:core/lpc17xx_timer.c ****  * @{
 138:core/lpc17xx_timer.c ****  */
 139:core/lpc17xx_timer.c **** 
 140:core/lpc17xx_timer.c **** /*********************************************************************//**
 141:core/lpc17xx_timer.c ****  * @brief 		Get Interrupt Status
 142:core/lpc17xx_timer.c ****  * @param[in]	TIMx Timer selection, should be TIM0, TIM1, TIM2, TIM3
 143:core/lpc17xx_timer.c ****  * @param[in]	IntFlag
 144:core/lpc17xx_timer.c ****  * @return 		FlagStatus
 145:core/lpc17xx_timer.c ****  * 				- SET : interrupt
 146:core/lpc17xx_timer.c ****  * 				- RESET : no interrupt
 147:core/lpc17xx_timer.c ****  **********************************************************************/
 148:core/lpc17xx_timer.c **** FlagStatus TIM_GetIntStatus(LPC_TIM_TypeDef *TIMx, uint8_t IntFlag)
 149:core/lpc17xx_timer.c **** {
 294              		.loc 1 149 0
 295              		.cfi_startproc
 296              		@ args = 0, pretend = 0, frame = 16
 297              		@ frame_needed = 1, uses_anonymous_args = 0
 298 0000 80B5     		push	{r7, lr}	@
 299              		.cfi_def_cfa_offset 8
 300              		.cfi_offset 7, -8
 301              		.cfi_offset 14, -4
 302 0002 84B0     		sub	sp, sp, #16	@,,
 303              		.cfi_def_cfa_offset 24
ARM GAS  C:\Users\COSMIN~1.MAR\AppData\Local\Temp\cccNbcra.s 			page 9


 304 0004 00AF     		add	r7, sp, #0	@,,
 305              		.cfi_def_cfa_register 7
 306 0006 7860     		str	r0, [r7, #4]	@ TIMx, TIMx
 307 0008 0B46     		mov	r3, r1	@ tmp117, IntFlag
 308 000a FB70     		strb	r3, [r7, #3]	@ tmp118, IntFlag
 150:core/lpc17xx_timer.c **** 	CHECK_PARAM(PARAM_TIMx(TIMx));
 309              		.loc 1 150 0
 310 000c 7B68     		ldr	r3, [r7, #4]	@ tmp119, TIMx
 311 000e B3F1402F 		cmp	r3, #1073758208	@ tmp119,
 312 0012 0FD0     		beq	.L22	@,
 313              		.loc 1 150 0 is_stmt 0 discriminator 1
 314 0014 7B68     		ldr	r3, [r7, #4]	@ tmp120, TIMx
 315 0016 1C4A     		ldr	r2, .L26	@ tmp121,
 316 0018 9342     		cmp	r3, r2	@ tmp120, tmp121
 317 001a 0BD0     		beq	.L22	@,
 318              		.loc 1 150 0 discriminator 2
 319 001c 7B68     		ldr	r3, [r7, #4]	@ tmp122, TIMx
 320 001e 1B4A     		ldr	r2, .L26+4	@ tmp123,
 321 0020 9342     		cmp	r3, r2	@ tmp122, tmp123
 322 0022 07D0     		beq	.L22	@,
 323              		.loc 1 150 0 discriminator 3
 324 0024 7B68     		ldr	r3, [r7, #4]	@ tmp124, TIMx
 325 0026 1A4A     		ldr	r2, .L26+8	@ tmp125,
 326 0028 9342     		cmp	r3, r2	@ tmp124, tmp125
 327 002a 03D0     		beq	.L22	@,
 328              		.loc 1 150 0 discriminator 4
 329 002c 1948     		ldr	r0, .L26+12	@,
 330 002e 9621     		movs	r1, #150	@,
 331 0030 FFF7FEFF 		bl	check_failed	@
 332              	.L22:
 151:core/lpc17xx_timer.c **** 	CHECK_PARAM(PARAM_TIM_INT_TYPE(IntFlag));
 333              		.loc 1 151 0 is_stmt 1
 334 0034 FB78     		ldrb	r3, [r7, #3]	@ zero_extendqisi2	@ tmp126, IntFlag
 335 0036 002B     		cmp	r3, #0	@ tmp126,
 336 0038 12D0     		beq	.L23	@,
 337              		.loc 1 151 0 is_stmt 0 discriminator 1
 338 003a FB78     		ldrb	r3, [r7, #3]	@ zero_extendqisi2	@ tmp127, IntFlag
 339 003c 012B     		cmp	r3, #1	@ tmp127,
 340 003e 0FD0     		beq	.L23	@,
 341              		.loc 1 151 0 discriminator 2
 342 0040 FB78     		ldrb	r3, [r7, #3]	@ zero_extendqisi2	@ tmp128, IntFlag
 343 0042 022B     		cmp	r3, #2	@ tmp128,
 344 0044 0CD0     		beq	.L23	@,
 345              		.loc 1 151 0 discriminator 3
 346 0046 FB78     		ldrb	r3, [r7, #3]	@ zero_extendqisi2	@ tmp129, IntFlag
 347 0048 032B     		cmp	r3, #3	@ tmp129,
 348 004a 09D0     		beq	.L23	@,
 349              		.loc 1 151 0 discriminator 4
 350 004c FB78     		ldrb	r3, [r7, #3]	@ zero_extendqisi2	@ tmp130, IntFlag
 351 004e 042B     		cmp	r3, #4	@ tmp130,
 352 0050 06D0     		beq	.L23	@,
 353              		.loc 1 151 0 discriminator 5
 354 0052 FB78     		ldrb	r3, [r7, #3]	@ zero_extendqisi2	@ tmp131, IntFlag
 355 0054 052B     		cmp	r3, #5	@ tmp131,
 356 0056 03D0     		beq	.L23	@,
 357              		.loc 1 151 0 discriminator 6
 358 0058 0E48     		ldr	r0, .L26+12	@,
ARM GAS  C:\Users\COSMIN~1.MAR\AppData\Local\Temp\cccNbcra.s 			page 10


 359 005a 9721     		movs	r1, #151	@,
 360 005c FFF7FEFF 		bl	check_failed	@
 361              	.L23:
 152:core/lpc17xx_timer.c **** 	uint8_t temp = (TIMx->IR)& TIM_IR_CLR(IntFlag);
 362              		.loc 1 152 0 is_stmt 1
 363 0060 7B68     		ldr	r3, [r7, #4]	@ tmp132, TIMx
 364 0062 1B68     		ldr	r3, [r3]	@ D.5942, TIMx_2(D)->IR
 365 0064 DAB2     		uxtb	r2, r3	@ D.5943, D.5942
 366 0066 FB78     		ldrb	r3, [r7, #3]	@ zero_extendqisi2	@ D.5944, IntFlag
 367 0068 0121     		movs	r1, #1	@ tmp133,
 368 006a 01FA03F3 		lsl	r3, r1, r3	@ D.5944, tmp133, D.5944
 369 006e DBB2     		uxtb	r3, r3	@ D.5943, D.5944
 370 0070 1340     		ands	r3, r3, r2	@, tmp134, D.5943, D.5943
 371 0072 FB73     		strb	r3, [r7, #15]	@ tmp135, temp
 153:core/lpc17xx_timer.c **** 	if (temp)
 372              		.loc 1 153 0
 373 0074 FB7B     		ldrb	r3, [r7, #15]	@ zero_extendqisi2	@ tmp136, temp
 374 0076 002B     		cmp	r3, #0	@ tmp136,
 375 0078 01D0     		beq	.L24	@,
 154:core/lpc17xx_timer.c **** 		return SET;
 376              		.loc 1 154 0
 377 007a 0123     		movs	r3, #1	@ D.5941,
 378 007c 00E0     		b	.L25	@
 379              	.L24:
 155:core/lpc17xx_timer.c **** 
 156:core/lpc17xx_timer.c **** 	return RESET;
 380              		.loc 1 156 0
 381 007e 0023     		movs	r3, #0	@ D.5941,
 382              	.L25:
 157:core/lpc17xx_timer.c **** 
 158:core/lpc17xx_timer.c **** }
 383              		.loc 1 158 0
 384 0080 1846     		mov	r0, r3	@, <retval>
 385 0082 1037     		adds	r7, r7, #16	@,,
 386              		.cfi_def_cfa_offset 8
 387 0084 BD46     		mov	sp, r7	@,
 388              		.cfi_def_cfa_register 13
 389              		@ sp needed	@
 390 0086 80BD     		pop	{r7, pc}	@
 391              	.L27:
 392              		.align	2
 393              	.L26:
 394 0088 00800040 		.word	1073774592
 395 008c 00000940 		.word	1074331648
 396 0090 00400940 		.word	1074348032
 397 0094 00000000 		.word	.LC0
 398              		.cfi_endproc
 399              	.LFE58:
 400              		.size	TIM_GetIntStatus, .-TIM_GetIntStatus
 401              		.section	.text.TIM_GetIntCaptureStatus,"ax",%progbits
 402              		.align	2
 403              		.global	TIM_GetIntCaptureStatus
 404              		.thumb
 405              		.thumb_func
 406              		.type	TIM_GetIntCaptureStatus, %function
 407              	TIM_GetIntCaptureStatus:
 408              	.LFB59:
ARM GAS  C:\Users\COSMIN~1.MAR\AppData\Local\Temp\cccNbcra.s 			page 11


 159:core/lpc17xx_timer.c **** /*********************************************************************//**
 160:core/lpc17xx_timer.c ****  * @brief 		Get Capture Interrupt Status
 161:core/lpc17xx_timer.c ****  * @param[in]	TIMx Timer selection, should be TIM0, TIM1, TIM2, TIM3
 162:core/lpc17xx_timer.c ****  * @param[in]	IntFlag
 163:core/lpc17xx_timer.c ****  * @return 		FlagStatus
 164:core/lpc17xx_timer.c ****  * 				- SET : interrupt
 165:core/lpc17xx_timer.c ****  * 				- RESET : no interrupt
 166:core/lpc17xx_timer.c ****  **********************************************************************/
 167:core/lpc17xx_timer.c **** FlagStatus TIM_GetIntCaptureStatus(LPC_TIM_TypeDef *TIMx, uint8_t IntFlag)
 168:core/lpc17xx_timer.c **** {
 409              		.loc 1 168 0
 410              		.cfi_startproc
 411              		@ args = 0, pretend = 0, frame = 16
 412              		@ frame_needed = 1, uses_anonymous_args = 0
 413 0000 80B5     		push	{r7, lr}	@
 414              		.cfi_def_cfa_offset 8
 415              		.cfi_offset 7, -8
 416              		.cfi_offset 14, -4
 417 0002 84B0     		sub	sp, sp, #16	@,,
 418              		.cfi_def_cfa_offset 24
 419 0004 00AF     		add	r7, sp, #0	@,,
 420              		.cfi_def_cfa_register 7
 421 0006 7860     		str	r0, [r7, #4]	@ TIMx, TIMx
 422 0008 0B46     		mov	r3, r1	@ tmp118, IntFlag
 423 000a FB70     		strb	r3, [r7, #3]	@ tmp119, IntFlag
 169:core/lpc17xx_timer.c **** 	CHECK_PARAM(PARAM_TIMx(TIMx));
 424              		.loc 1 169 0
 425 000c 7B68     		ldr	r3, [r7, #4]	@ tmp120, TIMx
 426 000e B3F1402F 		cmp	r3, #1073758208	@ tmp120,
 427 0012 0FD0     		beq	.L29	@,
 428              		.loc 1 169 0 is_stmt 0 discriminator 1
 429 0014 7B68     		ldr	r3, [r7, #4]	@ tmp121, TIMx
 430 0016 1D4A     		ldr	r2, .L33	@ tmp122,
 431 0018 9342     		cmp	r3, r2	@ tmp121, tmp122
 432 001a 0BD0     		beq	.L29	@,
 433              		.loc 1 169 0 discriminator 2
 434 001c 7B68     		ldr	r3, [r7, #4]	@ tmp123, TIMx
 435 001e 1C4A     		ldr	r2, .L33+4	@ tmp124,
 436 0020 9342     		cmp	r3, r2	@ tmp123, tmp124
 437 0022 07D0     		beq	.L29	@,
 438              		.loc 1 169 0 discriminator 3
 439 0024 7B68     		ldr	r3, [r7, #4]	@ tmp125, TIMx
 440 0026 1B4A     		ldr	r2, .L33+8	@ tmp126,
 441 0028 9342     		cmp	r3, r2	@ tmp125, tmp126
 442 002a 03D0     		beq	.L29	@,
 443              		.loc 1 169 0 discriminator 4
 444 002c 1A48     		ldr	r0, .L33+12	@,
 445 002e A921     		movs	r1, #169	@,
 446 0030 FFF7FEFF 		bl	check_failed	@
 447              	.L29:
 170:core/lpc17xx_timer.c **** 	CHECK_PARAM(PARAM_TIM_INT_TYPE(IntFlag));
 448              		.loc 1 170 0 is_stmt 1
 449 0034 FB78     		ldrb	r3, [r7, #3]	@ zero_extendqisi2	@ tmp127, IntFlag
 450 0036 002B     		cmp	r3, #0	@ tmp127,
 451 0038 12D0     		beq	.L30	@,
 452              		.loc 1 170 0 is_stmt 0 discriminator 1
 453 003a FB78     		ldrb	r3, [r7, #3]	@ zero_extendqisi2	@ tmp128, IntFlag
ARM GAS  C:\Users\COSMIN~1.MAR\AppData\Local\Temp\cccNbcra.s 			page 12


 454 003c 012B     		cmp	r3, #1	@ tmp128,
 455 003e 0FD0     		beq	.L30	@,
 456              		.loc 1 170 0 discriminator 2
 457 0040 FB78     		ldrb	r3, [r7, #3]	@ zero_extendqisi2	@ tmp129, IntFlag
 458 0042 022B     		cmp	r3, #2	@ tmp129,
 459 0044 0CD0     		beq	.L30	@,
 460              		.loc 1 170 0 discriminator 3
 461 0046 FB78     		ldrb	r3, [r7, #3]	@ zero_extendqisi2	@ tmp130, IntFlag
 462 0048 032B     		cmp	r3, #3	@ tmp130,
 463 004a 09D0     		beq	.L30	@,
 464              		.loc 1 170 0 discriminator 4
 465 004c FB78     		ldrb	r3, [r7, #3]	@ zero_extendqisi2	@ tmp131, IntFlag
 466 004e 042B     		cmp	r3, #4	@ tmp131,
 467 0050 06D0     		beq	.L30	@,
 468              		.loc 1 170 0 discriminator 5
 469 0052 FB78     		ldrb	r3, [r7, #3]	@ zero_extendqisi2	@ tmp132, IntFlag
 470 0054 052B     		cmp	r3, #5	@ tmp132,
 471 0056 03D0     		beq	.L30	@,
 472              		.loc 1 170 0 discriminator 6
 473 0058 0F48     		ldr	r0, .L33+12	@,
 474 005a AA21     		movs	r1, #170	@,
 475 005c FFF7FEFF 		bl	check_failed	@
 476              	.L30:
 171:core/lpc17xx_timer.c **** 	uint8_t temp = (TIMx->IR) & (1<<(4+IntFlag));
 477              		.loc 1 171 0 is_stmt 1
 478 0060 7B68     		ldr	r3, [r7, #4]	@ tmp133, TIMx
 479 0062 1B68     		ldr	r3, [r3]	@ D.5947, TIMx_2(D)->IR
 480 0064 DAB2     		uxtb	r2, r3	@ D.5948, D.5947
 481 0066 FB78     		ldrb	r3, [r7, #3]	@ zero_extendqisi2	@ D.5949, IntFlag
 482 0068 0433     		adds	r3, r3, #4	@ D.5949, D.5949,
 483 006a 0121     		movs	r1, #1	@ tmp134,
 484 006c 01FA03F3 		lsl	r3, r1, r3	@ D.5949, tmp134, D.5949
 485 0070 DBB2     		uxtb	r3, r3	@ D.5948, D.5949
 486 0072 1340     		ands	r3, r3, r2	@, tmp135, D.5948, D.5948
 487 0074 FB73     		strb	r3, [r7, #15]	@ tmp136, temp
 172:core/lpc17xx_timer.c **** 	if(temp)
 488              		.loc 1 172 0
 489 0076 FB7B     		ldrb	r3, [r7, #15]	@ zero_extendqisi2	@ tmp137, temp
 490 0078 002B     		cmp	r3, #0	@ tmp137,
 491 007a 01D0     		beq	.L31	@,
 173:core/lpc17xx_timer.c **** 		return SET;
 492              		.loc 1 173 0
 493 007c 0123     		movs	r3, #1	@ D.5946,
 494 007e 00E0     		b	.L32	@
 495              	.L31:
 174:core/lpc17xx_timer.c **** 	return RESET;
 496              		.loc 1 174 0
 497 0080 0023     		movs	r3, #0	@ D.5946,
 498              	.L32:
 175:core/lpc17xx_timer.c **** }
 499              		.loc 1 175 0
 500 0082 1846     		mov	r0, r3	@, <retval>
 501 0084 1037     		adds	r7, r7, #16	@,,
 502              		.cfi_def_cfa_offset 8
 503 0086 BD46     		mov	sp, r7	@,
 504              		.cfi_def_cfa_register 13
 505              		@ sp needed	@
ARM GAS  C:\Users\COSMIN~1.MAR\AppData\Local\Temp\cccNbcra.s 			page 13


 506 0088 80BD     		pop	{r7, pc}	@
 507              	.L34:
 508 008a 00BF     		.align	2
 509              	.L33:
 510 008c 00800040 		.word	1073774592
 511 0090 00000940 		.word	1074331648
 512 0094 00400940 		.word	1074348032
 513 0098 00000000 		.word	.LC0
 514              		.cfi_endproc
 515              	.LFE59:
 516              		.size	TIM_GetIntCaptureStatus, .-TIM_GetIntCaptureStatus
 517              		.section	.text.TIM_ClearIntPending,"ax",%progbits
 518              		.align	2
 519              		.global	TIM_ClearIntPending
 520              		.thumb
 521              		.thumb_func
 522              		.type	TIM_ClearIntPending, %function
 523              	TIM_ClearIntPending:
 524              	.LFB60:
 176:core/lpc17xx_timer.c **** /*********************************************************************//**
 177:core/lpc17xx_timer.c ****  * @brief 		Clear Interrupt pending
 178:core/lpc17xx_timer.c ****  * @param[in]	TIMx Timer selection, should be TIM0, TIM1, TIM2, TIM3
 179:core/lpc17xx_timer.c ****  * @param[in]	IntFlag should be in TIM_INT_TYPE enum
 180:core/lpc17xx_timer.c ****  * @return 		None
 181:core/lpc17xx_timer.c ****  **********************************************************************/
 182:core/lpc17xx_timer.c **** void TIM_ClearIntPending(LPC_TIM_TypeDef *TIMx, uint8_t IntFlag)
 183:core/lpc17xx_timer.c **** {
 525              		.loc 1 183 0
 526              		.cfi_startproc
 527              		@ args = 0, pretend = 0, frame = 8
 528              		@ frame_needed = 1, uses_anonymous_args = 0
 529 0000 80B5     		push	{r7, lr}	@
 530              		.cfi_def_cfa_offset 8
 531              		.cfi_offset 7, -8
 532              		.cfi_offset 14, -4
 533 0002 82B0     		sub	sp, sp, #8	@,,
 534              		.cfi_def_cfa_offset 16
 535 0004 00AF     		add	r7, sp, #0	@,,
 536              		.cfi_def_cfa_register 7
 537 0006 7860     		str	r0, [r7, #4]	@ TIMx, TIMx
 538 0008 0B46     		mov	r3, r1	@ tmp115, IntFlag
 539 000a FB70     		strb	r3, [r7, #3]	@ tmp116, IntFlag
 184:core/lpc17xx_timer.c **** 	CHECK_PARAM(PARAM_TIMx(TIMx));
 540              		.loc 1 184 0
 541 000c 7B68     		ldr	r3, [r7, #4]	@ tmp117, TIMx
 542 000e B3F1402F 		cmp	r3, #1073758208	@ tmp117,
 543 0012 0FD0     		beq	.L36	@,
 544              		.loc 1 184 0 is_stmt 0 discriminator 1
 545 0014 7B68     		ldr	r3, [r7, #4]	@ tmp118, TIMx
 546 0016 184A     		ldr	r2, .L38	@ tmp119,
 547 0018 9342     		cmp	r3, r2	@ tmp118, tmp119
 548 001a 0BD0     		beq	.L36	@,
 549              		.loc 1 184 0 discriminator 2
 550 001c 7B68     		ldr	r3, [r7, #4]	@ tmp120, TIMx
 551 001e 174A     		ldr	r2, .L38+4	@ tmp121,
 552 0020 9342     		cmp	r3, r2	@ tmp120, tmp121
 553 0022 07D0     		beq	.L36	@,
ARM GAS  C:\Users\COSMIN~1.MAR\AppData\Local\Temp\cccNbcra.s 			page 14


 554              		.loc 1 184 0 discriminator 3
 555 0024 7B68     		ldr	r3, [r7, #4]	@ tmp122, TIMx
 556 0026 164A     		ldr	r2, .L38+8	@ tmp123,
 557 0028 9342     		cmp	r3, r2	@ tmp122, tmp123
 558 002a 03D0     		beq	.L36	@,
 559              		.loc 1 184 0 discriminator 4
 560 002c 1548     		ldr	r0, .L38+12	@,
 561 002e B821     		movs	r1, #184	@,
 562 0030 FFF7FEFF 		bl	check_failed	@
 563              	.L36:
 185:core/lpc17xx_timer.c **** 	CHECK_PARAM(PARAM_TIM_INT_TYPE(IntFlag));
 564              		.loc 1 185 0 is_stmt 1
 565 0034 FB78     		ldrb	r3, [r7, #3]	@ zero_extendqisi2	@ tmp124, IntFlag
 566 0036 002B     		cmp	r3, #0	@ tmp124,
 567 0038 12D0     		beq	.L37	@,
 568              		.loc 1 185 0 is_stmt 0 discriminator 1
 569 003a FB78     		ldrb	r3, [r7, #3]	@ zero_extendqisi2	@ tmp125, IntFlag
 570 003c 012B     		cmp	r3, #1	@ tmp125,
 571 003e 0FD0     		beq	.L37	@,
 572              		.loc 1 185 0 discriminator 2
 573 0040 FB78     		ldrb	r3, [r7, #3]	@ zero_extendqisi2	@ tmp126, IntFlag
 574 0042 022B     		cmp	r3, #2	@ tmp126,
 575 0044 0CD0     		beq	.L37	@,
 576              		.loc 1 185 0 discriminator 3
 577 0046 FB78     		ldrb	r3, [r7, #3]	@ zero_extendqisi2	@ tmp127, IntFlag
 578 0048 032B     		cmp	r3, #3	@ tmp127,
 579 004a 09D0     		beq	.L37	@,
 580              		.loc 1 185 0 discriminator 4
 581 004c FB78     		ldrb	r3, [r7, #3]	@ zero_extendqisi2	@ tmp128, IntFlag
 582 004e 042B     		cmp	r3, #4	@ tmp128,
 583 0050 06D0     		beq	.L37	@,
 584              		.loc 1 185 0 discriminator 5
 585 0052 FB78     		ldrb	r3, [r7, #3]	@ zero_extendqisi2	@ tmp129, IntFlag
 586 0054 052B     		cmp	r3, #5	@ tmp129,
 587 0056 03D0     		beq	.L37	@,
 588              		.loc 1 185 0 discriminator 6
 589 0058 0A48     		ldr	r0, .L38+12	@,
 590 005a B921     		movs	r1, #185	@,
 591 005c FFF7FEFF 		bl	check_failed	@
 592              	.L37:
 186:core/lpc17xx_timer.c **** 	TIMx->IR |= TIM_IR_CLR(IntFlag);
 593              		.loc 1 186 0 is_stmt 1
 594 0060 7B68     		ldr	r3, [r7, #4]	@ tmp130, TIMx
 595 0062 1B68     		ldr	r3, [r3]	@ D.5950, TIMx_1(D)->IR
 596 0064 FA78     		ldrb	r2, [r7, #3]	@ zero_extendqisi2	@ D.5951, IntFlag
 597 0066 0121     		movs	r1, #1	@ tmp131,
 598 0068 01FA02F2 		lsl	r2, r1, r2	@ D.5951, tmp131, D.5951
 599 006c 1A43     		orrs	r2, r2, r3	@, D.5950, D.5950, D.5950
 600 006e 7B68     		ldr	r3, [r7, #4]	@ tmp132, TIMx
 601 0070 1A60     		str	r2, [r3]	@ D.5950, TIMx_1(D)->IR
 187:core/lpc17xx_timer.c **** }
 602              		.loc 1 187 0
 603 0072 0837     		adds	r7, r7, #8	@,,
 604              		.cfi_def_cfa_offset 8
 605 0074 BD46     		mov	sp, r7	@,
 606              		.cfi_def_cfa_register 13
 607              		@ sp needed	@
ARM GAS  C:\Users\COSMIN~1.MAR\AppData\Local\Temp\cccNbcra.s 			page 15


 608 0076 80BD     		pop	{r7, pc}	@
 609              	.L39:
 610              		.align	2
 611              	.L38:
 612 0078 00800040 		.word	1073774592
 613 007c 00000940 		.word	1074331648
 614 0080 00400940 		.word	1074348032
 615 0084 00000000 		.word	.LC0
 616              		.cfi_endproc
 617              	.LFE60:
 618              		.size	TIM_ClearIntPending, .-TIM_ClearIntPending
 619              		.section	.text.TIM_ClearIntCapturePending,"ax",%progbits
 620              		.align	2
 621              		.global	TIM_ClearIntCapturePending
 622              		.thumb
 623              		.thumb_func
 624              		.type	TIM_ClearIntCapturePending, %function
 625              	TIM_ClearIntCapturePending:
 626              	.LFB61:
 188:core/lpc17xx_timer.c **** 
 189:core/lpc17xx_timer.c **** /*********************************************************************//**
 190:core/lpc17xx_timer.c ****  * @brief 		Clear Capture Interrupt pending
 191:core/lpc17xx_timer.c ****  * @param[in]	TIMx Timer selection, should be TIM0, TIM1, TIM2, TIM3
 192:core/lpc17xx_timer.c ****  * @param[in]	IntFlag should be in TIM_INT_TYPE enum
 193:core/lpc17xx_timer.c ****  * @return 		None
 194:core/lpc17xx_timer.c ****  **********************************************************************/
 195:core/lpc17xx_timer.c **** void TIM_ClearIntCapturePending(LPC_TIM_TypeDef *TIMx, uint8_t IntFlag)
 196:core/lpc17xx_timer.c **** {
 627              		.loc 1 196 0
 628              		.cfi_startproc
 629              		@ args = 0, pretend = 0, frame = 8
 630              		@ frame_needed = 1, uses_anonymous_args = 0
 631 0000 80B5     		push	{r7, lr}	@
 632              		.cfi_def_cfa_offset 8
 633              		.cfi_offset 7, -8
 634              		.cfi_offset 14, -4
 635 0002 82B0     		sub	sp, sp, #8	@,,
 636              		.cfi_def_cfa_offset 16
 637 0004 00AF     		add	r7, sp, #0	@,,
 638              		.cfi_def_cfa_register 7
 639 0006 7860     		str	r0, [r7, #4]	@ TIMx, TIMx
 640 0008 0B46     		mov	r3, r1	@ tmp116, IntFlag
 641 000a FB70     		strb	r3, [r7, #3]	@ tmp117, IntFlag
 197:core/lpc17xx_timer.c **** 	CHECK_PARAM(PARAM_TIMx(TIMx));
 642              		.loc 1 197 0
 643 000c 7B68     		ldr	r3, [r7, #4]	@ tmp118, TIMx
 644 000e B3F1402F 		cmp	r3, #1073758208	@ tmp118,
 645 0012 0FD0     		beq	.L41	@,
 646              		.loc 1 197 0 is_stmt 0 discriminator 1
 647 0014 7B68     		ldr	r3, [r7, #4]	@ tmp119, TIMx
 648 0016 194A     		ldr	r2, .L43	@ tmp120,
 649 0018 9342     		cmp	r3, r2	@ tmp119, tmp120
 650 001a 0BD0     		beq	.L41	@,
 651              		.loc 1 197 0 discriminator 2
 652 001c 7B68     		ldr	r3, [r7, #4]	@ tmp121, TIMx
 653 001e 184A     		ldr	r2, .L43+4	@ tmp122,
 654 0020 9342     		cmp	r3, r2	@ tmp121, tmp122
ARM GAS  C:\Users\COSMIN~1.MAR\AppData\Local\Temp\cccNbcra.s 			page 16


 655 0022 07D0     		beq	.L41	@,
 656              		.loc 1 197 0 discriminator 3
 657 0024 7B68     		ldr	r3, [r7, #4]	@ tmp123, TIMx
 658 0026 174A     		ldr	r2, .L43+8	@ tmp124,
 659 0028 9342     		cmp	r3, r2	@ tmp123, tmp124
 660 002a 03D0     		beq	.L41	@,
 661              		.loc 1 197 0 discriminator 4
 662 002c 1648     		ldr	r0, .L43+12	@,
 663 002e C521     		movs	r1, #197	@,
 664 0030 FFF7FEFF 		bl	check_failed	@
 665              	.L41:
 198:core/lpc17xx_timer.c **** 	CHECK_PARAM(PARAM_TIM_INT_TYPE(IntFlag));
 666              		.loc 1 198 0 is_stmt 1
 667 0034 FB78     		ldrb	r3, [r7, #3]	@ zero_extendqisi2	@ tmp125, IntFlag
 668 0036 002B     		cmp	r3, #0	@ tmp125,
 669 0038 12D0     		beq	.L42	@,
 670              		.loc 1 198 0 is_stmt 0 discriminator 1
 671 003a FB78     		ldrb	r3, [r7, #3]	@ zero_extendqisi2	@ tmp126, IntFlag
 672 003c 012B     		cmp	r3, #1	@ tmp126,
 673 003e 0FD0     		beq	.L42	@,
 674              		.loc 1 198 0 discriminator 2
 675 0040 FB78     		ldrb	r3, [r7, #3]	@ zero_extendqisi2	@ tmp127, IntFlag
 676 0042 022B     		cmp	r3, #2	@ tmp127,
 677 0044 0CD0     		beq	.L42	@,
 678              		.loc 1 198 0 discriminator 3
 679 0046 FB78     		ldrb	r3, [r7, #3]	@ zero_extendqisi2	@ tmp128, IntFlag
 680 0048 032B     		cmp	r3, #3	@ tmp128,
 681 004a 09D0     		beq	.L42	@,
 682              		.loc 1 198 0 discriminator 4
 683 004c FB78     		ldrb	r3, [r7, #3]	@ zero_extendqisi2	@ tmp129, IntFlag
 684 004e 042B     		cmp	r3, #4	@ tmp129,
 685 0050 06D0     		beq	.L42	@,
 686              		.loc 1 198 0 discriminator 5
 687 0052 FB78     		ldrb	r3, [r7, #3]	@ zero_extendqisi2	@ tmp130, IntFlag
 688 0054 052B     		cmp	r3, #5	@ tmp130,
 689 0056 03D0     		beq	.L42	@,
 690              		.loc 1 198 0 discriminator 6
 691 0058 0B48     		ldr	r0, .L43+12	@,
 692 005a C621     		movs	r1, #198	@,
 693 005c FFF7FEFF 		bl	check_failed	@
 694              	.L42:
 199:core/lpc17xx_timer.c **** 	TIMx->IR |= (1<<(4+IntFlag));
 695              		.loc 1 199 0 is_stmt 1
 696 0060 7B68     		ldr	r3, [r7, #4]	@ tmp131, TIMx
 697 0062 1B68     		ldr	r3, [r3]	@ D.5952, TIMx_1(D)->IR
 698 0064 FA78     		ldrb	r2, [r7, #3]	@ zero_extendqisi2	@ D.5953, IntFlag
 699 0066 0432     		adds	r2, r2, #4	@ D.5953, D.5953,
 700 0068 0121     		movs	r1, #1	@ tmp132,
 701 006a 01FA02F2 		lsl	r2, r1, r2	@ D.5953, tmp132, D.5953
 702 006e 1A43     		orrs	r2, r2, r3	@, D.5952, D.5952, D.5952
 703 0070 7B68     		ldr	r3, [r7, #4]	@ tmp133, TIMx
 704 0072 1A60     		str	r2, [r3]	@ D.5952, TIMx_1(D)->IR
 200:core/lpc17xx_timer.c **** }
 705              		.loc 1 200 0
 706 0074 0837     		adds	r7, r7, #8	@,,
 707              		.cfi_def_cfa_offset 8
 708 0076 BD46     		mov	sp, r7	@,
ARM GAS  C:\Users\COSMIN~1.MAR\AppData\Local\Temp\cccNbcra.s 			page 17


 709              		.cfi_def_cfa_register 13
 710              		@ sp needed	@
 711 0078 80BD     		pop	{r7, pc}	@
 712              	.L44:
 713 007a 00BF     		.align	2
 714              	.L43:
 715 007c 00800040 		.word	1073774592
 716 0080 00000940 		.word	1074331648
 717 0084 00400940 		.word	1074348032
 718 0088 00000000 		.word	.LC0
 719              		.cfi_endproc
 720              	.LFE61:
 721              		.size	TIM_ClearIntCapturePending, .-TIM_ClearIntCapturePending
 722              		.section	.text.TIM_ConfigStructInit,"ax",%progbits
 723              		.align	2
 724              		.global	TIM_ConfigStructInit
 725              		.thumb
 726              		.thumb_func
 727              		.type	TIM_ConfigStructInit, %function
 728              	TIM_ConfigStructInit:
 729              	.LFB62:
 201:core/lpc17xx_timer.c **** 
 202:core/lpc17xx_timer.c **** /*********************************************************************//**
 203:core/lpc17xx_timer.c **** * @brief 		Configuration for Timer at initial time
 204:core/lpc17xx_timer.c **** * @param[in] 	TimerCounterMode Should be :
 205:core/lpc17xx_timer.c **** * 					- PrescaleOption = TC_PRESCALE_USVAL,
 206:core/lpc17xx_timer.c **** * 					- PrescaleValue = 1
 207:core/lpc17xx_timer.c **** * 				Counter mode with
 208:core/lpc17xx_timer.c **** * 					- Caption channel 0
 209:core/lpc17xx_timer.c **** * @param[in] 	TIM_ConfigStruct pointer to TIM_TIMERCFG_Type or
 210:core/lpc17xx_timer.c **** * 				TIM_COUNTERCFG_Type
 211:core/lpc17xx_timer.c **** * @return 		None
 212:core/lpc17xx_timer.c ****  **********************************************************************/
 213:core/lpc17xx_timer.c **** void TIM_ConfigStructInit(uint8_t TimerCounterMode, void *TIM_ConfigStruct)
 214:core/lpc17xx_timer.c **** {
 730              		.loc 1 214 0
 731              		.cfi_startproc
 732              		@ args = 0, pretend = 0, frame = 16
 733              		@ frame_needed = 1, uses_anonymous_args = 0
 734              		@ link register save eliminated.
 735 0000 80B4     		push	{r7}	@
 736              		.cfi_def_cfa_offset 4
 737              		.cfi_offset 7, -4
 738 0002 85B0     		sub	sp, sp, #20	@,,
 739              		.cfi_def_cfa_offset 24
 740 0004 00AF     		add	r7, sp, #0	@,,
 741              		.cfi_def_cfa_register 7
 742 0006 0346     		mov	r3, r0	@ tmp110, TimerCounterMode
 743 0008 3960     		str	r1, [r7]	@ TIM_ConfigStruct, TIM_ConfigStruct
 744 000a FB71     		strb	r3, [r7, #7]	@ tmp111, TimerCounterMode
 215:core/lpc17xx_timer.c **** 	if (TimerCounterMode == TIM_TIMER_MODE )
 745              		.loc 1 215 0
 746 000c FB79     		ldrb	r3, [r7, #7]	@ zero_extendqisi2	@ tmp112, TimerCounterMode
 747 000e 002B     		cmp	r3, #0	@ tmp112,
 748 0010 08D1     		bne	.L46	@,
 749              	.LBB2:
 216:core/lpc17xx_timer.c **** 	{
ARM GAS  C:\Users\COSMIN~1.MAR\AppData\Local\Temp\cccNbcra.s 			page 18


 217:core/lpc17xx_timer.c **** 		TIM_TIMERCFG_Type * pTimeCfg = (TIM_TIMERCFG_Type *)TIM_ConfigStruct;
 750              		.loc 1 217 0
 751 0012 3B68     		ldr	r3, [r7]	@ tmp113, TIM_ConfigStruct
 752 0014 FB60     		str	r3, [r7, #12]	@ tmp113, pTimeCfg
 218:core/lpc17xx_timer.c **** 		pTimeCfg->PrescaleOption = TIM_PRESCALE_USVAL;
 753              		.loc 1 218 0
 754 0016 FB68     		ldr	r3, [r7, #12]	@ tmp114, pTimeCfg
 755 0018 0122     		movs	r2, #1	@ tmp115,
 756 001a 1A70     		strb	r2, [r3]	@ tmp116, pTimeCfg_3->PrescaleOption
 219:core/lpc17xx_timer.c **** 		pTimeCfg->PrescaleValue = 1;
 757              		.loc 1 219 0
 758 001c FB68     		ldr	r3, [r7, #12]	@ tmp117, pTimeCfg
 759 001e 0122     		movs	r2, #1	@ tmp118,
 760 0020 5A60     		str	r2, [r3, #4]	@ tmp118, pTimeCfg_3->PrescaleValue
 761              	.LBE2:
 762 0022 04E0     		b	.L45	@
 763              	.L46:
 764              	.LBB3:
 220:core/lpc17xx_timer.c **** 	}
 221:core/lpc17xx_timer.c **** 	else
 222:core/lpc17xx_timer.c **** 	{
 223:core/lpc17xx_timer.c **** 		TIM_COUNTERCFG_Type * pCounterCfg = (TIM_COUNTERCFG_Type *)TIM_ConfigStruct;
 765              		.loc 1 223 0
 766 0024 3B68     		ldr	r3, [r7]	@ tmp119, TIM_ConfigStruct
 767 0026 BB60     		str	r3, [r7, #8]	@ tmp119, pCounterCfg
 224:core/lpc17xx_timer.c **** 		pCounterCfg->CountInputSelect = TIM_COUNTER_INCAP0;
 768              		.loc 1 224 0
 769 0028 BB68     		ldr	r3, [r7, #8]	@ tmp120, pCounterCfg
 770 002a 0022     		movs	r2, #0	@ tmp121,
 771 002c 5A70     		strb	r2, [r3, #1]	@ tmp122, pCounterCfg_4->CountInputSelect
 772              	.L45:
 773              	.LBE3:
 225:core/lpc17xx_timer.c **** 
 226:core/lpc17xx_timer.c **** 	}
 227:core/lpc17xx_timer.c **** }
 774              		.loc 1 227 0
 775 002e 1437     		adds	r7, r7, #20	@,,
 776              		.cfi_def_cfa_offset 4
 777 0030 BD46     		mov	sp, r7	@,
 778              		.cfi_def_cfa_register 13
 779              		@ sp needed	@
 780 0032 5DF8047B 		ldr	r7, [sp], #4	@,
 781              		.cfi_restore 7
 782              		.cfi_def_cfa_offset 0
 783 0036 7047     		bx	lr	@
 784              		.cfi_endproc
 785              	.LFE62:
 786              		.size	TIM_ConfigStructInit, .-TIM_ConfigStructInit
 787              		.section	.text.TIM_Init,"ax",%progbits
 788              		.align	2
 789              		.global	TIM_Init
 790              		.thumb
 791              		.thumb_func
 792              		.type	TIM_Init, %function
 793              	TIM_Init:
 794              	.LFB63:
 228:core/lpc17xx_timer.c **** 
ARM GAS  C:\Users\COSMIN~1.MAR\AppData\Local\Temp\cccNbcra.s 			page 19


 229:core/lpc17xx_timer.c **** /*********************************************************************//**
 230:core/lpc17xx_timer.c ****  * @brief 		Initial Timer/Counter device
 231:core/lpc17xx_timer.c ****  * 				 	Set Clock frequency for Timer
 232:core/lpc17xx_timer.c ****  * 					Set initial configuration for Timer
 233:core/lpc17xx_timer.c ****  * @param[in]	TIMx  Timer selection, should be TIM0, TIM1, TIM2, TIM3
 234:core/lpc17xx_timer.c ****  * @param[in]	TimerCounterMode TIM_MODE_OPT
 235:core/lpc17xx_timer.c ****  * @param[in]	TIM_ConfigStruct pointer to TIM_TIMERCFG_Type
 236:core/lpc17xx_timer.c ****  * 				that contains the configuration information for the
 237:core/lpc17xx_timer.c ****  *                    specified Timer peripheral.
 238:core/lpc17xx_timer.c ****  * @return 		None
 239:core/lpc17xx_timer.c ****  **********************************************************************/
 240:core/lpc17xx_timer.c **** void TIM_Init(LPC_TIM_TypeDef *TIMx, uint8_t TimerCounterMode, void *TIM_ConfigStruct)
 241:core/lpc17xx_timer.c **** {
 795              		.loc 1 241 0
 796              		.cfi_startproc
 797              		@ args = 0, pretend = 0, frame = 32
 798              		@ frame_needed = 1, uses_anonymous_args = 0
 799 0000 80B5     		push	{r7, lr}	@
 800              		.cfi_def_cfa_offset 8
 801              		.cfi_offset 7, -8
 802              		.cfi_offset 14, -4
 803 0002 88B0     		sub	sp, sp, #32	@,,
 804              		.cfi_def_cfa_offset 40
 805 0004 00AF     		add	r7, sp, #0	@,,
 806              		.cfi_def_cfa_register 7
 807 0006 F860     		str	r0, [r7, #12]	@ TIMx, TIMx
 808 0008 0B46     		mov	r3, r1	@ tmp125, TimerCounterMode
 809 000a 7A60     		str	r2, [r7, #4]	@ TIM_ConfigStruct, TIM_ConfigStruct
 810 000c FB72     		strb	r3, [r7, #11]	@ tmp126, TimerCounterMode
 242:core/lpc17xx_timer.c **** 	TIM_TIMERCFG_Type *pTimeCfg;
 243:core/lpc17xx_timer.c **** 	TIM_COUNTERCFG_Type *pCounterCfg;
 244:core/lpc17xx_timer.c **** 	uint32_t timer;
 245:core/lpc17xx_timer.c **** 
 246:core/lpc17xx_timer.c **** 	CHECK_PARAM(PARAM_TIMx(TIMx));
 811              		.loc 1 246 0
 812 000e FB68     		ldr	r3, [r7, #12]	@ tmp127, TIMx
 813 0010 B3F1402F 		cmp	r3, #1073758208	@ tmp127,
 814 0014 0FD0     		beq	.L49	@,
 815              		.loc 1 246 0 is_stmt 0 discriminator 1
 816 0016 FB68     		ldr	r3, [r7, #12]	@ tmp128, TIMx
 817 0018 504A     		ldr	r2, .L59	@ tmp129,
 818 001a 9342     		cmp	r3, r2	@ tmp128, tmp129
 819 001c 0BD0     		beq	.L49	@,
 820              		.loc 1 246 0 discriminator 2
 821 001e FB68     		ldr	r3, [r7, #12]	@ tmp130, TIMx
 822 0020 4F4A     		ldr	r2, .L59+4	@ tmp131,
 823 0022 9342     		cmp	r3, r2	@ tmp130, tmp131
 824 0024 07D0     		beq	.L49	@,
 825              		.loc 1 246 0 discriminator 3
 826 0026 FB68     		ldr	r3, [r7, #12]	@ tmp132, TIMx
 827 0028 4E4A     		ldr	r2, .L59+8	@ tmp133,
 828 002a 9342     		cmp	r3, r2	@ tmp132, tmp133
 829 002c 03D0     		beq	.L49	@,
 830              		.loc 1 246 0 discriminator 4
 831 002e 4E48     		ldr	r0, .L59+12	@,
 832 0030 F621     		movs	r1, #246	@,
 833 0032 FFF7FEFF 		bl	check_failed	@
ARM GAS  C:\Users\COSMIN~1.MAR\AppData\Local\Temp\cccNbcra.s 			page 20


 834              	.L49:
 247:core/lpc17xx_timer.c **** 	CHECK_PARAM(PARAM_TIM_MODE_OPT(TimerCounterMode));
 835              		.loc 1 247 0 is_stmt 1
 836 0036 FB7A     		ldrb	r3, [r7, #11]	@ zero_extendqisi2	@ tmp134, TimerCounterMode
 837 0038 002B     		cmp	r3, #0	@ tmp134,
 838 003a 0CD0     		beq	.L50	@,
 839              		.loc 1 247 0 is_stmt 0 discriminator 1
 840 003c FB7A     		ldrb	r3, [r7, #11]	@ zero_extendqisi2	@ tmp135, TimerCounterMode
 841 003e 012B     		cmp	r3, #1	@ tmp135,
 842 0040 09D0     		beq	.L50	@,
 843              		.loc 1 247 0 discriminator 2
 844 0042 FB7A     		ldrb	r3, [r7, #11]	@ zero_extendqisi2	@ tmp136, TimerCounterMode
 845 0044 012B     		cmp	r3, #1	@ tmp136,
 846 0046 06D0     		beq	.L50	@,
 847              		.loc 1 247 0 discriminator 3
 848 0048 FB7A     		ldrb	r3, [r7, #11]	@ zero_extendqisi2	@ tmp137, TimerCounterMode
 849 004a 012B     		cmp	r3, #1	@ tmp137,
 850 004c 03D0     		beq	.L50	@,
 851              		.loc 1 247 0 discriminator 4
 852 004e 4648     		ldr	r0, .L59+12	@,
 853 0050 F721     		movs	r1, #247	@,
 854 0052 FFF7FEFF 		bl	check_failed	@
 855              	.L50:
 248:core/lpc17xx_timer.c **** 
 249:core/lpc17xx_timer.c **** 	timer = TIM_ConverPtrToTimeNum(TIMx) ;
 856              		.loc 1 249 0 is_stmt 1
 857 0056 F868     		ldr	r0, [r7, #12]	@, TIMx
 858 0058 FFF7FEFF 		bl	TIM_ConverPtrToTimeNum	@
 859 005c F861     		str	r0, [r7, #28]	@, timer
 250:core/lpc17xx_timer.c **** 	//set power
 251:core/lpc17xx_timer.c **** 	if (TIMx== LPC_TIM0)
 860              		.loc 1 251 0
 861 005e FB68     		ldr	r3, [r7, #12]	@ tmp138, TIMx
 862 0060 B3F1402F 		cmp	r3, #1073758208	@ tmp138,
 863 0064 08D1     		bne	.L51	@,
 252:core/lpc17xx_timer.c **** 	{
 253:core/lpc17xx_timer.c **** 		CLKPWR_ConfigPPWR (CLKPWR_PCONP_PCTIM0, ENABLE);
 864              		.loc 1 253 0
 865 0066 0220     		movs	r0, #2	@,
 866 0068 0121     		movs	r1, #1	@,
 867 006a FFF7FEFF 		bl	CLKPWR_ConfigPPWR	@
 254:core/lpc17xx_timer.c **** 		CLKPWR_SetPCLKDiv (CLKPWR_PCLKSEL_TIMER0, CLKPWR_PCLKSEL_CCLK_DIV_4);
 868              		.loc 1 254 0
 869 006e 0220     		movs	r0, #2	@,
 870 0070 0021     		movs	r1, #0	@,
 871 0072 FFF7FEFF 		bl	CLKPWR_SetPCLKDiv	@
 872 0076 27E0     		b	.L52	@
 873              	.L51:
 255:core/lpc17xx_timer.c **** 	}
 256:core/lpc17xx_timer.c **** 	else if (TIMx== LPC_TIM1)
 874              		.loc 1 256 0
 875 0078 FB68     		ldr	r3, [r7, #12]	@ tmp139, TIMx
 876 007a 384A     		ldr	r2, .L59	@ tmp140,
 877 007c 9342     		cmp	r3, r2	@ tmp139, tmp140
 878 007e 08D1     		bne	.L53	@,
 257:core/lpc17xx_timer.c **** 	{
 258:core/lpc17xx_timer.c **** 		CLKPWR_ConfigPPWR (CLKPWR_PCONP_PCTIM1, ENABLE);
ARM GAS  C:\Users\COSMIN~1.MAR\AppData\Local\Temp\cccNbcra.s 			page 21


 879              		.loc 1 258 0
 880 0080 0420     		movs	r0, #4	@,
 881 0082 0121     		movs	r1, #1	@,
 882 0084 FFF7FEFF 		bl	CLKPWR_ConfigPPWR	@
 259:core/lpc17xx_timer.c **** 		CLKPWR_SetPCLKDiv (CLKPWR_PCLKSEL_TIMER1, CLKPWR_PCLKSEL_CCLK_DIV_4);
 883              		.loc 1 259 0
 884 0088 0420     		movs	r0, #4	@,
 885 008a 0021     		movs	r1, #0	@,
 886 008c FFF7FEFF 		bl	CLKPWR_SetPCLKDiv	@
 887 0090 1AE0     		b	.L52	@
 888              	.L53:
 260:core/lpc17xx_timer.c **** 
 261:core/lpc17xx_timer.c **** 	}
 262:core/lpc17xx_timer.c **** 
 263:core/lpc17xx_timer.c **** 	else if (TIMx== LPC_TIM2)
 889              		.loc 1 263 0
 890 0092 FB68     		ldr	r3, [r7, #12]	@ tmp141, TIMx
 891 0094 324A     		ldr	r2, .L59+4	@ tmp142,
 892 0096 9342     		cmp	r3, r2	@ tmp141, tmp142
 893 0098 09D1     		bne	.L54	@,
 264:core/lpc17xx_timer.c **** 	{
 265:core/lpc17xx_timer.c **** 		CLKPWR_ConfigPPWR (CLKPWR_PCONP_PCTIM2, ENABLE);
 894              		.loc 1 265 0
 895 009a 4FF48000 		mov	r0, #4194304	@,
 896 009e 0121     		movs	r1, #1	@,
 897 00a0 FFF7FEFF 		bl	CLKPWR_ConfigPPWR	@
 266:core/lpc17xx_timer.c **** 		CLKPWR_SetPCLKDiv (CLKPWR_PCLKSEL_TIMER2, CLKPWR_PCLKSEL_CCLK_DIV_4);
 898              		.loc 1 266 0
 899 00a4 2C20     		movs	r0, #44	@,
 900 00a6 0021     		movs	r1, #0	@,
 901 00a8 FFF7FEFF 		bl	CLKPWR_SetPCLKDiv	@
 902 00ac 0CE0     		b	.L52	@
 903              	.L54:
 267:core/lpc17xx_timer.c **** 	}
 268:core/lpc17xx_timer.c **** 	else if (TIMx== LPC_TIM3)
 904              		.loc 1 268 0
 905 00ae FB68     		ldr	r3, [r7, #12]	@ tmp143, TIMx
 906 00b0 2C4A     		ldr	r2, .L59+8	@ tmp144,
 907 00b2 9342     		cmp	r3, r2	@ tmp143, tmp144
 908 00b4 08D1     		bne	.L52	@,
 269:core/lpc17xx_timer.c **** 	{
 270:core/lpc17xx_timer.c **** 		CLKPWR_ConfigPPWR (CLKPWR_PCONP_PCTIM3, ENABLE);
 909              		.loc 1 270 0
 910 00b6 4FF40000 		mov	r0, #8388608	@,
 911 00ba 0121     		movs	r1, #1	@,
 912 00bc FFF7FEFF 		bl	CLKPWR_ConfigPPWR	@
 271:core/lpc17xx_timer.c **** 		CLKPWR_SetPCLKDiv (CLKPWR_PCLKSEL_TIMER3, CLKPWR_PCLKSEL_CCLK_DIV_4);
 913              		.loc 1 271 0
 914 00c0 2E20     		movs	r0, #46	@,
 915 00c2 0021     		movs	r1, #0	@,
 916 00c4 FFF7FEFF 		bl	CLKPWR_SetPCLKDiv	@
 917              	.L52:
 272:core/lpc17xx_timer.c **** 
 273:core/lpc17xx_timer.c **** 	}
 274:core/lpc17xx_timer.c **** 
 275:core/lpc17xx_timer.c **** 	TIMx->CCR &= ~TIM_CTCR_MODE_MASK;
 918              		.loc 1 275 0
ARM GAS  C:\Users\COSMIN~1.MAR\AppData\Local\Temp\cccNbcra.s 			page 22


 919 00c8 FB68     		ldr	r3, [r7, #12]	@ tmp145, TIMx
 920 00ca 9B6A     		ldr	r3, [r3, #40]	@ D.5954, TIMx_1(D)->CCR
 921 00cc 23F00302 		bic	r2, r3, #3	@ D.5954, D.5954,
 922 00d0 FB68     		ldr	r3, [r7, #12]	@ tmp146, TIMx
 923 00d2 9A62     		str	r2, [r3, #40]	@ D.5954, TIMx_1(D)->CCR
 276:core/lpc17xx_timer.c **** 	TIMx->CCR |= TIM_TIMER_MODE;
 924              		.loc 1 276 0
 925 00d4 FB68     		ldr	r3, [r7, #12]	@ tmp147, TIMx
 926 00d6 9A6A     		ldr	r2, [r3, #40]	@ D.5954, TIMx_1(D)->CCR
 927 00d8 FB68     		ldr	r3, [r7, #12]	@ tmp148, TIMx
 928 00da 9A62     		str	r2, [r3, #40]	@ D.5954, TIMx_1(D)->CCR
 277:core/lpc17xx_timer.c **** 
 278:core/lpc17xx_timer.c **** 	TIMx->TC =0;
 929              		.loc 1 278 0
 930 00dc FB68     		ldr	r3, [r7, #12]	@ tmp149, TIMx
 931 00de 0022     		movs	r2, #0	@ tmp150,
 932 00e0 9A60     		str	r2, [r3, #8]	@ tmp150, TIMx_1(D)->TC
 279:core/lpc17xx_timer.c **** 	TIMx->PC =0;
 933              		.loc 1 279 0
 934 00e2 FB68     		ldr	r3, [r7, #12]	@ tmp151, TIMx
 935 00e4 0022     		movs	r2, #0	@ tmp152,
 936 00e6 1A61     		str	r2, [r3, #16]	@ tmp152, TIMx_1(D)->PC
 280:core/lpc17xx_timer.c **** 	TIMx->PR =0;
 937              		.loc 1 280 0
 938 00e8 FB68     		ldr	r3, [r7, #12]	@ tmp153, TIMx
 939 00ea 0022     		movs	r2, #0	@ tmp154,
 940 00ec DA60     		str	r2, [r3, #12]	@ tmp154, TIMx_1(D)->PR
 281:core/lpc17xx_timer.c **** 	if (TimerCounterMode == TIM_TIMER_MODE )
 941              		.loc 1 281 0
 942 00ee FB7A     		ldrb	r3, [r7, #11]	@ zero_extendqisi2	@ tmp155, TimerCounterMode
 943 00f0 002B     		cmp	r3, #0	@ tmp155,
 944 00f2 1AD1     		bne	.L55	@,
 282:core/lpc17xx_timer.c **** 	{
 283:core/lpc17xx_timer.c **** 		pTimeCfg = (TIM_TIMERCFG_Type *)TIM_ConfigStruct;
 945              		.loc 1 283 0
 946 00f4 7B68     		ldr	r3, [r7, #4]	@ tmp156, TIM_ConfigStruct
 947 00f6 BB61     		str	r3, [r7, #24]	@ tmp156, pTimeCfg
 284:core/lpc17xx_timer.c **** 		if (pTimeCfg->PrescaleOption  == TIM_PRESCALE_TICKVAL)
 948              		.loc 1 284 0
 949 00f8 BB69     		ldr	r3, [r7, #24]	@ tmp157, pTimeCfg
 950 00fa 1B78     		ldrb	r3, [r3]	@ zero_extendqisi2	@ D.5955, pTimeCfg_8->PrescaleOption
 951 00fc 002B     		cmp	r3, #0	@ D.5955,
 952 00fe 05D1     		bne	.L56	@,
 285:core/lpc17xx_timer.c **** 		{
 286:core/lpc17xx_timer.c **** 			TIMx->PR   = pTimeCfg->PrescaleValue -1  ;
 953              		.loc 1 286 0
 954 0100 BB69     		ldr	r3, [r7, #24]	@ tmp158, pTimeCfg
 955 0102 5B68     		ldr	r3, [r3, #4]	@ D.5954, pTimeCfg_8->PrescaleValue
 956 0104 5A1E     		subs	r2, r3, #1	@ D.5954, D.5954,
 957 0106 FB68     		ldr	r3, [r7, #12]	@ tmp159, TIMx
 958 0108 DA60     		str	r2, [r3, #12]	@ D.5954, TIMx_1(D)->PR
 959 010a 20E0     		b	.L58	@
 960              	.L56:
 287:core/lpc17xx_timer.c **** 		}
 288:core/lpc17xx_timer.c **** 		else
 289:core/lpc17xx_timer.c **** 		{
 290:core/lpc17xx_timer.c **** 			TIMx->PR   = TIM_ConverUSecToVal (TIM_ConverPtrToTimeNum(TIMx),pTimeCfg->PrescaleValue)-1;
ARM GAS  C:\Users\COSMIN~1.MAR\AppData\Local\Temp\cccNbcra.s 			page 23


 961              		.loc 1 290 0
 962 010c F868     		ldr	r0, [r7, #12]	@, TIMx
 963 010e FFF7FEFF 		bl	TIM_ConverPtrToTimeNum	@
 964 0112 0246     		mov	r2, r0	@ D.5954,
 965 0114 BB69     		ldr	r3, [r7, #24]	@ tmp160, pTimeCfg
 966 0116 5B68     		ldr	r3, [r3, #4]	@ D.5954, pTimeCfg_8->PrescaleValue
 967 0118 1046     		mov	r0, r2	@, D.5954
 968 011a 1946     		mov	r1, r3	@, D.5954
 969 011c FFF7FEFF 		bl	TIM_ConverUSecToVal	@
 970 0120 0346     		mov	r3, r0	@ D.5954,
 971 0122 5A1E     		subs	r2, r3, #1	@ D.5954, D.5954,
 972 0124 FB68     		ldr	r3, [r7, #12]	@ tmp161, TIMx
 973 0126 DA60     		str	r2, [r3, #12]	@ D.5954, TIMx_1(D)->PR
 974 0128 11E0     		b	.L58	@
 975              	.L55:
 291:core/lpc17xx_timer.c **** 		}
 292:core/lpc17xx_timer.c **** 	}
 293:core/lpc17xx_timer.c **** 	else
 294:core/lpc17xx_timer.c **** 	{
 295:core/lpc17xx_timer.c **** 
 296:core/lpc17xx_timer.c **** 		pCounterCfg = (TIM_COUNTERCFG_Type *)TIM_ConfigStruct;
 976              		.loc 1 296 0
 977 012a 7B68     		ldr	r3, [r7, #4]	@ tmp162, TIM_ConfigStruct
 978 012c 7B61     		str	r3, [r7, #20]	@ tmp162, pCounterCfg
 297:core/lpc17xx_timer.c **** 		TIMx->CCR  &= ~TIM_CTCR_INPUT_MASK;
 979              		.loc 1 297 0
 980 012e FB68     		ldr	r3, [r7, #12]	@ tmp163, TIMx
 981 0130 9B6A     		ldr	r3, [r3, #40]	@ D.5954, TIMx_1(D)->CCR
 982 0132 23F00C02 		bic	r2, r3, #12	@ D.5954, D.5954,
 983 0136 FB68     		ldr	r3, [r7, #12]	@ tmp164, TIMx
 984 0138 9A62     		str	r2, [r3, #40]	@ D.5954, TIMx_1(D)->CCR
 298:core/lpc17xx_timer.c **** 		if (pCounterCfg->CountInputSelect == TIM_COUNTER_INCAP1)
 985              		.loc 1 298 0
 986 013a 7B69     		ldr	r3, [r7, #20]	@ tmp165, pCounterCfg
 987 013c 5B78     		ldrb	r3, [r3, #1]	@ zero_extendqisi2	@ D.5955, pCounterCfg_16->CountInputSelect
 988 013e 012B     		cmp	r3, #1	@ D.5955,
 989 0140 05D1     		bne	.L58	@,
 299:core/lpc17xx_timer.c **** 			TIMx->CCR |= _BIT(2);
 990              		.loc 1 299 0
 991 0142 FB68     		ldr	r3, [r7, #12]	@ tmp166, TIMx
 992 0144 9B6A     		ldr	r3, [r3, #40]	@ D.5954, TIMx_1(D)->CCR
 993 0146 43F00402 		orr	r2, r3, #4	@ D.5954, D.5954,
 994 014a FB68     		ldr	r3, [r7, #12]	@ tmp167, TIMx
 995 014c 9A62     		str	r2, [r3, #40]	@ D.5954, TIMx_1(D)->CCR
 996              	.L58:
 300:core/lpc17xx_timer.c **** 	}
 301:core/lpc17xx_timer.c **** 
 302:core/lpc17xx_timer.c **** 	// Clear interrupt pending
 303:core/lpc17xx_timer.c **** 	TIMx->IR = 0xFFFFFFFF;
 997              		.loc 1 303 0
 998 014e FB68     		ldr	r3, [r7, #12]	@ tmp168, TIMx
 999 0150 4FF0FF32 		mov	r2, #-1	@ tmp169,
 1000 0154 1A60     		str	r2, [r3]	@ tmp169, TIMx_1(D)->IR
 304:core/lpc17xx_timer.c **** 
 305:core/lpc17xx_timer.c **** }
 1001              		.loc 1 305 0
 1002 0156 2037     		adds	r7, r7, #32	@,,
ARM GAS  C:\Users\COSMIN~1.MAR\AppData\Local\Temp\cccNbcra.s 			page 24


 1003              		.cfi_def_cfa_offset 8
 1004 0158 BD46     		mov	sp, r7	@,
 1005              		.cfi_def_cfa_register 13
 1006              		@ sp needed	@
 1007 015a 80BD     		pop	{r7, pc}	@
 1008              	.L60:
 1009              		.align	2
 1010              	.L59:
 1011 015c 00800040 		.word	1073774592
 1012 0160 00000940 		.word	1074331648
 1013 0164 00400940 		.word	1074348032
 1014 0168 00000000 		.word	.LC0
 1015              		.cfi_endproc
 1016              	.LFE63:
 1017              		.size	TIM_Init, .-TIM_Init
 1018              		.section	.text.TIM_DeInit,"ax",%progbits
 1019              		.align	2
 1020              		.global	TIM_DeInit
 1021              		.thumb
 1022              		.thumb_func
 1023              		.type	TIM_DeInit, %function
 1024              	TIM_DeInit:
 1025              	.LFB64:
 306:core/lpc17xx_timer.c **** 
 307:core/lpc17xx_timer.c **** /*********************************************************************//**
 308:core/lpc17xx_timer.c ****  * @brief 		Close Timer/Counter device
 309:core/lpc17xx_timer.c ****  * @param[in]	TIMx  Pointer to timer device
 310:core/lpc17xx_timer.c ****  * @return 		None
 311:core/lpc17xx_timer.c ****  **********************************************************************/
 312:core/lpc17xx_timer.c **** void TIM_DeInit (LPC_TIM_TypeDef *TIMx)
 313:core/lpc17xx_timer.c **** {
 1026              		.loc 1 313 0
 1027              		.cfi_startproc
 1028              		@ args = 0, pretend = 0, frame = 8
 1029              		@ frame_needed = 1, uses_anonymous_args = 0
 1030 0000 80B5     		push	{r7, lr}	@
 1031              		.cfi_def_cfa_offset 8
 1032              		.cfi_offset 7, -8
 1033              		.cfi_offset 14, -4
 1034 0002 82B0     		sub	sp, sp, #8	@,,
 1035              		.cfi_def_cfa_offset 16
 1036 0004 00AF     		add	r7, sp, #0	@,,
 1037              		.cfi_def_cfa_register 7
 1038 0006 7860     		str	r0, [r7, #4]	@ TIMx, TIMx
 314:core/lpc17xx_timer.c **** 	CHECK_PARAM(PARAM_TIMx(TIMx));
 1039              		.loc 1 314 0
 1040 0008 7B68     		ldr	r3, [r7, #4]	@ tmp110, TIMx
 1041 000a B3F1402F 		cmp	r3, #1073758208	@ tmp110,
 1042 000e 10D0     		beq	.L62	@,
 1043              		.loc 1 314 0 is_stmt 0 discriminator 1
 1044 0010 7B68     		ldr	r3, [r7, #4]	@ tmp111, TIMx
 1045 0012 1D4A     		ldr	r2, .L67	@ tmp112,
 1046 0014 9342     		cmp	r3, r2	@ tmp111, tmp112
 1047 0016 0CD0     		beq	.L62	@,
 1048              		.loc 1 314 0 discriminator 2
 1049 0018 7B68     		ldr	r3, [r7, #4]	@ tmp113, TIMx
 1050 001a 1C4A     		ldr	r2, .L67+4	@ tmp114,
ARM GAS  C:\Users\COSMIN~1.MAR\AppData\Local\Temp\cccNbcra.s 			page 25


 1051 001c 9342     		cmp	r3, r2	@ tmp113, tmp114
 1052 001e 08D0     		beq	.L62	@,
 1053              		.loc 1 314 0 discriminator 3
 1054 0020 7B68     		ldr	r3, [r7, #4]	@ tmp115, TIMx
 1055 0022 1B4A     		ldr	r2, .L67+8	@ tmp116,
 1056 0024 9342     		cmp	r3, r2	@ tmp115, tmp116
 1057 0026 04D0     		beq	.L62	@,
 1058              		.loc 1 314 0 discriminator 4
 1059 0028 1A48     		ldr	r0, .L67+12	@,
 1060 002a 4FF49D71 		mov	r1, #314	@,
 1061 002e FFF7FEFF 		bl	check_failed	@
 1062              	.L62:
 315:core/lpc17xx_timer.c **** 	// Disable timer/counter
 316:core/lpc17xx_timer.c **** 	TIMx->TCR = 0x00;
 1063              		.loc 1 316 0 is_stmt 1
 1064 0032 7B68     		ldr	r3, [r7, #4]	@ tmp117, TIMx
 1065 0034 0022     		movs	r2, #0	@ tmp118,
 1066 0036 5A60     		str	r2, [r3, #4]	@ tmp118, TIMx_1(D)->TCR
 317:core/lpc17xx_timer.c **** 
 318:core/lpc17xx_timer.c **** 	// Disable power
 319:core/lpc17xx_timer.c **** 	if (TIMx== LPC_TIM0)
 1067              		.loc 1 319 0
 1068 0038 7B68     		ldr	r3, [r7, #4]	@ tmp119, TIMx
 1069 003a B3F1402F 		cmp	r3, #1073758208	@ tmp119,
 1070 003e 04D1     		bne	.L63	@,
 320:core/lpc17xx_timer.c **** 		CLKPWR_ConfigPPWR (CLKPWR_PCONP_PCTIM0, DISABLE);
 1071              		.loc 1 320 0
 1072 0040 0220     		movs	r0, #2	@,
 1073 0042 0021     		movs	r1, #0	@,
 1074 0044 FFF7FEFF 		bl	CLKPWR_ConfigPPWR	@
 1075 0048 1BE0     		b	.L61	@
 1076              	.L63:
 321:core/lpc17xx_timer.c **** 
 322:core/lpc17xx_timer.c **** 	else if (TIMx== LPC_TIM1)
 1077              		.loc 1 322 0
 1078 004a 7B68     		ldr	r3, [r7, #4]	@ tmp120, TIMx
 1079 004c 0E4A     		ldr	r2, .L67	@ tmp121,
 1080 004e 9342     		cmp	r3, r2	@ tmp120, tmp121
 1081 0050 04D1     		bne	.L65	@,
 323:core/lpc17xx_timer.c **** 		CLKPWR_ConfigPPWR (CLKPWR_PCONP_PCTIM1, DISABLE);
 1082              		.loc 1 323 0
 1083 0052 0420     		movs	r0, #4	@,
 1084 0054 0021     		movs	r1, #0	@,
 1085 0056 FFF7FEFF 		bl	CLKPWR_ConfigPPWR	@
 1086 005a 12E0     		b	.L61	@
 1087              	.L65:
 324:core/lpc17xx_timer.c **** 
 325:core/lpc17xx_timer.c **** 	else if (TIMx== LPC_TIM2)
 1088              		.loc 1 325 0
 1089 005c 7B68     		ldr	r3, [r7, #4]	@ tmp122, TIMx
 1090 005e 0B4A     		ldr	r2, .L67+4	@ tmp123,
 1091 0060 9342     		cmp	r3, r2	@ tmp122, tmp123
 1092 0062 05D1     		bne	.L66	@,
 326:core/lpc17xx_timer.c **** 		CLKPWR_ConfigPPWR (CLKPWR_PCONP_PCTIM2, DISABLE);
 1093              		.loc 1 326 0
 1094 0064 4FF48000 		mov	r0, #4194304	@,
 1095 0068 0021     		movs	r1, #0	@,
ARM GAS  C:\Users\COSMIN~1.MAR\AppData\Local\Temp\cccNbcra.s 			page 26


 1096 006a FFF7FEFF 		bl	CLKPWR_ConfigPPWR	@
 1097 006e 08E0     		b	.L61	@
 1098              	.L66:
 327:core/lpc17xx_timer.c **** 
 328:core/lpc17xx_timer.c **** 	else if (TIMx== LPC_TIM3)
 1099              		.loc 1 328 0
 1100 0070 7B68     		ldr	r3, [r7, #4]	@ tmp124, TIMx
 1101 0072 074A     		ldr	r2, .L67+8	@ tmp125,
 1102 0074 9342     		cmp	r3, r2	@ tmp124, tmp125
 1103 0076 04D1     		bne	.L61	@,
 329:core/lpc17xx_timer.c **** 		CLKPWR_ConfigPPWR (CLKPWR_PCONP_PCTIM2, DISABLE);
 1104              		.loc 1 329 0
 1105 0078 4FF48000 		mov	r0, #4194304	@,
 1106 007c 0021     		movs	r1, #0	@,
 1107 007e FFF7FEFF 		bl	CLKPWR_ConfigPPWR	@
 1108              	.L61:
 330:core/lpc17xx_timer.c **** 
 331:core/lpc17xx_timer.c **** }
 1109              		.loc 1 331 0
 1110 0082 0837     		adds	r7, r7, #8	@,,
 1111              		.cfi_def_cfa_offset 8
 1112 0084 BD46     		mov	sp, r7	@,
 1113              		.cfi_def_cfa_register 13
 1114              		@ sp needed	@
 1115 0086 80BD     		pop	{r7, pc}	@
 1116              	.L68:
 1117              		.align	2
 1118              	.L67:
 1119 0088 00800040 		.word	1073774592
 1120 008c 00000940 		.word	1074331648
 1121 0090 00400940 		.word	1074348032
 1122 0094 00000000 		.word	.LC0
 1123              		.cfi_endproc
 1124              	.LFE64:
 1125              		.size	TIM_DeInit, .-TIM_DeInit
 1126              		.section	.text.TIM_Cmd,"ax",%progbits
 1127              		.align	2
 1128              		.global	TIM_Cmd
 1129              		.thumb
 1130              		.thumb_func
 1131              		.type	TIM_Cmd, %function
 1132              	TIM_Cmd:
 1133              	.LFB65:
 332:core/lpc17xx_timer.c **** 
 333:core/lpc17xx_timer.c **** /*********************************************************************//**
 334:core/lpc17xx_timer.c ****  * @brief	 	Start/Stop Timer/Counter device
 335:core/lpc17xx_timer.c ****  * @param[in]	TIMx Pointer to timer device
 336:core/lpc17xx_timer.c ****  * @param[in]	NewState
 337:core/lpc17xx_timer.c ****  * 				-	ENABLE  : set timer enable
 338:core/lpc17xx_timer.c ****  * 				-	DISABLE : disable timer
 339:core/lpc17xx_timer.c ****  * @return 		None
 340:core/lpc17xx_timer.c ****  **********************************************************************/
 341:core/lpc17xx_timer.c **** void TIM_Cmd(LPC_TIM_TypeDef *TIMx, FunctionalState NewState)
 342:core/lpc17xx_timer.c **** {
 1134              		.loc 1 342 0
 1135              		.cfi_startproc
 1136              		@ args = 0, pretend = 0, frame = 8
ARM GAS  C:\Users\COSMIN~1.MAR\AppData\Local\Temp\cccNbcra.s 			page 27


 1137              		@ frame_needed = 1, uses_anonymous_args = 0
 1138 0000 80B5     		push	{r7, lr}	@
 1139              		.cfi_def_cfa_offset 8
 1140              		.cfi_offset 7, -8
 1141              		.cfi_offset 14, -4
 1142 0002 82B0     		sub	sp, sp, #8	@,,
 1143              		.cfi_def_cfa_offset 16
 1144 0004 00AF     		add	r7, sp, #0	@,,
 1145              		.cfi_def_cfa_register 7
 1146 0006 7860     		str	r0, [r7, #4]	@ TIMx, TIMx
 1147 0008 0B46     		mov	r3, r1	@ tmp114, NewState
 1148 000a FB70     		strb	r3, [r7, #3]	@ tmp115, NewState
 343:core/lpc17xx_timer.c **** 	CHECK_PARAM(PARAM_TIMx(TIMx));
 1149              		.loc 1 343 0
 1150 000c 7B68     		ldr	r3, [r7, #4]	@ tmp116, TIMx
 1151 000e B3F1402F 		cmp	r3, #1073758208	@ tmp116,
 1152 0012 10D0     		beq	.L70	@,
 1153              		.loc 1 343 0 is_stmt 0 discriminator 1
 1154 0014 7B68     		ldr	r3, [r7, #4]	@ tmp117, TIMx
 1155 0016 114A     		ldr	r2, .L73	@ tmp118,
 1156 0018 9342     		cmp	r3, r2	@ tmp117, tmp118
 1157 001a 0CD0     		beq	.L70	@,
 1158              		.loc 1 343 0 discriminator 2
 1159 001c 7B68     		ldr	r3, [r7, #4]	@ tmp119, TIMx
 1160 001e 104A     		ldr	r2, .L73+4	@ tmp120,
 1161 0020 9342     		cmp	r3, r2	@ tmp119, tmp120
 1162 0022 08D0     		beq	.L70	@,
 1163              		.loc 1 343 0 discriminator 3
 1164 0024 7B68     		ldr	r3, [r7, #4]	@ tmp121, TIMx
 1165 0026 0F4A     		ldr	r2, .L73+8	@ tmp122,
 1166 0028 9342     		cmp	r3, r2	@ tmp121, tmp122
 1167 002a 04D0     		beq	.L70	@,
 1168              		.loc 1 343 0 discriminator 4
 1169 002c 0E48     		ldr	r0, .L73+12	@,
 1170 002e 40F25711 		movw	r1, #343	@,
 1171 0032 FFF7FEFF 		bl	check_failed	@
 1172              	.L70:
 344:core/lpc17xx_timer.c **** 	if (NewState == ENABLE)
 1173              		.loc 1 344 0 is_stmt 1
 1174 0036 FB78     		ldrb	r3, [r7, #3]	@ zero_extendqisi2	@ tmp123, NewState
 1175 0038 012B     		cmp	r3, #1	@ tmp123,
 1176 003a 06D1     		bne	.L71	@,
 345:core/lpc17xx_timer.c **** 	{
 346:core/lpc17xx_timer.c **** 		TIMx->TCR	|=  TIM_ENABLE;
 1177              		.loc 1 346 0
 1178 003c 7B68     		ldr	r3, [r7, #4]	@ tmp124, TIMx
 1179 003e 5B68     		ldr	r3, [r3, #4]	@ D.5956, TIMx_1(D)->TCR
 1180 0040 43F00102 		orr	r2, r3, #1	@ D.5956, D.5956,
 1181 0044 7B68     		ldr	r3, [r7, #4]	@ tmp125, TIMx
 1182 0046 5A60     		str	r2, [r3, #4]	@ D.5956, TIMx_1(D)->TCR
 1183 0048 05E0     		b	.L69	@
 1184              	.L71:
 347:core/lpc17xx_timer.c **** 	}
 348:core/lpc17xx_timer.c **** 	else
 349:core/lpc17xx_timer.c **** 	{
 350:core/lpc17xx_timer.c **** 		TIMx->TCR &= ~TIM_ENABLE;
 1185              		.loc 1 350 0
ARM GAS  C:\Users\COSMIN~1.MAR\AppData\Local\Temp\cccNbcra.s 			page 28


 1186 004a 7B68     		ldr	r3, [r7, #4]	@ tmp126, TIMx
 1187 004c 5B68     		ldr	r3, [r3, #4]	@ D.5956, TIMx_1(D)->TCR
 1188 004e 23F00102 		bic	r2, r3, #1	@ D.5956, D.5956,
 1189 0052 7B68     		ldr	r3, [r7, #4]	@ tmp127, TIMx
 1190 0054 5A60     		str	r2, [r3, #4]	@ D.5956, TIMx_1(D)->TCR
 1191              	.L69:
 351:core/lpc17xx_timer.c **** 	}
 352:core/lpc17xx_timer.c **** }
 1192              		.loc 1 352 0
 1193 0056 0837     		adds	r7, r7, #8	@,,
 1194              		.cfi_def_cfa_offset 8
 1195 0058 BD46     		mov	sp, r7	@,
 1196              		.cfi_def_cfa_register 13
 1197              		@ sp needed	@
 1198 005a 80BD     		pop	{r7, pc}	@
 1199              	.L74:
 1200              		.align	2
 1201              	.L73:
 1202 005c 00800040 		.word	1073774592
 1203 0060 00000940 		.word	1074331648
 1204 0064 00400940 		.word	1074348032
 1205 0068 00000000 		.word	.LC0
 1206              		.cfi_endproc
 1207              	.LFE65:
 1208              		.size	TIM_Cmd, .-TIM_Cmd
 1209              		.section	.text.TIM_ResetCounter,"ax",%progbits
 1210              		.align	2
 1211              		.global	TIM_ResetCounter
 1212              		.thumb
 1213              		.thumb_func
 1214              		.type	TIM_ResetCounter, %function
 1215              	TIM_ResetCounter:
 1216              	.LFB66:
 353:core/lpc17xx_timer.c **** 
 354:core/lpc17xx_timer.c **** /*********************************************************************//**
 355:core/lpc17xx_timer.c ****  * @brief 		Reset Timer/Counter device,
 356:core/lpc17xx_timer.c ****  * 					Make TC and PC are synchronously reset on the next
 357:core/lpc17xx_timer.c ****  * 					positive edge of PCLK
 358:core/lpc17xx_timer.c ****  * @param[in]	TIMx Pointer to timer device
 359:core/lpc17xx_timer.c ****  * @return 		None
 360:core/lpc17xx_timer.c ****  **********************************************************************/
 361:core/lpc17xx_timer.c **** void TIM_ResetCounter(LPC_TIM_TypeDef *TIMx)
 362:core/lpc17xx_timer.c **** {
 1217              		.loc 1 362 0
 1218              		.cfi_startproc
 1219              		@ args = 0, pretend = 0, frame = 8
 1220              		@ frame_needed = 1, uses_anonymous_args = 0
 1221 0000 80B5     		push	{r7, lr}	@
 1222              		.cfi_def_cfa_offset 8
 1223              		.cfi_offset 7, -8
 1224              		.cfi_offset 14, -4
 1225 0002 82B0     		sub	sp, sp, #8	@,,
 1226              		.cfi_def_cfa_offset 16
 1227 0004 00AF     		add	r7, sp, #0	@,,
 1228              		.cfi_def_cfa_register 7
 1229 0006 7860     		str	r0, [r7, #4]	@ TIMx, TIMx
 363:core/lpc17xx_timer.c **** 	CHECK_PARAM(PARAM_TIMx(TIMx));
ARM GAS  C:\Users\COSMIN~1.MAR\AppData\Local\Temp\cccNbcra.s 			page 29


 1230              		.loc 1 363 0
 1231 0008 7B68     		ldr	r3, [r7, #4]	@ tmp114, TIMx
 1232 000a B3F1402F 		cmp	r3, #1073758208	@ tmp114,
 1233 000e 10D0     		beq	.L76	@,
 1234              		.loc 1 363 0 is_stmt 0 discriminator 1
 1235 0010 7B68     		ldr	r3, [r7, #4]	@ tmp115, TIMx
 1236 0012 0F4A     		ldr	r2, .L77	@ tmp116,
 1237 0014 9342     		cmp	r3, r2	@ tmp115, tmp116
 1238 0016 0CD0     		beq	.L76	@,
 1239              		.loc 1 363 0 discriminator 2
 1240 0018 7B68     		ldr	r3, [r7, #4]	@ tmp117, TIMx
 1241 001a 0E4A     		ldr	r2, .L77+4	@ tmp118,
 1242 001c 9342     		cmp	r3, r2	@ tmp117, tmp118
 1243 001e 08D0     		beq	.L76	@,
 1244              		.loc 1 363 0 discriminator 3
 1245 0020 7B68     		ldr	r3, [r7, #4]	@ tmp119, TIMx
 1246 0022 0D4A     		ldr	r2, .L77+8	@ tmp120,
 1247 0024 9342     		cmp	r3, r2	@ tmp119, tmp120
 1248 0026 04D0     		beq	.L76	@,
 1249              		.loc 1 363 0 discriminator 4
 1250 0028 0C48     		ldr	r0, .L77+12	@,
 1251 002a 40F26B11 		movw	r1, #363	@,
 1252 002e FFF7FEFF 		bl	check_failed	@
 1253              	.L76:
 364:core/lpc17xx_timer.c **** 	TIMx->TCR |= TIM_RESET;
 1254              		.loc 1 364 0 is_stmt 1
 1255 0032 7B68     		ldr	r3, [r7, #4]	@ tmp121, TIMx
 1256 0034 5B68     		ldr	r3, [r3, #4]	@ D.5957, TIMx_1(D)->TCR
 1257 0036 43F00202 		orr	r2, r3, #2	@ D.5957, D.5957,
 1258 003a 7B68     		ldr	r3, [r7, #4]	@ tmp122, TIMx
 1259 003c 5A60     		str	r2, [r3, #4]	@ D.5957, TIMx_1(D)->TCR
 365:core/lpc17xx_timer.c **** 	TIMx->TCR &= ~TIM_RESET;
 1260              		.loc 1 365 0
 1261 003e 7B68     		ldr	r3, [r7, #4]	@ tmp123, TIMx
 1262 0040 5B68     		ldr	r3, [r3, #4]	@ D.5957, TIMx_1(D)->TCR
 1263 0042 23F00202 		bic	r2, r3, #2	@ D.5957, D.5957,
 1264 0046 7B68     		ldr	r3, [r7, #4]	@ tmp124, TIMx
 1265 0048 5A60     		str	r2, [r3, #4]	@ D.5957, TIMx_1(D)->TCR
 366:core/lpc17xx_timer.c **** }
 1266              		.loc 1 366 0
 1267 004a 0837     		adds	r7, r7, #8	@,,
 1268              		.cfi_def_cfa_offset 8
 1269 004c BD46     		mov	sp, r7	@,
 1270              		.cfi_def_cfa_register 13
 1271              		@ sp needed	@
 1272 004e 80BD     		pop	{r7, pc}	@
 1273              	.L78:
 1274              		.align	2
 1275              	.L77:
 1276 0050 00800040 		.word	1073774592
 1277 0054 00000940 		.word	1074331648
 1278 0058 00400940 		.word	1074348032
 1279 005c 00000000 		.word	.LC0
 1280              		.cfi_endproc
 1281              	.LFE66:
 1282              		.size	TIM_ResetCounter, .-TIM_ResetCounter
 1283              		.section	.text.TIM_ConfigMatch,"ax",%progbits
ARM GAS  C:\Users\COSMIN~1.MAR\AppData\Local\Temp\cccNbcra.s 			page 30


 1284              		.align	2
 1285              		.global	TIM_ConfigMatch
 1286              		.thumb
 1287              		.thumb_func
 1288              		.type	TIM_ConfigMatch, %function
 1289              	TIM_ConfigMatch:
 1290              	.LFB67:
 367:core/lpc17xx_timer.c **** 
 368:core/lpc17xx_timer.c **** /*********************************************************************//**
 369:core/lpc17xx_timer.c ****  * @brief 		Configuration for Match register
 370:core/lpc17xx_timer.c ****  * @param[in]	TIMx Pointer to timer device
 371:core/lpc17xx_timer.c ****  * @param[in]   TIM_MatchConfigStruct Pointer to TIM_MATCHCFG_Type
 372:core/lpc17xx_timer.c ****  * 					- MatchChannel : choose channel 0 or 1
 373:core/lpc17xx_timer.c ****  * 					- IntOnMatch	 : if SET, interrupt will be generated when MRxx match
 374:core/lpc17xx_timer.c ****  * 									the value in TC
 375:core/lpc17xx_timer.c ****  * 					- StopOnMatch	 : if SET, TC and PC will be stopped whenM Rxx match
 376:core/lpc17xx_timer.c ****  * 									the value in TC
 377:core/lpc17xx_timer.c ****  * 					- ResetOnMatch : if SET, Reset on MR0 when MRxx match
 378:core/lpc17xx_timer.c ****  * 									the value in TC
 379:core/lpc17xx_timer.c ****  * 					-ExtMatchOutputType: Select output for external match
 380:core/lpc17xx_timer.c ****  * 						 +	 0:	Do nothing for external output pin if match
 381:core/lpc17xx_timer.c ****  *						 +   1:	Force external output pin to low if match
 382:core/lpc17xx_timer.c ****  *						 + 	 2: Force external output pin to high if match
 383:core/lpc17xx_timer.c ****  *						 + 	 3: Toggle external output pin if match
 384:core/lpc17xx_timer.c ****  *					MatchValue: Set the value to be compared with TC value
 385:core/lpc17xx_timer.c ****  * @return 		None
 386:core/lpc17xx_timer.c ****  **********************************************************************/
 387:core/lpc17xx_timer.c **** void TIM_ConfigMatch(LPC_TIM_TypeDef *TIMx, TIM_MATCHCFG_Type *TIM_MatchConfigStruct)
 388:core/lpc17xx_timer.c **** {
 1291              		.loc 1 388 0
 1292              		.cfi_startproc
 1293              		@ args = 0, pretend = 0, frame = 16
 1294              		@ frame_needed = 1, uses_anonymous_args = 0
 1295 0000 80B5     		push	{r7, lr}	@
 1296              		.cfi_def_cfa_offset 8
 1297              		.cfi_offset 7, -8
 1298              		.cfi_offset 14, -4
 1299 0002 84B0     		sub	sp, sp, #16	@,,
 1300              		.cfi_def_cfa_offset 24
 1301 0004 00AF     		add	r7, sp, #0	@,,
 1302              		.cfi_def_cfa_register 7
 1303 0006 7860     		str	r0, [r7, #4]	@ TIMx, TIMx
 1304 0008 3960     		str	r1, [r7]	@ TIM_MatchConfigStruct, TIM_MatchConfigStruct
 389:core/lpc17xx_timer.c **** 	uint32_t timer;
 390:core/lpc17xx_timer.c **** 
 391:core/lpc17xx_timer.c **** 	CHECK_PARAM(PARAM_TIMx(TIMx));
 1305              		.loc 1 391 0
 1306 000a 7B68     		ldr	r3, [r7, #4]	@ tmp169, TIMx
 1307 000c B3F1402F 		cmp	r3, #1073758208	@ tmp169,
 1308 0010 10D0     		beq	.L80	@,
 1309              		.loc 1 391 0 is_stmt 0 discriminator 1
 1310 0012 7B68     		ldr	r3, [r7, #4]	@ tmp170, TIMx
 1311 0014 4C4A     		ldr	r2, .L88	@ tmp171,
 1312 0016 9342     		cmp	r3, r2	@ tmp170, tmp171
 1313 0018 0CD0     		beq	.L80	@,
 1314              		.loc 1 391 0 discriminator 2
 1315 001a 7B68     		ldr	r3, [r7, #4]	@ tmp172, TIMx
ARM GAS  C:\Users\COSMIN~1.MAR\AppData\Local\Temp\cccNbcra.s 			page 31


 1316 001c 4B4A     		ldr	r2, .L88+4	@ tmp173,
 1317 001e 9342     		cmp	r3, r2	@ tmp172, tmp173
 1318 0020 08D0     		beq	.L80	@,
 1319              		.loc 1 391 0 discriminator 3
 1320 0022 7B68     		ldr	r3, [r7, #4]	@ tmp174, TIMx
 1321 0024 4A4A     		ldr	r2, .L88+8	@ tmp175,
 1322 0026 9342     		cmp	r3, r2	@ tmp174, tmp175
 1323 0028 04D0     		beq	.L80	@,
 1324              		.loc 1 391 0 discriminator 4
 1325 002a 4A48     		ldr	r0, .L88+12	@,
 1326 002c 40F28711 		movw	r1, #391	@,
 1327 0030 FFF7FEFF 		bl	check_failed	@
 1328              	.L80:
 392:core/lpc17xx_timer.c **** 	CHECK_PARAM(PARAM_TIM_EXTMATCH_OPT(TIM_MatchConfigStruct->ExtMatchOutputType));
 1329              		.loc 1 392 0 is_stmt 1
 1330 0034 3B68     		ldr	r3, [r7]	@ tmp176, TIM_MatchConfigStruct
 1331 0036 1B79     		ldrb	r3, [r3, #4]	@ zero_extendqisi2	@ D.5958, TIM_MatchConfigStruct_2(D)->ExtMatchOutputType
 1332 0038 002B     		cmp	r3, #0	@ D.5958,
 1333 003a 10D0     		beq	.L81	@,
 1334              		.loc 1 392 0 is_stmt 0 discriminator 1
 1335 003c 3B68     		ldr	r3, [r7]	@ tmp177, TIM_MatchConfigStruct
 1336 003e 1B79     		ldrb	r3, [r3, #4]	@ zero_extendqisi2	@ D.5958, TIM_MatchConfigStruct_2(D)->ExtMatchOutputType
 1337 0040 012B     		cmp	r3, #1	@ D.5958,
 1338 0042 0CD0     		beq	.L81	@,
 1339              		.loc 1 392 0 discriminator 2
 1340 0044 3B68     		ldr	r3, [r7]	@ tmp178, TIM_MatchConfigStruct
 1341 0046 1B79     		ldrb	r3, [r3, #4]	@ zero_extendqisi2	@ D.5958, TIM_MatchConfigStruct_2(D)->ExtMatchOutputType
 1342 0048 022B     		cmp	r3, #2	@ D.5958,
 1343 004a 08D0     		beq	.L81	@,
 1344              		.loc 1 392 0 discriminator 3
 1345 004c 3B68     		ldr	r3, [r7]	@ tmp179, TIM_MatchConfigStruct
 1346 004e 1B79     		ldrb	r3, [r3, #4]	@ zero_extendqisi2	@ D.5958, TIM_MatchConfigStruct_2(D)->ExtMatchOutputType
 1347 0050 032B     		cmp	r3, #3	@ D.5958,
 1348 0052 04D0     		beq	.L81	@,
 1349              		.loc 1 392 0 discriminator 4
 1350 0054 3F48     		ldr	r0, .L88+12	@,
 1351 0056 4FF4C471 		mov	r1, #392	@,
 1352 005a FFF7FEFF 		bl	check_failed	@
 1353              	.L81:
 393:core/lpc17xx_timer.c **** 
 394:core/lpc17xx_timer.c **** 	timer = TIM_ConverPtrToTimeNum(TIMx) ;
 1354              		.loc 1 394 0 is_stmt 1
 1355 005e 7868     		ldr	r0, [r7, #4]	@, TIMx
 1356 0060 FFF7FEFF 		bl	TIM_ConverPtrToTimeNum	@
 1357 0064 F860     		str	r0, [r7, #12]	@, timer
 395:core/lpc17xx_timer.c **** 	switch(TIM_MatchConfigStruct->MatchChannel)
 1358              		.loc 1 395 0
 1359 0066 3B68     		ldr	r3, [r7]	@ tmp180, TIM_MatchConfigStruct
 1360 0068 1B78     		ldrb	r3, [r3]	@ zero_extendqisi2	@ D.5958, TIM_MatchConfigStruct_2(D)->MatchChannel
 1361 006a 002B     		cmp	r3, #0	@ D.5959,
 1362 006c 02D0     		beq	.L83	@,
 1363 006e 012B     		cmp	r3, #1	@ D.5959,
 1364 0070 05D0     		beq	.L84	@,
 1365 0072 09E0     		b	.L82	@
 1366              	.L83:
 396:core/lpc17xx_timer.c **** 	{
 397:core/lpc17xx_timer.c **** 	case 0:
ARM GAS  C:\Users\COSMIN~1.MAR\AppData\Local\Temp\cccNbcra.s 			page 32


 398:core/lpc17xx_timer.c **** 		TIMx->MR0 = TIM_MatchConfigStruct->MatchValue;
 1367              		.loc 1 398 0
 1368 0074 3B68     		ldr	r3, [r7]	@ tmp181, TIM_MatchConfigStruct
 1369 0076 9A68     		ldr	r2, [r3, #8]	@ D.5960, TIM_MatchConfigStruct_2(D)->MatchValue
 1370 0078 7B68     		ldr	r3, [r7, #4]	@ tmp182, TIMx
 1371 007a 9A61     		str	r2, [r3, #24]	@ D.5960, TIMx_1(D)->MR0
 399:core/lpc17xx_timer.c **** 		break;
 1372              		.loc 1 399 0
 1373 007c 04E0     		b	.L82	@
 1374              	.L84:
 400:core/lpc17xx_timer.c **** 	case 1:
 401:core/lpc17xx_timer.c **** 		TIMx->MR1 = TIM_MatchConfigStruct->MatchValue;
 1375              		.loc 1 401 0
 1376 007e 3B68     		ldr	r3, [r7]	@ tmp183, TIM_MatchConfigStruct
 1377 0080 9A68     		ldr	r2, [r3, #8]	@ D.5960, TIM_MatchConfigStruct_2(D)->MatchValue
 1378 0082 7B68     		ldr	r3, [r7, #4]	@ tmp184, TIMx
 1379 0084 DA61     		str	r2, [r3, #28]	@ D.5960, TIMx_1(D)->MR1
 402:core/lpc17xx_timer.c **** 		break;
 1380              		.loc 1 402 0
 1381 0086 00BF     		nop
 1382              	.L82:
 403:core/lpc17xx_timer.c **** 	}
 404:core/lpc17xx_timer.c **** 	//interrupt on MRn
 405:core/lpc17xx_timer.c **** 	TIMx->MCR &=~TIM_MCR_CHANNEL_MASKBIT(TIM_MatchConfigStruct->MatchChannel);
 1383              		.loc 1 405 0
 1384 0088 7B68     		ldr	r3, [r7, #4]	@ tmp185, TIMx
 1385 008a 5A69     		ldr	r2, [r3, #20]	@ D.5960, TIMx_1(D)->MCR
 1386 008c 3B68     		ldr	r3, [r7]	@ tmp186, TIM_MatchConfigStruct
 1387 008e 1B78     		ldrb	r3, [r3]	@ zero_extendqisi2	@ D.5958, TIM_MatchConfigStruct_2(D)->MatchChannel
 1388 0090 1946     		mov	r1, r3	@ D.5959, D.5958
 1389 0092 0723     		movs	r3, #7	@ tmp187,
 1390 0094 8B40     		lsls	r3, r3, r1	@ D.5959, tmp187, D.5959
 1391 0096 DB43     		mvns	r3, r3	@ D.5960, D.5960
 1392 0098 1A40     		ands	r2, r2, r3	@, D.5960, D.5960, D.5960
 1393 009a 7B68     		ldr	r3, [r7, #4]	@ tmp188, TIMx
 1394 009c 5A61     		str	r2, [r3, #20]	@ D.5960, TIMx_1(D)->MCR
 406:core/lpc17xx_timer.c **** 
 407:core/lpc17xx_timer.c **** 	if (TIM_MatchConfigStruct->IntOnMatch)
 1395              		.loc 1 407 0
 1396 009e 3B68     		ldr	r3, [r7]	@ tmp189, TIM_MatchConfigStruct
 1397 00a0 5B78     		ldrb	r3, [r3, #1]	@ zero_extendqisi2	@ D.5958, TIM_MatchConfigStruct_2(D)->IntOnMatch
 1398 00a2 002B     		cmp	r3, #0	@ D.5958,
 1399 00a4 0DD0     		beq	.L85	@,
 408:core/lpc17xx_timer.c **** 		TIMx->MCR |= TIM_INT_ON_MATCH(TIM_MatchConfigStruct->MatchChannel);
 1400              		.loc 1 408 0
 1401 00a6 7B68     		ldr	r3, [r7, #4]	@ tmp190, TIMx
 1402 00a8 5A69     		ldr	r2, [r3, #20]	@ D.5960, TIMx_1(D)->MCR
 1403 00aa 3B68     		ldr	r3, [r7]	@ tmp191, TIM_MatchConfigStruct
 1404 00ac 1B78     		ldrb	r3, [r3]	@ zero_extendqisi2	@ D.5958, TIM_MatchConfigStruct_2(D)->MatchChannel
 1405 00ae 1946     		mov	r1, r3	@ D.5959, D.5958
 1406 00b0 0B46     		mov	r3, r1	@ tmp192, D.5959
 1407 00b2 5B00     		lsls	r3, r3, #1	@ tmp192, tmp192,
 1408 00b4 0B44     		add	r3, r3, r1	@ D.5959, D.5959
 1409 00b6 0121     		movs	r1, #1	@ tmp193,
 1410 00b8 01FA03F3 		lsl	r3, r1, r3	@ D.5959, tmp193, D.5959
 1411 00bc 1A43     		orrs	r2, r2, r3	@, D.5960, D.5960, D.5960
 1412 00be 7B68     		ldr	r3, [r7, #4]	@ tmp194, TIMx
ARM GAS  C:\Users\COSMIN~1.MAR\AppData\Local\Temp\cccNbcra.s 			page 33


 1413 00c0 5A61     		str	r2, [r3, #20]	@ D.5960, TIMx_1(D)->MCR
 1414              	.L85:
 409:core/lpc17xx_timer.c **** 
 410:core/lpc17xx_timer.c **** 	//reset on MRn
 411:core/lpc17xx_timer.c **** 	if (TIM_MatchConfigStruct->ResetOnMatch)
 1415              		.loc 1 411 0
 1416 00c2 3B68     		ldr	r3, [r7]	@ tmp195, TIM_MatchConfigStruct
 1417 00c4 DB78     		ldrb	r3, [r3, #3]	@ zero_extendqisi2	@ D.5958, TIM_MatchConfigStruct_2(D)->ResetOnMatch
 1418 00c6 002B     		cmp	r3, #0	@ D.5958,
 1419 00c8 0ED0     		beq	.L86	@,
 412:core/lpc17xx_timer.c **** 		TIMx->MCR |= TIM_RESET_ON_MATCH(TIM_MatchConfigStruct->MatchChannel);
 1420              		.loc 1 412 0
 1421 00ca 7B68     		ldr	r3, [r7, #4]	@ tmp196, TIMx
 1422 00cc 5A69     		ldr	r2, [r3, #20]	@ D.5960, TIMx_1(D)->MCR
 1423 00ce 3B68     		ldr	r3, [r7]	@ tmp197, TIM_MatchConfigStruct
 1424 00d0 1B78     		ldrb	r3, [r3]	@ zero_extendqisi2	@ D.5958, TIM_MatchConfigStruct_2(D)->MatchChannel
 1425 00d2 1946     		mov	r1, r3	@ D.5959, D.5958
 1426 00d4 0B46     		mov	r3, r1	@ tmp198, D.5959
 1427 00d6 5B00     		lsls	r3, r3, #1	@ tmp198, tmp198,
 1428 00d8 0B44     		add	r3, r3, r1	@ D.5959, D.5959
 1429 00da 0133     		adds	r3, r3, #1	@ D.5959, D.5959,
 1430 00dc 0121     		movs	r1, #1	@ tmp199,
 1431 00de 01FA03F3 		lsl	r3, r1, r3	@ D.5959, tmp199, D.5959
 1432 00e2 1A43     		orrs	r2, r2, r3	@, D.5960, D.5960, D.5960
 1433 00e4 7B68     		ldr	r3, [r7, #4]	@ tmp200, TIMx
 1434 00e6 5A61     		str	r2, [r3, #20]	@ D.5960, TIMx_1(D)->MCR
 1435              	.L86:
 413:core/lpc17xx_timer.c **** 
 414:core/lpc17xx_timer.c **** 	//stop on MRn
 415:core/lpc17xx_timer.c **** 	if (TIM_MatchConfigStruct->StopOnMatch)
 1436              		.loc 1 415 0
 1437 00e8 3B68     		ldr	r3, [r7]	@ tmp201, TIM_MatchConfigStruct
 1438 00ea 9B78     		ldrb	r3, [r3, #2]	@ zero_extendqisi2	@ D.5958, TIM_MatchConfigStruct_2(D)->StopOnMatch
 1439 00ec 002B     		cmp	r3, #0	@ D.5958,
 1440 00ee 0ED0     		beq	.L87	@,
 416:core/lpc17xx_timer.c **** 		TIMx->MCR |= TIM_STOP_ON_MATCH(TIM_MatchConfigStruct->MatchChannel);
 1441              		.loc 1 416 0
 1442 00f0 7B68     		ldr	r3, [r7, #4]	@ tmp202, TIMx
 1443 00f2 5A69     		ldr	r2, [r3, #20]	@ D.5960, TIMx_1(D)->MCR
 1444 00f4 3B68     		ldr	r3, [r7]	@ tmp203, TIM_MatchConfigStruct
 1445 00f6 1B78     		ldrb	r3, [r3]	@ zero_extendqisi2	@ D.5958, TIM_MatchConfigStruct_2(D)->MatchChannel
 1446 00f8 1946     		mov	r1, r3	@ D.5959, D.5958
 1447 00fa 0B46     		mov	r3, r1	@ tmp204, D.5959
 1448 00fc 5B00     		lsls	r3, r3, #1	@ tmp204, tmp204,
 1449 00fe 0B44     		add	r3, r3, r1	@ D.5959, D.5959
 1450 0100 0233     		adds	r3, r3, #2	@ D.5959, D.5959,
 1451 0102 0121     		movs	r1, #1	@ tmp205,
 1452 0104 01FA03F3 		lsl	r3, r1, r3	@ D.5959, tmp205, D.5959
 1453 0108 1A43     		orrs	r2, r2, r3	@, D.5960, D.5960, D.5960
 1454 010a 7B68     		ldr	r3, [r7, #4]	@ tmp206, TIMx
 1455 010c 5A61     		str	r2, [r3, #20]	@ D.5960, TIMx_1(D)->MCR
 1456              	.L87:
 417:core/lpc17xx_timer.c **** //	TIMx->MCR = 0x02;
 418:core/lpc17xx_timer.c **** 
 419:core/lpc17xx_timer.c **** 	// match output type
 420:core/lpc17xx_timer.c **** 
 421:core/lpc17xx_timer.c **** 	TIMx->EMR 	&= ~TIM_EM_MASK(TIM_MatchConfigStruct->MatchChannel);
ARM GAS  C:\Users\COSMIN~1.MAR\AppData\Local\Temp\cccNbcra.s 			page 34


 1457              		.loc 1 421 0
 1458 010e 7B68     		ldr	r3, [r7, #4]	@ tmp207, TIMx
 1459 0110 DB6B     		ldr	r3, [r3, #60]	@ D.5960, TIMx_1(D)->EMR
 1460 0112 3A68     		ldr	r2, [r7]	@ tmp208, TIM_MatchConfigStruct
 1461 0114 1278     		ldrb	r2, [r2]	@ zero_extendqisi2	@ D.5958, TIM_MatchConfigStruct_2(D)->MatchChannel
 1462 0116 5200     		lsls	r2, r2, #1	@ D.5959, D.5959,
 1463 0118 0432     		adds	r2, r2, #4	@ D.5959, D.5959,
 1464 011a 0321     		movs	r1, #3	@ tmp209,
 1465 011c 01FA02F2 		lsl	r2, r1, r2	@ D.5959, tmp209, D.5959
 1466 0120 D243     		mvns	r2, r2	@ D.5959, D.5959
 1467 0122 1A40     		ands	r2, r2, r3	@, D.5960, D.5960, D.5960
 1468 0124 7B68     		ldr	r3, [r7, #4]	@ tmp210, TIMx
 1469 0126 DA63     		str	r2, [r3, #60]	@ D.5960, TIMx_1(D)->EMR
 422:core/lpc17xx_timer.c **** 	TIMx->EMR    = TIM_EM_SET(TIM_MatchConfigStruct->MatchChannel,TIM_MatchConfigStruct->ExtMatchOutpu
 1470              		.loc 1 422 0
 1471 0128 3B68     		ldr	r3, [r7]	@ tmp211, TIM_MatchConfigStruct
 1472 012a 1B79     		ldrb	r3, [r3, #4]	@ zero_extendqisi2	@ D.5958, TIM_MatchConfigStruct_2(D)->ExtMatchOutputType
 1473 012c 03F00302 		and	r2, r3, #3	@ D.5959, D.5959,
 1474 0130 3B68     		ldr	r3, [r7]	@ tmp212, TIM_MatchConfigStruct
 1475 0132 1B78     		ldrb	r3, [r3]	@ zero_extendqisi2	@ D.5958, TIM_MatchConfigStruct_2(D)->MatchChannel
 1476 0134 5B00     		lsls	r3, r3, #1	@ D.5959, D.5959,
 1477 0136 0433     		adds	r3, r3, #4	@ D.5959, D.5959,
 1478 0138 02FA03F3 		lsl	r3, r2, r3	@ D.5959, D.5959, D.5959
 1479 013c 1A46     		mov	r2, r3	@ D.5960, D.5959
 1480 013e 7B68     		ldr	r3, [r7, #4]	@ tmp213, TIMx
 1481 0140 DA63     		str	r2, [r3, #60]	@ D.5960, TIMx_1(D)->EMR
 423:core/lpc17xx_timer.c **** }
 1482              		.loc 1 423 0
 1483 0142 1037     		adds	r7, r7, #16	@,,
 1484              		.cfi_def_cfa_offset 8
 1485 0144 BD46     		mov	sp, r7	@,
 1486              		.cfi_def_cfa_register 13
 1487              		@ sp needed	@
 1488 0146 80BD     		pop	{r7, pc}	@
 1489              	.L89:
 1490              		.align	2
 1491              	.L88:
 1492 0148 00800040 		.word	1073774592
 1493 014c 00000940 		.word	1074331648
 1494 0150 00400940 		.word	1074348032
 1495 0154 00000000 		.word	.LC0
 1496              		.cfi_endproc
 1497              	.LFE67:
 1498              		.size	TIM_ConfigMatch, .-TIM_ConfigMatch
 1499              		.section	.text.TIM_ConfigCapture,"ax",%progbits
 1500              		.align	2
 1501              		.global	TIM_ConfigCapture
 1502              		.thumb
 1503              		.thumb_func
 1504              		.type	TIM_ConfigCapture, %function
 1505              	TIM_ConfigCapture:
 1506              	.LFB68:
 424:core/lpc17xx_timer.c **** /*********************************************************************//**
 425:core/lpc17xx_timer.c ****  * @brief 		Configuration for Capture register
 426:core/lpc17xx_timer.c ****  * @param[in]	TIMx Pointer to timer device
 427:core/lpc17xx_timer.c ****  * 					- CaptureChannel: set the channel to capture data
 428:core/lpc17xx_timer.c ****  * 					- RisingEdge    : if SET, Capture at rising edge
ARM GAS  C:\Users\COSMIN~1.MAR\AppData\Local\Temp\cccNbcra.s 			page 35


 429:core/lpc17xx_timer.c ****  * 					- FallingEdge	: if SET, Capture at falling edge
 430:core/lpc17xx_timer.c ****  * 					- IntOnCaption  : if SET, Capture generate interrupt
 431:core/lpc17xx_timer.c ****  * @param[in]   TIM_CaptureConfigStruct	Pointer to TIM_CAPTURECFG_Type
 432:core/lpc17xx_timer.c ****  * @return 		None
 433:core/lpc17xx_timer.c ****  **********************************************************************/
 434:core/lpc17xx_timer.c **** void TIM_ConfigCapture(LPC_TIM_TypeDef *TIMx, TIM_CAPTURECFG_Type *TIM_CaptureConfigStruct)
 435:core/lpc17xx_timer.c **** {
 1507              		.loc 1 435 0
 1508              		.cfi_startproc
 1509              		@ args = 0, pretend = 0, frame = 16
 1510              		@ frame_needed = 1, uses_anonymous_args = 0
 1511 0000 80B5     		push	{r7, lr}	@
 1512              		.cfi_def_cfa_offset 8
 1513              		.cfi_offset 7, -8
 1514              		.cfi_offset 14, -4
 1515 0002 84B0     		sub	sp, sp, #16	@,,
 1516              		.cfi_def_cfa_offset 24
 1517 0004 00AF     		add	r7, sp, #0	@,,
 1518              		.cfi_def_cfa_register 7
 1519 0006 7860     		str	r0, [r7, #4]	@ TIMx, TIMx
 1520 0008 3960     		str	r1, [r7]	@ TIM_CaptureConfigStruct, TIM_CaptureConfigStruct
 436:core/lpc17xx_timer.c **** 	uint32_t timer;
 437:core/lpc17xx_timer.c **** 
 438:core/lpc17xx_timer.c **** 	CHECK_PARAM(PARAM_TIMx(TIMx));
 1521              		.loc 1 438 0
 1522 000a 7B68     		ldr	r3, [r7, #4]	@ tmp143, TIMx
 1523 000c B3F1402F 		cmp	r3, #1073758208	@ tmp143,
 1524 0010 10D0     		beq	.L91	@,
 1525              		.loc 1 438 0 is_stmt 0 discriminator 1
 1526 0012 7B68     		ldr	r3, [r7, #4]	@ tmp144, TIMx
 1527 0014 2C4A     		ldr	r2, .L95	@ tmp145,
 1528 0016 9342     		cmp	r3, r2	@ tmp144, tmp145
 1529 0018 0CD0     		beq	.L91	@,
 1530              		.loc 1 438 0 discriminator 2
 1531 001a 7B68     		ldr	r3, [r7, #4]	@ tmp146, TIMx
 1532 001c 2B4A     		ldr	r2, .L95+4	@ tmp147,
 1533 001e 9342     		cmp	r3, r2	@ tmp146, tmp147
 1534 0020 08D0     		beq	.L91	@,
 1535              		.loc 1 438 0 discriminator 3
 1536 0022 7B68     		ldr	r3, [r7, #4]	@ tmp148, TIMx
 1537 0024 2A4A     		ldr	r2, .L95+8	@ tmp149,
 1538 0026 9342     		cmp	r3, r2	@ tmp148, tmp149
 1539 0028 04D0     		beq	.L91	@,
 1540              		.loc 1 438 0 discriminator 4
 1541 002a 2A48     		ldr	r0, .L95+12	@,
 1542 002c 4FF4DB71 		mov	r1, #438	@,
 1543 0030 FFF7FEFF 		bl	check_failed	@
 1544              	.L91:
 439:core/lpc17xx_timer.c **** 	timer = TIM_ConverPtrToTimeNum(TIMx) ;
 1545              		.loc 1 439 0 is_stmt 1
 1546 0034 7868     		ldr	r0, [r7, #4]	@, TIMx
 1547 0036 FFF7FEFF 		bl	TIM_ConverPtrToTimeNum	@
 1548 003a F860     		str	r0, [r7, #12]	@, timer
 440:core/lpc17xx_timer.c **** 	TIMx->CCR &= ~TIM_CCR_CHANNEL_MASKBIT(TIM_CaptureConfigStruct->CaptureChannel);
 1549              		.loc 1 440 0
 1550 003c 7B68     		ldr	r3, [r7, #4]	@ tmp150, TIMx
 1551 003e 9A6A     		ldr	r2, [r3, #40]	@ D.5961, TIMx_1(D)->CCR
ARM GAS  C:\Users\COSMIN~1.MAR\AppData\Local\Temp\cccNbcra.s 			page 36


 1552 0040 3B68     		ldr	r3, [r7]	@ tmp151, TIM_CaptureConfigStruct
 1553 0042 1B78     		ldrb	r3, [r3]	@ zero_extendqisi2	@ D.5962, TIM_CaptureConfigStruct_4(D)->CaptureChannel
 1554 0044 1946     		mov	r1, r3	@ D.5963, D.5962
 1555 0046 0723     		movs	r3, #7	@ tmp152,
 1556 0048 8B40     		lsls	r3, r3, r1	@ D.5963, tmp152, D.5963
 1557 004a DB43     		mvns	r3, r3	@ D.5961, D.5961
 1558 004c 1A40     		ands	r2, r2, r3	@, D.5961, D.5961, D.5961
 1559 004e 7B68     		ldr	r3, [r7, #4]	@ tmp153, TIMx
 1560 0050 9A62     		str	r2, [r3, #40]	@ D.5961, TIMx_1(D)->CCR
 441:core/lpc17xx_timer.c **** 
 442:core/lpc17xx_timer.c **** 	if (TIM_CaptureConfigStruct->RisingEdge)
 1561              		.loc 1 442 0
 1562 0052 3B68     		ldr	r3, [r7]	@ tmp154, TIM_CaptureConfigStruct
 1563 0054 5B78     		ldrb	r3, [r3, #1]	@ zero_extendqisi2	@ D.5962, TIM_CaptureConfigStruct_4(D)->RisingEdge
 1564 0056 002B     		cmp	r3, #0	@ D.5962,
 1565 0058 0DD0     		beq	.L92	@,
 443:core/lpc17xx_timer.c **** 		TIMx->CCR |= TIM_CAP_RISING(TIM_CaptureConfigStruct->CaptureChannel);
 1566              		.loc 1 443 0
 1567 005a 7B68     		ldr	r3, [r7, #4]	@ tmp155, TIMx
 1568 005c 9A6A     		ldr	r2, [r3, #40]	@ D.5961, TIMx_1(D)->CCR
 1569 005e 3B68     		ldr	r3, [r7]	@ tmp156, TIM_CaptureConfigStruct
 1570 0060 1B78     		ldrb	r3, [r3]	@ zero_extendqisi2	@ D.5962, TIM_CaptureConfigStruct_4(D)->CaptureChannel
 1571 0062 1946     		mov	r1, r3	@ D.5963, D.5962
 1572 0064 0B46     		mov	r3, r1	@ tmp157, D.5963
 1573 0066 5B00     		lsls	r3, r3, #1	@ tmp157, tmp157,
 1574 0068 0B44     		add	r3, r3, r1	@ D.5963, D.5963
 1575 006a 0121     		movs	r1, #1	@ tmp158,
 1576 006c 01FA03F3 		lsl	r3, r1, r3	@ D.5963, tmp158, D.5963
 1577 0070 1A43     		orrs	r2, r2, r3	@, D.5961, D.5961, D.5961
 1578 0072 7B68     		ldr	r3, [r7, #4]	@ tmp159, TIMx
 1579 0074 9A62     		str	r2, [r3, #40]	@ D.5961, TIMx_1(D)->CCR
 1580              	.L92:
 444:core/lpc17xx_timer.c **** 
 445:core/lpc17xx_timer.c **** 	if (TIM_CaptureConfigStruct->FallingEdge)
 1581              		.loc 1 445 0
 1582 0076 3B68     		ldr	r3, [r7]	@ tmp160, TIM_CaptureConfigStruct
 1583 0078 9B78     		ldrb	r3, [r3, #2]	@ zero_extendqisi2	@ D.5962, TIM_CaptureConfigStruct_4(D)->FallingEdge
 1584 007a 002B     		cmp	r3, #0	@ D.5962,
 1585 007c 0ED0     		beq	.L93	@,
 446:core/lpc17xx_timer.c **** 		TIMx->CCR |= TIM_CAP_FALLING(TIM_CaptureConfigStruct->CaptureChannel);
 1586              		.loc 1 446 0
 1587 007e 7B68     		ldr	r3, [r7, #4]	@ tmp161, TIMx
 1588 0080 9A6A     		ldr	r2, [r3, #40]	@ D.5961, TIMx_1(D)->CCR
 1589 0082 3B68     		ldr	r3, [r7]	@ tmp162, TIM_CaptureConfigStruct
 1590 0084 1B78     		ldrb	r3, [r3]	@ zero_extendqisi2	@ D.5962, TIM_CaptureConfigStruct_4(D)->CaptureChannel
 1591 0086 1946     		mov	r1, r3	@ D.5963, D.5962
 1592 0088 0B46     		mov	r3, r1	@ tmp163, D.5963
 1593 008a 5B00     		lsls	r3, r3, #1	@ tmp163, tmp163,
 1594 008c 0B44     		add	r3, r3, r1	@ D.5963, D.5963
 1595 008e 0133     		adds	r3, r3, #1	@ D.5963, D.5963,
 1596 0090 0121     		movs	r1, #1	@ tmp164,
 1597 0092 01FA03F3 		lsl	r3, r1, r3	@ D.5963, tmp164, D.5963
 1598 0096 1A43     		orrs	r2, r2, r3	@, D.5961, D.5961, D.5961
 1599 0098 7B68     		ldr	r3, [r7, #4]	@ tmp165, TIMx
 1600 009a 9A62     		str	r2, [r3, #40]	@ D.5961, TIMx_1(D)->CCR
 1601              	.L93:
 447:core/lpc17xx_timer.c **** 
ARM GAS  C:\Users\COSMIN~1.MAR\AppData\Local\Temp\cccNbcra.s 			page 37


 448:core/lpc17xx_timer.c **** 	if (TIM_CaptureConfigStruct->IntOnCaption)
 1602              		.loc 1 448 0
 1603 009c 3B68     		ldr	r3, [r7]	@ tmp166, TIM_CaptureConfigStruct
 1604 009e DB78     		ldrb	r3, [r3, #3]	@ zero_extendqisi2	@ D.5962, TIM_CaptureConfigStruct_4(D)->IntOnCaption
 1605 00a0 002B     		cmp	r3, #0	@ D.5962,
 1606 00a2 0ED0     		beq	.L90	@,
 449:core/lpc17xx_timer.c **** 		TIMx->CCR |= TIM_INT_ON_CAP(TIM_CaptureConfigStruct->CaptureChannel);
 1607              		.loc 1 449 0
 1608 00a4 7B68     		ldr	r3, [r7, #4]	@ tmp167, TIMx
 1609 00a6 9A6A     		ldr	r2, [r3, #40]	@ D.5961, TIMx_1(D)->CCR
 1610 00a8 3B68     		ldr	r3, [r7]	@ tmp168, TIM_CaptureConfigStruct
 1611 00aa 1B78     		ldrb	r3, [r3]	@ zero_extendqisi2	@ D.5962, TIM_CaptureConfigStruct_4(D)->CaptureChannel
 1612 00ac 1946     		mov	r1, r3	@ D.5963, D.5962
 1613 00ae 0B46     		mov	r3, r1	@ tmp169, D.5963
 1614 00b0 5B00     		lsls	r3, r3, #1	@ tmp169, tmp169,
 1615 00b2 0B44     		add	r3, r3, r1	@ D.5963, D.5963
 1616 00b4 0233     		adds	r3, r3, #2	@ D.5963, D.5963,
 1617 00b6 0121     		movs	r1, #1	@ tmp170,
 1618 00b8 01FA03F3 		lsl	r3, r1, r3	@ D.5963, tmp170, D.5963
 1619 00bc 1A43     		orrs	r2, r2, r3	@, D.5961, D.5961, D.5961
 1620 00be 7B68     		ldr	r3, [r7, #4]	@ tmp171, TIMx
 1621 00c0 9A62     		str	r2, [r3, #40]	@ D.5961, TIMx_1(D)->CCR
 1622              	.L90:
 450:core/lpc17xx_timer.c **** }
 1623              		.loc 1 450 0
 1624 00c2 1037     		adds	r7, r7, #16	@,,
 1625              		.cfi_def_cfa_offset 8
 1626 00c4 BD46     		mov	sp, r7	@,
 1627              		.cfi_def_cfa_register 13
 1628              		@ sp needed	@
 1629 00c6 80BD     		pop	{r7, pc}	@
 1630              	.L96:
 1631              		.align	2
 1632              	.L95:
 1633 00c8 00800040 		.word	1073774592
 1634 00cc 00000940 		.word	1074331648
 1635 00d0 00400940 		.word	1074348032
 1636 00d4 00000000 		.word	.LC0
 1637              		.cfi_endproc
 1638              	.LFE68:
 1639              		.size	TIM_ConfigCapture, .-TIM_ConfigCapture
 1640              		.section	.text.TIM_GetCaptureValue,"ax",%progbits
 1641              		.align	2
 1642              		.global	TIM_GetCaptureValue
 1643              		.thumb
 1644              		.thumb_func
 1645              		.type	TIM_GetCaptureValue, %function
 1646              	TIM_GetCaptureValue:
 1647              	.LFB69:
 451:core/lpc17xx_timer.c **** 
 452:core/lpc17xx_timer.c **** /*********************************************************************//**
 453:core/lpc17xx_timer.c ****  * @brief 		Read value of capture register in timer/counter device
 454:core/lpc17xx_timer.c ****  * @param[in]	TIMx Pointer to timer/counter device
 455:core/lpc17xx_timer.c ****  * @param[in]	CaptureChannel: capture channel number
 456:core/lpc17xx_timer.c ****  * @return 		Value of capture register
 457:core/lpc17xx_timer.c ****  **********************************************************************/
 458:core/lpc17xx_timer.c **** uint32_t TIM_GetCaptureValue(LPC_TIM_TypeDef *TIMx, uint8_t CaptureChannel)
ARM GAS  C:\Users\COSMIN~1.MAR\AppData\Local\Temp\cccNbcra.s 			page 38


 459:core/lpc17xx_timer.c **** {
 1648              		.loc 1 459 0
 1649              		.cfi_startproc
 1650              		@ args = 0, pretend = 0, frame = 8
 1651              		@ frame_needed = 1, uses_anonymous_args = 0
 1652 0000 80B5     		push	{r7, lr}	@
 1653              		.cfi_def_cfa_offset 8
 1654              		.cfi_offset 7, -8
 1655              		.cfi_offset 14, -4
 1656 0002 82B0     		sub	sp, sp, #8	@,,
 1657              		.cfi_def_cfa_offset 16
 1658 0004 00AF     		add	r7, sp, #0	@,,
 1659              		.cfi_def_cfa_register 7
 1660 0006 7860     		str	r0, [r7, #4]	@ TIMx, TIMx
 1661 0008 0B46     		mov	r3, r1	@ tmp112, CaptureChannel
 1662 000a FB70     		strb	r3, [r7, #3]	@ tmp113, CaptureChannel
 460:core/lpc17xx_timer.c **** 	CHECK_PARAM(PARAM_TIMx(TIMx));
 1663              		.loc 1 460 0
 1664 000c 7B68     		ldr	r3, [r7, #4]	@ tmp114, TIMx
 1665 000e B3F1402F 		cmp	r3, #1073758208	@ tmp114,
 1666 0012 10D0     		beq	.L98	@,
 1667              		.loc 1 460 0 is_stmt 0 discriminator 1
 1668 0014 7B68     		ldr	r3, [r7, #4]	@ tmp115, TIMx
 1669 0016 134A     		ldr	r2, .L102	@ tmp116,
 1670 0018 9342     		cmp	r3, r2	@ tmp115, tmp116
 1671 001a 0CD0     		beq	.L98	@,
 1672              		.loc 1 460 0 discriminator 2
 1673 001c 7B68     		ldr	r3, [r7, #4]	@ tmp117, TIMx
 1674 001e 124A     		ldr	r2, .L102+4	@ tmp118,
 1675 0020 9342     		cmp	r3, r2	@ tmp117, tmp118
 1676 0022 08D0     		beq	.L98	@,
 1677              		.loc 1 460 0 discriminator 3
 1678 0024 7B68     		ldr	r3, [r7, #4]	@ tmp119, TIMx
 1679 0026 114A     		ldr	r2, .L102+8	@ tmp120,
 1680 0028 9342     		cmp	r3, r2	@ tmp119, tmp120
 1681 002a 04D0     		beq	.L98	@,
 1682              		.loc 1 460 0 discriminator 4
 1683 002c 1048     		ldr	r0, .L102+12	@,
 1684 002e 4FF4E671 		mov	r1, #460	@,
 1685 0032 FFF7FEFF 		bl	check_failed	@
 1686              	.L98:
 461:core/lpc17xx_timer.c **** 	CHECK_PARAM(PARAM_TIM_COUNTER_INPUT_OPT(CaptureChannel));
 1687              		.loc 1 461 0 is_stmt 1
 1688 0036 FB78     		ldrb	r3, [r7, #3]	@ zero_extendqisi2	@ tmp121, CaptureChannel
 1689 0038 002B     		cmp	r3, #0	@ tmp121,
 1690 003a 07D0     		beq	.L99	@,
 1691              		.loc 1 461 0 is_stmt 0 discriminator 1
 1692 003c FB78     		ldrb	r3, [r7, #3]	@ zero_extendqisi2	@ tmp122, CaptureChannel
 1693 003e 012B     		cmp	r3, #1	@ tmp122,
 1694 0040 04D0     		beq	.L99	@,
 1695              		.loc 1 461 0 discriminator 2
 1696 0042 0B48     		ldr	r0, .L102+12	@,
 1697 0044 40F2CD11 		movw	r1, #461	@,
 1698 0048 FFF7FEFF 		bl	check_failed	@
 1699              	.L99:
 462:core/lpc17xx_timer.c **** 
 463:core/lpc17xx_timer.c **** 	if(CaptureChannel==0)
ARM GAS  C:\Users\COSMIN~1.MAR\AppData\Local\Temp\cccNbcra.s 			page 39


 1700              		.loc 1 463 0 is_stmt 1
 1701 004c FB78     		ldrb	r3, [r7, #3]	@ zero_extendqisi2	@ tmp123, CaptureChannel
 1702 004e 002B     		cmp	r3, #0	@ tmp123,
 1703 0050 02D1     		bne	.L100	@,
 464:core/lpc17xx_timer.c **** 		return TIMx->CR0;
 1704              		.loc 1 464 0
 1705 0052 7B68     		ldr	r3, [r7, #4]	@ tmp124, TIMx
 1706 0054 DB6A     		ldr	r3, [r3, #44]	@ D.5964, TIMx_2(D)->CR0
 1707 0056 01E0     		b	.L101	@
 1708              	.L100:
 465:core/lpc17xx_timer.c **** 	else
 466:core/lpc17xx_timer.c **** 		return TIMx->CR1;
 1709              		.loc 1 466 0
 1710 0058 7B68     		ldr	r3, [r7, #4]	@ tmp125, TIMx
 1711 005a 1B6B     		ldr	r3, [r3, #48]	@ D.5964, TIMx_2(D)->CR1
 1712              	.L101:
 467:core/lpc17xx_timer.c **** }
 1713              		.loc 1 467 0
 1714 005c 1846     		mov	r0, r3	@, <retval>
 1715 005e 0837     		adds	r7, r7, #8	@,,
 1716              		.cfi_def_cfa_offset 8
 1717 0060 BD46     		mov	sp, r7	@,
 1718              		.cfi_def_cfa_register 13
 1719              		@ sp needed	@
 1720 0062 80BD     		pop	{r7, pc}	@
 1721              	.L103:
 1722              		.align	2
 1723              	.L102:
 1724 0064 00800040 		.word	1073774592
 1725 0068 00000940 		.word	1074331648
 1726 006c 00400940 		.word	1074348032
 1727 0070 00000000 		.word	.LC0
 1728              		.cfi_endproc
 1729              	.LFE69:
 1730              		.size	TIM_GetCaptureValue, .-TIM_GetCaptureValue
 1731              		.section	.text.Timer0_Wait,"ax",%progbits
 1732              		.align	2
 1733              		.global	Timer0_Wait
 1734              		.thumb
 1735              		.thumb_func
 1736              		.type	Timer0_Wait, %function
 1737              	Timer0_Wait:
 1738              	.LFB70:
 468:core/lpc17xx_timer.c **** 
 469:core/lpc17xx_timer.c **** /**
 470:core/lpc17xx_timer.c ****  * @}
 471:core/lpc17xx_timer.c ****  */
 472:core/lpc17xx_timer.c **** 
 473:core/lpc17xx_timer.c **** 
 474:core/lpc17xx_timer.c **** void Timer0_Wait(uint32_t time)
 475:core/lpc17xx_timer.c **** {
 1739              		.loc 1 475 0
 1740              		.cfi_startproc
 1741              		@ args = 0, pretend = 0, frame = 32
 1742              		@ frame_needed = 1, uses_anonymous_args = 0
 1743 0000 80B5     		push	{r7, lr}	@
 1744              		.cfi_def_cfa_offset 8
ARM GAS  C:\Users\COSMIN~1.MAR\AppData\Local\Temp\cccNbcra.s 			page 40


 1745              		.cfi_offset 7, -8
 1746              		.cfi_offset 14, -4
 1747 0002 88B0     		sub	sp, sp, #32	@,,
 1748              		.cfi_def_cfa_offset 40
 1749 0004 00AF     		add	r7, sp, #0	@,,
 1750              		.cfi_def_cfa_register 7
 1751 0006 7860     		str	r0, [r7, #4]	@ time, time
 476:core/lpc17xx_timer.c **** 	TIM_TIMERCFG_Type TIM_ConfigStruct;
 477:core/lpc17xx_timer.c **** 	TIM_MATCHCFG_Type TIM_MatchConfigStruct ;
 478:core/lpc17xx_timer.c **** 
 479:core/lpc17xx_timer.c **** // Initialize timer 0, prescale count time of 1ms
 480:core/lpc17xx_timer.c **** 	TIM_ConfigStruct.PrescaleOption = TIM_PRESCALE_USVAL;
 1752              		.loc 1 480 0
 1753 0008 0123     		movs	r3, #1	@ tmp111,
 1754 000a 3B76     		strb	r3, [r7, #24]	@ tmp112, TIM_ConfigStruct.PrescaleOption
 481:core/lpc17xx_timer.c **** 	TIM_ConfigStruct.PrescaleValue	= 1000;
 1755              		.loc 1 481 0
 1756 000c 4FF47A73 		mov	r3, #1000	@ tmp113,
 1757 0010 FB61     		str	r3, [r7, #28]	@ tmp113, TIM_ConfigStruct.PrescaleValue
 482:core/lpc17xx_timer.c **** 	// use channel 0, MR0
 483:core/lpc17xx_timer.c **** 	TIM_MatchConfigStruct.MatchChannel = 0;
 1758              		.loc 1 483 0
 1759 0012 0023     		movs	r3, #0	@ tmp114,
 1760 0014 3B73     		strb	r3, [r7, #12]	@ tmp115, TIM_MatchConfigStruct.MatchChannel
 484:core/lpc17xx_timer.c **** 	// Enable interrupt when MR0 matches the value in TC register
 485:core/lpc17xx_timer.c **** 	TIM_MatchConfigStruct.IntOnMatch   = TRUE;
 1761              		.loc 1 485 0
 1762 0016 0123     		movs	r3, #1	@ tmp116,
 1763 0018 7B73     		strb	r3, [r7, #13]	@ tmp117, TIM_MatchConfigStruct.IntOnMatch
 486:core/lpc17xx_timer.c **** 	//Enable reset on MR0: TIMER will not reset if MR0 matches it
 487:core/lpc17xx_timer.c **** 	TIM_MatchConfigStruct.ResetOnMatch = FALSE;
 1764              		.loc 1 487 0
 1765 001a 0023     		movs	r3, #0	@ tmp118,
 1766 001c FB73     		strb	r3, [r7, #15]	@ tmp119, TIM_MatchConfigStruct.ResetOnMatch
 488:core/lpc17xx_timer.c **** 	//Stop on MR0 if MR0 matches it
 489:core/lpc17xx_timer.c **** 	TIM_MatchConfigStruct.StopOnMatch  = TRUE;
 1767              		.loc 1 489 0
 1768 001e 0123     		movs	r3, #1	@ tmp120,
 1769 0020 BB73     		strb	r3, [r7, #14]	@ tmp121, TIM_MatchConfigStruct.StopOnMatch
 490:core/lpc17xx_timer.c **** 	//do no thing for external output
 491:core/lpc17xx_timer.c **** 	TIM_MatchConfigStruct.ExtMatchOutputType =TIM_EXTMATCH_NOTHING;
 1770              		.loc 1 491 0
 1771 0022 0023     		movs	r3, #0	@ tmp122,
 1772 0024 3B74     		strb	r3, [r7, #16]	@ tmp123, TIM_MatchConfigStruct.ExtMatchOutputType
 492:core/lpc17xx_timer.c **** 	// Set Match value, count value is time (timer * 1000uS =timer mS )
 493:core/lpc17xx_timer.c **** 	TIM_MatchConfigStruct.MatchValue   = time;
 1773              		.loc 1 493 0
 1774 0026 7B68     		ldr	r3, [r7, #4]	@ tmp124, time
 1775 0028 7B61     		str	r3, [r7, #20]	@ tmp124, TIM_MatchConfigStruct.MatchValue
 494:core/lpc17xx_timer.c **** 
 495:core/lpc17xx_timer.c **** 	// Set configuration for Tim_config and Tim_MatchConfig
 496:core/lpc17xx_timer.c **** 	TIM_Init(LPC_TIM0, TIM_TIMER_MODE,&TIM_ConfigStruct);
 1776              		.loc 1 496 0
 1777 002a 07F11803 		add	r3, r7, #24	@ tmp125,,
 1778 002e 4FF04020 		mov	r0, #1073758208	@,
 1779 0032 0021     		movs	r1, #0	@,
 1780 0034 1A46     		mov	r2, r3	@, tmp125
ARM GAS  C:\Users\COSMIN~1.MAR\AppData\Local\Temp\cccNbcra.s 			page 41


 1781 0036 FFF7FEFF 		bl	TIM_Init	@
 497:core/lpc17xx_timer.c **** 	TIM_ConfigMatch(LPC_TIM0,&TIM_MatchConfigStruct);
 1782              		.loc 1 497 0
 1783 003a 07F10C03 		add	r3, r7, #12	@ tmp126,,
 1784 003e 4FF04020 		mov	r0, #1073758208	@,
 1785 0042 1946     		mov	r1, r3	@, tmp126
 1786 0044 FFF7FEFF 		bl	TIM_ConfigMatch	@
 498:core/lpc17xx_timer.c **** 	// To start timer 0
 499:core/lpc17xx_timer.c **** 	TIM_Cmd(LPC_TIM0,ENABLE);
 1787              		.loc 1 499 0
 1788 0048 4FF04020 		mov	r0, #1073758208	@,
 1789 004c 0121     		movs	r1, #1	@,
 1790 004e FFF7FEFF 		bl	TIM_Cmd	@
 500:core/lpc17xx_timer.c **** 	while ( !(TIM_GetIntStatus(LPC_TIM0,0)));
 1791              		.loc 1 500 0
 1792 0052 00BF     		nop
 1793              	.L105:
 1794              		.loc 1 500 0 is_stmt 0 discriminator 1
 1795 0054 4FF04020 		mov	r0, #1073758208	@,
 1796 0058 0021     		movs	r1, #0	@,
 1797 005a FFF7FEFF 		bl	TIM_GetIntStatus	@
 1798 005e 0346     		mov	r3, r0	@ tmp127,
 1799 0060 002B     		cmp	r3, #0	@ D.5965,
 1800 0062 F7D0     		beq	.L105	@,
 501:core/lpc17xx_timer.c **** 		TIM_ClearIntPending(LPC_TIM0,0);
 1801              		.loc 1 501 0 is_stmt 1
 1802 0064 4FF04020 		mov	r0, #1073758208	@,
 1803 0068 0021     		movs	r1, #0	@,
 1804 006a FFF7FEFF 		bl	TIM_ClearIntPending	@
 502:core/lpc17xx_timer.c **** }
 1805              		.loc 1 502 0
 1806 006e 2037     		adds	r7, r7, #32	@,,
 1807              		.cfi_def_cfa_offset 8
 1808 0070 BD46     		mov	sp, r7	@,
 1809              		.cfi_def_cfa_register 13
 1810              		@ sp needed	@
 1811 0072 80BD     		pop	{r7, pc}	@
 1812              		.cfi_endproc
 1813              	.LFE70:
 1814              		.size	Timer0_Wait, .-Timer0_Wait
 1815              		.section	.text.Timer0_us_Wait,"ax",%progbits
 1816              		.align	2
 1817              		.global	Timer0_us_Wait
 1818              		.thumb
 1819              		.thumb_func
 1820              		.type	Timer0_us_Wait, %function
 1821              	Timer0_us_Wait:
 1822              	.LFB71:
 503:core/lpc17xx_timer.c **** 
 504:core/lpc17xx_timer.c **** void Timer0_us_Wait(uint32_t time)
 505:core/lpc17xx_timer.c **** {
 1823              		.loc 1 505 0
 1824              		.cfi_startproc
 1825              		@ args = 0, pretend = 0, frame = 32
 1826              		@ frame_needed = 1, uses_anonymous_args = 0
 1827 0000 80B5     		push	{r7, lr}	@
 1828              		.cfi_def_cfa_offset 8
ARM GAS  C:\Users\COSMIN~1.MAR\AppData\Local\Temp\cccNbcra.s 			page 42


 1829              		.cfi_offset 7, -8
 1830              		.cfi_offset 14, -4
 1831 0002 88B0     		sub	sp, sp, #32	@,,
 1832              		.cfi_def_cfa_offset 40
 1833 0004 00AF     		add	r7, sp, #0	@,,
 1834              		.cfi_def_cfa_register 7
 1835 0006 7860     		str	r0, [r7, #4]	@ time, time
 506:core/lpc17xx_timer.c **** 	TIM_TIMERCFG_Type TIM_ConfigStruct;
 507:core/lpc17xx_timer.c **** 	TIM_MATCHCFG_Type TIM_MatchConfigStruct ;
 508:core/lpc17xx_timer.c **** 
 509:core/lpc17xx_timer.c **** // Initialize timer 0, prescale count time of 1ms
 510:core/lpc17xx_timer.c **** 	TIM_ConfigStruct.PrescaleOption = TIM_PRESCALE_USVAL;
 1836              		.loc 1 510 0
 1837 0008 0123     		movs	r3, #1	@ tmp111,
 1838 000a 3B76     		strb	r3, [r7, #24]	@ tmp112, TIM_ConfigStruct.PrescaleOption
 511:core/lpc17xx_timer.c **** 	TIM_ConfigStruct.PrescaleValue	= 1;
 1839              		.loc 1 511 0
 1840 000c 0123     		movs	r3, #1	@ tmp113,
 1841 000e FB61     		str	r3, [r7, #28]	@ tmp113, TIM_ConfigStruct.PrescaleValue
 512:core/lpc17xx_timer.c **** 	// use channel 0, MR0
 513:core/lpc17xx_timer.c **** 	TIM_MatchConfigStruct.MatchChannel = 0;
 1842              		.loc 1 513 0
 1843 0010 0023     		movs	r3, #0	@ tmp114,
 1844 0012 3B73     		strb	r3, [r7, #12]	@ tmp115, TIM_MatchConfigStruct.MatchChannel
 514:core/lpc17xx_timer.c **** 	// Enable interrupt when MR0 matches the value in TC register
 515:core/lpc17xx_timer.c **** 	TIM_MatchConfigStruct.IntOnMatch   = TRUE;
 1845              		.loc 1 515 0
 1846 0014 0123     		movs	r3, #1	@ tmp116,
 1847 0016 7B73     		strb	r3, [r7, #13]	@ tmp117, TIM_MatchConfigStruct.IntOnMatch
 516:core/lpc17xx_timer.c **** 	//Enable reset on MR0: TIMER will not reset if MR0 matches it
 517:core/lpc17xx_timer.c **** 	TIM_MatchConfigStruct.ResetOnMatch = FALSE;
 1848              		.loc 1 517 0
 1849 0018 0023     		movs	r3, #0	@ tmp118,
 1850 001a FB73     		strb	r3, [r7, #15]	@ tmp119, TIM_MatchConfigStruct.ResetOnMatch
 518:core/lpc17xx_timer.c **** 	//Stop on MR0 if MR0 matches it
 519:core/lpc17xx_timer.c **** 	TIM_MatchConfigStruct.StopOnMatch  = TRUE;
 1851              		.loc 1 519 0
 1852 001c 0123     		movs	r3, #1	@ tmp120,
 1853 001e BB73     		strb	r3, [r7, #14]	@ tmp121, TIM_MatchConfigStruct.StopOnMatch
 520:core/lpc17xx_timer.c **** 	//do no thing for external output
 521:core/lpc17xx_timer.c **** 	TIM_MatchConfigStruct.ExtMatchOutputType =TIM_EXTMATCH_NOTHING;
 1854              		.loc 1 521 0
 1855 0020 0023     		movs	r3, #0	@ tmp122,
 1856 0022 3B74     		strb	r3, [r7, #16]	@ tmp123, TIM_MatchConfigStruct.ExtMatchOutputType
 522:core/lpc17xx_timer.c **** 	// Set Match value, count value is time (timer * 1000uS =timer mS )
 523:core/lpc17xx_timer.c **** 	TIM_MatchConfigStruct.MatchValue   = time;
 1857              		.loc 1 523 0
 1858 0024 7B68     		ldr	r3, [r7, #4]	@ tmp124, time
 1859 0026 7B61     		str	r3, [r7, #20]	@ tmp124, TIM_MatchConfigStruct.MatchValue
 524:core/lpc17xx_timer.c **** 
 525:core/lpc17xx_timer.c **** 	// Set configuration for Tim_config and Tim_MatchConfig
 526:core/lpc17xx_timer.c **** 	TIM_Init(LPC_TIM0, TIM_TIMER_MODE,&TIM_ConfigStruct);
 1860              		.loc 1 526 0
 1861 0028 07F11803 		add	r3, r7, #24	@ tmp125,,
 1862 002c 4FF04020 		mov	r0, #1073758208	@,
 1863 0030 0021     		movs	r1, #0	@,
 1864 0032 1A46     		mov	r2, r3	@, tmp125
ARM GAS  C:\Users\COSMIN~1.MAR\AppData\Local\Temp\cccNbcra.s 			page 43


 1865 0034 FFF7FEFF 		bl	TIM_Init	@
 527:core/lpc17xx_timer.c **** 	TIM_ConfigMatch(LPC_TIM0,&TIM_MatchConfigStruct);
 1866              		.loc 1 527 0
 1867 0038 07F10C03 		add	r3, r7, #12	@ tmp126,,
 1868 003c 4FF04020 		mov	r0, #1073758208	@,
 1869 0040 1946     		mov	r1, r3	@, tmp126
 1870 0042 FFF7FEFF 		bl	TIM_ConfigMatch	@
 528:core/lpc17xx_timer.c **** 	// To start timer 0
 529:core/lpc17xx_timer.c **** 	TIM_Cmd(LPC_TIM0,ENABLE);
 1871              		.loc 1 529 0
 1872 0046 4FF04020 		mov	r0, #1073758208	@,
 1873 004a 0121     		movs	r1, #1	@,
 1874 004c FFF7FEFF 		bl	TIM_Cmd	@
 530:core/lpc17xx_timer.c **** 	while ( !(TIM_GetIntStatus(LPC_TIM0,0)));
 1875              		.loc 1 530 0
 1876 0050 00BF     		nop
 1877              	.L107:
 1878              		.loc 1 530 0 is_stmt 0 discriminator 1
 1879 0052 4FF04020 		mov	r0, #1073758208	@,
 1880 0056 0021     		movs	r1, #0	@,
 1881 0058 FFF7FEFF 		bl	TIM_GetIntStatus	@
 1882 005c 0346     		mov	r3, r0	@ tmp127,
 1883 005e 002B     		cmp	r3, #0	@ D.5966,
 1884 0060 F7D0     		beq	.L107	@,
 531:core/lpc17xx_timer.c **** 		TIM_ClearIntPending(LPC_TIM0,0);
 1885              		.loc 1 531 0 is_stmt 1
 1886 0062 4FF04020 		mov	r0, #1073758208	@,
 1887 0066 0021     		movs	r1, #0	@,
 1888 0068 FFF7FEFF 		bl	TIM_ClearIntPending	@
 532:core/lpc17xx_timer.c **** }
 1889              		.loc 1 532 0
 1890 006c 2037     		adds	r7, r7, #32	@,,
 1891              		.cfi_def_cfa_offset 8
 1892 006e BD46     		mov	sp, r7	@,
 1893              		.cfi_def_cfa_register 13
 1894              		@ sp needed	@
 1895 0070 80BD     		pop	{r7, pc}	@
 1896              		.cfi_endproc
 1897              	.LFE71:
 1898              		.size	Timer0_us_Wait, .-Timer0_us_Wait
 1899 0072 00BF     		.text
 1900              	.Letext0:
 1901              		.file 2 "c:\\gnu tools arm embedded\\4.9 2015q1\\arm-none-eabi\\include\\machine\\_default_types.h
 1902              		.file 3 "c:\\gnu tools arm embedded\\4.9 2015q1\\arm-none-eabi\\include\\stdint.h"
 1903              		.file 4 "system/LPC17xx.h"
 1904              		.file 5 "core/lpc_types.h"
 1905              		.file 6 "core/lpc17xx_timer.h"
 1906              		.file 7 "system/core_cm3.h"