ARM GAS  C:\Users\COSMIN~1.MAR\AppData\Local\Temp\cc70p0Lk.s 			page 1


   1              		.syntax unified
   2              		.cpu cortex-m3
   3              		.fpu softvfp
   4              		.eabi_attribute 20, 1	@ Tag_ABI_FP_denormal
   5              		.eabi_attribute 21, 1	@ Tag_ABI_FP_exceptions
   6              		.eabi_attribute 23, 3	@ Tag_ABI_FP_number_model
   7              		.eabi_attribute 24, 1	@ Tag_ABI_align8_needed
   8              		.eabi_attribute 25, 1	@ Tag_ABI_align8_preserved
   9              		.eabi_attribute 26, 1	@ Tag_ABI_enum_size
  10              		.eabi_attribute 30, 6	@ Tag_ABI_optimization_goals
  11              		.eabi_attribute 34, 1	@ Tag_CPU_unaligned_access
  12              		.eabi_attribute 18, 4	@ Tag_ABI_PCS_wchar_t
  13              		.file	"lpc17xx_pinsel.c"
  14              	@ GNU C (GNU Tools for ARM Embedded Processors) version 4.9.3 20150303 (release) [ARM/embedded-4_9-
  15              	@	compiled by GNU C version 4.7.4, GMP version 4.3.2, MPFR version 2.4.2, MPC version 0.8.1
  16              	@ GGC heuristics: --param ggc-min-expand=100 --param ggc-min-heapsize=131072
  17              	@ options passed:  -I . -I config -I system -I core -I drivers -I FreeRTOS
  18              	@ -I FreeRTOS/include -I FreeRTOS/portable/GCC/ARM_CM3 -I FreeRTOS/portable
  19              	@ -I tasks/rc_task_leds -I modules/rc_leds -I drivers/rc_system
  20              	@ -I drivers/rc_gpio -I drivers/rc_uart -I drivers/rc_pinsel
  21              	@ -I drivers/rc_timer -I drivers/rc_adc -imultilib armv7-m
  22              	@ -iprefix c:\gnu tools arm embedded\4.9 2015q1\bin\../lib/gcc/arm-none-eabi/4.9.3/
  23              	@ -isysroot c:\gnu tools arm embedded\4.9 2015q1\bin\../arm-none-eabi
  24              	@ -MD out/lpc17xx_pinsel.d -MF out/lpc17xx_pinsel.d -MP
  25              	@ -MQ out/lpc17xx_pinsel.o -D__USES_INITFINI__ core/lpc17xx_pinsel.c
  26              	@ -mcpu=cortex-m3 -mthumb -auxbase-strip out/lpc17xx_pinsel.o -g -ggdb3 -O0
  27              	@ -Wall -Wstrict-prototypes -Wextra -std=gnu90 -ffunction-sections
  28              	@ -fdata-sections -fverbose-asm
  29              	@ options enabled:  -faggressive-loop-optimizations -fauto-inc-dec -fcommon
  30              	@ -fdata-sections -fdelete-null-pointer-checks -fdwarf2-cfi-asm
  31              	@ -fearly-inlining -feliminate-unused-debug-types -ffunction-cse
  32              	@ -ffunction-sections -fgcse-lm -fgnu-runtime -fgnu-unique -fident
  33              	@ -finline-atomics -fira-hoist-pressure -fira-share-save-slots
  34              	@ -fira-share-spill-slots -fivopts -fkeep-static-consts
  35              	@ -fleading-underscore -flifetime-dse -fmath-errno -fmerge-debug-strings
  36              	@ -fpeephole -fprefetch-loop-arrays -freg-struct-return
  37              	@ -fsched-critical-path-heuristic -fsched-dep-count-heuristic
  38              	@ -fsched-group-heuristic -fsched-interblock -fsched-last-insn-heuristic
  39              	@ -fsched-rank-heuristic -fsched-spec -fsched-spec-insn-heuristic
  40              	@ -fsched-stalled-insns-dep -fshow-column -fsigned-zeros
  41              	@ -fsplit-ivs-in-unroller -fstrict-volatile-bitfields -fsync-libcalls
  42              	@ -ftrapping-math -ftree-coalesce-vars -ftree-cselim -ftree-forwprop
  43              	@ -ftree-loop-if-convert -ftree-loop-im -ftree-loop-ivcanon
  44              	@ -ftree-loop-optimize -ftree-parallelize-loops= -ftree-phiprop
  45              	@ -ftree-reassoc -ftree-scev-cprop -funit-at-a-time -fverbose-asm
  46              	@ -fzero-initialized-in-bss -mfix-cortex-m3-ldrd -mlittle-endian -mlra
  47              	@ -mpic-data-is-text-relative -msched-prolog -mthumb -munaligned-access
  48              	@ -mvectorize-with-neon-quad
  49              	
  50              		.text
  51              	.Ltext0:
  52              		.cfi_sections	.debug_frame
  53              		.section	.text.PINSEL_SetPinFunc,"ax",%progbits
  54              		.align	2
  55              		.global	PINSEL_SetPinFunc
  56              		.thumb
  57              		.thumb_func
ARM GAS  C:\Users\COSMIN~1.MAR\AppData\Local\Temp\cc70p0Lk.s 			page 2


  58              		.type	PINSEL_SetPinFunc, %function
  59              	PINSEL_SetPinFunc:
  60              	.LFB55:
  61              		.file 1 "core/lpc17xx_pinsel.c"
   1:core/lpc17xx_pinsel.c **** /**
   2:core/lpc17xx_pinsel.c ****  * @file	: lpc17xx_pinsel.c
   3:core/lpc17xx_pinsel.c ****  * @brief	: Contains all functions support for Pin connect block firmware
   4:core/lpc17xx_pinsel.c ****  * 				library on LPC17xx
   5:core/lpc17xx_pinsel.c ****  * @version	: 1.0
   6:core/lpc17xx_pinsel.c ****  * @date	: 25. Feb. 2009
   7:core/lpc17xx_pinsel.c ****  * @author	: HoanTran
   8:core/lpc17xx_pinsel.c ****  **************************************************************************
   9:core/lpc17xx_pinsel.c ****  * Software that is described herein is for illustrative purposes only
  10:core/lpc17xx_pinsel.c ****  * which provides customers with programming information regarding the
  11:core/lpc17xx_pinsel.c ****  * products. This software is supplied "AS IS" without any warranties.
  12:core/lpc17xx_pinsel.c ****  * NXP Semiconductors assumes no responsibility or liability for the
  13:core/lpc17xx_pinsel.c ****  * use of the software, conveys no license or title under any patent,
  14:core/lpc17xx_pinsel.c ****  * copyright, or mask work right to the product. NXP Semiconductors
  15:core/lpc17xx_pinsel.c ****  * reserves the right to make changes in the software without
  16:core/lpc17xx_pinsel.c ****  * notification. NXP Semiconductors also make no representation or
  17:core/lpc17xx_pinsel.c ****  * warranty that such application will be suitable for the specified
  18:core/lpc17xx_pinsel.c ****  * use without further testing or modification.
  19:core/lpc17xx_pinsel.c ****  **********************************************************************/
  20:core/lpc17xx_pinsel.c **** 
  21:core/lpc17xx_pinsel.c **** /* Peripheral group ----------------------------------------------------------- */
  22:core/lpc17xx_pinsel.c **** /** @addtogroup PINSEL
  23:core/lpc17xx_pinsel.c ****  * @{
  24:core/lpc17xx_pinsel.c ****  */
  25:core/lpc17xx_pinsel.c **** 
  26:core/lpc17xx_pinsel.c **** /* Includes ------------------------------------------------------------------- */
  27:core/lpc17xx_pinsel.c **** #include "lpc17xx_pinsel.h"
  28:core/lpc17xx_pinsel.c **** 
  29:core/lpc17xx_pinsel.c **** 
  30:core/lpc17xx_pinsel.c **** /* Public Functions ----------------------------------------------------------- */
  31:core/lpc17xx_pinsel.c **** /** @addtogroup PINSEL_Public_Functions
  32:core/lpc17xx_pinsel.c ****  * @{
  33:core/lpc17xx_pinsel.c ****  */
  34:core/lpc17xx_pinsel.c **** 
  35:core/lpc17xx_pinsel.c **** /*********************************************************************//**
  36:core/lpc17xx_pinsel.c ****  * @brief 		Setup the pin selection function
  37:core/lpc17xx_pinsel.c ****  * @param[in]	portnum PORT number,
  38:core/lpc17xx_pinsel.c ****  * 				should be one of the following:
  39:core/lpc17xx_pinsel.c ****  * 				- PINSEL_PORT_0	: Port 0
  40:core/lpc17xx_pinsel.c ****  * 				- PINSEL_PORT_1	: Port 1
  41:core/lpc17xx_pinsel.c ****  * 				- PINSEL_PORT_2	: Port 2
  42:core/lpc17xx_pinsel.c ****  * 				- PINSEL_PORT_3	: Port 3
  43:core/lpc17xx_pinsel.c ****  *
  44:core/lpc17xx_pinsel.c ****  * @param[in]	pinnum	Pin number,
  45:core/lpc17xx_pinsel.c ****  * 				should be one of the following:
  46:core/lpc17xx_pinsel.c **** 				- PINSEL_PIN_0 : Pin 0
  47:core/lpc17xx_pinsel.c **** 				- PINSEL_PIN_1 : Pin 1
  48:core/lpc17xx_pinsel.c **** 				- PINSEL_PIN_2 : Pin 2
  49:core/lpc17xx_pinsel.c **** 				- PINSEL_PIN_3 : Pin 3
  50:core/lpc17xx_pinsel.c **** 				- PINSEL_PIN_4 : Pin 4
  51:core/lpc17xx_pinsel.c **** 				- PINSEL_PIN_5 : Pin 5
  52:core/lpc17xx_pinsel.c **** 				- PINSEL_PIN_6 : Pin 6
  53:core/lpc17xx_pinsel.c **** 				- PINSEL_PIN_7 : Pin 7
ARM GAS  C:\Users\COSMIN~1.MAR\AppData\Local\Temp\cc70p0Lk.s 			page 3


  54:core/lpc17xx_pinsel.c **** 				- PINSEL_PIN_8 : Pin 8
  55:core/lpc17xx_pinsel.c **** 				- PINSEL_PIN_9 : Pin 9
  56:core/lpc17xx_pinsel.c **** 				- PINSEL_PIN_10 : Pin 10
  57:core/lpc17xx_pinsel.c **** 				- PINSEL_PIN_11 : Pin 11
  58:core/lpc17xx_pinsel.c **** 				- PINSEL_PIN_12 : Pin 12
  59:core/lpc17xx_pinsel.c **** 				- PINSEL_PIN_13 : Pin 13
  60:core/lpc17xx_pinsel.c **** 				- PINSEL_PIN_14 : Pin 14
  61:core/lpc17xx_pinsel.c **** 				- PINSEL_PIN_15 : Pin 15
  62:core/lpc17xx_pinsel.c **** 				- PINSEL_PIN_16 : Pin 16
  63:core/lpc17xx_pinsel.c **** 				- PINSEL_PIN_17 : Pin 17
  64:core/lpc17xx_pinsel.c **** 				- PINSEL_PIN_18 : Pin 18
  65:core/lpc17xx_pinsel.c **** 				- PINSEL_PIN_19 : Pin 19
  66:core/lpc17xx_pinsel.c **** 				- PINSEL_PIN_20 : Pin 20
  67:core/lpc17xx_pinsel.c **** 				- PINSEL_PIN_21 : Pin 21
  68:core/lpc17xx_pinsel.c **** 				- PINSEL_PIN_22 : Pin 22
  69:core/lpc17xx_pinsel.c **** 				- PINSEL_PIN_23 : Pin 23
  70:core/lpc17xx_pinsel.c **** 				- PINSEL_PIN_24 : Pin 24
  71:core/lpc17xx_pinsel.c **** 				- PINSEL_PIN_25 : Pin 25
  72:core/lpc17xx_pinsel.c **** 				- PINSEL_PIN_26 : Pin 26
  73:core/lpc17xx_pinsel.c **** 				- PINSEL_PIN_27 : Pin 27
  74:core/lpc17xx_pinsel.c **** 				- PINSEL_PIN_28 : Pin 28
  75:core/lpc17xx_pinsel.c **** 				- PINSEL_PIN_29 : Pin 29
  76:core/lpc17xx_pinsel.c **** 				- PINSEL_PIN_30 : Pin 30
  77:core/lpc17xx_pinsel.c **** 				- PINSEL_PIN_31 : Pin 31
  78:core/lpc17xx_pinsel.c **** 
  79:core/lpc17xx_pinsel.c ****  * @param[in] 	funcnum Function number,
  80:core/lpc17xx_pinsel.c ****  * 				should be one of the following:
  81:core/lpc17xx_pinsel.c ****  *				- PINSEL_FUNC_0 : default function
  82:core/lpc17xx_pinsel.c ****  *				- PINSEL_FUNC_1 : first alternate function
  83:core/lpc17xx_pinsel.c ****  *				- PINSEL_FUNC_2 : second alternate function
  84:core/lpc17xx_pinsel.c ****  *				- PINSEL_FUNC_3 : third alternate function
  85:core/lpc17xx_pinsel.c ****  *
  86:core/lpc17xx_pinsel.c ****  * @return 		None
  87:core/lpc17xx_pinsel.c ****  **********************************************************************/
  88:core/lpc17xx_pinsel.c **** void PINSEL_SetPinFunc ( uint8_t portnum, uint8_t pinnum, uint8_t funcnum)
  89:core/lpc17xx_pinsel.c **** {
  62              		.loc 1 89 0
  63              		.cfi_startproc
  64              		@ args = 0, pretend = 0, frame = 24
  65              		@ frame_needed = 1, uses_anonymous_args = 0
  66              		@ link register save eliminated.
  67 0000 80B4     		push	{r7}	@
  68              		.cfi_def_cfa_offset 4
  69              		.cfi_offset 7, -4
  70 0002 87B0     		sub	sp, sp, #28	@,,
  71              		.cfi_def_cfa_offset 32
  72 0004 00AF     		add	r7, sp, #0	@,,
  73              		.cfi_def_cfa_register 7
  74 0006 0346     		mov	r3, r0	@ tmp132, portnum
  75 0008 FB71     		strb	r3, [r7, #7]	@ tmp133, portnum
  76 000a 0B46     		mov	r3, r1	@ tmp135, tmp134
  77 000c BB71     		strb	r3, [r7, #6]	@ tmp135, pinnum
  78 000e 1346     		mov	r3, r2	@ tmp137, tmp136
  79 0010 7B71     		strb	r3, [r7, #5]	@ tmp137, funcnum
  90:core/lpc17xx_pinsel.c **** 	uint32_t pinnum_t = pinnum;
  80              		.loc 1 90 0
  81 0012 BB79     		ldrb	r3, [r7, #6]	@ zero_extendqisi2	@ tmp138, pinnum
ARM GAS  C:\Users\COSMIN~1.MAR\AppData\Local\Temp\cc70p0Lk.s 			page 4


  82 0014 7B61     		str	r3, [r7, #20]	@ tmp138, pinnum_t
  91:core/lpc17xx_pinsel.c **** 	uint32_t pinselreg_idx = 2 * portnum;
  83              		.loc 1 91 0
  84 0016 FB79     		ldrb	r3, [r7, #7]	@ zero_extendqisi2	@ D.5440, portnum
  85 0018 5B00     		lsls	r3, r3, #1	@ D.5440, D.5440,
  86 001a 3B61     		str	r3, [r7, #16]	@ D.5440, pinselreg_idx
  92:core/lpc17xx_pinsel.c **** 	uint32_t *pPinCon = (uint32_t *)&LPC_PINCON->PINSEL0;
  87              		.loc 1 92 0
  88 001c 174B     		ldr	r3, .L3	@ tmp139,
  89 001e FB60     		str	r3, [r7, #12]	@ tmp139, pPinCon
  93:core/lpc17xx_pinsel.c **** 
  94:core/lpc17xx_pinsel.c **** 	if (pinnum_t >= 16) {
  90              		.loc 1 94 0
  91 0020 7B69     		ldr	r3, [r7, #20]	@ tmp140, pinnum_t
  92 0022 0F2B     		cmp	r3, #15	@ tmp140,
  93 0024 05D9     		bls	.L2	@,
  95:core/lpc17xx_pinsel.c **** 		pinnum_t -= 16;
  94              		.loc 1 95 0
  95 0026 7B69     		ldr	r3, [r7, #20]	@ tmp142, pinnum_t
  96 0028 103B     		subs	r3, r3, #16	@ tmp141, tmp142,
  97 002a 7B61     		str	r3, [r7, #20]	@ tmp141, pinnum_t
  96:core/lpc17xx_pinsel.c **** 		pinselreg_idx++;
  98              		.loc 1 96 0
  99 002c 3B69     		ldr	r3, [r7, #16]	@ tmp144, pinselreg_idx
 100 002e 0133     		adds	r3, r3, #1	@ tmp143, tmp144,
 101 0030 3B61     		str	r3, [r7, #16]	@ tmp143, pinselreg_idx
 102              	.L2:
  97:core/lpc17xx_pinsel.c **** 	}
  98:core/lpc17xx_pinsel.c **** 	*(uint32_t *)(pPinCon + pinselreg_idx) &= ~(0x03UL << (pinnum_t * 2));
 103              		.loc 1 98 0
 104 0032 3B69     		ldr	r3, [r7, #16]	@ tmp145, pinselreg_idx
 105 0034 9B00     		lsls	r3, r3, #2	@ D.5441, tmp145,
 106 0036 FA68     		ldr	r2, [r7, #12]	@ tmp146, pPinCon
 107 0038 1344     		add	r3, r3, r2	@ D.5442, tmp146
 108 003a 3A69     		ldr	r2, [r7, #16]	@ tmp147, pinselreg_idx
 109 003c 9200     		lsls	r2, r2, #2	@ D.5441, tmp147,
 110 003e F968     		ldr	r1, [r7, #12]	@ tmp148, pPinCon
 111 0040 0A44     		add	r2, r2, r1	@ D.5442, tmp148
 112 0042 1168     		ldr	r1, [r2]	@ D.5441, *_15
 113 0044 7A69     		ldr	r2, [r7, #20]	@ tmp149, pinnum_t
 114 0046 5200     		lsls	r2, r2, #1	@ D.5441, tmp149,
 115 0048 1046     		mov	r0, r2	@ D.5440, D.5441
 116 004a 0322     		movs	r2, #3	@ tmp150,
 117 004c 8240     		lsls	r2, r2, r0	@ D.5441, tmp150, D.5440
 118 004e D243     		mvns	r2, r2	@ D.5441, D.5441
 119 0050 0A40     		ands	r2, r2, r1	@, D.5441, D.5441, D.5441
 120 0052 1A60     		str	r2, [r3]	@ D.5441, *_13
  99:core/lpc17xx_pinsel.c **** 	*(uint32_t *)(pPinCon + pinselreg_idx) |= ((uint32_t)funcnum) << (pinnum_t * 2);
 121              		.loc 1 99 0
 122 0054 3B69     		ldr	r3, [r7, #16]	@ tmp151, pinselreg_idx
 123 0056 9B00     		lsls	r3, r3, #2	@ D.5441, tmp151,
 124 0058 FA68     		ldr	r2, [r7, #12]	@ tmp152, pPinCon
 125 005a 1344     		add	r3, r3, r2	@ D.5442, tmp152
 126 005c 3A69     		ldr	r2, [r7, #16]	@ tmp153, pinselreg_idx
 127 005e 9200     		lsls	r2, r2, #2	@ D.5441, tmp153,
 128 0060 F968     		ldr	r1, [r7, #12]	@ tmp154, pPinCon
 129 0062 0A44     		add	r2, r2, r1	@ D.5442, tmp154
ARM GAS  C:\Users\COSMIN~1.MAR\AppData\Local\Temp\cc70p0Lk.s 			page 5


 130 0064 1168     		ldr	r1, [r2]	@ D.5441, *_25
 131 0066 7A79     		ldrb	r2, [r7, #5]	@ zero_extendqisi2	@ D.5441, funcnum
 132 0068 7869     		ldr	r0, [r7, #20]	@ tmp155, pinnum_t
 133 006a 4000     		lsls	r0, r0, #1	@ D.5441, tmp155,
 134 006c 8240     		lsls	r2, r2, r0	@ D.5441, D.5441, D.5440
 135 006e 0A43     		orrs	r2, r2, r1	@, D.5441, D.5441, D.5441
 136 0070 1A60     		str	r2, [r3]	@ D.5441, *_23
 100:core/lpc17xx_pinsel.c **** }
 137              		.loc 1 100 0
 138 0072 1C37     		adds	r7, r7, #28	@,,
 139              		.cfi_def_cfa_offset 4
 140 0074 BD46     		mov	sp, r7	@,
 141              		.cfi_def_cfa_register 13
 142              		@ sp needed	@
 143 0076 5DF8047B 		ldr	r7, [sp], #4	@,
 144              		.cfi_restore 7
 145              		.cfi_def_cfa_offset 0
 146 007a 7047     		bx	lr	@
 147              	.L4:
 148              		.align	2
 149              	.L3:
 150 007c 00C00240 		.word	1073922048
 151              		.cfi_endproc
 152              	.LFE55:
 153              		.size	PINSEL_SetPinFunc, .-PINSEL_SetPinFunc
 154              		.section	.text.PINSEL_ConfigTraceFunc,"ax",%progbits
 155              		.align	2
 156              		.global	PINSEL_ConfigTraceFunc
 157              		.thumb
 158              		.thumb_func
 159              		.type	PINSEL_ConfigTraceFunc, %function
 160              	PINSEL_ConfigTraceFunc:
 161              	.LFB56:
 101:core/lpc17xx_pinsel.c **** 
 102:core/lpc17xx_pinsel.c **** 
 103:core/lpc17xx_pinsel.c **** 
 104:core/lpc17xx_pinsel.c **** /*********************************************************************//**
 105:core/lpc17xx_pinsel.c ****  * @brief 		Configure trace function
 106:core/lpc17xx_pinsel.c ****  * @param[in] 	NewState State of the Trace function configuration,
 107:core/lpc17xx_pinsel.c ****  * 				should be one of the following:
 108:core/lpc17xx_pinsel.c ****  * 				- ENABLE : Enable Trace Function
 109:core/lpc17xx_pinsel.c ****  * 				- DISABLE : Disable Trace Function
 110:core/lpc17xx_pinsel.c ****  *
 111:core/lpc17xx_pinsel.c ****  * @return 		None
 112:core/lpc17xx_pinsel.c ****  **********************************************************************/
 113:core/lpc17xx_pinsel.c **** void PINSEL_ConfigTraceFunc(FunctionalState NewState)
 114:core/lpc17xx_pinsel.c **** {
 162              		.loc 1 114 0
 163              		.cfi_startproc
 164              		@ args = 0, pretend = 0, frame = 8
 165              		@ frame_needed = 1, uses_anonymous_args = 0
 166              		@ link register save eliminated.
 167 0000 80B4     		push	{r7}	@
 168              		.cfi_def_cfa_offset 4
 169              		.cfi_offset 7, -4
 170 0002 83B0     		sub	sp, sp, #12	@,,
 171              		.cfi_def_cfa_offset 16
ARM GAS  C:\Users\COSMIN~1.MAR\AppData\Local\Temp\cc70p0Lk.s 			page 6


 172 0004 00AF     		add	r7, sp, #0	@,,
 173              		.cfi_def_cfa_register 7
 174 0006 0346     		mov	r3, r0	@ tmp118, NewState
 175 0008 FB71     		strb	r3, [r7, #7]	@ tmp119, NewState
 115:core/lpc17xx_pinsel.c **** 	if (NewState == ENABLE) {
 176              		.loc 1 115 0
 177 000a FB79     		ldrb	r3, [r7, #7]	@ zero_extendqisi2	@ tmp120, NewState
 178 000c 012B     		cmp	r3, #1	@ tmp120,
 179 000e 06D1     		bne	.L6	@,
 116:core/lpc17xx_pinsel.c **** 		LPC_PINCON->PINSEL10 |= (0x01UL << 3);
 180              		.loc 1 116 0
 181 0010 0A4A     		ldr	r2, .L8	@ D.5443,
 182 0012 0A4B     		ldr	r3, .L8	@ D.5443,
 183 0014 9B6A     		ldr	r3, [r3, #40]	@ D.5444, _3->PINSEL10
 184 0016 43F00803 		orr	r3, r3, #8	@ D.5444, D.5444,
 185 001a 9362     		str	r3, [r2, #40]	@ D.5444, _2->PINSEL10
 186 001c 08E0     		b	.L5	@
 187              	.L6:
 117:core/lpc17xx_pinsel.c **** 	} else if (NewState == DISABLE) {
 188              		.loc 1 117 0
 189 001e FB79     		ldrb	r3, [r7, #7]	@ zero_extendqisi2	@ tmp121, NewState
 190 0020 002B     		cmp	r3, #0	@ tmp121,
 191 0022 05D1     		bne	.L5	@,
 118:core/lpc17xx_pinsel.c **** 		LPC_PINCON->PINSEL10 &= ~(0x01UL << 3);
 192              		.loc 1 118 0
 193 0024 054A     		ldr	r2, .L8	@ D.5443,
 194 0026 054B     		ldr	r3, .L8	@ D.5443,
 195 0028 9B6A     		ldr	r3, [r3, #40]	@ D.5444, _7->PINSEL10
 196 002a 23F00803 		bic	r3, r3, #8	@ D.5444, D.5444,
 197 002e 9362     		str	r3, [r2, #40]	@ D.5444, _6->PINSEL10
 198              	.L5:
 119:core/lpc17xx_pinsel.c **** 	}
 120:core/lpc17xx_pinsel.c **** }
 199              		.loc 1 120 0
 200 0030 0C37     		adds	r7, r7, #12	@,,
 201              		.cfi_def_cfa_offset 4
 202 0032 BD46     		mov	sp, r7	@,
 203              		.cfi_def_cfa_register 13
 204              		@ sp needed	@
 205 0034 5DF8047B 		ldr	r7, [sp], #4	@,
 206              		.cfi_restore 7
 207              		.cfi_def_cfa_offset 0
 208 0038 7047     		bx	lr	@
 209              	.L9:
 210 003a 00BF     		.align	2
 211              	.L8:
 212 003c 00C00240 		.word	1073922048
 213              		.cfi_endproc
 214              	.LFE56:
 215              		.size	PINSEL_ConfigTraceFunc, .-PINSEL_ConfigTraceFunc
 216              		.section	.text.PINSEL_SetResistorMode,"ax",%progbits
 217              		.align	2
 218              		.global	PINSEL_SetResistorMode
 219              		.thumb
 220              		.thumb_func
 221              		.type	PINSEL_SetResistorMode, %function
 222              	PINSEL_SetResistorMode:
ARM GAS  C:\Users\COSMIN~1.MAR\AppData\Local\Temp\cc70p0Lk.s 			page 7


 223              	.LFB57:
 121:core/lpc17xx_pinsel.c **** 
 122:core/lpc17xx_pinsel.c **** 
 123:core/lpc17xx_pinsel.c **** 
 124:core/lpc17xx_pinsel.c **** /*********************************************************************//**
 125:core/lpc17xx_pinsel.c ****  * @brief 		Setup resistor mode for each pin
 126:core/lpc17xx_pinsel.c ****  * @param[in]	portnum PORT number,
 127:core/lpc17xx_pinsel.c ****  * 				should be one of the following:
 128:core/lpc17xx_pinsel.c ****  * 				- PINSEL_PORT_0	: Port 0
 129:core/lpc17xx_pinsel.c ****  * 				- PINSEL_PORT_1	: Port 1
 130:core/lpc17xx_pinsel.c ****  * 				- PINSEL_PORT_2	: Port 2
 131:core/lpc17xx_pinsel.c ****  * 				- PINSEL_PORT_3	: Port 3
 132:core/lpc17xx_pinsel.c ****  * @param[in]	pinnum	Pin number,
 133:core/lpc17xx_pinsel.c ****  * 				should be one of the following:
 134:core/lpc17xx_pinsel.c **** 				- PINSEL_PIN_0 : Pin 0
 135:core/lpc17xx_pinsel.c **** 				- PINSEL_PIN_1 : Pin 1
 136:core/lpc17xx_pinsel.c **** 				- PINSEL_PIN_2 : Pin 2
 137:core/lpc17xx_pinsel.c **** 				- PINSEL_PIN_3 : Pin 3
 138:core/lpc17xx_pinsel.c **** 				- PINSEL_PIN_4 : Pin 4
 139:core/lpc17xx_pinsel.c **** 				- PINSEL_PIN_5 : Pin 5
 140:core/lpc17xx_pinsel.c **** 				- PINSEL_PIN_6 : Pin 6
 141:core/lpc17xx_pinsel.c **** 				- PINSEL_PIN_7 : Pin 7
 142:core/lpc17xx_pinsel.c **** 				- PINSEL_PIN_8 : Pin 8
 143:core/lpc17xx_pinsel.c **** 				- PINSEL_PIN_9 : Pin 9
 144:core/lpc17xx_pinsel.c **** 				- PINSEL_PIN_10 : Pin 10
 145:core/lpc17xx_pinsel.c **** 				- PINSEL_PIN_11 : Pin 11
 146:core/lpc17xx_pinsel.c **** 				- PINSEL_PIN_12 : Pin 12
 147:core/lpc17xx_pinsel.c **** 				- PINSEL_PIN_13 : Pin 13
 148:core/lpc17xx_pinsel.c **** 				- PINSEL_PIN_14 : Pin 14
 149:core/lpc17xx_pinsel.c **** 				- PINSEL_PIN_15 : Pin 15
 150:core/lpc17xx_pinsel.c **** 				- PINSEL_PIN_16 : Pin 16
 151:core/lpc17xx_pinsel.c **** 				- PINSEL_PIN_17 : Pin 17
 152:core/lpc17xx_pinsel.c **** 				- PINSEL_PIN_18 : Pin 18
 153:core/lpc17xx_pinsel.c **** 				- PINSEL_PIN_19 : Pin 19
 154:core/lpc17xx_pinsel.c **** 				- PINSEL_PIN_20 : Pin 20
 155:core/lpc17xx_pinsel.c **** 				- PINSEL_PIN_21 : Pin 21
 156:core/lpc17xx_pinsel.c **** 				- PINSEL_PIN_22 : Pin 22
 157:core/lpc17xx_pinsel.c **** 				- PINSEL_PIN_23 : Pin 23
 158:core/lpc17xx_pinsel.c **** 				- PINSEL_PIN_24 : Pin 24
 159:core/lpc17xx_pinsel.c **** 				- PINSEL_PIN_25 : Pin 25
 160:core/lpc17xx_pinsel.c **** 				- PINSEL_PIN_26 : Pin 26
 161:core/lpc17xx_pinsel.c **** 				- PINSEL_PIN_27 : Pin 27
 162:core/lpc17xx_pinsel.c **** 				- PINSEL_PIN_28 : Pin 28
 163:core/lpc17xx_pinsel.c **** 				- PINSEL_PIN_29 : Pin 29
 164:core/lpc17xx_pinsel.c **** 				- PINSEL_PIN_30 : Pin 30
 165:core/lpc17xx_pinsel.c **** 				- PINSEL_PIN_31 : Pin 31
 166:core/lpc17xx_pinsel.c **** 
 167:core/lpc17xx_pinsel.c ****  * @param[in] 	modenum: Mode number,
 168:core/lpc17xx_pinsel.c ****  * 				should be one of the following:
 169:core/lpc17xx_pinsel.c **** 				- PINSEL_PINMODE_PULLUP	: Internal pull-up resistor
 170:core/lpc17xx_pinsel.c **** 				- PINSEL_PINMODE_TRISTATE : Tri-state
 171:core/lpc17xx_pinsel.c **** 				- PINSEL_PINMODE_PULLDOWN : Internal pull-down resistor
 172:core/lpc17xx_pinsel.c **** 
 173:core/lpc17xx_pinsel.c ****  * @return 		None
 174:core/lpc17xx_pinsel.c ****  **********************************************************************/
 175:core/lpc17xx_pinsel.c **** void PINSEL_SetResistorMode ( uint8_t portnum, uint8_t pinnum, uint8_t modenum)
 176:core/lpc17xx_pinsel.c **** {
ARM GAS  C:\Users\COSMIN~1.MAR\AppData\Local\Temp\cc70p0Lk.s 			page 8


 224              		.loc 1 176 0
 225              		.cfi_startproc
 226              		@ args = 0, pretend = 0, frame = 24
 227              		@ frame_needed = 1, uses_anonymous_args = 0
 228              		@ link register save eliminated.
 229 0000 80B4     		push	{r7}	@
 230              		.cfi_def_cfa_offset 4
 231              		.cfi_offset 7, -4
 232 0002 87B0     		sub	sp, sp, #28	@,,
 233              		.cfi_def_cfa_offset 32
 234 0004 00AF     		add	r7, sp, #0	@,,
 235              		.cfi_def_cfa_register 7
 236 0006 0346     		mov	r3, r0	@ tmp132, portnum
 237 0008 FB71     		strb	r3, [r7, #7]	@ tmp133, portnum
 238 000a 0B46     		mov	r3, r1	@ tmp135, tmp134
 239 000c BB71     		strb	r3, [r7, #6]	@ tmp135, pinnum
 240 000e 1346     		mov	r3, r2	@ tmp137, tmp136
 241 0010 7B71     		strb	r3, [r7, #5]	@ tmp137, modenum
 177:core/lpc17xx_pinsel.c **** 	uint32_t pinnum_t = pinnum;
 242              		.loc 1 177 0
 243 0012 BB79     		ldrb	r3, [r7, #6]	@ zero_extendqisi2	@ tmp138, pinnum
 244 0014 7B61     		str	r3, [r7, #20]	@ tmp138, pinnum_t
 178:core/lpc17xx_pinsel.c **** 	uint32_t pinmodereg_idx = 2 * portnum;
 245              		.loc 1 178 0
 246 0016 FB79     		ldrb	r3, [r7, #7]	@ zero_extendqisi2	@ D.5445, portnum
 247 0018 5B00     		lsls	r3, r3, #1	@ D.5445, D.5445,
 248 001a 3B61     		str	r3, [r7, #16]	@ D.5445, pinmodereg_idx
 179:core/lpc17xx_pinsel.c **** 	uint32_t *pPinCon = (uint32_t *)&LPC_PINCON->PINMODE0;
 249              		.loc 1 179 0
 250 001c 174B     		ldr	r3, .L12	@ tmp139,
 251 001e FB60     		str	r3, [r7, #12]	@ tmp139, pPinCon
 180:core/lpc17xx_pinsel.c **** 
 181:core/lpc17xx_pinsel.c **** 	if (pinnum_t >= 16) {
 252              		.loc 1 181 0
 253 0020 7B69     		ldr	r3, [r7, #20]	@ tmp140, pinnum_t
 254 0022 0F2B     		cmp	r3, #15	@ tmp140,
 255 0024 05D9     		bls	.L11	@,
 182:core/lpc17xx_pinsel.c **** 		pinnum_t -= 16;
 256              		.loc 1 182 0
 257 0026 7B69     		ldr	r3, [r7, #20]	@ tmp142, pinnum_t
 258 0028 103B     		subs	r3, r3, #16	@ tmp141, tmp142,
 259 002a 7B61     		str	r3, [r7, #20]	@ tmp141, pinnum_t
 183:core/lpc17xx_pinsel.c **** 		pinmodereg_idx++ ;
 260              		.loc 1 183 0
 261 002c 3B69     		ldr	r3, [r7, #16]	@ tmp144, pinmodereg_idx
 262 002e 0133     		adds	r3, r3, #1	@ tmp143, tmp144,
 263 0030 3B61     		str	r3, [r7, #16]	@ tmp143, pinmodereg_idx
 264              	.L11:
 184:core/lpc17xx_pinsel.c **** 	}
 185:core/lpc17xx_pinsel.c **** 
 186:core/lpc17xx_pinsel.c **** 	*(uint32_t *)(pPinCon + pinmodereg_idx) &= ~(0x03UL << (pinnum_t * 2));
 265              		.loc 1 186 0
 266 0032 3B69     		ldr	r3, [r7, #16]	@ tmp145, pinmodereg_idx
 267 0034 9B00     		lsls	r3, r3, #2	@ D.5446, tmp145,
 268 0036 FA68     		ldr	r2, [r7, #12]	@ tmp146, pPinCon
 269 0038 1344     		add	r3, r3, r2	@ D.5447, tmp146
 270 003a 3A69     		ldr	r2, [r7, #16]	@ tmp147, pinmodereg_idx
ARM GAS  C:\Users\COSMIN~1.MAR\AppData\Local\Temp\cc70p0Lk.s 			page 9


 271 003c 9200     		lsls	r2, r2, #2	@ D.5446, tmp147,
 272 003e F968     		ldr	r1, [r7, #12]	@ tmp148, pPinCon
 273 0040 0A44     		add	r2, r2, r1	@ D.5447, tmp148
 274 0042 1168     		ldr	r1, [r2]	@ D.5446, *_15
 275 0044 7A69     		ldr	r2, [r7, #20]	@ tmp149, pinnum_t
 276 0046 5200     		lsls	r2, r2, #1	@ D.5446, tmp149,
 277 0048 1046     		mov	r0, r2	@ D.5445, D.5446
 278 004a 0322     		movs	r2, #3	@ tmp150,
 279 004c 8240     		lsls	r2, r2, r0	@ D.5446, tmp150, D.5445
 280 004e D243     		mvns	r2, r2	@ D.5446, D.5446
 281 0050 0A40     		ands	r2, r2, r1	@, D.5446, D.5446, D.5446
 282 0052 1A60     		str	r2, [r3]	@ D.5446, *_13
 187:core/lpc17xx_pinsel.c **** 	*(uint32_t *)(pPinCon + pinmodereg_idx) |= ((uint32_t)modenum) << (pinnum_t * 2);
 283              		.loc 1 187 0
 284 0054 3B69     		ldr	r3, [r7, #16]	@ tmp151, pinmodereg_idx
 285 0056 9B00     		lsls	r3, r3, #2	@ D.5446, tmp151,
 286 0058 FA68     		ldr	r2, [r7, #12]	@ tmp152, pPinCon
 287 005a 1344     		add	r3, r3, r2	@ D.5447, tmp152
 288 005c 3A69     		ldr	r2, [r7, #16]	@ tmp153, pinmodereg_idx
 289 005e 9200     		lsls	r2, r2, #2	@ D.5446, tmp153,
 290 0060 F968     		ldr	r1, [r7, #12]	@ tmp154, pPinCon
 291 0062 0A44     		add	r2, r2, r1	@ D.5447, tmp154
 292 0064 1168     		ldr	r1, [r2]	@ D.5446, *_25
 293 0066 7A79     		ldrb	r2, [r7, #5]	@ zero_extendqisi2	@ D.5446, modenum
 294 0068 7869     		ldr	r0, [r7, #20]	@ tmp155, pinnum_t
 295 006a 4000     		lsls	r0, r0, #1	@ D.5446, tmp155,
 296 006c 8240     		lsls	r2, r2, r0	@ D.5446, D.5446, D.5445
 297 006e 0A43     		orrs	r2, r2, r1	@, D.5446, D.5446, D.5446
 298 0070 1A60     		str	r2, [r3]	@ D.5446, *_23
 188:core/lpc17xx_pinsel.c **** }
 299              		.loc 1 188 0
 300 0072 1C37     		adds	r7, r7, #28	@,,
 301              		.cfi_def_cfa_offset 4
 302 0074 BD46     		mov	sp, r7	@,
 303              		.cfi_def_cfa_register 13
 304              		@ sp needed	@
 305 0076 5DF8047B 		ldr	r7, [sp], #4	@,
 306              		.cfi_restore 7
 307              		.cfi_def_cfa_offset 0
 308 007a 7047     		bx	lr	@
 309              	.L13:
 310              		.align	2
 311              	.L12:
 312 007c 40C00240 		.word	1073922112
 313              		.cfi_endproc
 314              	.LFE57:
 315              		.size	PINSEL_SetResistorMode, .-PINSEL_SetResistorMode
 316              		.section	.text.PINSEL_SetOpenDrainMode,"ax",%progbits
 317              		.align	2
 318              		.global	PINSEL_SetOpenDrainMode
 319              		.thumb
 320              		.thumb_func
 321              		.type	PINSEL_SetOpenDrainMode, %function
 322              	PINSEL_SetOpenDrainMode:
 323              	.LFB58:
 189:core/lpc17xx_pinsel.c **** 
 190:core/lpc17xx_pinsel.c **** 
ARM GAS  C:\Users\COSMIN~1.MAR\AppData\Local\Temp\cc70p0Lk.s 			page 10


 191:core/lpc17xx_pinsel.c **** 
 192:core/lpc17xx_pinsel.c **** /*********************************************************************//**
 193:core/lpc17xx_pinsel.c ****  * @brief 		Setup Open drain mode for each pin
 194:core/lpc17xx_pinsel.c ****  * @param[in]	portnum PORT number,
 195:core/lpc17xx_pinsel.c ****  * 				should be one of the following:
 196:core/lpc17xx_pinsel.c ****  * 				- PINSEL_PORT_0	: Port 0
 197:core/lpc17xx_pinsel.c ****  * 				- PINSEL_PORT_1	: Port 1
 198:core/lpc17xx_pinsel.c ****  * 				- PINSEL_PORT_2	: Port 2
 199:core/lpc17xx_pinsel.c ****  * 				- PINSEL_PORT_3	: Port 3
 200:core/lpc17xx_pinsel.c ****  *
 201:core/lpc17xx_pinsel.c ****  * @param[in]	pinnum	Pin number,
 202:core/lpc17xx_pinsel.c ****  * 				should be one of the following:
 203:core/lpc17xx_pinsel.c **** 				- PINSEL_PIN_0 : Pin 0
 204:core/lpc17xx_pinsel.c **** 				- PINSEL_PIN_1 : Pin 1
 205:core/lpc17xx_pinsel.c **** 				- PINSEL_PIN_2 : Pin 2
 206:core/lpc17xx_pinsel.c **** 				- PINSEL_PIN_3 : Pin 3
 207:core/lpc17xx_pinsel.c **** 				- PINSEL_PIN_4 : Pin 4
 208:core/lpc17xx_pinsel.c **** 				- PINSEL_PIN_5 : Pin 5
 209:core/lpc17xx_pinsel.c **** 				- PINSEL_PIN_6 : Pin 6
 210:core/lpc17xx_pinsel.c **** 				- PINSEL_PIN_7 : Pin 7
 211:core/lpc17xx_pinsel.c **** 				- PINSEL_PIN_8 : Pin 8
 212:core/lpc17xx_pinsel.c **** 				- PINSEL_PIN_9 : Pin 9
 213:core/lpc17xx_pinsel.c **** 				- PINSEL_PIN_10 : Pin 10
 214:core/lpc17xx_pinsel.c **** 				- PINSEL_PIN_11 : Pin 11
 215:core/lpc17xx_pinsel.c **** 				- PINSEL_PIN_12 : Pin 12
 216:core/lpc17xx_pinsel.c **** 				- PINSEL_PIN_13 : Pin 13
 217:core/lpc17xx_pinsel.c **** 				- PINSEL_PIN_14 : Pin 14
 218:core/lpc17xx_pinsel.c **** 				- PINSEL_PIN_15 : Pin 15
 219:core/lpc17xx_pinsel.c **** 				- PINSEL_PIN_16 : Pin 16
 220:core/lpc17xx_pinsel.c **** 				- PINSEL_PIN_17 : Pin 17
 221:core/lpc17xx_pinsel.c **** 				- PINSEL_PIN_18 : Pin 18
 222:core/lpc17xx_pinsel.c **** 				- PINSEL_PIN_19 : Pin 19
 223:core/lpc17xx_pinsel.c **** 				- PINSEL_PIN_20 : Pin 20
 224:core/lpc17xx_pinsel.c **** 				- PINSEL_PIN_21 : Pin 21
 225:core/lpc17xx_pinsel.c **** 				- PINSEL_PIN_22 : Pin 22
 226:core/lpc17xx_pinsel.c **** 				- PINSEL_PIN_23 : Pin 23
 227:core/lpc17xx_pinsel.c **** 				- PINSEL_PIN_24 : Pin 24
 228:core/lpc17xx_pinsel.c **** 				- PINSEL_PIN_25 : Pin 25
 229:core/lpc17xx_pinsel.c **** 				- PINSEL_PIN_26 : Pin 26
 230:core/lpc17xx_pinsel.c **** 				- PINSEL_PIN_27 : Pin 27
 231:core/lpc17xx_pinsel.c **** 				- PINSEL_PIN_28 : Pin 28
 232:core/lpc17xx_pinsel.c **** 				- PINSEL_PIN_29 : Pin 29
 233:core/lpc17xx_pinsel.c **** 				- PINSEL_PIN_30 : Pin 30
 234:core/lpc17xx_pinsel.c **** 				- PINSEL_PIN_31 : Pin 31
 235:core/lpc17xx_pinsel.c **** 
 236:core/lpc17xx_pinsel.c ****  * @param[in]	modenum  Open drain mode number,
 237:core/lpc17xx_pinsel.c ****  * 				should be one of the following:
 238:core/lpc17xx_pinsel.c ****  * 				- PINSEL_PINMODE_NORMAL : Pin is in the normal (not open drain) mode
 239:core/lpc17xx_pinsel.c ****  * 				- PINSEL_PINMODE_OPENDRAIN : Pin is in the open drain mode
 240:core/lpc17xx_pinsel.c ****  *
 241:core/lpc17xx_pinsel.c ****  * @return 		None
 242:core/lpc17xx_pinsel.c ****  **********************************************************************/
 243:core/lpc17xx_pinsel.c **** void PINSEL_SetOpenDrainMode( uint8_t portnum, uint8_t pinnum, uint8_t modenum)
 244:core/lpc17xx_pinsel.c **** {
 324              		.loc 1 244 0
 325              		.cfi_startproc
 326              		@ args = 0, pretend = 0, frame = 16
ARM GAS  C:\Users\COSMIN~1.MAR\AppData\Local\Temp\cc70p0Lk.s 			page 11


 327              		@ frame_needed = 1, uses_anonymous_args = 0
 328              		@ link register save eliminated.
 329 0000 80B4     		push	{r7}	@
 330              		.cfi_def_cfa_offset 4
 331              		.cfi_offset 7, -4
 332 0002 85B0     		sub	sp, sp, #20	@,,
 333              		.cfi_def_cfa_offset 24
 334 0004 00AF     		add	r7, sp, #0	@,,
 335              		.cfi_def_cfa_register 7
 336 0006 0346     		mov	r3, r0	@ tmp131, portnum
 337 0008 FB71     		strb	r3, [r7, #7]	@ tmp132, portnum
 338 000a 0B46     		mov	r3, r1	@ tmp134, tmp133
 339 000c BB71     		strb	r3, [r7, #6]	@ tmp134, pinnum
 340 000e 1346     		mov	r3, r2	@ tmp136, tmp135
 341 0010 7B71     		strb	r3, [r7, #5]	@ tmp136, modenum
 245:core/lpc17xx_pinsel.c **** 	uint32_t *pPinCon = (uint32_t *)&LPC_PINCON->PINMODE_OD0;
 342              		.loc 1 245 0
 343 0012 154B     		ldr	r3, .L17	@ tmp137,
 344 0014 FB60     		str	r3, [r7, #12]	@ tmp137, pPinCon
 246:core/lpc17xx_pinsel.c **** 
 247:core/lpc17xx_pinsel.c **** 	if (modenum == PINSEL_PINMODE_OPENDRAIN){
 345              		.loc 1 247 0
 346 0016 7B79     		ldrb	r3, [r7, #5]	@ zero_extendqisi2	@ tmp138, modenum
 347 0018 012B     		cmp	r3, #1	@ tmp138,
 348 001a 0FD1     		bne	.L15	@,
 248:core/lpc17xx_pinsel.c **** 		*(uint32_t *)(pPinCon + portnum) |= (0x01UL << pinnum);
 349              		.loc 1 248 0
 350 001c FB79     		ldrb	r3, [r7, #7]	@ zero_extendqisi2	@ D.5448, portnum
 351 001e 9B00     		lsls	r3, r3, #2	@ D.5448, D.5448,
 352 0020 FA68     		ldr	r2, [r7, #12]	@ tmp139, pPinCon
 353 0022 1344     		add	r3, r3, r2	@ D.5449, tmp139
 354 0024 FA79     		ldrb	r2, [r7, #7]	@ zero_extendqisi2	@ D.5448, portnum
 355 0026 9200     		lsls	r2, r2, #2	@ D.5448, D.5448,
 356 0028 F968     		ldr	r1, [r7, #12]	@ tmp140, pPinCon
 357 002a 0A44     		add	r2, r2, r1	@ D.5449, tmp140
 358 002c 1168     		ldr	r1, [r2]	@ D.5450, *_9
 359 002e BA79     		ldrb	r2, [r7, #6]	@ zero_extendqisi2	@ D.5451, pinnum
 360 0030 0120     		movs	r0, #1	@ tmp141,
 361 0032 00FA02F2 		lsl	r2, r0, r2	@ D.5450, tmp141, D.5451
 362 0036 0A43     		orrs	r2, r2, r1	@, D.5450, D.5450, D.5450
 363 0038 1A60     		str	r2, [r3]	@ D.5450, *_6
 364 003a 0FE0     		b	.L14	@
 365              	.L15:
 249:core/lpc17xx_pinsel.c **** 	} else {
 250:core/lpc17xx_pinsel.c **** 		*(uint32_t *)(pPinCon + portnum) &= ~(0x01UL << pinnum);
 366              		.loc 1 250 0
 367 003c FB79     		ldrb	r3, [r7, #7]	@ zero_extendqisi2	@ D.5448, portnum
 368 003e 9B00     		lsls	r3, r3, #2	@ D.5448, D.5448,
 369 0040 FA68     		ldr	r2, [r7, #12]	@ tmp142, pPinCon
 370 0042 1344     		add	r3, r3, r2	@ D.5449, tmp142
 371 0044 FA79     		ldrb	r2, [r7, #7]	@ zero_extendqisi2	@ D.5448, portnum
 372 0046 9200     		lsls	r2, r2, #2	@ D.5448, D.5448,
 373 0048 F968     		ldr	r1, [r7, #12]	@ tmp143, pPinCon
 374 004a 0A44     		add	r2, r2, r1	@ D.5449, tmp143
 375 004c 1168     		ldr	r1, [r2]	@ D.5450, *_20
 376 004e BA79     		ldrb	r2, [r7, #6]	@ zero_extendqisi2	@ D.5451, pinnum
 377 0050 0120     		movs	r0, #1	@ tmp144,
ARM GAS  C:\Users\COSMIN~1.MAR\AppData\Local\Temp\cc70p0Lk.s 			page 12


 378 0052 00FA02F2 		lsl	r2, r0, r2	@ D.5450, tmp144, D.5451
 379 0056 D243     		mvns	r2, r2	@ D.5450, D.5450
 380 0058 0A40     		ands	r2, r2, r1	@, D.5450, D.5450, D.5450
 381 005a 1A60     		str	r2, [r3]	@ D.5450, *_17
 382              	.L14:
 251:core/lpc17xx_pinsel.c **** 	}
 252:core/lpc17xx_pinsel.c **** }
 383              		.loc 1 252 0
 384 005c 1437     		adds	r7, r7, #20	@,,
 385              		.cfi_def_cfa_offset 4
 386 005e BD46     		mov	sp, r7	@,
 387              		.cfi_def_cfa_register 13
 388              		@ sp needed	@
 389 0060 5DF8047B 		ldr	r7, [sp], #4	@,
 390              		.cfi_restore 7
 391              		.cfi_def_cfa_offset 0
 392 0064 7047     		bx	lr	@
 393              	.L18:
 394 0066 00BF     		.align	2
 395              	.L17:
 396 0068 68C00240 		.word	1073922152
 397              		.cfi_endproc
 398              	.LFE58:
 399              		.size	PINSEL_SetOpenDrainMode, .-PINSEL_SetOpenDrainMode
 400              		.section	.text.PINSEL_SetI2C0Pins,"ax",%progbits
 401              		.align	2
 402              		.global	PINSEL_SetI2C0Pins
 403              		.thumb
 404              		.thumb_func
 405              		.type	PINSEL_SetI2C0Pins, %function
 406              	PINSEL_SetI2C0Pins:
 407              	.LFB59:
 253:core/lpc17xx_pinsel.c **** 
 254:core/lpc17xx_pinsel.c **** 
 255:core/lpc17xx_pinsel.c **** 
 256:core/lpc17xx_pinsel.c **** /*********************************************************************//**
 257:core/lpc17xx_pinsel.c ****  * @brief 		Setup I2C0 pins
 258:core/lpc17xx_pinsel.c ****  * @param[in]	i2cPinMode I2C pin mode,
 259:core/lpc17xx_pinsel.c ****  * 				should be one of the following:
 260:core/lpc17xx_pinsel.c ****  * 				- PINSEL_I2C_Normal_Mode : The standard drive mode
 261:core/lpc17xx_pinsel.c ****  * 				- PINSEL_I2C_Fast_Mode : Fast Mode Plus drive mode
 262:core/lpc17xx_pinsel.c ****  *
 263:core/lpc17xx_pinsel.c ****  * @param[in]	filterSlewRateEnable  should be:
 264:core/lpc17xx_pinsel.c ****  * 				- ENABLE: Enable filter and slew rate.
 265:core/lpc17xx_pinsel.c ****  * 				- DISABLE: Disable filter and slew rate.
 266:core/lpc17xx_pinsel.c ****  *
 267:core/lpc17xx_pinsel.c ****  * @return 		None
 268:core/lpc17xx_pinsel.c ****  **********************************************************************/
 269:core/lpc17xx_pinsel.c **** void PINSEL_SetI2C0Pins(uint8_t i2cPinMode, FunctionalState filterSlewRateEnable)
 270:core/lpc17xx_pinsel.c **** {
 408              		.loc 1 270 0
 409              		.cfi_startproc
 410              		@ args = 0, pretend = 0, frame = 16
 411              		@ frame_needed = 1, uses_anonymous_args = 0
 412              		@ link register save eliminated.
 413 0000 80B4     		push	{r7}	@
 414              		.cfi_def_cfa_offset 4
ARM GAS  C:\Users\COSMIN~1.MAR\AppData\Local\Temp\cc70p0Lk.s 			page 13


 415              		.cfi_offset 7, -4
 416 0002 85B0     		sub	sp, sp, #20	@,,
 417              		.cfi_def_cfa_offset 24
 418 0004 00AF     		add	r7, sp, #0	@,,
 419              		.cfi_def_cfa_register 7
 420 0006 0346     		mov	r3, r0	@ tmp111, i2cPinMode
 421 0008 0A46     		mov	r2, r1	@ tmp113, filterSlewRateEnable
 422 000a FB71     		strb	r3, [r7, #7]	@ tmp112, i2cPinMode
 423 000c 1346     		mov	r3, r2	@ tmp114, tmp113
 424 000e BB71     		strb	r3, [r7, #6]	@ tmp114, filterSlewRateEnable
 271:core/lpc17xx_pinsel.c **** 	uint32_t regVal;
 272:core/lpc17xx_pinsel.c **** 
 273:core/lpc17xx_pinsel.c **** 	if (i2cPinMode == PINSEL_I2C_Fast_Mode){
 425              		.loc 1 273 0
 426 0010 FB79     		ldrb	r3, [r7, #7]	@ zero_extendqisi2	@ tmp115, i2cPinMode
 427 0012 012B     		cmp	r3, #1	@ tmp115,
 428 0014 01D1     		bne	.L20	@,
 274:core/lpc17xx_pinsel.c **** 		regVal = PINSEL_I2CPADCFG_SCLDRV0 | PINSEL_I2CPADCFG_SDADRV0;
 429              		.loc 1 274 0
 430 0016 0523     		movs	r3, #5	@ tmp116,
 431 0018 FB60     		str	r3, [r7, #12]	@ tmp116, regVal
 432              	.L20:
 275:core/lpc17xx_pinsel.c **** 	}
 276:core/lpc17xx_pinsel.c **** 
 277:core/lpc17xx_pinsel.c **** 	if (filterSlewRateEnable == DISABLE){
 433              		.loc 1 277 0
 434 001a BB79     		ldrb	r3, [r7, #6]	@ zero_extendqisi2	@ tmp117, filterSlewRateEnable
 435 001c 002B     		cmp	r3, #0	@ tmp117,
 436 001e 01D1     		bne	.L21	@,
 278:core/lpc17xx_pinsel.c **** 		regVal = PINSEL_I2CPADCFG_SCLI2C0 | PINSEL_I2CPADCFG_SDAI2C0;
 437              		.loc 1 278 0
 438 0020 0A23     		movs	r3, #10	@ tmp118,
 439 0022 FB60     		str	r3, [r7, #12]	@ tmp118, regVal
 440              	.L21:
 279:core/lpc17xx_pinsel.c **** 	}
 280:core/lpc17xx_pinsel.c **** 	LPC_PINCON->I2CPADCFG = regVal;
 441              		.loc 1 280 0
 442 0024 034A     		ldr	r2, .L22	@ D.5452,
 443 0026 FB68     		ldr	r3, [r7, #12]	@ tmp119, regVal
 444 0028 D367     		str	r3, [r2, #124]	@ tmp119, _8->I2CPADCFG
 281:core/lpc17xx_pinsel.c **** }
 445              		.loc 1 281 0
 446 002a 1437     		adds	r7, r7, #20	@,,
 447              		.cfi_def_cfa_offset 4
 448 002c BD46     		mov	sp, r7	@,
 449              		.cfi_def_cfa_register 13
 450              		@ sp needed	@
 451 002e 5DF8047B 		ldr	r7, [sp], #4	@,
 452              		.cfi_restore 7
 453              		.cfi_def_cfa_offset 0
 454 0032 7047     		bx	lr	@
 455              	.L23:
 456              		.align	2
 457              	.L22:
 458 0034 00C00240 		.word	1073922048
 459              		.cfi_endproc
 460              	.LFE59:
ARM GAS  C:\Users\COSMIN~1.MAR\AppData\Local\Temp\cc70p0Lk.s 			page 14


 461              		.size	PINSEL_SetI2C0Pins, .-PINSEL_SetI2C0Pins
 462              		.section	.text.PINSEL_ConfigPin,"ax",%progbits
 463              		.align	2
 464              		.global	PINSEL_ConfigPin
 465              		.thumb
 466              		.thumb_func
 467              		.type	PINSEL_ConfigPin, %function
 468              	PINSEL_ConfigPin:
 469              	.LFB60:
 282:core/lpc17xx_pinsel.c **** 
 283:core/lpc17xx_pinsel.c **** 
 284:core/lpc17xx_pinsel.c **** /*********************************************************************//**
 285:core/lpc17xx_pinsel.c ****  * @brief 		Configure Pin corresponding to specified parameters passed
 286:core/lpc17xx_pinsel.c ****  * 				in the PinCfg
 287:core/lpc17xx_pinsel.c ****  * @param[in]	PinCfg	Pointer to a PINSEL_CFG_Type structure
 288:core/lpc17xx_pinsel.c ****  *                    that contains the configuration information for the
 289:core/lpc17xx_pinsel.c ****  *                    specified pin.
 290:core/lpc17xx_pinsel.c ****  * @return 		None
 291:core/lpc17xx_pinsel.c ****  **********************************************************************/
 292:core/lpc17xx_pinsel.c **** void PINSEL_ConfigPin(PINSEL_CFG_Type *PinCfg)
 293:core/lpc17xx_pinsel.c **** {
 470              		.loc 1 293 0
 471              		.cfi_startproc
 472              		@ args = 0, pretend = 0, frame = 8
 473              		@ frame_needed = 1, uses_anonymous_args = 0
 474 0000 80B5     		push	{r7, lr}	@
 475              		.cfi_def_cfa_offset 8
 476              		.cfi_offset 7, -8
 477              		.cfi_offset 14, -4
 478 0002 82B0     		sub	sp, sp, #8	@,,
 479              		.cfi_def_cfa_offset 16
 480 0004 00AF     		add	r7, sp, #0	@,,
 481              		.cfi_def_cfa_register 7
 482 0006 7860     		str	r0, [r7, #4]	@ PinCfg, PinCfg
 294:core/lpc17xx_pinsel.c **** 	PINSEL_SetPinFunc(PinCfg->Portnum, PinCfg->Pinnum, PinCfg->Funcnum);
 483              		.loc 1 294 0
 484 0008 7B68     		ldr	r3, [r7, #4]	@ tmp119, PinCfg
 485 000a 1978     		ldrb	r1, [r3]	@ zero_extendqisi2	@ D.5453, PinCfg_1(D)->Portnum
 486 000c 7B68     		ldr	r3, [r7, #4]	@ tmp120, PinCfg
 487 000e 5A78     		ldrb	r2, [r3, #1]	@ zero_extendqisi2	@ D.5453, PinCfg_1(D)->Pinnum
 488 0010 7B68     		ldr	r3, [r7, #4]	@ tmp121, PinCfg
 489 0012 9B78     		ldrb	r3, [r3, #2]	@ zero_extendqisi2	@ D.5453, PinCfg_1(D)->Funcnum
 490 0014 0846     		mov	r0, r1	@, D.5453
 491 0016 1146     		mov	r1, r2	@, D.5453
 492 0018 1A46     		mov	r2, r3	@, D.5453
 493 001a FFF7FEFF 		bl	PINSEL_SetPinFunc	@
 295:core/lpc17xx_pinsel.c **** 	PINSEL_SetResistorMode(PinCfg->Portnum, PinCfg->Pinnum, PinCfg->Pinmode);
 494              		.loc 1 295 0
 495 001e 7B68     		ldr	r3, [r7, #4]	@ tmp122, PinCfg
 496 0020 1978     		ldrb	r1, [r3]	@ zero_extendqisi2	@ D.5453, PinCfg_1(D)->Portnum
 497 0022 7B68     		ldr	r3, [r7, #4]	@ tmp123, PinCfg
 498 0024 5A78     		ldrb	r2, [r3, #1]	@ zero_extendqisi2	@ D.5453, PinCfg_1(D)->Pinnum
 499 0026 7B68     		ldr	r3, [r7, #4]	@ tmp124, PinCfg
 500 0028 DB78     		ldrb	r3, [r3, #3]	@ zero_extendqisi2	@ D.5453, PinCfg_1(D)->Pinmode
 501 002a 0846     		mov	r0, r1	@, D.5453
 502 002c 1146     		mov	r1, r2	@, D.5453
 503 002e 1A46     		mov	r2, r3	@, D.5453
ARM GAS  C:\Users\COSMIN~1.MAR\AppData\Local\Temp\cc70p0Lk.s 			page 15


 504 0030 FFF7FEFF 		bl	PINSEL_SetResistorMode	@
 296:core/lpc17xx_pinsel.c **** 	PINSEL_SetOpenDrainMode(PinCfg->Portnum, PinCfg->Pinnum, PinCfg->OpenDrain);
 505              		.loc 1 296 0
 506 0034 7B68     		ldr	r3, [r7, #4]	@ tmp125, PinCfg
 507 0036 1978     		ldrb	r1, [r3]	@ zero_extendqisi2	@ D.5453, PinCfg_1(D)->Portnum
 508 0038 7B68     		ldr	r3, [r7, #4]	@ tmp126, PinCfg
 509 003a 5A78     		ldrb	r2, [r3, #1]	@ zero_extendqisi2	@ D.5453, PinCfg_1(D)->Pinnum
 510 003c 7B68     		ldr	r3, [r7, #4]	@ tmp127, PinCfg
 511 003e 1B79     		ldrb	r3, [r3, #4]	@ zero_extendqisi2	@ D.5453, PinCfg_1(D)->OpenDrain
 512 0040 0846     		mov	r0, r1	@, D.5453
 513 0042 1146     		mov	r1, r2	@, D.5453
 514 0044 1A46     		mov	r2, r3	@, D.5453
 515 0046 FFF7FEFF 		bl	PINSEL_SetOpenDrainMode	@
 297:core/lpc17xx_pinsel.c **** }
 516              		.loc 1 297 0
 517 004a 0837     		adds	r7, r7, #8	@,,
 518              		.cfi_def_cfa_offset 8
 519 004c BD46     		mov	sp, r7	@,
 520              		.cfi_def_cfa_register 13
 521              		@ sp needed	@
 522 004e 80BD     		pop	{r7, pc}	@
 523              		.cfi_endproc
 524              	.LFE60:
 525              		.size	PINSEL_ConfigPin, .-PINSEL_ConfigPin
 526              		.text
 527              	.Letext0:
 528              		.file 2 "c:\\gnu tools arm embedded\\4.9 2015q1\\arm-none-eabi\\include\\machine\\_default_types.h
 529              		.file 3 "c:\\gnu tools arm embedded\\4.9 2015q1\\arm-none-eabi\\include\\stdint.h"
 530              		.file 4 "system/LPC17xx.h"
 531              		.file 5 "core/lpc_types.h"
 532              		.file 6 "core/lpc17xx_pinsel.h"
 533              		.file 7 "system/core_cm3.h"