ARM GAS  C:\Users\COSMIN~1.MAR\AppData\Local\Temp\ccJVXHYk.s 			page 1


   1              		.syntax unified
   2              		.cpu cortex-m3
   3              		.fpu softvfp
   4              		.eabi_attribute 20, 1	@ Tag_ABI_FP_denormal
   5              		.eabi_attribute 21, 1	@ Tag_ABI_FP_exceptions
   6              		.eabi_attribute 23, 3	@ Tag_ABI_FP_number_model
   7              		.eabi_attribute 24, 1	@ Tag_ABI_align8_needed
   8              		.eabi_attribute 25, 1	@ Tag_ABI_align8_preserved
   9              		.eabi_attribute 26, 1	@ Tag_ABI_enum_size
  10              		.eabi_attribute 30, 6	@ Tag_ABI_optimization_goals
  11              		.eabi_attribute 34, 1	@ Tag_CPU_unaligned_access
  12              		.eabi_attribute 18, 4	@ Tag_ABI_PCS_wchar_t
  13              		.file	"lpc17xx_gpio.c"
  14              	@ GNU C (GNU Tools for ARM Embedded Processors) version 4.9.3 20150303 (release) [ARM/embedded-4_9-
  15              	@	compiled by GNU C version 4.7.4, GMP version 4.3.2, MPFR version 2.4.2, MPC version 0.8.1
  16              	@ GGC heuristics: --param ggc-min-expand=100 --param ggc-min-heapsize=131072
  17              	@ options passed:  -I . -I config -I system -I core -I drivers -I FreeRTOS
  18              	@ -I FreeRTOS/include -I FreeRTOS/portable/GCC/ARM_CM3 -I FreeRTOS/portable
  19              	@ -I tasks/rc_task_leds -I modules/rc_leds -I drivers/rc_system
  20              	@ -I drivers/rc_gpio -I drivers/rc_uart -I drivers/rc_pinsel
  21              	@ -I drivers/rc_timer -I drivers/rc_adc -imultilib armv7-m
  22              	@ -iprefix c:\gnu tools arm embedded\4.9 2015q1\bin\../lib/gcc/arm-none-eabi/4.9.3/
  23              	@ -isysroot c:\gnu tools arm embedded\4.9 2015q1\bin\../arm-none-eabi
  24              	@ -MD out/lpc17xx_gpio.d -MF out/lpc17xx_gpio.d -MP -MQ out/lpc17xx_gpio.o
  25              	@ -D__USES_INITFINI__ core/lpc17xx_gpio.c -mcpu=cortex-m3 -mthumb
  26              	@ -auxbase-strip out/lpc17xx_gpio.o -g -ggdb3 -O0 -Wall -Wstrict-prototypes
  27              	@ -Wextra -std=gnu90 -ffunction-sections -fdata-sections -fverbose-asm
  28              	@ options enabled:  -faggressive-loop-optimizations -fauto-inc-dec -fcommon
  29              	@ -fdata-sections -fdelete-null-pointer-checks -fdwarf2-cfi-asm
  30              	@ -fearly-inlining -feliminate-unused-debug-types -ffunction-cse
  31              	@ -ffunction-sections -fgcse-lm -fgnu-runtime -fgnu-unique -fident
  32              	@ -finline-atomics -fira-hoist-pressure -fira-share-save-slots
  33              	@ -fira-share-spill-slots -fivopts -fkeep-static-consts
  34              	@ -fleading-underscore -flifetime-dse -fmath-errno -fmerge-debug-strings
  35              	@ -fpeephole -fprefetch-loop-arrays -freg-struct-return
  36              	@ -fsched-critical-path-heuristic -fsched-dep-count-heuristic
  37              	@ -fsched-group-heuristic -fsched-interblock -fsched-last-insn-heuristic
  38              	@ -fsched-rank-heuristic -fsched-spec -fsched-spec-insn-heuristic
  39              	@ -fsched-stalled-insns-dep -fshow-column -fsigned-zeros
  40              	@ -fsplit-ivs-in-unroller -fstrict-volatile-bitfields -fsync-libcalls
  41              	@ -ftrapping-math -ftree-coalesce-vars -ftree-cselim -ftree-forwprop
  42              	@ -ftree-loop-if-convert -ftree-loop-im -ftree-loop-ivcanon
  43              	@ -ftree-loop-optimize -ftree-parallelize-loops= -ftree-phiprop
  44              	@ -ftree-reassoc -ftree-scev-cprop -funit-at-a-time -fverbose-asm
  45              	@ -fzero-initialized-in-bss -mfix-cortex-m3-ldrd -mlittle-endian -mlra
  46              	@ -mpic-data-is-text-relative -msched-prolog -mthumb -munaligned-access
  47              	@ -mvectorize-with-neon-quad
  48              	
  49              		.text
  50              	.Ltext0:
  51              		.cfi_sections	.debug_frame
  52              		.section	.text.GPIO_GetPointer,"ax",%progbits
  53              		.align	2
  54              		.thumb
  55              		.thumb_func
  56              		.type	GPIO_GetPointer, %function
  57              	GPIO_GetPointer:
ARM GAS  C:\Users\COSMIN~1.MAR\AppData\Local\Temp\ccJVXHYk.s 			page 2


  58              	.LFB55:
  59              		.file 1 "core/lpc17xx_gpio.c"
   1:core/lpc17xx_gpio.c **** /***********************************************************************//**
   2:core/lpc17xx_gpio.c ****  * @file		lpc17xx_gpio.c
   3:core/lpc17xx_gpio.c ****  * @brief		Contains all functions support for GPIO firmware library on LPC17xx
   4:core/lpc17xx_gpio.c ****  * @version		2.0
   5:core/lpc17xx_gpio.c ****  * @date		21. May. 2010
   6:core/lpc17xx_gpio.c ****  * @author		NXP MCU SW Application Team
   7:core/lpc17xx_gpio.c ****  **************************************************************************
   8:core/lpc17xx_gpio.c ****  * Software that is described herein is for illustrative purposes only
   9:core/lpc17xx_gpio.c ****  * which provides customers with programming information regarding the
  10:core/lpc17xx_gpio.c ****  * products. This software is supplied "AS IS" without any warranties.
  11:core/lpc17xx_gpio.c ****  * NXP Semiconductors assumes no responsibility or liability for the
  12:core/lpc17xx_gpio.c ****  * use of the software, conveys no license or title under any patent,
  13:core/lpc17xx_gpio.c ****  * copyright, or mask work right to the product. NXP Semiconductors
  14:core/lpc17xx_gpio.c ****  * reserves the right to make changes in the software without
  15:core/lpc17xx_gpio.c ****  * notification. NXP Semiconductors also make no representation or
  16:core/lpc17xx_gpio.c ****  * warranty that such application will be suitable for the specified
  17:core/lpc17xx_gpio.c ****  * use without further testing or modification.
  18:core/lpc17xx_gpio.c ****  **********************************************************************/
  19:core/lpc17xx_gpio.c **** 
  20:core/lpc17xx_gpio.c **** /* Peripheral group ----------------------------------------------------------- */
  21:core/lpc17xx_gpio.c **** /** @addtogroup GPIO
  22:core/lpc17xx_gpio.c ****  * @{
  23:core/lpc17xx_gpio.c ****  */
  24:core/lpc17xx_gpio.c **** 
  25:core/lpc17xx_gpio.c **** /* Includes ------------------------------------------------------------------- */
  26:core/lpc17xx_gpio.c **** #include "lpc17xx_gpio.h"
  27:core/lpc17xx_gpio.c **** 
  28:core/lpc17xx_gpio.c **** /* If this source file built with example, the LPC17xx FW library configuration
  29:core/lpc17xx_gpio.c ****  * file in each example directory ("lpc17xx_libcfg.h") must be included,
  30:core/lpc17xx_gpio.c ****  * otherwise the default FW library configuration file must be included instead
  31:core/lpc17xx_gpio.c ****  */
  32:core/lpc17xx_gpio.c **** #ifdef __BUILD_WITH_EXAMPLE__
  33:core/lpc17xx_gpio.c **** #include "lpc17xx_libcfg.h"
  34:core/lpc17xx_gpio.c **** #else
  35:core/lpc17xx_gpio.c **** #include "lpc17xx_libcfg_default.h"
  36:core/lpc17xx_gpio.c **** #endif /* __BUILD_WITH_EXAMPLE__ */
  37:core/lpc17xx_gpio.c **** 
  38:core/lpc17xx_gpio.c **** 
  39:core/lpc17xx_gpio.c **** #ifdef _GPIO
  40:core/lpc17xx_gpio.c **** 
  41:core/lpc17xx_gpio.c **** /* Private Functions ---------------------------------------------------------- */
  42:core/lpc17xx_gpio.c **** 
  43:core/lpc17xx_gpio.c **** static LPC_GPIO_TypeDef *GPIO_GetPointer(uint8_t portNum);
  44:core/lpc17xx_gpio.c **** static GPIO_HalfWord_TypeDef *FIO_HalfWordGetPointer(uint8_t portNum);
  45:core/lpc17xx_gpio.c **** static GPIO_Byte_TypeDef *FIO_ByteGetPointer(uint8_t portNum);
  46:core/lpc17xx_gpio.c **** 
  47:core/lpc17xx_gpio.c **** /*********************************************************************//**
  48:core/lpc17xx_gpio.c ****  * @brief		Get pointer to GPIO peripheral due to GPIO port
  49:core/lpc17xx_gpio.c ****  * @param[in]	portNum		Port Number value, should be in range from 0 to 4.
  50:core/lpc17xx_gpio.c ****  * @return		Pointer to GPIO peripheral
  51:core/lpc17xx_gpio.c ****  **********************************************************************/
  52:core/lpc17xx_gpio.c **** static LPC_GPIO_TypeDef *GPIO_GetPointer(uint8_t portNum)
  53:core/lpc17xx_gpio.c **** {
  60              		.loc 1 53 0
  61              		.cfi_startproc
ARM GAS  C:\Users\COSMIN~1.MAR\AppData\Local\Temp\ccJVXHYk.s 			page 3


  62              		@ args = 0, pretend = 0, frame = 16
  63              		@ frame_needed = 1, uses_anonymous_args = 0
  64              		@ link register save eliminated.
  65 0000 80B4     		push	{r7}	@
  66              		.cfi_def_cfa_offset 4
  67              		.cfi_offset 7, -4
  68 0002 85B0     		sub	sp, sp, #20	@,,
  69              		.cfi_def_cfa_offset 24
  70 0004 00AF     		add	r7, sp, #0	@,,
  71              		.cfi_def_cfa_register 7
  72 0006 0346     		mov	r3, r0	@ tmp113, portNum
  73 0008 FB71     		strb	r3, [r7, #7]	@ tmp114, portNum
  54:core/lpc17xx_gpio.c **** 	LPC_GPIO_TypeDef *pGPIO = NULL;
  74              		.loc 1 54 0
  75 000a 0023     		movs	r3, #0	@ tmp115,
  76 000c FB60     		str	r3, [r7, #12]	@ tmp115, pGPIO
  55:core/lpc17xx_gpio.c **** 
  56:core/lpc17xx_gpio.c **** 	switch (portNum) {
  77              		.loc 1 56 0
  78 000e FB79     		ldrb	r3, [r7, #7]	@ zero_extendqisi2	@ D.5838, portNum
  79 0010 042B     		cmp	r3, #4	@ D.5838,
  80 0012 1CD8     		bhi	.L11	@
  81 0014 01A2     		adr	r2, .L4	@ tmp122,
  82 0016 52F823F0 		ldr	pc, [r2, r3, lsl #2]	@ tmp122, D.5838
  83 001a 00BF     		.p2align 2
  84              	.L4:
  85 001c 31000000 		.word	.L3+1
  86 0020 37000000 		.word	.L5+1
  87 0024 3D000000 		.word	.L6+1
  88 0028 43000000 		.word	.L7+1
  89 002c 49000000 		.word	.L8+1
  90              		.p2align 1
  91              	.L3:
  57:core/lpc17xx_gpio.c **** 	case 0:
  58:core/lpc17xx_gpio.c **** 		pGPIO = LPC_GPIO0;
  92              		.loc 1 58 0
  93 0030 0B4B     		ldr	r3, .L12	@ tmp116,
  94 0032 FB60     		str	r3, [r7, #12]	@ tmp116, pGPIO
  59:core/lpc17xx_gpio.c **** 		break;
  95              		.loc 1 59 0
  96 0034 0CE0     		b	.L9	@
  97              	.L5:
  60:core/lpc17xx_gpio.c **** 	case 1:
  61:core/lpc17xx_gpio.c **** 		pGPIO = LPC_GPIO1;
  98              		.loc 1 61 0
  99 0036 0B4B     		ldr	r3, .L12+4	@ tmp117,
 100 0038 FB60     		str	r3, [r7, #12]	@ tmp117, pGPIO
  62:core/lpc17xx_gpio.c **** 		break;
 101              		.loc 1 62 0
 102 003a 09E0     		b	.L9	@
 103              	.L6:
  63:core/lpc17xx_gpio.c **** 	case 2:
  64:core/lpc17xx_gpio.c **** 		pGPIO = LPC_GPIO2;
 104              		.loc 1 64 0
 105 003c 0A4B     		ldr	r3, .L12+8	@ tmp118,
 106 003e FB60     		str	r3, [r7, #12]	@ tmp118, pGPIO
  65:core/lpc17xx_gpio.c **** 		break;
ARM GAS  C:\Users\COSMIN~1.MAR\AppData\Local\Temp\ccJVXHYk.s 			page 4


 107              		.loc 1 65 0
 108 0040 06E0     		b	.L9	@
 109              	.L7:
  66:core/lpc17xx_gpio.c **** 	case 3:
  67:core/lpc17xx_gpio.c **** 		pGPIO = LPC_GPIO3;
 110              		.loc 1 67 0
 111 0042 0A4B     		ldr	r3, .L12+12	@ tmp119,
 112 0044 FB60     		str	r3, [r7, #12]	@ tmp119, pGPIO
  68:core/lpc17xx_gpio.c **** 		break;
 113              		.loc 1 68 0
 114 0046 03E0     		b	.L9	@
 115              	.L8:
  69:core/lpc17xx_gpio.c **** 	case 4:
  70:core/lpc17xx_gpio.c **** 		pGPIO = LPC_GPIO4;
 116              		.loc 1 70 0
 117 0048 094B     		ldr	r3, .L12+16	@ tmp120,
 118 004a FB60     		str	r3, [r7, #12]	@ tmp120, pGPIO
  71:core/lpc17xx_gpio.c **** 		break;
 119              		.loc 1 71 0
 120 004c 00E0     		b	.L9	@
 121              	.L11:
  72:core/lpc17xx_gpio.c **** 	default:
  73:core/lpc17xx_gpio.c **** 		break;
 122              		.loc 1 73 0
 123 004e 00BF     		nop
 124              	.L9:
  74:core/lpc17xx_gpio.c **** 	}
  75:core/lpc17xx_gpio.c **** 
  76:core/lpc17xx_gpio.c **** 	return pGPIO;
 125              		.loc 1 76 0
 126 0050 FB68     		ldr	r3, [r7, #12]	@ D.5839, pGPIO
  77:core/lpc17xx_gpio.c **** }
 127              		.loc 1 77 0
 128 0052 1846     		mov	r0, r3	@, <retval>
 129 0054 1437     		adds	r7, r7, #20	@,,
 130              		.cfi_def_cfa_offset 4
 131 0056 BD46     		mov	sp, r7	@,
 132              		.cfi_def_cfa_register 13
 133              		@ sp needed	@
 134 0058 5DF8047B 		ldr	r7, [sp], #4	@,
 135              		.cfi_restore 7
 136              		.cfi_def_cfa_offset 0
 137 005c 7047     		bx	lr	@
 138              	.L13:
 139 005e 00BF     		.align	2
 140              	.L12:
 141 0060 00C00920 		.word	537509888
 142 0064 20C00920 		.word	537509920
 143 0068 40C00920 		.word	537509952
 144 006c 60C00920 		.word	537509984
 145 0070 80C00920 		.word	537510016
 146              		.cfi_endproc
 147              	.LFE55:
 148              		.size	GPIO_GetPointer, .-GPIO_GetPointer
 149              		.section	.text.FIO_HalfWordGetPointer,"ax",%progbits
 150              		.align	2
 151              		.thumb
ARM GAS  C:\Users\COSMIN~1.MAR\AppData\Local\Temp\ccJVXHYk.s 			page 5


 152              		.thumb_func
 153              		.type	FIO_HalfWordGetPointer, %function
 154              	FIO_HalfWordGetPointer:
 155              	.LFB56:
  78:core/lpc17xx_gpio.c **** 
  79:core/lpc17xx_gpio.c **** /*********************************************************************//**
  80:core/lpc17xx_gpio.c ****  * @brief		Get pointer to FIO peripheral in halfword accessible style
  81:core/lpc17xx_gpio.c ****  * 				due to FIO port
  82:core/lpc17xx_gpio.c ****  * @param[in]	portNum		Port Number value, should be in range from 0 to 4.
  83:core/lpc17xx_gpio.c ****  * @return		Pointer to FIO peripheral
  84:core/lpc17xx_gpio.c ****  **********************************************************************/
  85:core/lpc17xx_gpio.c **** static GPIO_HalfWord_TypeDef *FIO_HalfWordGetPointer(uint8_t portNum)
  86:core/lpc17xx_gpio.c **** {
 156              		.loc 1 86 0
 157              		.cfi_startproc
 158              		@ args = 0, pretend = 0, frame = 16
 159              		@ frame_needed = 1, uses_anonymous_args = 0
 160              		@ link register save eliminated.
 161 0000 80B4     		push	{r7}	@
 162              		.cfi_def_cfa_offset 4
 163              		.cfi_offset 7, -4
 164 0002 85B0     		sub	sp, sp, #20	@,,
 165              		.cfi_def_cfa_offset 24
 166 0004 00AF     		add	r7, sp, #0	@,,
 167              		.cfi_def_cfa_register 7
 168 0006 0346     		mov	r3, r0	@ tmp113, portNum
 169 0008 FB71     		strb	r3, [r7, #7]	@ tmp114, portNum
  87:core/lpc17xx_gpio.c **** 	GPIO_HalfWord_TypeDef *pFIO = NULL;
 170              		.loc 1 87 0
 171 000a 0023     		movs	r3, #0	@ tmp115,
 172 000c FB60     		str	r3, [r7, #12]	@ tmp115, pFIO
  88:core/lpc17xx_gpio.c **** 
  89:core/lpc17xx_gpio.c **** 	switch (portNum) {
 173              		.loc 1 89 0
 174 000e FB79     		ldrb	r3, [r7, #7]	@ zero_extendqisi2	@ D.5840, portNum
 175 0010 042B     		cmp	r3, #4	@ D.5840,
 176 0012 1CD8     		bhi	.L24	@
 177 0014 01A2     		adr	r2, .L17	@ tmp122,
 178 0016 52F823F0 		ldr	pc, [r2, r3, lsl #2]	@ tmp122, D.5840
 179 001a 00BF     		.p2align 2
 180              	.L17:
 181 001c 31000000 		.word	.L16+1
 182 0020 37000000 		.word	.L18+1
 183 0024 3D000000 		.word	.L19+1
 184 0028 43000000 		.word	.L20+1
 185 002c 49000000 		.word	.L21+1
 186              		.p2align 1
 187              	.L16:
  90:core/lpc17xx_gpio.c **** 	case 0:
  91:core/lpc17xx_gpio.c **** 		pFIO = GPIO0_HalfWord;
 188              		.loc 1 91 0
 189 0030 0B4B     		ldr	r3, .L25	@ tmp116,
 190 0032 FB60     		str	r3, [r7, #12]	@ tmp116, pFIO
  92:core/lpc17xx_gpio.c **** 		break;
 191              		.loc 1 92 0
 192 0034 0CE0     		b	.L22	@
 193              	.L18:
ARM GAS  C:\Users\COSMIN~1.MAR\AppData\Local\Temp\ccJVXHYk.s 			page 6


  93:core/lpc17xx_gpio.c **** 	case 1:
  94:core/lpc17xx_gpio.c **** 		pFIO = GPIO1_HalfWord;
 194              		.loc 1 94 0
 195 0036 0B4B     		ldr	r3, .L25+4	@ tmp117,
 196 0038 FB60     		str	r3, [r7, #12]	@ tmp117, pFIO
  95:core/lpc17xx_gpio.c **** 		break;
 197              		.loc 1 95 0
 198 003a 09E0     		b	.L22	@
 199              	.L19:
  96:core/lpc17xx_gpio.c **** 	case 2:
  97:core/lpc17xx_gpio.c **** 		pFIO = GPIO2_HalfWord;
 200              		.loc 1 97 0
 201 003c 0A4B     		ldr	r3, .L25+8	@ tmp118,
 202 003e FB60     		str	r3, [r7, #12]	@ tmp118, pFIO
  98:core/lpc17xx_gpio.c **** 		break;
 203              		.loc 1 98 0
 204 0040 06E0     		b	.L22	@
 205              	.L20:
  99:core/lpc17xx_gpio.c **** 	case 3:
 100:core/lpc17xx_gpio.c **** 		pFIO = GPIO3_HalfWord;
 206              		.loc 1 100 0
 207 0042 0A4B     		ldr	r3, .L25+12	@ tmp119,
 208 0044 FB60     		str	r3, [r7, #12]	@ tmp119, pFIO
 101:core/lpc17xx_gpio.c **** 		break;
 209              		.loc 1 101 0
 210 0046 03E0     		b	.L22	@
 211              	.L21:
 102:core/lpc17xx_gpio.c **** 	case 4:
 103:core/lpc17xx_gpio.c **** 		pFIO = GPIO4_HalfWord;
 212              		.loc 1 103 0
 213 0048 094B     		ldr	r3, .L25+16	@ tmp120,
 214 004a FB60     		str	r3, [r7, #12]	@ tmp120, pFIO
 104:core/lpc17xx_gpio.c **** 		break;
 215              		.loc 1 104 0
 216 004c 00E0     		b	.L22	@
 217              	.L24:
 105:core/lpc17xx_gpio.c **** 	default:
 106:core/lpc17xx_gpio.c **** 		break;
 218              		.loc 1 106 0
 219 004e 00BF     		nop
 220              	.L22:
 107:core/lpc17xx_gpio.c **** 	}
 108:core/lpc17xx_gpio.c **** 
 109:core/lpc17xx_gpio.c **** 	return pFIO;
 221              		.loc 1 109 0
 222 0050 FB68     		ldr	r3, [r7, #12]	@ D.5841, pFIO
 110:core/lpc17xx_gpio.c **** }
 223              		.loc 1 110 0
 224 0052 1846     		mov	r0, r3	@, <retval>
 225 0054 1437     		adds	r7, r7, #20	@,,
 226              		.cfi_def_cfa_offset 4
 227 0056 BD46     		mov	sp, r7	@,
 228              		.cfi_def_cfa_register 13
 229              		@ sp needed	@
 230 0058 5DF8047B 		ldr	r7, [sp], #4	@,
 231              		.cfi_restore 7
 232              		.cfi_def_cfa_offset 0
ARM GAS  C:\Users\COSMIN~1.MAR\AppData\Local\Temp\ccJVXHYk.s 			page 7


 233 005c 7047     		bx	lr	@
 234              	.L26:
 235 005e 00BF     		.align	2
 236              	.L25:
 237 0060 00C00920 		.word	537509888
 238 0064 20C00920 		.word	537509920
 239 0068 40C00920 		.word	537509952
 240 006c 60C00920 		.word	537509984
 241 0070 80C00920 		.word	537510016
 242              		.cfi_endproc
 243              	.LFE56:
 244              		.size	FIO_HalfWordGetPointer, .-FIO_HalfWordGetPointer
 245              		.section	.text.FIO_ByteGetPointer,"ax",%progbits
 246              		.align	2
 247              		.thumb
 248              		.thumb_func
 249              		.type	FIO_ByteGetPointer, %function
 250              	FIO_ByteGetPointer:
 251              	.LFB57:
 111:core/lpc17xx_gpio.c **** 
 112:core/lpc17xx_gpio.c **** /*********************************************************************//**
 113:core/lpc17xx_gpio.c ****  * @brief		Get pointer to FIO peripheral in byte accessible style
 114:core/lpc17xx_gpio.c ****  * 				due to FIO port
 115:core/lpc17xx_gpio.c ****  * @param[in]	portNum		Port Number value, should be in range from 0 to 4.
 116:core/lpc17xx_gpio.c ****  * @return		Pointer to FIO peripheral
 117:core/lpc17xx_gpio.c ****  **********************************************************************/
 118:core/lpc17xx_gpio.c **** static GPIO_Byte_TypeDef *FIO_ByteGetPointer(uint8_t portNum)
 119:core/lpc17xx_gpio.c **** {
 252              		.loc 1 119 0
 253              		.cfi_startproc
 254              		@ args = 0, pretend = 0, frame = 16
 255              		@ frame_needed = 1, uses_anonymous_args = 0
 256              		@ link register save eliminated.
 257 0000 80B4     		push	{r7}	@
 258              		.cfi_def_cfa_offset 4
 259              		.cfi_offset 7, -4
 260 0002 85B0     		sub	sp, sp, #20	@,,
 261              		.cfi_def_cfa_offset 24
 262 0004 00AF     		add	r7, sp, #0	@,,
 263              		.cfi_def_cfa_register 7
 264 0006 0346     		mov	r3, r0	@ tmp113, portNum
 265 0008 FB71     		strb	r3, [r7, #7]	@ tmp114, portNum
 120:core/lpc17xx_gpio.c **** 	GPIO_Byte_TypeDef *pFIO = NULL;
 266              		.loc 1 120 0
 267 000a 0023     		movs	r3, #0	@ tmp115,
 268 000c FB60     		str	r3, [r7, #12]	@ tmp115, pFIO
 121:core/lpc17xx_gpio.c **** 
 122:core/lpc17xx_gpio.c **** 	switch (portNum) {
 269              		.loc 1 122 0
 270 000e FB79     		ldrb	r3, [r7, #7]	@ zero_extendqisi2	@ D.5842, portNum
 271 0010 042B     		cmp	r3, #4	@ D.5842,
 272 0012 1CD8     		bhi	.L37	@
 273 0014 01A2     		adr	r2, .L30	@ tmp122,
 274 0016 52F823F0 		ldr	pc, [r2, r3, lsl #2]	@ tmp122, D.5842
 275 001a 00BF     		.p2align 2
 276              	.L30:
 277 001c 31000000 		.word	.L29+1
ARM GAS  C:\Users\COSMIN~1.MAR\AppData\Local\Temp\ccJVXHYk.s 			page 8


 278 0020 37000000 		.word	.L31+1
 279 0024 3D000000 		.word	.L32+1
 280 0028 43000000 		.word	.L33+1
 281 002c 49000000 		.word	.L34+1
 282              		.p2align 1
 283              	.L29:
 123:core/lpc17xx_gpio.c **** 	case 0:
 124:core/lpc17xx_gpio.c **** 		pFIO = GPIO0_Byte;
 284              		.loc 1 124 0
 285 0030 0B4B     		ldr	r3, .L38	@ tmp116,
 286 0032 FB60     		str	r3, [r7, #12]	@ tmp116, pFIO
 125:core/lpc17xx_gpio.c **** 		break;
 287              		.loc 1 125 0
 288 0034 0CE0     		b	.L35	@
 289              	.L31:
 126:core/lpc17xx_gpio.c **** 	case 1:
 127:core/lpc17xx_gpio.c **** 		pFIO = GPIO1_Byte;
 290              		.loc 1 127 0
 291 0036 0B4B     		ldr	r3, .L38+4	@ tmp117,
 292 0038 FB60     		str	r3, [r7, #12]	@ tmp117, pFIO
 128:core/lpc17xx_gpio.c **** 		break;
 293              		.loc 1 128 0
 294 003a 09E0     		b	.L35	@
 295              	.L32:
 129:core/lpc17xx_gpio.c **** 	case 2:
 130:core/lpc17xx_gpio.c **** 		pFIO = GPIO2_Byte;
 296              		.loc 1 130 0
 297 003c 0A4B     		ldr	r3, .L38+8	@ tmp118,
 298 003e FB60     		str	r3, [r7, #12]	@ tmp118, pFIO
 131:core/lpc17xx_gpio.c **** 		break;
 299              		.loc 1 131 0
 300 0040 06E0     		b	.L35	@
 301              	.L33:
 132:core/lpc17xx_gpio.c **** 	case 3:
 133:core/lpc17xx_gpio.c **** 		pFIO = GPIO3_Byte;
 302              		.loc 1 133 0
 303 0042 0A4B     		ldr	r3, .L38+12	@ tmp119,
 304 0044 FB60     		str	r3, [r7, #12]	@ tmp119, pFIO
 134:core/lpc17xx_gpio.c **** 		break;
 305              		.loc 1 134 0
 306 0046 03E0     		b	.L35	@
 307              	.L34:
 135:core/lpc17xx_gpio.c **** 	case 4:
 136:core/lpc17xx_gpio.c **** 		pFIO = GPIO4_Byte;
 308              		.loc 1 136 0
 309 0048 094B     		ldr	r3, .L38+16	@ tmp120,
 310 004a FB60     		str	r3, [r7, #12]	@ tmp120, pFIO
 137:core/lpc17xx_gpio.c **** 		break;
 311              		.loc 1 137 0
 312 004c 00E0     		b	.L35	@
 313              	.L37:
 138:core/lpc17xx_gpio.c **** 	default:
 139:core/lpc17xx_gpio.c **** 		break;
 314              		.loc 1 139 0
 315 004e 00BF     		nop
 316              	.L35:
 140:core/lpc17xx_gpio.c **** 	}
ARM GAS  C:\Users\COSMIN~1.MAR\AppData\Local\Temp\ccJVXHYk.s 			page 9


 141:core/lpc17xx_gpio.c **** 
 142:core/lpc17xx_gpio.c **** 	return pFIO;
 317              		.loc 1 142 0
 318 0050 FB68     		ldr	r3, [r7, #12]	@ D.5843, pFIO
 143:core/lpc17xx_gpio.c **** }
 319              		.loc 1 143 0
 320 0052 1846     		mov	r0, r3	@, <retval>
 321 0054 1437     		adds	r7, r7, #20	@,,
 322              		.cfi_def_cfa_offset 4
 323 0056 BD46     		mov	sp, r7	@,
 324              		.cfi_def_cfa_register 13
 325              		@ sp needed	@
 326 0058 5DF8047B 		ldr	r7, [sp], #4	@,
 327              		.cfi_restore 7
 328              		.cfi_def_cfa_offset 0
 329 005c 7047     		bx	lr	@
 330              	.L39:
 331 005e 00BF     		.align	2
 332              	.L38:
 333 0060 00C00920 		.word	537509888
 334 0064 20C00920 		.word	537509920
 335 0068 40C00920 		.word	537509952
 336 006c 60C00920 		.word	537509984
 337 0070 80C00920 		.word	537510016
 338              		.cfi_endproc
 339              	.LFE57:
 340              		.size	FIO_ByteGetPointer, .-FIO_ByteGetPointer
 341              		.section	.text.GPIO_SetDir,"ax",%progbits
 342              		.align	2
 343              		.global	GPIO_SetDir
 344              		.thumb
 345              		.thumb_func
 346              		.type	GPIO_SetDir, %function
 347              	GPIO_SetDir:
 348              	.LFB58:
 144:core/lpc17xx_gpio.c **** 
 145:core/lpc17xx_gpio.c **** /* End of Private Functions --------------------------------------------------- */
 146:core/lpc17xx_gpio.c **** 
 147:core/lpc17xx_gpio.c **** 
 148:core/lpc17xx_gpio.c **** /* Public Functions ----------------------------------------------------------- */
 149:core/lpc17xx_gpio.c **** /** @addtogroup GPIO_Public_Functions
 150:core/lpc17xx_gpio.c ****  * @{
 151:core/lpc17xx_gpio.c ****  */
 152:core/lpc17xx_gpio.c **** 
 153:core/lpc17xx_gpio.c **** 
 154:core/lpc17xx_gpio.c **** /* GPIO ------------------------------------------------------------------------------ */
 155:core/lpc17xx_gpio.c **** 
 156:core/lpc17xx_gpio.c **** /*********************************************************************//**
 157:core/lpc17xx_gpio.c ****  * @brief		Set Direction for GPIO port.
 158:core/lpc17xx_gpio.c ****  * @param[in]	portNum		Port Number value, should be in range from 0 to 4
 159:core/lpc17xx_gpio.c ****  * @param[in]	bitValue	Value that contains all bits to set direction,
 160:core/lpc17xx_gpio.c ****  * 							in range from 0 to 0xFFFFFFFF.
 161:core/lpc17xx_gpio.c ****  * 							example: value 0x5 to set direction for bit 0 and bit 1.
 162:core/lpc17xx_gpio.c ****  * @param[in]	dir			Direction value, should be:
 163:core/lpc17xx_gpio.c ****  * 							- 0: Input.
 164:core/lpc17xx_gpio.c ****  * 							- 1: Output.
 165:core/lpc17xx_gpio.c ****  * @return		None
ARM GAS  C:\Users\COSMIN~1.MAR\AppData\Local\Temp\ccJVXHYk.s 			page 10


 166:core/lpc17xx_gpio.c ****  *
 167:core/lpc17xx_gpio.c ****  * Note: All remaining bits that are not activated in bitValue (value '0')
 168:core/lpc17xx_gpio.c ****  * will not be effected by this function.
 169:core/lpc17xx_gpio.c ****  **********************************************************************/
 170:core/lpc17xx_gpio.c **** void GPIO_SetDir(uint8_t portNum, uint32_t bitValue, uint8_t dir)
 171:core/lpc17xx_gpio.c **** {
 349              		.loc 1 171 0
 350              		.cfi_startproc
 351              		@ args = 0, pretend = 0, frame = 16
 352              		@ frame_needed = 1, uses_anonymous_args = 0
 353 0000 80B5     		push	{r7, lr}	@
 354              		.cfi_def_cfa_offset 8
 355              		.cfi_offset 7, -8
 356              		.cfi_offset 14, -4
 357 0002 84B0     		sub	sp, sp, #16	@,,
 358              		.cfi_def_cfa_offset 24
 359 0004 00AF     		add	r7, sp, #0	@,,
 360              		.cfi_def_cfa_register 7
 361 0006 0346     		mov	r3, r0	@ tmp115, portNum
 362 0008 3960     		str	r1, [r7]	@ bitValue, bitValue
 363 000a FB71     		strb	r3, [r7, #7]	@ tmp116, portNum
 364 000c 1346     		mov	r3, r2	@ tmp118, tmp117
 365 000e BB71     		strb	r3, [r7, #6]	@ tmp118, dir
 172:core/lpc17xx_gpio.c **** 	LPC_GPIO_TypeDef *pGPIO = GPIO_GetPointer(portNum);
 366              		.loc 1 172 0
 367 0010 FB79     		ldrb	r3, [r7, #7]	@ zero_extendqisi2	@ tmp119, portNum
 368 0012 1846     		mov	r0, r3	@, tmp119
 369 0014 FFF7FEFF 		bl	GPIO_GetPointer	@
 370 0018 F860     		str	r0, [r7, #12]	@, pGPIO
 173:core/lpc17xx_gpio.c **** 
 174:core/lpc17xx_gpio.c **** 	if (pGPIO != NULL) {
 371              		.loc 1 174 0
 372 001a FB68     		ldr	r3, [r7, #12]	@ tmp120, pGPIO
 373 001c 002B     		cmp	r3, #0	@ tmp120,
 374 001e 10D0     		beq	.L40	@,
 175:core/lpc17xx_gpio.c **** 		// Enable Output
 176:core/lpc17xx_gpio.c **** 		if (dir) {
 375              		.loc 1 176 0
 376 0020 BB79     		ldrb	r3, [r7, #6]	@ zero_extendqisi2	@ tmp121, dir
 377 0022 002B     		cmp	r3, #0	@ tmp121,
 378 0024 06D0     		beq	.L42	@,
 177:core/lpc17xx_gpio.c **** 			pGPIO->FIODIR |= bitValue;
 379              		.loc 1 177 0
 380 0026 FB68     		ldr	r3, [r7, #12]	@ tmp122, pGPIO
 381 0028 1A68     		ldr	r2, [r3]	@ D.5844, pGPIO_2->D.4604.FIODIR
 382 002a 3B68     		ldr	r3, [r7]	@ tmp123, bitValue
 383 002c 1A43     		orrs	r2, r2, r3	@, D.5844, D.5844, tmp123
 384 002e FB68     		ldr	r3, [r7, #12]	@ tmp124, pGPIO
 385 0030 1A60     		str	r2, [r3]	@ D.5844, pGPIO_2->D.4604.FIODIR
 386 0032 06E0     		b	.L40	@
 387              	.L42:
 178:core/lpc17xx_gpio.c **** 		}
 179:core/lpc17xx_gpio.c **** 		// Enable Input
 180:core/lpc17xx_gpio.c **** 		else {
 181:core/lpc17xx_gpio.c **** 			pGPIO->FIODIR &= ~bitValue;
 388              		.loc 1 181 0
 389 0034 FB68     		ldr	r3, [r7, #12]	@ tmp125, pGPIO
ARM GAS  C:\Users\COSMIN~1.MAR\AppData\Local\Temp\ccJVXHYk.s 			page 11


 390 0036 1A68     		ldr	r2, [r3]	@ D.5844, pGPIO_2->D.4604.FIODIR
 391 0038 3B68     		ldr	r3, [r7]	@ tmp126, bitValue
 392 003a DB43     		mvns	r3, r3	@ D.5844, tmp126
 393 003c 1A40     		ands	r2, r2, r3	@, D.5844, D.5844, D.5844
 394 003e FB68     		ldr	r3, [r7, #12]	@ tmp127, pGPIO
 395 0040 1A60     		str	r2, [r3]	@ D.5844, pGPIO_2->D.4604.FIODIR
 396              	.L40:
 182:core/lpc17xx_gpio.c **** 		}
 183:core/lpc17xx_gpio.c **** 	}
 184:core/lpc17xx_gpio.c **** }
 397              		.loc 1 184 0
 398 0042 1037     		adds	r7, r7, #16	@,,
 399              		.cfi_def_cfa_offset 8
 400 0044 BD46     		mov	sp, r7	@,
 401              		.cfi_def_cfa_register 13
 402              		@ sp needed	@
 403 0046 80BD     		pop	{r7, pc}	@
 404              		.cfi_endproc
 405              	.LFE58:
 406              		.size	GPIO_SetDir, .-GPIO_SetDir
 407              		.section	.text.GPIO_SetValue,"ax",%progbits
 408              		.align	2
 409              		.global	GPIO_SetValue
 410              		.thumb
 411              		.thumb_func
 412              		.type	GPIO_SetValue, %function
 413              	GPIO_SetValue:
 414              	.LFB59:
 185:core/lpc17xx_gpio.c **** 
 186:core/lpc17xx_gpio.c **** 
 187:core/lpc17xx_gpio.c **** /*********************************************************************//**
 188:core/lpc17xx_gpio.c ****  * @brief		Set Value for bits that have output direction on GPIO port.
 189:core/lpc17xx_gpio.c ****  * @param[in]	portNum		Port number value, should be in range from 0 to 4
 190:core/lpc17xx_gpio.c ****  * @param[in]	bitValue	Value that contains all bits on GPIO to set,
 191:core/lpc17xx_gpio.c ****  * 							in range from 0 to 0xFFFFFFFF.
 192:core/lpc17xx_gpio.c ****  * 							example: value 0x5 to set bit 0 and bit 1.
 193:core/lpc17xx_gpio.c ****  * @return		None
 194:core/lpc17xx_gpio.c ****  *
 195:core/lpc17xx_gpio.c ****  * Note:
 196:core/lpc17xx_gpio.c ****  * - For all bits that has been set as input direction, this function will
 197:core/lpc17xx_gpio.c ****  * not effect.
 198:core/lpc17xx_gpio.c ****  * - For all remaining bits that are not activated in bitValue (value '0')
 199:core/lpc17xx_gpio.c ****  * will not be effected by this function.
 200:core/lpc17xx_gpio.c ****  **********************************************************************/
 201:core/lpc17xx_gpio.c **** void GPIO_SetValue(uint8_t portNum, uint32_t bitValue)
 202:core/lpc17xx_gpio.c **** {
 415              		.loc 1 202 0
 416              		.cfi_startproc
 417              		@ args = 0, pretend = 0, frame = 16
 418              		@ frame_needed = 1, uses_anonymous_args = 0
 419 0000 80B5     		push	{r7, lr}	@
 420              		.cfi_def_cfa_offset 8
 421              		.cfi_offset 7, -8
 422              		.cfi_offset 14, -4
 423 0002 84B0     		sub	sp, sp, #16	@,,
 424              		.cfi_def_cfa_offset 24
 425 0004 00AF     		add	r7, sp, #0	@,,
ARM GAS  C:\Users\COSMIN~1.MAR\AppData\Local\Temp\ccJVXHYk.s 			page 12


 426              		.cfi_def_cfa_register 7
 427 0006 0346     		mov	r3, r0	@ tmp110, portNum
 428 0008 3960     		str	r1, [r7]	@ bitValue, bitValue
 429 000a FB71     		strb	r3, [r7, #7]	@ tmp111, portNum
 203:core/lpc17xx_gpio.c **** 	LPC_GPIO_TypeDef *pGPIO = GPIO_GetPointer(portNum);
 430              		.loc 1 203 0
 431 000c FB79     		ldrb	r3, [r7, #7]	@ zero_extendqisi2	@ tmp112, portNum
 432 000e 1846     		mov	r0, r3	@, tmp112
 433 0010 FFF7FEFF 		bl	GPIO_GetPointer	@
 434 0014 F860     		str	r0, [r7, #12]	@, pGPIO
 204:core/lpc17xx_gpio.c **** 
 205:core/lpc17xx_gpio.c **** 	if (pGPIO != NULL) {
 435              		.loc 1 205 0
 436 0016 FB68     		ldr	r3, [r7, #12]	@ tmp113, pGPIO
 437 0018 002B     		cmp	r3, #0	@ tmp113,
 438 001a 02D0     		beq	.L43	@,
 206:core/lpc17xx_gpio.c **** 		pGPIO->FIOSET = bitValue;
 439              		.loc 1 206 0
 440 001c FB68     		ldr	r3, [r7, #12]	@ tmp114, pGPIO
 441 001e 3A68     		ldr	r2, [r7]	@ tmp115, bitValue
 442 0020 9A61     		str	r2, [r3, #24]	@ tmp115, pGPIO_2->D.4644.FIOSET
 443              	.L43:
 207:core/lpc17xx_gpio.c **** 	}
 208:core/lpc17xx_gpio.c **** }
 444              		.loc 1 208 0
 445 0022 1037     		adds	r7, r7, #16	@,,
 446              		.cfi_def_cfa_offset 8
 447 0024 BD46     		mov	sp, r7	@,
 448              		.cfi_def_cfa_register 13
 449              		@ sp needed	@
 450 0026 80BD     		pop	{r7, pc}	@
 451              		.cfi_endproc
 452              	.LFE59:
 453              		.size	GPIO_SetValue, .-GPIO_SetValue
 454              		.section	.text.GPIO_ClearValue,"ax",%progbits
 455              		.align	2
 456              		.global	GPIO_ClearValue
 457              		.thumb
 458              		.thumb_func
 459              		.type	GPIO_ClearValue, %function
 460              	GPIO_ClearValue:
 461              	.LFB60:
 209:core/lpc17xx_gpio.c **** 
 210:core/lpc17xx_gpio.c **** /*********************************************************************//**
 211:core/lpc17xx_gpio.c ****  * @brief		Clear Value for bits that have output direction on GPIO port.
 212:core/lpc17xx_gpio.c ****  * @param[in]	portNum		Port number value, should be in range from 0 to 4
 213:core/lpc17xx_gpio.c ****  * @param[in]	bitValue	Value that contains all bits on GPIO to clear,
 214:core/lpc17xx_gpio.c ****  * 							in range from 0 to 0xFFFFFFFF.
 215:core/lpc17xx_gpio.c ****  * 							example: value 0x5 to clear bit 0 and bit 1.
 216:core/lpc17xx_gpio.c ****  * @return		None
 217:core/lpc17xx_gpio.c ****  *
 218:core/lpc17xx_gpio.c ****  * Note:
 219:core/lpc17xx_gpio.c ****  * - For all bits that has been set as input direction, this function will
 220:core/lpc17xx_gpio.c ****  * not effect.
 221:core/lpc17xx_gpio.c ****  * - For all remaining bits that are not activated in bitValue (value '0')
 222:core/lpc17xx_gpio.c ****  * will not be effected by this function.
 223:core/lpc17xx_gpio.c ****  **********************************************************************/
ARM GAS  C:\Users\COSMIN~1.MAR\AppData\Local\Temp\ccJVXHYk.s 			page 13


 224:core/lpc17xx_gpio.c **** void GPIO_ClearValue(uint8_t portNum, uint32_t bitValue)
 225:core/lpc17xx_gpio.c **** {
 462              		.loc 1 225 0
 463              		.cfi_startproc
 464              		@ args = 0, pretend = 0, frame = 16
 465              		@ frame_needed = 1, uses_anonymous_args = 0
 466 0000 80B5     		push	{r7, lr}	@
 467              		.cfi_def_cfa_offset 8
 468              		.cfi_offset 7, -8
 469              		.cfi_offset 14, -4
 470 0002 84B0     		sub	sp, sp, #16	@,,
 471              		.cfi_def_cfa_offset 24
 472 0004 00AF     		add	r7, sp, #0	@,,
 473              		.cfi_def_cfa_register 7
 474 0006 0346     		mov	r3, r0	@ tmp110, portNum
 475 0008 3960     		str	r1, [r7]	@ bitValue, bitValue
 476 000a FB71     		strb	r3, [r7, #7]	@ tmp111, portNum
 226:core/lpc17xx_gpio.c **** 	LPC_GPIO_TypeDef *pGPIO = GPIO_GetPointer(portNum);
 477              		.loc 1 226 0
 478 000c FB79     		ldrb	r3, [r7, #7]	@ zero_extendqisi2	@ tmp112, portNum
 479 000e 1846     		mov	r0, r3	@, tmp112
 480 0010 FFF7FEFF 		bl	GPIO_GetPointer	@
 481 0014 F860     		str	r0, [r7, #12]	@, pGPIO
 227:core/lpc17xx_gpio.c **** 
 228:core/lpc17xx_gpio.c **** 	if (pGPIO != NULL) {
 482              		.loc 1 228 0
 483 0016 FB68     		ldr	r3, [r7, #12]	@ tmp113, pGPIO
 484 0018 002B     		cmp	r3, #0	@ tmp113,
 485 001a 02D0     		beq	.L45	@,
 229:core/lpc17xx_gpio.c **** 		pGPIO->FIOCLR = bitValue;
 486              		.loc 1 229 0
 487 001c FB68     		ldr	r3, [r7, #12]	@ tmp114, pGPIO
 488 001e 3A68     		ldr	r2, [r7]	@ tmp115, bitValue
 489 0020 DA61     		str	r2, [r3, #28]	@ tmp115, pGPIO_2->D.4657.FIOCLR
 490              	.L45:
 230:core/lpc17xx_gpio.c **** 	}
 231:core/lpc17xx_gpio.c **** }
 491              		.loc 1 231 0
 492 0022 1037     		adds	r7, r7, #16	@,,
 493              		.cfi_def_cfa_offset 8
 494 0024 BD46     		mov	sp, r7	@,
 495              		.cfi_def_cfa_register 13
 496              		@ sp needed	@
 497 0026 80BD     		pop	{r7, pc}	@
 498              		.cfi_endproc
 499              	.LFE60:
 500              		.size	GPIO_ClearValue, .-GPIO_ClearValue
 501              		.section	.text.GPIO_ReadValue,"ax",%progbits
 502              		.align	2
 503              		.global	GPIO_ReadValue
 504              		.thumb
 505              		.thumb_func
 506              		.type	GPIO_ReadValue, %function
 507              	GPIO_ReadValue:
 508              	.LFB61:
 232:core/lpc17xx_gpio.c **** 
 233:core/lpc17xx_gpio.c **** /*********************************************************************//**
ARM GAS  C:\Users\COSMIN~1.MAR\AppData\Local\Temp\ccJVXHYk.s 			page 14


 234:core/lpc17xx_gpio.c ****  * @brief		Read Current state on port pin that have input direction of GPIO
 235:core/lpc17xx_gpio.c ****  * @param[in]	portNum		Port number to read value, in range from 0 to 4
 236:core/lpc17xx_gpio.c ****  * @return		Current value of GPIO port.
 237:core/lpc17xx_gpio.c ****  *
 238:core/lpc17xx_gpio.c ****  * Note: Return value contain state of each port pin (bit) on that GPIO regardless
 239:core/lpc17xx_gpio.c ****  * its direction is input or output.
 240:core/lpc17xx_gpio.c ****  **********************************************************************/
 241:core/lpc17xx_gpio.c **** uint32_t GPIO_ReadValue(uint8_t portNum)
 242:core/lpc17xx_gpio.c **** {
 509              		.loc 1 242 0
 510              		.cfi_startproc
 511              		@ args = 0, pretend = 0, frame = 16
 512              		@ frame_needed = 1, uses_anonymous_args = 0
 513 0000 80B5     		push	{r7, lr}	@
 514              		.cfi_def_cfa_offset 8
 515              		.cfi_offset 7, -8
 516              		.cfi_offset 14, -4
 517 0002 84B0     		sub	sp, sp, #16	@,,
 518              		.cfi_def_cfa_offset 24
 519 0004 00AF     		add	r7, sp, #0	@,,
 520              		.cfi_def_cfa_register 7
 521 0006 0346     		mov	r3, r0	@ tmp112, portNum
 522 0008 FB71     		strb	r3, [r7, #7]	@ tmp113, portNum
 243:core/lpc17xx_gpio.c **** 	LPC_GPIO_TypeDef *pGPIO = GPIO_GetPointer(portNum);
 523              		.loc 1 243 0
 524 000a FB79     		ldrb	r3, [r7, #7]	@ zero_extendqisi2	@ tmp114, portNum
 525 000c 1846     		mov	r0, r3	@, tmp114
 526 000e FFF7FEFF 		bl	GPIO_GetPointer	@
 527 0012 F860     		str	r0, [r7, #12]	@, pGPIO
 244:core/lpc17xx_gpio.c **** 
 245:core/lpc17xx_gpio.c **** 	if (pGPIO != NULL) {
 528              		.loc 1 245 0
 529 0014 FB68     		ldr	r3, [r7, #12]	@ tmp115, pGPIO
 530 0016 002B     		cmp	r3, #0	@ tmp115,
 531 0018 02D0     		beq	.L48	@,
 246:core/lpc17xx_gpio.c **** 		return pGPIO->FIOPIN;
 532              		.loc 1 246 0
 533 001a FB68     		ldr	r3, [r7, #12]	@ tmp116, pGPIO
 534 001c 5B69     		ldr	r3, [r3, #20]	@ D.5845, pGPIO_3->D.4631.FIOPIN
 535 001e 00E0     		b	.L49	@
 536              	.L48:
 247:core/lpc17xx_gpio.c **** 	}
 248:core/lpc17xx_gpio.c **** 
 249:core/lpc17xx_gpio.c **** 	return (0);
 537              		.loc 1 249 0
 538 0020 0023     		movs	r3, #0	@ D.5845,
 539              	.L49:
 250:core/lpc17xx_gpio.c **** }
 540              		.loc 1 250 0
 541 0022 1846     		mov	r0, r3	@, <retval>
 542 0024 1037     		adds	r7, r7, #16	@,,
 543              		.cfi_def_cfa_offset 8
 544 0026 BD46     		mov	sp, r7	@,
 545              		.cfi_def_cfa_register 13
 546              		@ sp needed	@
 547 0028 80BD     		pop	{r7, pc}	@
 548              		.cfi_endproc
ARM GAS  C:\Users\COSMIN~1.MAR\AppData\Local\Temp\ccJVXHYk.s 			page 15


 549              	.LFE61:
 550              		.size	GPIO_ReadValue, .-GPIO_ReadValue
 551 002a 00BF     		.section	.text.GPIO_IntCmd,"ax",%progbits
 552              		.align	2
 553              		.global	GPIO_IntCmd
 554              		.thumb
 555              		.thumb_func
 556              		.type	GPIO_IntCmd, %function
 557              	GPIO_IntCmd:
 558              	.LFB62:
 251:core/lpc17xx_gpio.c **** 
 252:core/lpc17xx_gpio.c **** /*********************************************************************//**
 253:core/lpc17xx_gpio.c ****  * @brief		Enable GPIO interrupt (just used for P0.0-P0.30, P2.0-P2.13)
 254:core/lpc17xx_gpio.c ****  * @param[in]	portNum		Port number to read value, should be: 0 or 2
 255:core/lpc17xx_gpio.c ****  * @param[in]	bitValue	Value that contains all bits on GPIO to enable,
 256:core/lpc17xx_gpio.c ****  * 							in range from 0 to 0xFFFFFFFF.
 257:core/lpc17xx_gpio.c ****  * @param[in]	edgeState	state of edge, should be:
 258:core/lpc17xx_gpio.c ****  * 							- 0: Rising edge
 259:core/lpc17xx_gpio.c ****  * 							- 1: Falling edge
 260:core/lpc17xx_gpio.c ****  * @return		None
 261:core/lpc17xx_gpio.c ****  **********************************************************************/
 262:core/lpc17xx_gpio.c **** void GPIO_IntCmd(uint8_t portNum, uint32_t bitValue, uint8_t edgeState)
 263:core/lpc17xx_gpio.c **** {
 559              		.loc 1 263 0
 560              		.cfi_startproc
 561              		@ args = 0, pretend = 0, frame = 8
 562              		@ frame_needed = 1, uses_anonymous_args = 0
 563              		@ link register save eliminated.
 564 0000 80B4     		push	{r7}	@
 565              		.cfi_def_cfa_offset 4
 566              		.cfi_offset 7, -4
 567 0002 83B0     		sub	sp, sp, #12	@,,
 568              		.cfi_def_cfa_offset 16
 569 0004 00AF     		add	r7, sp, #0	@,,
 570              		.cfi_def_cfa_register 7
 571 0006 0346     		mov	r3, r0	@ tmp126, portNum
 572 0008 3960     		str	r1, [r7]	@ bitValue, bitValue
 573 000a FB71     		strb	r3, [r7, #7]	@ tmp127, portNum
 574 000c 1346     		mov	r3, r2	@ tmp129, tmp128
 575 000e BB71     		strb	r3, [r7, #6]	@ tmp129, edgeState
 264:core/lpc17xx_gpio.c **** 	if((portNum == 0)&&(edgeState == 0))
 576              		.loc 1 264 0
 577 0010 FB79     		ldrb	r3, [r7, #7]	@ zero_extendqisi2	@ tmp130, portNum
 578 0012 002B     		cmp	r3, #0	@ tmp130,
 579 0014 09D1     		bne	.L51	@,
 580              		.loc 1 264 0 is_stmt 0 discriminator 1
 581 0016 BB79     		ldrb	r3, [r7, #6]	@ zero_extendqisi2	@ tmp131, edgeState
 582 0018 002B     		cmp	r3, #0	@ tmp131,
 583 001a 06D1     		bne	.L51	@,
 265:core/lpc17xx_gpio.c **** 		LPC_GPIOINT->IO0IntEnR |= bitValue;
 584              		.loc 1 265 0 is_stmt 1
 585 001c 1949     		ldr	r1, .L56	@ D.5846,
 586 001e 194B     		ldr	r3, .L56	@ D.5846,
 587 0020 1A69     		ldr	r2, [r3, #16]	@ D.5847, _4->IO0IntEnR
 588 0022 3B68     		ldr	r3, [r7]	@ tmp132, bitValue
 589 0024 1343     		orrs	r3, r3, r2	@, D.5847, tmp132, D.5847
 590 0026 0B61     		str	r3, [r1, #16]	@ D.5847, _3->IO0IntEnR
ARM GAS  C:\Users\COSMIN~1.MAR\AppData\Local\Temp\ccJVXHYk.s 			page 16


 591 0028 27E0     		b	.L50	@
 592              	.L51:
 266:core/lpc17xx_gpio.c **** 	else if ((portNum == 2)&&(edgeState == 0))
 593              		.loc 1 266 0
 594 002a FB79     		ldrb	r3, [r7, #7]	@ zero_extendqisi2	@ tmp133, portNum
 595 002c 022B     		cmp	r3, #2	@ tmp133,
 596 002e 09D1     		bne	.L53	@,
 597              		.loc 1 266 0 is_stmt 0 discriminator 1
 598 0030 BB79     		ldrb	r3, [r7, #6]	@ zero_extendqisi2	@ tmp134, edgeState
 599 0032 002B     		cmp	r3, #0	@ tmp134,
 600 0034 06D1     		bne	.L53	@,
 267:core/lpc17xx_gpio.c **** 		LPC_GPIOINT->IO2IntEnR |= bitValue;
 601              		.loc 1 267 0 is_stmt 1
 602 0036 1349     		ldr	r1, .L56	@ D.5846,
 603 0038 124B     		ldr	r3, .L56	@ D.5846,
 604 003a 1A6B     		ldr	r2, [r3, #48]	@ D.5847, _9->IO2IntEnR
 605 003c 3B68     		ldr	r3, [r7]	@ tmp135, bitValue
 606 003e 1343     		orrs	r3, r3, r2	@, D.5847, tmp135, D.5847
 607 0040 0B63     		str	r3, [r1, #48]	@ D.5847, _8->IO2IntEnR
 608 0042 1AE0     		b	.L50	@
 609              	.L53:
 268:core/lpc17xx_gpio.c **** 	else if ((portNum == 0)&&(edgeState == 1))
 610              		.loc 1 268 0
 611 0044 FB79     		ldrb	r3, [r7, #7]	@ zero_extendqisi2	@ tmp136, portNum
 612 0046 002B     		cmp	r3, #0	@ tmp136,
 613 0048 09D1     		bne	.L54	@,
 614              		.loc 1 268 0 is_stmt 0 discriminator 1
 615 004a BB79     		ldrb	r3, [r7, #6]	@ zero_extendqisi2	@ tmp137, edgeState
 616 004c 012B     		cmp	r3, #1	@ tmp137,
 617 004e 06D1     		bne	.L54	@,
 269:core/lpc17xx_gpio.c **** 		LPC_GPIOINT->IO0IntEnF |= bitValue;
 618              		.loc 1 269 0 is_stmt 1
 619 0050 0C49     		ldr	r1, .L56	@ D.5846,
 620 0052 0C4B     		ldr	r3, .L56	@ D.5846,
 621 0054 5A69     		ldr	r2, [r3, #20]	@ D.5847, _13->IO0IntEnF
 622 0056 3B68     		ldr	r3, [r7]	@ tmp138, bitValue
 623 0058 1343     		orrs	r3, r3, r2	@, D.5847, tmp138, D.5847
 624 005a 4B61     		str	r3, [r1, #20]	@ D.5847, _12->IO0IntEnF
 625 005c 0DE0     		b	.L50	@
 626              	.L54:
 270:core/lpc17xx_gpio.c **** 	else if ((portNum == 2)&&(edgeState == 1))
 627              		.loc 1 270 0
 628 005e FB79     		ldrb	r3, [r7, #7]	@ zero_extendqisi2	@ tmp139, portNum
 629 0060 022B     		cmp	r3, #2	@ tmp139,
 630 0062 09D1     		bne	.L55	@,
 631              		.loc 1 270 0 is_stmt 0 discriminator 1
 632 0064 BB79     		ldrb	r3, [r7, #6]	@ zero_extendqisi2	@ tmp140, edgeState
 633 0066 012B     		cmp	r3, #1	@ tmp140,
 634 0068 06D1     		bne	.L55	@,
 271:core/lpc17xx_gpio.c **** 		LPC_GPIOINT->IO2IntEnF |= bitValue;
 635              		.loc 1 271 0 is_stmt 1
 636 006a 0649     		ldr	r1, .L56	@ D.5846,
 637 006c 054B     		ldr	r3, .L56	@ D.5846,
 638 006e 5A6B     		ldr	r2, [r3, #52]	@ D.5847, _17->IO2IntEnF
 639 0070 3B68     		ldr	r3, [r7]	@ tmp141, bitValue
 640 0072 1343     		orrs	r3, r3, r2	@, D.5847, tmp141, D.5847
 641 0074 4B63     		str	r3, [r1, #52]	@ D.5847, _16->IO2IntEnF
ARM GAS  C:\Users\COSMIN~1.MAR\AppData\Local\Temp\ccJVXHYk.s 			page 17


 642 0076 00E0     		b	.L50	@
 643              	.L55:
 272:core/lpc17xx_gpio.c **** 	else
 273:core/lpc17xx_gpio.c **** 		//Error
 274:core/lpc17xx_gpio.c **** 		while(1);
 644              		.loc 1 274 0 discriminator 1
 645 0078 FEE7     		b	.L55	@
 646              	.L50:
 275:core/lpc17xx_gpio.c **** }
 647              		.loc 1 275 0
 648 007a 0C37     		adds	r7, r7, #12	@,,
 649              		.cfi_def_cfa_offset 4
 650 007c BD46     		mov	sp, r7	@,
 651              		.cfi_def_cfa_register 13
 652              		@ sp needed	@
 653 007e 5DF8047B 		ldr	r7, [sp], #4	@,
 654              		.cfi_restore 7
 655              		.cfi_def_cfa_offset 0
 656 0082 7047     		bx	lr	@
 657              	.L57:
 658              		.align	2
 659              	.L56:
 660 0084 80800240 		.word	1073905792
 661              		.cfi_endproc
 662              	.LFE62:
 663              		.size	GPIO_IntCmd, .-GPIO_IntCmd
 664              		.section	.text.GPIO_GetIntStatus,"ax",%progbits
 665              		.align	2
 666              		.global	GPIO_GetIntStatus
 667              		.thumb
 668              		.thumb_func
 669              		.type	GPIO_GetIntStatus, %function
 670              	GPIO_GetIntStatus:
 671              	.LFB63:
 276:core/lpc17xx_gpio.c **** 
 277:core/lpc17xx_gpio.c **** /*********************************************************************//**
 278:core/lpc17xx_gpio.c ****  * @brief		Get GPIO Interrupt Status (just used for P0.0-P0.30, P2.0-P2.13)
 279:core/lpc17xx_gpio.c ****  * @param[in]	portNum		Port number to read value, should be: 0 or 2
 280:core/lpc17xx_gpio.c ****  * @param[in]	pinNum		Pin number, should be: 0..30(with port 0) and 0..13
 281:core/lpc17xx_gpio.c ****  * 							(with port 2)
 282:core/lpc17xx_gpio.c ****  * @param[in]	edgeState	state of edge, should be:
 283:core/lpc17xx_gpio.c ****  * 							- 0: Rising edge
 284:core/lpc17xx_gpio.c ****  * 							- 1: Falling edge
 285:core/lpc17xx_gpio.c ****  * @return		Bool	could be:
 286:core/lpc17xx_gpio.c ****  * 						- ENABLE: Interrupt has been generated due to a rising
 287:core/lpc17xx_gpio.c ****  * 								edge on P0.0
 288:core/lpc17xx_gpio.c ****  * 						- DISABLE: A rising edge has not been detected on P0.0
 289:core/lpc17xx_gpio.c ****  **********************************************************************/
 290:core/lpc17xx_gpio.c **** FunctionalState GPIO_GetIntStatus(uint8_t portNum, uint32_t pinNum, uint8_t edgeState)
 291:core/lpc17xx_gpio.c **** {
 672              		.loc 1 291 0
 673              		.cfi_startproc
 674              		@ args = 0, pretend = 0, frame = 8
 675              		@ frame_needed = 1, uses_anonymous_args = 0
 676              		@ link register save eliminated.
 677 0000 80B4     		push	{r7}	@
 678              		.cfi_def_cfa_offset 4
ARM GAS  C:\Users\COSMIN~1.MAR\AppData\Local\Temp\ccJVXHYk.s 			page 18


 679              		.cfi_offset 7, -4
 680 0002 83B0     		sub	sp, sp, #12	@,,
 681              		.cfi_def_cfa_offset 16
 682 0004 00AF     		add	r7, sp, #0	@,,
 683              		.cfi_def_cfa_register 7
 684 0006 0346     		mov	r3, r0	@ tmp132, portNum
 685 0008 3960     		str	r1, [r7]	@ pinNum, pinNum
 686 000a FB71     		strb	r3, [r7, #7]	@ tmp133, portNum
 687 000c 1346     		mov	r3, r2	@ tmp135, tmp134
 688 000e BB71     		strb	r3, [r7, #6]	@ tmp135, edgeState
 292:core/lpc17xx_gpio.c **** 	if((portNum == 0) && (edgeState == 0))//Rising Edge
 689              		.loc 1 292 0
 690 0010 FB79     		ldrb	r3, [r7, #7]	@ zero_extendqisi2	@ tmp136, portNum
 691 0012 002B     		cmp	r3, #0	@ tmp136,
 692 0014 0CD1     		bne	.L59	@,
 693              		.loc 1 292 0 is_stmt 0 discriminator 1
 694 0016 BB79     		ldrb	r3, [r7, #6]	@ zero_extendqisi2	@ tmp137, edgeState
 695 0018 002B     		cmp	r3, #0	@ tmp137,
 696 001a 09D1     		bne	.L59	@,
 293:core/lpc17xx_gpio.c **** 		return (((LPC_GPIOINT->IO0IntStatR)>>pinNum)& 0x1);
 697              		.loc 1 293 0 is_stmt 1
 698 001c 204B     		ldr	r3, .L64	@ D.5849,
 699 001e 5A68     		ldr	r2, [r3, #4]	@ D.5850, _4->IO0IntStatR
 700 0020 3B68     		ldr	r3, [r7]	@ D.5851, pinNum
 701 0022 22FA03F3 		lsr	r3, r2, r3	@ D.5850, D.5850, D.5851
 702 0026 DBB2     		uxtb	r3, r3	@ D.5852, D.5850
 703 0028 03F00103 		and	r3, r3, #1	@ tmp138, D.5852,
 704 002c DBB2     		uxtb	r3, r3	@ D.5848, tmp138
 705 002e 30E0     		b	.L60	@
 706              	.L59:
 294:core/lpc17xx_gpio.c **** 	else if ((portNum == 2) && (edgeState == 0))
 707              		.loc 1 294 0
 708 0030 FB79     		ldrb	r3, [r7, #7]	@ zero_extendqisi2	@ tmp139, portNum
 709 0032 022B     		cmp	r3, #2	@ tmp139,
 710 0034 0CD1     		bne	.L61	@,
 711              		.loc 1 294 0 is_stmt 0 discriminator 1
 712 0036 BB79     		ldrb	r3, [r7, #6]	@ zero_extendqisi2	@ tmp140, edgeState
 713 0038 002B     		cmp	r3, #0	@ tmp140,
 714 003a 09D1     		bne	.L61	@,
 295:core/lpc17xx_gpio.c **** 		return (((LPC_GPIOINT->IO2IntStatR)>>pinNum)& 0x1);
 715              		.loc 1 295 0 is_stmt 1
 716 003c 184B     		ldr	r3, .L64	@ D.5849,
 717 003e 5A6A     		ldr	r2, [r3, #36]	@ D.5850, _11->IO2IntStatR
 718 0040 3B68     		ldr	r3, [r7]	@ D.5851, pinNum
 719 0042 22FA03F3 		lsr	r3, r2, r3	@ D.5850, D.5850, D.5851
 720 0046 DBB2     		uxtb	r3, r3	@ D.5852, D.5850
 721 0048 03F00103 		and	r3, r3, #1	@ tmp141, D.5852,
 722 004c DBB2     		uxtb	r3, r3	@ D.5848, tmp141
 723 004e 20E0     		b	.L60	@
 724              	.L61:
 296:core/lpc17xx_gpio.c **** 	else if ((portNum == 0) && (edgeState == 1))//Falling Edge
 725              		.loc 1 296 0
 726 0050 FB79     		ldrb	r3, [r7, #7]	@ zero_extendqisi2	@ tmp142, portNum
 727 0052 002B     		cmp	r3, #0	@ tmp142,
 728 0054 0CD1     		bne	.L62	@,
 729              		.loc 1 296 0 is_stmt 0 discriminator 1
 730 0056 BB79     		ldrb	r3, [r7, #6]	@ zero_extendqisi2	@ tmp143, edgeState
ARM GAS  C:\Users\COSMIN~1.MAR\AppData\Local\Temp\ccJVXHYk.s 			page 19


 731 0058 012B     		cmp	r3, #1	@ tmp143,
 732 005a 09D1     		bne	.L62	@,
 297:core/lpc17xx_gpio.c **** 		return (((LPC_GPIOINT->IO0IntStatF)>>pinNum)& 0x1);
 733              		.loc 1 297 0 is_stmt 1
 734 005c 104B     		ldr	r3, .L64	@ D.5849,
 735 005e 9A68     		ldr	r2, [r3, #8]	@ D.5850, _17->IO0IntStatF
 736 0060 3B68     		ldr	r3, [r7]	@ D.5851, pinNum
 737 0062 22FA03F3 		lsr	r3, r2, r3	@ D.5850, D.5850, D.5851
 738 0066 DBB2     		uxtb	r3, r3	@ D.5852, D.5850
 739 0068 03F00103 		and	r3, r3, #1	@ tmp144, D.5852,
 740 006c DBB2     		uxtb	r3, r3	@ D.5848, tmp144
 741 006e 10E0     		b	.L60	@
 742              	.L62:
 298:core/lpc17xx_gpio.c **** 	else if ((portNum == 2) && (edgeState == 1))
 743              		.loc 1 298 0
 744 0070 FB79     		ldrb	r3, [r7, #7]	@ zero_extendqisi2	@ tmp145, portNum
 745 0072 022B     		cmp	r3, #2	@ tmp145,
 746 0074 0CD1     		bne	.L63	@,
 747              		.loc 1 298 0 is_stmt 0 discriminator 1
 748 0076 BB79     		ldrb	r3, [r7, #6]	@ zero_extendqisi2	@ tmp146, edgeState
 749 0078 012B     		cmp	r3, #1	@ tmp146,
 750 007a 09D1     		bne	.L63	@,
 299:core/lpc17xx_gpio.c **** 		return (((LPC_GPIOINT->IO2IntStatF)>>pinNum)& 0x1);
 751              		.loc 1 299 0 is_stmt 1
 752 007c 084B     		ldr	r3, .L64	@ D.5849,
 753 007e 9A6A     		ldr	r2, [r3, #40]	@ D.5850, _23->IO2IntStatF
 754 0080 3B68     		ldr	r3, [r7]	@ D.5851, pinNum
 755 0082 22FA03F3 		lsr	r3, r2, r3	@ D.5850, D.5850, D.5851
 756 0086 DBB2     		uxtb	r3, r3	@ D.5852, D.5850
 757 0088 03F00103 		and	r3, r3, #1	@ tmp147, D.5852,
 758 008c DBB2     		uxtb	r3, r3	@ D.5848, tmp147
 759 008e 00E0     		b	.L60	@
 760              	.L63:
 300:core/lpc17xx_gpio.c **** 	else
 301:core/lpc17xx_gpio.c **** 		//Error
 302:core/lpc17xx_gpio.c **** 		while(1);
 761              		.loc 1 302 0 discriminator 1
 762 0090 FEE7     		b	.L63	@
 763              	.L60:
 303:core/lpc17xx_gpio.c **** }
 764              		.loc 1 303 0
 765 0092 1846     		mov	r0, r3	@, <retval>
 766 0094 0C37     		adds	r7, r7, #12	@,,
 767              		.cfi_def_cfa_offset 4
 768 0096 BD46     		mov	sp, r7	@,
 769              		.cfi_def_cfa_register 13
 770              		@ sp needed	@
 771 0098 5DF8047B 		ldr	r7, [sp], #4	@,
 772              		.cfi_restore 7
 773              		.cfi_def_cfa_offset 0
 774 009c 7047     		bx	lr	@
 775              	.L65:
 776 009e 00BF     		.align	2
 777              	.L64:
 778 00a0 80800240 		.word	1073905792
 779              		.cfi_endproc
 780              	.LFE63:
ARM GAS  C:\Users\COSMIN~1.MAR\AppData\Local\Temp\ccJVXHYk.s 			page 20


 781              		.size	GPIO_GetIntStatus, .-GPIO_GetIntStatus
 782              		.section	.text.GPIO_ClearInt,"ax",%progbits
 783              		.align	2
 784              		.global	GPIO_ClearInt
 785              		.thumb
 786              		.thumb_func
 787              		.type	GPIO_ClearInt, %function
 788              	GPIO_ClearInt:
 789              	.LFB64:
 304:core/lpc17xx_gpio.c **** /*********************************************************************//**
 305:core/lpc17xx_gpio.c ****  * @brief		Clear GPIO interrupt (just used for P0.0-P0.30, P2.0-P2.13)
 306:core/lpc17xx_gpio.c ****  * @param[in]	portNum		Port number to read value, should be: 0 or 2
 307:core/lpc17xx_gpio.c ****  * @param[in]	bitValue	Value that contains all bits on GPIO to enable,
 308:core/lpc17xx_gpio.c ****  * 							in range from 0 to 0xFFFFFFFF.
 309:core/lpc17xx_gpio.c ****  * @return		None
 310:core/lpc17xx_gpio.c ****  **********************************************************************/
 311:core/lpc17xx_gpio.c **** void GPIO_ClearInt(uint8_t portNum, uint32_t bitValue)
 312:core/lpc17xx_gpio.c **** {
 790              		.loc 1 312 0
 791              		.cfi_startproc
 792              		@ args = 0, pretend = 0, frame = 8
 793              		@ frame_needed = 1, uses_anonymous_args = 0
 794              		@ link register save eliminated.
 795 0000 80B4     		push	{r7}	@
 796              		.cfi_def_cfa_offset 4
 797              		.cfi_offset 7, -4
 798 0002 83B0     		sub	sp, sp, #12	@,,
 799              		.cfi_def_cfa_offset 16
 800 0004 00AF     		add	r7, sp, #0	@,,
 801              		.cfi_def_cfa_register 7
 802 0006 0346     		mov	r3, r0	@ tmp112, portNum
 803 0008 3960     		str	r1, [r7]	@ bitValue, bitValue
 804 000a FB71     		strb	r3, [r7, #7]	@ tmp113, portNum
 313:core/lpc17xx_gpio.c **** 	if(portNum == 0)
 805              		.loc 1 313 0
 806 000c FB79     		ldrb	r3, [r7, #7]	@ zero_extendqisi2	@ tmp114, portNum
 807 000e 002B     		cmp	r3, #0	@ tmp114,
 808 0010 03D1     		bne	.L67	@,
 314:core/lpc17xx_gpio.c **** 		LPC_GPIOINT->IO0IntClr = bitValue;
 809              		.loc 1 314 0
 810 0012 084A     		ldr	r2, .L70	@ D.5853,
 811 0014 3B68     		ldr	r3, [r7]	@ tmp115, bitValue
 812 0016 D360     		str	r3, [r2, #12]	@ tmp115, _2->IO0IntClr
 813 0018 07E0     		b	.L66	@
 814              	.L67:
 315:core/lpc17xx_gpio.c **** 	else if (portNum == 2)
 815              		.loc 1 315 0
 816 001a FB79     		ldrb	r3, [r7, #7]	@ zero_extendqisi2	@ tmp116, portNum
 817 001c 022B     		cmp	r3, #2	@ tmp116,
 818 001e 03D1     		bne	.L69	@,
 316:core/lpc17xx_gpio.c **** 		LPC_GPIOINT->IO2IntClr = bitValue;
 819              		.loc 1 316 0
 820 0020 044A     		ldr	r2, .L70	@ D.5853,
 821 0022 3B68     		ldr	r3, [r7]	@ tmp117, bitValue
 822 0024 D362     		str	r3, [r2, #44]	@ tmp117, _4->IO2IntClr
 823 0026 00E0     		b	.L66	@
 824              	.L69:
ARM GAS  C:\Users\COSMIN~1.MAR\AppData\Local\Temp\ccJVXHYk.s 			page 21


 317:core/lpc17xx_gpio.c **** 	else
 318:core/lpc17xx_gpio.c **** 		//Invalid portNum
 319:core/lpc17xx_gpio.c **** 		while(1);
 825              		.loc 1 319 0 discriminator 1
 826 0028 FEE7     		b	.L69	@
 827              	.L66:
 320:core/lpc17xx_gpio.c **** }
 828              		.loc 1 320 0
 829 002a 0C37     		adds	r7, r7, #12	@,,
 830              		.cfi_def_cfa_offset 4
 831 002c BD46     		mov	sp, r7	@,
 832              		.cfi_def_cfa_register 13
 833              		@ sp needed	@
 834 002e 5DF8047B 		ldr	r7, [sp], #4	@,
 835              		.cfi_restore 7
 836              		.cfi_def_cfa_offset 0
 837 0032 7047     		bx	lr	@
 838              	.L71:
 839              		.align	2
 840              	.L70:
 841 0034 80800240 		.word	1073905792
 842              		.cfi_endproc
 843              	.LFE64:
 844              		.size	GPIO_ClearInt, .-GPIO_ClearInt
 845              		.section	.text.FIO_SetDir,"ax",%progbits
 846              		.align	2
 847              		.global	FIO_SetDir
 848              		.thumb
 849              		.thumb_func
 850              		.type	FIO_SetDir, %function
 851              	FIO_SetDir:
 852              	.LFB65:
 321:core/lpc17xx_gpio.c **** 
 322:core/lpc17xx_gpio.c **** /* FIO word accessible ----------------------------------------------------------------- */
 323:core/lpc17xx_gpio.c **** /* Stub function for FIO (word-accessible) style */
 324:core/lpc17xx_gpio.c **** 
 325:core/lpc17xx_gpio.c **** /**
 326:core/lpc17xx_gpio.c ****  * @brief The same with GPIO_SetDir()
 327:core/lpc17xx_gpio.c ****  */
 328:core/lpc17xx_gpio.c **** void FIO_SetDir(uint8_t portNum, uint32_t bitValue, uint8_t dir)
 329:core/lpc17xx_gpio.c **** {
 853              		.loc 1 329 0
 854              		.cfi_startproc
 855              		@ args = 0, pretend = 0, frame = 8
 856              		@ frame_needed = 1, uses_anonymous_args = 0
 857 0000 80B5     		push	{r7, lr}	@
 858              		.cfi_def_cfa_offset 8
 859              		.cfi_offset 7, -8
 860              		.cfi_offset 14, -4
 861 0002 82B0     		sub	sp, sp, #8	@,,
 862              		.cfi_def_cfa_offset 16
 863 0004 00AF     		add	r7, sp, #0	@,,
 864              		.cfi_def_cfa_register 7
 865 0006 0346     		mov	r3, r0	@ tmp110, portNum
 866 0008 3960     		str	r1, [r7]	@ bitValue, bitValue
 867 000a FB71     		strb	r3, [r7, #7]	@ tmp111, portNum
 868 000c 1346     		mov	r3, r2	@ tmp113, tmp112
ARM GAS  C:\Users\COSMIN~1.MAR\AppData\Local\Temp\ccJVXHYk.s 			page 22


 869 000e BB71     		strb	r3, [r7, #6]	@ tmp113, dir
 330:core/lpc17xx_gpio.c **** 	GPIO_SetDir(portNum, bitValue, dir);
 870              		.loc 1 330 0
 871 0010 FA79     		ldrb	r2, [r7, #7]	@ zero_extendqisi2	@ tmp114, portNum
 872 0012 BB79     		ldrb	r3, [r7, #6]	@ zero_extendqisi2	@ tmp115, dir
 873 0014 1046     		mov	r0, r2	@, tmp114
 874 0016 3968     		ldr	r1, [r7]	@, bitValue
 875 0018 1A46     		mov	r2, r3	@, tmp115
 876 001a FFF7FEFF 		bl	GPIO_SetDir	@
 331:core/lpc17xx_gpio.c **** }
 877              		.loc 1 331 0
 878 001e 0837     		adds	r7, r7, #8	@,,
 879              		.cfi_def_cfa_offset 8
 880 0020 BD46     		mov	sp, r7	@,
 881              		.cfi_def_cfa_register 13
 882              		@ sp needed	@
 883 0022 80BD     		pop	{r7, pc}	@
 884              		.cfi_endproc
 885              	.LFE65:
 886              		.size	FIO_SetDir, .-FIO_SetDir
 887              		.section	.text.FIO_SetValue,"ax",%progbits
 888              		.align	2
 889              		.global	FIO_SetValue
 890              		.thumb
 891              		.thumb_func
 892              		.type	FIO_SetValue, %function
 893              	FIO_SetValue:
 894              	.LFB66:
 332:core/lpc17xx_gpio.c **** 
 333:core/lpc17xx_gpio.c **** /**
 334:core/lpc17xx_gpio.c ****  * @brief The same with GPIO_SetValue()
 335:core/lpc17xx_gpio.c ****  */
 336:core/lpc17xx_gpio.c **** void FIO_SetValue(uint8_t portNum, uint32_t bitValue)
 337:core/lpc17xx_gpio.c **** {
 895              		.loc 1 337 0
 896              		.cfi_startproc
 897              		@ args = 0, pretend = 0, frame = 8
 898              		@ frame_needed = 1, uses_anonymous_args = 0
 899 0000 80B5     		push	{r7, lr}	@
 900              		.cfi_def_cfa_offset 8
 901              		.cfi_offset 7, -8
 902              		.cfi_offset 14, -4
 903 0002 82B0     		sub	sp, sp, #8	@,,
 904              		.cfi_def_cfa_offset 16
 905 0004 00AF     		add	r7, sp, #0	@,,
 906              		.cfi_def_cfa_register 7
 907 0006 0346     		mov	r3, r0	@ tmp110, portNum
 908 0008 3960     		str	r1, [r7]	@ bitValue, bitValue
 909 000a FB71     		strb	r3, [r7, #7]	@ tmp111, portNum
 338:core/lpc17xx_gpio.c **** 	GPIO_SetValue(portNum, bitValue);
 910              		.loc 1 338 0
 911 000c FB79     		ldrb	r3, [r7, #7]	@ zero_extendqisi2	@ tmp112, portNum
 912 000e 1846     		mov	r0, r3	@, tmp112
 913 0010 3968     		ldr	r1, [r7]	@, bitValue
 914 0012 FFF7FEFF 		bl	GPIO_SetValue	@
 339:core/lpc17xx_gpio.c **** }
 915              		.loc 1 339 0
ARM GAS  C:\Users\COSMIN~1.MAR\AppData\Local\Temp\ccJVXHYk.s 			page 23


 916 0016 0837     		adds	r7, r7, #8	@,,
 917              		.cfi_def_cfa_offset 8
 918 0018 BD46     		mov	sp, r7	@,
 919              		.cfi_def_cfa_register 13
 920              		@ sp needed	@
 921 001a 80BD     		pop	{r7, pc}	@
 922              		.cfi_endproc
 923              	.LFE66:
 924              		.size	FIO_SetValue, .-FIO_SetValue
 925              		.section	.text.FIO_ClearValue,"ax",%progbits
 926              		.align	2
 927              		.global	FIO_ClearValue
 928              		.thumb
 929              		.thumb_func
 930              		.type	FIO_ClearValue, %function
 931              	FIO_ClearValue:
 932              	.LFB67:
 340:core/lpc17xx_gpio.c **** 
 341:core/lpc17xx_gpio.c **** /**
 342:core/lpc17xx_gpio.c ****  * @brief The same with GPIO_ClearValue()
 343:core/lpc17xx_gpio.c ****  */
 344:core/lpc17xx_gpio.c **** void FIO_ClearValue(uint8_t portNum, uint32_t bitValue)
 345:core/lpc17xx_gpio.c **** {
 933              		.loc 1 345 0
 934              		.cfi_startproc
 935              		@ args = 0, pretend = 0, frame = 8
 936              		@ frame_needed = 1, uses_anonymous_args = 0
 937 0000 80B5     		push	{r7, lr}	@
 938              		.cfi_def_cfa_offset 8
 939              		.cfi_offset 7, -8
 940              		.cfi_offset 14, -4
 941 0002 82B0     		sub	sp, sp, #8	@,,
 942              		.cfi_def_cfa_offset 16
 943 0004 00AF     		add	r7, sp, #0	@,,
 944              		.cfi_def_cfa_register 7
 945 0006 0346     		mov	r3, r0	@ tmp110, portNum
 946 0008 3960     		str	r1, [r7]	@ bitValue, bitValue
 947 000a FB71     		strb	r3, [r7, #7]	@ tmp111, portNum
 346:core/lpc17xx_gpio.c **** 	GPIO_ClearValue(portNum, bitValue);
 948              		.loc 1 346 0
 949 000c FB79     		ldrb	r3, [r7, #7]	@ zero_extendqisi2	@ tmp112, portNum
 950 000e 1846     		mov	r0, r3	@, tmp112
 951 0010 3968     		ldr	r1, [r7]	@, bitValue
 952 0012 FFF7FEFF 		bl	GPIO_ClearValue	@
 347:core/lpc17xx_gpio.c **** }
 953              		.loc 1 347 0
 954 0016 0837     		adds	r7, r7, #8	@,,
 955              		.cfi_def_cfa_offset 8
 956 0018 BD46     		mov	sp, r7	@,
 957              		.cfi_def_cfa_register 13
 958              		@ sp needed	@
 959 001a 80BD     		pop	{r7, pc}	@
 960              		.cfi_endproc
 961              	.LFE67:
 962              		.size	FIO_ClearValue, .-FIO_ClearValue
 963              		.section	.text.FIO_ReadValue,"ax",%progbits
 964              		.align	2
ARM GAS  C:\Users\COSMIN~1.MAR\AppData\Local\Temp\ccJVXHYk.s 			page 24


 965              		.global	FIO_ReadValue
 966              		.thumb
 967              		.thumb_func
 968              		.type	FIO_ReadValue, %function
 969              	FIO_ReadValue:
 970              	.LFB68:
 348:core/lpc17xx_gpio.c **** 
 349:core/lpc17xx_gpio.c **** /**
 350:core/lpc17xx_gpio.c ****  * @brief The same with GPIO_ReadValue()
 351:core/lpc17xx_gpio.c ****  */
 352:core/lpc17xx_gpio.c **** uint32_t FIO_ReadValue(uint8_t portNum)
 353:core/lpc17xx_gpio.c **** {
 971              		.loc 1 353 0
 972              		.cfi_startproc
 973              		@ args = 0, pretend = 0, frame = 8
 974              		@ frame_needed = 1, uses_anonymous_args = 0
 975 0000 80B5     		push	{r7, lr}	@
 976              		.cfi_def_cfa_offset 8
 977              		.cfi_offset 7, -8
 978              		.cfi_offset 14, -4
 979 0002 82B0     		sub	sp, sp, #8	@,,
 980              		.cfi_def_cfa_offset 16
 981 0004 00AF     		add	r7, sp, #0	@,,
 982              		.cfi_def_cfa_register 7
 983 0006 0346     		mov	r3, r0	@ tmp112, portNum
 984 0008 FB71     		strb	r3, [r7, #7]	@ tmp113, portNum
 354:core/lpc17xx_gpio.c **** 	return (GPIO_ReadValue(portNum));
 985              		.loc 1 354 0
 986 000a FB79     		ldrb	r3, [r7, #7]	@ zero_extendqisi2	@ tmp114, portNum
 987 000c 1846     		mov	r0, r3	@, tmp114
 988 000e FFF7FEFF 		bl	GPIO_ReadValue	@
 989 0012 0346     		mov	r3, r0	@ D.5854,
 355:core/lpc17xx_gpio.c **** }
 990              		.loc 1 355 0
 991 0014 1846     		mov	r0, r3	@, <retval>
 992 0016 0837     		adds	r7, r7, #8	@,,
 993              		.cfi_def_cfa_offset 8
 994 0018 BD46     		mov	sp, r7	@,
 995              		.cfi_def_cfa_register 13
 996              		@ sp needed	@
 997 001a 80BD     		pop	{r7, pc}	@
 998              		.cfi_endproc
 999              	.LFE68:
 1000              		.size	FIO_ReadValue, .-FIO_ReadValue
 1001              		.section	.text.FIO_IntCmd,"ax",%progbits
 1002              		.align	2
 1003              		.global	FIO_IntCmd
 1004              		.thumb
 1005              		.thumb_func
 1006              		.type	FIO_IntCmd, %function
 1007              	FIO_IntCmd:
 1008              	.LFB69:
 356:core/lpc17xx_gpio.c **** 
 357:core/lpc17xx_gpio.c **** /**
 358:core/lpc17xx_gpio.c ****  * @brief The same with GPIO_IntCmd()
 359:core/lpc17xx_gpio.c ****  */
 360:core/lpc17xx_gpio.c **** void FIO_IntCmd(uint8_t portNum, uint32_t bitValue, uint8_t edgeState)
ARM GAS  C:\Users\COSMIN~1.MAR\AppData\Local\Temp\ccJVXHYk.s 			page 25


 361:core/lpc17xx_gpio.c **** {
 1009              		.loc 1 361 0
 1010              		.cfi_startproc
 1011              		@ args = 0, pretend = 0, frame = 8
 1012              		@ frame_needed = 1, uses_anonymous_args = 0
 1013 0000 80B5     		push	{r7, lr}	@
 1014              		.cfi_def_cfa_offset 8
 1015              		.cfi_offset 7, -8
 1016              		.cfi_offset 14, -4
 1017 0002 82B0     		sub	sp, sp, #8	@,,
 1018              		.cfi_def_cfa_offset 16
 1019 0004 00AF     		add	r7, sp, #0	@,,
 1020              		.cfi_def_cfa_register 7
 1021 0006 0346     		mov	r3, r0	@ tmp110, portNum
 1022 0008 3960     		str	r1, [r7]	@ bitValue, bitValue
 1023 000a FB71     		strb	r3, [r7, #7]	@ tmp111, portNum
 1024 000c 1346     		mov	r3, r2	@ tmp113, tmp112
 1025 000e BB71     		strb	r3, [r7, #6]	@ tmp113, edgeState
 362:core/lpc17xx_gpio.c **** 	GPIO_IntCmd(portNum, bitValue, edgeState);
 1026              		.loc 1 362 0
 1027 0010 FA79     		ldrb	r2, [r7, #7]	@ zero_extendqisi2	@ tmp114, portNum
 1028 0012 BB79     		ldrb	r3, [r7, #6]	@ zero_extendqisi2	@ tmp115, edgeState
 1029 0014 1046     		mov	r0, r2	@, tmp114
 1030 0016 3968     		ldr	r1, [r7]	@, bitValue
 1031 0018 1A46     		mov	r2, r3	@, tmp115
 1032 001a FFF7FEFF 		bl	GPIO_IntCmd	@
 363:core/lpc17xx_gpio.c **** }
 1033              		.loc 1 363 0
 1034 001e 0837     		adds	r7, r7, #8	@,,
 1035              		.cfi_def_cfa_offset 8
 1036 0020 BD46     		mov	sp, r7	@,
 1037              		.cfi_def_cfa_register 13
 1038              		@ sp needed	@
 1039 0022 80BD     		pop	{r7, pc}	@
 1040              		.cfi_endproc
 1041              	.LFE69:
 1042              		.size	FIO_IntCmd, .-FIO_IntCmd
 1043              		.section	.text.FIO_GetIntStatus,"ax",%progbits
 1044              		.align	2
 1045              		.global	FIO_GetIntStatus
 1046              		.thumb
 1047              		.thumb_func
 1048              		.type	FIO_GetIntStatus, %function
 1049              	FIO_GetIntStatus:
 1050              	.LFB70:
 364:core/lpc17xx_gpio.c **** 
 365:core/lpc17xx_gpio.c **** /**
 366:core/lpc17xx_gpio.c ****  * @brief The same with GPIO_GetIntStatus()
 367:core/lpc17xx_gpio.c ****  */
 368:core/lpc17xx_gpio.c **** FunctionalState FIO_GetIntStatus(uint8_t portNum, uint32_t pinNum, uint8_t edgeState)
 369:core/lpc17xx_gpio.c **** {
 1051              		.loc 1 369 0
 1052              		.cfi_startproc
 1053              		@ args = 0, pretend = 0, frame = 8
 1054              		@ frame_needed = 1, uses_anonymous_args = 0
 1055 0000 80B5     		push	{r7, lr}	@
 1056              		.cfi_def_cfa_offset 8
ARM GAS  C:\Users\COSMIN~1.MAR\AppData\Local\Temp\ccJVXHYk.s 			page 26


 1057              		.cfi_offset 7, -8
 1058              		.cfi_offset 14, -4
 1059 0002 82B0     		sub	sp, sp, #8	@,,
 1060              		.cfi_def_cfa_offset 16
 1061 0004 00AF     		add	r7, sp, #0	@,,
 1062              		.cfi_def_cfa_register 7
 1063 0006 0346     		mov	r3, r0	@ tmp112, portNum
 1064 0008 3960     		str	r1, [r7]	@ pinNum, pinNum
 1065 000a FB71     		strb	r3, [r7, #7]	@ tmp113, portNum
 1066 000c 1346     		mov	r3, r2	@ tmp115, tmp114
 1067 000e BB71     		strb	r3, [r7, #6]	@ tmp115, edgeState
 370:core/lpc17xx_gpio.c **** 	return (GPIO_GetIntStatus(portNum, pinNum, edgeState));
 1068              		.loc 1 370 0
 1069 0010 FA79     		ldrb	r2, [r7, #7]	@ zero_extendqisi2	@ tmp116, portNum
 1070 0012 BB79     		ldrb	r3, [r7, #6]	@ zero_extendqisi2	@ tmp117, edgeState
 1071 0014 1046     		mov	r0, r2	@, tmp116
 1072 0016 3968     		ldr	r1, [r7]	@, pinNum
 1073 0018 1A46     		mov	r2, r3	@, tmp117
 1074 001a FFF7FEFF 		bl	GPIO_GetIntStatus	@
 1075 001e 0346     		mov	r3, r0	@ tmp118,
 371:core/lpc17xx_gpio.c **** }
 1076              		.loc 1 371 0
 1077 0020 1846     		mov	r0, r3	@, <retval>
 1078 0022 0837     		adds	r7, r7, #8	@,,
 1079              		.cfi_def_cfa_offset 8
 1080 0024 BD46     		mov	sp, r7	@,
 1081              		.cfi_def_cfa_register 13
 1082              		@ sp needed	@
 1083 0026 80BD     		pop	{r7, pc}	@
 1084              		.cfi_endproc
 1085              	.LFE70:
 1086              		.size	FIO_GetIntStatus, .-FIO_GetIntStatus
 1087              		.section	.text.FIO_ClearInt,"ax",%progbits
 1088              		.align	2
 1089              		.global	FIO_ClearInt
 1090              		.thumb
 1091              		.thumb_func
 1092              		.type	FIO_ClearInt, %function
 1093              	FIO_ClearInt:
 1094              	.LFB71:
 372:core/lpc17xx_gpio.c **** 
 373:core/lpc17xx_gpio.c **** /**
 374:core/lpc17xx_gpio.c ****  * @brief The same with GPIO_ClearInt()
 375:core/lpc17xx_gpio.c ****  */
 376:core/lpc17xx_gpio.c **** void FIO_ClearInt(uint8_t portNum, uint32_t bitValue)
 377:core/lpc17xx_gpio.c **** {
 1095              		.loc 1 377 0
 1096              		.cfi_startproc
 1097              		@ args = 0, pretend = 0, frame = 8
 1098              		@ frame_needed = 1, uses_anonymous_args = 0
 1099 0000 80B5     		push	{r7, lr}	@
 1100              		.cfi_def_cfa_offset 8
 1101              		.cfi_offset 7, -8
 1102              		.cfi_offset 14, -4
 1103 0002 82B0     		sub	sp, sp, #8	@,,
 1104              		.cfi_def_cfa_offset 16
 1105 0004 00AF     		add	r7, sp, #0	@,,
ARM GAS  C:\Users\COSMIN~1.MAR\AppData\Local\Temp\ccJVXHYk.s 			page 27


 1106              		.cfi_def_cfa_register 7
 1107 0006 0346     		mov	r3, r0	@ tmp110, portNum
 1108 0008 3960     		str	r1, [r7]	@ bitValue, bitValue
 1109 000a FB71     		strb	r3, [r7, #7]	@ tmp111, portNum
 378:core/lpc17xx_gpio.c **** 	GPIO_ClearInt(portNum, bitValue);
 1110              		.loc 1 378 0
 1111 000c FB79     		ldrb	r3, [r7, #7]	@ zero_extendqisi2	@ tmp112, portNum
 1112 000e 1846     		mov	r0, r3	@, tmp112
 1113 0010 3968     		ldr	r1, [r7]	@, bitValue
 1114 0012 FFF7FEFF 		bl	GPIO_ClearInt	@
 379:core/lpc17xx_gpio.c **** }
 1115              		.loc 1 379 0
 1116 0016 0837     		adds	r7, r7, #8	@,,
 1117              		.cfi_def_cfa_offset 8
 1118 0018 BD46     		mov	sp, r7	@,
 1119              		.cfi_def_cfa_register 13
 1120              		@ sp needed	@
 1121 001a 80BD     		pop	{r7, pc}	@
 1122              		.cfi_endproc
 1123              	.LFE71:
 1124              		.size	FIO_ClearInt, .-FIO_ClearInt
 1125              		.section	.text.FIO_SetMask,"ax",%progbits
 1126              		.align	2
 1127              		.global	FIO_SetMask
 1128              		.thumb
 1129              		.thumb_func
 1130              		.type	FIO_SetMask, %function
 1131              	FIO_SetMask:
 1132              	.LFB72:
 380:core/lpc17xx_gpio.c **** /*********************************************************************//**
 381:core/lpc17xx_gpio.c ****  * @brief		Set mask value for bits in FIO port
 382:core/lpc17xx_gpio.c ****  * @param[in]	portNum		Port number, in range from 0 to 4
 383:core/lpc17xx_gpio.c ****  * @param[in]	bitValue	Value that contains all bits in to set,
 384:core/lpc17xx_gpio.c ****  * 							in range from 0 to 0xFFFFFFFF.
 385:core/lpc17xx_gpio.c ****  * @param[in]	maskValue	Mask value contains state value for each bit:
 386:core/lpc17xx_gpio.c ****  * 							- 0: not mask.
 387:core/lpc17xx_gpio.c ****  * 							- 1: mask.
 388:core/lpc17xx_gpio.c ****  * @return		None
 389:core/lpc17xx_gpio.c ****  *
 390:core/lpc17xx_gpio.c ****  * Note:
 391:core/lpc17xx_gpio.c ****  * - All remaining bits that are not activated in bitValue (value '0')
 392:core/lpc17xx_gpio.c ****  * will not be effected by this function.
 393:core/lpc17xx_gpio.c ****  * - After executing this function, in mask register, value '0' on each bit
 394:core/lpc17xx_gpio.c ****  * enables an access to the corresponding physical pin via a read or write access,
 395:core/lpc17xx_gpio.c ****  * while value '1' on bit (masked) that corresponding pin will not be changed
 396:core/lpc17xx_gpio.c ****  * with write access and if read, will not be reflected in the updated pin.
 397:core/lpc17xx_gpio.c ****  **********************************************************************/
 398:core/lpc17xx_gpio.c **** void FIO_SetMask(uint8_t portNum, uint32_t bitValue, uint8_t maskValue)
 399:core/lpc17xx_gpio.c **** {
 1133              		.loc 1 399 0
 1134              		.cfi_startproc
 1135              		@ args = 0, pretend = 0, frame = 16
 1136              		@ frame_needed = 1, uses_anonymous_args = 0
 1137 0000 80B5     		push	{r7, lr}	@
 1138              		.cfi_def_cfa_offset 8
 1139              		.cfi_offset 7, -8
 1140              		.cfi_offset 14, -4
ARM GAS  C:\Users\COSMIN~1.MAR\AppData\Local\Temp\ccJVXHYk.s 			page 28


 1141 0002 84B0     		sub	sp, sp, #16	@,,
 1142              		.cfi_def_cfa_offset 24
 1143 0004 00AF     		add	r7, sp, #0	@,,
 1144              		.cfi_def_cfa_register 7
 1145 0006 0346     		mov	r3, r0	@ tmp115, portNum
 1146 0008 3960     		str	r1, [r7]	@ bitValue, bitValue
 1147 000a FB71     		strb	r3, [r7, #7]	@ tmp116, portNum
 1148 000c 1346     		mov	r3, r2	@ tmp118, tmp117
 1149 000e BB71     		strb	r3, [r7, #6]	@ tmp118, maskValue
 400:core/lpc17xx_gpio.c **** 	LPC_GPIO_TypeDef *pFIO = GPIO_GetPointer(portNum);
 1150              		.loc 1 400 0
 1151 0010 FB79     		ldrb	r3, [r7, #7]	@ zero_extendqisi2	@ tmp119, portNum
 1152 0012 1846     		mov	r0, r3	@, tmp119
 1153 0014 FFF7FEFF 		bl	GPIO_GetPointer	@
 1154 0018 F860     		str	r0, [r7, #12]	@, pFIO
 401:core/lpc17xx_gpio.c **** 	if(pFIO != NULL) {
 1155              		.loc 1 401 0
 1156 001a FB68     		ldr	r3, [r7, #12]	@ tmp120, pFIO
 1157 001c 002B     		cmp	r3, #0	@ tmp120,
 1158 001e 10D0     		beq	.L81	@,
 402:core/lpc17xx_gpio.c **** 		// Mask
 403:core/lpc17xx_gpio.c **** 		if (maskValue){
 1159              		.loc 1 403 0
 1160 0020 BB79     		ldrb	r3, [r7, #6]	@ zero_extendqisi2	@ tmp121, maskValue
 1161 0022 002B     		cmp	r3, #0	@ tmp121,
 1162 0024 06D0     		beq	.L83	@,
 404:core/lpc17xx_gpio.c **** 			pFIO->FIOMASK |= bitValue;
 1163              		.loc 1 404 0
 1164 0026 FB68     		ldr	r3, [r7, #12]	@ tmp122, pFIO
 1165 0028 1A69     		ldr	r2, [r3, #16]	@ D.5856, pFIO_2->D.4618.FIOMASK
 1166 002a 3B68     		ldr	r3, [r7]	@ tmp123, bitValue
 1167 002c 1A43     		orrs	r2, r2, r3	@, D.5856, D.5856, tmp123
 1168 002e FB68     		ldr	r3, [r7, #12]	@ tmp124, pFIO
 1169 0030 1A61     		str	r2, [r3, #16]	@ D.5856, pFIO_2->D.4618.FIOMASK
 1170 0032 06E0     		b	.L81	@
 1171              	.L83:
 405:core/lpc17xx_gpio.c **** 		}
 406:core/lpc17xx_gpio.c **** 		// Un-mask
 407:core/lpc17xx_gpio.c **** 		else {
 408:core/lpc17xx_gpio.c **** 			pFIO->FIOMASK &= ~bitValue;
 1172              		.loc 1 408 0
 1173 0034 FB68     		ldr	r3, [r7, #12]	@ tmp125, pFIO
 1174 0036 1A69     		ldr	r2, [r3, #16]	@ D.5856, pFIO_2->D.4618.FIOMASK
 1175 0038 3B68     		ldr	r3, [r7]	@ tmp126, bitValue
 1176 003a DB43     		mvns	r3, r3	@ D.5856, tmp126
 1177 003c 1A40     		ands	r2, r2, r3	@, D.5856, D.5856, D.5856
 1178 003e FB68     		ldr	r3, [r7, #12]	@ tmp127, pFIO
 1179 0040 1A61     		str	r2, [r3, #16]	@ D.5856, pFIO_2->D.4618.FIOMASK
 1180              	.L81:
 409:core/lpc17xx_gpio.c **** 		}
 410:core/lpc17xx_gpio.c **** 	}
 411:core/lpc17xx_gpio.c **** }
 1181              		.loc 1 411 0
 1182 0042 1037     		adds	r7, r7, #16	@,,
 1183              		.cfi_def_cfa_offset 8
 1184 0044 BD46     		mov	sp, r7	@,
 1185              		.cfi_def_cfa_register 13
ARM GAS  C:\Users\COSMIN~1.MAR\AppData\Local\Temp\ccJVXHYk.s 			page 29


 1186              		@ sp needed	@
 1187 0046 80BD     		pop	{r7, pc}	@
 1188              		.cfi_endproc
 1189              	.LFE72:
 1190              		.size	FIO_SetMask, .-FIO_SetMask
 1191              		.section	.text.FIO_HalfWordSetDir,"ax",%progbits
 1192              		.align	2
 1193              		.global	FIO_HalfWordSetDir
 1194              		.thumb
 1195              		.thumb_func
 1196              		.type	FIO_HalfWordSetDir, %function
 1197              	FIO_HalfWordSetDir:
 1198              	.LFB73:
 412:core/lpc17xx_gpio.c **** 
 413:core/lpc17xx_gpio.c **** 
 414:core/lpc17xx_gpio.c **** /* FIO halfword accessible ------------------------------------------------------------- */
 415:core/lpc17xx_gpio.c **** 
 416:core/lpc17xx_gpio.c **** /*********************************************************************//**
 417:core/lpc17xx_gpio.c ****  * @brief		Set direction for FIO port in halfword accessible style
 418:core/lpc17xx_gpio.c ****  * @param[in]	portNum		Port number, in range from 0 to 4
 419:core/lpc17xx_gpio.c ****  * @param[in]	halfwordNum	HalfWord part number, should be 0 (lower) or 1(upper)
 420:core/lpc17xx_gpio.c ****  * @param[in]	bitValue	Value that contains all bits in to set direction,
 421:core/lpc17xx_gpio.c ****  * 							in range from 0 to 0xFFFF.
 422:core/lpc17xx_gpio.c ****  * @param[in]	dir			Direction value, should be:
 423:core/lpc17xx_gpio.c ****  * 							- 0: Input.
 424:core/lpc17xx_gpio.c ****  * 							- 1: Output.
 425:core/lpc17xx_gpio.c ****  * @return		None
 426:core/lpc17xx_gpio.c ****  *
 427:core/lpc17xx_gpio.c ****  * Note: All remaining bits that are not activated in bitValue (value '0')
 428:core/lpc17xx_gpio.c ****  * will not be effected by this function.
 429:core/lpc17xx_gpio.c ****  **********************************************************************/
 430:core/lpc17xx_gpio.c **** void FIO_HalfWordSetDir(uint8_t portNum, uint8_t halfwordNum, uint16_t bitValue, uint8_t dir)
 431:core/lpc17xx_gpio.c **** {
 1199              		.loc 1 431 0
 1200              		.cfi_startproc
 1201              		@ args = 0, pretend = 0, frame = 16
 1202              		@ frame_needed = 1, uses_anonymous_args = 0
 1203 0000 90B5     		push	{r4, r7, lr}	@
 1204              		.cfi_def_cfa_offset 12
 1205              		.cfi_offset 4, -12
 1206              		.cfi_offset 7, -8
 1207              		.cfi_offset 14, -4
 1208 0002 85B0     		sub	sp, sp, #20	@,,
 1209              		.cfi_def_cfa_offset 32
 1210 0004 00AF     		add	r7, sp, #0	@,,
 1211              		.cfi_def_cfa_register 7
 1212 0006 0446     		mov	r4, r0	@ tmp126, portNum
 1213 0008 0846     		mov	r0, r1	@ tmp128, halfwordNum
 1214 000a 1146     		mov	r1, r2	@ tmp130, bitValue
 1215 000c 1A46     		mov	r2, r3	@ tmp132, dir
 1216 000e 2346     		mov	r3, r4	@ tmp127, tmp126
 1217 0010 FB71     		strb	r3, [r7, #7]	@ tmp127, portNum
 1218 0012 0346     		mov	r3, r0	@ tmp129, tmp128
 1219 0014 BB71     		strb	r3, [r7, #6]	@ tmp129, halfwordNum
 1220 0016 0B46     		mov	r3, r1	@ movhi	@ tmp131, tmp130
 1221 0018 BB80     		strh	r3, [r7, #4]	@ movhi	@ tmp131, bitValue
 1222 001a 1346     		mov	r3, r2	@ tmp133, tmp132
ARM GAS  C:\Users\COSMIN~1.MAR\AppData\Local\Temp\ccJVXHYk.s 			page 30


 1223 001c FB70     		strb	r3, [r7, #3]	@ tmp133, dir
 432:core/lpc17xx_gpio.c **** 	GPIO_HalfWord_TypeDef *pFIO = FIO_HalfWordGetPointer(portNum);
 1224              		.loc 1 432 0
 1225 001e FB79     		ldrb	r3, [r7, #7]	@ zero_extendqisi2	@ tmp134, portNum
 1226 0020 1846     		mov	r0, r3	@, tmp134
 1227 0022 FFF7FEFF 		bl	FIO_HalfWordGetPointer	@
 1228 0026 F860     		str	r0, [r7, #12]	@, pFIO
 433:core/lpc17xx_gpio.c **** 	if(pFIO != NULL) {
 1229              		.loc 1 433 0
 1230 0028 FB68     		ldr	r3, [r7, #12]	@ tmp135, pFIO
 1231 002a 002B     		cmp	r3, #0	@ tmp135,
 1232 002c 33D0     		beq	.L84	@,
 434:core/lpc17xx_gpio.c **** 		// Output direction
 435:core/lpc17xx_gpio.c **** 		if (dir) {
 1233              		.loc 1 435 0
 1234 002e FB78     		ldrb	r3, [r7, #3]	@ zero_extendqisi2	@ tmp136, dir
 1235 0030 002B     		cmp	r3, #0	@ tmp136,
 1236 0032 14D0     		beq	.L86	@,
 436:core/lpc17xx_gpio.c **** 			// Upper
 437:core/lpc17xx_gpio.c **** 			if(halfwordNum) {
 1237              		.loc 1 437 0
 1238 0034 BB79     		ldrb	r3, [r7, #6]	@ zero_extendqisi2	@ tmp137, halfwordNum
 1239 0036 002B     		cmp	r3, #0	@ tmp137,
 1240 0038 08D0     		beq	.L87	@,
 438:core/lpc17xx_gpio.c **** 				pFIO->FIODIRU |= bitValue;
 1241              		.loc 1 438 0
 1242 003a FB68     		ldr	r3, [r7, #12]	@ tmp138, pFIO
 1243 003c 5B88     		ldrh	r3, [r3, #2]	@ movhi	@ tmp140, pFIO_2->FIODIRU
 1244 003e 9AB2     		uxth	r2, r3	@ D.5857, tmp140
 1245 0040 BB88     		ldrh	r3, [r7, #4]	@ movhi	@ tmp141, bitValue
 1246 0042 1343     		orrs	r3, r3, r2	@, tmp142, tmp141, D.5857
 1247 0044 9AB2     		uxth	r2, r3	@ D.5857, tmp142
 1248 0046 FB68     		ldr	r3, [r7, #12]	@ tmp143, pFIO
 1249 0048 5A80     		strh	r2, [r3, #2]	@ movhi	@ tmp144, pFIO_2->FIODIRU
 1250 004a 24E0     		b	.L84	@
 1251              	.L87:
 439:core/lpc17xx_gpio.c **** 			}
 440:core/lpc17xx_gpio.c **** 			// lower
 441:core/lpc17xx_gpio.c **** 			else {
 442:core/lpc17xx_gpio.c **** 				pFIO->FIODIRL |= bitValue;
 1252              		.loc 1 442 0
 1253 004c FB68     		ldr	r3, [r7, #12]	@ tmp145, pFIO
 1254 004e 1B88     		ldrh	r3, [r3]	@ movhi	@ tmp146, pFIO_2->FIODIRL
 1255 0050 9AB2     		uxth	r2, r3	@ D.5857, tmp146
 1256 0052 BB88     		ldrh	r3, [r7, #4]	@ movhi	@ tmp147, bitValue
 1257 0054 1343     		orrs	r3, r3, r2	@, tmp148, tmp147, D.5857
 1258 0056 9AB2     		uxth	r2, r3	@ D.5857, tmp148
 1259 0058 FB68     		ldr	r3, [r7, #12]	@ tmp149, pFIO
 1260 005a 1A80     		strh	r2, [r3]	@ movhi	@ tmp150, pFIO_2->FIODIRL
 1261 005c 1BE0     		b	.L84	@
 1262              	.L86:
 443:core/lpc17xx_gpio.c **** 			}
 444:core/lpc17xx_gpio.c **** 		}
 445:core/lpc17xx_gpio.c **** 		// Input direction
 446:core/lpc17xx_gpio.c **** 		else {
 447:core/lpc17xx_gpio.c **** 			// Upper
 448:core/lpc17xx_gpio.c **** 			if(halfwordNum) {
ARM GAS  C:\Users\COSMIN~1.MAR\AppData\Local\Temp\ccJVXHYk.s 			page 31


 1263              		.loc 1 448 0
 1264 005e BB79     		ldrb	r3, [r7, #6]	@ zero_extendqisi2	@ tmp151, halfwordNum
 1265 0060 002B     		cmp	r3, #0	@ tmp151,
 1266 0062 0CD0     		beq	.L89	@,
 449:core/lpc17xx_gpio.c **** 				pFIO->FIODIRU &= ~bitValue;
 1267              		.loc 1 449 0
 1268 0064 FB68     		ldr	r3, [r7, #12]	@ tmp152, pFIO
 1269 0066 5B88     		ldrh	r3, [r3, #2]	@ movhi	@ tmp154, pFIO_2->FIODIRU
 1270 0068 9BB2     		uxth	r3, r3	@ D.5857, tmp154
 1271 006a 9AB2     		uxth	r2, r3	@ D.5858, D.5857
 1272 006c BB88     		ldrh	r3, [r7, #4]	@ D.5858, bitValue
 1273 006e DB43     		mvns	r3, r3	@ tmp155, D.5858
 1274 0070 9BB2     		uxth	r3, r3	@ D.5858, tmp155
 1275 0072 1340     		ands	r3, r3, r2	@, tmp158, tmp157, tmp156
 1276 0074 9BB2     		uxth	r3, r3	@ D.5858, tmp158
 1277 0076 9AB2     		uxth	r2, r3	@ D.5857, D.5858
 1278 0078 FB68     		ldr	r3, [r7, #12]	@ tmp159, pFIO
 1279 007a 5A80     		strh	r2, [r3, #2]	@ movhi	@ tmp160, pFIO_2->FIODIRU
 1280 007c 0BE0     		b	.L84	@
 1281              	.L89:
 450:core/lpc17xx_gpio.c **** 			}
 451:core/lpc17xx_gpio.c **** 			// lower
 452:core/lpc17xx_gpio.c **** 			else {
 453:core/lpc17xx_gpio.c **** 				pFIO->FIODIRL &= ~bitValue;
 1282              		.loc 1 453 0
 1283 007e FB68     		ldr	r3, [r7, #12]	@ tmp161, pFIO
 1284 0080 1B88     		ldrh	r3, [r3]	@ movhi	@ tmp162, pFIO_2->FIODIRL
 1285 0082 9BB2     		uxth	r3, r3	@ D.5857, tmp162
 1286 0084 9AB2     		uxth	r2, r3	@ D.5858, D.5857
 1287 0086 BB88     		ldrh	r3, [r7, #4]	@ D.5858, bitValue
 1288 0088 DB43     		mvns	r3, r3	@ tmp163, D.5858
 1289 008a 9BB2     		uxth	r3, r3	@ D.5858, tmp163
 1290 008c 1340     		ands	r3, r3, r2	@, tmp166, tmp165, tmp164
 1291 008e 9BB2     		uxth	r3, r3	@ D.5858, tmp166
 1292 0090 9AB2     		uxth	r2, r3	@ D.5857, D.5858
 1293 0092 FB68     		ldr	r3, [r7, #12]	@ tmp167, pFIO
 1294 0094 1A80     		strh	r2, [r3]	@ movhi	@ tmp168, pFIO_2->FIODIRL
 1295              	.L84:
 454:core/lpc17xx_gpio.c **** 			}
 455:core/lpc17xx_gpio.c **** 		}
 456:core/lpc17xx_gpio.c **** 	}
 457:core/lpc17xx_gpio.c **** }
 1296              		.loc 1 457 0
 1297 0096 1437     		adds	r7, r7, #20	@,,
 1298              		.cfi_def_cfa_offset 12
 1299 0098 BD46     		mov	sp, r7	@,
 1300              		.cfi_def_cfa_register 13
 1301              		@ sp needed	@
 1302 009a 90BD     		pop	{r4, r7, pc}	@
 1303              		.cfi_endproc
 1304              	.LFE73:
 1305              		.size	FIO_HalfWordSetDir, .-FIO_HalfWordSetDir
 1306              		.section	.text.FIO_HalfWordSetMask,"ax",%progbits
 1307              		.align	2
 1308              		.global	FIO_HalfWordSetMask
 1309              		.thumb
 1310              		.thumb_func
ARM GAS  C:\Users\COSMIN~1.MAR\AppData\Local\Temp\ccJVXHYk.s 			page 32


 1311              		.type	FIO_HalfWordSetMask, %function
 1312              	FIO_HalfWordSetMask:
 1313              	.LFB74:
 458:core/lpc17xx_gpio.c **** 
 459:core/lpc17xx_gpio.c **** 
 460:core/lpc17xx_gpio.c **** /*********************************************************************//**
 461:core/lpc17xx_gpio.c ****  * @brief		Set mask value for bits in FIO port in halfword accessible style
 462:core/lpc17xx_gpio.c ****  * @param[in]	portNum		Port number, in range from 0 to 4
 463:core/lpc17xx_gpio.c ****  * @param[in]	halfwordNum	HalfWord part number, should be 0 (lower) or 1(upper)
 464:core/lpc17xx_gpio.c ****  * @param[in]	bitValue	Value that contains all bits in to set,
 465:core/lpc17xx_gpio.c ****  * 							in range from 0 to 0xFFFF.
 466:core/lpc17xx_gpio.c ****  * @param[in]	maskValue	Mask value contains state value for each bit:
 467:core/lpc17xx_gpio.c ****  * 					- 0: not mask.
 468:core/lpc17xx_gpio.c ****  * 					- 1: mask.
 469:core/lpc17xx_gpio.c ****  * @return		None
 470:core/lpc17xx_gpio.c ****  *
 471:core/lpc17xx_gpio.c ****  * Note:
 472:core/lpc17xx_gpio.c ****  * - All remaining bits that are not activated in bitValue (value '0')
 473:core/lpc17xx_gpio.c ****  * will not be effected by this function.
 474:core/lpc17xx_gpio.c ****  * - After executing this function, in mask register, value '0' on each bit
 475:core/lpc17xx_gpio.c ****  * enables an access to the corresponding physical pin via a read or write access,
 476:core/lpc17xx_gpio.c ****  * while value '1' on bit (masked) that corresponding pin will not be changed
 477:core/lpc17xx_gpio.c ****  * with write access and if read, will not be reflected in the updated pin.
 478:core/lpc17xx_gpio.c ****  **********************************************************************/
 479:core/lpc17xx_gpio.c **** void FIO_HalfWordSetMask(uint8_t portNum, uint8_t halfwordNum, uint16_t bitValue, uint8_t maskValue
 480:core/lpc17xx_gpio.c **** {
 1314              		.loc 1 480 0
 1315              		.cfi_startproc
 1316              		@ args = 0, pretend = 0, frame = 16
 1317              		@ frame_needed = 1, uses_anonymous_args = 0
 1318 0000 90B5     		push	{r4, r7, lr}	@
 1319              		.cfi_def_cfa_offset 12
 1320              		.cfi_offset 4, -12
 1321              		.cfi_offset 7, -8
 1322              		.cfi_offset 14, -4
 1323 0002 85B0     		sub	sp, sp, #20	@,,
 1324              		.cfi_def_cfa_offset 32
 1325 0004 00AF     		add	r7, sp, #0	@,,
 1326              		.cfi_def_cfa_register 7
 1327 0006 0446     		mov	r4, r0	@ tmp126, portNum
 1328 0008 0846     		mov	r0, r1	@ tmp128, halfwordNum
 1329 000a 1146     		mov	r1, r2	@ tmp130, bitValue
 1330 000c 1A46     		mov	r2, r3	@ tmp132, maskValue
 1331 000e 2346     		mov	r3, r4	@ tmp127, tmp126
 1332 0010 FB71     		strb	r3, [r7, #7]	@ tmp127, portNum
 1333 0012 0346     		mov	r3, r0	@ tmp129, tmp128
 1334 0014 BB71     		strb	r3, [r7, #6]	@ tmp129, halfwordNum
 1335 0016 0B46     		mov	r3, r1	@ movhi	@ tmp131, tmp130
 1336 0018 BB80     		strh	r3, [r7, #4]	@ movhi	@ tmp131, bitValue
 1337 001a 1346     		mov	r3, r2	@ tmp133, tmp132
 1338 001c FB70     		strb	r3, [r7, #3]	@ tmp133, maskValue
 481:core/lpc17xx_gpio.c **** 	GPIO_HalfWord_TypeDef *pFIO = FIO_HalfWordGetPointer(portNum);
 1339              		.loc 1 481 0
 1340 001e FB79     		ldrb	r3, [r7, #7]	@ zero_extendqisi2	@ tmp134, portNum
 1341 0020 1846     		mov	r0, r3	@, tmp134
 1342 0022 FFF7FEFF 		bl	FIO_HalfWordGetPointer	@
 1343 0026 F860     		str	r0, [r7, #12]	@, pFIO
ARM GAS  C:\Users\COSMIN~1.MAR\AppData\Local\Temp\ccJVXHYk.s 			page 33


 482:core/lpc17xx_gpio.c **** 	if(pFIO != NULL) {
 1344              		.loc 1 482 0
 1345 0028 FB68     		ldr	r3, [r7, #12]	@ tmp135, pFIO
 1346 002a 002B     		cmp	r3, #0	@ tmp135,
 1347 002c 33D0     		beq	.L90	@,
 483:core/lpc17xx_gpio.c **** 		// Mask
 484:core/lpc17xx_gpio.c **** 		if (maskValue){
 1348              		.loc 1 484 0
 1349 002e FB78     		ldrb	r3, [r7, #3]	@ zero_extendqisi2	@ tmp136, maskValue
 1350 0030 002B     		cmp	r3, #0	@ tmp136,
 1351 0032 14D0     		beq	.L92	@,
 485:core/lpc17xx_gpio.c **** 			// Upper
 486:core/lpc17xx_gpio.c **** 			if(halfwordNum) {
 1352              		.loc 1 486 0
 1353 0034 BB79     		ldrb	r3, [r7, #6]	@ zero_extendqisi2	@ tmp137, halfwordNum
 1354 0036 002B     		cmp	r3, #0	@ tmp137,
 1355 0038 08D0     		beq	.L93	@,
 487:core/lpc17xx_gpio.c **** 				pFIO->FIOMASKU |= bitValue;
 1356              		.loc 1 487 0
 1357 003a FB68     		ldr	r3, [r7, #12]	@ tmp138, pFIO
 1358 003c 5B8A     		ldrh	r3, [r3, #18]	@ movhi	@ tmp140, pFIO_2->FIOMASKU
 1359 003e 9AB2     		uxth	r2, r3	@ D.5859, tmp140
 1360 0040 BB88     		ldrh	r3, [r7, #4]	@ movhi	@ tmp141, bitValue
 1361 0042 1343     		orrs	r3, r3, r2	@, tmp142, tmp141, D.5859
 1362 0044 9AB2     		uxth	r2, r3	@ D.5859, tmp142
 1363 0046 FB68     		ldr	r3, [r7, #12]	@ tmp143, pFIO
 1364 0048 5A82     		strh	r2, [r3, #18]	@ movhi	@ tmp144, pFIO_2->FIOMASKU
 1365 004a 24E0     		b	.L90	@
 1366              	.L93:
 488:core/lpc17xx_gpio.c **** 			}
 489:core/lpc17xx_gpio.c **** 			// lower
 490:core/lpc17xx_gpio.c **** 			else {
 491:core/lpc17xx_gpio.c **** 				pFIO->FIOMASKL |= bitValue;
 1367              		.loc 1 491 0
 1368 004c FB68     		ldr	r3, [r7, #12]	@ tmp145, pFIO
 1369 004e 1B8A     		ldrh	r3, [r3, #16]	@ movhi	@ tmp147, pFIO_2->FIOMASKL
 1370 0050 9AB2     		uxth	r2, r3	@ D.5859, tmp147
 1371 0052 BB88     		ldrh	r3, [r7, #4]	@ movhi	@ tmp148, bitValue
 1372 0054 1343     		orrs	r3, r3, r2	@, tmp149, tmp148, D.5859
 1373 0056 9AB2     		uxth	r2, r3	@ D.5859, tmp149
 1374 0058 FB68     		ldr	r3, [r7, #12]	@ tmp150, pFIO
 1375 005a 1A82     		strh	r2, [r3, #16]	@ movhi	@ tmp151, pFIO_2->FIOMASKL
 1376 005c 1BE0     		b	.L90	@
 1377              	.L92:
 492:core/lpc17xx_gpio.c **** 			}
 493:core/lpc17xx_gpio.c **** 		}
 494:core/lpc17xx_gpio.c **** 		// Un-mask
 495:core/lpc17xx_gpio.c **** 		else {
 496:core/lpc17xx_gpio.c **** 			// Upper
 497:core/lpc17xx_gpio.c **** 			if(halfwordNum) {
 1378              		.loc 1 497 0
 1379 005e BB79     		ldrb	r3, [r7, #6]	@ zero_extendqisi2	@ tmp152, halfwordNum
 1380 0060 002B     		cmp	r3, #0	@ tmp152,
 1381 0062 0CD0     		beq	.L95	@,
 498:core/lpc17xx_gpio.c **** 				pFIO->FIOMASKU &= ~bitValue;
 1382              		.loc 1 498 0
 1383 0064 FB68     		ldr	r3, [r7, #12]	@ tmp153, pFIO
ARM GAS  C:\Users\COSMIN~1.MAR\AppData\Local\Temp\ccJVXHYk.s 			page 34


 1384 0066 5B8A     		ldrh	r3, [r3, #18]	@ movhi	@ tmp155, pFIO_2->FIOMASKU
 1385 0068 9BB2     		uxth	r3, r3	@ D.5859, tmp155
 1386 006a 9AB2     		uxth	r2, r3	@ D.5860, D.5859
 1387 006c BB88     		ldrh	r3, [r7, #4]	@ D.5860, bitValue
 1388 006e DB43     		mvns	r3, r3	@ tmp156, D.5860
 1389 0070 9BB2     		uxth	r3, r3	@ D.5860, tmp156
 1390 0072 1340     		ands	r3, r3, r2	@, tmp159, tmp158, tmp157
 1391 0074 9BB2     		uxth	r3, r3	@ D.5860, tmp159
 1392 0076 9AB2     		uxth	r2, r3	@ D.5859, D.5860
 1393 0078 FB68     		ldr	r3, [r7, #12]	@ tmp160, pFIO
 1394 007a 5A82     		strh	r2, [r3, #18]	@ movhi	@ tmp161, pFIO_2->FIOMASKU
 1395 007c 0BE0     		b	.L90	@
 1396              	.L95:
 499:core/lpc17xx_gpio.c **** 			}
 500:core/lpc17xx_gpio.c **** 			// lower
 501:core/lpc17xx_gpio.c **** 			else {
 502:core/lpc17xx_gpio.c **** 				pFIO->FIOMASKL &= ~bitValue;
 1397              		.loc 1 502 0
 1398 007e FB68     		ldr	r3, [r7, #12]	@ tmp162, pFIO
 1399 0080 1B8A     		ldrh	r3, [r3, #16]	@ movhi	@ tmp164, pFIO_2->FIOMASKL
 1400 0082 9BB2     		uxth	r3, r3	@ D.5859, tmp164
 1401 0084 9AB2     		uxth	r2, r3	@ D.5860, D.5859
 1402 0086 BB88     		ldrh	r3, [r7, #4]	@ D.5860, bitValue
 1403 0088 DB43     		mvns	r3, r3	@ tmp165, D.5860
 1404 008a 9BB2     		uxth	r3, r3	@ D.5860, tmp165
 1405 008c 1340     		ands	r3, r3, r2	@, tmp168, tmp167, tmp166
 1406 008e 9BB2     		uxth	r3, r3	@ D.5860, tmp168
 1407 0090 9AB2     		uxth	r2, r3	@ D.5859, D.5860
 1408 0092 FB68     		ldr	r3, [r7, #12]	@ tmp169, pFIO
 1409 0094 1A82     		strh	r2, [r3, #16]	@ movhi	@ tmp170, pFIO_2->FIOMASKL
 1410              	.L90:
 503:core/lpc17xx_gpio.c **** 			}
 504:core/lpc17xx_gpio.c **** 		}
 505:core/lpc17xx_gpio.c **** 	}
 506:core/lpc17xx_gpio.c **** }
 1411              		.loc 1 506 0
 1412 0096 1437     		adds	r7, r7, #20	@,,
 1413              		.cfi_def_cfa_offset 12
 1414 0098 BD46     		mov	sp, r7	@,
 1415              		.cfi_def_cfa_register 13
 1416              		@ sp needed	@
 1417 009a 90BD     		pop	{r4, r7, pc}	@
 1418              		.cfi_endproc
 1419              	.LFE74:
 1420              		.size	FIO_HalfWordSetMask, .-FIO_HalfWordSetMask
 1421              		.section	.text.FIO_HalfWordSetValue,"ax",%progbits
 1422              		.align	2
 1423              		.global	FIO_HalfWordSetValue
 1424              		.thumb
 1425              		.thumb_func
 1426              		.type	FIO_HalfWordSetValue, %function
 1427              	FIO_HalfWordSetValue:
 1428              	.LFB75:
 507:core/lpc17xx_gpio.c **** 
 508:core/lpc17xx_gpio.c **** 
 509:core/lpc17xx_gpio.c **** /*********************************************************************//**
 510:core/lpc17xx_gpio.c ****  * @brief		Set bits for FIO port in halfword accessible style
ARM GAS  C:\Users\COSMIN~1.MAR\AppData\Local\Temp\ccJVXHYk.s 			page 35


 511:core/lpc17xx_gpio.c ****  * @param[in]	portNum		Port number, in range from 0 to 4
 512:core/lpc17xx_gpio.c ****  * @param[in]	halfwordNum	HalfWord part number, should be 0 (lower) or 1(upper)
 513:core/lpc17xx_gpio.c ****  * @param[in]	bitValue	Value that contains all bits in to set,
 514:core/lpc17xx_gpio.c ****  * 							in range from 0 to 0xFFFF.
 515:core/lpc17xx_gpio.c ****  * @return		None
 516:core/lpc17xx_gpio.c ****  *
 517:core/lpc17xx_gpio.c ****  * Note:
 518:core/lpc17xx_gpio.c ****  * - For all bits that has been set as input direction, this function will
 519:core/lpc17xx_gpio.c ****  * not effect.
 520:core/lpc17xx_gpio.c ****  * - For all remaining bits that are not activated in bitValue (value '0')
 521:core/lpc17xx_gpio.c ****  * will not be effected by this function.
 522:core/lpc17xx_gpio.c ****  **********************************************************************/
 523:core/lpc17xx_gpio.c **** void FIO_HalfWordSetValue(uint8_t portNum, uint8_t halfwordNum, uint16_t bitValue)
 524:core/lpc17xx_gpio.c **** {
 1429              		.loc 1 524 0
 1430              		.cfi_startproc
 1431              		@ args = 0, pretend = 0, frame = 16
 1432              		@ frame_needed = 1, uses_anonymous_args = 0
 1433 0000 80B5     		push	{r7, lr}	@
 1434              		.cfi_def_cfa_offset 8
 1435              		.cfi_offset 7, -8
 1436              		.cfi_offset 14, -4
 1437 0002 84B0     		sub	sp, sp, #16	@,,
 1438              		.cfi_def_cfa_offset 24
 1439 0004 00AF     		add	r7, sp, #0	@,,
 1440              		.cfi_def_cfa_register 7
 1441 0006 0346     		mov	r3, r0	@ tmp110, portNum
 1442 0008 FB71     		strb	r3, [r7, #7]	@ tmp111, portNum
 1443 000a 0B46     		mov	r3, r1	@ tmp113, tmp112
 1444 000c BB71     		strb	r3, [r7, #6]	@ tmp113, halfwordNum
 1445 000e 1346     		mov	r3, r2	@ movhi	@ tmp115, tmp114
 1446 0010 BB80     		strh	r3, [r7, #4]	@ movhi	@ tmp115, bitValue
 525:core/lpc17xx_gpio.c **** 	GPIO_HalfWord_TypeDef *pFIO = FIO_HalfWordGetPointer(portNum);
 1447              		.loc 1 525 0
 1448 0012 FB79     		ldrb	r3, [r7, #7]	@ zero_extendqisi2	@ tmp116, portNum
 1449 0014 1846     		mov	r0, r3	@, tmp116
 1450 0016 FFF7FEFF 		bl	FIO_HalfWordGetPointer	@
 1451 001a F860     		str	r0, [r7, #12]	@, pFIO
 526:core/lpc17xx_gpio.c **** 	if(pFIO != NULL) {
 1452              		.loc 1 526 0
 1453 001c FB68     		ldr	r3, [r7, #12]	@ tmp117, pFIO
 1454 001e 002B     		cmp	r3, #0	@ tmp117,
 1455 0020 09D0     		beq	.L96	@,
 527:core/lpc17xx_gpio.c **** 		// Upper
 528:core/lpc17xx_gpio.c **** 		if(halfwordNum) {
 1456              		.loc 1 528 0
 1457 0022 BB79     		ldrb	r3, [r7, #6]	@ zero_extendqisi2	@ tmp118, halfwordNum
 1458 0024 002B     		cmp	r3, #0	@ tmp118,
 1459 0026 03D0     		beq	.L98	@,
 529:core/lpc17xx_gpio.c **** 			pFIO->FIOSETU = bitValue;
 1460              		.loc 1 529 0
 1461 0028 FB68     		ldr	r3, [r7, #12]	@ tmp119, pFIO
 1462 002a BA88     		ldrh	r2, [r7, #4]	@ movhi	@ tmp120, bitValue
 1463 002c 5A83     		strh	r2, [r3, #26]	@ movhi	@ tmp120, pFIO_2->FIOSETU
 1464 002e 02E0     		b	.L96	@
 1465              	.L98:
 530:core/lpc17xx_gpio.c **** 		}
ARM GAS  C:\Users\COSMIN~1.MAR\AppData\Local\Temp\ccJVXHYk.s 			page 36


 531:core/lpc17xx_gpio.c **** 		// lower
 532:core/lpc17xx_gpio.c **** 		else {
 533:core/lpc17xx_gpio.c **** 			pFIO->FIOSETL = bitValue;
 1466              		.loc 1 533 0
 1467 0030 FB68     		ldr	r3, [r7, #12]	@ tmp121, pFIO
 1468 0032 BA88     		ldrh	r2, [r7, #4]	@ movhi	@ tmp122, bitValue
 1469 0034 1A83     		strh	r2, [r3, #24]	@ movhi	@ tmp122, pFIO_2->FIOSETL
 1470              	.L96:
 534:core/lpc17xx_gpio.c **** 		}
 535:core/lpc17xx_gpio.c **** 	}
 536:core/lpc17xx_gpio.c **** }
 1471              		.loc 1 536 0
 1472 0036 1037     		adds	r7, r7, #16	@,,
 1473              		.cfi_def_cfa_offset 8
 1474 0038 BD46     		mov	sp, r7	@,
 1475              		.cfi_def_cfa_register 13
 1476              		@ sp needed	@
 1477 003a 80BD     		pop	{r7, pc}	@
 1478              		.cfi_endproc
 1479              	.LFE75:
 1480              		.size	FIO_HalfWordSetValue, .-FIO_HalfWordSetValue
 1481              		.section	.text.FIO_HalfWordClearValue,"ax",%progbits
 1482              		.align	2
 1483              		.global	FIO_HalfWordClearValue
 1484              		.thumb
 1485              		.thumb_func
 1486              		.type	FIO_HalfWordClearValue, %function
 1487              	FIO_HalfWordClearValue:
 1488              	.LFB76:
 537:core/lpc17xx_gpio.c **** 
 538:core/lpc17xx_gpio.c **** 
 539:core/lpc17xx_gpio.c **** /*********************************************************************//**
 540:core/lpc17xx_gpio.c ****  * @brief		Clear bits for FIO port in halfword accessible style
 541:core/lpc17xx_gpio.c ****  * @param[in]	portNum		Port number, in range from 0 to 4
 542:core/lpc17xx_gpio.c ****  * @param[in]	halfwordNum	HalfWord part number, should be 0 (lower) or 1(upper)
 543:core/lpc17xx_gpio.c ****  * @param[in]	bitValue	Value that contains all bits in to clear,
 544:core/lpc17xx_gpio.c ****  * 							in range from 0 to 0xFFFF.
 545:core/lpc17xx_gpio.c ****  * @return		None
 546:core/lpc17xx_gpio.c ****  *
 547:core/lpc17xx_gpio.c ****  * Note:
 548:core/lpc17xx_gpio.c ****  * - For all bits that has been set as input direction, this function will
 549:core/lpc17xx_gpio.c ****  * not effect.
 550:core/lpc17xx_gpio.c ****  * - For all remaining bits that are not activated in bitValue (value '0')
 551:core/lpc17xx_gpio.c ****  * will not be effected by this function.
 552:core/lpc17xx_gpio.c ****  **********************************************************************/
 553:core/lpc17xx_gpio.c **** void FIO_HalfWordClearValue(uint8_t portNum, uint8_t halfwordNum, uint16_t bitValue)
 554:core/lpc17xx_gpio.c **** {
 1489              		.loc 1 554 0
 1490              		.cfi_startproc
 1491              		@ args = 0, pretend = 0, frame = 16
 1492              		@ frame_needed = 1, uses_anonymous_args = 0
 1493 0000 80B5     		push	{r7, lr}	@
 1494              		.cfi_def_cfa_offset 8
 1495              		.cfi_offset 7, -8
 1496              		.cfi_offset 14, -4
 1497 0002 84B0     		sub	sp, sp, #16	@,,
 1498              		.cfi_def_cfa_offset 24
ARM GAS  C:\Users\COSMIN~1.MAR\AppData\Local\Temp\ccJVXHYk.s 			page 37


 1499 0004 00AF     		add	r7, sp, #0	@,,
 1500              		.cfi_def_cfa_register 7
 1501 0006 0346     		mov	r3, r0	@ tmp110, portNum
 1502 0008 FB71     		strb	r3, [r7, #7]	@ tmp111, portNum
 1503 000a 0B46     		mov	r3, r1	@ tmp113, tmp112
 1504 000c BB71     		strb	r3, [r7, #6]	@ tmp113, halfwordNum
 1505 000e 1346     		mov	r3, r2	@ movhi	@ tmp115, tmp114
 1506 0010 BB80     		strh	r3, [r7, #4]	@ movhi	@ tmp115, bitValue
 555:core/lpc17xx_gpio.c **** 	GPIO_HalfWord_TypeDef *pFIO = FIO_HalfWordGetPointer(portNum);
 1507              		.loc 1 555 0
 1508 0012 FB79     		ldrb	r3, [r7, #7]	@ zero_extendqisi2	@ tmp116, portNum
 1509 0014 1846     		mov	r0, r3	@, tmp116
 1510 0016 FFF7FEFF 		bl	FIO_HalfWordGetPointer	@
 1511 001a F860     		str	r0, [r7, #12]	@, pFIO
 556:core/lpc17xx_gpio.c **** 	if(pFIO != NULL) {
 1512              		.loc 1 556 0
 1513 001c FB68     		ldr	r3, [r7, #12]	@ tmp117, pFIO
 1514 001e 002B     		cmp	r3, #0	@ tmp117,
 1515 0020 09D0     		beq	.L99	@,
 557:core/lpc17xx_gpio.c **** 		// Upper
 558:core/lpc17xx_gpio.c **** 		if(halfwordNum) {
 1516              		.loc 1 558 0
 1517 0022 BB79     		ldrb	r3, [r7, #6]	@ zero_extendqisi2	@ tmp118, halfwordNum
 1518 0024 002B     		cmp	r3, #0	@ tmp118,
 1519 0026 03D0     		beq	.L101	@,
 559:core/lpc17xx_gpio.c **** 			pFIO->FIOCLRU = bitValue;
 1520              		.loc 1 559 0
 1521 0028 FB68     		ldr	r3, [r7, #12]	@ tmp119, pFIO
 1522 002a BA88     		ldrh	r2, [r7, #4]	@ movhi	@ tmp120, bitValue
 1523 002c DA83     		strh	r2, [r3, #30]	@ movhi	@ tmp120, pFIO_2->FIOCLRU
 1524 002e 02E0     		b	.L99	@
 1525              	.L101:
 560:core/lpc17xx_gpio.c **** 		}
 561:core/lpc17xx_gpio.c **** 		// lower
 562:core/lpc17xx_gpio.c **** 		else {
 563:core/lpc17xx_gpio.c **** 			pFIO->FIOCLRL = bitValue;
 1526              		.loc 1 563 0
 1527 0030 FB68     		ldr	r3, [r7, #12]	@ tmp121, pFIO
 1528 0032 BA88     		ldrh	r2, [r7, #4]	@ movhi	@ tmp122, bitValue
 1529 0034 9A83     		strh	r2, [r3, #28]	@ movhi	@ tmp122, pFIO_2->FIOCLRL
 1530              	.L99:
 564:core/lpc17xx_gpio.c **** 		}
 565:core/lpc17xx_gpio.c **** 	}
 566:core/lpc17xx_gpio.c **** }
 1531              		.loc 1 566 0
 1532 0036 1037     		adds	r7, r7, #16	@,,
 1533              		.cfi_def_cfa_offset 8
 1534 0038 BD46     		mov	sp, r7	@,
 1535              		.cfi_def_cfa_register 13
 1536              		@ sp needed	@
 1537 003a 80BD     		pop	{r7, pc}	@
 1538              		.cfi_endproc
 1539              	.LFE76:
 1540              		.size	FIO_HalfWordClearValue, .-FIO_HalfWordClearValue
 1541              		.section	.text.FIO_HalfWordReadValue,"ax",%progbits
 1542              		.align	2
 1543              		.global	FIO_HalfWordReadValue
ARM GAS  C:\Users\COSMIN~1.MAR\AppData\Local\Temp\ccJVXHYk.s 			page 38


 1544              		.thumb
 1545              		.thumb_func
 1546              		.type	FIO_HalfWordReadValue, %function
 1547              	FIO_HalfWordReadValue:
 1548              	.LFB77:
 567:core/lpc17xx_gpio.c **** 
 568:core/lpc17xx_gpio.c **** 
 569:core/lpc17xx_gpio.c **** /*********************************************************************//**
 570:core/lpc17xx_gpio.c ****  * @brief		Read Current state on port pin that have input direction of GPIO
 571:core/lpc17xx_gpio.c ****  * 				in halfword accessible style.
 572:core/lpc17xx_gpio.c ****  * @param[in]	portNum		Port number, in range from 0 to 4
 573:core/lpc17xx_gpio.c ****  * @param[in]	halfwordNum	HalfWord part number, should be 0 (lower) or 1(upper)
 574:core/lpc17xx_gpio.c ****  * @return		Current value of FIO port pin of specified halfword.
 575:core/lpc17xx_gpio.c ****  * Note: Return value contain state of each port pin (bit) on that FIO regardless
 576:core/lpc17xx_gpio.c ****  * its direction is input or output.
 577:core/lpc17xx_gpio.c ****  **********************************************************************/
 578:core/lpc17xx_gpio.c **** uint16_t FIO_HalfWordReadValue(uint8_t portNum, uint8_t halfwordNum)
 579:core/lpc17xx_gpio.c **** {
 1549              		.loc 1 579 0
 1550              		.cfi_startproc
 1551              		@ args = 0, pretend = 0, frame = 16
 1552              		@ frame_needed = 1, uses_anonymous_args = 0
 1553 0000 80B5     		push	{r7, lr}	@
 1554              		.cfi_def_cfa_offset 8
 1555              		.cfi_offset 7, -8
 1556              		.cfi_offset 14, -4
 1557 0002 84B0     		sub	sp, sp, #16	@,,
 1558              		.cfi_def_cfa_offset 24
 1559 0004 00AF     		add	r7, sp, #0	@,,
 1560              		.cfi_def_cfa_register 7
 1561 0006 0346     		mov	r3, r0	@ tmp112, portNum
 1562 0008 0A46     		mov	r2, r1	@ tmp114, halfwordNum
 1563 000a FB71     		strb	r3, [r7, #7]	@ tmp113, portNum
 1564 000c 1346     		mov	r3, r2	@ tmp115, tmp114
 1565 000e BB71     		strb	r3, [r7, #6]	@ tmp115, halfwordNum
 580:core/lpc17xx_gpio.c **** 	GPIO_HalfWord_TypeDef *pFIO = FIO_HalfWordGetPointer(portNum);
 1566              		.loc 1 580 0
 1567 0010 FB79     		ldrb	r3, [r7, #7]	@ zero_extendqisi2	@ tmp116, portNum
 1568 0012 1846     		mov	r0, r3	@, tmp116
 1569 0014 FFF7FEFF 		bl	FIO_HalfWordGetPointer	@
 1570 0018 F860     		str	r0, [r7, #12]	@, pFIO
 581:core/lpc17xx_gpio.c **** 	if(pFIO != NULL) {
 1571              		.loc 1 581 0
 1572 001a FB68     		ldr	r3, [r7, #12]	@ tmp117, pFIO
 1573 001c 002B     		cmp	r3, #0	@ tmp117,
 1574 001e 0AD0     		beq	.L103	@,
 582:core/lpc17xx_gpio.c **** 		// Upper
 583:core/lpc17xx_gpio.c **** 		if(halfwordNum) {
 1575              		.loc 1 583 0
 1576 0020 BB79     		ldrb	r3, [r7, #6]	@ zero_extendqisi2	@ tmp118, halfwordNum
 1577 0022 002B     		cmp	r3, #0	@ tmp118,
 1578 0024 03D0     		beq	.L104	@,
 584:core/lpc17xx_gpio.c **** 			return (pFIO->FIOPINU);
 1579              		.loc 1 584 0
 1580 0026 FB68     		ldr	r3, [r7, #12]	@ tmp119, pFIO
 1581 0028 DB8A     		ldrh	r3, [r3, #22]	@ movhi	@ tmp121, pFIO_3->FIOPINU
 1582 002a 9BB2     		uxth	r3, r3	@ D.5861, tmp121
ARM GAS  C:\Users\COSMIN~1.MAR\AppData\Local\Temp\ccJVXHYk.s 			page 39


 1583 002c 04E0     		b	.L105	@
 1584              	.L104:
 585:core/lpc17xx_gpio.c **** 		}
 586:core/lpc17xx_gpio.c **** 		// lower
 587:core/lpc17xx_gpio.c **** 		else {
 588:core/lpc17xx_gpio.c **** 			return (pFIO->FIOPINL);
 1585              		.loc 1 588 0
 1586 002e FB68     		ldr	r3, [r7, #12]	@ tmp122, pFIO
 1587 0030 9B8A     		ldrh	r3, [r3, #20]	@ movhi	@ tmp124, pFIO_3->FIOPINL
 1588 0032 9BB2     		uxth	r3, r3	@ D.5861, tmp124
 1589 0034 00E0     		b	.L105	@
 1590              	.L103:
 589:core/lpc17xx_gpio.c **** 		}
 590:core/lpc17xx_gpio.c **** 	}
 591:core/lpc17xx_gpio.c **** 	return (0);
 1591              		.loc 1 591 0
 1592 0036 0023     		movs	r3, #0	@ D.5861,
 1593              	.L105:
 592:core/lpc17xx_gpio.c **** }
 1594              		.loc 1 592 0
 1595 0038 1846     		mov	r0, r3	@, <retval>
 1596 003a 1037     		adds	r7, r7, #16	@,,
 1597              		.cfi_def_cfa_offset 8
 1598 003c BD46     		mov	sp, r7	@,
 1599              		.cfi_def_cfa_register 13
 1600              		@ sp needed	@
 1601 003e 80BD     		pop	{r7, pc}	@
 1602              		.cfi_endproc
 1603              	.LFE77:
 1604              		.size	FIO_HalfWordReadValue, .-FIO_HalfWordReadValue
 1605              		.section	.text.FIO_ByteSetDir,"ax",%progbits
 1606              		.align	2
 1607              		.global	FIO_ByteSetDir
 1608              		.thumb
 1609              		.thumb_func
 1610              		.type	FIO_ByteSetDir, %function
 1611              	FIO_ByteSetDir:
 1612              	.LFB78:
 593:core/lpc17xx_gpio.c **** 
 594:core/lpc17xx_gpio.c **** 
 595:core/lpc17xx_gpio.c **** /* FIO Byte accessible ------------------------------------------------------------ */
 596:core/lpc17xx_gpio.c **** 
 597:core/lpc17xx_gpio.c **** /*********************************************************************//**
 598:core/lpc17xx_gpio.c ****  * @brief		Set direction for FIO port in byte accessible style
 599:core/lpc17xx_gpio.c ****  * @param[in]	portNum		Port number, in range from 0 to 4
 600:core/lpc17xx_gpio.c ****  * @param[in]	byteNum		Byte part number, should be in range from 0 to 3
 601:core/lpc17xx_gpio.c ****  * @param[in]	bitValue	Value that contains all bits in to set direction,
 602:core/lpc17xx_gpio.c ****  * 							in range from 0 to 0xFF.
 603:core/lpc17xx_gpio.c ****  * @param[in]	dir			Direction value, should be:
 604:core/lpc17xx_gpio.c ****  * 							- 0: Input.
 605:core/lpc17xx_gpio.c ****  * 							- 1: Output.
 606:core/lpc17xx_gpio.c ****  * @return		None
 607:core/lpc17xx_gpio.c ****  *
 608:core/lpc17xx_gpio.c ****  * Note: All remaining bits that are not activated in bitValue (value '0')
 609:core/lpc17xx_gpio.c ****  * will not be effected by this function.
 610:core/lpc17xx_gpio.c ****  **********************************************************************/
 611:core/lpc17xx_gpio.c **** void FIO_ByteSetDir(uint8_t portNum, uint8_t byteNum, uint8_t bitValue, uint8_t dir)
ARM GAS  C:\Users\COSMIN~1.MAR\AppData\Local\Temp\ccJVXHYk.s 			page 40


 612:core/lpc17xx_gpio.c **** {
 1613              		.loc 1 612 0
 1614              		.cfi_startproc
 1615              		@ args = 0, pretend = 0, frame = 16
 1616              		@ frame_needed = 1, uses_anonymous_args = 0
 1617 0000 90B5     		push	{r4, r7, lr}	@
 1618              		.cfi_def_cfa_offset 12
 1619              		.cfi_offset 4, -12
 1620              		.cfi_offset 7, -8
 1621              		.cfi_offset 14, -4
 1622 0002 85B0     		sub	sp, sp, #20	@,,
 1623              		.cfi_def_cfa_offset 32
 1624 0004 00AF     		add	r7, sp, #0	@,,
 1625              		.cfi_def_cfa_register 7
 1626 0006 0446     		mov	r4, r0	@ tmp122, portNum
 1627 0008 0846     		mov	r0, r1	@ tmp124, byteNum
 1628 000a 1146     		mov	r1, r2	@ tmp126, bitValue
 1629 000c 1A46     		mov	r2, r3	@ tmp128, dir
 1630 000e 2346     		mov	r3, r4	@ tmp123, tmp122
 1631 0010 FB71     		strb	r3, [r7, #7]	@ tmp123, portNum
 1632 0012 0346     		mov	r3, r0	@ tmp125, tmp124
 1633 0014 BB71     		strb	r3, [r7, #6]	@ tmp125, byteNum
 1634 0016 0B46     		mov	r3, r1	@ tmp127, tmp126
 1635 0018 7B71     		strb	r3, [r7, #5]	@ tmp127, bitValue
 1636 001a 1346     		mov	r3, r2	@ tmp129, tmp128
 1637 001c 3B71     		strb	r3, [r7, #4]	@ tmp129, dir
 613:core/lpc17xx_gpio.c **** 	GPIO_Byte_TypeDef *pFIO = FIO_ByteGetPointer(portNum);
 1638              		.loc 1 613 0
 1639 001e FB79     		ldrb	r3, [r7, #7]	@ zero_extendqisi2	@ tmp130, portNum
 1640 0020 1846     		mov	r0, r3	@, tmp130
 1641 0022 FFF7FEFF 		bl	FIO_ByteGetPointer	@
 1642 0026 F860     		str	r0, [r7, #12]	@, pFIO
 614:core/lpc17xx_gpio.c **** 	if(pFIO != NULL) {
 1643              		.loc 1 614 0
 1644 0028 FB68     		ldr	r3, [r7, #12]	@ tmp131, pFIO
 1645 002a 002B     		cmp	r3, #0	@ tmp131,
 1646 002c 21D0     		beq	.L106	@,
 615:core/lpc17xx_gpio.c **** 		// Output direction
 616:core/lpc17xx_gpio.c **** 		if (dir) {
 1647              		.loc 1 616 0
 1648 002e 3B79     		ldrb	r3, [r7, #4]	@ zero_extendqisi2	@ tmp132, dir
 1649 0030 002B     		cmp	r3, #0	@ tmp132,
 1650 0032 0DD0     		beq	.L108	@,
 617:core/lpc17xx_gpio.c **** 			if ((byteNum >= 0) && (byteNum <= 3)) {
 1651              		.loc 1 617 0
 1652 0034 BB79     		ldrb	r3, [r7, #6]	@ zero_extendqisi2	@ tmp133, byteNum
 1653 0036 032B     		cmp	r3, #3	@ tmp133,
 1654 0038 1BD8     		bhi	.L106	@,
 618:core/lpc17xx_gpio.c **** 				pFIO->FIODIR[byteNum] |= bitValue;
 1655              		.loc 1 618 0
 1656 003a BB79     		ldrb	r3, [r7, #6]	@ zero_extendqisi2	@ D.5862, byteNum
 1657 003c BA79     		ldrb	r2, [r7, #6]	@ zero_extendqisi2	@ D.5862, byteNum
 1658 003e F968     		ldr	r1, [r7, #12]	@ tmp134, pFIO
 1659 0040 8A5C     		ldrb	r2, [r1, r2]	@ tmp136, pFIO_2->FIODIR
 1660 0042 D1B2     		uxtb	r1, r2	@ D.5863, tmp136
 1661 0044 7A79     		ldrb	r2, [r7, #5]	@ tmp137, bitValue
 1662 0046 0A43     		orrs	r2, r2, r1	@, tmp138, tmp137, D.5863
ARM GAS  C:\Users\COSMIN~1.MAR\AppData\Local\Temp\ccJVXHYk.s 			page 41


 1663 0048 D1B2     		uxtb	r1, r2	@ D.5863, tmp138
 1664 004a FA68     		ldr	r2, [r7, #12]	@ tmp139, pFIO
 1665 004c D154     		strb	r1, [r2, r3]	@ tmp140, pFIO_2->FIODIR
 1666 004e 10E0     		b	.L106	@
 1667              	.L108:
 619:core/lpc17xx_gpio.c **** 			}
 620:core/lpc17xx_gpio.c **** 		}
 621:core/lpc17xx_gpio.c **** 		// Input direction
 622:core/lpc17xx_gpio.c **** 		else {
 623:core/lpc17xx_gpio.c **** 			if ((byteNum >= 0) && (byteNum <= 3)) {
 1668              		.loc 1 623 0
 1669 0050 BB79     		ldrb	r3, [r7, #6]	@ zero_extendqisi2	@ tmp141, byteNum
 1670 0052 032B     		cmp	r3, #3	@ tmp141,
 1671 0054 0DD8     		bhi	.L106	@,
 624:core/lpc17xx_gpio.c **** 				pFIO->FIODIR[byteNum] &= ~bitValue;
 1672              		.loc 1 624 0
 1673 0056 BB79     		ldrb	r3, [r7, #6]	@ zero_extendqisi2	@ D.5862, byteNum
 1674 0058 BA79     		ldrb	r2, [r7, #6]	@ zero_extendqisi2	@ D.5862, byteNum
 1675 005a F968     		ldr	r1, [r7, #12]	@ tmp142, pFIO
 1676 005c 8A5C     		ldrb	r2, [r1, r2]	@ tmp144, pFIO_2->FIODIR
 1677 005e D2B2     		uxtb	r2, r2	@ D.5863, tmp144
 1678 0060 D1B2     		uxtb	r1, r2	@ D.5864, D.5863
 1679 0062 7A79     		ldrb	r2, [r7, #5]	@ zero_extendqisi2	@ D.5864, bitValue
 1680 0064 D243     		mvns	r2, r2	@ tmp145, D.5864
 1681 0066 D2B2     		uxtb	r2, r2	@ D.5864, tmp145
 1682 0068 0A40     		ands	r2, r2, r1	@, tmp148, tmp147, tmp146
 1683 006a D2B2     		uxtb	r2, r2	@ D.5864, tmp148
 1684 006c D1B2     		uxtb	r1, r2	@ D.5863, D.5864
 1685 006e FA68     		ldr	r2, [r7, #12]	@ tmp149, pFIO
 1686 0070 D154     		strb	r1, [r2, r3]	@ tmp150, pFIO_2->FIODIR
 1687              	.L106:
 625:core/lpc17xx_gpio.c **** 			}
 626:core/lpc17xx_gpio.c **** 		}
 627:core/lpc17xx_gpio.c **** 	}
 628:core/lpc17xx_gpio.c **** }
 1688              		.loc 1 628 0
 1689 0072 1437     		adds	r7, r7, #20	@,,
 1690              		.cfi_def_cfa_offset 12
 1691 0074 BD46     		mov	sp, r7	@,
 1692              		.cfi_def_cfa_register 13
 1693              		@ sp needed	@
 1694 0076 90BD     		pop	{r4, r7, pc}	@
 1695              		.cfi_endproc
 1696              	.LFE78:
 1697              		.size	FIO_ByteSetDir, .-FIO_ByteSetDir
 1698              		.section	.text.FIO_ByteSetMask,"ax",%progbits
 1699              		.align	2
 1700              		.global	FIO_ByteSetMask
 1701              		.thumb
 1702              		.thumb_func
 1703              		.type	FIO_ByteSetMask, %function
 1704              	FIO_ByteSetMask:
 1705              	.LFB79:
 629:core/lpc17xx_gpio.c **** 
 630:core/lpc17xx_gpio.c **** /*********************************************************************//**
 631:core/lpc17xx_gpio.c ****  * @brief		Set mask value for bits in FIO port in byte accessible style
 632:core/lpc17xx_gpio.c ****  * @param[in]	portNum		Port number, in range from 0 to 4
ARM GAS  C:\Users\COSMIN~1.MAR\AppData\Local\Temp\ccJVXHYk.s 			page 42


 633:core/lpc17xx_gpio.c ****  * @param[in]	byteNum		Byte part number, should be in range from 0 to 3
 634:core/lpc17xx_gpio.c ****  * @param[in]	bitValue	Value that contains all bits in to set mask,
 635:core/lpc17xx_gpio.c ****  * 							in range from 0 to 0xFF.
 636:core/lpc17xx_gpio.c ****  * @param[in]	maskValue	Mask value contains state value for each bit:
 637:core/lpc17xx_gpio.c ****  * 							- 0: not mask.
 638:core/lpc17xx_gpio.c ****  * 							- 1: mask.
 639:core/lpc17xx_gpio.c ****  * @return		None
 640:core/lpc17xx_gpio.c ****  *
 641:core/lpc17xx_gpio.c ****  * Note:
 642:core/lpc17xx_gpio.c ****  * - All remaining bits that are not activated in bitValue (value '0')
 643:core/lpc17xx_gpio.c ****  * will not be effected by this function.
 644:core/lpc17xx_gpio.c ****  * - After executing this function, in mask register, value '0' on each bit
 645:core/lpc17xx_gpio.c ****  * enables an access to the corresponding physical pin via a read or write access,
 646:core/lpc17xx_gpio.c ****  * while value '1' on bit (masked) that corresponding pin will not be changed
 647:core/lpc17xx_gpio.c ****  * with write access and if read, will not be reflected in the updated pin.
 648:core/lpc17xx_gpio.c ****  **********************************************************************/
 649:core/lpc17xx_gpio.c **** void FIO_ByteSetMask(uint8_t portNum, uint8_t byteNum, uint8_t bitValue, uint8_t maskValue)
 650:core/lpc17xx_gpio.c **** {
 1706              		.loc 1 650 0
 1707              		.cfi_startproc
 1708              		@ args = 0, pretend = 0, frame = 16
 1709              		@ frame_needed = 1, uses_anonymous_args = 0
 1710 0000 90B5     		push	{r4, r7, lr}	@
 1711              		.cfi_def_cfa_offset 12
 1712              		.cfi_offset 4, -12
 1713              		.cfi_offset 7, -8
 1714              		.cfi_offset 14, -4
 1715 0002 85B0     		sub	sp, sp, #20	@,,
 1716              		.cfi_def_cfa_offset 32
 1717 0004 00AF     		add	r7, sp, #0	@,,
 1718              		.cfi_def_cfa_register 7
 1719 0006 0446     		mov	r4, r0	@ tmp122, portNum
 1720 0008 0846     		mov	r0, r1	@ tmp124, byteNum
 1721 000a 1146     		mov	r1, r2	@ tmp126, bitValue
 1722 000c 1A46     		mov	r2, r3	@ tmp128, maskValue
 1723 000e 2346     		mov	r3, r4	@ tmp123, tmp122
 1724 0010 FB71     		strb	r3, [r7, #7]	@ tmp123, portNum
 1725 0012 0346     		mov	r3, r0	@ tmp125, tmp124
 1726 0014 BB71     		strb	r3, [r7, #6]	@ tmp125, byteNum
 1727 0016 0B46     		mov	r3, r1	@ tmp127, tmp126
 1728 0018 7B71     		strb	r3, [r7, #5]	@ tmp127, bitValue
 1729 001a 1346     		mov	r3, r2	@ tmp129, tmp128
 1730 001c 3B71     		strb	r3, [r7, #4]	@ tmp129, maskValue
 651:core/lpc17xx_gpio.c **** 	GPIO_Byte_TypeDef *pFIO = FIO_ByteGetPointer(portNum);
 1731              		.loc 1 651 0
 1732 001e FB79     		ldrb	r3, [r7, #7]	@ zero_extendqisi2	@ tmp130, portNum
 1733 0020 1846     		mov	r0, r3	@, tmp130
 1734 0022 FFF7FEFF 		bl	FIO_ByteGetPointer	@
 1735 0026 F860     		str	r0, [r7, #12]	@, pFIO
 652:core/lpc17xx_gpio.c **** 	if(pFIO != NULL) {
 1736              		.loc 1 652 0
 1737 0028 FB68     		ldr	r3, [r7, #12]	@ tmp131, pFIO
 1738 002a 002B     		cmp	r3, #0	@ tmp131,
 1739 002c 27D0     		beq	.L110	@,
 653:core/lpc17xx_gpio.c **** 		// Mask
 654:core/lpc17xx_gpio.c **** 		if (maskValue) {
 1740              		.loc 1 654 0
ARM GAS  C:\Users\COSMIN~1.MAR\AppData\Local\Temp\ccJVXHYk.s 			page 43


 1741 002e 3B79     		ldrb	r3, [r7, #4]	@ zero_extendqisi2	@ tmp132, maskValue
 1742 0030 002B     		cmp	r3, #0	@ tmp132,
 1743 0032 10D0     		beq	.L112	@,
 655:core/lpc17xx_gpio.c **** 			if ((byteNum >= 0) && (byteNum <= 3)) {
 1744              		.loc 1 655 0
 1745 0034 BB79     		ldrb	r3, [r7, #6]	@ zero_extendqisi2	@ tmp133, byteNum
 1746 0036 032B     		cmp	r3, #3	@ tmp133,
 1747 0038 21D8     		bhi	.L110	@,
 656:core/lpc17xx_gpio.c **** 				pFIO->FIOMASK[byteNum] |= bitValue;
 1748              		.loc 1 656 0
 1749 003a BB79     		ldrb	r3, [r7, #6]	@ zero_extendqisi2	@ D.5865, byteNum
 1750 003c BA79     		ldrb	r2, [r7, #6]	@ zero_extendqisi2	@ D.5865, byteNum
 1751 003e F968     		ldr	r1, [r7, #12]	@ tmp134, pFIO
 1752 0040 0A44     		add	r2, r2, r1	@ tmp135, tmp134
 1753 0042 127C     		ldrb	r2, [r2, #16]	@ tmp137, pFIO_2->FIOMASK
 1754 0044 D1B2     		uxtb	r1, r2	@ D.5866, tmp137
 1755 0046 7A79     		ldrb	r2, [r7, #5]	@ tmp138, bitValue
 1756 0048 0A43     		orrs	r2, r2, r1	@, tmp139, tmp138, D.5866
 1757 004a D1B2     		uxtb	r1, r2	@ D.5866, tmp139
 1758 004c FA68     		ldr	r2, [r7, #12]	@ tmp140, pFIO
 1759 004e 1344     		add	r3, r3, r2	@ tmp141, tmp140
 1760 0050 0A46     		mov	r2, r1	@ tmp142, D.5866
 1761 0052 1A74     		strb	r2, [r3, #16]	@ tmp142, pFIO_2->FIOMASK
 1762 0054 13E0     		b	.L110	@
 1763              	.L112:
 657:core/lpc17xx_gpio.c **** 			}
 658:core/lpc17xx_gpio.c **** 		}
 659:core/lpc17xx_gpio.c **** 		// Un-mask
 660:core/lpc17xx_gpio.c **** 		else {
 661:core/lpc17xx_gpio.c **** 			if ((byteNum >= 0) && (byteNum <= 3)) {
 1764              		.loc 1 661 0
 1765 0056 BB79     		ldrb	r3, [r7, #6]	@ zero_extendqisi2	@ tmp143, byteNum
 1766 0058 032B     		cmp	r3, #3	@ tmp143,
 1767 005a 10D8     		bhi	.L110	@,
 662:core/lpc17xx_gpio.c **** 				pFIO->FIOMASK[byteNum] &= ~bitValue;
 1768              		.loc 1 662 0
 1769 005c BB79     		ldrb	r3, [r7, #6]	@ zero_extendqisi2	@ D.5865, byteNum
 1770 005e BA79     		ldrb	r2, [r7, #6]	@ zero_extendqisi2	@ D.5865, byteNum
 1771 0060 F968     		ldr	r1, [r7, #12]	@ tmp144, pFIO
 1772 0062 0A44     		add	r2, r2, r1	@ tmp145, tmp144
 1773 0064 127C     		ldrb	r2, [r2, #16]	@ tmp147, pFIO_2->FIOMASK
 1774 0066 D2B2     		uxtb	r2, r2	@ D.5866, tmp147
 1775 0068 D1B2     		uxtb	r1, r2	@ D.5867, D.5866
 1776 006a 7A79     		ldrb	r2, [r7, #5]	@ zero_extendqisi2	@ D.5867, bitValue
 1777 006c D243     		mvns	r2, r2	@ tmp148, D.5867
 1778 006e D2B2     		uxtb	r2, r2	@ D.5867, tmp148
 1779 0070 0A40     		ands	r2, r2, r1	@, tmp151, tmp150, tmp149
 1780 0072 D2B2     		uxtb	r2, r2	@ D.5867, tmp151
 1781 0074 D1B2     		uxtb	r1, r2	@ D.5866, D.5867
 1782 0076 FA68     		ldr	r2, [r7, #12]	@ tmp152, pFIO
 1783 0078 1344     		add	r3, r3, r2	@ tmp153, tmp152
 1784 007a 0A46     		mov	r2, r1	@ tmp154, D.5866
 1785 007c 1A74     		strb	r2, [r3, #16]	@ tmp154, pFIO_2->FIOMASK
 1786              	.L110:
 663:core/lpc17xx_gpio.c **** 			}
 664:core/lpc17xx_gpio.c **** 		}
 665:core/lpc17xx_gpio.c **** 	}
ARM GAS  C:\Users\COSMIN~1.MAR\AppData\Local\Temp\ccJVXHYk.s 			page 44


 666:core/lpc17xx_gpio.c **** }
 1787              		.loc 1 666 0
 1788 007e 1437     		adds	r7, r7, #20	@,,
 1789              		.cfi_def_cfa_offset 12
 1790 0080 BD46     		mov	sp, r7	@,
 1791              		.cfi_def_cfa_register 13
 1792              		@ sp needed	@
 1793 0082 90BD     		pop	{r4, r7, pc}	@
 1794              		.cfi_endproc
 1795              	.LFE79:
 1796              		.size	FIO_ByteSetMask, .-FIO_ByteSetMask
 1797              		.section	.text.FIO_ByteSetValue,"ax",%progbits
 1798              		.align	2
 1799              		.global	FIO_ByteSetValue
 1800              		.thumb
 1801              		.thumb_func
 1802              		.type	FIO_ByteSetValue, %function
 1803              	FIO_ByteSetValue:
 1804              	.LFB80:
 667:core/lpc17xx_gpio.c **** 
 668:core/lpc17xx_gpio.c **** 
 669:core/lpc17xx_gpio.c **** /*********************************************************************//**
 670:core/lpc17xx_gpio.c ****  * @brief		Set bits for FIO port in byte accessible style
 671:core/lpc17xx_gpio.c ****  * @param[in]	portNum		Port number, in range from 0 to 4
 672:core/lpc17xx_gpio.c ****  * @param[in]	byteNum		Byte part number, should be in range from 0 to 3
 673:core/lpc17xx_gpio.c ****  * @param[in]	bitValue	Value that contains all bits in to set,
 674:core/lpc17xx_gpio.c ****  * 							in range from 0 to 0xFF.
 675:core/lpc17xx_gpio.c ****  * @return		None
 676:core/lpc17xx_gpio.c ****  *
 677:core/lpc17xx_gpio.c ****  * Note:
 678:core/lpc17xx_gpio.c ****  * - For all bits that has been set as input direction, this function will
 679:core/lpc17xx_gpio.c ****  * not effect.
 680:core/lpc17xx_gpio.c ****  * - For all remaining bits that are not activated in bitValue (value '0')
 681:core/lpc17xx_gpio.c ****  * will not be effected by this function.
 682:core/lpc17xx_gpio.c ****  **********************************************************************/
 683:core/lpc17xx_gpio.c **** void FIO_ByteSetValue(uint8_t portNum, uint8_t byteNum, uint8_t bitValue)
 684:core/lpc17xx_gpio.c **** {
 1805              		.loc 1 684 0
 1806              		.cfi_startproc
 1807              		@ args = 0, pretend = 0, frame = 16
 1808              		@ frame_needed = 1, uses_anonymous_args = 0
 1809 0000 80B5     		push	{r7, lr}	@
 1810              		.cfi_def_cfa_offset 8
 1811              		.cfi_offset 7, -8
 1812              		.cfi_offset 14, -4
 1813 0002 84B0     		sub	sp, sp, #16	@,,
 1814              		.cfi_def_cfa_offset 24
 1815 0004 00AF     		add	r7, sp, #0	@,,
 1816              		.cfi_def_cfa_register 7
 1817 0006 0346     		mov	r3, r0	@ tmp111, portNum
 1818 0008 FB71     		strb	r3, [r7, #7]	@ tmp112, portNum
 1819 000a 0B46     		mov	r3, r1	@ tmp114, tmp113
 1820 000c BB71     		strb	r3, [r7, #6]	@ tmp114, byteNum
 1821 000e 1346     		mov	r3, r2	@ tmp116, tmp115
 1822 0010 7B71     		strb	r3, [r7, #5]	@ tmp116, bitValue
 685:core/lpc17xx_gpio.c **** 	GPIO_Byte_TypeDef *pFIO = FIO_ByteGetPointer(portNum);
 1823              		.loc 1 685 0
ARM GAS  C:\Users\COSMIN~1.MAR\AppData\Local\Temp\ccJVXHYk.s 			page 45


 1824 0012 FB79     		ldrb	r3, [r7, #7]	@ zero_extendqisi2	@ tmp117, portNum
 1825 0014 1846     		mov	r0, r3	@, tmp117
 1826 0016 FFF7FEFF 		bl	FIO_ByteGetPointer	@
 1827 001a F860     		str	r0, [r7, #12]	@, pFIO
 686:core/lpc17xx_gpio.c **** 	if (pFIO != NULL) {
 1828              		.loc 1 686 0
 1829 001c FB68     		ldr	r3, [r7, #12]	@ tmp118, pFIO
 1830 001e 002B     		cmp	r3, #0	@ tmp118,
 1831 0020 07D0     		beq	.L114	@,
 687:core/lpc17xx_gpio.c **** 		if ((byteNum >= 0) && (byteNum <= 3)){
 1832              		.loc 1 687 0
 1833 0022 BB79     		ldrb	r3, [r7, #6]	@ zero_extendqisi2	@ tmp119, byteNum
 1834 0024 032B     		cmp	r3, #3	@ tmp119,
 1835 0026 04D8     		bhi	.L114	@,
 688:core/lpc17xx_gpio.c **** 			pFIO->FIOSET[byteNum] = bitValue;
 1836              		.loc 1 688 0
 1837 0028 BB79     		ldrb	r3, [r7, #6]	@ zero_extendqisi2	@ D.5868, byteNum
 1838 002a FA68     		ldr	r2, [r7, #12]	@ tmp120, pFIO
 1839 002c 1344     		add	r3, r3, r2	@ tmp121, tmp120
 1840 002e 7A79     		ldrb	r2, [r7, #5]	@ tmp122, bitValue
 1841 0030 1A76     		strb	r2, [r3, #24]	@ tmp122, pFIO_2->FIOSET
 1842              	.L114:
 689:core/lpc17xx_gpio.c **** 		}
 690:core/lpc17xx_gpio.c **** 	}
 691:core/lpc17xx_gpio.c **** }
 1843              		.loc 1 691 0
 1844 0032 1037     		adds	r7, r7, #16	@,,
 1845              		.cfi_def_cfa_offset 8
 1846 0034 BD46     		mov	sp, r7	@,
 1847              		.cfi_def_cfa_register 13
 1848              		@ sp needed	@
 1849 0036 80BD     		pop	{r7, pc}	@
 1850              		.cfi_endproc
 1851              	.LFE80:
 1852              		.size	FIO_ByteSetValue, .-FIO_ByteSetValue
 1853              		.section	.text.FIO_ByteClearValue,"ax",%progbits
 1854              		.align	2
 1855              		.global	FIO_ByteClearValue
 1856              		.thumb
 1857              		.thumb_func
 1858              		.type	FIO_ByteClearValue, %function
 1859              	FIO_ByteClearValue:
 1860              	.LFB81:
 692:core/lpc17xx_gpio.c **** 
 693:core/lpc17xx_gpio.c **** 
 694:core/lpc17xx_gpio.c **** /*********************************************************************//**
 695:core/lpc17xx_gpio.c ****  * @brief		Clear bits for FIO port in byte accessible style
 696:core/lpc17xx_gpio.c ****  * @param[in]	portNum		Port number, in range from 0 to 4
 697:core/lpc17xx_gpio.c ****  * @param[in]	byteNum		Byte part number, should be in range from 0 to 3
 698:core/lpc17xx_gpio.c ****  * @param[in]	bitValue	Value that contains all bits in to clear,
 699:core/lpc17xx_gpio.c ****  * 							in range from 0 to 0xFF.
 700:core/lpc17xx_gpio.c ****  * @return		None
 701:core/lpc17xx_gpio.c ****  *
 702:core/lpc17xx_gpio.c ****  * Note:
 703:core/lpc17xx_gpio.c ****  * - For all bits that has been set as input direction, this function will
 704:core/lpc17xx_gpio.c ****  * not effect.
 705:core/lpc17xx_gpio.c ****  * - For all remaining bits that are not activated in bitValue (value '0')
ARM GAS  C:\Users\COSMIN~1.MAR\AppData\Local\Temp\ccJVXHYk.s 			page 46


 706:core/lpc17xx_gpio.c ****  * will not be effected by this function.
 707:core/lpc17xx_gpio.c ****  **********************************************************************/
 708:core/lpc17xx_gpio.c **** void FIO_ByteClearValue(uint8_t portNum, uint8_t byteNum, uint8_t bitValue)
 709:core/lpc17xx_gpio.c **** {
 1861              		.loc 1 709 0
 1862              		.cfi_startproc
 1863              		@ args = 0, pretend = 0, frame = 16
 1864              		@ frame_needed = 1, uses_anonymous_args = 0
 1865 0000 80B5     		push	{r7, lr}	@
 1866              		.cfi_def_cfa_offset 8
 1867              		.cfi_offset 7, -8
 1868              		.cfi_offset 14, -4
 1869 0002 84B0     		sub	sp, sp, #16	@,,
 1870              		.cfi_def_cfa_offset 24
 1871 0004 00AF     		add	r7, sp, #0	@,,
 1872              		.cfi_def_cfa_register 7
 1873 0006 0346     		mov	r3, r0	@ tmp111, portNum
 1874 0008 FB71     		strb	r3, [r7, #7]	@ tmp112, portNum
 1875 000a 0B46     		mov	r3, r1	@ tmp114, tmp113
 1876 000c BB71     		strb	r3, [r7, #6]	@ tmp114, byteNum
 1877 000e 1346     		mov	r3, r2	@ tmp116, tmp115
 1878 0010 7B71     		strb	r3, [r7, #5]	@ tmp116, bitValue
 710:core/lpc17xx_gpio.c **** 	GPIO_Byte_TypeDef *pFIO = FIO_ByteGetPointer(portNum);
 1879              		.loc 1 710 0
 1880 0012 FB79     		ldrb	r3, [r7, #7]	@ zero_extendqisi2	@ tmp117, portNum
 1881 0014 1846     		mov	r0, r3	@, tmp117
 1882 0016 FFF7FEFF 		bl	FIO_ByteGetPointer	@
 1883 001a F860     		str	r0, [r7, #12]	@, pFIO
 711:core/lpc17xx_gpio.c **** 	if (pFIO != NULL) {
 1884              		.loc 1 711 0
 1885 001c FB68     		ldr	r3, [r7, #12]	@ tmp118, pFIO
 1886 001e 002B     		cmp	r3, #0	@ tmp118,
 1887 0020 07D0     		beq	.L116	@,
 712:core/lpc17xx_gpio.c **** 		if ((byteNum >= 0) && (byteNum <= 3)){
 1888              		.loc 1 712 0
 1889 0022 BB79     		ldrb	r3, [r7, #6]	@ zero_extendqisi2	@ tmp119, byteNum
 1890 0024 032B     		cmp	r3, #3	@ tmp119,
 1891 0026 04D8     		bhi	.L116	@,
 713:core/lpc17xx_gpio.c **** 			pFIO->FIOCLR[byteNum] = bitValue;
 1892              		.loc 1 713 0
 1893 0028 BB79     		ldrb	r3, [r7, #6]	@ zero_extendqisi2	@ D.5869, byteNum
 1894 002a FA68     		ldr	r2, [r7, #12]	@ tmp120, pFIO
 1895 002c 1344     		add	r3, r3, r2	@ tmp121, tmp120
 1896 002e 7A79     		ldrb	r2, [r7, #5]	@ tmp122, bitValue
 1897 0030 1A77     		strb	r2, [r3, #28]	@ tmp122, pFIO_2->FIOCLR
 1898              	.L116:
 714:core/lpc17xx_gpio.c **** 		}
 715:core/lpc17xx_gpio.c **** 	}
 716:core/lpc17xx_gpio.c **** }
 1899              		.loc 1 716 0
 1900 0032 1037     		adds	r7, r7, #16	@,,
 1901              		.cfi_def_cfa_offset 8
 1902 0034 BD46     		mov	sp, r7	@,
 1903              		.cfi_def_cfa_register 13
 1904              		@ sp needed	@
 1905 0036 80BD     		pop	{r7, pc}	@
 1906              		.cfi_endproc
ARM GAS  C:\Users\COSMIN~1.MAR\AppData\Local\Temp\ccJVXHYk.s 			page 47


 1907              	.LFE81:
 1908              		.size	FIO_ByteClearValue, .-FIO_ByteClearValue
 1909              		.section	.text.FIO_ByteReadValue,"ax",%progbits
 1910              		.align	2
 1911              		.global	FIO_ByteReadValue
 1912              		.thumb
 1913              		.thumb_func
 1914              		.type	FIO_ByteReadValue, %function
 1915              	FIO_ByteReadValue:
 1916              	.LFB82:
 717:core/lpc17xx_gpio.c **** 
 718:core/lpc17xx_gpio.c **** 
 719:core/lpc17xx_gpio.c **** /*********************************************************************//**
 720:core/lpc17xx_gpio.c ****  * @brief		Read Current state on port pin that have input direction of GPIO
 721:core/lpc17xx_gpio.c ****  * 				in byte accessible style.
 722:core/lpc17xx_gpio.c ****  * @param[in]	portNum		Port number, in range from 0 to 4
 723:core/lpc17xx_gpio.c ****  * @param[in]	byteNum		Byte part number, should be in range from 0 to 3
 724:core/lpc17xx_gpio.c ****  * @return		Current value of FIO port pin of specified byte part.
 725:core/lpc17xx_gpio.c ****  * Note: Return value contain state of each port pin (bit) on that FIO regardless
 726:core/lpc17xx_gpio.c ****  * its direction is input or output.
 727:core/lpc17xx_gpio.c ****  **********************************************************************/
 728:core/lpc17xx_gpio.c **** uint8_t FIO_ByteReadValue(uint8_t portNum, uint8_t byteNum)
 729:core/lpc17xx_gpio.c **** {
 1917              		.loc 1 729 0
 1918              		.cfi_startproc
 1919              		@ args = 0, pretend = 0, frame = 16
 1920              		@ frame_needed = 1, uses_anonymous_args = 0
 1921 0000 80B5     		push	{r7, lr}	@
 1922              		.cfi_def_cfa_offset 8
 1923              		.cfi_offset 7, -8
 1924              		.cfi_offset 14, -4
 1925 0002 84B0     		sub	sp, sp, #16	@,,
 1926              		.cfi_def_cfa_offset 24
 1927 0004 00AF     		add	r7, sp, #0	@,,
 1928              		.cfi_def_cfa_register 7
 1929 0006 0346     		mov	r3, r0	@ tmp113, portNum
 1930 0008 0A46     		mov	r2, r1	@ tmp115, byteNum
 1931 000a FB71     		strb	r3, [r7, #7]	@ tmp114, portNum
 1932 000c 1346     		mov	r3, r2	@ tmp116, tmp115
 1933 000e BB71     		strb	r3, [r7, #6]	@ tmp116, byteNum
 730:core/lpc17xx_gpio.c **** 	GPIO_Byte_TypeDef *pFIO = FIO_ByteGetPointer(portNum);
 1934              		.loc 1 730 0
 1935 0010 FB79     		ldrb	r3, [r7, #7]	@ zero_extendqisi2	@ tmp117, portNum
 1936 0012 1846     		mov	r0, r3	@, tmp117
 1937 0014 FFF7FEFF 		bl	FIO_ByteGetPointer	@
 1938 0018 F860     		str	r0, [r7, #12]	@, pFIO
 731:core/lpc17xx_gpio.c **** 	if (pFIO != NULL) {
 1939              		.loc 1 731 0
 1940 001a FB68     		ldr	r3, [r7, #12]	@ tmp118, pFIO
 1941 001c 002B     		cmp	r3, #0	@ tmp118,
 1942 001e 08D0     		beq	.L119	@,
 732:core/lpc17xx_gpio.c **** 		if ((byteNum >= 0) && (byteNum <= 3)){
 1943              		.loc 1 732 0
 1944 0020 BB79     		ldrb	r3, [r7, #6]	@ zero_extendqisi2	@ tmp119, byteNum
 1945 0022 032B     		cmp	r3, #3	@ tmp119,
 1946 0024 05D8     		bhi	.L119	@,
 733:core/lpc17xx_gpio.c **** 			return (pFIO->FIOPIN[byteNum]);
ARM GAS  C:\Users\COSMIN~1.MAR\AppData\Local\Temp\ccJVXHYk.s 			page 48


 1947              		.loc 1 733 0
 1948 0026 BB79     		ldrb	r3, [r7, #6]	@ zero_extendqisi2	@ D.5871, byteNum
 1949 0028 FA68     		ldr	r2, [r7, #12]	@ tmp120, pFIO
 1950 002a 1344     		add	r3, r3, r2	@ tmp121, tmp120
 1951 002c 1B7D     		ldrb	r3, [r3, #20]	@ tmp123, pFIO_3->FIOPIN
 1952 002e DBB2     		uxtb	r3, r3	@ D.5870, tmp123
 1953 0030 00E0     		b	.L120	@
 1954              	.L119:
 734:core/lpc17xx_gpio.c **** 		}
 735:core/lpc17xx_gpio.c **** 	}
 736:core/lpc17xx_gpio.c **** 	return (0);
 1955              		.loc 1 736 0
 1956 0032 0023     		movs	r3, #0	@ D.5870,
 1957              	.L120:
 737:core/lpc17xx_gpio.c **** }
 1958              		.loc 1 737 0
 1959 0034 1846     		mov	r0, r3	@, <retval>
 1960 0036 1037     		adds	r7, r7, #16	@,,
 1961              		.cfi_def_cfa_offset 8
 1962 0038 BD46     		mov	sp, r7	@,
 1963              		.cfi_def_cfa_register 13
 1964              		@ sp needed	@
 1965 003a 80BD     		pop	{r7, pc}	@
 1966              		.cfi_endproc
 1967              	.LFE82:
 1968              		.size	FIO_ByteReadValue, .-FIO_ByteReadValue
 1969              		.text
 1970              	.Letext0:
 1971              		.file 2 "c:\\gnu tools arm embedded\\4.9 2015q1\\arm-none-eabi\\include\\machine\\_default_types.h
 1972              		.file 3 "c:\\gnu tools arm embedded\\4.9 2015q1\\arm-none-eabi\\include\\stdint.h"
 1973              		.file 4 "system/LPC17xx.h"
 1974              		.file 5 "core/lpc_types.h"
 1975              		.file 6 "core/lpc17xx_gpio.h"
 1976              		.file 7 "system/core_cm3.h"
 1977              		.section	.debug_info,"",%progbits
 1978              	.Ldebug_info0:
 1979 0000 590D0000 		.4byte	0xd59
 1980 0004 0400     		.2byte	0x4
 1981 0006 00000000 		.4byte	.Ldebug_abbrev0
 1982 000a 04       		.byte	0x4
 1983 000b 01       		.uleb128 0x1
 1984 000c 280B0000 		.4byte	.LASF1023
 1985 0010 01       		.byte	0x1
 1986 0011 89410000 		.4byte	.LASF1024
 1987 0015 F7770000 		.4byte	.LASF1025
 1988 0019 00000000 		.4byte	.Ldebug_ranges0+0
 1989 001d 00000000 		.4byte	0
 1990 0021 00000000 		.4byte	.Ldebug_line0
 1991 0025 00000000 		.4byte	.Ldebug_macro0
 1992 0029 02       		.uleb128 0x2
 1993 002a 01       		.byte	0x1
 1994 002b 06       		.byte	0x6
 1995 002c 6B1D0000 		.4byte	.LASF908
 1996 0030 03       		.uleb128 0x3
 1997 0031 7D100000 		.4byte	.LASF911
 1998 0035 02       		.byte	0x2
 1999 0036 1D       		.byte	0x1d
ARM GAS  C:\Users\COSMIN~1.MAR\AppData\Local\Temp\ccJVXHYk.s 			page 49


 2000 0037 3B000000 		.4byte	0x3b
 2001 003b 02       		.uleb128 0x2
 2002 003c 01       		.byte	0x1
 2003 003d 08       		.byte	0x8
 2004 003e 311F0000 		.4byte	.LASF909
 2005 0042 02       		.uleb128 0x2
 2006 0043 02       		.byte	0x2
 2007 0044 05       		.byte	0x5
 2008 0045 83680000 		.4byte	.LASF910
 2009 0049 03       		.uleb128 0x3
 2010 004a D7270000 		.4byte	.LASF912
 2011 004e 02       		.byte	0x2
 2012 004f 2B       		.byte	0x2b
 2013 0050 54000000 		.4byte	0x54
 2014 0054 02       		.uleb128 0x2
 2015 0055 02       		.byte	0x2
 2016 0056 07       		.byte	0x7
 2017 0057 31730000 		.4byte	.LASF913
 2018 005b 03       		.uleb128 0x3
 2019 005c 18750000 		.4byte	.LASF914
 2020 0060 02       		.byte	0x2
 2021 0061 3F       		.byte	0x3f
 2022 0062 66000000 		.4byte	0x66
 2023 0066 02       		.uleb128 0x2
 2024 0067 04       		.byte	0x4
 2025 0068 05       		.byte	0x5
 2026 0069 16140000 		.4byte	.LASF915
 2027 006d 03       		.uleb128 0x3
 2028 006e B3420000 		.4byte	.LASF916
 2029 0072 02       		.byte	0x2
 2030 0073 41       		.byte	0x41
 2031 0074 78000000 		.4byte	0x78
 2032 0078 02       		.uleb128 0x2
 2033 0079 04       		.byte	0x4
 2034 007a 07       		.byte	0x7
 2035 007b 52390000 		.4byte	.LASF917
 2036 007f 02       		.uleb128 0x2
 2037 0080 08       		.byte	0x8
 2038 0081 05       		.byte	0x5
 2039 0082 35430000 		.4byte	.LASF918
 2040 0086 02       		.uleb128 0x2
 2041 0087 08       		.byte	0x8
 2042 0088 07       		.byte	0x7
 2043 0089 48570000 		.4byte	.LASF919
 2044 008d 04       		.uleb128 0x4
 2045 008e 04       		.byte	0x4
 2046 008f 05       		.byte	0x5
 2047 0090 696E7400 		.ascii	"int\000"
 2048 0094 02       		.uleb128 0x2
 2049 0095 04       		.byte	0x4
 2050 0096 07       		.byte	0x7
 2051 0097 C3490000 		.4byte	.LASF920
 2052 009b 03       		.uleb128 0x3
 2053 009c 771D0000 		.4byte	.LASF921
 2054 00a0 03       		.byte	0x3
 2055 00a1 15       		.byte	0x15
 2056 00a2 30000000 		.4byte	0x30
ARM GAS  C:\Users\COSMIN~1.MAR\AppData\Local\Temp\ccJVXHYk.s 			page 50


 2057 00a6 03       		.uleb128 0x3
 2058 00a7 54580000 		.4byte	.LASF922
 2059 00ab 03       		.byte	0x3
 2060 00ac 21       		.byte	0x21
 2061 00ad 49000000 		.4byte	0x49
 2062 00b1 03       		.uleb128 0x3
 2063 00b2 DA040000 		.4byte	.LASF923
 2064 00b6 03       		.byte	0x3
 2065 00b7 2C       		.byte	0x2c
 2066 00b8 5B000000 		.4byte	0x5b
 2067 00bc 03       		.uleb128 0x3
 2068 00bd 8A700000 		.4byte	.LASF924
 2069 00c1 03       		.byte	0x3
 2070 00c2 2D       		.byte	0x2d
 2071 00c3 6D000000 		.4byte	0x6d
 2072 00c7 02       		.uleb128 0x2
 2073 00c8 04       		.byte	0x4
 2074 00c9 07       		.byte	0x7
 2075 00ca BE010000 		.4byte	.LASF925
 2076 00ce 05       		.uleb128 0x5
 2077 00cf BC000000 		.4byte	0xbc
 2078 00d3 06       		.uleb128 0x6
 2079 00d4 CE000000 		.4byte	0xce
 2080 00d8 05       		.uleb128 0x5
 2081 00d9 9B000000 		.4byte	0x9b
 2082 00dd 05       		.uleb128 0x5
 2083 00de A6000000 		.4byte	0xa6
 2084 00e2 07       		.uleb128 0x7
 2085 00e3 04       		.byte	0x4
 2086 00e4 04       		.byte	0x4
 2087 00e5 C5       		.byte	0xc5
 2088 00e6 03010000 		.4byte	0x103
 2089 00ea 08       		.uleb128 0x8
 2090 00eb 59420000 		.4byte	.LASF926
 2091 00ef 04       		.byte	0x4
 2092 00f0 C6       		.byte	0xc6
 2093 00f1 DD000000 		.4byte	0xdd
 2094 00f5 00       		.byte	0
 2095 00f6 08       		.uleb128 0x8
 2096 00f7 12420000 		.4byte	.LASF927
 2097 00fb 04       		.byte	0x4
 2098 00fc C7       		.byte	0xc7
 2099 00fd DD000000 		.4byte	0xdd
 2100 0101 02       		.byte	0x2
 2101 0102 00       		.byte	0
 2102 0103 07       		.uleb128 0x7
 2103 0104 04       		.byte	0x4
 2104 0105 04       		.byte	0x4
 2105 0106 C9       		.byte	0xc9
 2106 0107 3C010000 		.4byte	0x13c
 2107 010b 08       		.uleb128 0x8
 2108 010c F3400000 		.4byte	.LASF928
 2109 0110 04       		.byte	0x4
 2110 0111 CA       		.byte	0xca
 2111 0112 D8000000 		.4byte	0xd8
 2112 0116 00       		.byte	0
 2113 0117 08       		.uleb128 0x8
ARM GAS  C:\Users\COSMIN~1.MAR\AppData\Local\Temp\ccJVXHYk.s 			page 51


 2114 0118 FB400000 		.4byte	.LASF929
 2115 011c 04       		.byte	0x4
 2116 011d CB       		.byte	0xcb
 2117 011e D8000000 		.4byte	0xd8
 2118 0122 01       		.byte	0x1
 2119 0123 08       		.uleb128 0x8
 2120 0124 03410000 		.4byte	.LASF930
 2121 0128 04       		.byte	0x4
 2122 0129 CC       		.byte	0xcc
 2123 012a D8000000 		.4byte	0xd8
 2124 012e 02       		.byte	0x2
 2125 012f 08       		.uleb128 0x8
 2126 0130 0B410000 		.4byte	.LASF931
 2127 0134 04       		.byte	0x4
 2128 0135 CD       		.byte	0xcd
 2129 0136 D8000000 		.4byte	0xd8
 2130 013a 03       		.byte	0x3
 2131 013b 00       		.byte	0
 2132 013c 09       		.uleb128 0x9
 2133 013d 04       		.byte	0x4
 2134 013e 04       		.byte	0x4
 2135 013f C3       		.byte	0xc3
 2136 0140 5A010000 		.4byte	0x15a
 2137 0144 0A       		.uleb128 0xa
 2138 0145 184F0000 		.4byte	.LASF938
 2139 0149 04       		.byte	0x4
 2140 014a C4       		.byte	0xc4
 2141 014b CE000000 		.4byte	0xce
 2142 014f 0B       		.uleb128 0xb
 2143 0150 E2000000 		.4byte	0xe2
 2144 0154 0B       		.uleb128 0xb
 2145 0155 03010000 		.4byte	0x103
 2146 0159 00       		.byte	0
 2147 015a 07       		.uleb128 0x7
 2148 015b 04       		.byte	0x4
 2149 015c 04       		.byte	0x4
 2150 015d D3       		.byte	0xd3
 2151 015e 7B010000 		.4byte	0x17b
 2152 0162 08       		.uleb128 0x8
 2153 0163 EF4B0000 		.4byte	.LASF932
 2154 0167 04       		.byte	0x4
 2155 0168 D4       		.byte	0xd4
 2156 0169 DD000000 		.4byte	0xdd
 2157 016d 00       		.byte	0
 2158 016e 08       		.uleb128 0x8
 2159 016f CC4B0000 		.4byte	.LASF933
 2160 0173 04       		.byte	0x4
 2161 0174 D5       		.byte	0xd5
 2162 0175 DD000000 		.4byte	0xdd
 2163 0179 02       		.byte	0x2
 2164 017a 00       		.byte	0
 2165 017b 07       		.uleb128 0x7
 2166 017c 04       		.byte	0x4
 2167 017d 04       		.byte	0x4
 2168 017e D7       		.byte	0xd7
 2169 017f B4010000 		.4byte	0x1b4
 2170 0183 08       		.uleb128 0x8
ARM GAS  C:\Users\COSMIN~1.MAR\AppData\Local\Temp\ccJVXHYk.s 			page 52


 2171 0184 8E4A0000 		.4byte	.LASF934
 2172 0188 04       		.byte	0x4
 2173 0189 D8       		.byte	0xd8
 2174 018a D8000000 		.4byte	0xd8
 2175 018e 00       		.byte	0
 2176 018f 08       		.uleb128 0x8
 2177 0190 974A0000 		.4byte	.LASF935
 2178 0194 04       		.byte	0x4
 2179 0195 D9       		.byte	0xd9
 2180 0196 D8000000 		.4byte	0xd8
 2181 019a 01       		.byte	0x1
 2182 019b 08       		.uleb128 0x8
 2183 019c A04A0000 		.4byte	.LASF936
 2184 01a0 04       		.byte	0x4
 2185 01a1 DA       		.byte	0xda
 2186 01a2 D8000000 		.4byte	0xd8
 2187 01a6 02       		.byte	0x2
 2188 01a7 08       		.uleb128 0x8
 2189 01a8 A94A0000 		.4byte	.LASF937
 2190 01ac 04       		.byte	0x4
 2191 01ad DB       		.byte	0xdb
 2192 01ae D8000000 		.4byte	0xd8
 2193 01b2 03       		.byte	0x3
 2194 01b3 00       		.byte	0
 2195 01b4 09       		.uleb128 0x9
 2196 01b5 04       		.byte	0x4
 2197 01b6 04       		.byte	0x4
 2198 01b7 D1       		.byte	0xd1
 2199 01b8 D2010000 		.4byte	0x1d2
 2200 01bc 0A       		.uleb128 0xa
 2201 01bd E73E0000 		.4byte	.LASF939
 2202 01c1 04       		.byte	0x4
 2203 01c2 D2       		.byte	0xd2
 2204 01c3 CE000000 		.4byte	0xce
 2205 01c7 0B       		.uleb128 0xb
 2206 01c8 5A010000 		.4byte	0x15a
 2207 01cc 0B       		.uleb128 0xb
 2208 01cd 7B010000 		.4byte	0x17b
 2209 01d1 00       		.byte	0
 2210 01d2 07       		.uleb128 0x7
 2211 01d3 04       		.byte	0x4
 2212 01d4 04       		.byte	0x4
 2213 01d5 E0       		.byte	0xe0
 2214 01d6 F3010000 		.4byte	0x1f3
 2215 01da 08       		.uleb128 0x8
 2216 01db CA390000 		.4byte	.LASF940
 2217 01df 04       		.byte	0x4
 2218 01e0 E1       		.byte	0xe1
 2219 01e1 DD000000 		.4byte	0xdd
 2220 01e5 00       		.byte	0
 2221 01e6 08       		.uleb128 0x8
 2222 01e7 73390000 		.4byte	.LASF941
 2223 01eb 04       		.byte	0x4
 2224 01ec E2       		.byte	0xe2
 2225 01ed DD000000 		.4byte	0xdd
 2226 01f1 02       		.byte	0x2
 2227 01f2 00       		.byte	0
ARM GAS  C:\Users\COSMIN~1.MAR\AppData\Local\Temp\ccJVXHYk.s 			page 53


 2228 01f3 07       		.uleb128 0x7
 2229 01f4 04       		.byte	0x4
 2230 01f5 04       		.byte	0x4
 2231 01f6 E4       		.byte	0xe4
 2232 01f7 2C020000 		.4byte	0x22c
 2233 01fb 08       		.uleb128 0x8
 2234 01fc 5C380000 		.4byte	.LASF942
 2235 0200 04       		.byte	0x4
 2236 0201 E5       		.byte	0xe5
 2237 0202 D8000000 		.4byte	0xd8
 2238 0206 00       		.byte	0
 2239 0207 08       		.uleb128 0x8
 2240 0208 64380000 		.4byte	.LASF943
 2241 020c 04       		.byte	0x4
 2242 020d E6       		.byte	0xe6
 2243 020e D8000000 		.4byte	0xd8
 2244 0212 01       		.byte	0x1
 2245 0213 08       		.uleb128 0x8
 2246 0214 6C380000 		.4byte	.LASF944
 2247 0218 04       		.byte	0x4
 2248 0219 E7       		.byte	0xe7
 2249 021a D8000000 		.4byte	0xd8
 2250 021e 02       		.byte	0x2
 2251 021f 08       		.uleb128 0x8
 2252 0220 74380000 		.4byte	.LASF945
 2253 0224 04       		.byte	0x4
 2254 0225 E8       		.byte	0xe8
 2255 0226 D8000000 		.4byte	0xd8
 2256 022a 03       		.byte	0x3
 2257 022b 00       		.byte	0
 2258 022c 09       		.uleb128 0x9
 2259 022d 04       		.byte	0x4
 2260 022e 04       		.byte	0x4
 2261 022f DE       		.byte	0xde
 2262 0230 4A020000 		.4byte	0x24a
 2263 0234 0A       		.uleb128 0xa
 2264 0235 CE590000 		.4byte	.LASF946
 2265 0239 04       		.byte	0x4
 2266 023a DF       		.byte	0xdf
 2267 023b CE000000 		.4byte	0xce
 2268 023f 0B       		.uleb128 0xb
 2269 0240 D2010000 		.4byte	0x1d2
 2270 0244 0B       		.uleb128 0xb
 2271 0245 F3010000 		.4byte	0x1f3
 2272 0249 00       		.byte	0
 2273 024a 07       		.uleb128 0x7
 2274 024b 04       		.byte	0x4
 2275 024c 04       		.byte	0x4
 2276 024d ED       		.byte	0xed
 2277 024e 6B020000 		.4byte	0x26b
 2278 0252 08       		.uleb128 0x8
 2279 0253 812C0000 		.4byte	.LASF947
 2280 0257 04       		.byte	0x4
 2281 0258 EE       		.byte	0xee
 2282 0259 DD000000 		.4byte	0xdd
 2283 025d 00       		.byte	0
 2284 025e 08       		.uleb128 0x8
ARM GAS  C:\Users\COSMIN~1.MAR\AppData\Local\Temp\ccJVXHYk.s 			page 54


 2285 025f 792C0000 		.4byte	.LASF948
 2286 0263 04       		.byte	0x4
 2287 0264 EF       		.byte	0xef
 2288 0265 DD000000 		.4byte	0xdd
 2289 0269 02       		.byte	0x2
 2290 026a 00       		.byte	0
 2291 026b 07       		.uleb128 0x7
 2292 026c 04       		.byte	0x4
 2293 026d 04       		.byte	0x4
 2294 026e F1       		.byte	0xf1
 2295 026f A4020000 		.4byte	0x2a4
 2296 0273 08       		.uleb128 0x8
 2297 0274 742A0000 		.4byte	.LASF949
 2298 0278 04       		.byte	0x4
 2299 0279 F2       		.byte	0xf2
 2300 027a D8000000 		.4byte	0xd8
 2301 027e 00       		.byte	0
 2302 027f 08       		.uleb128 0x8
 2303 0280 7C2A0000 		.4byte	.LASF950
 2304 0284 04       		.byte	0x4
 2305 0285 F3       		.byte	0xf3
 2306 0286 D8000000 		.4byte	0xd8
 2307 028a 01       		.byte	0x1
 2308 028b 08       		.uleb128 0x8
 2309 028c 842A0000 		.4byte	.LASF951
 2310 0290 04       		.byte	0x4
 2311 0291 F4       		.byte	0xf4
 2312 0292 D8000000 		.4byte	0xd8
 2313 0296 02       		.byte	0x2
 2314 0297 08       		.uleb128 0x8
 2315 0298 8C2A0000 		.4byte	.LASF952
 2316 029c 04       		.byte	0x4
 2317 029d F5       		.byte	0xf5
 2318 029e D8000000 		.4byte	0xd8
 2319 02a2 03       		.byte	0x3
 2320 02a3 00       		.byte	0
 2321 02a4 09       		.uleb128 0x9
 2322 02a5 04       		.byte	0x4
 2323 02a6 04       		.byte	0x4
 2324 02a7 EB       		.byte	0xeb
 2325 02a8 C2020000 		.4byte	0x2c2
 2326 02ac 0A       		.uleb128 0xa
 2327 02ad 98440000 		.4byte	.LASF953
 2328 02b1 04       		.byte	0x4
 2329 02b2 EC       		.byte	0xec
 2330 02b3 CE000000 		.4byte	0xce
 2331 02b7 0B       		.uleb128 0xb
 2332 02b8 4A020000 		.4byte	0x24a
 2333 02bc 0B       		.uleb128 0xb
 2334 02bd 6B020000 		.4byte	0x26b
 2335 02c1 00       		.byte	0
 2336 02c2 07       		.uleb128 0x7
 2337 02c3 04       		.byte	0x4
 2338 02c4 04       		.byte	0x4
 2339 02c5 FA       		.byte	0xfa
 2340 02c6 E3020000 		.4byte	0x2e3
 2341 02ca 08       		.uleb128 0x8
ARM GAS  C:\Users\COSMIN~1.MAR\AppData\Local\Temp\ccJVXHYk.s 			page 55


 2342 02cb 9F4C0000 		.4byte	.LASF954
 2343 02cf 04       		.byte	0x4
 2344 02d0 FB       		.byte	0xfb
 2345 02d1 DD000000 		.4byte	0xdd
 2346 02d5 00       		.byte	0
 2347 02d6 08       		.uleb128 0x8
 2348 02d7 734C0000 		.4byte	.LASF955
 2349 02db 04       		.byte	0x4
 2350 02dc FC       		.byte	0xfc
 2351 02dd DD000000 		.4byte	0xdd
 2352 02e1 02       		.byte	0x2
 2353 02e2 00       		.byte	0
 2354 02e3 07       		.uleb128 0x7
 2355 02e4 04       		.byte	0x4
 2356 02e5 04       		.byte	0x4
 2357 02e6 FE       		.byte	0xfe
 2358 02e7 1F030000 		.4byte	0x31f
 2359 02eb 08       		.uleb128 0x8
 2360 02ec 7B4B0000 		.4byte	.LASF956
 2361 02f0 04       		.byte	0x4
 2362 02f1 FF       		.byte	0xff
 2363 02f2 D8000000 		.4byte	0xd8
 2364 02f6 00       		.byte	0
 2365 02f7 0C       		.uleb128 0xc
 2366 02f8 834B0000 		.4byte	.LASF957
 2367 02fc 04       		.byte	0x4
 2368 02fd 0001     		.2byte	0x100
 2369 02ff D8000000 		.4byte	0xd8
 2370 0303 01       		.byte	0x1
 2371 0304 0C       		.uleb128 0xc
 2372 0305 8B4B0000 		.4byte	.LASF958
 2373 0309 04       		.byte	0x4
 2374 030a 0101     		.2byte	0x101
 2375 030c D8000000 		.4byte	0xd8
 2376 0310 02       		.byte	0x2
 2377 0311 0C       		.uleb128 0xc
 2378 0312 934B0000 		.4byte	.LASF959
 2379 0316 04       		.byte	0x4
 2380 0317 0201     		.2byte	0x102
 2381 0319 D8000000 		.4byte	0xd8
 2382 031d 03       		.byte	0x3
 2383 031e 00       		.byte	0
 2384 031f 09       		.uleb128 0x9
 2385 0320 04       		.byte	0x4
 2386 0321 04       		.byte	0x4
 2387 0322 F8       		.byte	0xf8
 2388 0323 3D030000 		.4byte	0x33d
 2389 0327 0A       		.uleb128 0xa
 2390 0328 F8440000 		.4byte	.LASF960
 2391 032c 04       		.byte	0x4
 2392 032d F9       		.byte	0xf9
 2393 032e CE000000 		.4byte	0xce
 2394 0332 0B       		.uleb128 0xb
 2395 0333 C2020000 		.4byte	0x2c2
 2396 0337 0B       		.uleb128 0xb
 2397 0338 E3020000 		.4byte	0x2e3
 2398 033c 00       		.byte	0
ARM GAS  C:\Users\COSMIN~1.MAR\AppData\Local\Temp\ccJVXHYk.s 			page 56


 2399 033d 07       		.uleb128 0x7
 2400 033e 20       		.byte	0x20
 2401 033f 04       		.byte	0x4
 2402 0340 C1       		.byte	0xc1
 2403 0341 70030000 		.4byte	0x370
 2404 0345 0D       		.uleb128 0xd
 2405 0346 3C010000 		.4byte	0x13c
 2406 034a 00       		.byte	0
 2407 034b 08       		.uleb128 0x8
 2408 034c 051F0000 		.4byte	.LASF961
 2409 0350 04       		.byte	0x4
 2410 0351 D0       		.byte	0xd0
 2411 0352 70030000 		.4byte	0x370
 2412 0356 04       		.byte	0x4
 2413 0357 0D       		.uleb128 0xd
 2414 0358 B4010000 		.4byte	0x1b4
 2415 035c 10       		.byte	0x10
 2416 035d 0D       		.uleb128 0xd
 2417 035e 2C020000 		.4byte	0x22c
 2418 0362 14       		.byte	0x14
 2419 0363 0D       		.uleb128 0xd
 2420 0364 A4020000 		.4byte	0x2a4
 2421 0368 18       		.byte	0x18
 2422 0369 0D       		.uleb128 0xd
 2423 036a 1F030000 		.4byte	0x31f
 2424 036e 1C       		.byte	0x1c
 2425 036f 00       		.byte	0
 2426 0370 0E       		.uleb128 0xe
 2427 0371 BC000000 		.4byte	0xbc
 2428 0375 80030000 		.4byte	0x380
 2429 0379 0F       		.uleb128 0xf
 2430 037a C7000000 		.4byte	0xc7
 2431 037e 02       		.byte	0x2
 2432 037f 00       		.byte	0
 2433 0380 10       		.uleb128 0x10
 2434 0381 2E720000 		.4byte	.LASF962
 2435 0385 04       		.byte	0x4
 2436 0386 0501     		.2byte	0x105
 2437 0388 3D030000 		.4byte	0x33d
 2438 038c 11       		.uleb128 0x11
 2439 038d 38       		.byte	0x38
 2440 038e 04       		.byte	0x4
 2441 038f 0801     		.2byte	0x108
 2442 0391 32040000 		.4byte	0x432
 2443 0395 0C       		.uleb128 0xc
 2444 0396 726D0000 		.4byte	.LASF963
 2445 039a 04       		.byte	0x4
 2446 039b 0A01     		.2byte	0x10a
 2447 039d D3000000 		.4byte	0xd3
 2448 03a1 00       		.byte	0
 2449 03a2 0C       		.uleb128 0xc
 2450 03a3 9B290000 		.4byte	.LASF964
 2451 03a7 04       		.byte	0x4
 2452 03a8 0B01     		.2byte	0x10b
 2453 03aa D3000000 		.4byte	0xd3
 2454 03ae 04       		.byte	0x4
 2455 03af 0C       		.uleb128 0xc
ARM GAS  C:\Users\COSMIN~1.MAR\AppData\Local\Temp\ccJVXHYk.s 			page 57


 2456 03b0 0D290000 		.4byte	.LASF965
 2457 03b4 04       		.byte	0x4
 2458 03b5 0C01     		.2byte	0x10c
 2459 03b7 D3000000 		.4byte	0xd3
 2460 03bb 08       		.byte	0x8
 2461 03bc 0C       		.uleb128 0xc
 2462 03bd 36360000 		.4byte	.LASF966
 2463 03c1 04       		.byte	0x4
 2464 03c2 0D01     		.2byte	0x10d
 2465 03c4 CE000000 		.4byte	0xce
 2466 03c8 0C       		.byte	0xc
 2467 03c9 0C       		.uleb128 0xc
 2468 03ca 0D6C0000 		.4byte	.LASF967
 2469 03ce 04       		.byte	0x4
 2470 03cf 0E01     		.2byte	0x10e
 2471 03d1 CE000000 		.4byte	0xce
 2472 03d5 10       		.byte	0x10
 2473 03d6 0C       		.uleb128 0xc
 2474 03d7 5F6B0000 		.4byte	.LASF968
 2475 03db 04       		.byte	0x4
 2476 03dc 0F01     		.2byte	0x10f
 2477 03de CE000000 		.4byte	0xce
 2478 03e2 14       		.byte	0x14
 2479 03e3 0C       		.uleb128 0xc
 2480 03e4 051F0000 		.4byte	.LASF961
 2481 03e8 04       		.byte	0x4
 2482 03e9 1001     		.2byte	0x110
 2483 03eb 70030000 		.4byte	0x370
 2484 03ef 18       		.byte	0x18
 2485 03f0 0C       		.uleb128 0xc
 2486 03f1 A85E0000 		.4byte	.LASF969
 2487 03f5 04       		.byte	0x4
 2488 03f6 1101     		.2byte	0x111
 2489 03f8 D3000000 		.4byte	0xd3
 2490 03fc 24       		.byte	0x24
 2491 03fd 0C       		.uleb128 0xc
 2492 03fe 3C5E0000 		.4byte	.LASF970
 2493 0402 04       		.byte	0x4
 2494 0403 1201     		.2byte	0x112
 2495 0405 D3000000 		.4byte	0xd3
 2496 0409 28       		.byte	0x28
 2497 040a 0C       		.uleb128 0xc
 2498 040b 43430000 		.4byte	.LASF971
 2499 040f 04       		.byte	0x4
 2500 0410 1301     		.2byte	0x113
 2501 0412 CE000000 		.4byte	0xce
 2502 0416 2C       		.byte	0x2c
 2503 0417 0C       		.uleb128 0xc
 2504 0418 EE740000 		.4byte	.LASF972
 2505 041c 04       		.byte	0x4
 2506 041d 1401     		.2byte	0x114
 2507 041f CE000000 		.4byte	0xce
 2508 0423 30       		.byte	0x30
 2509 0424 0C       		.uleb128 0xc
 2510 0425 B5740000 		.4byte	.LASF973
 2511 0429 04       		.byte	0x4
 2512 042a 1501     		.2byte	0x115
ARM GAS  C:\Users\COSMIN~1.MAR\AppData\Local\Temp\ccJVXHYk.s 			page 58


 2513 042c CE000000 		.4byte	0xce
 2514 0430 34       		.byte	0x34
 2515 0431 00       		.byte	0
 2516 0432 10       		.uleb128 0x10
 2517 0433 36420000 		.4byte	.LASF974
 2518 0437 04       		.byte	0x4
 2519 0438 1601     		.2byte	0x116
 2520 043a 8C030000 		.4byte	0x38c
 2521 043e 12       		.uleb128 0x12
 2522 043f 01       		.byte	0x1
 2523 0440 05       		.byte	0x5
 2524 0441 38       		.byte	0x38
 2525 0442 53040000 		.4byte	0x453
 2526 0446 13       		.uleb128 0x13
 2527 0447 5E510000 		.4byte	.LASF975
 2528 044b 00       		.sleb128 0
 2529 044c 13       		.uleb128 0x13
 2530 044d 63530000 		.4byte	.LASF976
 2531 0451 01       		.sleb128 1
 2532 0452 00       		.byte	0
 2533 0453 03       		.uleb128 0x3
 2534 0454 AD560000 		.4byte	.LASF977
 2535 0458 05       		.byte	0x5
 2536 0459 38       		.byte	0x38
 2537 045a 3E040000 		.4byte	0x43e
 2538 045e 02       		.uleb128 0x2
 2539 045f 01       		.byte	0x1
 2540 0460 08       		.byte	0x8
 2541 0461 A8250000 		.4byte	.LASF978
 2542 0465 07       		.uleb128 0x7
 2543 0466 20       		.byte	0x20
 2544 0467 06       		.byte	0x6
 2545 0468 50       		.byte	0x50
 2546 0469 B6040000 		.4byte	0x4b6
 2547 046d 08       		.uleb128 0x8
 2548 046e 184F0000 		.4byte	.LASF938
 2549 0472 06       		.byte	0x6
 2550 0473 51       		.byte	0x51
 2551 0474 C6040000 		.4byte	0x4c6
 2552 0478 00       		.byte	0
 2553 0479 08       		.uleb128 0x8
 2554 047a 051F0000 		.4byte	.LASF961
 2555 047e 06       		.byte	0x6
 2556 047f 52       		.byte	0x52
 2557 0480 70030000 		.4byte	0x370
 2558 0484 04       		.byte	0x4
 2559 0485 08       		.uleb128 0x8
 2560 0486 E73E0000 		.4byte	.LASF939
 2561 048a 06       		.byte	0x6
 2562 048b 53       		.byte	0x53
 2563 048c CB040000 		.4byte	0x4cb
 2564 0490 10       		.byte	0x10
 2565 0491 08       		.uleb128 0x8
 2566 0492 CE590000 		.4byte	.LASF946
 2567 0496 06       		.byte	0x6
 2568 0497 54       		.byte	0x54
 2569 0498 D0040000 		.4byte	0x4d0
ARM GAS  C:\Users\COSMIN~1.MAR\AppData\Local\Temp\ccJVXHYk.s 			page 59


 2570 049c 14       		.byte	0x14
 2571 049d 08       		.uleb128 0x8
 2572 049e 98440000 		.4byte	.LASF953
 2573 04a2 06       		.byte	0x6
 2574 04a3 55       		.byte	0x55
 2575 04a4 D5040000 		.4byte	0x4d5
 2576 04a8 18       		.byte	0x18
 2577 04a9 08       		.uleb128 0x8
 2578 04aa F8440000 		.4byte	.LASF960
 2579 04ae 06       		.byte	0x6
 2580 04af 56       		.byte	0x56
 2581 04b0 DA040000 		.4byte	0x4da
 2582 04b4 1C       		.byte	0x1c
 2583 04b5 00       		.byte	0
 2584 04b6 0E       		.uleb128 0xe
 2585 04b7 9B000000 		.4byte	0x9b
 2586 04bb C6040000 		.4byte	0x4c6
 2587 04bf 0F       		.uleb128 0xf
 2588 04c0 C7000000 		.4byte	0xc7
 2589 04c4 03       		.byte	0x3
 2590 04c5 00       		.byte	0
 2591 04c6 05       		.uleb128 0x5
 2592 04c7 B6040000 		.4byte	0x4b6
 2593 04cb 05       		.uleb128 0x5
 2594 04cc B6040000 		.4byte	0x4b6
 2595 04d0 05       		.uleb128 0x5
 2596 04d1 B6040000 		.4byte	0x4b6
 2597 04d5 05       		.uleb128 0x5
 2598 04d6 B6040000 		.4byte	0x4b6
 2599 04da 05       		.uleb128 0x5
 2600 04db B6040000 		.4byte	0x4b6
 2601 04df 03       		.uleb128 0x3
 2602 04e0 EE190000 		.4byte	.LASF979
 2603 04e4 06       		.byte	0x6
 2604 04e5 57       		.byte	0x57
 2605 04e6 65040000 		.4byte	0x465
 2606 04ea 07       		.uleb128 0x7
 2607 04eb 20       		.byte	0x20
 2608 04ec 06       		.byte	0x6
 2609 04ed 5D       		.byte	0x5d
 2610 04ee 77050000 		.4byte	0x577
 2611 04f2 08       		.uleb128 0x8
 2612 04f3 59420000 		.4byte	.LASF926
 2613 04f7 06       		.byte	0x6
 2614 04f8 5E       		.byte	0x5e
 2615 04f9 DD000000 		.4byte	0xdd
 2616 04fd 00       		.byte	0
 2617 04fe 08       		.uleb128 0x8
 2618 04ff F1420000 		.4byte	.LASF980
 2619 0503 06       		.byte	0x6
 2620 0504 5F       		.byte	0x5f
 2621 0505 DD000000 		.4byte	0xdd
 2622 0509 02       		.byte	0x2
 2623 050a 08       		.uleb128 0x8
 2624 050b 051F0000 		.4byte	.LASF961
 2625 050f 06       		.byte	0x6
 2626 0510 60       		.byte	0x60
ARM GAS  C:\Users\COSMIN~1.MAR\AppData\Local\Temp\ccJVXHYk.s 			page 60


 2627 0511 70030000 		.4byte	0x370
 2628 0515 04       		.byte	0x4
 2629 0516 08       		.uleb128 0x8
 2630 0517 EF4B0000 		.4byte	.LASF932
 2631 051b 06       		.byte	0x6
 2632 051c 61       		.byte	0x61
 2633 051d DD000000 		.4byte	0xdd
 2634 0521 10       		.byte	0x10
 2635 0522 08       		.uleb128 0x8
 2636 0523 604C0000 		.4byte	.LASF981
 2637 0527 06       		.byte	0x6
 2638 0528 62       		.byte	0x62
 2639 0529 DD000000 		.4byte	0xdd
 2640 052d 12       		.byte	0x12
 2641 052e 08       		.uleb128 0x8
 2642 052f CA390000 		.4byte	.LASF940
 2643 0533 06       		.byte	0x6
 2644 0534 63       		.byte	0x63
 2645 0535 DD000000 		.4byte	0xdd
 2646 0539 14       		.byte	0x14
 2647 053a 08       		.uleb128 0x8
 2648 053b 023A0000 		.4byte	.LASF982
 2649 053f 06       		.byte	0x6
 2650 0540 64       		.byte	0x64
 2651 0541 DD000000 		.4byte	0xdd
 2652 0545 16       		.byte	0x16
 2653 0546 08       		.uleb128 0x8
 2654 0547 812C0000 		.4byte	.LASF947
 2655 054b 06       		.byte	0x6
 2656 054c 65       		.byte	0x65
 2657 054d DD000000 		.4byte	0xdd
 2658 0551 18       		.byte	0x18
 2659 0552 08       		.uleb128 0x8
 2660 0553 8C2D0000 		.4byte	.LASF983
 2661 0557 06       		.byte	0x6
 2662 0558 66       		.byte	0x66
 2663 0559 DD000000 		.4byte	0xdd
 2664 055d 1A       		.byte	0x1a
 2665 055e 08       		.uleb128 0x8
 2666 055f 9F4C0000 		.4byte	.LASF954
 2667 0563 06       		.byte	0x6
 2668 0564 67       		.byte	0x67
 2669 0565 DD000000 		.4byte	0xdd
 2670 0569 1C       		.byte	0x1c
 2671 056a 08       		.uleb128 0x8
 2672 056b D54C0000 		.4byte	.LASF984
 2673 056f 06       		.byte	0x6
 2674 0570 68       		.byte	0x68
 2675 0571 DD000000 		.4byte	0xdd
 2676 0575 1E       		.byte	0x1e
 2677 0576 00       		.byte	0
 2678 0577 03       		.uleb128 0x3
 2679 0578 9F0E0000 		.4byte	.LASF985
 2680 057c 06       		.byte	0x6
 2681 057d 69       		.byte	0x69
 2682 057e EA040000 		.4byte	0x4ea
 2683 0582 14       		.uleb128 0x14
ARM GAS  C:\Users\COSMIN~1.MAR\AppData\Local\Temp\ccJVXHYk.s 			page 61


 2684 0583 40770000 		.4byte	.LASF986
 2685 0587 01       		.byte	0x1
 2686 0588 34       		.byte	0x34
 2687 0589 B8050000 		.4byte	0x5b8
 2688 058d 00000000 		.4byte	.LFB55
 2689 0591 74000000 		.4byte	.LFE55-.LFB55
 2690 0595 01       		.uleb128 0x1
 2691 0596 9C       		.byte	0x9c
 2692 0597 B8050000 		.4byte	0x5b8
 2693 059b 15       		.uleb128 0x15
 2694 059c ED690000 		.4byte	.LASF988
 2695 05a0 01       		.byte	0x1
 2696 05a1 34       		.byte	0x34
 2697 05a2 9B000000 		.4byte	0x9b
 2698 05a6 02       		.uleb128 0x2
 2699 05a7 91       		.byte	0x91
 2700 05a8 6F       		.sleb128 -17
 2701 05a9 16       		.uleb128 0x16
 2702 05aa B3500000 		.4byte	.LASF989
 2703 05ae 01       		.byte	0x1
 2704 05af 36       		.byte	0x36
 2705 05b0 B8050000 		.4byte	0x5b8
 2706 05b4 02       		.uleb128 0x2
 2707 05b5 91       		.byte	0x91
 2708 05b6 74       		.sleb128 -12
 2709 05b7 00       		.byte	0
 2710 05b8 17       		.uleb128 0x17
 2711 05b9 04       		.byte	0x4
 2712 05ba 80030000 		.4byte	0x380
 2713 05be 14       		.uleb128 0x14
 2714 05bf 144B0000 		.4byte	.LASF987
 2715 05c3 01       		.byte	0x1
 2716 05c4 55       		.byte	0x55
 2717 05c5 F4050000 		.4byte	0x5f4
 2718 05c9 00000000 		.4byte	.LFB56
 2719 05cd 74000000 		.4byte	.LFE56-.LFB56
 2720 05d1 01       		.uleb128 0x1
 2721 05d2 9C       		.byte	0x9c
 2722 05d3 F4050000 		.4byte	0x5f4
 2723 05d7 15       		.uleb128 0x15
 2724 05d8 ED690000 		.4byte	.LASF988
 2725 05dc 01       		.byte	0x1
 2726 05dd 55       		.byte	0x55
 2727 05de 9B000000 		.4byte	0x9b
 2728 05e2 02       		.uleb128 0x2
 2729 05e3 91       		.byte	0x91
 2730 05e4 6F       		.sleb128 -17
 2731 05e5 16       		.uleb128 0x16
 2732 05e6 B1180000 		.4byte	.LASF990
 2733 05ea 01       		.byte	0x1
 2734 05eb 57       		.byte	0x57
 2735 05ec F4050000 		.4byte	0x5f4
 2736 05f0 02       		.uleb128 0x2
 2737 05f1 91       		.byte	0x91
 2738 05f2 74       		.sleb128 -12
 2739 05f3 00       		.byte	0
 2740 05f4 17       		.uleb128 0x17
ARM GAS  C:\Users\COSMIN~1.MAR\AppData\Local\Temp\ccJVXHYk.s 			page 62


 2741 05f5 04       		.byte	0x4
 2742 05f6 77050000 		.4byte	0x577
 2743 05fa 14       		.uleb128 0x14
 2744 05fb 15450000 		.4byte	.LASF991
 2745 05ff 01       		.byte	0x1
 2746 0600 76       		.byte	0x76
 2747 0601 30060000 		.4byte	0x630
 2748 0605 00000000 		.4byte	.LFB57
 2749 0609 74000000 		.4byte	.LFE57-.LFB57
 2750 060d 01       		.uleb128 0x1
 2751 060e 9C       		.byte	0x9c
 2752 060f 30060000 		.4byte	0x630
 2753 0613 15       		.uleb128 0x15
 2754 0614 ED690000 		.4byte	.LASF988
 2755 0618 01       		.byte	0x1
 2756 0619 76       		.byte	0x76
 2757 061a 9B000000 		.4byte	0x9b
 2758 061e 02       		.uleb128 0x2
 2759 061f 91       		.byte	0x91
 2760 0620 6F       		.sleb128 -17
 2761 0621 16       		.uleb128 0x16
 2762 0622 B1180000 		.4byte	.LASF990
 2763 0626 01       		.byte	0x1
 2764 0627 78       		.byte	0x78
 2765 0628 30060000 		.4byte	0x630
 2766 062c 02       		.uleb128 0x2
 2767 062d 91       		.byte	0x91
 2768 062e 74       		.sleb128 -12
 2769 062f 00       		.byte	0
 2770 0630 17       		.uleb128 0x17
 2771 0631 04       		.byte	0x4
 2772 0632 DF040000 		.4byte	0x4df
 2773 0636 18       		.uleb128 0x18
 2774 0637 D7700000 		.4byte	.LASF993
 2775 063b 01       		.byte	0x1
 2776 063c AA       		.byte	0xaa
 2777 063d 00000000 		.4byte	.LFB58
 2778 0641 48000000 		.4byte	.LFE58-.LFB58
 2779 0645 01       		.uleb128 0x1
 2780 0646 9C       		.byte	0x9c
 2781 0647 84060000 		.4byte	0x684
 2782 064b 15       		.uleb128 0x15
 2783 064c ED690000 		.4byte	.LASF988
 2784 0650 01       		.byte	0x1
 2785 0651 AA       		.byte	0xaa
 2786 0652 9B000000 		.4byte	0x9b
 2787 0656 02       		.uleb128 0x2
 2788 0657 91       		.byte	0x91
 2789 0658 6F       		.sleb128 -17
 2790 0659 15       		.uleb128 0x15
 2791 065a 2C410000 		.4byte	.LASF992
 2792 065e 01       		.byte	0x1
 2793 065f AA       		.byte	0xaa
 2794 0660 BC000000 		.4byte	0xbc
 2795 0664 02       		.uleb128 0x2
 2796 0665 91       		.byte	0x91
 2797 0666 68       		.sleb128 -24
ARM GAS  C:\Users\COSMIN~1.MAR\AppData\Local\Temp\ccJVXHYk.s 			page 63


 2798 0667 19       		.uleb128 0x19
 2799 0668 64697200 		.ascii	"dir\000"
 2800 066c 01       		.byte	0x1
 2801 066d AA       		.byte	0xaa
 2802 066e 9B000000 		.4byte	0x9b
 2803 0672 02       		.uleb128 0x2
 2804 0673 91       		.byte	0x91
 2805 0674 6E       		.sleb128 -18
 2806 0675 16       		.uleb128 0x16
 2807 0676 B3500000 		.4byte	.LASF989
 2808 067a 01       		.byte	0x1
 2809 067b AC       		.byte	0xac
 2810 067c B8050000 		.4byte	0x5b8
 2811 0680 02       		.uleb128 0x2
 2812 0681 91       		.byte	0x91
 2813 0682 74       		.sleb128 -12
 2814 0683 00       		.byte	0
 2815 0684 18       		.uleb128 0x18
 2816 0685 EA380000 		.4byte	.LASF994
 2817 0689 01       		.byte	0x1
 2818 068a C9       		.byte	0xc9
 2819 068b 00000000 		.4byte	.LFB59
 2820 068f 28000000 		.4byte	.LFE59-.LFB59
 2821 0693 01       		.uleb128 0x1
 2822 0694 9C       		.byte	0x9c
 2823 0695 C4060000 		.4byte	0x6c4
 2824 0699 15       		.uleb128 0x15
 2825 069a ED690000 		.4byte	.LASF988
 2826 069e 01       		.byte	0x1
 2827 069f C9       		.byte	0xc9
 2828 06a0 9B000000 		.4byte	0x9b
 2829 06a4 02       		.uleb128 0x2
 2830 06a5 91       		.byte	0x91
 2831 06a6 6F       		.sleb128 -17
 2832 06a7 15       		.uleb128 0x15
 2833 06a8 2C410000 		.4byte	.LASF992
 2834 06ac 01       		.byte	0x1
 2835 06ad C9       		.byte	0xc9
 2836 06ae BC000000 		.4byte	0xbc
 2837 06b2 02       		.uleb128 0x2
 2838 06b3 91       		.byte	0x91
 2839 06b4 68       		.sleb128 -24
 2840 06b5 16       		.uleb128 0x16
 2841 06b6 B3500000 		.4byte	.LASF989
 2842 06ba 01       		.byte	0x1
 2843 06bb CB       		.byte	0xcb
 2844 06bc B8050000 		.4byte	0x5b8
 2845 06c0 02       		.uleb128 0x2
 2846 06c1 91       		.byte	0x91
 2847 06c2 74       		.sleb128 -12
 2848 06c3 00       		.byte	0
 2849 06c4 18       		.uleb128 0x18
 2850 06c5 86000000 		.4byte	.LASF995
 2851 06c9 01       		.byte	0x1
 2852 06ca E0       		.byte	0xe0
 2853 06cb 00000000 		.4byte	.LFB60
 2854 06cf 28000000 		.4byte	.LFE60-.LFB60
ARM GAS  C:\Users\COSMIN~1.MAR\AppData\Local\Temp\ccJVXHYk.s 			page 64


 2855 06d3 01       		.uleb128 0x1
 2856 06d4 9C       		.byte	0x9c
 2857 06d5 04070000 		.4byte	0x704
 2858 06d9 15       		.uleb128 0x15
 2859 06da ED690000 		.4byte	.LASF988
 2860 06de 01       		.byte	0x1
 2861 06df E0       		.byte	0xe0
 2862 06e0 9B000000 		.4byte	0x9b
 2863 06e4 02       		.uleb128 0x2
 2864 06e5 91       		.byte	0x91
 2865 06e6 6F       		.sleb128 -17
 2866 06e7 15       		.uleb128 0x15
 2867 06e8 2C410000 		.4byte	.LASF992
 2868 06ec 01       		.byte	0x1
 2869 06ed E0       		.byte	0xe0
 2870 06ee BC000000 		.4byte	0xbc
 2871 06f2 02       		.uleb128 0x2
 2872 06f3 91       		.byte	0x91
 2873 06f4 68       		.sleb128 -24
 2874 06f5 16       		.uleb128 0x16
 2875 06f6 B3500000 		.4byte	.LASF989
 2876 06fa 01       		.byte	0x1
 2877 06fb E2       		.byte	0xe2
 2878 06fc B8050000 		.4byte	0x5b8
 2879 0700 02       		.uleb128 0x2
 2880 0701 91       		.byte	0x91
 2881 0702 74       		.sleb128 -12
 2882 0703 00       		.byte	0
 2883 0704 1A       		.uleb128 0x1a
 2884 0705 6F670000 		.4byte	.LASF998
 2885 0709 01       		.byte	0x1
 2886 070a F1       		.byte	0xf1
 2887 070b BC000000 		.4byte	0xbc
 2888 070f 00000000 		.4byte	.LFB61
 2889 0713 2A000000 		.4byte	.LFE61-.LFB61
 2890 0717 01       		.uleb128 0x1
 2891 0718 9C       		.byte	0x9c
 2892 0719 3A070000 		.4byte	0x73a
 2893 071d 15       		.uleb128 0x15
 2894 071e ED690000 		.4byte	.LASF988
 2895 0722 01       		.byte	0x1
 2896 0723 F1       		.byte	0xf1
 2897 0724 9B000000 		.4byte	0x9b
 2898 0728 02       		.uleb128 0x2
 2899 0729 91       		.byte	0x91
 2900 072a 6F       		.sleb128 -17
 2901 072b 16       		.uleb128 0x16
 2902 072c B3500000 		.4byte	.LASF989
 2903 0730 01       		.byte	0x1
 2904 0731 F3       		.byte	0xf3
 2905 0732 B8050000 		.4byte	0x5b8
 2906 0736 02       		.uleb128 0x2
 2907 0737 91       		.byte	0x91
 2908 0738 74       		.sleb128 -12
 2909 0739 00       		.byte	0
 2910 073a 1B       		.uleb128 0x1b
 2911 073b 8F290000 		.4byte	.LASF996
ARM GAS  C:\Users\COSMIN~1.MAR\AppData\Local\Temp\ccJVXHYk.s 			page 65


 2912 073f 01       		.byte	0x1
 2913 0740 0601     		.2byte	0x106
 2914 0742 00000000 		.4byte	.LFB62
 2915 0746 88000000 		.4byte	.LFE62-.LFB62
 2916 074a 01       		.uleb128 0x1
 2917 074b 9C       		.byte	0x9c
 2918 074c 7E070000 		.4byte	0x77e
 2919 0750 1C       		.uleb128 0x1c
 2920 0751 ED690000 		.4byte	.LASF988
 2921 0755 01       		.byte	0x1
 2922 0756 0601     		.2byte	0x106
 2923 0758 9B000000 		.4byte	0x9b
 2924 075c 02       		.uleb128 0x2
 2925 075d 91       		.byte	0x91
 2926 075e 77       		.sleb128 -9
 2927 075f 1C       		.uleb128 0x1c
 2928 0760 2C410000 		.4byte	.LASF992
 2929 0764 01       		.byte	0x1
 2930 0765 0601     		.2byte	0x106
 2931 0767 BC000000 		.4byte	0xbc
 2932 076b 02       		.uleb128 0x2
 2933 076c 91       		.byte	0x91
 2934 076d 70       		.sleb128 -16
 2935 076e 1C       		.uleb128 0x1c
 2936 076f C9750000 		.4byte	.LASF997
 2937 0773 01       		.byte	0x1
 2938 0774 0601     		.2byte	0x106
 2939 0776 9B000000 		.4byte	0x9b
 2940 077a 02       		.uleb128 0x2
 2941 077b 91       		.byte	0x91
 2942 077c 76       		.sleb128 -10
 2943 077d 00       		.byte	0
 2944 077e 1D       		.uleb128 0x1d
 2945 077f 27020000 		.4byte	.LASF999
 2946 0783 01       		.byte	0x1
 2947 0784 2201     		.2byte	0x122
 2948 0786 53040000 		.4byte	0x453
 2949 078a 00000000 		.4byte	.LFB63
 2950 078e A4000000 		.4byte	.LFE63-.LFB63
 2951 0792 01       		.uleb128 0x1
 2952 0793 9C       		.byte	0x9c
 2953 0794 C6070000 		.4byte	0x7c6
 2954 0798 1C       		.uleb128 0x1c
 2955 0799 ED690000 		.4byte	.LASF988
 2956 079d 01       		.byte	0x1
 2957 079e 2201     		.2byte	0x122
 2958 07a0 9B000000 		.4byte	0x9b
 2959 07a4 02       		.uleb128 0x2
 2960 07a5 91       		.byte	0x91
 2961 07a6 77       		.sleb128 -9
 2962 07a7 1C       		.uleb128 0x1c
 2963 07a8 A36C0000 		.4byte	.LASF1000
 2964 07ac 01       		.byte	0x1
 2965 07ad 2201     		.2byte	0x122
 2966 07af BC000000 		.4byte	0xbc
 2967 07b3 02       		.uleb128 0x2
 2968 07b4 91       		.byte	0x91
ARM GAS  C:\Users\COSMIN~1.MAR\AppData\Local\Temp\ccJVXHYk.s 			page 66


 2969 07b5 70       		.sleb128 -16
 2970 07b6 1C       		.uleb128 0x1c
 2971 07b7 C9750000 		.4byte	.LASF997
 2972 07bb 01       		.byte	0x1
 2973 07bc 2201     		.2byte	0x122
 2974 07be 9B000000 		.4byte	0x9b
 2975 07c2 02       		.uleb128 0x2
 2976 07c3 91       		.byte	0x91
 2977 07c4 76       		.sleb128 -10
 2978 07c5 00       		.byte	0
 2979 07c6 1B       		.uleb128 0x1b
 2980 07c7 F0000000 		.4byte	.LASF1001
 2981 07cb 01       		.byte	0x1
 2982 07cc 3701     		.2byte	0x137
 2983 07ce 00000000 		.4byte	.LFB64
 2984 07d2 38000000 		.4byte	.LFE64-.LFB64
 2985 07d6 01       		.uleb128 0x1
 2986 07d7 9C       		.byte	0x9c
 2987 07d8 FB070000 		.4byte	0x7fb
 2988 07dc 1C       		.uleb128 0x1c
 2989 07dd ED690000 		.4byte	.LASF988
 2990 07e1 01       		.byte	0x1
 2991 07e2 3701     		.2byte	0x137
 2992 07e4 9B000000 		.4byte	0x9b
 2993 07e8 02       		.uleb128 0x2
 2994 07e9 91       		.byte	0x91
 2995 07ea 77       		.sleb128 -9
 2996 07eb 1C       		.uleb128 0x1c
 2997 07ec 2C410000 		.4byte	.LASF992
 2998 07f0 01       		.byte	0x1
 2999 07f1 3701     		.2byte	0x137
 3000 07f3 BC000000 		.4byte	0xbc
 3001 07f7 02       		.uleb128 0x2
 3002 07f8 91       		.byte	0x91
 3003 07f9 70       		.sleb128 -16
 3004 07fa 00       		.byte	0
 3005 07fb 1E       		.uleb128 0x1e
 3006 07fc 82340000 		.4byte	.LASF1002
 3007 0800 01       		.byte	0x1
 3008 0801 4801     		.2byte	0x148
 3009 0803 00000000 		.4byte	.LFB65
 3010 0807 24000000 		.4byte	.LFE65-.LFB65
 3011 080b 01       		.uleb128 0x1
 3012 080c 9C       		.byte	0x9c
 3013 080d 3F080000 		.4byte	0x83f
 3014 0811 1C       		.uleb128 0x1c
 3015 0812 ED690000 		.4byte	.LASF988
 3016 0816 01       		.byte	0x1
 3017 0817 4801     		.2byte	0x148
 3018 0819 9B000000 		.4byte	0x9b
 3019 081d 02       		.uleb128 0x2
 3020 081e 91       		.byte	0x91
 3021 081f 77       		.sleb128 -9
 3022 0820 1C       		.uleb128 0x1c
 3023 0821 2C410000 		.4byte	.LASF992
 3024 0825 01       		.byte	0x1
 3025 0826 4801     		.2byte	0x148
ARM GAS  C:\Users\COSMIN~1.MAR\AppData\Local\Temp\ccJVXHYk.s 			page 67


 3026 0828 BC000000 		.4byte	0xbc
 3027 082c 02       		.uleb128 0x2
 3028 082d 91       		.byte	0x91
 3029 082e 70       		.sleb128 -16
 3030 082f 1F       		.uleb128 0x1f
 3031 0830 64697200 		.ascii	"dir\000"
 3032 0834 01       		.byte	0x1
 3033 0835 4801     		.2byte	0x148
 3034 0837 9B000000 		.4byte	0x9b
 3035 083b 02       		.uleb128 0x2
 3036 083c 91       		.byte	0x91
 3037 083d 76       		.sleb128 -10
 3038 083e 00       		.byte	0
 3039 083f 1E       		.uleb128 0x1e
 3040 0840 F6130000 		.4byte	.LASF1003
 3041 0844 01       		.byte	0x1
 3042 0845 5001     		.2byte	0x150
 3043 0847 00000000 		.4byte	.LFB66
 3044 084b 1C000000 		.4byte	.LFE66-.LFB66
 3045 084f 01       		.uleb128 0x1
 3046 0850 9C       		.byte	0x9c
 3047 0851 74080000 		.4byte	0x874
 3048 0855 1C       		.uleb128 0x1c
 3049 0856 ED690000 		.4byte	.LASF988
 3050 085a 01       		.byte	0x1
 3051 085b 5001     		.2byte	0x150
 3052 085d 9B000000 		.4byte	0x9b
 3053 0861 02       		.uleb128 0x2
 3054 0862 91       		.byte	0x91
 3055 0863 77       		.sleb128 -9
 3056 0864 1C       		.uleb128 0x1c
 3057 0865 2C410000 		.4byte	.LASF992
 3058 0869 01       		.byte	0x1
 3059 086a 5001     		.2byte	0x150
 3060 086c BC000000 		.4byte	0xbc
 3061 0870 02       		.uleb128 0x2
 3062 0871 91       		.byte	0x91
 3063 0872 70       		.sleb128 -16
 3064 0873 00       		.byte	0
 3065 0874 1E       		.uleb128 0x1e
 3066 0875 73340000 		.4byte	.LASF1004
 3067 0879 01       		.byte	0x1
 3068 087a 5801     		.2byte	0x158
 3069 087c 00000000 		.4byte	.LFB67
 3070 0880 1C000000 		.4byte	.LFE67-.LFB67
 3071 0884 01       		.uleb128 0x1
 3072 0885 9C       		.byte	0x9c
 3073 0886 A9080000 		.4byte	0x8a9
 3074 088a 1C       		.uleb128 0x1c
 3075 088b ED690000 		.4byte	.LASF988
 3076 088f 01       		.byte	0x1
 3077 0890 5801     		.2byte	0x158
 3078 0892 9B000000 		.4byte	0x9b
 3079 0896 02       		.uleb128 0x2
 3080 0897 91       		.byte	0x91
 3081 0898 77       		.sleb128 -9
 3082 0899 1C       		.uleb128 0x1c
ARM GAS  C:\Users\COSMIN~1.MAR\AppData\Local\Temp\ccJVXHYk.s 			page 68


 3083 089a 2C410000 		.4byte	.LASF992
 3084 089e 01       		.byte	0x1
 3085 089f 5801     		.2byte	0x158
 3086 08a1 BC000000 		.4byte	0xbc
 3087 08a5 02       		.uleb128 0x2
 3088 08a6 91       		.byte	0x91
 3089 08a7 70       		.sleb128 -16
 3090 08a8 00       		.byte	0
 3091 08a9 20       		.uleb128 0x20
 3092 08aa 22160000 		.4byte	.LASF1005
 3093 08ae 01       		.byte	0x1
 3094 08af 6001     		.2byte	0x160
 3095 08b1 BC000000 		.4byte	0xbc
 3096 08b5 00000000 		.4byte	.LFB68
 3097 08b9 1C000000 		.4byte	.LFE68-.LFB68
 3098 08bd 01       		.uleb128 0x1
 3099 08be 9C       		.byte	0x9c
 3100 08bf D3080000 		.4byte	0x8d3
 3101 08c3 1C       		.uleb128 0x1c
 3102 08c4 ED690000 		.4byte	.LASF988
 3103 08c8 01       		.byte	0x1
 3104 08c9 6001     		.2byte	0x160
 3105 08cb 9B000000 		.4byte	0x9b
 3106 08cf 02       		.uleb128 0x2
 3107 08d0 91       		.byte	0x91
 3108 08d1 77       		.sleb128 -9
 3109 08d2 00       		.byte	0
 3110 08d3 1E       		.uleb128 0x1e
 3111 08d4 D03F0000 		.4byte	.LASF1006
 3112 08d8 01       		.byte	0x1
 3113 08d9 6801     		.2byte	0x168
 3114 08db 00000000 		.4byte	.LFB69
 3115 08df 24000000 		.4byte	.LFE69-.LFB69
 3116 08e3 01       		.uleb128 0x1
 3117 08e4 9C       		.byte	0x9c
 3118 08e5 17090000 		.4byte	0x917
 3119 08e9 1C       		.uleb128 0x1c
 3120 08ea ED690000 		.4byte	.LASF988
 3121 08ee 01       		.byte	0x1
 3122 08ef 6801     		.2byte	0x168
 3123 08f1 9B000000 		.4byte	0x9b
 3124 08f5 02       		.uleb128 0x2
 3125 08f6 91       		.byte	0x91
 3126 08f7 77       		.sleb128 -9
 3127 08f8 1C       		.uleb128 0x1c
 3128 08f9 2C410000 		.4byte	.LASF992
 3129 08fd 01       		.byte	0x1
 3130 08fe 6801     		.2byte	0x168
 3131 0900 BC000000 		.4byte	0xbc
 3132 0904 02       		.uleb128 0x2
 3133 0905 91       		.byte	0x91
 3134 0906 70       		.sleb128 -16
 3135 0907 1C       		.uleb128 0x1c
 3136 0908 C9750000 		.4byte	.LASF997
 3137 090c 01       		.byte	0x1
 3138 090d 6801     		.2byte	0x168
 3139 090f 9B000000 		.4byte	0x9b
ARM GAS  C:\Users\COSMIN~1.MAR\AppData\Local\Temp\ccJVXHYk.s 			page 69


 3140 0913 02       		.uleb128 0x2
 3141 0914 91       		.byte	0x91
 3142 0915 76       		.sleb128 -10
 3143 0916 00       		.byte	0
 3144 0917 20       		.uleb128 0x20
 3145 0918 9B720000 		.4byte	.LASF1007
 3146 091c 01       		.byte	0x1
 3147 091d 7001     		.2byte	0x170
 3148 091f 53040000 		.4byte	0x453
 3149 0923 00000000 		.4byte	.LFB70
 3150 0927 28000000 		.4byte	.LFE70-.LFB70
 3151 092b 01       		.uleb128 0x1
 3152 092c 9C       		.byte	0x9c
 3153 092d 5F090000 		.4byte	0x95f
 3154 0931 1C       		.uleb128 0x1c
 3155 0932 ED690000 		.4byte	.LASF988
 3156 0936 01       		.byte	0x1
 3157 0937 7001     		.2byte	0x170
 3158 0939 9B000000 		.4byte	0x9b
 3159 093d 02       		.uleb128 0x2
 3160 093e 91       		.byte	0x91
 3161 093f 77       		.sleb128 -9
 3162 0940 1C       		.uleb128 0x1c
 3163 0941 A36C0000 		.4byte	.LASF1000
 3164 0945 01       		.byte	0x1
 3165 0946 7001     		.2byte	0x170
 3166 0948 BC000000 		.4byte	0xbc
 3167 094c 02       		.uleb128 0x2
 3168 094d 91       		.byte	0x91
 3169 094e 70       		.sleb128 -16
 3170 094f 1C       		.uleb128 0x1c
 3171 0950 C9750000 		.4byte	.LASF997
 3172 0954 01       		.byte	0x1
 3173 0955 7001     		.2byte	0x170
 3174 0957 9B000000 		.4byte	0x9b
 3175 095b 02       		.uleb128 0x2
 3176 095c 91       		.byte	0x91
 3177 095d 76       		.sleb128 -10
 3178 095e 00       		.byte	0
 3179 095f 1E       		.uleb128 0x1e
 3180 0960 B8000000 		.4byte	.LASF1008
 3181 0964 01       		.byte	0x1
 3182 0965 7801     		.2byte	0x178
 3183 0967 00000000 		.4byte	.LFB71
 3184 096b 1C000000 		.4byte	.LFE71-.LFB71
 3185 096f 01       		.uleb128 0x1
 3186 0970 9C       		.byte	0x9c
 3187 0971 94090000 		.4byte	0x994
 3188 0975 1C       		.uleb128 0x1c
 3189 0976 ED690000 		.4byte	.LASF988
 3190 097a 01       		.byte	0x1
 3191 097b 7801     		.2byte	0x178
 3192 097d 9B000000 		.4byte	0x9b
 3193 0981 02       		.uleb128 0x2
 3194 0982 91       		.byte	0x91
 3195 0983 77       		.sleb128 -9
 3196 0984 1C       		.uleb128 0x1c
ARM GAS  C:\Users\COSMIN~1.MAR\AppData\Local\Temp\ccJVXHYk.s 			page 70


 3197 0985 2C410000 		.4byte	.LASF992
 3198 0989 01       		.byte	0x1
 3199 098a 7801     		.2byte	0x178
 3200 098c BC000000 		.4byte	0xbc
 3201 0990 02       		.uleb128 0x2
 3202 0991 91       		.byte	0x91
 3203 0992 70       		.sleb128 -16
 3204 0993 00       		.byte	0
 3205 0994 1E       		.uleb128 0x1e
 3206 0995 C94C0000 		.4byte	.LASF1009
 3207 0999 01       		.byte	0x1
 3208 099a 8E01     		.2byte	0x18e
 3209 099c 00000000 		.4byte	.LFB72
 3210 09a0 48000000 		.4byte	.LFE72-.LFB72
 3211 09a4 01       		.uleb128 0x1
 3212 09a5 9C       		.byte	0x9c
 3213 09a6 E7090000 		.4byte	0x9e7
 3214 09aa 1C       		.uleb128 0x1c
 3215 09ab ED690000 		.4byte	.LASF988
 3216 09af 01       		.byte	0x1
 3217 09b0 8E01     		.2byte	0x18e
 3218 09b2 9B000000 		.4byte	0x9b
 3219 09b6 02       		.uleb128 0x2
 3220 09b7 91       		.byte	0x91
 3221 09b8 6F       		.sleb128 -17
 3222 09b9 1C       		.uleb128 0x1c
 3223 09ba 2C410000 		.4byte	.LASF992
 3224 09be 01       		.byte	0x1
 3225 09bf 8E01     		.2byte	0x18e
 3226 09c1 BC000000 		.4byte	0xbc
 3227 09c5 02       		.uleb128 0x2
 3228 09c6 91       		.byte	0x91
 3229 09c7 68       		.sleb128 -24
 3230 09c8 1C       		.uleb128 0x1c
 3231 09c9 9E250000 		.4byte	.LASF1010
 3232 09cd 01       		.byte	0x1
 3233 09ce 8E01     		.2byte	0x18e
 3234 09d0 9B000000 		.4byte	0x9b
 3235 09d4 02       		.uleb128 0x2
 3236 09d5 91       		.byte	0x91
 3237 09d6 6E       		.sleb128 -18
 3238 09d7 21       		.uleb128 0x21
 3239 09d8 B1180000 		.4byte	.LASF990
 3240 09dc 01       		.byte	0x1
 3241 09dd 9001     		.2byte	0x190
 3242 09df B8050000 		.4byte	0x5b8
 3243 09e3 02       		.uleb128 0x2
 3244 09e4 91       		.byte	0x91
 3245 09e5 74       		.sleb128 -12
 3246 09e6 00       		.byte	0
 3247 09e7 1E       		.uleb128 0x1e
 3248 09e8 86080000 		.4byte	.LASF1011
 3249 09ec 01       		.byte	0x1
 3250 09ed AE01     		.2byte	0x1ae
 3251 09ef 00000000 		.4byte	.LFB73
 3252 09f3 9C000000 		.4byte	.LFE73-.LFB73
 3253 09f7 01       		.uleb128 0x1
ARM GAS  C:\Users\COSMIN~1.MAR\AppData\Local\Temp\ccJVXHYk.s 			page 71


 3254 09f8 9C       		.byte	0x9c
 3255 09f9 490A0000 		.4byte	0xa49
 3256 09fd 1C       		.uleb128 0x1c
 3257 09fe ED690000 		.4byte	.LASF988
 3258 0a02 01       		.byte	0x1
 3259 0a03 AE01     		.2byte	0x1ae
 3260 0a05 9B000000 		.4byte	0x9b
 3261 0a09 02       		.uleb128 0x2
 3262 0a0a 91       		.byte	0x91
 3263 0a0b 67       		.sleb128 -25
 3264 0a0c 1C       		.uleb128 0x1c
 3265 0a0d F8380000 		.4byte	.LASF1012
 3266 0a11 01       		.byte	0x1
 3267 0a12 AE01     		.2byte	0x1ae
 3268 0a14 9B000000 		.4byte	0x9b
 3269 0a18 02       		.uleb128 0x2
 3270 0a19 91       		.byte	0x91
 3271 0a1a 66       		.sleb128 -26
 3272 0a1b 1C       		.uleb128 0x1c
 3273 0a1c 2C410000 		.4byte	.LASF992
 3274 0a20 01       		.byte	0x1
 3275 0a21 AE01     		.2byte	0x1ae
 3276 0a23 A6000000 		.4byte	0xa6
 3277 0a27 02       		.uleb128 0x2
 3278 0a28 91       		.byte	0x91
 3279 0a29 64       		.sleb128 -28
 3280 0a2a 1F       		.uleb128 0x1f
 3281 0a2b 64697200 		.ascii	"dir\000"
 3282 0a2f 01       		.byte	0x1
 3283 0a30 AE01     		.2byte	0x1ae
 3284 0a32 9B000000 		.4byte	0x9b
 3285 0a36 02       		.uleb128 0x2
 3286 0a37 91       		.byte	0x91
 3287 0a38 63       		.sleb128 -29
 3288 0a39 21       		.uleb128 0x21
 3289 0a3a B1180000 		.4byte	.LASF990
 3290 0a3e 01       		.byte	0x1
 3291 0a3f B001     		.2byte	0x1b0
 3292 0a41 F4050000 		.4byte	0x5f4
 3293 0a45 02       		.uleb128 0x2
 3294 0a46 91       		.byte	0x91
 3295 0a47 6C       		.sleb128 -20
 3296 0a48 00       		.byte	0
 3297 0a49 1E       		.uleb128 0x1e
 3298 0a4a EA780000 		.4byte	.LASF1013
 3299 0a4e 01       		.byte	0x1
 3300 0a4f DF01     		.2byte	0x1df
 3301 0a51 00000000 		.4byte	.LFB74
 3302 0a55 9C000000 		.4byte	.LFE74-.LFB74
 3303 0a59 01       		.uleb128 0x1
 3304 0a5a 9C       		.byte	0x9c
 3305 0a5b AB0A0000 		.4byte	0xaab
 3306 0a5f 1C       		.uleb128 0x1c
 3307 0a60 ED690000 		.4byte	.LASF988
 3308 0a64 01       		.byte	0x1
 3309 0a65 DF01     		.2byte	0x1df
 3310 0a67 9B000000 		.4byte	0x9b
ARM GAS  C:\Users\COSMIN~1.MAR\AppData\Local\Temp\ccJVXHYk.s 			page 72


 3311 0a6b 02       		.uleb128 0x2
 3312 0a6c 91       		.byte	0x91
 3313 0a6d 67       		.sleb128 -25
 3314 0a6e 1C       		.uleb128 0x1c
 3315 0a6f F8380000 		.4byte	.LASF1012
 3316 0a73 01       		.byte	0x1
 3317 0a74 DF01     		.2byte	0x1df
 3318 0a76 9B000000 		.4byte	0x9b
 3319 0a7a 02       		.uleb128 0x2
 3320 0a7b 91       		.byte	0x91
 3321 0a7c 66       		.sleb128 -26
 3322 0a7d 1C       		.uleb128 0x1c
 3323 0a7e 2C410000 		.4byte	.LASF992
 3324 0a82 01       		.byte	0x1
 3325 0a83 DF01     		.2byte	0x1df
 3326 0a85 A6000000 		.4byte	0xa6
 3327 0a89 02       		.uleb128 0x2
 3328 0a8a 91       		.byte	0x91
 3329 0a8b 64       		.sleb128 -28
 3330 0a8c 1C       		.uleb128 0x1c
 3331 0a8d 9E250000 		.4byte	.LASF1010
 3332 0a91 01       		.byte	0x1
 3333 0a92 DF01     		.2byte	0x1df
 3334 0a94 9B000000 		.4byte	0x9b
 3335 0a98 02       		.uleb128 0x2
 3336 0a99 91       		.byte	0x91
 3337 0a9a 63       		.sleb128 -29
 3338 0a9b 21       		.uleb128 0x21
 3339 0a9c B1180000 		.4byte	.LASF990
 3340 0aa0 01       		.byte	0x1
 3341 0aa1 E101     		.2byte	0x1e1
 3342 0aa3 F4050000 		.4byte	0x5f4
 3343 0aa7 02       		.uleb128 0x2
 3344 0aa8 91       		.byte	0x91
 3345 0aa9 6C       		.sleb128 -20
 3346 0aaa 00       		.byte	0
 3347 0aab 1E       		.uleb128 0x1e
 3348 0aac 43520000 		.4byte	.LASF1014
 3349 0ab0 01       		.byte	0x1
 3350 0ab1 0B02     		.2byte	0x20b
 3351 0ab3 00000000 		.4byte	.LFB75
 3352 0ab7 3C000000 		.4byte	.LFE75-.LFB75
 3353 0abb 01       		.uleb128 0x1
 3354 0abc 9C       		.byte	0x9c
 3355 0abd FE0A0000 		.4byte	0xafe
 3356 0ac1 1C       		.uleb128 0x1c
 3357 0ac2 ED690000 		.4byte	.LASF988
 3358 0ac6 01       		.byte	0x1
 3359 0ac7 0B02     		.2byte	0x20b
 3360 0ac9 9B000000 		.4byte	0x9b
 3361 0acd 02       		.uleb128 0x2
 3362 0ace 91       		.byte	0x91
 3363 0acf 6F       		.sleb128 -17
 3364 0ad0 1C       		.uleb128 0x1c
 3365 0ad1 F8380000 		.4byte	.LASF1012
 3366 0ad5 01       		.byte	0x1
 3367 0ad6 0B02     		.2byte	0x20b
ARM GAS  C:\Users\COSMIN~1.MAR\AppData\Local\Temp\ccJVXHYk.s 			page 73


 3368 0ad8 9B000000 		.4byte	0x9b
 3369 0adc 02       		.uleb128 0x2
 3370 0add 91       		.byte	0x91
 3371 0ade 6E       		.sleb128 -18
 3372 0adf 1C       		.uleb128 0x1c
 3373 0ae0 2C410000 		.4byte	.LASF992
 3374 0ae4 01       		.byte	0x1
 3375 0ae5 0B02     		.2byte	0x20b
 3376 0ae7 A6000000 		.4byte	0xa6
 3377 0aeb 02       		.uleb128 0x2
 3378 0aec 91       		.byte	0x91
 3379 0aed 6C       		.sleb128 -20
 3380 0aee 21       		.uleb128 0x21
 3381 0aef B1180000 		.4byte	.LASF990
 3382 0af3 01       		.byte	0x1
 3383 0af4 0D02     		.2byte	0x20d
 3384 0af6 F4050000 		.4byte	0x5f4
 3385 0afa 02       		.uleb128 0x2
 3386 0afb 91       		.byte	0x91
 3387 0afc 74       		.sleb128 -12
 3388 0afd 00       		.byte	0
 3389 0afe 1E       		.uleb128 0x1e
 3390 0aff D9260000 		.4byte	.LASF1015
 3391 0b03 01       		.byte	0x1
 3392 0b04 2902     		.2byte	0x229
 3393 0b06 00000000 		.4byte	.LFB76
 3394 0b0a 3C000000 		.4byte	.LFE76-.LFB76
 3395 0b0e 01       		.uleb128 0x1
 3396 0b0f 9C       		.byte	0x9c
 3397 0b10 510B0000 		.4byte	0xb51
 3398 0b14 1C       		.uleb128 0x1c
 3399 0b15 ED690000 		.4byte	.LASF988
 3400 0b19 01       		.byte	0x1
 3401 0b1a 2902     		.2byte	0x229
 3402 0b1c 9B000000 		.4byte	0x9b
 3403 0b20 02       		.uleb128 0x2
 3404 0b21 91       		.byte	0x91
 3405 0b22 6F       		.sleb128 -17
 3406 0b23 1C       		.uleb128 0x1c
 3407 0b24 F8380000 		.4byte	.LASF1012
 3408 0b28 01       		.byte	0x1
 3409 0b29 2902     		.2byte	0x229
 3410 0b2b 9B000000 		.4byte	0x9b
 3411 0b2f 02       		.uleb128 0x2
 3412 0b30 91       		.byte	0x91
 3413 0b31 6E       		.sleb128 -18
 3414 0b32 1C       		.uleb128 0x1c
 3415 0b33 2C410000 		.4byte	.LASF992
 3416 0b37 01       		.byte	0x1
 3417 0b38 2902     		.2byte	0x229
 3418 0b3a A6000000 		.4byte	0xa6
 3419 0b3e 02       		.uleb128 0x2
 3420 0b3f 91       		.byte	0x91
 3421 0b40 6C       		.sleb128 -20
 3422 0b41 21       		.uleb128 0x21
 3423 0b42 B1180000 		.4byte	.LASF990
 3424 0b46 01       		.byte	0x1
ARM GAS  C:\Users\COSMIN~1.MAR\AppData\Local\Temp\ccJVXHYk.s 			page 74


 3425 0b47 2B02     		.2byte	0x22b
 3426 0b49 F4050000 		.4byte	0x5f4
 3427 0b4d 02       		.uleb128 0x2
 3428 0b4e 91       		.byte	0x91
 3429 0b4f 74       		.sleb128 -12
 3430 0b50 00       		.byte	0
 3431 0b51 20       		.uleb128 0x20
 3432 0b52 EC720000 		.4byte	.LASF1016
 3433 0b56 01       		.byte	0x1
 3434 0b57 4202     		.2byte	0x242
 3435 0b59 A6000000 		.4byte	0xa6
 3436 0b5d 00000000 		.4byte	.LFB77
 3437 0b61 40000000 		.4byte	.LFE77-.LFB77
 3438 0b65 01       		.uleb128 0x1
 3439 0b66 9C       		.byte	0x9c
 3440 0b67 990B0000 		.4byte	0xb99
 3441 0b6b 1C       		.uleb128 0x1c
 3442 0b6c ED690000 		.4byte	.LASF988
 3443 0b70 01       		.byte	0x1
 3444 0b71 4202     		.2byte	0x242
 3445 0b73 9B000000 		.4byte	0x9b
 3446 0b77 02       		.uleb128 0x2
 3447 0b78 91       		.byte	0x91
 3448 0b79 6F       		.sleb128 -17
 3449 0b7a 1C       		.uleb128 0x1c
 3450 0b7b F8380000 		.4byte	.LASF1012
 3451 0b7f 01       		.byte	0x1
 3452 0b80 4202     		.2byte	0x242
 3453 0b82 9B000000 		.4byte	0x9b
 3454 0b86 02       		.uleb128 0x2
 3455 0b87 91       		.byte	0x91
 3456 0b88 6E       		.sleb128 -18
 3457 0b89 21       		.uleb128 0x21
 3458 0b8a B1180000 		.4byte	.LASF990
 3459 0b8e 01       		.byte	0x1
 3460 0b8f 4402     		.2byte	0x244
 3461 0b91 F4050000 		.4byte	0x5f4
 3462 0b95 02       		.uleb128 0x2
 3463 0b96 91       		.byte	0x91
 3464 0b97 74       		.sleb128 -12
 3465 0b98 00       		.byte	0
 3466 0b99 1E       		.uleb128 0x1e
 3467 0b9a 39020000 		.4byte	.LASF1017
 3468 0b9e 01       		.byte	0x1
 3469 0b9f 6302     		.2byte	0x263
 3470 0ba1 00000000 		.4byte	.LFB78
 3471 0ba5 78000000 		.4byte	.LFE78-.LFB78
 3472 0ba9 01       		.uleb128 0x1
 3473 0baa 9C       		.byte	0x9c
 3474 0bab FB0B0000 		.4byte	0xbfb
 3475 0baf 1C       		.uleb128 0x1c
 3476 0bb0 ED690000 		.4byte	.LASF988
 3477 0bb4 01       		.byte	0x1
 3478 0bb5 6302     		.2byte	0x263
 3479 0bb7 9B000000 		.4byte	0x9b
 3480 0bbb 02       		.uleb128 0x2
 3481 0bbc 91       		.byte	0x91
ARM GAS  C:\Users\COSMIN~1.MAR\AppData\Local\Temp\ccJVXHYk.s 			page 75


 3482 0bbd 67       		.sleb128 -25
 3483 0bbe 1C       		.uleb128 0x1c
 3484 0bbf B0070000 		.4byte	.LASF1018
 3485 0bc3 01       		.byte	0x1
 3486 0bc4 6302     		.2byte	0x263
 3487 0bc6 9B000000 		.4byte	0x9b
 3488 0bca 02       		.uleb128 0x2
 3489 0bcb 91       		.byte	0x91
 3490 0bcc 66       		.sleb128 -26
 3491 0bcd 1C       		.uleb128 0x1c
 3492 0bce 2C410000 		.4byte	.LASF992
 3493 0bd2 01       		.byte	0x1
 3494 0bd3 6302     		.2byte	0x263
 3495 0bd5 9B000000 		.4byte	0x9b
 3496 0bd9 02       		.uleb128 0x2
 3497 0bda 91       		.byte	0x91
 3498 0bdb 65       		.sleb128 -27
 3499 0bdc 1F       		.uleb128 0x1f
 3500 0bdd 64697200 		.ascii	"dir\000"
 3501 0be1 01       		.byte	0x1
 3502 0be2 6302     		.2byte	0x263
 3503 0be4 9B000000 		.4byte	0x9b
 3504 0be8 02       		.uleb128 0x2
 3505 0be9 91       		.byte	0x91
 3506 0bea 64       		.sleb128 -28
 3507 0beb 21       		.uleb128 0x21
 3508 0bec B1180000 		.4byte	.LASF990
 3509 0bf0 01       		.byte	0x1
 3510 0bf1 6502     		.2byte	0x265
 3511 0bf3 30060000 		.4byte	0x630
 3512 0bf7 02       		.uleb128 0x2
 3513 0bf8 91       		.byte	0x91
 3514 0bf9 6C       		.sleb128 -20
 3515 0bfa 00       		.byte	0
 3516 0bfb 1E       		.uleb128 0x1e
 3517 0bfc 2B4B0000 		.4byte	.LASF1019
 3518 0c00 01       		.byte	0x1
 3519 0c01 8902     		.2byte	0x289
 3520 0c03 00000000 		.4byte	.LFB79
 3521 0c07 84000000 		.4byte	.LFE79-.LFB79
 3522 0c0b 01       		.uleb128 0x1
 3523 0c0c 9C       		.byte	0x9c
 3524 0c0d 5D0C0000 		.4byte	0xc5d
 3525 0c11 1C       		.uleb128 0x1c
 3526 0c12 ED690000 		.4byte	.LASF988
 3527 0c16 01       		.byte	0x1
 3528 0c17 8902     		.2byte	0x289
 3529 0c19 9B000000 		.4byte	0x9b
 3530 0c1d 02       		.uleb128 0x2
 3531 0c1e 91       		.byte	0x91
 3532 0c1f 67       		.sleb128 -25
 3533 0c20 1C       		.uleb128 0x1c
 3534 0c21 B0070000 		.4byte	.LASF1018
 3535 0c25 01       		.byte	0x1
 3536 0c26 8902     		.2byte	0x289
 3537 0c28 9B000000 		.4byte	0x9b
 3538 0c2c 02       		.uleb128 0x2
ARM GAS  C:\Users\COSMIN~1.MAR\AppData\Local\Temp\ccJVXHYk.s 			page 76


 3539 0c2d 91       		.byte	0x91
 3540 0c2e 66       		.sleb128 -26
 3541 0c2f 1C       		.uleb128 0x1c
 3542 0c30 2C410000 		.4byte	.LASF992
 3543 0c34 01       		.byte	0x1
 3544 0c35 8902     		.2byte	0x289
 3545 0c37 9B000000 		.4byte	0x9b
 3546 0c3b 02       		.uleb128 0x2
 3547 0c3c 91       		.byte	0x91
 3548 0c3d 65       		.sleb128 -27
 3549 0c3e 1C       		.uleb128 0x1c
 3550 0c3f 9E250000 		.4byte	.LASF1010
 3551 0c43 01       		.byte	0x1
 3552 0c44 8902     		.2byte	0x289
 3553 0c46 9B000000 		.4byte	0x9b
 3554 0c4a 02       		.uleb128 0x2
 3555 0c4b 91       		.byte	0x91
 3556 0c4c 64       		.sleb128 -28
 3557 0c4d 21       		.uleb128 0x21
 3558 0c4e B1180000 		.4byte	.LASF990
 3559 0c52 01       		.byte	0x1
 3560 0c53 8B02     		.2byte	0x28b
 3561 0c55 30060000 		.4byte	0x630
 3562 0c59 02       		.uleb128 0x2
 3563 0c5a 91       		.byte	0x91
 3564 0c5b 6C       		.sleb128 -20
 3565 0c5c 00       		.byte	0
 3566 0c5d 1E       		.uleb128 0x1e
 3567 0c5e 6A190000 		.4byte	.LASF1020
 3568 0c62 01       		.byte	0x1
 3569 0c63 AB02     		.2byte	0x2ab
 3570 0c65 00000000 		.4byte	.LFB80
 3571 0c69 38000000 		.4byte	.LFE80-.LFB80
 3572 0c6d 01       		.uleb128 0x1
 3573 0c6e 9C       		.byte	0x9c
 3574 0c6f B00C0000 		.4byte	0xcb0
 3575 0c73 1C       		.uleb128 0x1c
 3576 0c74 ED690000 		.4byte	.LASF988
 3577 0c78 01       		.byte	0x1
 3578 0c79 AB02     		.2byte	0x2ab
 3579 0c7b 9B000000 		.4byte	0x9b
 3580 0c7f 02       		.uleb128 0x2
 3581 0c80 91       		.byte	0x91
 3582 0c81 6F       		.sleb128 -17
 3583 0c82 1C       		.uleb128 0x1c
 3584 0c83 B0070000 		.4byte	.LASF1018
 3585 0c87 01       		.byte	0x1
 3586 0c88 AB02     		.2byte	0x2ab
 3587 0c8a 9B000000 		.4byte	0x9b
 3588 0c8e 02       		.uleb128 0x2
 3589 0c8f 91       		.byte	0x91
 3590 0c90 6E       		.sleb128 -18
 3591 0c91 1C       		.uleb128 0x1c
 3592 0c92 2C410000 		.4byte	.LASF992
 3593 0c96 01       		.byte	0x1
 3594 0c97 AB02     		.2byte	0x2ab
 3595 0c99 9B000000 		.4byte	0x9b
ARM GAS  C:\Users\COSMIN~1.MAR\AppData\Local\Temp\ccJVXHYk.s 			page 77


 3596 0c9d 02       		.uleb128 0x2
 3597 0c9e 91       		.byte	0x91
 3598 0c9f 6D       		.sleb128 -19
 3599 0ca0 21       		.uleb128 0x21
 3600 0ca1 B1180000 		.4byte	.LASF990
 3601 0ca5 01       		.byte	0x1
 3602 0ca6 AD02     		.2byte	0x2ad
 3603 0ca8 30060000 		.4byte	0x630
 3604 0cac 02       		.uleb128 0x2
 3605 0cad 91       		.byte	0x91
 3606 0cae 74       		.sleb128 -12
 3607 0caf 00       		.byte	0
 3608 0cb0 1E       		.uleb128 0x1e
 3609 0cb1 DB1E0000 		.4byte	.LASF1021
 3610 0cb5 01       		.byte	0x1
 3611 0cb6 C402     		.2byte	0x2c4
 3612 0cb8 00000000 		.4byte	.LFB81
 3613 0cbc 38000000 		.4byte	.LFE81-.LFB81
 3614 0cc0 01       		.uleb128 0x1
 3615 0cc1 9C       		.byte	0x9c
 3616 0cc2 030D0000 		.4byte	0xd03
 3617 0cc6 1C       		.uleb128 0x1c
 3618 0cc7 ED690000 		.4byte	.LASF988
 3619 0ccb 01       		.byte	0x1
 3620 0ccc C402     		.2byte	0x2c4
 3621 0cce 9B000000 		.4byte	0x9b
 3622 0cd2 02       		.uleb128 0x2
 3623 0cd3 91       		.byte	0x91
 3624 0cd4 6F       		.sleb128 -17
 3625 0cd5 1C       		.uleb128 0x1c
 3626 0cd6 B0070000 		.4byte	.LASF1018
 3627 0cda 01       		.byte	0x1
 3628 0cdb C402     		.2byte	0x2c4
 3629 0cdd 9B000000 		.4byte	0x9b
 3630 0ce1 02       		.uleb128 0x2
 3631 0ce2 91       		.byte	0x91
 3632 0ce3 6E       		.sleb128 -18
 3633 0ce4 1C       		.uleb128 0x1c
 3634 0ce5 2C410000 		.4byte	.LASF992
 3635 0ce9 01       		.byte	0x1
 3636 0cea C402     		.2byte	0x2c4
 3637 0cec 9B000000 		.4byte	0x9b
 3638 0cf0 02       		.uleb128 0x2
 3639 0cf1 91       		.byte	0x91
 3640 0cf2 6D       		.sleb128 -19
 3641 0cf3 21       		.uleb128 0x21
 3642 0cf4 B1180000 		.4byte	.LASF990
 3643 0cf8 01       		.byte	0x1
 3644 0cf9 C602     		.2byte	0x2c6
 3645 0cfb 30060000 		.4byte	0x630
 3646 0cff 02       		.uleb128 0x2
 3647 0d00 91       		.byte	0x91
 3648 0d01 74       		.sleb128 -12
 3649 0d02 00       		.byte	0
 3650 0d03 20       		.uleb128 0x20
 3651 0d04 F5630000 		.4byte	.LASF1022
 3652 0d08 01       		.byte	0x1
ARM GAS  C:\Users\COSMIN~1.MAR\AppData\Local\Temp\ccJVXHYk.s 			page 78


 3653 0d09 D802     		.2byte	0x2d8
 3654 0d0b 9B000000 		.4byte	0x9b
 3655 0d0f 00000000 		.4byte	.LFB82
 3656 0d13 3C000000 		.4byte	.LFE82-.LFB82
 3657 0d17 01       		.uleb128 0x1
 3658 0d18 9C       		.byte	0x9c
 3659 0d19 4B0D0000 		.4byte	0xd4b
 3660 0d1d 1C       		.uleb128 0x1c
 3661 0d1e ED690000 		.4byte	.LASF988
 3662 0d22 01       		.byte	0x1
 3663 0d23 D802     		.2byte	0x2d8
 3664 0d25 9B000000 		.4byte	0x9b
 3665 0d29 02       		.uleb128 0x2
 3666 0d2a 91       		.byte	0x91
 3667 0d2b 6F       		.sleb128 -17
 3668 0d2c 1C       		.uleb128 0x1c
 3669 0d2d B0070000 		.4byte	.LASF1018
 3670 0d31 01       		.byte	0x1
 3671 0d32 D802     		.2byte	0x2d8
 3672 0d34 9B000000 		.4byte	0x9b
 3673 0d38 02       		.uleb128 0x2
 3674 0d39 91       		.byte	0x91
 3675 0d3a 6E       		.sleb128 -18
 3676 0d3b 21       		.uleb128 0x21
 3677 0d3c B1180000 		.4byte	.LASF990
 3678 0d40 01       		.byte	0x1
 3679 0d41 DA02     		.2byte	0x2da
 3680 0d43 30060000 		.4byte	0x630
 3681 0d47 02       		.uleb128 0x2
 3682 0d48 91       		.byte	0x91
 3683 0d49 74       		.sleb128 -12
 3684 0d4a 00       		.byte	0
 3685 0d4b 22       		.uleb128 0x22
 3686 0d4c B7460000 		.4byte	.LASF1026
 3687 0d50 07       		.byte	0x7
 3688 0d51 8204     		.2byte	0x482
 3689 0d53 570D0000 		.4byte	0xd57
 3690 0d57 05       		.uleb128 0x5
 3691 0d58 B1000000 		.4byte	0xb1
 3692 0d5c 00       		.byte	0
 3693              		.section	.debug_abbrev,"",%progbits
 3694              	.Ldebug_abbrev0:
 3695 0000 01       		.uleb128 0x1
 3696 0001 11       		.uleb128 0x11
 3697 0002 01       		.byte	0x1
 3698 0003 25       		.uleb128 0x25
 3699 0004 0E       		.uleb128 0xe
 3700 0005 13       		.uleb128 0x13
 3701 0006 0B       		.uleb128 0xb
 3702 0007 03       		.uleb128 0x3
 3703 0008 0E       		.uleb128 0xe
 3704 0009 1B       		.uleb128 0x1b
 3705 000a 0E       		.uleb128 0xe
 3706 000b 55       		.uleb128 0x55
 3707 000c 17       		.uleb128 0x17
 3708 000d 11       		.uleb128 0x11
 3709 000e 01       		.uleb128 0x1
ARM GAS  C:\Users\COSMIN~1.MAR\AppData\Local\Temp\ccJVXHYk.s 			page 79


 3710 000f 10       		.uleb128 0x10
 3711 0010 17       		.uleb128 0x17
 3712 0011 9942     		.uleb128 0x2119
 3713 0013 17       		.uleb128 0x17
 3714 0014 00       		.byte	0
 3715 0015 00       		.byte	0
 3716 0016 02       		.uleb128 0x2
 3717 0017 24       		.uleb128 0x24
 3718 0018 00       		.byte	0
 3719 0019 0B       		.uleb128 0xb
 3720 001a 0B       		.uleb128 0xb
 3721 001b 3E       		.uleb128 0x3e
 3722 001c 0B       		.uleb128 0xb
 3723 001d 03       		.uleb128 0x3
 3724 001e 0E       		.uleb128 0xe
 3725 001f 00       		.byte	0
 3726 0020 00       		.byte	0
 3727 0021 03       		.uleb128 0x3
 3728 0022 16       		.uleb128 0x16
 3729 0023 00       		.byte	0
 3730 0024 03       		.uleb128 0x3
 3731 0025 0E       		.uleb128 0xe
 3732 0026 3A       		.uleb128 0x3a
 3733 0027 0B       		.uleb128 0xb
 3734 0028 3B       		.uleb128 0x3b
 3735 0029 0B       		.uleb128 0xb
 3736 002a 49       		.uleb128 0x49
 3737 002b 13       		.uleb128 0x13
 3738 002c 00       		.byte	0
 3739 002d 00       		.byte	0
 3740 002e 04       		.uleb128 0x4
 3741 002f 24       		.uleb128 0x24
 3742 0030 00       		.byte	0
 3743 0031 0B       		.uleb128 0xb
 3744 0032 0B       		.uleb128 0xb
 3745 0033 3E       		.uleb128 0x3e
 3746 0034 0B       		.uleb128 0xb
 3747 0035 03       		.uleb128 0x3
 3748 0036 08       		.uleb128 0x8
 3749 0037 00       		.byte	0
 3750 0038 00       		.byte	0
 3751 0039 05       		.uleb128 0x5
 3752 003a 35       		.uleb128 0x35
 3753 003b 00       		.byte	0
 3754 003c 49       		.uleb128 0x49
 3755 003d 13       		.uleb128 0x13
 3756 003e 00       		.byte	0
 3757 003f 00       		.byte	0
 3758 0040 06       		.uleb128 0x6
 3759 0041 26       		.uleb128 0x26
 3760 0042 00       		.byte	0
 3761 0043 49       		.uleb128 0x49
 3762 0044 13       		.uleb128 0x13
 3763 0045 00       		.byte	0
 3764 0046 00       		.byte	0
 3765 0047 07       		.uleb128 0x7
 3766 0048 13       		.uleb128 0x13
ARM GAS  C:\Users\COSMIN~1.MAR\AppData\Local\Temp\ccJVXHYk.s 			page 80


 3767 0049 01       		.byte	0x1
 3768 004a 0B       		.uleb128 0xb
 3769 004b 0B       		.uleb128 0xb
 3770 004c 3A       		.uleb128 0x3a
 3771 004d 0B       		.uleb128 0xb
 3772 004e 3B       		.uleb128 0x3b
 3773 004f 0B       		.uleb128 0xb
 3774 0050 01       		.uleb128 0x1
 3775 0051 13       		.uleb128 0x13
 3776 0052 00       		.byte	0
 3777 0053 00       		.byte	0
 3778 0054 08       		.uleb128 0x8
 3779 0055 0D       		.uleb128 0xd
 3780 0056 00       		.byte	0
 3781 0057 03       		.uleb128 0x3
 3782 0058 0E       		.uleb128 0xe
 3783 0059 3A       		.uleb128 0x3a
 3784 005a 0B       		.uleb128 0xb
 3785 005b 3B       		.uleb128 0x3b
 3786 005c 0B       		.uleb128 0xb
 3787 005d 49       		.uleb128 0x49
 3788 005e 13       		.uleb128 0x13
 3789 005f 38       		.uleb128 0x38
 3790 0060 0B       		.uleb128 0xb
 3791 0061 00       		.byte	0
 3792 0062 00       		.byte	0
 3793 0063 09       		.uleb128 0x9
 3794 0064 17       		.uleb128 0x17
 3795 0065 01       		.byte	0x1
 3796 0066 0B       		.uleb128 0xb
 3797 0067 0B       		.uleb128 0xb
 3798 0068 3A       		.uleb128 0x3a
 3799 0069 0B       		.uleb128 0xb
 3800 006a 3B       		.uleb128 0x3b
 3801 006b 0B       		.uleb128 0xb
 3802 006c 01       		.uleb128 0x1
 3803 006d 13       		.uleb128 0x13
 3804 006e 00       		.byte	0
 3805 006f 00       		.byte	0
 3806 0070 0A       		.uleb128 0xa
 3807 0071 0D       		.uleb128 0xd
 3808 0072 00       		.byte	0
 3809 0073 03       		.uleb128 0x3
 3810 0074 0E       		.uleb128 0xe
 3811 0075 3A       		.uleb128 0x3a
 3812 0076 0B       		.uleb128 0xb
 3813 0077 3B       		.uleb128 0x3b
 3814 0078 0B       		.uleb128 0xb
 3815 0079 49       		.uleb128 0x49
 3816 007a 13       		.uleb128 0x13
 3817 007b 00       		.byte	0
 3818 007c 00       		.byte	0
 3819 007d 0B       		.uleb128 0xb
 3820 007e 0D       		.uleb128 0xd
 3821 007f 00       		.byte	0
 3822 0080 49       		.uleb128 0x49
 3823 0081 13       		.uleb128 0x13
ARM GAS  C:\Users\COSMIN~1.MAR\AppData\Local\Temp\ccJVXHYk.s 			page 81


 3824 0082 00       		.byte	0
 3825 0083 00       		.byte	0
 3826 0084 0C       		.uleb128 0xc
 3827 0085 0D       		.uleb128 0xd
 3828 0086 00       		.byte	0
 3829 0087 03       		.uleb128 0x3
 3830 0088 0E       		.uleb128 0xe
 3831 0089 3A       		.uleb128 0x3a
 3832 008a 0B       		.uleb128 0xb
 3833 008b 3B       		.uleb128 0x3b
 3834 008c 05       		.uleb128 0x5
 3835 008d 49       		.uleb128 0x49
 3836 008e 13       		.uleb128 0x13
 3837 008f 38       		.uleb128 0x38
 3838 0090 0B       		.uleb128 0xb
 3839 0091 00       		.byte	0
 3840 0092 00       		.byte	0
 3841 0093 0D       		.uleb128 0xd
 3842 0094 0D       		.uleb128 0xd
 3843 0095 00       		.byte	0
 3844 0096 49       		.uleb128 0x49
 3845 0097 13       		.uleb128 0x13
 3846 0098 38       		.uleb128 0x38
 3847 0099 0B       		.uleb128 0xb
 3848 009a 00       		.byte	0
 3849 009b 00       		.byte	0
 3850 009c 0E       		.uleb128 0xe
 3851 009d 01       		.uleb128 0x1
 3852 009e 01       		.byte	0x1
 3853 009f 49       		.uleb128 0x49
 3854 00a0 13       		.uleb128 0x13
 3855 00a1 01       		.uleb128 0x1
 3856 00a2 13       		.uleb128 0x13
 3857 00a3 00       		.byte	0
 3858 00a4 00       		.byte	0
 3859 00a5 0F       		.uleb128 0xf
 3860 00a6 21       		.uleb128 0x21
 3861 00a7 00       		.byte	0
 3862 00a8 49       		.uleb128 0x49
 3863 00a9 13       		.uleb128 0x13
 3864 00aa 2F       		.uleb128 0x2f
 3865 00ab 0B       		.uleb128 0xb
 3866 00ac 00       		.byte	0
 3867 00ad 00       		.byte	0
 3868 00ae 10       		.uleb128 0x10
 3869 00af 16       		.uleb128 0x16
 3870 00b0 00       		.byte	0
 3871 00b1 03       		.uleb128 0x3
 3872 00b2 0E       		.uleb128 0xe
 3873 00b3 3A       		.uleb128 0x3a
 3874 00b4 0B       		.uleb128 0xb
 3875 00b5 3B       		.uleb128 0x3b
 3876 00b6 05       		.uleb128 0x5
 3877 00b7 49       		.uleb128 0x49
 3878 00b8 13       		.uleb128 0x13
 3879 00b9 00       		.byte	0
 3880 00ba 00       		.byte	0
ARM GAS  C:\Users\COSMIN~1.MAR\AppData\Local\Temp\ccJVXHYk.s 			page 82


 3881 00bb 11       		.uleb128 0x11
 3882 00bc 13       		.uleb128 0x13
 3883 00bd 01       		.byte	0x1
 3884 00be 0B       		.uleb128 0xb
 3885 00bf 0B       		.uleb128 0xb
 3886 00c0 3A       		.uleb128 0x3a
 3887 00c1 0B       		.uleb128 0xb
 3888 00c2 3B       		.uleb128 0x3b
 3889 00c3 05       		.uleb128 0x5
 3890 00c4 01       		.uleb128 0x1
 3891 00c5 13       		.uleb128 0x13
 3892 00c6 00       		.byte	0
 3893 00c7 00       		.byte	0
 3894 00c8 12       		.uleb128 0x12
 3895 00c9 04       		.uleb128 0x4
 3896 00ca 01       		.byte	0x1
 3897 00cb 0B       		.uleb128 0xb
 3898 00cc 0B       		.uleb128 0xb
 3899 00cd 3A       		.uleb128 0x3a
 3900 00ce 0B       		.uleb128 0xb
 3901 00cf 3B       		.uleb128 0x3b
 3902 00d0 0B       		.uleb128 0xb
 3903 00d1 01       		.uleb128 0x1
 3904 00d2 13       		.uleb128 0x13
 3905 00d3 00       		.byte	0
 3906 00d4 00       		.byte	0
 3907 00d5 13       		.uleb128 0x13
 3908 00d6 28       		.uleb128 0x28
 3909 00d7 00       		.byte	0
 3910 00d8 03       		.uleb128 0x3
 3911 00d9 0E       		.uleb128 0xe
 3912 00da 1C       		.uleb128 0x1c
 3913 00db 0D       		.uleb128 0xd
 3914 00dc 00       		.byte	0
 3915 00dd 00       		.byte	0
 3916 00de 14       		.uleb128 0x14
 3917 00df 2E       		.uleb128 0x2e
 3918 00e0 01       		.byte	0x1
 3919 00e1 03       		.uleb128 0x3
 3920 00e2 0E       		.uleb128 0xe
 3921 00e3 3A       		.uleb128 0x3a
 3922 00e4 0B       		.uleb128 0xb
 3923 00e5 3B       		.uleb128 0x3b
 3924 00e6 0B       		.uleb128 0xb
 3925 00e7 27       		.uleb128 0x27
 3926 00e8 19       		.uleb128 0x19
 3927 00e9 49       		.uleb128 0x49
 3928 00ea 13       		.uleb128 0x13
 3929 00eb 11       		.uleb128 0x11
 3930 00ec 01       		.uleb128 0x1
 3931 00ed 12       		.uleb128 0x12
 3932 00ee 06       		.uleb128 0x6
 3933 00ef 40       		.uleb128 0x40
 3934 00f0 18       		.uleb128 0x18
 3935 00f1 9742     		.uleb128 0x2117
 3936 00f3 19       		.uleb128 0x19
 3937 00f4 01       		.uleb128 0x1
ARM GAS  C:\Users\COSMIN~1.MAR\AppData\Local\Temp\ccJVXHYk.s 			page 83


 3938 00f5 13       		.uleb128 0x13
 3939 00f6 00       		.byte	0
 3940 00f7 00       		.byte	0
 3941 00f8 15       		.uleb128 0x15
 3942 00f9 05       		.uleb128 0x5
 3943 00fa 00       		.byte	0
 3944 00fb 03       		.uleb128 0x3
 3945 00fc 0E       		.uleb128 0xe
 3946 00fd 3A       		.uleb128 0x3a
 3947 00fe 0B       		.uleb128 0xb
 3948 00ff 3B       		.uleb128 0x3b
 3949 0100 0B       		.uleb128 0xb
 3950 0101 49       		.uleb128 0x49
 3951 0102 13       		.uleb128 0x13
 3952 0103 02       		.uleb128 0x2
 3953 0104 18       		.uleb128 0x18
 3954 0105 00       		.byte	0
 3955 0106 00       		.byte	0
 3956 0107 16       		.uleb128 0x16
 3957 0108 34       		.uleb128 0x34
 3958 0109 00       		.byte	0
 3959 010a 03       		.uleb128 0x3
 3960 010b 0E       		.uleb128 0xe
 3961 010c 3A       		.uleb128 0x3a
 3962 010d 0B       		.uleb128 0xb
 3963 010e 3B       		.uleb128 0x3b
 3964 010f 0B       		.uleb128 0xb
 3965 0110 49       		.uleb128 0x49
 3966 0111 13       		.uleb128 0x13
 3967 0112 02       		.uleb128 0x2
 3968 0113 18       		.uleb128 0x18
 3969 0114 00       		.byte	0
 3970 0115 00       		.byte	0
 3971 0116 17       		.uleb128 0x17
 3972 0117 0F       		.uleb128 0xf
 3973 0118 00       		.byte	0
 3974 0119 0B       		.uleb128 0xb
 3975 011a 0B       		.uleb128 0xb
 3976 011b 49       		.uleb128 0x49
 3977 011c 13       		.uleb128 0x13
 3978 011d 00       		.byte	0
 3979 011e 00       		.byte	0
 3980 011f 18       		.uleb128 0x18
 3981 0120 2E       		.uleb128 0x2e
 3982 0121 01       		.byte	0x1
 3983 0122 3F       		.uleb128 0x3f
 3984 0123 19       		.uleb128 0x19
 3985 0124 03       		.uleb128 0x3
 3986 0125 0E       		.uleb128 0xe
 3987 0126 3A       		.uleb128 0x3a
 3988 0127 0B       		.uleb128 0xb
 3989 0128 3B       		.uleb128 0x3b
 3990 0129 0B       		.uleb128 0xb
 3991 012a 27       		.uleb128 0x27
 3992 012b 19       		.uleb128 0x19
 3993 012c 11       		.uleb128 0x11
 3994 012d 01       		.uleb128 0x1
ARM GAS  C:\Users\COSMIN~1.MAR\AppData\Local\Temp\ccJVXHYk.s 			page 84


 3995 012e 12       		.uleb128 0x12
 3996 012f 06       		.uleb128 0x6
 3997 0130 40       		.uleb128 0x40
 3998 0131 18       		.uleb128 0x18
 3999 0132 9642     		.uleb128 0x2116
 4000 0134 19       		.uleb128 0x19
 4001 0135 01       		.uleb128 0x1
 4002 0136 13       		.uleb128 0x13
 4003 0137 00       		.byte	0
 4004 0138 00       		.byte	0
 4005 0139 19       		.uleb128 0x19
 4006 013a 05       		.uleb128 0x5
 4007 013b 00       		.byte	0
 4008 013c 03       		.uleb128 0x3
 4009 013d 08       		.uleb128 0x8
 4010 013e 3A       		.uleb128 0x3a
 4011 013f 0B       		.uleb128 0xb
 4012 0140 3B       		.uleb128 0x3b
 4013 0141 0B       		.uleb128 0xb
 4014 0142 49       		.uleb128 0x49
 4015 0143 13       		.uleb128 0x13
 4016 0144 02       		.uleb128 0x2
 4017 0145 18       		.uleb128 0x18
 4018 0146 00       		.byte	0
 4019 0147 00       		.byte	0
 4020 0148 1A       		.uleb128 0x1a
 4021 0149 2E       		.uleb128 0x2e
 4022 014a 01       		.byte	0x1
 4023 014b 3F       		.uleb128 0x3f
 4024 014c 19       		.uleb128 0x19
 4025 014d 03       		.uleb128 0x3
 4026 014e 0E       		.uleb128 0xe
 4027 014f 3A       		.uleb128 0x3a
 4028 0150 0B       		.uleb128 0xb
 4029 0151 3B       		.uleb128 0x3b
 4030 0152 0B       		.uleb128 0xb
 4031 0153 27       		.uleb128 0x27
 4032 0154 19       		.uleb128 0x19
 4033 0155 49       		.uleb128 0x49
 4034 0156 13       		.uleb128 0x13
 4035 0157 11       		.uleb128 0x11
 4036 0158 01       		.uleb128 0x1
 4037 0159 12       		.uleb128 0x12
 4038 015a 06       		.uleb128 0x6
 4039 015b 40       		.uleb128 0x40
 4040 015c 18       		.uleb128 0x18
 4041 015d 9642     		.uleb128 0x2116
 4042 015f 19       		.uleb128 0x19
 4043 0160 01       		.uleb128 0x1
 4044 0161 13       		.uleb128 0x13
 4045 0162 00       		.byte	0
 4046 0163 00       		.byte	0
 4047 0164 1B       		.uleb128 0x1b
 4048 0165 2E       		.uleb128 0x2e
 4049 0166 01       		.byte	0x1
 4050 0167 3F       		.uleb128 0x3f
 4051 0168 19       		.uleb128 0x19
ARM GAS  C:\Users\COSMIN~1.MAR\AppData\Local\Temp\ccJVXHYk.s 			page 85


 4052 0169 03       		.uleb128 0x3
 4053 016a 0E       		.uleb128 0xe
 4054 016b 3A       		.uleb128 0x3a
 4055 016c 0B       		.uleb128 0xb
 4056 016d 3B       		.uleb128 0x3b
 4057 016e 05       		.uleb128 0x5
 4058 016f 27       		.uleb128 0x27
 4059 0170 19       		.uleb128 0x19
 4060 0171 11       		.uleb128 0x11
 4061 0172 01       		.uleb128 0x1
 4062 0173 12       		.uleb128 0x12
 4063 0174 06       		.uleb128 0x6
 4064 0175 40       		.uleb128 0x40
 4065 0176 18       		.uleb128 0x18
 4066 0177 9742     		.uleb128 0x2117
 4067 0179 19       		.uleb128 0x19
 4068 017a 01       		.uleb128 0x1
 4069 017b 13       		.uleb128 0x13
 4070 017c 00       		.byte	0
 4071 017d 00       		.byte	0
 4072 017e 1C       		.uleb128 0x1c
 4073 017f 05       		.uleb128 0x5
 4074 0180 00       		.byte	0
 4075 0181 03       		.uleb128 0x3
 4076 0182 0E       		.uleb128 0xe
 4077 0183 3A       		.uleb128 0x3a
 4078 0184 0B       		.uleb128 0xb
 4079 0185 3B       		.uleb128 0x3b
 4080 0186 05       		.uleb128 0x5
 4081 0187 49       		.uleb128 0x49
 4082 0188 13       		.uleb128 0x13
 4083 0189 02       		.uleb128 0x2
 4084 018a 18       		.uleb128 0x18
 4085 018b 00       		.byte	0
 4086 018c 00       		.byte	0
 4087 018d 1D       		.uleb128 0x1d
 4088 018e 2E       		.uleb128 0x2e
 4089 018f 01       		.byte	0x1
 4090 0190 3F       		.uleb128 0x3f
 4091 0191 19       		.uleb128 0x19
 4092 0192 03       		.uleb128 0x3
 4093 0193 0E       		.uleb128 0xe
 4094 0194 3A       		.uleb128 0x3a
 4095 0195 0B       		.uleb128 0xb
 4096 0196 3B       		.uleb128 0x3b
 4097 0197 05       		.uleb128 0x5
 4098 0198 27       		.uleb128 0x27
 4099 0199 19       		.uleb128 0x19
 4100 019a 49       		.uleb128 0x49
 4101 019b 13       		.uleb128 0x13
 4102 019c 11       		.uleb128 0x11
 4103 019d 01       		.uleb128 0x1
 4104 019e 12       		.uleb128 0x12
 4105 019f 06       		.uleb128 0x6
 4106 01a0 40       		.uleb128 0x40
 4107 01a1 18       		.uleb128 0x18
 4108 01a2 9742     		.uleb128 0x2117
ARM GAS  C:\Users\COSMIN~1.MAR\AppData\Local\Temp\ccJVXHYk.s 			page 86


 4109 01a4 19       		.uleb128 0x19
 4110 01a5 01       		.uleb128 0x1
 4111 01a6 13       		.uleb128 0x13
 4112 01a7 00       		.byte	0
 4113 01a8 00       		.byte	0
 4114 01a9 1E       		.uleb128 0x1e
 4115 01aa 2E       		.uleb128 0x2e
 4116 01ab 01       		.byte	0x1
 4117 01ac 3F       		.uleb128 0x3f
 4118 01ad 19       		.uleb128 0x19
 4119 01ae 03       		.uleb128 0x3
 4120 01af 0E       		.uleb128 0xe
 4121 01b0 3A       		.uleb128 0x3a
 4122 01b1 0B       		.uleb128 0xb
 4123 01b2 3B       		.uleb128 0x3b
 4124 01b3 05       		.uleb128 0x5
 4125 01b4 27       		.uleb128 0x27
 4126 01b5 19       		.uleb128 0x19
 4127 01b6 11       		.uleb128 0x11
 4128 01b7 01       		.uleb128 0x1
 4129 01b8 12       		.uleb128 0x12
 4130 01b9 06       		.uleb128 0x6
 4131 01ba 40       		.uleb128 0x40
 4132 01bb 18       		.uleb128 0x18
 4133 01bc 9642     		.uleb128 0x2116
 4134 01be 19       		.uleb128 0x19
 4135 01bf 01       		.uleb128 0x1
 4136 01c0 13       		.uleb128 0x13
 4137 01c1 00       		.byte	0
 4138 01c2 00       		.byte	0
 4139 01c3 1F       		.uleb128 0x1f
 4140 01c4 05       		.uleb128 0x5
 4141 01c5 00       		.byte	0
 4142 01c6 03       		.uleb128 0x3
 4143 01c7 08       		.uleb128 0x8
 4144 01c8 3A       		.uleb128 0x3a
 4145 01c9 0B       		.uleb128 0xb
 4146 01ca 3B       		.uleb128 0x3b
 4147 01cb 05       		.uleb128 0x5
 4148 01cc 49       		.uleb128 0x49
 4149 01cd 13       		.uleb128 0x13
 4150 01ce 02       		.uleb128 0x2
 4151 01cf 18       		.uleb128 0x18
 4152 01d0 00       		.byte	0
 4153 01d1 00       		.byte	0
 4154 01d2 20       		.uleb128 0x20
 4155 01d3 2E       		.uleb128 0x2e
 4156 01d4 01       		.byte	0x1
 4157 01d5 3F       		.uleb128 0x3f
 4158 01d6 19       		.uleb128 0x19
 4159 01d7 03       		.uleb128 0x3
 4160 01d8 0E       		.uleb128 0xe
 4161 01d9 3A       		.uleb128 0x3a
 4162 01da 0B       		.uleb128 0xb
 4163 01db 3B       		.uleb128 0x3b
 4164 01dc 05       		.uleb128 0x5
 4165 01dd 27       		.uleb128 0x27
ARM GAS  C:\Users\COSMIN~1.MAR\AppData\Local\Temp\ccJVXHYk.s 			page 87


 4166 01de 19       		.uleb128 0x19
 4167 01df 49       		.uleb128 0x49
 4168 01e0 13       		.uleb128 0x13
 4169 01e1 11       		.uleb128 0x11
 4170 01e2 01       		.uleb128 0x1
 4171 01e3 12       		.uleb128 0x12
 4172 01e4 06       		.uleb128 0x6
 4173 01e5 40       		.uleb128 0x40
 4174 01e6 18       		.uleb128 0x18
 4175 01e7 9642     		.uleb128 0x2116
 4176 01e9 19       		.uleb128 0x19
 4177 01ea 01       		.uleb128 0x1
 4178 01eb 13       		.uleb128 0x13
 4179 01ec 00       		.byte	0
 4180 01ed 00       		.byte	0
 4181 01ee 21       		.uleb128 0x21
 4182 01ef 34       		.uleb128 0x34
 4183 01f0 00       		.byte	0
 4184 01f1 03       		.uleb128 0x3
 4185 01f2 0E       		.uleb128 0xe
 4186 01f3 3A       		.uleb128 0x3a
 4187 01f4 0B       		.uleb128 0xb
 4188 01f5 3B       		.uleb128 0x3b
 4189 01f6 05       		.uleb128 0x5
 4190 01f7 49       		.uleb128 0x49
 4191 01f8 13       		.uleb128 0x13
 4192 01f9 02       		.uleb128 0x2
 4193 01fa 18       		.uleb128 0x18
 4194 01fb 00       		.byte	0
 4195 01fc 00       		.byte	0
 4196 01fd 22       		.uleb128 0x22
 4197 01fe 34       		.uleb128 0x34
 4198 01ff 00       		.byte	0
 4199 0200 03       		.uleb128 0x3
 4200 0201 0E       		.uleb128 0xe
 4201 0202 3A       		.uleb128 0x3a
 4202 0203 0B       		.uleb128 0xb
 4203 0204 3B       		.uleb128 0x3b
 4204 0205 05       		.uleb128 0x5
 4205 0206 49       		.uleb128 0x49
 4206 0207 13       		.uleb128 0x13
 4207 0208 3F       		.uleb128 0x3f
 4208 0209 19       		.uleb128 0x19
 4209 020a 3C       		.uleb128 0x3c
 4210 020b 19       		.uleb128 0x19
 4211 020c 00       		.byte	0
 4212 020d 00       		.byte	0
 4213 020e 00       		.byte	0
 4214              		.section	.debug_aranges,"",%progbits
 4215 0000 F4000000 		.4byte	0xf4
 4216 0004 0200     		.2byte	0x2
 4217 0006 00000000 		.4byte	.Ldebug_info0
 4218 000a 04       		.byte	0x4
 4219 000b 00       		.byte	0
 4220 000c 0000     		.2byte	0
 4221 000e 0000     		.2byte	0
 4222 0010 00000000 		.4byte	.LFB55
ARM GAS  C:\Users\COSMIN~1.MAR\AppData\Local\Temp\ccJVXHYk.s 			page 88


 4223 0014 74000000 		.4byte	.LFE55-.LFB55
 4224 0018 00000000 		.4byte	.LFB56
 4225 001c 74000000 		.4byte	.LFE56-.LFB56
 4226 0020 00000000 		.4byte	.LFB57
 4227 0024 74000000 		.4byte	.LFE57-.LFB57
 4228 0028 00000000 		.4byte	.LFB58
 4229 002c 48000000 		.4byte	.LFE58-.LFB58
 4230 0030 00000000 		.4byte	.LFB59
 4231 0034 28000000 		.4byte	.LFE59-.LFB59
 4232 0038 00000000 		.4byte	.LFB60
 4233 003c 28000000 		.4byte	.LFE60-.LFB60
 4234 0040 00000000 		.4byte	.LFB61
 4235 0044 2A000000 		.4byte	.LFE61-.LFB61
 4236 0048 00000000 		.4byte	.LFB62
 4237 004c 88000000 		.4byte	.LFE62-.LFB62
 4238 0050 00000000 		.4byte	.LFB63
 4239 0054 A4000000 		.4byte	.LFE63-.LFB63
 4240 0058 00000000 		.4byte	.LFB64
 4241 005c 38000000 		.4byte	.LFE64-.LFB64
 4242 0060 00000000 		.4byte	.LFB65
 4243 0064 24000000 		.4byte	.LFE65-.LFB65
 4244 0068 00000000 		.4byte	.LFB66
 4245 006c 1C000000 		.4byte	.LFE66-.LFB66
 4246 0070 00000000 		.4byte	.LFB67
 4247 0074 1C000000 		.4byte	.LFE67-.LFB67
 4248 0078 00000000 		.4byte	.LFB68
 4249 007c 1C000000 		.4byte	.LFE68-.LFB68
 4250 0080 00000000 		.4byte	.LFB69
 4251 0084 24000000 		.4byte	.LFE69-.LFB69
 4252 0088 00000000 		.4byte	.LFB70
 4253 008c 28000000 		.4byte	.LFE70-.LFB70
 4254 0090 00000000 		.4byte	.LFB71
 4255 0094 1C000000 		.4byte	.LFE71-.LFB71
 4256 0098 00000000 		.4byte	.LFB72
 4257 009c 48000000 		.4byte	.LFE72-.LFB72
 4258 00a0 00000000 		.4byte	.LFB73
 4259 00a4 9C000000 		.4byte	.LFE73-.LFB73
 4260 00a8 00000000 		.4byte	.LFB74
 4261 00ac 9C000000 		.4byte	.LFE74-.LFB74
 4262 00b0 00000000 		.4byte	.LFB75
 4263 00b4 3C000000 		.4byte	.LFE75-.LFB75
 4264 00b8 00000000 		.4byte	.LFB76
 4265 00bc 3C000000 		.4byte	.LFE76-.LFB76
 4266 00c0 00000000 		.4byte	.LFB77
 4267 00c4 40000000 		.4byte	.LFE77-.LFB77
 4268 00c8 00000000 		.4byte	.LFB78
 4269 00cc 78000000 		.4byte	.LFE78-.LFB78
 4270 00d0 00000000 		.4byte	.LFB79
 4271 00d4 84000000 		.4byte	.LFE79-.LFB79
 4272 00d8 00000000 		.4byte	.LFB80
 4273 00dc 38000000 		.4byte	.LFE80-.LFB80
 4274 00e0 00000000 		.4byte	.LFB81
 4275 00e4 38000000 		.4byte	.LFE81-.LFB81
 4276 00e8 00000000 		.4byte	.LFB82
 4277 00ec 3C000000 		.4byte	.LFE82-.LFB82
 4278 00f0 00000000 		.4byte	0
 4279 00f4 00000000 		.4byte	0
ARM GAS  C:\Users\COSMIN~1.MAR\AppData\Local\Temp\ccJVXHYk.s 			page 89


 4280              		.section	.debug_ranges,"",%progbits
 4281              	.Ldebug_ranges0:
 4282 0000 00000000 		.4byte	.LFB55
 4283 0004 74000000 		.4byte	.LFE55
 4284 0008 00000000 		.4byte	.LFB56
 4285 000c 74000000 		.4byte	.LFE56
 4286 0010 00000000 		.4byte	.LFB57
 4287 0014 74000000 		.4byte	.LFE57
 4288 0018 00000000 		.4byte	.LFB58
 4289 001c 48000000 		.4byte	.LFE58
 4290 0020 00000000 		.4byte	.LFB59
 4291 0024 28000000 		.4byte	.LFE59
 4292 0028 00000000 		.4byte	.LFB60
 4293 002c 28000000 		.4byte	.LFE60
 4294 0030 00000000 		.4byte	.LFB61
 4295 0034 2A000000 		.4byte	.LFE61
 4296 0038 00000000 		.4byte	.LFB62
 4297 003c 88000000 		.4byte	.LFE62
 4298 0040 00000000 		.4byte	.LFB63
 4299 0044 A4000000 		.4byte	.LFE63
 4300 0048 00000000 		.4byte	.LFB64
 4301 004c 38000000 		.4byte	.LFE64
 4302 0050 00000000 		.4byte	.LFB65
 4303 0054 24000000 		.4byte	.LFE65
 4304 0058 00000000 		.4byte	.LFB66
 4305 005c 1C000000 		.4byte	.LFE66
 4306 0060 00000000 		.4byte	.LFB67
 4307 0064 1C000000 		.4byte	.LFE67
 4308 0068 00000000 		.4byte	.LFB68
 4309 006c 1C000000 		.4byte	.LFE68
 4310 0070 00000000 		.4byte	.LFB69
 4311 0074 24000000 		.4byte	.LFE69
 4312 0078 00000000 		.4byte	.LFB70
 4313 007c 28000000 		.4byte	.LFE70
 4314 0080 00000000 		.4byte	.LFB71
 4315 0084 1C000000 		.4byte	.LFE71
 4316 0088 00000000 		.4byte	.LFB72
 4317 008c 48000000 		.4byte	.LFE72
 4318 0090 00000000 		.4byte	.LFB73
 4319 0094 9C000000 		.4byte	.LFE73
 4320 0098 00000000 		.4byte	.LFB74
 4321 009c 9C000000 		.4byte	.LFE74
 4322 00a0 00000000 		.4byte	.LFB75
 4323 00a4 3C000000 		.4byte	.LFE75
 4324 00a8 00000000 		.4byte	.LFB76
 4325 00ac 3C000000 		.4byte	.LFE76
 4326 00b0 00000000 		.4byte	.LFB77
 4327 00b4 40000000 		.4byte	.LFE77
 4328 00b8 00000000 		.4byte	.LFB78
 4329 00bc 78000000 		.4byte	.LFE78
 4330 00c0 00000000 		.4byte	.LFB79
 4331 00c4 84000000 		.4byte	.LFE79
 4332 00c8 00000000 		.4byte	.LFB80
 4333 00cc 38000000 		.4byte	.LFE80
 4334 00d0 00000000 		.4byte	.LFB81
 4335 00d4 38000000 		.4byte	.LFE81
 4336 00d8 00000000 		.4byte	.LFB82
ARM GAS  C:\Users\COSMIN~1.MAR\AppData\Local\Temp\ccJVXHYk.s 			page 90


 4337 00dc 3C000000 		.4byte	.LFE82
 4338 00e0 00000000 		.4byte	0
 4339 00e4 00000000 		.4byte	0
 4340              		.section	.debug_macro,"",%progbits
 4341              	.Ldebug_macro0:
 4342 0000 0400     		.2byte	0x4
 4343 0002 02       		.byte	0x2
 4344 0003 00000000 		.4byte	.Ldebug_line0
 4345 0007 07       		.byte	0x7
 4346 0008 00000000 		.4byte	.Ldebug_macro1
 4347 000c 03       		.byte	0x3
 4348 000d 00       		.uleb128 0
 4349 000e 01       		.uleb128 0x1
 4350 000f 03       		.byte	0x3
 4351 0010 1A       		.uleb128 0x1a
 4352 0011 06       		.uleb128 0x6
 4353 0012 05       		.byte	0x5
 4354 0013 1C       		.uleb128 0x1c
 4355 0014 94330000 		.4byte	.LASF355
 4356 0018 03       		.byte	0x3
 4357 0019 1F       		.uleb128 0x1f
 4358 001a 04       		.uleb128 0x4
 4359 001b 07       		.byte	0x7
 4360 001c 00000000 		.4byte	.Ldebug_macro2
 4361 0020 03       		.byte	0x3
 4362 0021 67       		.uleb128 0x67
 4363 0022 07       		.uleb128 0x7
 4364 0023 07       		.byte	0x7
 4365 0024 00000000 		.4byte	.Ldebug_macro3
 4366              		.file 8 "c:\\gnu tools arm embedded\\4.9 2015q1\\lib\\gcc\\arm-none-eabi\\4.9.3\\include\\stdint.h
 4367 0028 03       		.byte	0x3
 4368 0029 50       		.uleb128 0x50
 4369 002a 08       		.uleb128 0x8
 4370 002b 03       		.byte	0x3
 4371 002c 09       		.uleb128 0x9
 4372 002d 03       		.uleb128 0x3
 4373 002e 05       		.byte	0x5
 4374 002f 0A       		.uleb128 0xa
 4375 0030 931E0000 		.4byte	.LASF367
 4376 0034 03       		.byte	0x3
 4377 0035 0C       		.uleb128 0xc
 4378 0036 02       		.uleb128 0x2
 4379 0037 05       		.byte	0x5
 4380 0038 06       		.uleb128 0x6
 4381 0039 0C500000 		.4byte	.LASF368
 4382              		.file 9 "c:\\gnu tools arm embedded\\4.9 2015q1\\arm-none-eabi\\include\\sys\\features.h"
 4383 003d 03       		.byte	0x3
 4384 003e 08       		.uleb128 0x8
 4385 003f 09       		.uleb128 0x9
 4386 0040 07       		.byte	0x7
 4387 0041 00000000 		.4byte	.Ldebug_macro4
 4388 0045 04       		.byte	0x4
 4389 0046 07       		.byte	0x7
 4390 0047 00000000 		.4byte	.Ldebug_macro5
 4391 004b 04       		.byte	0x4
 4392              		.file 10 "c:\\gnu tools arm embedded\\4.9 2015q1\\arm-none-eabi\\include\\sys\\_intsup.h"
 4393 004c 03       		.byte	0x3
ARM GAS  C:\Users\COSMIN~1.MAR\AppData\Local\Temp\ccJVXHYk.s 			page 91


 4394 004d 0D       		.uleb128 0xd
 4395 004e 0A       		.uleb128 0xa
 4396 004f 07       		.byte	0x7
 4397 0050 00000000 		.4byte	.Ldebug_macro6
 4398 0054 04       		.byte	0x4
 4399 0055 07       		.byte	0x7
 4400 0056 00000000 		.4byte	.Ldebug_macro7
 4401 005a 04       		.byte	0x4
 4402 005b 05       		.byte	0x5
 4403 005c 0D       		.uleb128 0xd
 4404 005d D9060000 		.4byte	.LASF461
 4405 0061 04       		.byte	0x4
 4406              		.file 11 "system/core_cmInstr.h"
 4407 0062 03       		.byte	0x3
 4408 0063 51       		.uleb128 0x51
 4409 0064 0B       		.uleb128 0xb
 4410 0065 07       		.byte	0x7
 4411 0066 00000000 		.4byte	.Ldebug_macro8
 4412 006a 04       		.byte	0x4
 4413              		.file 12 "system/core_cmFunc.h"
 4414 006b 03       		.byte	0x3
 4415 006c 52       		.uleb128 0x52
 4416 006d 0C       		.uleb128 0xc
 4417 006e 05       		.byte	0x5
 4418 006f 19       		.uleb128 0x19
 4419 0070 294F0000 		.4byte	.LASF465
 4420 0074 04       		.byte	0x4
 4421 0075 07       		.byte	0x7
 4422 0076 00000000 		.4byte	.Ldebug_macro9
 4423 007a 04       		.byte	0x4
 4424              		.file 13 "system/system_LPC17xx.h"
 4425 007b 03       		.byte	0x3
 4426 007c 68       		.uleb128 0x68
 4427 007d 0D       		.uleb128 0xd
 4428 007e 05       		.byte	0x5
 4429 007f 1B       		.uleb128 0x1b
 4430 0080 9F0A0000 		.4byte	.LASF747
 4431 0084 04       		.byte	0x4
 4432 0085 07       		.byte	0x7
 4433 0086 00000000 		.4byte	.Ldebug_macro10
 4434 008a 04       		.byte	0x4
 4435 008b 03       		.byte	0x3
 4436 008c 20       		.uleb128 0x20
 4437 008d 05       		.uleb128 0x5
 4438 008e 07       		.byte	0x7
 4439 008f 00000000 		.4byte	.Ldebug_macro11
 4440 0093 04       		.byte	0x4
 4441 0094 07       		.byte	0x7
 4442 0095 00000000 		.4byte	.Ldebug_macro12
 4443 0099 04       		.byte	0x4
 4444              		.file 14 "core/lpc17xx_libcfg_default.h"
 4445 009a 03       		.byte	0x3
 4446 009b 23       		.uleb128 0x23
 4447 009c 0E       		.uleb128 0xe
 4448 009d 07       		.byte	0x7
 4449 009e 00000000 		.4byte	.Ldebug_macro13
 4450 00a2 04       		.byte	0x4
ARM GAS  C:\Users\COSMIN~1.MAR\AppData\Local\Temp\ccJVXHYk.s 			page 92


 4451 00a3 04       		.byte	0x4
 4452 00a4 00       		.byte	0
 4453              		.section	.debug_macro,"G",%progbits,wm4.0.1834ce015d70b8127b1e5f7bc96e3d8e,comdat
 4454              	.Ldebug_macro1:
 4455 0000 0400     		.2byte	0x4
 4456 0002 00       		.byte	0
 4457 0003 05       		.byte	0x5
 4458 0004 00       		.uleb128 0
 4459 0005 BE4C0000 		.4byte	.LASF0
 4460 0009 05       		.byte	0x5
 4461 000a 00       		.uleb128 0
 4462 000b 97090000 		.4byte	.LASF1
 4463 000f 05       		.byte	0x5
 4464 0010 00       		.uleb128 0
 4465 0011 D94D0000 		.4byte	.LASF2
 4466 0015 05       		.byte	0x5
 4467 0016 00       		.uleb128 0
 4468 0017 4F610000 		.4byte	.LASF3
 4469 001b 05       		.byte	0x5
 4470 001c 00       		.uleb128 0
 4471 001d 331E0000 		.4byte	.LASF4
 4472 0021 05       		.byte	0x5
 4473 0022 00       		.uleb128 0
 4474 0023 4B360000 		.4byte	.LASF5
 4475 0027 05       		.byte	0x5
 4476 0028 00       		.uleb128 0
 4477 0029 6A690000 		.4byte	.LASF6
 4478 002d 05       		.byte	0x5
 4479 002e 00       		.uleb128 0
 4480 002f 2B200000 		.4byte	.LASF7
 4481 0033 05       		.byte	0x5
 4482 0034 00       		.uleb128 0
 4483 0035 23360000 		.4byte	.LASF8
 4484 0039 05       		.byte	0x5
 4485 003a 00       		.uleb128 0
 4486 003b D43E0000 		.4byte	.LASF9
 4487 003f 05       		.byte	0x5
 4488 0040 00       		.uleb128 0
 4489 0041 2D770000 		.4byte	.LASF10
 4490 0045 05       		.byte	0x5
 4491 0046 00       		.uleb128 0
 4492 0047 F5030000 		.4byte	.LASF11
 4493 004b 05       		.byte	0x5
 4494 004c 00       		.uleb128 0
 4495 004d A85B0000 		.4byte	.LASF12
 4496 0051 05       		.byte	0x5
 4497 0052 00       		.uleb128 0
 4498 0053 08700000 		.4byte	.LASF13
 4499 0057 05       		.byte	0x5
 4500 0058 00       		.uleb128 0
 4501 0059 7B190000 		.4byte	.LASF14
 4502 005d 05       		.byte	0x5
 4503 005e 00       		.uleb128 0
 4504 005f 15050000 		.4byte	.LASF15
 4505 0063 05       		.byte	0x5
 4506 0064 00       		.uleb128 0
 4507 0065 4B220000 		.4byte	.LASF16
ARM GAS  C:\Users\COSMIN~1.MAR\AppData\Local\Temp\ccJVXHYk.s 			page 93


 4508 0069 05       		.byte	0x5
 4509 006a 00       		.uleb128 0
 4510 006b 946A0000 		.4byte	.LASF17
 4511 006f 05       		.byte	0x5
 4512 0070 00       		.uleb128 0
 4513 0071 451A0000 		.4byte	.LASF18
 4514 0075 05       		.byte	0x5
 4515 0076 00       		.uleb128 0
 4516 0077 F5240000 		.4byte	.LASF19
 4517 007b 05       		.byte	0x5
 4518 007c 00       		.uleb128 0
 4519 007d 8A660000 		.4byte	.LASF20
 4520 0081 05       		.byte	0x5
 4521 0082 00       		.uleb128 0
 4522 0083 6D450000 		.4byte	.LASF21
 4523 0087 05       		.byte	0x5
 4524 0088 00       		.uleb128 0
 4525 0089 27500000 		.4byte	.LASF22
 4526 008d 05       		.byte	0x5
 4527 008e 00       		.uleb128 0
 4528 008f C6560000 		.4byte	.LASF23
 4529 0093 05       		.byte	0x5
 4530 0094 00       		.uleb128 0
 4531 0095 D90E0000 		.4byte	.LASF24
 4532 0099 05       		.byte	0x5
 4533 009a 00       		.uleb128 0
 4534 009b 8E060000 		.4byte	.LASF25
 4535 009f 05       		.byte	0x5
 4536 00a0 00       		.uleb128 0
 4537 00a1 49470000 		.4byte	.LASF26
 4538 00a5 05       		.byte	0x5
 4539 00a6 00       		.uleb128 0
 4540 00a7 2B270000 		.4byte	.LASF27
 4541 00ab 05       		.byte	0x5
 4542 00ac 00       		.uleb128 0
 4543 00ad D1150000 		.4byte	.LASF28
 4544 00b1 05       		.byte	0x5
 4545 00b2 00       		.uleb128 0
 4546 00b3 A8060000 		.4byte	.LASF29
 4547 00b7 05       		.byte	0x5
 4548 00b8 00       		.uleb128 0
 4549 00b9 D9570000 		.4byte	.LASF30
 4550 00bd 05       		.byte	0x5
 4551 00be 00       		.uleb128 0
 4552 00bf 82250000 		.4byte	.LASF31
 4553 00c3 05       		.byte	0x5
 4554 00c4 00       		.uleb128 0
 4555 00c5 B9480000 		.4byte	.LASF32
 4556 00c9 05       		.byte	0x5
 4557 00ca 00       		.uleb128 0
 4558 00cb 60610000 		.4byte	.LASF33
 4559 00cf 05       		.byte	0x5
 4560 00d0 00       		.uleb128 0
 4561 00d1 EC4A0000 		.4byte	.LASF34
 4562 00d5 05       		.byte	0x5
 4563 00d6 00       		.uleb128 0
 4564 00d7 155A0000 		.4byte	.LASF35
ARM GAS  C:\Users\COSMIN~1.MAR\AppData\Local\Temp\ccJVXHYk.s 			page 94


 4565 00db 05       		.byte	0x5
 4566 00dc 00       		.uleb128 0
 4567 00dd CE180000 		.4byte	.LASF36
 4568 00e1 05       		.byte	0x5
 4569 00e2 00       		.uleb128 0
 4570 00e3 8B3C0000 		.4byte	.LASF37
 4571 00e7 05       		.byte	0x5
 4572 00e8 00       		.uleb128 0
 4573 00e9 3B070000 		.4byte	.LASF38
 4574 00ed 05       		.byte	0x5
 4575 00ee 00       		.uleb128 0
 4576 00ef 99080000 		.4byte	.LASF39
 4577 00f3 05       		.byte	0x5
 4578 00f4 00       		.uleb128 0
 4579 00f5 50770000 		.4byte	.LASF40
 4580 00f9 05       		.byte	0x5
 4581 00fa 00       		.uleb128 0
 4582 00fb 3D450000 		.4byte	.LASF41
 4583 00ff 05       		.byte	0x5
 4584 0100 00       		.uleb128 0
 4585 0101 DD4C0000 		.4byte	.LASF42
 4586 0105 05       		.byte	0x5
 4587 0106 00       		.uleb128 0
 4588 0107 D2390000 		.4byte	.LASF43
 4589 010b 05       		.byte	0x5
 4590 010c 00       		.uleb128 0
 4591 010d 876E0000 		.4byte	.LASF44
 4592 0111 05       		.byte	0x5
 4593 0112 00       		.uleb128 0
 4594 0113 9E660000 		.4byte	.LASF45
 4595 0117 05       		.byte	0x5
 4596 0118 00       		.uleb128 0
 4597 0119 E6150000 		.4byte	.LASF46
 4598 011d 05       		.byte	0x5
 4599 011e 00       		.uleb128 0
 4600 011f AC720000 		.4byte	.LASF47
 4601 0123 05       		.byte	0x5
 4602 0124 00       		.uleb128 0
 4603 0125 E6550000 		.4byte	.LASF48
 4604 0129 05       		.byte	0x5
 4605 012a 00       		.uleb128 0
 4606 012b 1B100000 		.4byte	.LASF49
 4607 012f 05       		.byte	0x5
 4608 0130 00       		.uleb128 0
 4609 0131 75130000 		.4byte	.LASF50
 4610 0135 05       		.byte	0x5
 4611 0136 00       		.uleb128 0
 4612 0137 DF3B0000 		.4byte	.LASF51
 4613 013b 05       		.byte	0x5
 4614 013c 00       		.uleb128 0
 4615 013d 0A610000 		.4byte	.LASF52
 4616 0141 05       		.byte	0x5
 4617 0142 00       		.uleb128 0
 4618 0143 BA3D0000 		.4byte	.LASF53
 4619 0147 05       		.byte	0x5
 4620 0148 00       		.uleb128 0
 4621 0149 15150000 		.4byte	.LASF54
ARM GAS  C:\Users\COSMIN~1.MAR\AppData\Local\Temp\ccJVXHYk.s 			page 95


 4622 014d 05       		.byte	0x5
 4623 014e 00       		.uleb128 0
 4624 014f 07590000 		.4byte	.LASF55
 4625 0153 05       		.byte	0x5
 4626 0154 00       		.uleb128 0
 4627 0155 4D3F0000 		.4byte	.LASF56
 4628 0159 05       		.byte	0x5
 4629 015a 00       		.uleb128 0
 4630 015b 050A0000 		.4byte	.LASF57
 4631 015f 05       		.byte	0x5
 4632 0160 00       		.uleb128 0
 4633 0161 363B0000 		.4byte	.LASF58
 4634 0165 05       		.byte	0x5
 4635 0166 00       		.uleb128 0
 4636 0167 52710000 		.4byte	.LASF59
 4637 016b 05       		.byte	0x5
 4638 016c 00       		.uleb128 0
 4639 016d 0F1F0000 		.4byte	.LASF60
 4640 0171 05       		.byte	0x5
 4641 0172 00       		.uleb128 0
 4642 0173 49260000 		.4byte	.LASF61
 4643 0177 05       		.byte	0x5
 4644 0178 00       		.uleb128 0
 4645 0179 56650000 		.4byte	.LASF62
 4646 017d 05       		.byte	0x5
 4647 017e 00       		.uleb128 0
 4648 017f 84650000 		.4byte	.LASF63
 4649 0183 05       		.byte	0x5
 4650 0184 00       		.uleb128 0
 4651 0185 6C370000 		.4byte	.LASF64
 4652 0189 05       		.byte	0x5
 4653 018a 00       		.uleb128 0
 4654 018b 102B0000 		.4byte	.LASF65
 4655 018f 05       		.byte	0x5
 4656 0190 00       		.uleb128 0
 4657 0191 32260000 		.4byte	.LASF66
 4658 0195 05       		.byte	0x5
 4659 0196 00       		.uleb128 0
 4660 0197 CF0F0000 		.4byte	.LASF67
 4661 019b 05       		.byte	0x5
 4662 019c 00       		.uleb128 0
 4663 019d BF6A0000 		.4byte	.LASF68
 4664 01a1 05       		.byte	0x5
 4665 01a2 00       		.uleb128 0
 4666 01a3 603D0000 		.4byte	.LASF69
 4667 01a7 05       		.byte	0x5
 4668 01a8 00       		.uleb128 0
 4669 01a9 7C6C0000 		.4byte	.LASF70
 4670 01ad 05       		.byte	0x5
 4671 01ae 00       		.uleb128 0
 4672 01af FF010000 		.4byte	.LASF71
 4673 01b3 05       		.byte	0x5
 4674 01b4 00       		.uleb128 0
 4675 01b5 C9140000 		.4byte	.LASF72
 4676 01b9 05       		.byte	0x5
 4677 01ba 00       		.uleb128 0
 4678 01bb 4E010000 		.4byte	.LASF73
ARM GAS  C:\Users\COSMIN~1.MAR\AppData\Local\Temp\ccJVXHYk.s 			page 96


 4679 01bf 05       		.byte	0x5
 4680 01c0 00       		.uleb128 0
 4681 01c1 75430000 		.4byte	.LASF74
 4682 01c5 05       		.byte	0x5
 4683 01c6 00       		.uleb128 0
 4684 01c7 1E720000 		.4byte	.LASF75
 4685 01cb 05       		.byte	0x5
 4686 01cc 00       		.uleb128 0
 4687 01cd CE640000 		.4byte	.LASF76
 4688 01d1 05       		.byte	0x5
 4689 01d2 00       		.uleb128 0
 4690 01d3 8F5E0000 		.4byte	.LASF77
 4691 01d7 05       		.byte	0x5
 4692 01d8 00       		.uleb128 0
 4693 01d9 1C110000 		.4byte	.LASF78
 4694 01dd 05       		.byte	0x5
 4695 01de 00       		.uleb128 0
 4696 01df FF020000 		.4byte	.LASF79
 4697 01e3 05       		.byte	0x5
 4698 01e4 00       		.uleb128 0
 4699 01e5 89600000 		.4byte	.LASF80
 4700 01e9 05       		.byte	0x5
 4701 01ea 00       		.uleb128 0
 4702 01eb 7E150000 		.4byte	.LASF81
 4703 01ef 05       		.byte	0x5
 4704 01f0 00       		.uleb128 0
 4705 01f1 BB4D0000 		.4byte	.LASF82
 4706 01f5 05       		.byte	0x5
 4707 01f6 00       		.uleb128 0
 4708 01f7 D8300000 		.4byte	.LASF83
 4709 01fb 05       		.byte	0x5
 4710 01fc 00       		.uleb128 0
 4711 01fd B8170000 		.4byte	.LASF84
 4712 0201 05       		.byte	0x5
 4713 0202 00       		.uleb128 0
 4714 0203 87100000 		.4byte	.LASF85
 4715 0207 05       		.byte	0x5
 4716 0208 00       		.uleb128 0
 4717 0209 6A530000 		.4byte	.LASF86
 4718 020d 05       		.byte	0x5
 4719 020e 00       		.uleb128 0
 4720 020f CD2B0000 		.4byte	.LASF87
 4721 0213 05       		.byte	0x5
 4722 0214 00       		.uleb128 0
 4723 0215 8A780000 		.4byte	.LASF88
 4724 0219 05       		.byte	0x5
 4725 021a 00       		.uleb128 0
 4726 021b 11680000 		.4byte	.LASF89
 4727 021f 05       		.byte	0x5
 4728 0220 00       		.uleb128 0
 4729 0221 1A420000 		.4byte	.LASF90
 4730 0225 05       		.byte	0x5
 4731 0226 00       		.uleb128 0
 4732 0227 010B0000 		.4byte	.LASF91
 4733 022b 05       		.byte	0x5
 4734 022c 00       		.uleb128 0
 4735 022d C24E0000 		.4byte	.LASF92
ARM GAS  C:\Users\COSMIN~1.MAR\AppData\Local\Temp\ccJVXHYk.s 			page 97


 4736 0231 05       		.byte	0x5
 4737 0232 00       		.uleb128 0
 4738 0233 7E520000 		.4byte	.LASF93
 4739 0237 05       		.byte	0x5
 4740 0238 00       		.uleb128 0
 4741 0239 69680000 		.4byte	.LASF94
 4742 023d 05       		.byte	0x5
 4743 023e 00       		.uleb128 0
 4744 023f 5E760000 		.4byte	.LASF95
 4745 0243 05       		.byte	0x5
 4746 0244 00       		.uleb128 0
 4747 0245 7E610000 		.4byte	.LASF96
 4748 0249 05       		.byte	0x5
 4749 024a 00       		.uleb128 0
 4750 024b B50E0000 		.4byte	.LASF97
 4751 024f 05       		.byte	0x5
 4752 0250 00       		.uleb128 0
 4753 0251 EC5D0000 		.4byte	.LASF98
 4754 0255 05       		.byte	0x5
 4755 0256 00       		.uleb128 0
 4756 0257 DE660000 		.4byte	.LASF99
 4757 025b 05       		.byte	0x5
 4758 025c 00       		.uleb128 0
 4759 025d BC780000 		.4byte	.LASF100
 4760 0261 05       		.byte	0x5
 4761 0262 00       		.uleb128 0
 4762 0263 77080000 		.4byte	.LASF101
 4763 0267 05       		.byte	0x5
 4764 0268 00       		.uleb128 0
 4765 0269 CF5A0000 		.4byte	.LASF102
 4766 026d 05       		.byte	0x5
 4767 026e 00       		.uleb128 0
 4768 026f BE680000 		.4byte	.LASF103
 4769 0273 05       		.byte	0x5
 4770 0274 00       		.uleb128 0
 4771 0275 F9450000 		.4byte	.LASF104
 4772 0279 05       		.byte	0x5
 4773 027a 00       		.uleb128 0
 4774 027b 622B0000 		.4byte	.LASF105
 4775 027f 05       		.byte	0x5
 4776 0280 00       		.uleb128 0
 4777 0281 BA510000 		.4byte	.LASF106
 4778 0285 05       		.byte	0x5
 4779 0286 00       		.uleb128 0
 4780 0287 F5540000 		.4byte	.LASF107
 4781 028b 05       		.byte	0x5
 4782 028c 00       		.uleb128 0
 4783 028d FF510000 		.4byte	.LASF108
 4784 0291 05       		.byte	0x5
 4785 0292 00       		.uleb128 0
 4786 0293 0B170000 		.4byte	.LASF109
 4787 0297 05       		.byte	0x5
 4788 0298 00       		.uleb128 0
 4789 0299 FE000000 		.4byte	.LASF110
 4790 029d 05       		.byte	0x5
 4791 029e 00       		.uleb128 0
 4792 029f A5330000 		.4byte	.LASF111
ARM GAS  C:\Users\COSMIN~1.MAR\AppData\Local\Temp\ccJVXHYk.s 			page 98


 4793 02a3 05       		.byte	0x5
 4794 02a4 00       		.uleb128 0
 4795 02a5 5D210000 		.4byte	.LASF112
 4796 02a9 05       		.byte	0x5
 4797 02aa 00       		.uleb128 0
 4798 02ab E6730000 		.4byte	.LASF113
 4799 02af 05       		.byte	0x5
 4800 02b0 00       		.uleb128 0
 4801 02b1 9C780000 		.4byte	.LASF114
 4802 02b5 05       		.byte	0x5
 4803 02b6 00       		.uleb128 0
 4804 02b7 1F140000 		.4byte	.LASF115
 4805 02bb 05       		.byte	0x5
 4806 02bc 00       		.uleb128 0
 4807 02bd D54B0000 		.4byte	.LASF116
 4808 02c1 05       		.byte	0x5
 4809 02c2 00       		.uleb128 0
 4810 02c3 B24A0000 		.4byte	.LASF117
 4811 02c7 05       		.byte	0x5
 4812 02c8 00       		.uleb128 0
 4813 02c9 F71F0000 		.4byte	.LASF118
 4814 02cd 05       		.byte	0x5
 4815 02ce 00       		.uleb128 0
 4816 02cf A9110000 		.4byte	.LASF119
 4817 02d3 05       		.byte	0x5
 4818 02d4 00       		.uleb128 0
 4819 02d5 8D340000 		.4byte	.LASF120
 4820 02d9 05       		.byte	0x5
 4821 02da 00       		.uleb128 0
 4822 02db 144A0000 		.4byte	.LASF121
 4823 02df 05       		.byte	0x5
 4824 02e0 00       		.uleb128 0
 4825 02e1 25430000 		.4byte	.LASF122
 4826 02e5 05       		.byte	0x5
 4827 02e6 00       		.uleb128 0
 4828 02e7 1D3F0000 		.4byte	.LASF123
 4829 02eb 05       		.byte	0x5
 4830 02ec 00       		.uleb128 0
 4831 02ed DE4A0000 		.4byte	.LASF124
 4832 02f1 05       		.byte	0x5
 4833 02f2 00       		.uleb128 0
 4834 02f3 FD490000 		.4byte	.LASF125
 4835 02f7 05       		.byte	0x5
 4836 02f8 00       		.uleb128 0
 4837 02f9 8E1C0000 		.4byte	.LASF126
 4838 02fd 05       		.byte	0x5
 4839 02fe 00       		.uleb128 0
 4840 02ff AD250000 		.4byte	.LASF127
 4841 0303 05       		.byte	0x5
 4842 0304 00       		.uleb128 0
 4843 0305 961F0000 		.4byte	.LASF128
 4844 0309 05       		.byte	0x5
 4845 030a 00       		.uleb128 0
 4846 030b DC1C0000 		.4byte	.LASF129
 4847 030f 05       		.byte	0x5
 4848 0310 00       		.uleb128 0
 4849 0311 9D410000 		.4byte	.LASF130
ARM GAS  C:\Users\COSMIN~1.MAR\AppData\Local\Temp\ccJVXHYk.s 			page 99


 4850 0315 05       		.byte	0x5
 4851 0316 00       		.uleb128 0
 4852 0317 7C230000 		.4byte	.LASF131
 4853 031b 05       		.byte	0x5
 4854 031c 00       		.uleb128 0
 4855 031d F12B0000 		.4byte	.LASF132
 4856 0321 05       		.byte	0x5
 4857 0322 00       		.uleb128 0
 4858 0323 402A0000 		.4byte	.LASF133
 4859 0327 05       		.byte	0x5
 4860 0328 00       		.uleb128 0
 4861 0329 26070000 		.4byte	.LASF134
 4862 032d 05       		.byte	0x5
 4863 032e 00       		.uleb128 0
 4864 032f 7C380000 		.4byte	.LASF135
 4865 0333 05       		.byte	0x5
 4866 0334 00       		.uleb128 0
 4867 0335 CB1D0000 		.4byte	.LASF136
 4868 0339 05       		.byte	0x5
 4869 033a 00       		.uleb128 0
 4870 033b FE780000 		.4byte	.LASF137
 4871 033f 05       		.byte	0x5
 4872 0340 00       		.uleb128 0
 4873 0341 F0650000 		.4byte	.LASF138
 4874 0345 05       		.byte	0x5
 4875 0346 00       		.uleb128 0
 4876 0347 19530000 		.4byte	.LASF139
 4877 034b 05       		.byte	0x5
 4878 034c 00       		.uleb128 0
 4879 034d 68770000 		.4byte	.LASF140
 4880 0351 05       		.byte	0x5
 4881 0352 00       		.uleb128 0
 4882 0353 48210000 		.4byte	.LASF141
 4883 0357 05       		.byte	0x5
 4884 0358 00       		.uleb128 0
 4885 0359 2C050000 		.4byte	.LASF142
 4886 035d 05       		.byte	0x5
 4887 035e 00       		.uleb128 0
 4888 035f F56A0000 		.4byte	.LASF143
 4889 0363 05       		.byte	0x5
 4890 0364 00       		.uleb128 0
 4891 0365 02730000 		.4byte	.LASF144
 4892 0369 05       		.byte	0x5
 4893 036a 00       		.uleb128 0
 4894 036b 7F140000 		.4byte	.LASF145
 4895 036f 05       		.byte	0x5
 4896 0370 00       		.uleb128 0
 4897 0371 C00C0000 		.4byte	.LASF146
 4898 0375 05       		.byte	0x5
 4899 0376 00       		.uleb128 0
 4900 0377 7C6D0000 		.4byte	.LASF147
 4901 037b 05       		.byte	0x5
 4902 037c 00       		.uleb128 0
 4903 037d DE280000 		.4byte	.LASF148
 4904 0381 05       		.byte	0x5
 4905 0382 00       		.uleb128 0
 4906 0383 B0690000 		.4byte	.LASF149
ARM GAS  C:\Users\COSMIN~1.MAR\AppData\Local\Temp\ccJVXHYk.s 			page 100


 4907 0387 05       		.byte	0x5
 4908 0388 00       		.uleb128 0
 4909 0389 D8630000 		.4byte	.LASF150
 4910 038d 05       		.byte	0x5
 4911 038e 00       		.uleb128 0
 4912 038f 03080000 		.4byte	.LASF151
 4913 0393 05       		.byte	0x5
 4914 0394 00       		.uleb128 0
 4915 0395 0E720000 		.4byte	.LASF152
 4916 0399 05       		.byte	0x5
 4917 039a 00       		.uleb128 0
 4918 039b EA070000 		.4byte	.LASF153
 4919 039f 05       		.byte	0x5
 4920 03a0 00       		.uleb128 0
 4921 03a1 244E0000 		.4byte	.LASF154
 4922 03a5 05       		.byte	0x5
 4923 03a6 00       		.uleb128 0
 4924 03a7 9B280000 		.4byte	.LASF155
 4925 03ab 05       		.byte	0x5
 4926 03ac 00       		.uleb128 0
 4927 03ad 2B490000 		.4byte	.LASF156
 4928 03b1 05       		.byte	0x5
 4929 03b2 00       		.uleb128 0
 4930 03b3 96000000 		.4byte	.LASF157
 4931 03b7 05       		.byte	0x5
 4932 03b8 00       		.uleb128 0
 4933 03b9 BE420000 		.4byte	.LASF158
 4934 03bd 05       		.byte	0x5
 4935 03be 00       		.uleb128 0
 4936 03bf A7670000 		.4byte	.LASF159
 4937 03c3 05       		.byte	0x5
 4938 03c4 00       		.uleb128 0
 4939 03c5 443E0000 		.4byte	.LASF160
 4940 03c9 05       		.byte	0x5
 4941 03ca 00       		.uleb128 0
 4942 03cb 2E400000 		.4byte	.LASF161
 4943 03cf 05       		.byte	0x5
 4944 03d0 00       		.uleb128 0
 4945 03d1 BA540000 		.4byte	.LASF162
 4946 03d5 05       		.byte	0x5
 4947 03d6 00       		.uleb128 0
 4948 03d7 B22F0000 		.4byte	.LASF163
 4949 03db 05       		.byte	0x5
 4950 03dc 00       		.uleb128 0
 4951 03dd 59120000 		.4byte	.LASF164
 4952 03e1 05       		.byte	0x5
 4953 03e2 00       		.uleb128 0
 4954 03e3 E84F0000 		.4byte	.LASF165
 4955 03e7 05       		.byte	0x5
 4956 03e8 00       		.uleb128 0
 4957 03e9 AC270000 		.4byte	.LASF166
 4958 03ed 05       		.byte	0x5
 4959 03ee 00       		.uleb128 0
 4960 03ef 3B3A0000 		.4byte	.LASF167
 4961 03f3 05       		.byte	0x5
 4962 03f4 00       		.uleb128 0
 4963 03f5 1D060000 		.4byte	.LASF168
ARM GAS  C:\Users\COSMIN~1.MAR\AppData\Local\Temp\ccJVXHYk.s 			page 101


 4964 03f9 05       		.byte	0x5
 4965 03fa 00       		.uleb128 0
 4966 03fb C1110000 		.4byte	.LASF169
 4967 03ff 05       		.byte	0x5
 4968 0400 00       		.uleb128 0
 4969 0401 E10F0000 		.4byte	.LASF170
 4970 0405 05       		.byte	0x5
 4971 0406 00       		.uleb128 0
 4972 0407 62030000 		.4byte	.LASF171
 4973 040b 05       		.byte	0x5
 4974 040c 00       		.uleb128 0
 4975 040d 32570000 		.4byte	.LASF172
 4976 0411 05       		.byte	0x5
 4977 0412 00       		.uleb128 0
 4978 0413 474C0000 		.4byte	.LASF173
 4979 0417 05       		.byte	0x5
 4980 0418 00       		.uleb128 0
 4981 0419 C3060000 		.4byte	.LASF174
 4982 041d 05       		.byte	0x5
 4983 041e 00       		.uleb128 0
 4984 041f 2E540000 		.4byte	.LASF175
 4985 0423 05       		.byte	0x5
 4986 0424 00       		.uleb128 0
 4987 0425 061C0000 		.4byte	.LASF176
 4988 0429 05       		.byte	0x5
 4989 042a 00       		.uleb128 0
 4990 042b 43050000 		.4byte	.LASF177
 4991 042f 05       		.byte	0x5
 4992 0430 00       		.uleb128 0
 4993 0431 3C330000 		.4byte	.LASF178
 4994 0435 05       		.byte	0x5
 4995 0436 00       		.uleb128 0
 4996 0437 A44D0000 		.4byte	.LASF179
 4997 043b 05       		.byte	0x5
 4998 043c 00       		.uleb128 0
 4999 043d E3140000 		.4byte	.LASF180
 5000 0441 05       		.byte	0x5
 5001 0442 00       		.uleb128 0
 5002 0443 DF1F0000 		.4byte	.LASF181
 5003 0447 05       		.byte	0x5
 5004 0448 00       		.uleb128 0
 5005 0449 C5660000 		.4byte	.LASF182
 5006 044d 05       		.byte	0x5
 5007 044e 00       		.uleb128 0
 5008 044f AB020000 		.4byte	.LASF183
 5009 0453 05       		.byte	0x5
 5010 0454 00       		.uleb128 0
 5011 0455 E73D0000 		.4byte	.LASF184
 5012 0459 05       		.byte	0x5
 5013 045a 00       		.uleb128 0
 5014 045b 8C210000 		.4byte	.LASF185
 5015 045f 05       		.byte	0x5
 5016 0460 00       		.uleb128 0
 5017 0461 AC010000 		.4byte	.LASF186
 5018 0465 05       		.byte	0x5
 5019 0466 00       		.uleb128 0
 5020 0467 DC740000 		.4byte	.LASF187
ARM GAS  C:\Users\COSMIN~1.MAR\AppData\Local\Temp\ccJVXHYk.s 			page 102


 5021 046b 05       		.byte	0x5
 5022 046c 00       		.uleb128 0
 5023 046d 34390000 		.4byte	.LASF188
 5024 0471 05       		.byte	0x5
 5025 0472 00       		.uleb128 0
 5026 0473 23760000 		.4byte	.LASF189
 5027 0477 05       		.byte	0x5
 5028 0478 00       		.uleb128 0
 5029 0479 830E0000 		.4byte	.LASF190
 5030 047d 05       		.byte	0x5
 5031 047e 00       		.uleb128 0
 5032 047f 08340000 		.4byte	.LASF191
 5033 0483 05       		.byte	0x5
 5034 0484 00       		.uleb128 0
 5035 0485 C4270000 		.4byte	.LASF192
 5036 0489 05       		.byte	0x5
 5037 048a 00       		.uleb128 0
 5038 048b 11280000 		.4byte	.LASF193
 5039 048f 05       		.byte	0x5
 5040 0490 00       		.uleb128 0
 5041 0491 030C0000 		.4byte	.LASF194
 5042 0495 05       		.byte	0x5
 5043 0496 00       		.uleb128 0
 5044 0497 6D330000 		.4byte	.LASF195
 5045 049b 05       		.byte	0x5
 5046 049c 00       		.uleb128 0
 5047 049d B91D0000 		.4byte	.LASF196
 5048 04a1 05       		.byte	0x5
 5049 04a2 00       		.uleb128 0
 5050 04a3 9C560000 		.4byte	.LASF197
 5051 04a7 05       		.byte	0x5
 5052 04a8 00       		.uleb128 0
 5053 04a9 5D050000 		.4byte	.LASF198
 5054 04ad 05       		.byte	0x5
 5055 04ae 00       		.uleb128 0
 5056 04af D0490000 		.4byte	.LASF199
 5057 04b3 05       		.byte	0x5
 5058 04b4 00       		.uleb128 0
 5059 04b5 A43B0000 		.4byte	.LASF200
 5060 04b9 05       		.byte	0x5
 5061 04ba 00       		.uleb128 0
 5062 04bb AB680000 		.4byte	.LASF201
 5063 04bf 05       		.byte	0x5
 5064 04c0 00       		.uleb128 0
 5065 04c1 58520000 		.4byte	.LASF202
 5066 04c5 05       		.byte	0x5
 5067 04c6 00       		.uleb128 0
 5068 04c7 80790000 		.4byte	.LASF203
 5069 04cb 05       		.byte	0x5
 5070 04cc 00       		.uleb128 0
 5071 04cd 4F460000 		.4byte	.LASF204
 5072 04d1 05       		.byte	0x5
 5073 04d2 00       		.uleb128 0
 5074 04d3 F5410000 		.4byte	.LASF205
 5075 04d7 05       		.byte	0x5
 5076 04d8 00       		.uleb128 0
 5077 04d9 5A450000 		.4byte	.LASF206
ARM GAS  C:\Users\COSMIN~1.MAR\AppData\Local\Temp\ccJVXHYk.s 			page 103


 5078 04dd 05       		.byte	0x5
 5079 04de 00       		.uleb128 0
 5080 04df 8C520000 		.4byte	.LASF207
 5081 04e3 05       		.byte	0x5
 5082 04e4 00       		.uleb128 0
 5083 04e5 08040000 		.4byte	.LASF208
 5084 04e9 05       		.byte	0x5
 5085 04ea 00       		.uleb128 0
 5086 04eb 391C0000 		.4byte	.LASF209
 5087 04ef 05       		.byte	0x5
 5088 04f0 00       		.uleb128 0
 5089 04f1 644E0000 		.4byte	.LASF210
 5090 04f5 05       		.byte	0x5
 5091 04f6 00       		.uleb128 0
 5092 04f7 A00D0000 		.4byte	.LASF211
 5093 04fb 05       		.byte	0x5
 5094 04fc 00       		.uleb128 0
 5095 04fd 12790000 		.4byte	.LASF212
 5096 0501 05       		.byte	0x5
 5097 0502 00       		.uleb128 0
 5098 0503 FD5C0000 		.4byte	.LASF213
 5099 0507 05       		.byte	0x5
 5100 0508 00       		.uleb128 0
 5101 0509 AC590000 		.4byte	.LASF214
 5102 050d 05       		.byte	0x5
 5103 050e 00       		.uleb128 0
 5104 050f FF650000 		.4byte	.LASF215
 5105 0513 05       		.byte	0x5
 5106 0514 00       		.uleb128 0
 5107 0515 44730000 		.4byte	.LASF216
 5108 0519 05       		.byte	0x5
 5109 051a 00       		.uleb128 0
 5110 051b 19700000 		.4byte	.LASF217
 5111 051f 05       		.byte	0x5
 5112 0520 00       		.uleb128 0
 5113 0521 1E6D0000 		.4byte	.LASF218
 5114 0525 05       		.byte	0x5
 5115 0526 00       		.uleb128 0
 5116 0527 3A640000 		.4byte	.LASF219
 5117 052b 05       		.byte	0x5
 5118 052c 00       		.uleb128 0
 5119 052d E8750000 		.4byte	.LASF220
 5120 0531 05       		.byte	0x5
 5121 0532 00       		.uleb128 0
 5122 0533 A9090000 		.4byte	.LASF221
 5123 0537 05       		.byte	0x5
 5124 0538 00       		.uleb128 0
 5125 0539 9A400000 		.4byte	.LASF222
 5126 053d 05       		.byte	0x5
 5127 053e 00       		.uleb128 0
 5128 053f D76F0000 		.4byte	.LASF223
 5129 0543 05       		.byte	0x5
 5130 0544 00       		.uleb128 0
 5131 0545 63170000 		.4byte	.LASF224
 5132 0549 05       		.byte	0x5
 5133 054a 00       		.uleb128 0
 5134 054b CF6C0000 		.4byte	.LASF225
ARM GAS  C:\Users\COSMIN~1.MAR\AppData\Local\Temp\ccJVXHYk.s 			page 104


 5135 054f 05       		.byte	0x5
 5136 0550 00       		.uleb128 0
 5137 0551 CF790000 		.4byte	.LASF226
 5138 0555 05       		.byte	0x5
 5139 0556 00       		.uleb128 0
 5140 0557 3F1F0000 		.4byte	.LASF227
 5141 055b 05       		.byte	0x5
 5142 055c 00       		.uleb128 0
 5143 055d 8A590000 		.4byte	.LASF228
 5144 0561 05       		.byte	0x5
 5145 0562 00       		.uleb128 0
 5146 0563 3B650000 		.4byte	.LASF229
 5147 0567 05       		.byte	0x5
 5148 0568 00       		.uleb128 0
 5149 0569 00710000 		.4byte	.LASF230
 5150 056d 05       		.byte	0x5
 5151 056e 00       		.uleb128 0
 5152 056f BA2E0000 		.4byte	.LASF231
 5153 0573 05       		.byte	0x5
 5154 0574 00       		.uleb128 0
 5155 0575 7B4A0000 		.4byte	.LASF232
 5156 0579 05       		.byte	0x5
 5157 057a 00       		.uleb128 0
 5158 057b 99070000 		.4byte	.LASF233
 5159 057f 05       		.byte	0x5
 5160 0580 00       		.uleb128 0
 5161 0581 00060000 		.4byte	.LASF234
 5162 0585 05       		.byte	0x5
 5163 0586 00       		.uleb128 0
 5164 0587 BA630000 		.4byte	.LASF235
 5165 058b 05       		.byte	0x5
 5166 058c 00       		.uleb128 0
 5167 058d E4130000 		.4byte	.LASF236
 5168 0591 05       		.byte	0x5
 5169 0592 00       		.uleb128 0
 5170 0593 E0670000 		.4byte	.LASF237
 5171 0597 05       		.byte	0x5
 5172 0598 00       		.uleb128 0
 5173 0599 3E040000 		.4byte	.LASF238
 5174 059d 05       		.byte	0x5
 5175 059e 00       		.uleb128 0
 5176 059f 93380000 		.4byte	.LASF239
 5177 05a3 05       		.byte	0x5
 5178 05a4 00       		.uleb128 0
 5179 05a5 D4710000 		.4byte	.LASF240
 5180 05a9 05       		.byte	0x5
 5181 05aa 00       		.uleb128 0
 5182 05ab D9410000 		.4byte	.LASF241
 5183 05af 05       		.byte	0x5
 5184 05b0 00       		.uleb128 0
 5185 05b1 03140000 		.4byte	.LASF242
 5186 05b5 05       		.byte	0x5
 5187 05b6 00       		.uleb128 0
 5188 05b7 36310000 		.4byte	.LASF243
 5189 05bb 05       		.byte	0x5
 5190 05bc 00       		.uleb128 0
 5191 05bd 42030000 		.4byte	.LASF244
ARM GAS  C:\Users\COSMIN~1.MAR\AppData\Local\Temp\ccJVXHYk.s 			page 105


 5192 05c1 05       		.byte	0x5
 5193 05c2 00       		.uleb128 0
 5194 05c3 800C0000 		.4byte	.LASF245
 5195 05c7 05       		.byte	0x5
 5196 05c8 00       		.uleb128 0
 5197 05c9 9F2F0000 		.4byte	.LASF246
 5198 05cd 05       		.byte	0x5
 5199 05ce 00       		.uleb128 0
 5200 05cf F3660000 		.4byte	.LASF247
 5201 05d3 05       		.byte	0x5
 5202 05d4 00       		.uleb128 0
 5203 05d5 3F6D0000 		.4byte	.LASF248
 5204 05d9 05       		.byte	0x5
 5205 05da 00       		.uleb128 0
 5206 05db ED590000 		.4byte	.LASF249
 5207 05df 05       		.byte	0x5
 5208 05e0 00       		.uleb128 0
 5209 05e1 8E020000 		.4byte	.LASF250
 5210 05e5 05       		.byte	0x5
 5211 05e6 00       		.uleb128 0
 5212 05e7 696B0000 		.4byte	.LASF251
 5213 05eb 05       		.byte	0x5
 5214 05ec 00       		.uleb128 0
 5215 05ed 92570000 		.4byte	.LASF252
 5216 05f1 05       		.byte	0x5
 5217 05f2 00       		.uleb128 0
 5218 05f3 7F420000 		.4byte	.LASF253
 5219 05f7 05       		.byte	0x5
 5220 05f8 00       		.uleb128 0
 5221 05f9 D35C0000 		.4byte	.LASF254
 5222 05fd 05       		.byte	0x5
 5223 05fe 00       		.uleb128 0
 5224 05ff EF710000 		.4byte	.LASF255
 5225 0603 05       		.byte	0x5
 5226 0604 00       		.uleb128 0
 5227 0605 75600000 		.4byte	.LASF256
 5228 0609 05       		.byte	0x5
 5229 060a 00       		.uleb128 0
 5230 060b 573B0000 		.4byte	.LASF257
 5231 060f 05       		.byte	0x5
 5232 0610 00       		.uleb128 0
 5233 0611 67020000 		.4byte	.LASF258
 5234 0615 05       		.byte	0x5
 5235 0616 00       		.uleb128 0
 5236 0617 1B340000 		.4byte	.LASF259
 5237 061b 05       		.byte	0x5
 5238 061c 00       		.uleb128 0
 5239 061d 895B0000 		.4byte	.LASF260
 5240 0621 05       		.byte	0x5
 5241 0622 00       		.uleb128 0
 5242 0623 5E220000 		.4byte	.LASF261
 5243 0627 05       		.byte	0x5
 5244 0628 00       		.uleb128 0
 5245 0629 BA6C0000 		.4byte	.LASF262
 5246 062d 05       		.byte	0x5
 5247 062e 00       		.uleb128 0
 5248 062f B26D0000 		.4byte	.LASF263
ARM GAS  C:\Users\COSMIN~1.MAR\AppData\Local\Temp\ccJVXHYk.s 			page 106


 5249 0633 05       		.byte	0x5
 5250 0634 00       		.uleb128 0
 5251 0635 95050000 		.4byte	.LASF264
 5252 0639 05       		.byte	0x5
 5253 063a 00       		.uleb128 0
 5254 063b CB720000 		.4byte	.LASF265
 5255 063f 05       		.byte	0x5
 5256 0640 00       		.uleb128 0
 5257 0641 956C0000 		.4byte	.LASF266
 5258 0645 05       		.byte	0x5
 5259 0646 00       		.uleb128 0
 5260 0647 C55F0000 		.4byte	.LASF267
 5261 064b 05       		.byte	0x5
 5262 064c 00       		.uleb128 0
 5263 064d 1A740000 		.4byte	.LASF268
 5264 0651 05       		.byte	0x5
 5265 0652 00       		.uleb128 0
 5266 0653 AC2E0000 		.4byte	.LASF269
 5267 0657 05       		.byte	0x5
 5268 0658 00       		.uleb128 0
 5269 0659 240F0000 		.4byte	.LASF270
 5270 065d 05       		.byte	0x5
 5271 065e 00       		.uleb128 0
 5272 065f 80060000 		.4byte	.LASF271
 5273 0663 05       		.byte	0x5
 5274 0664 00       		.uleb128 0
 5275 0665 45580000 		.4byte	.LASF272
 5276 0669 05       		.byte	0x5
 5277 066a 00       		.uleb128 0
 5278 066b 1B5D0000 		.4byte	.LASF273
 5279 066f 05       		.byte	0x5
 5280 0670 00       		.uleb128 0
 5281 0671 7C210000 		.4byte	.LASF274
 5282 0675 05       		.byte	0x5
 5283 0676 00       		.uleb128 0
 5284 0677 89030000 		.4byte	.LASF275
 5285 067b 05       		.byte	0x5
 5286 067c 00       		.uleb128 0
 5287 067d F84B0000 		.4byte	.LASF276
 5288 0681 05       		.byte	0x5
 5289 0682 00       		.uleb128 0
 5290 0683 4A420000 		.4byte	.LASF277
 5291 0687 05       		.byte	0x5
 5292 0688 00       		.uleb128 0
 5293 0689 960F0000 		.4byte	.LASF278
 5294 068d 05       		.byte	0x5
 5295 068e 00       		.uleb128 0
 5296 068f 5D580000 		.4byte	.LASF279
 5297 0693 05       		.byte	0x5
 5298 0694 00       		.uleb128 0
 5299 0695 C90E0000 		.4byte	.LASF280
 5300 0699 05       		.byte	0x5
 5301 069a 00       		.uleb128 0
 5302 069b E8600000 		.4byte	.LASF281
 5303 069f 05       		.byte	0x5
 5304 06a0 00       		.uleb128 0
 5305 06a1 D4480000 		.4byte	.LASF282
ARM GAS  C:\Users\COSMIN~1.MAR\AppData\Local\Temp\ccJVXHYk.s 			page 107


 5306 06a5 05       		.byte	0x5
 5307 06a6 00       		.uleb128 0
 5308 06a7 F96F0000 		.4byte	.LASF283
 5309 06ab 05       		.byte	0x5
 5310 06ac 00       		.uleb128 0
 5311 06ad EA5A0000 		.4byte	.LASF284
 5312 06b1 05       		.byte	0x5
 5313 06b2 00       		.uleb128 0
 5314 06b3 B45E0000 		.4byte	.LASF285
 5315 06b7 05       		.byte	0x5
 5316 06b8 00       		.uleb128 0
 5317 06b9 06270000 		.4byte	.LASF286
 5318 06bd 05       		.byte	0x5
 5319 06be 00       		.uleb128 0
 5320 06bf 33440000 		.4byte	.LASF287
 5321 06c3 05       		.byte	0x5
 5322 06c4 00       		.uleb128 0
 5323 06c5 E55E0000 		.4byte	.LASF288
 5324 06c9 05       		.byte	0x5
 5325 06ca 00       		.uleb128 0
 5326 06cb 64390000 		.4byte	.LASF289
 5327 06cf 05       		.byte	0x5
 5328 06d0 00       		.uleb128 0
 5329 06d1 FD4F0000 		.4byte	.LASF290
 5330 06d5 05       		.byte	0x5
 5331 06d6 00       		.uleb128 0
 5332 06d7 B4760000 		.4byte	.LASF291
 5333 06db 05       		.byte	0x5
 5334 06dc 00       		.uleb128 0
 5335 06dd CA2F0000 		.4byte	.LASF292
 5336 06e1 05       		.byte	0x5
 5337 06e2 00       		.uleb128 0
 5338 06e3 80010000 		.4byte	.LASF293
 5339 06e7 05       		.byte	0x5
 5340 06e8 00       		.uleb128 0
 5341 06e9 A9000000 		.4byte	.LASF294
 5342 06ed 05       		.byte	0x5
 5343 06ee 00       		.uleb128 0
 5344 06ef AB710000 		.4byte	.LASF295
 5345 06f3 05       		.byte	0x5
 5346 06f4 00       		.uleb128 0
 5347 06f5 F64D0000 		.4byte	.LASF296
 5348 06f9 05       		.byte	0x5
 5349 06fa 00       		.uleb128 0
 5350 06fb CE4A0000 		.4byte	.LASF297
 5351 06ff 05       		.byte	0x5
 5352 0700 00       		.uleb128 0
 5353 0701 4C150000 		.4byte	.LASF298
 5354 0705 05       		.byte	0x5
 5355 0706 00       		.uleb128 0
 5356 0707 CE680000 		.4byte	.LASF299
 5357 070b 05       		.byte	0x5
 5358 070c 00       		.uleb128 0
 5359 070d 7F0F0000 		.4byte	.LASF300
 5360 0711 05       		.byte	0x5
 5361 0712 00       		.uleb128 0
 5362 0713 AA6C0000 		.4byte	.LASF301
ARM GAS  C:\Users\COSMIN~1.MAR\AppData\Local\Temp\ccJVXHYk.s 			page 108


 5363 0717 05       		.byte	0x5
 5364 0718 00       		.uleb128 0
 5365 0719 DB650000 		.4byte	.LASF302
 5366 071d 05       		.byte	0x5
 5367 071e 00       		.uleb128 0
 5368 071f BD340000 		.4byte	.LASF303
 5369 0723 05       		.byte	0x5
 5370 0724 00       		.uleb128 0
 5371 0725 82440000 		.4byte	.LASF304
 5372 0729 05       		.byte	0x5
 5373 072a 00       		.uleb128 0
 5374 072b F3680000 		.4byte	.LASF305
 5375 072f 05       		.byte	0x5
 5376 0730 00       		.uleb128 0
 5377 0731 9E610000 		.4byte	.LASF306
 5378 0735 05       		.byte	0x5
 5379 0736 00       		.uleb128 0
 5380 0737 60090000 		.4byte	.LASF307
 5381 073b 05       		.byte	0x5
 5382 073c 00       		.uleb128 0
 5383 073d C1250000 		.4byte	.LASF308
 5384 0741 05       		.byte	0x5
 5385 0742 00       		.uleb128 0
 5386 0743 D0540000 		.4byte	.LASF309
 5387 0747 05       		.byte	0x5
 5388 0748 00       		.uleb128 0
 5389 0749 30160000 		.4byte	.LASF310
 5390 074d 05       		.byte	0x5
 5391 074e 00       		.uleb128 0
 5392 074f 3F4E0000 		.4byte	.LASF311
 5393 0753 05       		.byte	0x5
 5394 0754 00       		.uleb128 0
 5395 0755 A23E0000 		.4byte	.LASF312
 5396 0759 05       		.byte	0x5
 5397 075a 00       		.uleb128 0
 5398 075b 111E0000 		.4byte	.LASF313
 5399 075f 05       		.byte	0x5
 5400 0760 00       		.uleb128 0
 5401 0761 5F010000 		.4byte	.LASF314
 5402 0765 05       		.byte	0x5
 5403 0766 00       		.uleb128 0
 5404 0767 042E0000 		.4byte	.LASF315
 5405 076b 05       		.byte	0x5
 5406 076c 00       		.uleb128 0
 5407 076d B33F0000 		.4byte	.LASF316
 5408 0771 05       		.byte	0x5
 5409 0772 00       		.uleb128 0
 5410 0773 61420000 		.4byte	.LASF317
 5411 0777 05       		.byte	0x5
 5412 0778 00       		.uleb128 0
 5413 0779 58270000 		.4byte	.LASF318
 5414 077d 05       		.byte	0x5
 5415 077e 00       		.uleb128 0
 5416 077f CD2E0000 		.4byte	.LASF319
 5417 0783 05       		.byte	0x5
 5418 0784 00       		.uleb128 0
 5419 0785 D9350000 		.4byte	.LASF320
ARM GAS  C:\Users\COSMIN~1.MAR\AppData\Local\Temp\ccJVXHYk.s 			page 109


 5420 0789 05       		.byte	0x5
 5421 078a 00       		.uleb128 0
 5422 078b 04390000 		.4byte	.LASF321
 5423 078f 05       		.byte	0x5
 5424 0790 00       		.uleb128 0
 5425 0791 66250000 		.4byte	.LASF322
 5426 0795 05       		.byte	0x5
 5427 0796 00       		.uleb128 0
 5428 0797 7C450000 		.4byte	.LASF323
 5429 079b 05       		.byte	0x5
 5430 079c 00       		.uleb128 0
 5431 079d F06C0000 		.4byte	.LASF324
 5432 07a1 05       		.byte	0x5
 5433 07a2 00       		.uleb128 0
 5434 07a3 A74C0000 		.4byte	.LASF325
 5435 07a7 05       		.byte	0x5
 5436 07a8 00       		.uleb128 0
 5437 07a9 FA350000 		.4byte	.LASF326
 5438 07ad 05       		.byte	0x5
 5439 07ae 00       		.uleb128 0
 5440 07af 72400000 		.4byte	.LASF327
 5441 07b3 05       		.byte	0x5
 5442 07b4 00       		.uleb128 0
 5443 07b5 046D0000 		.4byte	.LASF328
 5444 07b9 05       		.byte	0x5
 5445 07ba 00       		.uleb128 0
 5446 07bb 6A520000 		.4byte	.LASF329
 5447 07bf 05       		.byte	0x5
 5448 07c0 00       		.uleb128 0
 5449 07c1 D4780000 		.4byte	.LASF330
 5450 07c5 05       		.byte	0x5
 5451 07c6 00       		.uleb128 0
 5452 07c7 0F360000 		.4byte	.LASF331
 5453 07cb 05       		.byte	0x5
 5454 07cc 00       		.uleb128 0
 5455 07cd A64E0000 		.4byte	.LASF332
 5456 07d1 05       		.byte	0x5
 5457 07d2 00       		.uleb128 0
 5458 07d3 12370000 		.4byte	.LASF333
 5459 07d7 05       		.byte	0x5
 5460 07d8 00       		.uleb128 0
 5461 07d9 55070000 		.4byte	.LASF334
 5462 07dd 05       		.byte	0x5
 5463 07de 00       		.uleb128 0
 5464 07df 1F4F0000 		.4byte	.LASF335
 5465 07e3 05       		.byte	0x5
 5466 07e4 00       		.uleb128 0
 5467 07e5 E4420000 		.4byte	.LASF336
 5468 07e9 05       		.byte	0x5
 5469 07ea 00       		.uleb128 0
 5470 07eb 37580000 		.4byte	.LASF337
 5471 07ef 05       		.byte	0x5
 5472 07f0 00       		.uleb128 0
 5473 07f1 B8730000 		.4byte	.LASF338
 5474 07f5 05       		.byte	0x5
 5475 07f6 00       		.uleb128 0
 5476 07f7 C36E0000 		.4byte	.LASF339
ARM GAS  C:\Users\COSMIN~1.MAR\AppData\Local\Temp\ccJVXHYk.s 			page 110


 5477 07fb 05       		.byte	0x5
 5478 07fc 00       		.uleb128 0
 5479 07fd A3510000 		.4byte	.LASF340
 5480 0801 05       		.byte	0x5
 5481 0802 00       		.uleb128 0
 5482 0803 016C0000 		.4byte	.LASF341
 5483 0807 05       		.byte	0x5
 5484 0808 00       		.uleb128 0
 5485 0809 6E5F0000 		.4byte	.LASF342
 5486 080d 05       		.byte	0x5
 5487 080e 00       		.uleb128 0
 5488 080f F5390000 		.4byte	.LASF343
 5489 0813 05       		.byte	0x5
 5490 0814 00       		.uleb128 0
 5491 0815 C6100000 		.4byte	.LASF344
 5492 0819 05       		.byte	0x5
 5493 081a 00       		.uleb128 0
 5494 081b 835E0000 		.4byte	.LASF345
 5495 081f 05       		.byte	0x5
 5496 0820 00       		.uleb128 0
 5497 0821 33060000 		.4byte	.LASF346
 5498 0825 05       		.byte	0x5
 5499 0826 00       		.uleb128 0
 5500 0827 4D170000 		.4byte	.LASF347
 5501 082b 05       		.byte	0x5
 5502 082c 00       		.uleb128 0
 5503 082d 9B4B0000 		.4byte	.LASF348
 5504 0831 05       		.byte	0x5
 5505 0832 00       		.uleb128 0
 5506 0833 89300000 		.4byte	.LASF349
 5507 0837 05       		.byte	0x5
 5508 0838 00       		.uleb128 0
 5509 0839 636D0000 		.4byte	.LASF350
 5510 083d 05       		.byte	0x5
 5511 083e 00       		.uleb128 0
 5512 083f 71300000 		.4byte	.LASF351
 5513 0843 05       		.byte	0x5
 5514 0844 00       		.uleb128 0
 5515 0845 083C0000 		.4byte	.LASF352
 5516 0849 05       		.byte	0x5
 5517 084a 00       		.uleb128 0
 5518 084b 455F0000 		.4byte	.LASF353
 5519 084f 05       		.byte	0x5
 5520 0850 00       		.uleb128 0
 5521 0851 1B220000 		.4byte	.LASF354
 5522 0855 00       		.byte	0
 5523              		.section	.debug_macro,"G",%progbits,wm4.LPC17xx.h.27.964facdaadd4aa3f18ac78c8a78f0013,comdat
 5524              	.Ldebug_macro2:
 5525 0000 0400     		.2byte	0x4
 5526 0002 00       		.byte	0
 5527 0003 05       		.byte	0x5
 5528 0004 1B       		.uleb128 0x1b
 5529 0005 A60F0000 		.4byte	.LASF356
 5530 0009 05       		.byte	0x5
 5531 000a 62       		.uleb128 0x62
 5532 000b 7B3C0000 		.4byte	.LASF357
 5533 000f 05       		.byte	0x5
ARM GAS  C:\Users\COSMIN~1.MAR\AppData\Local\Temp\ccJVXHYk.s 			page 111


 5534 0010 63       		.uleb128 0x63
 5535 0011 1F260000 		.4byte	.LASF358
 5536 0015 05       		.byte	0x5
 5537 0016 64       		.uleb128 0x64
 5538 0017 9E520000 		.4byte	.LASF359
 5539 001b 00       		.byte	0
 5540              		.section	.debug_macro,"G",%progbits,wm4.core_cm3.h.32.ec4df48419563a0d596421d1133ac586,comdat
 5541              	.Ldebug_macro3:
 5542 0000 0400     		.2byte	0x4
 5543 0002 00       		.byte	0
 5544 0003 05       		.byte	0x5
 5545 0004 20       		.uleb128 0x20
 5546 0005 D7220000 		.4byte	.LASF360
 5547 0009 05       		.byte	0x5
 5548 000a 37       		.uleb128 0x37
 5549 000b 12570000 		.4byte	.LASF361
 5550 000f 05       		.byte	0x5
 5551 0010 38       		.uleb128 0x38
 5552 0011 C2310000 		.4byte	.LASF362
 5553 0015 05       		.byte	0x5
 5554 0016 39       		.uleb128 0x39
 5555 0017 C3200000 		.4byte	.LASF363
 5556 001b 05       		.byte	0x5
 5557 001c 3B       		.uleb128 0x3b
 5558 001d CD3B0000 		.4byte	.LASF364
 5559 0021 05       		.byte	0x5
 5560 0022 47       		.uleb128 0x47
 5561 0023 71100000 		.4byte	.LASF365
 5562 0027 05       		.byte	0x5
 5563 0028 48       		.uleb128 0x48
 5564 0029 7A780000 		.4byte	.LASF366
 5565 002d 00       		.byte	0
 5566              		.section	.debug_macro,"G",%progbits,wm4.features.h.22.2e382148a0560adabf236cddd4e880f4,comdat
 5567              	.Ldebug_macro4:
 5568 0000 0400     		.2byte	0x4
 5569 0002 00       		.byte	0
 5570 0003 05       		.byte	0x5
 5571 0004 16       		.uleb128 0x16
 5572 0005 A0230000 		.4byte	.LASF369
 5573 0009 05       		.byte	0x5
 5574 000a 1F       		.uleb128 0x1f
 5575 000b 2C1C0000 		.4byte	.LASF370
 5576 000f 05       		.byte	0x5
 5577 0010 20       		.uleb128 0x20
 5578 0011 EA490000 		.4byte	.LASF371
 5579 0015 05       		.byte	0x5
 5580 0016 25       		.uleb128 0x25
 5581 0017 B7160000 		.4byte	.LASF372
 5582 001b 05       		.byte	0x5
 5583 001c 2C       		.uleb128 0x2c
 5584 001d 005C0000 		.4byte	.LASF373
 5585 0021 00       		.byte	0
 5586              		.section	.debug_macro,"G",%progbits,wm4._default_types.h.15.933e8edd27a65e0b69af4a865eb623d2,comda
 5587              	.Ldebug_macro5:
 5588 0000 0400     		.2byte	0x4
 5589 0002 00       		.byte	0
 5590 0003 05       		.byte	0x5
ARM GAS  C:\Users\COSMIN~1.MAR\AppData\Local\Temp\ccJVXHYk.s 			page 112


 5591 0004 0F       		.uleb128 0xf
 5592 0005 34470000 		.4byte	.LASF374
 5593 0009 05       		.byte	0x5
 5594 000a 21       		.uleb128 0x21
 5595 000b 20390000 		.4byte	.LASF375
 5596 000f 05       		.byte	0x5
 5597 0010 2F       		.uleb128 0x2f
 5598 0011 86280000 		.4byte	.LASF376
 5599 0015 05       		.byte	0x5
 5600 0016 45       		.uleb128 0x45
 5601 0017 28450000 		.4byte	.LASF377
 5602 001b 05       		.byte	0x5
 5603 001c 5F       		.uleb128 0x5f
 5604 001d A5540000 		.4byte	.LASF378
 5605 0021 05       		.byte	0x5
 5606 0022 7E       		.uleb128 0x7e
 5607 0023 BE090000 		.4byte	.LASF379
 5608 0027 05       		.byte	0x5
 5609 0028 9801     		.uleb128 0x98
 5610 002a AE140000 		.4byte	.LASF380
 5611 002e 05       		.byte	0x5
 5612 002f AE01     		.uleb128 0xae
 5613 0031 27630000 		.4byte	.LASF381
 5614 0035 05       		.byte	0x5
 5615 0036 C001     		.uleb128 0xc0
 5616 0038 6B460000 		.4byte	.LASF382
 5617 003c 06       		.byte	0x6
 5618 003d D601     		.uleb128 0xd6
 5619 003f 9F540000 		.4byte	.LASF383
 5620 0043 00       		.byte	0
 5621              		.section	.debug_macro,"G",%progbits,wm4._intsup.h.10.ca9f32a61b410c270a48d1161ca2c217,comdat
 5622              	.Ldebug_macro6:
 5623 0000 0400     		.2byte	0x4
 5624 0002 00       		.byte	0
 5625 0003 05       		.byte	0x5
 5626 0004 0A       		.uleb128 0xa
 5627 0005 C43E0000 		.4byte	.LASF384
 5628 0009 05       		.byte	0x5
 5629 000a 10       		.uleb128 0x10
 5630 000b 18470000 		.4byte	.LASF385
 5631 000f 05       		.byte	0x5
 5632 0010 1A       		.uleb128 0x1a
 5633 0011 D75B0000 		.4byte	.LASF386
 5634 0015 05       		.byte	0x5
 5635 0016 21       		.uleb128 0x21
 5636 0017 266B0000 		.4byte	.LASF387
 5637 001b 00       		.byte	0
 5638              		.section	.debug_macro,"G",%progbits,wm4.stdint.h.22.f4a337c398d8b6d821a97202448bc0d0,comdat
 5639              	.Ldebug_macro7:
 5640 0000 0400     		.2byte	0x4
 5641 0002 00       		.byte	0
 5642 0003 05       		.byte	0x5
 5643 0004 16       		.uleb128 0x16
 5644 0005 CB280000 		.4byte	.LASF388
 5645 0009 05       		.byte	0x5
 5646 000a 1C       		.uleb128 0x1c
 5647 000b F8740000 		.4byte	.LASF389
ARM GAS  C:\Users\COSMIN~1.MAR\AppData\Local\Temp\ccJVXHYk.s 			page 113


 5648 000f 05       		.byte	0x5
 5649 0010 22       		.uleb128 0x22
 5650 0011 86400000 		.4byte	.LASF390
 5651 0015 05       		.byte	0x5
 5652 0016 28       		.uleb128 0x28
 5653 0017 722D0000 		.4byte	.LASF391
 5654 001b 05       		.byte	0x5
 5655 001c 2E       		.uleb128 0x2e
 5656 001d 4B140000 		.4byte	.LASF392
 5657 0021 05       		.byte	0x5
 5658 0022 34       		.uleb128 0x34
 5659 0023 A3340000 		.4byte	.LASF393
 5660 0027 05       		.byte	0x5
 5661 0028 3A       		.uleb128 0x3a
 5662 0029 D36B0000 		.4byte	.LASF394
 5663 002d 05       		.byte	0x5
 5664 002e 40       		.uleb128 0x40
 5665 002f A8320000 		.4byte	.LASF395
 5666 0033 05       		.byte	0x5
 5667 0034 4C       		.uleb128 0x4c
 5668 0035 FA4C0000 		.4byte	.LASF396
 5669 0039 05       		.byte	0x5
 5670 003a 56       		.uleb128 0x56
 5671 003b 12490000 		.4byte	.LASF397
 5672 003f 05       		.byte	0x5
 5673 0040 60       		.uleb128 0x60
 5674 0041 080E0000 		.4byte	.LASF398
 5675 0045 05       		.byte	0x5
 5676 0046 6A       		.uleb128 0x6a
 5677 0047 02220000 		.4byte	.LASF399
 5678 004b 05       		.byte	0x5
 5679 004c AD01     		.uleb128 0xad
 5680 004e F32F0000 		.4byte	.LASF400
 5681 0052 05       		.byte	0x5
 5682 0053 AE01     		.uleb128 0xae
 5683 0055 A96E0000 		.4byte	.LASF401
 5684 0059 05       		.byte	0x5
 5685 005a AF01     		.uleb128 0xaf
 5686 005c 771E0000 		.4byte	.LASF402
 5687 0060 05       		.byte	0x5
 5688 0061 C501     		.uleb128 0xc5
 5689 0063 33350000 		.4byte	.LASF403
 5690 0067 05       		.byte	0x5
 5691 0068 C601     		.uleb128 0xc6
 5692 006a 8A4F0000 		.4byte	.LASF404
 5693 006e 05       		.byte	0x5
 5694 006f C701     		.uleb128 0xc7
 5695 0071 B6180000 		.4byte	.LASF405
 5696 0075 05       		.byte	0x5
 5697 0076 CF01     		.uleb128 0xcf
 5698 0078 366B0000 		.4byte	.LASF406
 5699 007c 05       		.byte	0x5
 5700 007d D001     		.uleb128 0xd0
 5701 007f B12A0000 		.4byte	.LASF407
 5702 0083 05       		.byte	0x5
 5703 0084 D101     		.uleb128 0xd1
 5704 0086 29170000 		.4byte	.LASF408
ARM GAS  C:\Users\COSMIN~1.MAR\AppData\Local\Temp\ccJVXHYk.s 			page 114


 5705 008a 05       		.byte	0x5
 5706 008b DB01     		.uleb128 0xdb
 5707 008d 504F0000 		.4byte	.LASF409
 5708 0091 05       		.byte	0x5
 5709 0092 DC01     		.uleb128 0xdc
 5710 0094 AA310000 		.4byte	.LASF410
 5711 0098 05       		.byte	0x5
 5712 0099 DD01     		.uleb128 0xdd
 5713 009b D92F0000 		.4byte	.LASF411
 5714 009f 05       		.byte	0x5
 5715 00a0 E501     		.uleb128 0xe5
 5716 00a2 AF450000 		.4byte	.LASF412
 5717 00a6 05       		.byte	0x5
 5718 00a7 E601     		.uleb128 0xe6
 5719 00a9 7B4C0000 		.4byte	.LASF413
 5720 00ad 05       		.byte	0x5
 5721 00ae E701     		.uleb128 0xe7
 5722 00b0 165E0000 		.4byte	.LASF414
 5723 00b4 05       		.byte	0x5
 5724 00b5 F101     		.uleb128 0xf1
 5725 00b7 4F5F0000 		.4byte	.LASF415
 5726 00bb 05       		.byte	0x5
 5727 00bc F201     		.uleb128 0xf2
 5728 00be C1410000 		.4byte	.LASF416
 5729 00c2 05       		.byte	0x5
 5730 00c3 F301     		.uleb128 0xf3
 5731 00c5 A60C0000 		.4byte	.LASF417
 5732 00c9 05       		.byte	0x5
 5733 00ca 8102     		.uleb128 0x101
 5734 00cc D92D0000 		.4byte	.LASF418
 5735 00d0 05       		.byte	0x5
 5736 00d1 8202     		.uleb128 0x102
 5737 00d3 07200000 		.4byte	.LASF419
 5738 00d7 05       		.byte	0x5
 5739 00d8 8302     		.uleb128 0x103
 5740 00da F5690000 		.4byte	.LASF420
 5741 00de 05       		.byte	0x5
 5742 00df 9302     		.uleb128 0x113
 5743 00e1 20690000 		.4byte	.LASF421
 5744 00e5 05       		.byte	0x5
 5745 00e6 9402     		.uleb128 0x114
 5746 00e8 FD040000 		.4byte	.LASF422
 5747 00ec 05       		.byte	0x5
 5748 00ed 9502     		.uleb128 0x115
 5749 00ef 1A4D0000 		.4byte	.LASF423
 5750 00f3 05       		.byte	0x5
 5751 00f4 A302     		.uleb128 0x123
 5752 00f6 68110000 		.4byte	.LASF424
 5753 00fa 05       		.byte	0x5
 5754 00fb A402     		.uleb128 0x124
 5755 00fd 300E0000 		.4byte	.LASF425
 5756 0101 05       		.byte	0x5
 5757 0102 A502     		.uleb128 0x125
 5758 0104 C7690000 		.4byte	.LASF426
 5759 0108 05       		.byte	0x5
 5760 0109 B302     		.uleb128 0x133
 5761 010b 0D780000 		.4byte	.LASF427
ARM GAS  C:\Users\COSMIN~1.MAR\AppData\Local\Temp\ccJVXHYk.s 			page 115


 5762 010f 05       		.byte	0x5
 5763 0110 B402     		.uleb128 0x134
 5764 0112 D4340000 		.4byte	.LASF428
 5765 0116 05       		.byte	0x5
 5766 0117 B502     		.uleb128 0x135
 5767 0119 64180000 		.4byte	.LASF429
 5768 011d 05       		.byte	0x5
 5769 011e C302     		.uleb128 0x143
 5770 0120 4E080000 		.4byte	.LASF430
 5771 0124 05       		.byte	0x5
 5772 0125 C402     		.uleb128 0x144
 5773 0127 C4730000 		.4byte	.LASF431
 5774 012b 05       		.byte	0x5
 5775 012c C502     		.uleb128 0x145
 5776 012e 77720000 		.4byte	.LASF432
 5777 0132 05       		.byte	0x5
 5778 0133 D302     		.uleb128 0x153
 5779 0135 F2120000 		.4byte	.LASF433
 5780 0139 05       		.byte	0x5
 5781 013a D402     		.uleb128 0x154
 5782 013c C35E0000 		.4byte	.LASF434
 5783 0140 05       		.byte	0x5
 5784 0141 D502     		.uleb128 0x155
 5785 0143 7D550000 		.4byte	.LASF435
 5786 0147 05       		.byte	0x5
 5787 0148 E302     		.uleb128 0x163
 5788 014a DF0D0000 		.4byte	.LASF436
 5789 014e 05       		.byte	0x5
 5790 014f E402     		.uleb128 0x164
 5791 0151 3E090000 		.4byte	.LASF437
 5792 0155 05       		.byte	0x5
 5793 0156 E502     		.uleb128 0x165
 5794 0158 A5470000 		.4byte	.LASF438
 5795 015c 05       		.byte	0x5
 5796 015d F302     		.uleb128 0x173
 5797 015f DE440000 		.4byte	.LASF439
 5798 0163 05       		.byte	0x5
 5799 0164 F402     		.uleb128 0x174
 5800 0166 7F1D0000 		.4byte	.LASF440
 5801 016a 05       		.byte	0x5
 5802 016b FC02     		.uleb128 0x17c
 5803 016d BC300000 		.4byte	.LASF441
 5804 0171 05       		.byte	0x5
 5805 0172 8403     		.uleb128 0x184
 5806 0174 FC560000 		.4byte	.LASF442
 5807 0178 05       		.byte	0x5
 5808 0179 8A03     		.uleb128 0x18a
 5809 017b E1310000 		.4byte	.LASF443
 5810 017f 05       		.byte	0x5
 5811 0180 8B03     		.uleb128 0x18b
 5812 0182 814E0000 		.4byte	.LASF444
 5813 0186 05       		.byte	0x5
 5814 0187 8F03     		.uleb128 0x18f
 5815 0189 2D5C0000 		.4byte	.LASF445
 5816 018d 05       		.byte	0x5
 5817 018e 9303     		.uleb128 0x193
 5818 0190 00260000 		.4byte	.LASF446
ARM GAS  C:\Users\COSMIN~1.MAR\AppData\Local\Temp\ccJVXHYk.s 			page 116


 5819 0194 05       		.byte	0x5
 5820 0195 9803     		.uleb128 0x198
 5821 0197 E7510000 		.4byte	.LASF447
 5822 019b 05       		.byte	0x5
 5823 019c A303     		.uleb128 0x1a3
 5824 019e DA120000 		.4byte	.LASF448
 5825 01a2 05       		.byte	0x5
 5826 01a3 AD03     		.uleb128 0x1ad
 5827 01a5 9F440000 		.4byte	.LASF449
 5828 01a9 05       		.byte	0x5
 5829 01aa B203     		.uleb128 0x1b2
 5830 01ac 97030000 		.4byte	.LASF450
 5831 01b0 05       		.byte	0x5
 5832 01b1 B903     		.uleb128 0x1b9
 5833 01b3 EF3A0000 		.4byte	.LASF451
 5834 01b7 05       		.byte	0x5
 5835 01b8 BA03     		.uleb128 0x1ba
 5836 01ba A76A0000 		.4byte	.LASF452
 5837 01be 05       		.byte	0x5
 5838 01bf C503     		.uleb128 0x1c5
 5839 01c1 6B0E0000 		.4byte	.LASF453
 5840 01c5 05       		.byte	0x5
 5841 01c6 C603     		.uleb128 0x1c6
 5842 01c8 2C700000 		.4byte	.LASF454
 5843 01cc 05       		.byte	0x5
 5844 01cd D103     		.uleb128 0x1d1
 5845 01cf C5000000 		.4byte	.LASF455
 5846 01d3 05       		.byte	0x5
 5847 01d4 D203     		.uleb128 0x1d2
 5848 01d6 2A4A0000 		.4byte	.LASF456
 5849 01da 05       		.byte	0x5
 5850 01db DE03     		.uleb128 0x1de
 5851 01dd 1B350000 		.4byte	.LASF457
 5852 01e1 05       		.byte	0x5
 5853 01e2 DF03     		.uleb128 0x1df
 5854 01e4 5B600000 		.4byte	.LASF458
 5855 01e8 05       		.byte	0x5
 5856 01e9 EE03     		.uleb128 0x1ee
 5857 01eb E6250000 		.4byte	.LASF459
 5858 01ef 05       		.byte	0x5
 5859 01f0 EF03     		.uleb128 0x1ef
 5860 01f2 83540000 		.4byte	.LASF460
 5861 01f6 00       		.byte	0
 5862              		.section	.debug_macro,"G",%progbits,wm4.core_cmInstr.h.25.367280a3dbe1a27f086157cbbb6352e1,comdat
 5863              	.Ldebug_macro8:
 5864 0000 0400     		.2byte	0x4
 5865 0002 00       		.byte	0
 5866 0003 05       		.byte	0x5
 5867 0004 19       		.uleb128 0x19
 5868 0005 06740000 		.4byte	.LASF462
 5869 0009 05       		.byte	0x5
 5870 000a CE05     		.uleb128 0x2ce
 5871 000c 94370000 		.4byte	.LASF463
 5872 0010 05       		.byte	0x5
 5873 0011 DE05     		.uleb128 0x2de
 5874 0013 00000000 		.4byte	.LASF464
 5875 0017 00       		.byte	0
ARM GAS  C:\Users\COSMIN~1.MAR\AppData\Local\Temp\ccJVXHYk.s 			page 117


 5876              		.section	.debug_macro,"G",%progbits,wm4.core_cm3.h.90.d0c8a7fd6bb95729c958e48b22262446,comdat
 5877              	.Ldebug_macro9:
 5878 0000 0400     		.2byte	0x4
 5879 0002 00       		.byte	0
 5880 0003 05       		.byte	0x5
 5881 0004 5A       		.uleb128 0x5a
 5882 0005 DB3F0000 		.4byte	.LASF466
 5883 0009 05       		.byte	0x5
 5884 000a 60       		.uleb128 0x60
 5885 000b F33F0000 		.4byte	.LASF467
 5886 000f 05       		.byte	0x5
 5887 0010 62       		.uleb128 0x62
 5888 0011 9D310000 		.4byte	.LASF468
 5889 0015 05       		.byte	0x5
 5890 0016 63       		.uleb128 0x63
 5891 0017 5A6A0000 		.4byte	.LASF469
 5892 001b 05       		.byte	0x5
 5893 001c 8702     		.uleb128 0x107
 5894 001e FB460000 		.4byte	.LASF470
 5895 0022 05       		.byte	0x5
 5896 0023 8802     		.uleb128 0x108
 5897 0025 58730000 		.4byte	.LASF471
 5898 0029 05       		.byte	0x5
 5899 002a 8A02     		.uleb128 0x10a
 5900 002c 505D0000 		.4byte	.LASF472
 5901 0030 05       		.byte	0x5
 5902 0031 8B02     		.uleb128 0x10b
 5903 0033 444A0000 		.4byte	.LASF473
 5904 0037 05       		.byte	0x5
 5905 0038 8D02     		.uleb128 0x10d
 5906 003a 782B0000 		.4byte	.LASF474
 5907 003e 05       		.byte	0x5
 5908 003f 8E02     		.uleb128 0x10e
 5909 0041 341D0000 		.4byte	.LASF475
 5910 0045 05       		.byte	0x5
 5911 0046 9002     		.uleb128 0x110
 5912 0048 13410000 		.4byte	.LASF476
 5913 004c 05       		.byte	0x5
 5914 004d 9102     		.uleb128 0x111
 5915 004f 23380000 		.4byte	.LASF477
 5916 0053 05       		.byte	0x5
 5917 0054 9402     		.uleb128 0x114
 5918 0056 43510000 		.4byte	.LASF478
 5919 005a 05       		.byte	0x5
 5920 005b 9502     		.uleb128 0x115
 5921 005d 8F2B0000 		.4byte	.LASF479
 5922 0061 05       		.byte	0x5
 5923 0062 9702     		.uleb128 0x117
 5924 0064 4B310000 		.4byte	.LASF480
 5925 0068 05       		.byte	0x5
 5926 0069 9802     		.uleb128 0x118
 5927 006b E9640000 		.4byte	.LASF481
 5928 006f 05       		.byte	0x5
 5929 0070 9A02     		.uleb128 0x11a
 5930 0072 0C6B0000 		.4byte	.LASF482
 5931 0076 05       		.byte	0x5
 5932 0077 9B02     		.uleb128 0x11b
ARM GAS  C:\Users\COSMIN~1.MAR\AppData\Local\Temp\ccJVXHYk.s 			page 118


 5933 0079 092A0000 		.4byte	.LASF483
 5934 007d 05       		.byte	0x5
 5935 007e 9D02     		.uleb128 0x11d
 5936 0080 5D0A0000 		.4byte	.LASF484
 5937 0084 05       		.byte	0x5
 5938 0085 9E02     		.uleb128 0x11e
 5939 0087 B9500000 		.4byte	.LASF485
 5940 008b 05       		.byte	0x5
 5941 008c A002     		.uleb128 0x120
 5942 008e A9490000 		.4byte	.LASF486
 5943 0092 05       		.byte	0x5
 5944 0093 A102     		.uleb128 0x121
 5945 0095 23240000 		.4byte	.LASF487
 5946 0099 05       		.byte	0x5
 5947 009a A302     		.uleb128 0x123
 5948 009c 28510000 		.4byte	.LASF488
 5949 00a0 05       		.byte	0x5
 5950 00a1 A402     		.uleb128 0x124
 5951 00a3 6A3A0000 		.4byte	.LASF489
 5952 00a7 05       		.byte	0x5
 5953 00a8 A602     		.uleb128 0x126
 5954 00aa E2040000 		.4byte	.LASF490
 5955 00ae 05       		.byte	0x5
 5956 00af A702     		.uleb128 0x127
 5957 00b1 B1380000 		.4byte	.LASF491
 5958 00b5 05       		.byte	0x5
 5959 00b6 A902     		.uleb128 0x129
 5960 00b8 1B460000 		.4byte	.LASF492
 5961 00bc 05       		.byte	0x5
 5962 00bd AA02     		.uleb128 0x12a
 5963 00bf 232F0000 		.4byte	.LASF493
 5964 00c3 05       		.byte	0x5
 5965 00c4 AC02     		.uleb128 0x12c
 5966 00c6 BF1A0000 		.4byte	.LASF494
 5967 00ca 05       		.byte	0x5
 5968 00cb AD02     		.uleb128 0x12d
 5969 00cd C4460000 		.4byte	.LASF495
 5970 00d1 05       		.byte	0x5
 5971 00d2 AF02     		.uleb128 0x12f
 5972 00d4 F3280000 		.4byte	.LASF496
 5973 00d8 05       		.byte	0x5
 5974 00d9 B002     		.uleb128 0x130
 5975 00db 9E1E0000 		.4byte	.LASF497
 5976 00df 05       		.byte	0x5
 5977 00e0 B302     		.uleb128 0x133
 5978 00e2 5F720000 		.4byte	.LASF498
 5979 00e6 05       		.byte	0x5
 5980 00e7 B402     		.uleb128 0x134
 5981 00e9 1E660000 		.4byte	.LASF499
 5982 00ed 05       		.byte	0x5
 5983 00ee B602     		.uleb128 0x136
 5984 00f0 006F0000 		.4byte	.LASF500
 5985 00f4 05       		.byte	0x5
 5986 00f5 B702     		.uleb128 0x137
 5987 00f7 C7010000 		.4byte	.LASF501
 5988 00fb 05       		.byte	0x5
 5989 00fc BA02     		.uleb128 0x13a
ARM GAS  C:\Users\COSMIN~1.MAR\AppData\Local\Temp\ccJVXHYk.s 			page 119


 5990 00fe 893E0000 		.4byte	.LASF502
 5991 0102 05       		.byte	0x5
 5992 0103 BB02     		.uleb128 0x13b
 5993 0105 263D0000 		.4byte	.LASF503
 5994 0109 05       		.byte	0x5
 5995 010a BD02     		.uleb128 0x13d
 5996 010c 96420000 		.4byte	.LASF504
 5997 0110 05       		.byte	0x5
 5998 0111 BE02     		.uleb128 0x13e
 5999 0113 B5770000 		.4byte	.LASF505
 6000 0117 05       		.byte	0x5
 6001 0118 C002     		.uleb128 0x140
 6002 011a 7D6B0000 		.4byte	.LASF506
 6003 011e 05       		.byte	0x5
 6004 011f C102     		.uleb128 0x141
 6005 0121 51660000 		.4byte	.LASF507
 6006 0125 05       		.byte	0x5
 6007 0126 C302     		.uleb128 0x143
 6008 0128 660F0000 		.4byte	.LASF508
 6009 012c 05       		.byte	0x5
 6010 012d C402     		.uleb128 0x144
 6011 012f BE240000 		.4byte	.LASF509
 6012 0133 05       		.byte	0x5
 6013 0134 C602     		.uleb128 0x146
 6014 0136 81310000 		.4byte	.LASF510
 6015 013a 05       		.byte	0x5
 6016 013b C702     		.uleb128 0x147
 6017 013d 29740000 		.4byte	.LASF511
 6018 0141 05       		.byte	0x5
 6019 0142 C902     		.uleb128 0x149
 6020 0144 8F740000 		.4byte	.LASF512
 6021 0148 05       		.byte	0x5
 6022 0149 CA02     		.uleb128 0x14a
 6023 014b B4030000 		.4byte	.LASF513
 6024 014f 05       		.byte	0x5
 6025 0150 CC02     		.uleb128 0x14c
 6026 0152 6A650000 		.4byte	.LASF514
 6027 0156 05       		.byte	0x5
 6028 0157 CD02     		.uleb128 0x14d
 6029 0159 9C360000 		.4byte	.LASF515
 6030 015d 05       		.byte	0x5
 6031 015e D002     		.uleb128 0x150
 6032 0160 60500000 		.4byte	.LASF516
 6033 0164 05       		.byte	0x5
 6034 0165 D102     		.uleb128 0x151
 6035 0167 F8760000 		.4byte	.LASF517
 6036 016b 05       		.byte	0x5
 6037 016c D302     		.uleb128 0x153
 6038 016e C0290000 		.4byte	.LASF518
 6039 0172 05       		.byte	0x5
 6040 0173 D402     		.uleb128 0x154
 6041 0175 591C0000 		.4byte	.LASF519
 6042 0179 05       		.byte	0x5
 6043 017a D602     		.uleb128 0x156
 6044 017c B1280000 		.4byte	.LASF520
 6045 0180 05       		.byte	0x5
 6046 0181 D702     		.uleb128 0x157
ARM GAS  C:\Users\COSMIN~1.MAR\AppData\Local\Temp\ccJVXHYk.s 			page 120


 6047 0183 3E200000 		.4byte	.LASF521
 6048 0187 05       		.byte	0x5
 6049 0188 DA02     		.uleb128 0x15a
 6050 018a 643C0000 		.4byte	.LASF522
 6051 018e 05       		.byte	0x5
 6052 018f DB02     		.uleb128 0x15b
 6053 0191 3E100000 		.4byte	.LASF523
 6054 0195 05       		.byte	0x5
 6055 0196 DD02     		.uleb128 0x15d
 6056 0198 D5590000 		.4byte	.LASF524
 6057 019c 05       		.byte	0x5
 6058 019d DE02     		.uleb128 0x15e
 6059 019f 385A0000 		.4byte	.LASF525
 6060 01a3 05       		.byte	0x5
 6061 01a4 E002     		.uleb128 0x160
 6062 01a6 BF5B0000 		.4byte	.LASF526
 6063 01aa 05       		.byte	0x5
 6064 01ab E102     		.uleb128 0x161
 6065 01ad F72C0000 		.4byte	.LASF527
 6066 01b1 05       		.byte	0x5
 6067 01b2 E302     		.uleb128 0x163
 6068 01b4 22750000 		.4byte	.LASF528
 6069 01b8 05       		.byte	0x5
 6070 01b9 E402     		.uleb128 0x164
 6071 01bb ED060000 		.4byte	.LASF529
 6072 01bf 05       		.byte	0x5
 6073 01c0 E602     		.uleb128 0x166
 6074 01c2 54670000 		.4byte	.LASF530
 6075 01c6 05       		.byte	0x5
 6076 01c7 E702     		.uleb128 0x167
 6077 01c9 96150000 		.4byte	.LASF531
 6078 01cd 05       		.byte	0x5
 6079 01ce E902     		.uleb128 0x169
 6080 01d0 8F010000 		.4byte	.LASF532
 6081 01d4 05       		.byte	0x5
 6082 01d5 EA02     		.uleb128 0x16a
 6083 01d7 1A120000 		.4byte	.LASF533
 6084 01db 05       		.byte	0x5
 6085 01dc ED02     		.uleb128 0x16d
 6086 01de 72290000 		.4byte	.LASF534
 6087 01e2 05       		.byte	0x5
 6088 01e3 EE02     		.uleb128 0x16e
 6089 01e5 DD110000 		.4byte	.LASF535
 6090 01e9 05       		.byte	0x5
 6091 01ea F002     		.uleb128 0x170
 6092 01ec 942A0000 		.4byte	.LASF536
 6093 01f0 05       		.byte	0x5
 6094 01f1 F102     		.uleb128 0x171
 6095 01f3 245B0000 		.4byte	.LASF537
 6096 01f7 05       		.byte	0x5
 6097 01f8 F302     		.uleb128 0x173
 6098 01fa BF740000 		.4byte	.LASF538
 6099 01fe 05       		.byte	0x5
 6100 01ff F402     		.uleb128 0x174
 6101 0201 622F0000 		.4byte	.LASF539
 6102 0205 05       		.byte	0x5
 6103 0206 F602     		.uleb128 0x176
ARM GAS  C:\Users\COSMIN~1.MAR\AppData\Local\Temp\ccJVXHYk.s 			page 121


 6104 0208 8D680000 		.4byte	.LASF540
 6105 020c 05       		.byte	0x5
 6106 020d F702     		.uleb128 0x177
 6107 020f D94E0000 		.4byte	.LASF541
 6108 0213 05       		.byte	0x5
 6109 0214 F902     		.uleb128 0x179
 6110 0216 7C5F0000 		.4byte	.LASF542
 6111 021a 05       		.byte	0x5
 6112 021b FA02     		.uleb128 0x17a
 6113 021d F9320000 		.4byte	.LASF543
 6114 0221 05       		.byte	0x5
 6115 0222 FC02     		.uleb128 0x17c
 6116 0224 5F570000 		.4byte	.LASF544
 6117 0228 05       		.byte	0x5
 6118 0229 FD02     		.uleb128 0x17d
 6119 022b 773D0000 		.4byte	.LASF545
 6120 022f 05       		.byte	0x5
 6121 0230 FF02     		.uleb128 0x17f
 6122 0232 295D0000 		.4byte	.LASF546
 6123 0236 05       		.byte	0x5
 6124 0237 8003     		.uleb128 0x180
 6125 0239 E0230000 		.4byte	.LASF547
 6126 023d 05       		.byte	0x5
 6127 023e 8203     		.uleb128 0x182
 6128 0240 76490000 		.4byte	.LASF548
 6129 0244 05       		.byte	0x5
 6130 0245 8303     		.uleb128 0x183
 6131 0247 5A240000 		.4byte	.LASF549
 6132 024b 05       		.byte	0x5
 6133 024c 8503     		.uleb128 0x185
 6134 024e D3190000 		.4byte	.LASF550
 6135 0252 05       		.byte	0x5
 6136 0253 8603     		.uleb128 0x186
 6137 0255 73220000 		.4byte	.LASF551
 6138 0259 05       		.byte	0x5
 6139 025a 8803     		.uleb128 0x188
 6140 025c 293E0000 		.4byte	.LASF552
 6141 0260 05       		.byte	0x5
 6142 0261 8903     		.uleb128 0x189
 6143 0263 B2610000 		.4byte	.LASF553
 6144 0267 05       		.byte	0x5
 6145 0268 8B03     		.uleb128 0x18b
 6146 026a B95C0000 		.4byte	.LASF554
 6147 026e 05       		.byte	0x5
 6148 026f 8C03     		.uleb128 0x18c
 6149 0271 6B3B0000 		.4byte	.LASF555
 6150 0275 05       		.byte	0x5
 6151 0276 8E03     		.uleb128 0x18e
 6152 0278 3B790000 		.4byte	.LASF556
 6153 027c 05       		.byte	0x5
 6154 027d 8F03     		.uleb128 0x18f
 6155 027f 8E430000 		.4byte	.LASF557
 6156 0283 05       		.byte	0x5
 6157 0284 9103     		.uleb128 0x191
 6158 0286 2F220000 		.4byte	.LASF558
 6159 028a 05       		.byte	0x5
 6160 028b 9203     		.uleb128 0x192
ARM GAS  C:\Users\COSMIN~1.MAR\AppData\Local\Temp\ccJVXHYk.s 			page 122


 6161 028d C60B0000 		.4byte	.LASF559
 6162 0291 05       		.byte	0x5
 6163 0292 9403     		.uleb128 0x194
 6164 0294 07760000 		.4byte	.LASF560
 6165 0298 05       		.byte	0x5
 6166 0299 9503     		.uleb128 0x195
 6167 029b 4D590000 		.4byte	.LASF561
 6168 029f 05       		.byte	0x5
 6169 02a0 9803     		.uleb128 0x198
 6170 02a2 232E0000 		.4byte	.LASF562
 6171 02a6 05       		.byte	0x5
 6172 02a7 9903     		.uleb128 0x199
 6173 02a9 F5170000 		.4byte	.LASF563
 6174 02ad 05       		.byte	0x5
 6175 02ae 9B03     		.uleb128 0x19b
 6176 02b0 01100000 		.4byte	.LASF564
 6177 02b4 05       		.byte	0x5
 6178 02b5 9C03     		.uleb128 0x19c
 6179 02b7 166F0000 		.4byte	.LASF565
 6180 02bb 05       		.byte	0x5
 6181 02bc 9E03     		.uleb128 0x19e
 6182 02be E5020000 		.4byte	.LASF566
 6183 02c2 05       		.byte	0x5
 6184 02c3 9F03     		.uleb128 0x19f
 6185 02c5 CB580000 		.4byte	.LASF567
 6186 02c9 05       		.byte	0x5
 6187 02ca A203     		.uleb128 0x1a2
 6188 02cc E3560000 		.4byte	.LASF568
 6189 02d0 05       		.byte	0x5
 6190 02d1 A303     		.uleb128 0x1a3
 6191 02d3 70470000 		.4byte	.LASF569
 6192 02d7 05       		.byte	0x5
 6193 02d8 A503     		.uleb128 0x1a5
 6194 02da 0D4E0000 		.4byte	.LASF570
 6195 02de 05       		.byte	0x5
 6196 02df A603     		.uleb128 0x1a6
 6197 02e1 8A040000 		.4byte	.LASF571
 6198 02e5 05       		.byte	0x5
 6199 02e6 A803     		.uleb128 0x1a8
 6200 02e8 FE140000 		.4byte	.LASF572
 6201 02ec 05       		.byte	0x5
 6202 02ed A903     		.uleb128 0x1a9
 6203 02ef A6570000 		.4byte	.LASF573
 6204 02f3 05       		.byte	0x5
 6205 02f4 AC03     		.uleb128 0x1ac
 6206 02f6 5F140000 		.4byte	.LASF574
 6207 02fa 05       		.byte	0x5
 6208 02fb AD03     		.uleb128 0x1ad
 6209 02fd A71C0000 		.4byte	.LASF575
 6210 0301 05       		.byte	0x5
 6211 0302 AF03     		.uleb128 0x1af
 6212 0304 F0260000 		.4byte	.LASF576
 6213 0308 05       		.byte	0x5
 6214 0309 B003     		.uleb128 0x1b0
 6215 030b 0C550000 		.4byte	.LASF577
 6216 030f 05       		.byte	0x5
 6217 0310 B203     		.uleb128 0x1b2
ARM GAS  C:\Users\COSMIN~1.MAR\AppData\Local\Temp\ccJVXHYk.s 			page 123


 6218 0312 EE1E0000 		.4byte	.LASF578
 6219 0316 05       		.byte	0x5
 6220 0317 B303     		.uleb128 0x1b3
 6221 0319 330F0000 		.4byte	.LASF579
 6222 031d 05       		.byte	0x5
 6223 031e B503     		.uleb128 0x1b5
 6224 0320 3C4F0000 		.4byte	.LASF580
 6225 0324 05       		.byte	0x5
 6226 0325 B603     		.uleb128 0x1b6
 6227 0327 04560000 		.4byte	.LASF581
 6228 032b 05       		.byte	0x5
 6229 032c B803     		.uleb128 0x1b8
 6230 032e 93110000 		.4byte	.LASF582
 6231 0332 05       		.byte	0x5
 6232 0333 B903     		.uleb128 0x1b9
 6233 0335 33180000 		.4byte	.LASF583
 6234 0339 05       		.byte	0x5
 6235 033a CF03     		.uleb128 0x1cf
 6236 033c 542D0000 		.4byte	.LASF584
 6237 0340 05       		.byte	0x5
 6238 0341 D003     		.uleb128 0x1d0
 6239 0343 C71B0000 		.4byte	.LASF585
 6240 0347 05       		.byte	0x5
 6241 0348 D203     		.uleb128 0x1d2
 6242 034a 1E0C0000 		.4byte	.LASF586
 6243 034e 05       		.byte	0x5
 6244 034f D303     		.uleb128 0x1d3
 6245 0351 C1050000 		.4byte	.LASF587
 6246 0355 05       		.byte	0x5
 6247 0356 D503     		.uleb128 0x1d5
 6248 0358 1B130000 		.4byte	.LASF588
 6249 035c 05       		.byte	0x5
 6250 035d D603     		.uleb128 0x1d6
 6251 035f 485E0000 		.4byte	.LASF589
 6252 0363 05       		.byte	0x5
 6253 0364 D803     		.uleb128 0x1d8
 6254 0366 19290000 		.4byte	.LASF590
 6255 036a 05       		.byte	0x5
 6256 036b D903     		.uleb128 0x1d9
 6257 036d A2650000 		.4byte	.LASF591
 6258 0371 05       		.byte	0x5
 6259 0372 DC03     		.uleb128 0x1dc
 6260 0374 E76B0000 		.4byte	.LASF592
 6261 0378 05       		.byte	0x5
 6262 0379 DD03     		.uleb128 0x1dd
 6263 037b 64640000 		.4byte	.LASF593
 6264 037f 05       		.byte	0x5
 6265 0380 E003     		.uleb128 0x1e0
 6266 0382 F0500000 		.4byte	.LASF594
 6267 0386 05       		.byte	0x5
 6268 0387 E103     		.uleb128 0x1e1
 6269 0389 074C0000 		.4byte	.LASF595
 6270 038d 05       		.byte	0x5
 6271 038e E403     		.uleb128 0x1e4
 6272 0390 20650000 		.4byte	.LASF596
 6273 0394 05       		.byte	0x5
 6274 0395 E503     		.uleb128 0x1e5
ARM GAS  C:\Users\COSMIN~1.MAR\AppData\Local\Temp\ccJVXHYk.s 			page 124


 6275 0397 732E0000 		.4byte	.LASF597
 6276 039b 05       		.byte	0x5
 6277 039c E703     		.uleb128 0x1e7
 6278 039e B50F0000 		.4byte	.LASF598
 6279 03a2 05       		.byte	0x5
 6280 03a3 E803     		.uleb128 0x1e8
 6281 03a5 74710000 		.4byte	.LASF599
 6282 03a9 05       		.byte	0x5
 6283 03aa EA03     		.uleb128 0x1ea
 6284 03ac 503A0000 		.4byte	.LASF600
 6285 03b0 05       		.byte	0x5
 6286 03b1 EB03     		.uleb128 0x1eb
 6287 03b3 3D550000 		.4byte	.LASF601
 6288 03b7 05       		.byte	0x5
 6289 03b8 9D04     		.uleb128 0x21d
 6290 03ba 540E0000 		.4byte	.LASF602
 6291 03be 05       		.byte	0x5
 6292 03bf 9E04     		.uleb128 0x21e
 6293 03c1 C3760000 		.4byte	.LASF603
 6294 03c5 05       		.byte	0x5
 6295 03c6 A104     		.uleb128 0x221
 6296 03c8 6D160000 		.4byte	.LASF604
 6297 03cc 05       		.byte	0x5
 6298 03cd A204     		.uleb128 0x222
 6299 03cf 892C0000 		.4byte	.LASF605
 6300 03d3 05       		.byte	0x5
 6301 03d4 A404     		.uleb128 0x224
 6302 03d6 676C0000 		.4byte	.LASF606
 6303 03da 05       		.byte	0x5
 6304 03db A504     		.uleb128 0x225
 6305 03dd D06E0000 		.4byte	.LASF607
 6306 03e1 05       		.byte	0x5
 6307 03e2 A704     		.uleb128 0x227
 6308 03e4 34780000 		.4byte	.LASF608
 6309 03e8 05       		.byte	0x5
 6310 03e9 A804     		.uleb128 0x228
 6311 03eb 72120000 		.4byte	.LASF609
 6312 03ef 05       		.byte	0x5
 6313 03f0 AA04     		.uleb128 0x22a
 6314 03f2 FD360000 		.4byte	.LASF610
 6315 03f6 05       		.byte	0x5
 6316 03f7 AB04     		.uleb128 0x22b
 6317 03f9 066E0000 		.4byte	.LASF611
 6318 03fd 05       		.byte	0x5
 6319 03fe AD04     		.uleb128 0x22d
 6320 0400 45540000 		.4byte	.LASF612
 6321 0404 05       		.byte	0x5
 6322 0405 AE04     		.uleb128 0x22e
 6323 0407 E2270000 		.4byte	.LASF613
 6324 040b 05       		.byte	0x5
 6325 040c B004     		.uleb128 0x230
 6326 040e 6D5A0000 		.4byte	.LASF614
 6327 0412 05       		.byte	0x5
 6328 0413 B104     		.uleb128 0x231
 6329 0415 A9120000 		.4byte	.LASF615
 6330 0419 05       		.byte	0x5
 6331 041a B304     		.uleb128 0x233
ARM GAS  C:\Users\COSMIN~1.MAR\AppData\Local\Temp\ccJVXHYk.s 			page 125


 6332 041c 33290000 		.4byte	.LASF616
 6333 0420 05       		.byte	0x5
 6334 0421 B404     		.uleb128 0x234
 6335 0423 D8090000 		.4byte	.LASF617
 6336 0427 05       		.byte	0x5
 6337 0428 B604     		.uleb128 0x236
 6338 042a DE680000 		.4byte	.LASF618
 6339 042e 05       		.byte	0x5
 6340 042f B704     		.uleb128 0x237
 6341 0431 81160000 		.4byte	.LASF619
 6342 0435 05       		.byte	0x5
 6343 0436 BA04     		.uleb128 0x23a
 6344 0438 14270000 		.4byte	.LASF620
 6345 043c 05       		.byte	0x5
 6346 043d BB04     		.uleb128 0x23b
 6347 043f 86480000 		.4byte	.LASF621
 6348 0443 05       		.byte	0x5
 6349 0444 BE04     		.uleb128 0x23e
 6350 0446 92490000 		.4byte	.LASF622
 6351 044a 05       		.byte	0x5
 6352 044b BF04     		.uleb128 0x23f
 6353 044d 176C0000 		.4byte	.LASF623
 6354 0451 05       		.byte	0x5
 6355 0452 C204     		.uleb128 0x242
 6356 0454 AA3C0000 		.4byte	.LASF624
 6357 0458 05       		.byte	0x5
 6358 0459 C304     		.uleb128 0x243
 6359 045b 986B0000 		.4byte	.LASF625
 6360 045f 05       		.byte	0x5
 6361 0460 C604     		.uleb128 0x246
 6362 0462 FF440000 		.4byte	.LASF626
 6363 0466 05       		.byte	0x5
 6364 0467 C704     		.uleb128 0x247
 6365 0469 89630000 		.4byte	.LASF627
 6366 046d 05       		.byte	0x5
 6367 046e C904     		.uleb128 0x249
 6368 0470 EB5B0000 		.4byte	.LASF628
 6369 0474 05       		.byte	0x5
 6370 0475 CA04     		.uleb128 0x24a
 6371 0477 7A6F0000 		.4byte	.LASF629
 6372 047b 05       		.byte	0x5
 6373 047c CC04     		.uleb128 0x24c
 6374 047e C1700000 		.4byte	.LASF630
 6375 0482 05       		.byte	0x5
 6376 0483 CD04     		.uleb128 0x24d
 6377 0485 0A3A0000 		.4byte	.LASF631
 6378 0489 05       		.byte	0x5
 6379 048a E604     		.uleb128 0x266
 6380 048c DA320000 		.4byte	.LASF632
 6381 0490 05       		.byte	0x5
 6382 0491 E704     		.uleb128 0x267
 6383 0493 8D190000 		.4byte	.LASF633
 6384 0497 05       		.byte	0x5
 6385 0498 EA04     		.uleb128 0x26a
 6386 049a 6D3E0000 		.4byte	.LASF634
 6387 049e 05       		.byte	0x5
 6388 049f EB04     		.uleb128 0x26b
ARM GAS  C:\Users\COSMIN~1.MAR\AppData\Local\Temp\ccJVXHYk.s 			page 126


 6389 04a1 D32A0000 		.4byte	.LASF635
 6390 04a5 05       		.byte	0x5
 6391 04a6 ED04     		.uleb128 0x26d
 6392 04a8 B2080000 		.4byte	.LASF636
 6393 04ac 05       		.byte	0x5
 6394 04ad EE04     		.uleb128 0x26e
 6395 04af 26680000 		.4byte	.LASF637
 6396 04b3 05       		.byte	0x5
 6397 04b4 F004     		.uleb128 0x270
 6398 04b6 DA450000 		.4byte	.LASF638
 6399 04ba 05       		.byte	0x5
 6400 04bb F104     		.uleb128 0x271
 6401 04bd 62620000 		.4byte	.LASF639
 6402 04c1 05       		.byte	0x5
 6403 04c2 8F05     		.uleb128 0x28f
 6404 04c4 31560000 		.4byte	.LASF640
 6405 04c8 05       		.byte	0x5
 6406 04c9 9005     		.uleb128 0x290
 6407 04cb 270A0000 		.4byte	.LASF641
 6408 04cf 05       		.byte	0x5
 6409 04d0 9205     		.uleb128 0x292
 6410 04d2 5B400000 		.4byte	.LASF642
 6411 04d6 05       		.byte	0x5
 6412 04d7 9305     		.uleb128 0x293
 6413 04d9 18080000 		.4byte	.LASF643
 6414 04dd 05       		.byte	0x5
 6415 04de 9505     		.uleb128 0x295
 6416 04e0 14210000 		.4byte	.LASF644
 6417 04e4 05       		.byte	0x5
 6418 04e5 9605     		.uleb128 0x296
 6419 04e7 6E510000 		.4byte	.LASF645
 6420 04eb 05       		.byte	0x5
 6421 04ec 9905     		.uleb128 0x299
 6422 04ee BA710000 		.4byte	.LASF646
 6423 04f2 05       		.byte	0x5
 6424 04f3 9A05     		.uleb128 0x29a
 6425 04f5 5F1B0000 		.4byte	.LASF647
 6426 04f9 05       		.byte	0x5
 6427 04fa 9C05     		.uleb128 0x29c
 6428 04fc C2320000 		.4byte	.LASF648
 6429 0500 05       		.byte	0x5
 6430 0501 9D05     		.uleb128 0x29d
 6431 0503 28280000 		.4byte	.LASF649
 6432 0507 05       		.byte	0x5
 6433 0508 9F05     		.uleb128 0x29f
 6434 050a 25790000 		.4byte	.LASF650
 6435 050e 05       		.byte	0x5
 6436 050f A005     		.uleb128 0x2a0
 6437 0511 053B0000 		.4byte	.LASF651
 6438 0515 05       		.byte	0x5
 6439 0516 A305     		.uleb128 0x2a3
 6440 0518 A5620000 		.4byte	.LASF652
 6441 051c 05       		.byte	0x5
 6442 051d A405     		.uleb128 0x2a4
 6443 051f 14300000 		.4byte	.LASF653
 6444 0523 05       		.byte	0x5
 6445 0524 A705     		.uleb128 0x2a7
ARM GAS  C:\Users\COSMIN~1.MAR\AppData\Local\Temp\ccJVXHYk.s 			page 127


 6446 0526 4E620000 		.4byte	.LASF654
 6447 052a 05       		.byte	0x5
 6448 052b A805     		.uleb128 0x2a8
 6449 052d 3E2E0000 		.4byte	.LASF655
 6450 0531 05       		.byte	0x5
 6451 0532 AA05     		.uleb128 0x2aa
 6452 0534 9B690000 		.4byte	.LASF656
 6453 0538 05       		.byte	0x5
 6454 0539 AB05     		.uleb128 0x2ab
 6455 053b C53C0000 		.4byte	.LASF657
 6456 053f 05       		.byte	0x5
 6457 0540 AD05     		.uleb128 0x2ad
 6458 0542 12510000 		.4byte	.LASF658
 6459 0546 05       		.byte	0x5
 6460 0547 AE05     		.uleb128 0x2ae
 6461 0549 96750000 		.4byte	.LASF659
 6462 054d 05       		.byte	0x5
 6463 054e B105     		.uleb128 0x2b1
 6464 0550 DD000000 		.4byte	.LASF660
 6465 0554 05       		.byte	0x5
 6466 0555 B205     		.uleb128 0x2b2
 6467 0557 66740000 		.4byte	.LASF661
 6468 055b 05       		.byte	0x5
 6469 055c B405     		.uleb128 0x2b4
 6470 055e F7600000 		.4byte	.LASF662
 6471 0562 05       		.byte	0x5
 6472 0563 B505     		.uleb128 0x2b5
 6473 0565 FB5A0000 		.4byte	.LASF663
 6474 0569 05       		.byte	0x5
 6475 056a B705     		.uleb128 0x2b7
 6476 056c 06670000 		.4byte	.LASF664
 6477 0570 05       		.byte	0x5
 6478 0571 B805     		.uleb128 0x2b8
 6479 0573 86180000 		.4byte	.LASF665
 6480 0577 05       		.byte	0x5
 6481 0578 BA05     		.uleb128 0x2ba
 6482 057a 85090000 		.4byte	.LASF666
 6483 057e 05       		.byte	0x5
 6484 057f BB05     		.uleb128 0x2bb
 6485 0581 0E250000 		.4byte	.LASF667
 6486 0585 05       		.byte	0x5
 6487 0586 BD05     		.uleb128 0x2bd
 6488 0588 B1200000 		.4byte	.LASF668
 6489 058c 05       		.byte	0x5
 6490 058d BE05     		.uleb128 0x2be
 6491 058f F4340000 		.4byte	.LASF669
 6492 0593 05       		.byte	0x5
 6493 0594 C005     		.uleb128 0x2c0
 6494 0596 E44D0000 		.4byte	.LASF670
 6495 059a 05       		.byte	0x5
 6496 059b C105     		.uleb128 0x2c1
 6497 059d BF550000 		.4byte	.LASF671
 6498 05a1 05       		.byte	0x5
 6499 05a2 C305     		.uleb128 0x2c3
 6500 05a4 CD670000 		.4byte	.LASF672
 6501 05a8 05       		.byte	0x5
 6502 05a9 C405     		.uleb128 0x2c4
ARM GAS  C:\Users\COSMIN~1.MAR\AppData\Local\Temp\ccJVXHYk.s 			page 128


 6503 05ab 45340000 		.4byte	.LASF673
 6504 05af 05       		.byte	0x5
 6505 05b0 C605     		.uleb128 0x2c6
 6506 05b2 47600000 		.4byte	.LASF674
 6507 05b6 05       		.byte	0x5
 6508 05b7 C705     		.uleb128 0x2c7
 6509 05b9 653F0000 		.4byte	.LASF675
 6510 05bd 05       		.byte	0x5
 6511 05be C905     		.uleb128 0x2c9
 6512 05c0 7F570000 		.4byte	.LASF676
 6513 05c4 05       		.byte	0x5
 6514 05c5 CA05     		.uleb128 0x2ca
 6515 05c7 15030000 		.4byte	.LASF677
 6516 05cb 05       		.byte	0x5
 6517 05cc E105     		.uleb128 0x2e1
 6518 05ce 7D690000 		.4byte	.LASF678
 6519 05d2 05       		.byte	0x5
 6520 05d3 E205     		.uleb128 0x2e2
 6521 05d5 46700000 		.4byte	.LASF679
 6522 05d9 05       		.byte	0x5
 6523 05da E405     		.uleb128 0x2e4
 6524 05dc 572C0000 		.4byte	.LASF680
 6525 05e0 05       		.byte	0x5
 6526 05e1 E505     		.uleb128 0x2e5
 6527 05e3 6D760000 		.4byte	.LASF681
 6528 05e7 05       		.byte	0x5
 6529 05e8 E705     		.uleb128 0x2e7
 6530 05ea 356E0000 		.4byte	.LASF682
 6531 05ee 05       		.byte	0x5
 6532 05ef E805     		.uleb128 0x2e8
 6533 05f1 EE570000 		.4byte	.LASF683
 6534 05f5 05       		.byte	0x5
 6535 05f6 EA05     		.uleb128 0x2ea
 6536 05f8 495C0000 		.4byte	.LASF684
 6537 05fc 05       		.byte	0x5
 6538 05fd EB05     		.uleb128 0x2eb
 6539 05ff 29370000 		.4byte	.LASF685
 6540 0603 05       		.byte	0x5
 6541 0604 ED05     		.uleb128 0x2ed
 6542 0606 F2670000 		.4byte	.LASF686
 6543 060a 05       		.byte	0x5
 6544 060b EE05     		.uleb128 0x2ee
 6545 060d 41440000 		.4byte	.LASF687
 6546 0611 05       		.byte	0x5
 6547 0612 F005     		.uleb128 0x2f0
 6548 0614 30620000 		.4byte	.LASF688
 6549 0618 05       		.byte	0x5
 6550 0619 F105     		.uleb128 0x2f1
 6551 061b 1B6A0000 		.4byte	.LASF689
 6552 061f 05       		.byte	0x5
 6553 0620 F305     		.uleb128 0x2f3
 6554 0622 98730000 		.4byte	.LASF690
 6555 0626 05       		.byte	0x5
 6556 0627 F405     		.uleb128 0x2f4
 6557 0629 3B480000 		.4byte	.LASF691
 6558 062d 05       		.byte	0x5
 6559 062e F605     		.uleb128 0x2f6
ARM GAS  C:\Users\COSMIN~1.MAR\AppData\Local\Temp\ccJVXHYk.s 			page 129


 6560 0630 3C760000 		.4byte	.LASF692
 6561 0634 05       		.byte	0x5
 6562 0635 F705     		.uleb128 0x2f7
 6563 0637 D3100000 		.4byte	.LASF693
 6564 063b 05       		.byte	0x5
 6565 063c F905     		.uleb128 0x2f9
 6566 063e B1230000 		.4byte	.LASF694
 6567 0642 05       		.byte	0x5
 6568 0643 FA05     		.uleb128 0x2fa
 6569 0645 781A0000 		.4byte	.LASF695
 6570 0649 05       		.byte	0x5
 6571 064a FC05     		.uleb128 0x2fc
 6572 064c 32610000 		.4byte	.LASF696
 6573 0650 05       		.byte	0x5
 6574 0651 FD05     		.uleb128 0x2fd
 6575 0653 2B190000 		.4byte	.LASF697
 6576 0657 05       		.byte	0x5
 6577 0658 FF05     		.uleb128 0x2ff
 6578 065a 4A6C0000 		.4byte	.LASF698
 6579 065e 05       		.byte	0x5
 6580 065f 8006     		.uleb128 0x300
 6581 0661 36130000 		.4byte	.LASF699
 6582 0665 05       		.byte	0x5
 6583 0666 8206     		.uleb128 0x302
 6584 0668 3F720000 		.4byte	.LASF700
 6585 066c 05       		.byte	0x5
 6586 066d 8306     		.uleb128 0x303
 6587 066f 942D0000 		.4byte	.LASF701
 6588 0673 05       		.byte	0x5
 6589 0674 8606     		.uleb128 0x306
 6590 0676 B15A0000 		.4byte	.LASF702
 6591 067a 05       		.byte	0x5
 6592 067b 8706     		.uleb128 0x307
 6593 067d 182C0000 		.4byte	.LASF703
 6594 0681 05       		.byte	0x5
 6595 0682 8906     		.uleb128 0x309
 6596 0684 03690000 		.4byte	.LASF704
 6597 0688 05       		.byte	0x5
 6598 0689 8A06     		.uleb128 0x30a
 6599 068b F21C0000 		.4byte	.LASF705
 6600 068f 05       		.byte	0x5
 6601 0690 8D06     		.uleb128 0x30d
 6602 0692 620C0000 		.4byte	.LASF706
 6603 0696 05       		.byte	0x5
 6604 0697 8E06     		.uleb128 0x30e
 6605 0699 654D0000 		.4byte	.LASF707
 6606 069d 05       		.byte	0x5
 6607 069e 9006     		.uleb128 0x310
 6608 06a0 591A0000 		.4byte	.LASF708
 6609 06a4 05       		.byte	0x5
 6610 06a5 9106     		.uleb128 0x311
 6611 06a7 BA620000 		.4byte	.LASF709
 6612 06ab 05       		.byte	0x5
 6613 06ac 9306     		.uleb128 0x313
 6614 06ae 2C150000 		.4byte	.LASF710
 6615 06b2 05       		.byte	0x5
 6616 06b3 9406     		.uleb128 0x314
ARM GAS  C:\Users\COSMIN~1.MAR\AppData\Local\Temp\ccJVXHYk.s 			page 130


 6617 06b5 84530000 		.4byte	.LASF711
 6618 06b9 05       		.byte	0x5
 6619 06ba 9606     		.uleb128 0x316
 6620 06bc 3C750000 		.4byte	.LASF712
 6621 06c0 05       		.byte	0x5
 6622 06c1 9706     		.uleb128 0x317
 6623 06c3 5D0D0000 		.4byte	.LASF713
 6624 06c7 05       		.byte	0x5
 6625 06c8 9906     		.uleb128 0x319
 6626 06ca 91450000 		.4byte	.LASF714
 6627 06ce 05       		.byte	0x5
 6628 06cf 9A06     		.uleb128 0x31a
 6629 06d1 BB0A0000 		.4byte	.LASF715
 6630 06d5 05       		.byte	0x5
 6631 06d6 9C06     		.uleb128 0x31c
 6632 06d8 5C150000 		.4byte	.LASF716
 6633 06dc 05       		.byte	0x5
 6634 06dd 9D06     		.uleb128 0x31d
 6635 06df 42630000 		.4byte	.LASF717
 6636 06e3 05       		.byte	0x5
 6637 06e4 9F06     		.uleb128 0x31f
 6638 06e6 422B0000 		.4byte	.LASF718
 6639 06ea 05       		.byte	0x5
 6640 06eb A006     		.uleb128 0x320
 6641 06ed 511F0000 		.4byte	.LASF719
 6642 06f1 05       		.byte	0x5
 6643 06f2 A206     		.uleb128 0x322
 6644 06f4 3B4B0000 		.4byte	.LASF720
 6645 06f8 05       		.byte	0x5
 6646 06f9 A306     		.uleb128 0x323
 6647 06fb AE400000 		.4byte	.LASF721
 6648 06ff 05       		.byte	0x5
 6649 0700 A506     		.uleb128 0x325
 6650 0702 5B230000 		.4byte	.LASF722
 6651 0706 05       		.byte	0x5
 6652 0707 A606     		.uleb128 0x326
 6653 0709 0D320000 		.4byte	.LASF723
 6654 070d 05       		.byte	0x5
 6655 070e A806     		.uleb128 0x328
 6656 0710 995D0000 		.4byte	.LASF724
 6657 0714 05       		.byte	0x5
 6658 0715 A906     		.uleb128 0x329
 6659 0717 001A0000 		.4byte	.LASF725
 6660 071b 05       		.byte	0x5
 6661 071c AB06     		.uleb128 0x32b
 6662 071e 3F500000 		.4byte	.LASF726
 6663 0722 05       		.byte	0x5
 6664 0723 AC06     		.uleb128 0x32c
 6665 0725 ED220000 		.4byte	.LASF727
 6666 0729 05       		.byte	0x5
 6667 072a AE06     		.uleb128 0x32e
 6668 072c 48020000 		.4byte	.LASF728
 6669 0730 05       		.byte	0x5
 6670 0731 AF06     		.uleb128 0x32f
 6671 0733 ED610000 		.4byte	.LASF729
 6672 0737 05       		.byte	0x5
 6673 0738 B106     		.uleb128 0x331
ARM GAS  C:\Users\COSMIN~1.MAR\AppData\Local\Temp\ccJVXHYk.s 			page 131


 6674 073a D26A0000 		.4byte	.LASF730
 6675 073e 05       		.byte	0x5
 6676 073f B206     		.uleb128 0x332
 6677 0741 C9470000 		.4byte	.LASF731
 6678 0745 05       		.byte	0x5
 6679 0746 BC06     		.uleb128 0x33c
 6680 0748 26040000 		.4byte	.LASF732
 6681 074c 05       		.byte	0x5
 6682 074d BD06     		.uleb128 0x33d
 6683 074f 37460000 		.4byte	.LASF733
 6684 0753 05       		.byte	0x5
 6685 0754 BE06     		.uleb128 0x33e
 6686 0756 F7080000 		.4byte	.LASF734
 6687 075a 05       		.byte	0x5
 6688 075b BF06     		.uleb128 0x33f
 6689 075d CC3A0000 		.4byte	.LASF735
 6690 0761 05       		.byte	0x5
 6691 0762 C006     		.uleb128 0x340
 6692 0764 A04F0000 		.4byte	.LASF736
 6693 0768 05       		.byte	0x5
 6694 0769 C106     		.uleb128 0x341
 6695 076b 4E160000 		.4byte	.LASF737
 6696 076f 05       		.byte	0x5
 6697 0770 C306     		.uleb128 0x343
 6698 0772 695D0000 		.4byte	.LASF738
 6699 0776 05       		.byte	0x5
 6700 0777 C406     		.uleb128 0x344
 6701 0779 2C210000 		.4byte	.LASF739
 6702 077d 05       		.byte	0x5
 6703 077e C506     		.uleb128 0x345
 6704 0780 06400000 		.4byte	.LASF740
 6705 0784 05       		.byte	0x5
 6706 0785 C606     		.uleb128 0x346
 6707 0787 BB040000 		.4byte	.LASF741
 6708 078b 05       		.byte	0x5
 6709 078c C706     		.uleb128 0x347
 6710 078e 313F0000 		.4byte	.LASF742
 6711 0792 05       		.byte	0x5
 6712 0793 C806     		.uleb128 0x348
 6713 0795 EF3E0000 		.4byte	.LASF743
 6714 0799 05       		.byte	0x5
 6715 079a CB06     		.uleb128 0x34b
 6716 079c AD4B0000 		.4byte	.LASF744
 6717 07a0 05       		.byte	0x5
 6718 07a1 CC06     		.uleb128 0x34c
 6719 07a3 6F4F0000 		.4byte	.LASF745
 6720 07a7 05       		.byte	0x5
 6721 07a8 8309     		.uleb128 0x483
 6722 07aa 953F0000 		.4byte	.LASF746
 6723 07ae 00       		.byte	0
 6724              		.section	.debug_macro,"G",%progbits,wm4.LPC17xx.h.953.77a3a85f2f7c5b921d480655a6f3d5b1,comdat
 6725              	.Ldebug_macro10:
 6726 0000 0400     		.2byte	0x4
 6727 0002 00       		.byte	0
 6728 0003 05       		.byte	0x5
 6729 0004 B907     		.uleb128 0x3b9
 6730 0006 A1550000 		.4byte	.LASF748
ARM GAS  C:\Users\COSMIN~1.MAR\AppData\Local\Temp\ccJVXHYk.s 			page 132


 6731 000a 05       		.byte	0x5
 6732 000b BA07     		.uleb128 0x3ba
 6733 000d 65310000 		.4byte	.LASF749
 6734 0011 05       		.byte	0x5
 6735 0012 BF07     		.uleb128 0x3bf
 6736 0014 5B4B0000 		.4byte	.LASF750
 6737 0018 05       		.byte	0x5
 6738 0019 C007     		.uleb128 0x3c0
 6739 001b C4130000 		.4byte	.LASF751
 6740 001f 05       		.byte	0x5
 6741 0020 C207     		.uleb128 0x3c2
 6742 0022 78050000 		.4byte	.LASF752
 6743 0026 05       		.byte	0x5
 6744 0027 C307     		.uleb128 0x3c3
 6745 0029 E3700000 		.4byte	.LASF753
 6746 002d 05       		.byte	0x5
 6747 002e C407     		.uleb128 0x3c4
 6748 0030 9C1D0000 		.4byte	.LASF754
 6749 0034 05       		.byte	0x5
 6750 0035 C507     		.uleb128 0x3c5
 6751 0037 06160000 		.4byte	.LASF755
 6752 003b 05       		.byte	0x5
 6753 003c C607     		.uleb128 0x3c6
 6754 003e CC600000 		.4byte	.LASF756
 6755 0042 05       		.byte	0x5
 6756 0043 C907     		.uleb128 0x3c9
 6757 0045 695C0000 		.4byte	.LASF757
 6758 0049 05       		.byte	0x5
 6759 004a CA07     		.uleb128 0x3ca
 6760 004c 770A0000 		.4byte	.LASF758
 6761 0050 05       		.byte	0x5
 6762 0051 CB07     		.uleb128 0x3cb
 6763 0053 D5360000 		.4byte	.LASF759
 6764 0057 05       		.byte	0x5
 6765 0058 CC07     		.uleb128 0x3cc
 6766 005a 8F170000 		.4byte	.LASF760
 6767 005e 05       		.byte	0x5
 6768 005f CD07     		.uleb128 0x3cd
 6769 0061 A33A0000 		.4byte	.LASF761
 6770 0065 05       		.byte	0x5
 6771 0066 CE07     		.uleb128 0x3ce
 6772 0068 615B0000 		.4byte	.LASF762
 6773 006c 05       		.byte	0x5
 6774 006d CF07     		.uleb128 0x3cf
 6775 006f 2C2D0000 		.4byte	.LASF763
 6776 0073 05       		.byte	0x5
 6777 0074 D007     		.uleb128 0x3d0
 6778 0076 95300000 		.4byte	.LASF764
 6779 007a 05       		.byte	0x5
 6780 007b D107     		.uleb128 0x3d1
 6781 007d 34230000 		.4byte	.LASF765
 6782 0081 05       		.byte	0x5
 6783 0082 D207     		.uleb128 0x3d2
 6784 0084 23010000 		.4byte	.LASF766
 6785 0088 05       		.byte	0x5
 6786 0089 D307     		.uleb128 0x3d3
 6787 008b A4640000 		.4byte	.LASF767
ARM GAS  C:\Users\COSMIN~1.MAR\AppData\Local\Temp\ccJVXHYk.s 			page 133


 6788 008f 05       		.byte	0x5
 6789 0090 D407     		.uleb128 0x3d4
 6790 0092 C04F0000 		.4byte	.LASF768
 6791 0096 05       		.byte	0x5
 6792 0097 D507     		.uleb128 0x3d5
 6793 0099 3B0C0000 		.4byte	.LASF769
 6794 009d 05       		.byte	0x5
 6795 009e D607     		.uleb128 0x3d6
 6796 00a0 50350000 		.4byte	.LASF770
 6797 00a4 05       		.byte	0x5
 6798 00a5 D707     		.uleb128 0x3d7
 6799 00a7 F45E0000 		.4byte	.LASF771
 6800 00ab 05       		.byte	0x5
 6801 00ac D807     		.uleb128 0x3d8
 6802 00ae 15090000 		.4byte	.LASF772
 6803 00b2 05       		.byte	0x5
 6804 00b3 D907     		.uleb128 0x3d9
 6805 00b5 526F0000 		.4byte	.LASF773
 6806 00b9 05       		.byte	0x5
 6807 00ba DA07     		.uleb128 0x3da
 6808 00bc A2390000 		.4byte	.LASF774
 6809 00c0 05       		.byte	0x5
 6810 00c1 DB07     		.uleb128 0x3db
 6811 00c3 4D430000 		.4byte	.LASF775
 6812 00c7 05       		.byte	0x5
 6813 00c8 DE07     		.uleb128 0x3de
 6814 00ca 54320000 		.4byte	.LASF776
 6815 00ce 05       		.byte	0x5
 6816 00cf DF07     		.uleb128 0x3df
 6817 00d1 41110000 		.4byte	.LASF777
 6818 00d5 05       		.byte	0x5
 6819 00d6 E007     		.uleb128 0x3e0
 6820 00d8 74560000 		.4byte	.LASF778
 6821 00dc 05       		.byte	0x5
 6822 00dd E107     		.uleb128 0x3e1
 6823 00df 371B0000 		.4byte	.LASF779
 6824 00e3 05       		.byte	0x5
 6825 00e4 E207     		.uleb128 0x3e2
 6826 00e6 5D280000 		.4byte	.LASF780
 6827 00ea 05       		.byte	0x5
 6828 00eb E307     		.uleb128 0x3e3
 6829 00ed 7E670000 		.4byte	.LASF781
 6830 00f1 05       		.byte	0x5
 6831 00f2 E407     		.uleb128 0x3e4
 6832 00f4 A3580000 		.4byte	.LASF782
 6833 00f8 05       		.byte	0x5
 6834 00f9 E507     		.uleb128 0x3e5
 6835 00fb 1C520000 		.4byte	.LASF783
 6836 00ff 05       		.byte	0x5
 6837 0100 E607     		.uleb128 0x3e6
 6838 0102 14480000 		.4byte	.LASF784
 6839 0106 05       		.byte	0x5
 6840 0107 E707     		.uleb128 0x3e7
 6841 0109 5A540000 		.4byte	.LASF785
 6842 010d 05       		.byte	0x5
 6843 010e E807     		.uleb128 0x3e8
 6844 0110 023E0000 		.4byte	.LASF786
ARM GAS  C:\Users\COSMIN~1.MAR\AppData\Local\Temp\ccJVXHYk.s 			page 134


 6845 0114 05       		.byte	0x5
 6846 0115 E907     		.uleb128 0x3e9
 6847 0117 D1080000 		.4byte	.LASF787
 6848 011b 05       		.byte	0x5
 6849 011c EC07     		.uleb128 0x3ec
 6850 011e 7B390000 		.4byte	.LASF788
 6851 0122 05       		.byte	0x5
 6852 0123 ED07     		.uleb128 0x3ed
 6853 0125 1D5F0000 		.4byte	.LASF789
 6854 0129 05       		.byte	0x5
 6855 012a EE07     		.uleb128 0x3ee
 6856 012c 46300000 		.4byte	.LASF790
 6857 0130 05       		.byte	0x5
 6858 0131 EF07     		.uleb128 0x3ef
 6859 0133 3F690000 		.4byte	.LASF791
 6860 0137 05       		.byte	0x5
 6861 0138 F007     		.uleb128 0x3f0
 6862 013a 47290000 		.4byte	.LASF792
 6863 013e 05       		.byte	0x5
 6864 013f F107     		.uleb128 0x3f1
 6865 0141 49560000 		.4byte	.LASF793
 6866 0145 05       		.byte	0x5
 6867 0146 F207     		.uleb128 0x3f2
 6868 0148 AC220000 		.4byte	.LASF794
 6869 014c 05       		.byte	0x5
 6870 014d F307     		.uleb128 0x3f3
 6871 014f 5F040000 		.4byte	.LASF795
 6872 0153 05       		.byte	0x5
 6873 0154 F407     		.uleb128 0x3f4
 6874 0156 9B100000 		.4byte	.LASF796
 6875 015a 05       		.byte	0x5
 6876 015b F507     		.uleb128 0x3f5
 6877 015d B40D0000 		.4byte	.LASF797
 6878 0161 05       		.byte	0x5
 6879 0162 F607     		.uleb128 0x3f6
 6880 0164 35410000 		.4byte	.LASF798
 6881 0168 05       		.byte	0x5
 6882 0169 F907     		.uleb128 0x3f9
 6883 016b 0A440000 		.4byte	.LASF799
 6884 016f 05       		.byte	0x5
 6885 0170 FA07     		.uleb128 0x3fa
 6886 0172 B5440000 		.4byte	.LASF800
 6887 0176 05       		.byte	0x5
 6888 0177 FB07     		.uleb128 0x3fb
 6889 0179 95240000 		.4byte	.LASF801
 6890 017d 05       		.byte	0x5
 6891 017e FC07     		.uleb128 0x3fc
 6892 0180 57790000 		.4byte	.LASF802
 6893 0184 05       		.byte	0x5
 6894 0185 FD07     		.uleb128 0x3fd
 6895 0187 9C5F0000 		.4byte	.LASF803
 6896 018b 05       		.byte	0x5
 6897 018c 8208     		.uleb128 0x402
 6898 018e 905C0000 		.4byte	.LASF804
 6899 0192 05       		.byte	0x5
 6900 0193 8308     		.uleb128 0x403
 6901 0195 86460000 		.4byte	.LASF805
ARM GAS  C:\Users\COSMIN~1.MAR\AppData\Local\Temp\ccJVXHYk.s 			page 135


 6902 0199 05       		.byte	0x5
 6903 019a 8408     		.uleb128 0x404
 6904 019c F30E0000 		.4byte	.LASF806
 6905 01a0 05       		.byte	0x5
 6906 01a1 8508     		.uleb128 0x405
 6907 01a3 344D0000 		.4byte	.LASF807
 6908 01a7 05       		.byte	0x5
 6909 01a8 8608     		.uleb128 0x406
 6910 01aa 2C0D0000 		.4byte	.LASF808
 6911 01ae 05       		.byte	0x5
 6912 01af 8708     		.uleb128 0x407
 6913 01b1 35250000 		.4byte	.LASF809
 6914 01b5 05       		.byte	0x5
 6915 01b6 8808     		.uleb128 0x408
 6916 01b8 98130000 		.4byte	.LASF810
 6917 01bc 05       		.byte	0x5
 6918 01bd 8908     		.uleb128 0x409
 6919 01bf AB350000 		.4byte	.LASF811
 6920 01c3 05       		.byte	0x5
 6921 01c4 8A08     		.uleb128 0x40a
 6922 01c6 1F590000 		.4byte	.LASF812
 6923 01ca 05       		.byte	0x5
 6924 01cb 8B08     		.uleb128 0x40b
 6925 01cd E4480000 		.4byte	.LASF813
 6926 01d1 05       		.byte	0x5
 6927 01d2 8C08     		.uleb128 0x40c
 6928 01d4 6B070000 		.4byte	.LASF814
 6929 01d8 05       		.byte	0x5
 6930 01d9 8D08     		.uleb128 0x40d
 6931 01db F9420000 		.4byte	.LASF815
 6932 01df 05       		.byte	0x5
 6933 01e0 8E08     		.uleb128 0x40e
 6934 01e2 05310000 		.4byte	.LASF816
 6935 01e6 05       		.byte	0x5
 6936 01e7 8F08     		.uleb128 0x40f
 6937 01e9 31530000 		.4byte	.LASF817
 6938 01ed 05       		.byte	0x5
 6939 01ee 9008     		.uleb128 0x410
 6940 01f0 D8290000 		.4byte	.LASF818
 6941 01f4 05       		.byte	0x5
 6942 01f5 9108     		.uleb128 0x411
 6943 01f7 D1210000 		.4byte	.LASF819
 6944 01fb 05       		.byte	0x5
 6945 01fc 9208     		.uleb128 0x412
 6946 01fe CB430000 		.4byte	.LASF820
 6947 0202 05       		.byte	0x5
 6948 0203 9308     		.uleb128 0x413
 6949 0205 E31D0000 		.4byte	.LASF821
 6950 0209 05       		.byte	0x5
 6951 020a 9408     		.uleb128 0x414
 6952 020c 491E0000 		.4byte	.LASF822
 6953 0210 05       		.byte	0x5
 6954 0211 9508     		.uleb128 0x415
 6955 0213 A96F0000 		.4byte	.LASF823
 6956 0217 05       		.byte	0x5
 6957 0218 9608     		.uleb128 0x416
 6958 021a FB620000 		.4byte	.LASF824
ARM GAS  C:\Users\COSMIN~1.MAR\AppData\Local\Temp\ccJVXHYk.s 			page 136


 6959 021e 05       		.byte	0x5
 6960 021f 9708     		.uleb128 0x417
 6961 0221 02540000 		.4byte	.LASF825
 6962 0225 05       		.byte	0x5
 6963 0226 9808     		.uleb128 0x418
 6964 0228 AD260000 		.4byte	.LASF826
 6965 022c 05       		.byte	0x5
 6966 022d 9908     		.uleb128 0x419
 6967 022f 75260000 		.4byte	.LASF827
 6968 0233 05       		.byte	0x5
 6969 0234 9A08     		.uleb128 0x41a
 6970 0236 77270000 		.4byte	.LASF828
 6971 023a 05       		.byte	0x5
 6972 023b 9B08     		.uleb128 0x41b
 6973 023d 93700000 		.4byte	.LASF829
 6974 0241 05       		.byte	0x5
 6975 0242 9C08     		.uleb128 0x41c
 6976 0244 5B410000 		.4byte	.LASF830
 6977 0248 05       		.byte	0x5
 6978 0249 9D08     		.uleb128 0x41d
 6979 024b C9170000 		.4byte	.LASF831
 6980 024f 05       		.byte	0x5
 6981 0250 9E08     		.uleb128 0x41e
 6982 0252 686A0000 		.4byte	.LASF832
 6983 0256 05       		.byte	0x5
 6984 0257 9F08     		.uleb128 0x41f
 6985 0259 43060000 		.4byte	.LASF833
 6986 025d 05       		.byte	0x5
 6987 025e A008     		.uleb128 0x420
 6988 0260 B8070000 		.4byte	.LASF834
 6989 0264 05       		.byte	0x5
 6990 0265 A108     		.uleb128 0x421
 6991 0267 F12E0000 		.4byte	.LASF835
 6992 026b 05       		.byte	0x5
 6993 026c A208     		.uleb128 0x422
 6994 026e 835A0000 		.4byte	.LASF836
 6995 0272 05       		.byte	0x5
 6996 0273 A308     		.uleb128 0x423
 6997 0275 7D350000 		.4byte	.LASF837
 6998 0279 05       		.byte	0x5
 6999 027a A408     		.uleb128 0x424
 7000 027c D91A0000 		.4byte	.LASF838
 7001 0280 05       		.byte	0x5
 7002 0281 A508     		.uleb128 0x425
 7003 0283 0B1B0000 		.4byte	.LASF839
 7004 0287 05       		.byte	0x5
 7005 0288 A608     		.uleb128 0x426
 7006 028a 981B0000 		.4byte	.LASF840
 7007 028e 05       		.byte	0x5
 7008 028f A708     		.uleb128 0x427
 7009 0291 F43C0000 		.4byte	.LASF841
 7010 0295 05       		.byte	0x5
 7011 0296 A808     		.uleb128 0x428
 7012 0298 4D780000 		.4byte	.LASF842
 7013 029c 05       		.byte	0x5
 7014 029d A908     		.uleb128 0x429
 7015 029f 1A670000 		.4byte	.LASF843
ARM GAS  C:\Users\COSMIN~1.MAR\AppData\Local\Temp\ccJVXHYk.s 			page 137


 7016 02a3 05       		.byte	0x5
 7017 02a4 AA08     		.uleb128 0x42a
 7018 02a6 95790000 		.4byte	.LASF844
 7019 02aa 05       		.byte	0x5
 7020 02ab AB08     		.uleb128 0x42b
 7021 02ad 77200000 		.4byte	.LASF845
 7022 02b1 05       		.byte	0x5
 7023 02b2 AC08     		.uleb128 0x42c
 7024 02b4 CE330000 		.4byte	.LASF846
 7025 02b8 05       		.byte	0x5
 7026 02b9 AD08     		.uleb128 0x42d
 7027 02bb 0D600000 		.4byte	.LASF847
 7028 02bf 05       		.byte	0x5
 7029 02c0 AE08     		.uleb128 0x42e
 7030 02c2 D35F0000 		.4byte	.LASF848
 7031 02c6 05       		.byte	0x5
 7032 02c7 AF08     		.uleb128 0x42f
 7033 02c9 5C750000 		.4byte	.LASF849
 7034 02cd 05       		.byte	0x5
 7035 02ce B008     		.uleb128 0x430
 7036 02d0 F20C0000 		.4byte	.LASF850
 7037 02d4 05       		.byte	0x5
 7038 02d5 B108     		.uleb128 0x431
 7039 02d7 7C320000 		.4byte	.LASF851
 7040 02db 00       		.byte	0
 7041              		.section	.debug_macro,"G",%progbits,wm4.lpc_types.h.31.fe468f0c170b3f2fb639f9a689afb2c4,comdat
 7042              	.Ldebug_macro11:
 7043 0000 0400     		.2byte	0x4
 7044 0002 00       		.byte	0
 7045 0003 05       		.byte	0x5
 7046 0004 1F       		.uleb128 0x1f
 7047 0005 DB750000 		.4byte	.LASF852
 7048 0009 05       		.byte	0x5
 7049 000a 33       		.uleb128 0x33
 7050 000b 6C580000 		.4byte	.LASF853
 7051 000f 05       		.byte	0x5
 7052 0010 39       		.uleb128 0x39
 7053 0011 B42C0000 		.4byte	.LASF854
 7054 0015 06       		.byte	0x6
 7055 0016 5F       		.uleb128 0x5f
 7056 0017 F0630000 		.4byte	.LASF855
 7057 001b 05       		.byte	0x5
 7058 001c 61       		.uleb128 0x61
 7059 001d B7520000 		.4byte	.LASF856
 7060 0021 06       		.byte	0x6
 7061 0022 67       		.uleb128 0x67
 7062 0023 C82B0000 		.4byte	.LASF857
 7063 0027 05       		.byte	0x5
 7064 0028 69       		.uleb128 0x69
 7065 0029 A7290000 		.4byte	.LASF858
 7066 002d 06       		.byte	0x6
 7067 002e 78       		.uleb128 0x78
 7068 002f F06F0000 		.4byte	.LASF859
 7069 0033 05       		.byte	0x5
 7070 0034 7A       		.uleb128 0x7a
 7071 0035 586E0000 		.4byte	.LASF860
 7072 0039 05       		.byte	0x5
ARM GAS  C:\Users\COSMIN~1.MAR\AppData\Local\Temp\ccJVXHYk.s 			page 138


 7073 003a 7E       		.uleb128 0x7e
 7074 003b F9430000 		.4byte	.LASF861
 7075 003f 05       		.byte	0x5
 7076 0040 8201     		.uleb128 0x82
 7077 0042 1C710000 		.4byte	.LASF862
 7078 0046 05       		.byte	0x5
 7079 0047 8501     		.uleb128 0x85
 7080 0049 D2230000 		.4byte	.LASF863
 7081 004d 05       		.byte	0x5
 7082 004e 8701     		.uleb128 0x87
 7083 0050 BF3B0000 		.4byte	.LASF864
 7084 0054 00       		.byte	0
 7085              		.section	.debug_macro,"G",%progbits,wm4.lpc17xx_gpio.h.46.bb938143fd7eb0f6afd2eec72bcfb190,comdat
 7086              	.Ldebug_macro12:
 7087 0000 0400     		.2byte	0x4
 7088 0002 00       		.byte	0
 7089 0003 05       		.byte	0x5
 7090 0004 2E       		.uleb128 0x2e
 7091 0005 07640000 		.4byte	.LASF865
 7092 0009 05       		.byte	0x5
 7093 000a 30       		.uleb128 0x30
 7094 000b 82770000 		.4byte	.LASF866
 7095 000f 05       		.byte	0x5
 7096 0010 32       		.uleb128 0x32
 7097 0011 B95D0000 		.4byte	.LASF867
 7098 0015 05       		.byte	0x5
 7099 0016 34       		.uleb128 0x34
 7100 0017 AC1F0000 		.4byte	.LASF868
 7101 001b 05       		.byte	0x5
 7102 001c 36       		.uleb128 0x36
 7103 001d 43490000 		.4byte	.LASF869
 7104 0021 05       		.byte	0x5
 7105 0022 3A       		.uleb128 0x3a
 7106 0023 293C0000 		.4byte	.LASF870
 7107 0027 05       		.byte	0x5
 7108 0028 3C       		.uleb128 0x3c
 7109 0029 78500000 		.4byte	.LASF871
 7110 002d 05       		.byte	0x5
 7111 002e 3E       		.uleb128 0x3e
 7112 002f F0180000 		.4byte	.LASF872
 7113 0033 05       		.byte	0x5
 7114 0034 40       		.uleb128 0x40
 7115 0035 C7530000 		.4byte	.LASF873
 7116 0039 05       		.byte	0x5
 7117 003a 42       		.uleb128 0x42
 7118 003b CB6D0000 		.4byte	.LASF874
 7119 003f 00       		.byte	0
 7120              		.section	.debug_macro,"G",%progbits,wm4.lpc17xx_libcfg_default.h.27.7c412cdf4245ef94b86bdcf981a232
 7121              	.Ldebug_macro13:
 7122 0000 0400     		.2byte	0x4
 7123 0002 00       		.byte	0
 7124 0003 05       		.byte	0x5
 7125 0004 1B       		.uleb128 0x1b
 7126 0005 B1600000 		.4byte	.LASF875
 7127 0009 05       		.byte	0x5
 7128 000a 2A       		.uleb128 0x2a
 7129 000b 210E0000 		.4byte	.LASF876
ARM GAS  C:\Users\COSMIN~1.MAR\AppData\Local\Temp\ccJVXHYk.s 			page 139


 7130 000f 05       		.byte	0x5
 7131 0010 32       		.uleb128 0x32
 7132 0011 66510000 		.4byte	.LASF877
 7133 0015 05       		.byte	0x5
 7134 0016 35       		.uleb128 0x35
 7135 0017 7E480000 		.4byte	.LASF878
 7136 001b 05       		.byte	0x5
 7137 001c 36       		.uleb128 0x36
 7138 001d EC410000 		.4byte	.LASF879
 7139 0021 05       		.byte	0x5
 7140 0022 37       		.uleb128 0x37
 7141 0023 BD560000 		.4byte	.LASF880
 7142 0027 05       		.byte	0x5
 7143 0028 38       		.uleb128 0x38
 7144 0029 1A380000 		.4byte	.LASF881
 7145 002d 05       		.byte	0x5
 7146 002e 39       		.uleb128 0x39
 7147 002f 9D0C0000 		.4byte	.LASF882
 7148 0033 05       		.byte	0x5
 7149 0034 3C       		.uleb128 0x3c
 7150 0035 290E0000 		.4byte	.LASF883
 7151 0039 05       		.byte	0x5
 7152 003a 3F       		.uleb128 0x3f
 7153 003b 11750000 		.4byte	.LASF884
 7154 003f 05       		.byte	0x5
 7155 0040 40       		.uleb128 0x40
 7156 0041 124D0000 		.4byte	.LASF885
 7157 0045 05       		.byte	0x5
 7158 0046 41       		.uleb128 0x41
 7159 0047 0A510000 		.4byte	.LASF886
 7160 004b 05       		.byte	0x5
 7161 004c 45       		.uleb128 0x45
 7162 004d FA0A0000 		.4byte	.LASF887
 7163 0051 05       		.byte	0x5
 7164 0052 46       		.uleb128 0x46
 7165 0053 B8290000 		.4byte	.LASF888
 7166 0057 05       		.byte	0x5
 7167 0058 47       		.uleb128 0x47
 7168 0059 D3750000 		.4byte	.LASF889
 7169 005d 05       		.byte	0x5
 7170 005e 48       		.uleb128 0x48
 7171 005f B30A0000 		.4byte	.LASF890
 7172 0063 05       		.byte	0x5
 7173 0064 4B       		.uleb128 0x4b
 7174 0065 AD030000 		.4byte	.LASF891
 7175 0069 05       		.byte	0x5
 7176 006a 4E       		.uleb128 0x4e
 7177 006b 495D0000 		.4byte	.LASF892
 7178 006f 05       		.byte	0x5
 7179 0070 52       		.uleb128 0x52
 7180 0071 8B330000 		.4byte	.LASF893
 7181 0075 05       		.byte	0x5
 7182 0076 56       		.uleb128 0x56
 7183 0077 A33C0000 		.4byte	.LASF894
 7184 007b 05       		.byte	0x5
 7185 007c 59       		.uleb128 0x59
 7186 007d 145D0000 		.4byte	.LASF895
ARM GAS  C:\Users\COSMIN~1.MAR\AppData\Local\Temp\ccJVXHYk.s 			page 140


 7187 0081 05       		.byte	0x5
 7188 0082 5D       		.uleb128 0x5d
 7189 0083 1C010000 		.4byte	.LASF896
 7190 0087 05       		.byte	0x5
 7191 0088 5E       		.uleb128 0x5e
 7192 0089 77140000 		.4byte	.LASF897
 7193 008d 05       		.byte	0x5
 7194 008e 61       		.uleb128 0x61
 7195 008f B0160000 		.4byte	.LASF898
 7196 0093 05       		.byte	0x5
 7197 0094 64       		.uleb128 0x64
 7198 0095 5D4E0000 		.4byte	.LASF899
 7199 0099 05       		.byte	0x5
 7200 009a 67       		.uleb128 0x67
 7201 009b 694C0000 		.4byte	.LASF900
 7202 009f 05       		.byte	0x5
 7203 00a0 68       		.uleb128 0x68
 7204 00a1 40360000 		.4byte	.LASF901
 7205 00a5 05       		.byte	0x5
 7206 00a6 6B       		.uleb128 0x6b
 7207 00a7 064E0000 		.4byte	.LASF902
 7208 00ab 05       		.byte	0x5
 7209 00ac 6E       		.uleb128 0x6e
 7210 00ad 6B2A0000 		.4byte	.LASF903
 7211 00b1 05       		.byte	0x5
 7212 00b2 71       		.uleb128 0x71
 7213 00b3 8F0F0000 		.4byte	.LASF904
 7214 00b7 05       		.byte	0x5
 7215 00b8 74       		.uleb128 0x74
 7216 00b9 FA0F0000 		.4byte	.LASF905
 7217 00bd 05       		.byte	0x5
 7218 00be 77       		.uleb128 0x77
 7219 00bf AD740000 		.4byte	.LASF906
 7220 00c3 05       		.byte	0x5
 7221 00c4 8601     		.uleb128 0x86
 7222 00c6 C6520000 		.4byte	.LASF907
 7223 00ca 00       		.byte	0
 7224              		.section	.debug_line,"",%progbits
 7225              	.Ldebug_line0:
 7226 0000 CC040000 		.section	.debug_str,"MS",%progbits,1
 7226      02000D02 
 7226      00000201 
 7226      FB0E0D00 
 7226      01010101 
 7227              	.LASF464:
 7228 0000 5F5F5553 		.ascii	"__USAT(ARG1,ARG2) ({ uint32_t __RES, __ARG1 = (ARG1"
 7228      41542841 
 7228      5247312C 
 7228      41524732 
 7228      2920287B 
 7229 0033 293B205F 		.ascii	"); __ASM (\"usat %0, %1, %2\" : \"=r\" (__RES) : \""
 7229      5F41534D 
 7229      20282275 
 7229      73617420 
 7229      25302C20 
 7230 0061 49222028 		.ascii	"I\" (ARG2), \"r\" (__ARG1) ); __RES; })\000"
 7230      41524732 
ARM GAS  C:\Users\COSMIN~1.MAR\AppData\Local\Temp\ccJVXHYk.s 			page 141


 7230      292C2022 
 7230      72222028 
 7230      5F5F4152 
 7231              	.LASF995:
 7232 0086 4750494F 		.ascii	"GPIO_ClearValue\000"
 7232      5F436C65 
 7232      61725661 
 7232      6C756500 
 7233              	.LASF157:
 7234 0096 5F5F4445 		.ascii	"__DECIMAL_DIG__ 17\000"
 7234      43494D41 
 7234      4C5F4449 
 7234      475F5F20 
 7234      313700
 7235              	.LASF294:
 7236 00a9 5F5F5548 		.ascii	"__UHA_FBIT__ 8\000"
 7236      415F4642 
 7236      49545F5F 
 7236      203800
 7237              	.LASF1008:
 7238 00b8 46494F5F 		.ascii	"FIO_ClearInt\000"
 7238      436C6561 
 7238      72496E74 
 7238      00
 7239              	.LASF455:
 7240 00c5 494E5433 		.ascii	"INT32_C(x) __INT32_C(x)\000"
 7240      325F4328 
 7240      7829205F 
 7240      5F494E54 
 7240      33325F43 
 7241              	.LASF660:
 7242 00dd 4D50555F 		.ascii	"MPU_RASR_XN_Pos 28\000"
 7242      52415352 
 7242      5F584E5F 
 7242      506F7320 
 7242      323800
 7243              	.LASF1001:
 7244 00f0 4750494F 		.ascii	"GPIO_ClearInt\000"
 7244      5F436C65 
 7244      6172496E 
 7244      7400
 7245              	.LASF110:
 7246 00fe 5F5F494E 		.ascii	"__INT_FAST32_MAX__ 2147483647\000"
 7246      545F4641 
 7246      53543332 
 7246      5F4D4158 
 7246      5F5F2032 
 7247              	.LASF896:
 7248 011c 5F50574D 		.ascii	"_PWM 1\000"
 7248      203100
 7249              	.LASF766:
 7250 0123 4C50435F 		.ascii	"LPC_GPIOINT_BASE (LPC_APB0_BASE + 0x28080)\000"
 7250      4750494F 
 7250      494E545F 
 7250      42415345 
 7250      20284C50 
 7251              	.LASF73:
ARM GAS  C:\Users\COSMIN~1.MAR\AppData\Local\Temp\ccJVXHYk.s 			page 142


 7252 014e 5F5F5743 		.ascii	"__WCHAR_MIN__ 0U\000"
 7252      4841525F 
 7252      4D494E5F 
 7252      5F203055 
 7252      00
 7253              	.LASF314:
 7254 015f 5F5F4743 		.ascii	"__GCC_ATOMIC_WCHAR_T_LOCK_FREE 2\000"
 7254      435F4154 
 7254      4F4D4943 
 7254      5F574348 
 7254      41525F54 
 7255              	.LASF293:
 7256 0180 5F5F5441 		.ascii	"__TA_IBIT__ 64\000"
 7256      5F494249 
 7256      545F5F20 
 7256      363400
 7257              	.LASF532:
 7258 018f 5343425F 		.ascii	"SCB_CCR_NONBASETHRDENA_Pos 0\000"
 7258      4343525F 
 7258      4E4F4E42 
 7258      41534554 
 7258      48524445 
 7259              	.LASF186:
 7260 01ac 5F5F5346 		.ascii	"__SFRACT_FBIT__ 7\000"
 7260      52414354 
 7260      5F464249 
 7260      545F5F20 
 7260      3700
 7261              	.LASF925:
 7262 01be 73697A65 		.ascii	"sizetype\000"
 7262      74797065 
 7262      00
 7263              	.LASF501:
 7264 01c7 5343425F 		.ascii	"SCB_VTOR_TBLOFF_Msk (0x3FFFFFUL << SCB_VTOR_TBLOFF_"
 7264      56544F52 
 7264      5F54424C 
 7264      4F46465F 
 7264      4D736B20 
 7265 01fa 506F7329 		.ascii	"Pos)\000"
 7265      00
 7266              	.LASF71:
 7267 01ff 5F5F4C4F 		.ascii	"__LONG_LONG_MAX__ 9223372036854775807LL\000"
 7267      4E475F4C 
 7267      4F4E475F 
 7267      4D41585F 
 7267      5F203932 
 7268              	.LASF999:
 7269 0227 4750494F 		.ascii	"GPIO_GetIntStatus\000"
 7269      5F476574 
 7269      496E7453 
 7269      74617475 
 7269      7300
 7270              	.LASF1017:
 7271 0239 46494F5F 		.ascii	"FIO_ByteSetDir\000"
 7271      42797465 
 7271      53657444 
 7271      697200
ARM GAS  C:\Users\COSMIN~1.MAR\AppData\Local\Temp\ccJVXHYk.s 			page 143


 7272              	.LASF728:
 7273 0248 436F7265 		.ascii	"CoreDebug_DEMCR_VC_MMERR_Pos 4\000"
 7273      44656275 
 7273      675F4445 
 7273      4D43525F 
 7273      56435F4D 
 7274              	.LASF258:
 7275 0267 5F5F4C4C 		.ascii	"__LLACCUM_MIN__ (-0X1P31LLK-0X1P31LLK)\000"
 7275      41434355 
 7275      4D5F4D49 
 7275      4E5F5F20 
 7275      282D3058 
 7276              	.LASF250:
 7277 028e 5F5F4C41 		.ascii	"__LACCUM_EPSILON__ 0x1P-31LK\000"
 7277      4343554D 
 7277      5F455053 
 7277      494C4F4E 
 7277      5F5F2030 
 7278              	.LASF183:
 7279 02ab 5F5F4445 		.ascii	"__DEC128_MAX__ 9.999999999999999999999999999999999E"
 7279      43313238 
 7279      5F4D4158 
 7279      5F5F2039 
 7279      2E393939 
 7280 02de 36313434 		.ascii	"6144DL\000"
 7280      444C00
 7281              	.LASF566:
 7282 02e5 5343425F 		.ascii	"SCB_CFSR_MEMFAULTSR_Pos 0\000"
 7282      43465352 
 7282      5F4D454D 
 7282      4641554C 
 7282      5453525F 
 7283              	.LASF79:
 7284 02ff 5F5F494E 		.ascii	"__INTMAX_C(c) c ## LL\000"
 7284      544D4158 
 7284      5F432863 
 7284      29206320 
 7284      2323204C 
 7285              	.LASF677:
 7286 0315 4D50555F 		.ascii	"MPU_RASR_ENA_Msk (0x1UL << MPU_RASR_ENA_Pos)\000"
 7286      52415352 
 7286      5F454E41 
 7286      5F4D736B 
 7286      20283078 
 7287              	.LASF244:
 7288 0342 5F5F5541 		.ascii	"__UACCUM_MAX__ 0XFFFFFFFFP-16UK\000"
 7288      4343554D 
 7288      5F4D4158 
 7288      5F5F2030 
 7288      58464646 
 7289              	.LASF171:
 7290 0362 5F5F4445 		.ascii	"__DEC32_SUBNORMAL_MIN__ 0.000001E-95DF\000"
 7290      4333325F 
 7290      5355424E 
 7290      4F524D41 
 7290      4C5F4D49 
 7291              	.LASF275:
ARM GAS  C:\Users\COSMIN~1.MAR\AppData\Local\Temp\ccJVXHYk.s 			page 144


 7292 0389 5F5F5451 		.ascii	"__TQ_IBIT__ 0\000"
 7292      5F494249 
 7292      545F5F20 
 7292      3000
 7293              	.LASF450:
 7294 0397 57494E54 		.ascii	"WINT_MIN __WINT_MIN__\000"
 7294      5F4D494E 
 7294      205F5F57 
 7294      494E545F 
 7294      4D494E5F 
 7295              	.LASF891:
 7296 03ad 5F54494D 		.ascii	"_TIM 1\000"
 7296      203100
 7297              	.LASF513:
 7298 03b4 5343425F 		.ascii	"SCB_AIRCR_VECTCLRACTIVE_Msk (1UL << SCB_AIRCR_VECTC"
 7298      41495243 
 7298      525F5645 
 7298      4354434C 
 7298      52414354 
 7299 03e7 4C524143 		.ascii	"LRACTIVE_Pos)\000"
 7299      54495645 
 7299      5F506F73 
 7299      2900
 7300              	.LASF11:
 7301 03f5 5F5F4154 		.ascii	"__ATOMIC_CONSUME 1\000"
 7301      4F4D4943 
 7301      5F434F4E 
 7301      53554D45 
 7301      203100
 7302              	.LASF208:
 7303 0408 5F5F4C46 		.ascii	"__LFRACT_MIN__ (-0.5LR-0.5LR)\000"
 7303      52414354 
 7303      5F4D494E 
 7303      5F5F2028 
 7303      2D302E35 
 7304              	.LASF732:
 7305 0426 5343535F 		.ascii	"SCS_BASE (0xE000E000UL)\000"
 7305      42415345 
 7305      20283078 
 7305      45303030 
 7305      45303030 
 7306              	.LASF238:
 7307 043e 5F5F4143 		.ascii	"__ACCUM_MIN__ (-0X1P15K-0X1P15K)\000"
 7307      43554D5F 
 7307      4D494E5F 
 7307      5F20282D 
 7307      30583150 
 7308              	.LASF795:
 7309 045f 4C50435F 		.ascii	"LPC_GPDMACH5_BASE (LPC_AHB_BASE + 0x041A0)\000"
 7309      4750444D 
 7309      41434835 
 7309      5F424153 
 7309      4520284C 
 7310              	.LASF571:
 7311 048a 5343425F 		.ascii	"SCB_HFSR_FORCED_Msk (1UL << SCB_HFSR_FORCED_Pos)\000"
 7311      48465352 
 7311      5F464F52 
ARM GAS  C:\Users\COSMIN~1.MAR\AppData\Local\Temp\ccJVXHYk.s 			page 145


 7311      4345445F 
 7311      4D736B20 
 7312              	.LASF741:
 7313 04bb 4E564943 		.ascii	"NVIC ((NVIC_Type *) NVIC_BASE)\000"
 7313      2028284E 
 7313      5649435F 
 7313      54797065 
 7313      202A2920 
 7314              	.LASF923:
 7315 04da 696E7433 		.ascii	"int32_t\000"
 7315      325F7400 
 7316              	.LASF490:
 7317 04e2 5343425F 		.ascii	"SCB_ICSR_ISRPENDING_Pos 22\000"
 7317      49435352 
 7317      5F495352 
 7317      50454E44 
 7317      494E475F 
 7318              	.LASF422:
 7319 04fd 494E5436 		.ascii	"INT64_MAX __INT64_MAX__\000"
 7319      345F4D41 
 7319      58205F5F 
 7319      494E5436 
 7319      345F4D41 
 7320              	.LASF15:
 7321 0515 5F5F5349 		.ascii	"__SIZEOF_LONG_LONG__ 8\000"
 7321      5A454F46 
 7321      5F4C4F4E 
 7321      475F4C4F 
 7321      4E475F5F 
 7322              	.LASF142:
 7323 052c 5F5F4442 		.ascii	"__DBL_MAX_10_EXP__ 308\000"
 7323      4C5F4D41 
 7323      585F3130 
 7323      5F455850 
 7323      5F5F2033 
 7324              	.LASF177:
 7325 0543 5F5F4445 		.ascii	"__DEC64_EPSILON__ 1E-15DD\000"
 7325      4336345F 
 7325      45505349 
 7325      4C4F4E5F 
 7325      5F203145 
 7326              	.LASF198:
 7327 055d 5F5F4652 		.ascii	"__FRACT_MIN__ (-0.5R-0.5R)\000"
 7327      4143545F 
 7327      4D494E5F 
 7327      5F20282D 
 7327      302E3552 
 7328              	.LASF752:
 7329 0578 4C50435F 		.ascii	"LPC_GPIO_BASE (0x2009C000UL)\000"
 7329      4750494F 
 7329      5F424153 
 7329      45202830 
 7329      78323030 
 7330              	.LASF264:
 7331 0595 5F5F554C 		.ascii	"__ULLACCUM_MAX__ 0XFFFFFFFFFFFFFFFFP-32ULLK\000"
 7331      4C414343 
 7331      554D5F4D 
ARM GAS  C:\Users\COSMIN~1.MAR\AppData\Local\Temp\ccJVXHYk.s 			page 146


 7331      41585F5F 
 7331      20305846 
 7332              	.LASF587:
 7333 05c1 53797354 		.ascii	"SysTick_CTRL_CLKSOURCE_Msk (1UL << SysTick_CTRL_CLK"
 7333      69636B5F 
 7333      4354524C 
 7333      5F434C4B 
 7333      534F5552 
 7334 05f4 534F5552 		.ascii	"SOURCE_Pos)\000"
 7334      43455F50 
 7334      6F732900 
 7335              	.LASF234:
 7336 0600 5F5F5553 		.ascii	"__USACCUM_MAX__ 0XFFFFP-8UHK\000"
 7336      41434355 
 7336      4D5F4D41 
 7336      585F5F20 
 7336      30584646 
 7337              	.LASF168:
 7338 061d 5F5F4445 		.ascii	"__DEC32_MIN__ 1E-95DF\000"
 7338      4333325F 
 7338      4D494E5F 
 7338      5F203145 
 7338      2D393544 
 7339              	.LASF346:
 7340 0633 5F5F4152 		.ascii	"__ARM_NEON_FP 4\000"
 7340      4D5F4E45 
 7340      4F4E5F46 
 7340      50203400 
 7341              	.LASF833:
 7342 0643 4C50435F 		.ascii	"LPC_CANAF_RAM ((LPC_CANAF_RAM_TypeDef *) LPC_CANAF_"
 7342      43414E41 
 7342      465F5241 
 7342      4D202828 
 7342      4C50435F 
 7343 0676 52414D5F 		.ascii	"RAM_BASE)\000"
 7343      42415345 
 7343      2900
 7344              	.LASF271:
 7345 0680 5F5F5351 		.ascii	"__SQ_IBIT__ 0\000"
 7345      5F494249 
 7345      545F5F20 
 7345      3000
 7346              	.LASF25:
 7347 068e 5F5F4F52 		.ascii	"__ORDER_PDP_ENDIAN__ 3412\000"
 7347      4445525F 
 7347      5044505F 
 7347      454E4449 
 7347      414E5F5F 
 7348              	.LASF29:
 7349 06a8 5F5F5349 		.ascii	"__SIZE_TYPE__ unsigned int\000"
 7349      5A455F54 
 7349      5950455F 
 7349      5F20756E 
 7349      7369676E 
 7350              	.LASF174:
 7351 06c3 5F5F4445 		.ascii	"__DEC64_MAX_EXP__ 385\000"
 7351      4336345F 
ARM GAS  C:\Users\COSMIN~1.MAR\AppData\Local\Temp\ccJVXHYk.s 			page 147


 7351      4D41585F 
 7351      4558505F 
 7351      5F203338 
 7352              	.LASF461:
 7353 06d9 5F474343 		.ascii	"_GCC_WRAP_STDINT_H \000"
 7353      5F575241 
 7353      505F5354 
 7353      44494E54 
 7353      5F482000 
 7354              	.LASF529:
 7355 06ed 5343425F 		.ascii	"SCB_CCR_UNALIGN_TRP_Msk (1UL << SCB_CCR_UNALIGN_TRP"
 7355      4343525F 
 7355      554E414C 
 7355      49474E5F 
 7355      5452505F 
 7356 0720 5F506F73 		.ascii	"_Pos)\000"
 7356      2900
 7357              	.LASF134:
 7358 0726 5F5F464C 		.ascii	"__FLT_HAS_DENORM__ 1\000"
 7358      545F4841 
 7358      535F4445 
 7358      4E4F524D 
 7358      5F5F2031 
 7359              	.LASF38:
 7360 073b 5F5F494E 		.ascii	"__INT8_TYPE__ signed char\000"
 7360      54385F54 
 7360      5950455F 
 7360      5F207369 
 7360      676E6564 
 7361              	.LASF334:
 7362 0755 5F5F4152 		.ascii	"__ARM_ARCH_PROFILE 77\000"
 7362      4D5F4152 
 7362      43485F50 
 7362      524F4649 
 7362      4C452037 
 7363              	.LASF814:
 7364 076b 4C50435F 		.ascii	"LPC_TIM3 ((LPC_TIM_TypeDef *) LPC_TIM3_BASE )\000"
 7364      54494D33 
 7364      2028284C 
 7364      50435F54 
 7364      494D5F54 
 7365              	.LASF233:
 7366 0799 5F5F5553 		.ascii	"__USACCUM_MIN__ 0.0UHK\000"
 7366      41434355 
 7366      4D5F4D49 
 7366      4E5F5F20 
 7366      302E3055 
 7367              	.LASF1018:
 7368 07b0 62797465 		.ascii	"byteNum\000"
 7368      4E756D00 
 7369              	.LASF834:
 7370 07b8 4C50435F 		.ascii	"LPC_CANAF ((LPC_CANAF_TypeDef *) LPC_CANAF_BASE )\000"
 7370      43414E41 
 7370      46202828 
 7370      4C50435F 
 7370      43414E41 
 7371              	.LASF153:
ARM GAS  C:\Users\COSMIN~1.MAR\AppData\Local\Temp\ccJVXHYk.s 			page 148


 7372 07ea 5F5F4C44 		.ascii	"__LDBL_MIN_EXP__ (-1021)\000"
 7372      424C5F4D 
 7372      494E5F45 
 7372      58505F5F 
 7372      20282D31 
 7373              	.LASF151:
 7374 0803 5F5F4C44 		.ascii	"__LDBL_MANT_DIG__ 53\000"
 7374      424C5F4D 
 7374      414E545F 
 7374      4449475F 
 7374      5F203533 
 7375              	.LASF643:
 7376 0818 4D50555F 		.ascii	"MPU_TYPE_DREGION_Msk (0xFFUL << MPU_TYPE_DREGION_Po"
 7376      54595045 
 7376      5F445245 
 7376      47494F4E 
 7376      5F4D736B 
 7377 084b 732900   		.ascii	"s)\000"
 7378              	.LASF430:
 7379 084e 494E545F 		.ascii	"INT_FAST16_MIN (-__INT_FAST16_MAX__ - 1)\000"
 7379      46415354 
 7379      31365F4D 
 7379      494E2028 
 7379      2D5F5F49 
 7380              	.LASF101:
 7381 0877 5F5F5549 		.ascii	"__UINT8_C(c) c\000"
 7381      4E54385F 
 7381      43286329 
 7381      206300
 7382              	.LASF1011:
 7383 0886 46494F5F 		.ascii	"FIO_HalfWordSetDir\000"
 7383      48616C66 
 7383      576F7264 
 7383      53657444 
 7383      697200
 7384              	.LASF39:
 7385 0899 5F5F494E 		.ascii	"__INT16_TYPE__ short int\000"
 7385      5431365F 
 7385      54595045 
 7385      5F5F2073 
 7385      686F7274 
 7386              	.LASF636:
 7387 08b2 496E7454 		.ascii	"IntType_ACTLR_DISDEFWBUF_Pos 1\000"
 7387      7970655F 
 7387      4143544C 
 7387      525F4449 
 7387      53444546 
 7388              	.LASF787:
 7389 08d1 4C50435F 		.ascii	"LPC_SC_BASE (LPC_APB1_BASE + 0x7C000)\000"
 7389      53435F42 
 7389      41534520 
 7389      284C5043 
 7389      5F415042 
 7390              	.LASF734:
 7391 08f7 436F7265 		.ascii	"CoreDebug_BASE (0xE000EDF0UL)\000"
 7391      44656275 
 7391      675F4241 
ARM GAS  C:\Users\COSMIN~1.MAR\AppData\Local\Temp\ccJVXHYk.s 			page 149


 7391      53452028 
 7391      30784530 
 7392              	.LASF772:
 7393 0915 4C50435F 		.ascii	"LPC_CANCR_BASE (LPC_APB0_BASE + 0x40000)\000"
 7393      43414E43 
 7393      525F4241 
 7393      53452028 
 7393      4C50435F 
 7394              	.LASF437:
 7395 093e 494E545F 		.ascii	"INT_FAST64_MAX __INT_FAST64_MAX__\000"
 7395      46415354 
 7395      36345F4D 
 7395      4158205F 
 7395      5F494E54 
 7396              	.LASF307:
 7397 0960 5F5F4743 		.ascii	"__GCC_HAVE_SYNC_COMPARE_AND_SWAP_1 1\000"
 7397      435F4841 
 7397      56455F53 
 7397      594E435F 
 7397      434F4D50 
 7398              	.LASF666:
 7399 0985 4D50555F 		.ascii	"MPU_RASR_S_Pos 18\000"
 7399      52415352 
 7399      5F535F50 
 7399      6F732031 
 7399      3800
 7400              	.LASF1:
 7401 0997 5F5F5354 		.ascii	"__STDC_HOSTED__ 1\000"
 7401      44435F48 
 7401      4F535445 
 7401      445F5F20 
 7401      3100
 7402              	.LASF221:
 7403 09a9 5F5F554C 		.ascii	"__ULLFRACT_FBIT__ 64\000"
 7403      4C465241 
 7403      43545F46 
 7403      4249545F 
 7403      5F203634 
 7404              	.LASF379:
 7405 09be 5F5F5F69 		.ascii	"___int_least8_t_defined 1\000"
 7405      6E745F6C 
 7405      65617374 
 7405      385F745F 
 7405      64656669 
 7406              	.LASF617:
 7407 09d8 49544D5F 		.ascii	"ITM_TCR_TSENA_Msk (1UL << ITM_TCR_TSENA_Pos)\000"
 7407      5443525F 
 7407      5453454E 
 7407      415F4D73 
 7407      6B202831 
 7408              	.LASF57:
 7409 0a05 5F5F494E 		.ascii	"__INT_FAST64_TYPE__ long long int\000"
 7409      545F4641 
 7409      53543634 
 7409      5F545950 
 7409      455F5F20 
 7410              	.LASF641:
ARM GAS  C:\Users\COSMIN~1.MAR\AppData\Local\Temp\ccJVXHYk.s 			page 150


 7411 0a27 4D50555F 		.ascii	"MPU_TYPE_IREGION_Msk (0xFFUL << MPU_TYPE_IREGION_Po"
 7411      54595045 
 7411      5F495245 
 7411      47494F4E 
 7411      5F4D736B 
 7412 0a5a 732900   		.ascii	"s)\000"
 7413              	.LASF484:
 7414 0a5d 5343425F 		.ascii	"SCB_ICSR_PENDSTSET_Pos 26\000"
 7414      49435352 
 7414      5F50454E 
 7414      44535453 
 7414      45545F50 
 7415              	.LASF758:
 7416 0a77 4C50435F 		.ascii	"LPC_TIM0_BASE (LPC_APB0_BASE + 0x04000)\000"
 7416      54494D30 
 7416      5F424153 
 7416      4520284C 
 7416      50435F41 
 7417              	.LASF747:
 7418 0a9f 5F5F5359 		.ascii	"__SYSTEM_LPC17xx_H \000"
 7418      5354454D 
 7418      5F4C5043 
 7418      31377878 
 7418      5F482000 
 7419              	.LASF890:
 7420 0ab3 5F493243 		.ascii	"_I2C2 1\000"
 7420      32203100 
 7421              	.LASF715:
 7422 0abb 436F7265 		.ascii	"CoreDebug_DEMCR_MON_EN_Msk (1UL << CoreDebug_DEMCR_"
 7422      44656275 
 7422      675F4445 
 7422      4D43525F 
 7422      4D4F4E5F 
 7423 0aee 4D4F4E5F 		.ascii	"MON_EN_Pos)\000"
 7423      454E5F50 
 7423      6F732900 
 7424              	.LASF887:
 7425 0afa 5F493243 		.ascii	"_I2C 1\000"
 7425      203100
 7426              	.LASF91:
 7427 0b01 5F5F5549 		.ascii	"__UINT64_MAX__ 18446744073709551615ULL\000"
 7427      4E543634 
 7427      5F4D4158 
 7427      5F5F2031 
 7427      38343436 
 7428              	.LASF1023:
 7429 0b28 474E5520 		.ascii	"GNU C 4.9.3 20150303 (release) [ARM/embedded-4_9-br"
 7429      4320342E 
 7429      392E3320 
 7429      32303135 
 7429      30333033 
 7430 0b5b 616E6368 		.ascii	"anch revision 221220] -mcpu=cortex-m3 -mthumb -g -g"
 7430      20726576 
 7430      6973696F 
 7430      6E203232 
 7430      31323230 
 7431 0b8e 67646233 		.ascii	"gdb3 -O0 -std=gnu90 -ffunction-sections -fdata-sect"
ARM GAS  C:\Users\COSMIN~1.MAR\AppData\Local\Temp\ccJVXHYk.s 			page 151


 7431      202D4F30 
 7431      202D7374 
 7431      643D676E 
 7431      75393020 
 7432 0bc1 696F6E73 		.ascii	"ions\000"
 7432      00
 7433              	.LASF559:
 7434 0bc6 5343425F 		.ascii	"SCB_SHCSR_BUSFAULTACT_Msk (1UL << SCB_SHCSR_BUSFAUL"
 7434      53484353 
 7434      525F4255 
 7434      53464155 
 7434      4C544143 
 7435 0bf9 54414354 		.ascii	"TACT_Pos)\000"
 7435      5F506F73 
 7435      2900
 7436              	.LASF194:
 7437 0c03 5F5F5553 		.ascii	"__USFRACT_MAX__ 0XFFP-8UHR\000"
 7437      46524143 
 7437      545F4D41 
 7437      585F5F20 
 7437      30584646 
 7438              	.LASF586:
 7439 0c1e 53797354 		.ascii	"SysTick_CTRL_CLKSOURCE_Pos 2\000"
 7439      69636B5F 
 7439      4354524C 
 7439      5F434C4B 
 7439      534F5552 
 7440              	.LASF769:
 7441 0c3b 4C50435F 		.ascii	"LPC_ADC_BASE (LPC_APB0_BASE + 0x34000)\000"
 7441      4144435F 
 7441      42415345 
 7441      20284C50 
 7441      435F4150 
 7442              	.LASF706:
 7443 0c62 436F7265 		.ascii	"CoreDebug_DEMCR_TRCENA_Pos 24\000"
 7443      44656275 
 7443      675F4445 
 7443      4D43525F 
 7443      54524345 
 7444              	.LASF245:
 7445 0c80 5F5F5541 		.ascii	"__UACCUM_EPSILON__ 0x1P-16UK\000"
 7445      4343554D 
 7445      5F455053 
 7445      494C4F4E 
 7445      5F5F2030 
 7446              	.LASF882:
 7447 0c9d 5F554152 		.ascii	"_UART3 1\000"
 7447      54332031 
 7447      00
 7448              	.LASF417:
 7449 0ca6 55494E54 		.ascii	"UINT32_MAX __UINT32_MAX__\000"
 7449      33325F4D 
 7449      4158205F 
 7449      5F55494E 
 7449      5433325F 
 7450              	.LASF146:
 7451 0cc0 5F5F4442 		.ascii	"__DBL_EPSILON__ ((double)2.2204460492503131e-16L)\000"
ARM GAS  C:\Users\COSMIN~1.MAR\AppData\Local\Temp\ccJVXHYk.s 			page 152


 7451      4C5F4550 
 7451      53494C4F 
 7451      4E5F5F20 
 7451      2828646F 
 7452              	.LASF850:
 7453 0cf2 4C50435F 		.ascii	"LPC_GPDMACH7 ((LPC_GPDMACH_TypeDef *) LPC_GPDMACH7_"
 7453      4750444D 
 7453      41434837 
 7453      2028284C 
 7453      50435F47 
 7454 0d25 42415345 		.ascii	"BASE )\000"
 7454      202900
 7455              	.LASF808:
 7456 0d2c 4C50435F 		.ascii	"LPC_GPIO3 ((LPC_GPIO_TypeDef *) LPC_GPIO3_BASE )\000"
 7456      4750494F 
 7456      33202828 
 7456      4C50435F 
 7456      4750494F 
 7457              	.LASF713:
 7458 0d5d 436F7265 		.ascii	"CoreDebug_DEMCR_MON_PEND_Msk (1UL << CoreDebug_DEMC"
 7458      44656275 
 7458      675F4445 
 7458      4D43525F 
 7458      4D4F4E5F 
 7459 0d90 525F4D4F 		.ascii	"R_MON_PEND_Pos)\000"
 7459      4E5F5045 
 7459      4E445F50 
 7459      6F732900 
 7460              	.LASF211:
 7461 0da0 5F5F554C 		.ascii	"__ULFRACT_FBIT__ 32\000"
 7461      46524143 
 7461      545F4642 
 7461      49545F5F 
 7461      20333200 
 7462              	.LASF797:
 7463 0db4 4C50435F 		.ascii	"LPC_GPDMACH7_BASE (LPC_AHB_BASE + 0x041E0)\000"
 7463      4750444D 
 7463      41434837 
 7463      5F424153 
 7463      4520284C 
 7464              	.LASF436:
 7465 0ddf 494E545F 		.ascii	"INT_FAST64_MIN (-__INT_FAST64_MAX__ - 1)\000"
 7465      46415354 
 7465      36345F4D 
 7465      494E2028 
 7465      2D5F5F49 
 7466              	.LASF398:
 7467 0e08 5F5F696E 		.ascii	"__int_fast32_t_defined 1\000"
 7467      745F6661 
 7467      73743332 
 7467      5F745F64 
 7467      6566696E 
 7468              	.LASF876:
 7469 0e21 44454255 		.ascii	"DEBUG 1\000"
 7469      47203100 
 7470              	.LASF883:
 7471 0e29 5F535049 		.ascii	"_SPI 1\000"
ARM GAS  C:\Users\COSMIN~1.MAR\AppData\Local\Temp\ccJVXHYk.s 			page 153


 7471      203100
 7472              	.LASF425:
 7473 0e30 494E545F 		.ascii	"INT_LEAST64_MAX __INT_LEAST64_MAX__\000"
 7473      4C454153 
 7473      5436345F 
 7473      4D415820 
 7473      5F5F494E 
 7474              	.LASF602:
 7475 0e54 49544D5F 		.ascii	"ITM_TPR_PRIVMASK_Pos 0\000"
 7475      5450525F 
 7475      50524956 
 7475      4D41534B 
 7475      5F506F73 
 7476              	.LASF453:
 7477 0e6b 494E5431 		.ascii	"INT16_C(x) __INT16_C(x)\000"
 7477      365F4328 
 7477      7829205F 
 7477      5F494E54 
 7477      31365F43 
 7478              	.LASF190:
 7479 0e83 5F5F5346 		.ascii	"__SFRACT_EPSILON__ 0x1P-7HR\000"
 7479      52414354 
 7479      5F455053 
 7479      494C4F4E 
 7479      5F5F2030 
 7480              	.LASF985:
 7481 0e9f 4750494F 		.ascii	"GPIO_HalfWord_TypeDef\000"
 7481      5F48616C 
 7481      66576F72 
 7481      645F5479 
 7481      70654465 
 7482              	.LASF97:
 7483 0eb5 5F5F494E 		.ascii	"__INT32_C(c) c ## L\000"
 7483      5433325F 
 7483      43286329 
 7483      20632023 
 7483      23204C00 
 7484              	.LASF280:
 7485 0ec9 5F5F5553 		.ascii	"__USQ_FBIT__ 32\000"
 7485      515F4642 
 7485      49545F5F 
 7485      20333200 
 7486              	.LASF24:
 7487 0ed9 5F5F4F52 		.ascii	"__ORDER_BIG_ENDIAN__ 4321\000"
 7487      4445525F 
 7487      4249475F 
 7487      454E4449 
 7487      414E5F5F 
 7488              	.LASF806:
 7489 0ef3 4C50435F 		.ascii	"LPC_GPIO1 ((LPC_GPIO_TypeDef *) LPC_GPIO1_BASE )\000"
 7489      4750494F 
 7489      31202828 
 7489      4C50435F 
 7489      4750494F 
 7490              	.LASF270:
 7491 0f24 5F5F5351 		.ascii	"__SQ_FBIT__ 31\000"
 7491      5F464249 
ARM GAS  C:\Users\COSMIN~1.MAR\AppData\Local\Temp\ccJVXHYk.s 			page 154


 7491      545F5F20 
 7491      333100
 7492              	.LASF579:
 7493 0f33 5343425F 		.ascii	"SCB_DFSR_DWTTRAP_Msk (1UL << SCB_DFSR_DWTTRAP_Pos)\000"
 7493      44465352 
 7493      5F445754 
 7493      54524150 
 7493      5F4D736B 
 7494              	.LASF508:
 7495 0f66 5343425F 		.ascii	"SCB_AIRCR_PRIGROUP_Pos 8\000"
 7495      41495243 
 7495      525F5052 
 7495      4947524F 
 7495      55505F50 
 7496              	.LASF300:
 7497 0f7f 5F5F5554 		.ascii	"__UTA_FBIT__ 64\000"
 7497      415F4642 
 7497      49545F5F 
 7497      20363400 
 7498              	.LASF904:
 7499 0f8f 5F43414E 		.ascii	"_CAN 1\000"
 7499      203100
 7500              	.LASF278:
 7501 0f96 5F5F5548 		.ascii	"__UHQ_FBIT__ 16\000"
 7501      515F4642 
 7501      49545F5F 
 7501      20313600 
 7502              	.LASF356:
 7503 0fa6 5F5F4C50 		.ascii	"__LPC17xx_H__ \000"
 7503      43313778 
 7503      785F485F 
 7503      5F2000
 7504              	.LASF598:
 7505 0fb5 53797354 		.ascii	"SysTick_CALIB_SKEW_Pos 30\000"
 7505      69636B5F 
 7505      43414C49 
 7505      425F534B 
 7505      45575F50 
 7506              	.LASF67:
 7507 0fcf 5F5F5343 		.ascii	"__SCHAR_MAX__ 127\000"
 7507      4841525F 
 7507      4D41585F 
 7507      5F203132 
 7507      3700
 7508              	.LASF170:
 7509 0fe1 5F5F4445 		.ascii	"__DEC32_EPSILON__ 1E-6DF\000"
 7509      4333325F 
 7509      45505349 
 7509      4C4F4E5F 
 7509      5F203145 
 7510              	.LASF905:
 7511 0ffa 5F524954 		.ascii	"_RIT 1\000"
 7511      203100
 7512              	.LASF564:
 7513 1001 5343425F 		.ascii	"SCB_CFSR_BUSFAULTSR_Pos 8\000"
 7513      43465352 
 7513      5F425553 
ARM GAS  C:\Users\COSMIN~1.MAR\AppData\Local\Temp\ccJVXHYk.s 			page 155


 7513      4641554C 
 7513      5453525F 
 7514              	.LASF49:
 7515 101b 5F5F494E 		.ascii	"__INT_LEAST64_TYPE__ long long int\000"
 7515      545F4C45 
 7515      41535436 
 7515      345F5459 
 7515      50455F5F 
 7516              	.LASF523:
 7517 103e 5343425F 		.ascii	"SCB_CCR_STKALIGN_Msk (1UL << SCB_CCR_STKALIGN_Pos)\000"
 7517      4343525F 
 7517      53544B41 
 7517      4C49474E 
 7517      5F4D736B 
 7518              	.LASF365:
 7519 1071 5F5F4153 		.ascii	"__ASM __asm\000"
 7519      4D205F5F 
 7519      61736D00 
 7520              	.LASF911:
 7521 107d 5F5F7569 		.ascii	"__uint8_t\000"
 7521      6E74385F 
 7521      7400
 7522              	.LASF85:
 7523 1087 5F5F494E 		.ascii	"__INT16_MAX__ 32767\000"
 7523      5431365F 
 7523      4D41585F 
 7523      5F203332 
 7523      37363700 
 7524              	.LASF796:
 7525 109b 4C50435F 		.ascii	"LPC_GPDMACH6_BASE (LPC_AHB_BASE + 0x041C0)\000"
 7525      4750444D 
 7525      41434836 
 7525      5F424153 
 7525      4520284C 
 7526              	.LASF344:
 7527 10c6 5F5F5646 		.ascii	"__VFP_FP__ 1\000"
 7527      505F4650 
 7527      5F5F2031 
 7527      00
 7528              	.LASF693:
 7529 10d3 436F7265 		.ascii	"CoreDebug_DHCSR_C_SNAPSTALL_Msk (1UL << CoreDebug_D"
 7529      44656275 
 7529      675F4448 
 7529      4353525F 
 7529      435F534E 
 7530 1106 48435352 		.ascii	"HCSR_C_SNAPSTALL_Pos)\000"
 7530      5F435F53 
 7530      4E415053 
 7530      54414C4C 
 7530      5F506F73 
 7531              	.LASF78:
 7532 111c 5F5F494E 		.ascii	"__INTMAX_MAX__ 9223372036854775807LL\000"
 7532      544D4158 
 7532      5F4D4158 
 7532      5F5F2039 
 7532      32323333 
 7533              	.LASF777:
ARM GAS  C:\Users\COSMIN~1.MAR\AppData\Local\Temp\ccJVXHYk.s 			page 156


 7534 1141 4C50435F 		.ascii	"LPC_DAC_BASE (LPC_APB1_BASE + 0x0C000)\000"
 7534      4441435F 
 7534      42415345 
 7534      20284C50 
 7534      435F4150 
 7535              	.LASF424:
 7536 1168 494E545F 		.ascii	"INT_LEAST64_MIN (-__INT_LEAST64_MAX__ - 1)\000"
 7536      4C454153 
 7536      5436345F 
 7536      4D494E20 
 7536      282D5F5F 
 7537              	.LASF582:
 7538 1193 5343425F 		.ascii	"SCB_DFSR_HALTED_Pos 0\000"
 7538      44465352 
 7538      5F48414C 
 7538      5445445F 
 7538      506F7320 
 7539              	.LASF119:
 7540 11a9 5F5F4743 		.ascii	"__GCC_IEC_559_COMPLEX 0\000"
 7540      435F4945 
 7540      435F3535 
 7540      395F434F 
 7540      4D504C45 
 7541              	.LASF169:
 7542 11c1 5F5F4445 		.ascii	"__DEC32_MAX__ 9.999999E96DF\000"
 7542      4333325F 
 7542      4D41585F 
 7542      5F20392E 
 7542      39393939 
 7543              	.LASF535:
 7544 11dd 5343425F 		.ascii	"SCB_SHCSR_USGFAULTENA_Msk (1UL << SCB_SHCSR_USGFAUL"
 7544      53484353 
 7544      525F5553 
 7544      47464155 
 7544      4C54454E 
 7545 1210 54454E41 		.ascii	"TENA_Pos)\000"
 7545      5F506F73 
 7545      2900
 7546              	.LASF533:
 7547 121a 5343425F 		.ascii	"SCB_CCR_NONBASETHRDENA_Msk (1UL << SCB_CCR_NONBASET"
 7547      4343525F 
 7547      4E4F4E42 
 7547      41534554 
 7547      48524445 
 7548 124d 48524445 		.ascii	"HRDENA_Pos)\000"
 7548      4E415F50 
 7548      6F732900 
 7549              	.LASF164:
 7550 1259 5F5F4C44 		.ascii	"__LDBL_HAS_QUIET_NAN__ 1\000"
 7550      424C5F48 
 7550      41535F51 
 7550      55494554 
 7550      5F4E414E 
 7551              	.LASF609:
 7552 1272 49544D5F 		.ascii	"ITM_TCR_TSPrescale_Msk (3UL << ITM_TCR_TSPrescale_P"
 7552      5443525F 
 7552      54535072 
ARM GAS  C:\Users\COSMIN~1.MAR\AppData\Local\Temp\ccJVXHYk.s 			page 157


 7552      65736361 
 7552      6C655F4D 
 7553 12a5 6F732900 		.ascii	"os)\000"
 7554              	.LASF615:
 7555 12a9 49544D5F 		.ascii	"ITM_TCR_SYNCENA_Msk (1UL << ITM_TCR_SYNCENA_Pos)\000"
 7555      5443525F 
 7555      53594E43 
 7555      454E415F 
 7555      4D736B20 
 7556              	.LASF448:
 7557 12da 57434841 		.ascii	"WCHAR_MAX __WCHAR_MAX__\000"
 7557      525F4D41 
 7557      58205F5F 
 7557      57434841 
 7557      525F4D41 
 7558              	.LASF433:
 7559 12f2 494E545F 		.ascii	"INT_FAST32_MIN (-__INT_FAST32_MAX__ - 1)\000"
 7559      46415354 
 7559      33325F4D 
 7559      494E2028 
 7559      2D5F5F49 
 7560              	.LASF588:
 7561 131b 53797354 		.ascii	"SysTick_CTRL_TICKINT_Pos 1\000"
 7561      69636B5F 
 7561      4354524C 
 7561      5F544943 
 7561      4B494E54 
 7562              	.LASF699:
 7563 1336 436F7265 		.ascii	"CoreDebug_DHCSR_C_HALT_Msk (1UL << CoreDebug_DHCSR_"
 7563      44656275 
 7563      675F4448 
 7563      4353525F 
 7563      435F4841 
 7564 1369 435F4841 		.ascii	"C_HALT_Pos)\000"
 7564      4C545F50 
 7564      6F732900 
 7565              	.LASF50:
 7566 1375 5F5F5549 		.ascii	"__UINT_LEAST8_TYPE__ unsigned char\000"
 7566      4E545F4C 
 7566      45415354 
 7566      385F5459 
 7566      50455F5F 
 7567              	.LASF810:
 7568 1398 4C50435F 		.ascii	"LPC_WDT ((LPC_WDT_TypeDef *) LPC_WDT_BASE )\000"
 7568      57445420 
 7568      28284C50 
 7568      435F5744 
 7568      545F5479 
 7569              	.LASF751:
 7570 13c4 4C50435F 		.ascii	"LPC_AHBRAM1_BASE (0x20080000UL)\000"
 7570      41484252 
 7570      414D315F 
 7570      42415345 
 7570      20283078 
 7571              	.LASF236:
 7572 13e4 5F5F4143 		.ascii	"__ACCUM_FBIT__ 15\000"
 7572      43554D5F 
ARM GAS  C:\Users\COSMIN~1.MAR\AppData\Local\Temp\ccJVXHYk.s 			page 158


 7572      46424954 
 7572      5F5F2031 
 7572      3500
 7573              	.LASF1003:
 7574 13f6 46494F5F 		.ascii	"FIO_SetValue\000"
 7574      53657456 
 7574      616C7565 
 7574      00
 7575              	.LASF242:
 7576 1403 5F5F5541 		.ascii	"__UACCUM_IBIT__ 16\000"
 7576      4343554D 
 7576      5F494249 
 7576      545F5F20 
 7576      313600
 7577              	.LASF915:
 7578 1416 6C6F6E67 		.ascii	"long int\000"
 7578      20696E74 
 7578      00
 7579              	.LASF115:
 7580 141f 5F5F5549 		.ascii	"__UINT_FAST64_MAX__ 18446744073709551615ULL\000"
 7580      4E545F46 
 7580      41535436 
 7580      345F4D41 
 7580      585F5F20 
 7581              	.LASF392:
 7582 144b 5F5F696E 		.ascii	"__int32_t_defined 1\000"
 7582      7433325F 
 7582      745F6465 
 7582      66696E65 
 7582      64203100 
 7583              	.LASF574:
 7584 145f 5343425F 		.ascii	"SCB_DFSR_EXTERNAL_Pos 4\000"
 7584      44465352 
 7584      5F455854 
 7584      45524E41 
 7584      4C5F506F 
 7585              	.LASF897:
 7586 1477 5F50574D 		.ascii	"_PWM1 1\000"
 7586      31203100 
 7587              	.LASF145:
 7588 147f 5F5F4442 		.ascii	"__DBL_MIN__ ((double)2.2250738585072014e-308L)\000"
 7588      4C5F4D49 
 7588      4E5F5F20 
 7588      2828646F 
 7588      75626C65 
 7589              	.LASF380:
 7590 14ae 5F5F5F69 		.ascii	"___int_least16_t_defined 1\000"
 7590      6E745F6C 
 7590      65617374 
 7590      31365F74 
 7590      5F646566 
 7591              	.LASF72:
 7592 14c9 5F5F5743 		.ascii	"__WCHAR_MAX__ 4294967295U\000"
 7592      4841525F 
 7592      4D41585F 
 7592      5F203432 
 7592      39343936 
ARM GAS  C:\Users\COSMIN~1.MAR\AppData\Local\Temp\ccJVXHYk.s 			page 159


 7593              	.LASF180:
 7594 14e3 5F5F4445 		.ascii	"__DEC128_MIN_EXP__ (-6142)\000"
 7594      43313238 
 7594      5F4D494E 
 7594      5F455850 
 7594      5F5F2028 
 7595              	.LASF572:
 7596 14fe 5343425F 		.ascii	"SCB_HFSR_VECTTBL_Pos 1\000"
 7596      48465352 
 7596      5F564543 
 7596      5454424C 
 7596      5F506F73 
 7597              	.LASF54:
 7598 1515 5F5F494E 		.ascii	"__INT_FAST8_TYPE__ int\000"
 7598      545F4641 
 7598      5354385F 
 7598      54595045 
 7598      5F5F2069 
 7599              	.LASF710:
 7600 152c 436F7265 		.ascii	"CoreDebug_DEMCR_MON_STEP_Pos 18\000"
 7600      44656275 
 7600      675F4445 
 7600      4D43525F 
 7600      4D4F4E5F 
 7601              	.LASF298:
 7602 154c 5F5F5544 		.ascii	"__UDA_FBIT__ 32\000"
 7602      415F4642 
 7602      49545F5F 
 7602      20333200 
 7603              	.LASF716:
 7604 155c 436F7265 		.ascii	"CoreDebug_DEMCR_VC_HARDERR_Pos 10\000"
 7604      44656275 
 7604      675F4445 
 7604      4D43525F 
 7604      56435F48 
 7605              	.LASF81:
 7606 157e 5F5F5549 		.ascii	"__UINTMAX_C(c) c ## ULL\000"
 7606      4E544D41 
 7606      585F4328 
 7606      63292063 
 7606      20232320 
 7607              	.LASF531:
 7608 1596 5343425F 		.ascii	"SCB_CCR_USERSETMPEND_Msk (1UL << SCB_CCR_USERSETMPE"
 7608      4343525F 
 7608      55534552 
 7608      5345544D 
 7608      50454E44 
 7609 15c9 4E445F50 		.ascii	"ND_Pos)\000"
 7609      6F732900 
 7610              	.LASF28:
 7611 15d1 5F5F5349 		.ascii	"__SIZEOF_POINTER__ 4\000"
 7611      5A454F46 
 7611      5F504F49 
 7611      4E544552 
 7611      5F5F2034 
 7612              	.LASF46:
 7613 15e6 5F5F494E 		.ascii	"__INT_LEAST8_TYPE__ signed char\000"
ARM GAS  C:\Users\COSMIN~1.MAR\AppData\Local\Temp\ccJVXHYk.s 			page 160


 7613      545F4C45 
 7613      41535438 
 7613      5F545950 
 7613      455F5F20 
 7614              	.LASF755:
 7615 1606 4C50435F 		.ascii	"LPC_AHB_BASE (0x50000000UL)\000"
 7615      4148425F 
 7615      42415345 
 7615      20283078 
 7615      35303030 
 7616              	.LASF1005:
 7617 1622 46494F5F 		.ascii	"FIO_ReadValue\000"
 7617      52656164 
 7617      56616C75 
 7617      6500
 7618              	.LASF310:
 7619 1630 5F5F4743 		.ascii	"__GCC_ATOMIC_BOOL_LOCK_FREE 2\000"
 7619      435F4154 
 7619      4F4D4943 
 7619      5F424F4F 
 7619      4C5F4C4F 
 7620              	.LASF737:
 7621 164e 5343425F 		.ascii	"SCB_BASE (SCS_BASE + 0x0D00UL)\000"
 7621      42415345 
 7621      20285343 
 7621      535F4241 
 7621      5345202B 
 7622              	.LASF604:
 7623 166d 49544D5F 		.ascii	"ITM_TCR_BUSY_Pos 23\000"
 7623      5443525F 
 7623      42555359 
 7623      5F506F73 
 7623      20323300 
 7624              	.LASF619:
 7625 1681 49544D5F 		.ascii	"ITM_TCR_ITMENA_Msk (1UL << ITM_TCR_ITMENA_Pos)\000"
 7625      5443525F 
 7625      49544D45 
 7625      4E415F4D 
 7625      736B2028 
 7626              	.LASF898:
 7627 16b0 5F525443 		.ascii	"_RTC 1\000"
 7627      203100
 7628              	.LASF372:
 7629 16b7 5F5F474E 		.ascii	"__GNUC_PREREQ(maj,min) ((__GNUC__ << 16) + __GNUC_M"
 7629      55435F50 
 7629      52455245 
 7629      51286D61 
 7629      6A2C6D69 
 7630 16ea 494E4F52 		.ascii	"INOR__ >= ((maj) << 16) + (min))\000"
 7630      5F5F203E 
 7630      3D202828 
 7630      6D616A29 
 7630      203C3C20 
 7631              	.LASF109:
 7632 170b 5F5F494E 		.ascii	"__INT_FAST16_MAX__ 2147483647\000"
 7632      545F4641 
 7632      53543136 
ARM GAS  C:\Users\COSMIN~1.MAR\AppData\Local\Temp\ccJVXHYk.s 			page 161


 7632      5F4D4158 
 7632      5F5F2032 
 7633              	.LASF408:
 7634 1729 55494E54 		.ascii	"UINT_LEAST8_MAX __UINT_LEAST8_MAX__\000"
 7634      5F4C4541 
 7634      5354385F 
 7634      4D415820 
 7634      5F5F5549 
 7635              	.LASF347:
 7636 174d 5F5F5448 		.ascii	"__THUMB_INTERWORK__ 1\000"
 7636      554D425F 
 7636      494E5445 
 7636      52574F52 
 7636      4B5F5F20 
 7637              	.LASF224:
 7638 1763 5F5F554C 		.ascii	"__ULLFRACT_MAX__ 0XFFFFFFFFFFFFFFFFP-64ULLR\000"
 7638      4C465241 
 7638      43545F4D 
 7638      41585F5F 
 7638      20305846 
 7639              	.LASF760:
 7640 178f 4C50435F 		.ascii	"LPC_UART0_BASE (LPC_APB0_BASE + 0x0C000)\000"
 7640      55415254 
 7640      305F4241 
 7640      53452028 
 7640      4C50435F 
 7641              	.LASF84:
 7642 17b8 5F5F494E 		.ascii	"__INT8_MAX__ 127\000"
 7642      54385F4D 
 7642      41585F5F 
 7642      20313237 
 7642      00
 7643              	.LASF831:
 7644 17c9 4C50435F 		.ascii	"LPC_ADC ((LPC_ADC_TypeDef *) LPC_ADC_BASE )\000"
 7644      41444320 
 7644      28284C50 
 7644      435F4144 
 7644      435F5479 
 7645              	.LASF563:
 7646 17f5 5343425F 		.ascii	"SCB_CFSR_USGFAULTSR_Msk (0xFFFFUL << SCB_CFSR_USGFA"
 7646      43465352 
 7646      5F555347 
 7646      4641554C 
 7646      5453525F 
 7647 1828 554C5453 		.ascii	"ULTSR_Pos)\000"
 7647      525F506F 
 7647      732900
 7648              	.LASF583:
 7649 1833 5343425F 		.ascii	"SCB_DFSR_HALTED_Msk (1UL << SCB_DFSR_HALTED_Pos)\000"
 7649      44465352 
 7649      5F48414C 
 7649      5445445F 
 7649      4D736B20 
 7650              	.LASF429:
 7651 1864 55494E54 		.ascii	"UINT_FAST8_MAX __UINT_FAST8_MAX__\000"
 7651      5F464153 
 7651      54385F4D 
ARM GAS  C:\Users\COSMIN~1.MAR\AppData\Local\Temp\ccJVXHYk.s 			page 162


 7651      4158205F 
 7651      5F55494E 
 7652              	.LASF665:
 7653 1886 4D50555F 		.ascii	"MPU_RASR_TEX_Msk (7UL << MPU_RASR_TEX_Pos)\000"
 7653      52415352 
 7653      5F544558 
 7653      5F4D736B 
 7653      20283755 
 7654              	.LASF990:
 7655 18b1 7046494F 		.ascii	"pFIO\000"
 7655      00
 7656              	.LASF405:
 7657 18b6 55494E54 		.ascii	"UINT8_MAX __UINT8_MAX__\000"
 7657      385F4D41 
 7657      58205F5F 
 7657      55494E54 
 7657      385F4D41 
 7658              	.LASF36:
 7659 18ce 5F5F4348 		.ascii	"__CHAR32_TYPE__ long unsigned int\000"
 7659      41523332 
 7659      5F545950 
 7659      455F5F20 
 7659      6C6F6E67 
 7660              	.LASF872:
 7661 18f0 4750494F 		.ascii	"GPIO2_HalfWord ((GPIO_HalfWord_TypeDef *)(LPC_GPIO2"
 7661      325F4861 
 7661      6C66576F 
 7661      72642028 
 7661      28475049 
 7662 1923 5F424153 		.ascii	"_BASE))\000"
 7662      45292900 
 7663              	.LASF697:
 7664 192b 436F7265 		.ascii	"CoreDebug_DHCSR_C_STEP_Msk (1UL << CoreDebug_DHCSR_"
 7664      44656275 
 7664      675F4448 
 7664      4353525F 
 7664      435F5354 
 7665 195e 435F5354 		.ascii	"C_STEP_Pos)\000"
 7665      45505F50 
 7665      6F732900 
 7666              	.LASF1020:
 7667 196a 46494F5F 		.ascii	"FIO_ByteSetValue\000"
 7667      42797465 
 7667      53657456 
 7667      616C7565 
 7667      00
 7668              	.LASF14:
 7669 197b 5F5F5349 		.ascii	"__SIZEOF_LONG__ 4\000"
 7669      5A454F46 
 7669      5F4C4F4E 
 7669      475F5F20 
 7669      3400
 7670              	.LASF633:
 7671 198d 496E7454 		.ascii	"IntType_ICTR_INTLINESNUM_Msk (0x1FUL << IntType_ICT"
 7671      7970655F 
 7671      49435452 
 7671      5F494E54 
ARM GAS  C:\Users\COSMIN~1.MAR\AppData\Local\Temp\ccJVXHYk.s 			page 163


 7671      4C494E45 
 7672 19c0 525F494E 		.ascii	"R_INTLINESNUM_Pos)\000"
 7672      544C494E 
 7672      45534E55 
 7672      4D5F506F 
 7672      732900
 7673              	.LASF550:
 7674 19d3 5343425F 		.ascii	"SCB_SHCSR_PENDSVACT_Pos 10\000"
 7674      53484353 
 7674      525F5045 
 7674      4E445356 
 7674      4143545F 
 7675              	.LASF979:
 7676 19ee 4750494F 		.ascii	"GPIO_Byte_TypeDef\000"
 7676      5F427974 
 7676      655F5479 
 7676      70654465 
 7676      6600
 7677              	.LASF725:
 7678 1a00 436F7265 		.ascii	"CoreDebug_DEMCR_VC_CHKERR_Msk (1UL << CoreDebug_DEM"
 7678      44656275 
 7678      675F4445 
 7678      4D43525F 
 7678      56435F43 
 7679 1a33 43525F56 		.ascii	"CR_VC_CHKERR_Pos)\000"
 7679      435F4348 
 7679      4B455252 
 7679      5F506F73 
 7679      2900
 7680              	.LASF18:
 7681 1a45 5F5F5349 		.ascii	"__SIZEOF_DOUBLE__ 8\000"
 7681      5A454F46 
 7681      5F444F55 
 7681      424C455F 
 7681      5F203800 
 7682              	.LASF708:
 7683 1a59 436F7265 		.ascii	"CoreDebug_DEMCR_MON_REQ_Pos 19\000"
 7683      44656275 
 7683      675F4445 
 7683      4D43525F 
 7683      4D4F4E5F 
 7684              	.LASF695:
 7685 1a78 436F7265 		.ascii	"CoreDebug_DHCSR_C_MASKINTS_Msk (1UL << CoreDebug_DH"
 7685      44656275 
 7685      675F4448 
 7685      4353525F 
 7685      435F4D41 
 7686 1aab 4353525F 		.ascii	"CSR_C_MASKINTS_Pos)\000"
 7686      435F4D41 
 7686      534B494E 
 7686      54535F50 
 7686      6F732900 
 7687              	.LASF494:
 7688 1abf 5343425F 		.ascii	"SCB_ICSR_RETTOBASE_Pos 11\000"
 7688      49435352 
 7688      5F524554 
 7688      544F4241 
ARM GAS  C:\Users\COSMIN~1.MAR\AppData\Local\Temp\ccJVXHYk.s 			page 164


 7688      53455F50 
 7689              	.LASF838:
 7690 1ad9 4C50435F 		.ascii	"LPC_MCPWM ((LPC_MCPWM_TypeDef *) LPC_MCPWM_BASE )\000"
 7690      4D435057 
 7690      4D202828 
 7690      4C50435F 
 7690      4D435057 
 7691              	.LASF839:
 7692 1b0b 4C50435F 		.ascii	"LPC_QEI ((LPC_QEI_TypeDef *) LPC_QEI_BASE )\000"
 7692      51454920 
 7692      28284C50 
 7692      435F5145 
 7692      495F5479 
 7693              	.LASF779:
 7694 1b37 4C50435F 		.ascii	"LPC_TIM3_BASE (LPC_APB1_BASE + 0x14000)\000"
 7694      54494D33 
 7694      5F424153 
 7694      4520284C 
 7694      50435F41 
 7695              	.LASF647:
 7696 1b5f 4D50555F 		.ascii	"MPU_CTRL_PRIVDEFENA_Msk (1UL << MPU_CTRL_PRIVDEFENA"
 7696      4354524C 
 7696      5F505249 
 7696      56444546 
 7696      454E415F 
 7697 1b92 5F506F73 		.ascii	"_Pos)\000"
 7697      2900
 7698              	.LASF840:
 7699 1b98 4C50435F 		.ascii	"LPC_EMAC ((LPC_EMAC_TypeDef *) LPC_EMAC_BASE )\000"
 7699      454D4143 
 7699      2028284C 
 7699      50435F45 
 7699      4D41435F 
 7700              	.LASF585:
 7701 1bc7 53797354 		.ascii	"SysTick_CTRL_COUNTFLAG_Msk (1UL << SysTick_CTRL_COU"
 7701      69636B5F 
 7701      4354524C 
 7701      5F434F55 
 7701      4E54464C 
 7702 1bfa 4E54464C 		.ascii	"NTFLAG_Pos)\000"
 7702      41475F50 
 7702      6F732900 
 7703              	.LASF176:
 7704 1c06 5F5F4445 		.ascii	"__DEC64_MAX__ 9.999999999999999E384DD\000"
 7704      4336345F 
 7704      4D41585F 
 7704      5F20392E 
 7704      39393939 
 7705              	.LASF370:
 7706 1c2c 5F5F4E45 		.ascii	"__NEWLIB__ 2\000"
 7706      574C4942 
 7706      5F5F2032 
 7706      00
 7707              	.LASF209:
 7708 1c39 5F5F4C46 		.ascii	"__LFRACT_MAX__ 0X7FFFFFFFP-31LR\000"
 7708      52414354 
 7708      5F4D4158 
ARM GAS  C:\Users\COSMIN~1.MAR\AppData\Local\Temp\ccJVXHYk.s 			page 165


 7708      5F5F2030 
 7708      58374646 
 7709              	.LASF519:
 7710 1c59 5343425F 		.ascii	"SCB_SCR_SLEEPDEEP_Msk (1UL << SCB_SCR_SLEEPDEEP_Pos"
 7710      5343525F 
 7710      534C4545 
 7710      50444545 
 7710      505F4D73 
 7711 1c8c 2900     		.ascii	")\000"
 7712              	.LASF126:
 7713 1c8e 5F5F464C 		.ascii	"__FLT_MIN_10_EXP__ (-37)\000"
 7713      545F4D49 
 7713      4E5F3130 
 7713      5F455850 
 7713      5F5F2028 
 7714              	.LASF575:
 7715 1ca7 5343425F 		.ascii	"SCB_DFSR_EXTERNAL_Msk (1UL << SCB_DFSR_EXTERNAL_Pos"
 7715      44465352 
 7715      5F455854 
 7715      45524E41 
 7715      4C5F4D73 
 7716 1cda 2900     		.ascii	")\000"
 7717              	.LASF129:
 7718 1cdc 5F5F464C 		.ascii	"__FLT_DECIMAL_DIG__ 9\000"
 7718      545F4445 
 7718      43494D41 
 7718      4C5F4449 
 7718      475F5F20 
 7719              	.LASF705:
 7720 1cf2 436F7265 		.ascii	"CoreDebug_DCRSR_REGSEL_Msk (0x1FUL << CoreDebug_DCR"
 7720      44656275 
 7720      675F4443 
 7720      5253525F 
 7720      52454753 
 7721 1d25 53525F52 		.ascii	"SR_REGSEL_Pos)\000"
 7721      45475345 
 7721      4C5F506F 
 7721      732900
 7722              	.LASF475:
 7723 1d34 5343425F 		.ascii	"SCB_CPUID_PARTNO_Msk (0xFFFUL << SCB_CPUID_PARTNO_P"
 7723      43505549 
 7723      445F5041 
 7723      52544E4F 
 7723      5F4D736B 
 7724 1d67 6F732900 		.ascii	"os)\000"
 7725              	.LASF908:
 7726 1d6b 7369676E 		.ascii	"signed char\000"
 7726      65642063 
 7726      68617200 
 7727              	.LASF921:
 7728 1d77 75696E74 		.ascii	"uint8_t\000"
 7728      385F7400 
 7729              	.LASF440:
 7730 1d7f 494E544D 		.ascii	"INTMAX_MIN (-INTMAX_MAX - 1)\000"
 7730      41585F4D 
 7730      494E2028 
 7730      2D494E54 
ARM GAS  C:\Users\COSMIN~1.MAR\AppData\Local\Temp\ccJVXHYk.s 			page 166


 7730      4D41585F 
 7731              	.LASF754:
 7732 1d9c 4C50435F 		.ascii	"LPC_APB1_BASE (0x40080000UL)\000"
 7732      41504231 
 7732      5F424153 
 7732      45202830 
 7732      78343030 
 7733              	.LASF196:
 7734 1db9 5F5F4652 		.ascii	"__FRACT_FBIT__ 15\000"
 7734      4143545F 
 7734      46424954 
 7734      5F5F2031 
 7734      3500
 7735              	.LASF136:
 7736 1dcb 5F5F464C 		.ascii	"__FLT_HAS_QUIET_NAN__ 1\000"
 7736      545F4841 
 7736      535F5155 
 7736      4945545F 
 7736      4E414E5F 
 7737              	.LASF821:
 7738 1de3 4C50435F 		.ascii	"LPC_I2C0 ((LPC_I2C_TypeDef *) LPC_I2C0_BASE )\000"
 7738      49324330 
 7738      2028284C 
 7738      50435F49 
 7738      32435F54 
 7739              	.LASF313:
 7740 1e11 5F5F4743 		.ascii	"__GCC_ATOMIC_CHAR32_T_LOCK_FREE 2\000"
 7740      435F4154 
 7740      4F4D4943 
 7740      5F434841 
 7740      5233325F 
 7741              	.LASF4:
 7742 1e33 5F5F474E 		.ascii	"__GNUC_PATCHLEVEL__ 3\000"
 7742      55435F50 
 7742      41544348 
 7742      4C455645 
 7742      4C5F5F20 
 7743              	.LASF822:
 7744 1e49 4C50435F 		.ascii	"LPC_I2C1 ((LPC_I2C_TypeDef *) LPC_I2C1_BASE )\000"
 7744      49324331 
 7744      2028284C 
 7744      50435F49 
 7744      32435F54 
 7745              	.LASF402:
 7746 1e77 55494E54 		.ascii	"UINTPTR_MAX __UINTPTR_MAX__\000"
 7746      5054525F 
 7746      4D415820 
 7746      5F5F5549 
 7746      4E545054 
 7747              	.LASF367:
 7748 1e93 5F535444 		.ascii	"_STDINT_H \000"
 7748      494E545F 
 7748      482000
 7749              	.LASF497:
 7750 1e9e 5343425F 		.ascii	"SCB_ICSR_VECTACTIVE_Msk (0x1FFUL << SCB_ICSR_VECTAC"
 7750      49435352 
 7750      5F564543 
ARM GAS  C:\Users\COSMIN~1.MAR\AppData\Local\Temp\ccJVXHYk.s 			page 167


 7750      54414354 
 7750      4956455F 
 7751 1ed1 54495645 		.ascii	"TIVE_Pos)\000"
 7751      5F506F73 
 7751      2900
 7752              	.LASF1021:
 7753 1edb 46494F5F 		.ascii	"FIO_ByteClearValue\000"
 7753      42797465 
 7753      436C6561 
 7753      7256616C 
 7753      756500
 7754              	.LASF578:
 7755 1eee 5343425F 		.ascii	"SCB_DFSR_DWTTRAP_Pos 2\000"
 7755      44465352 
 7755      5F445754 
 7755      54524150 
 7755      5F506F73 
 7756              	.LASF961:
 7757 1f05 52455345 		.ascii	"RESERVED0\000"
 7757      52564544 
 7757      3000
 7758              	.LASF60:
 7759 1f0f 5F5F5549 		.ascii	"__UINT_FAST32_TYPE__ unsigned int\000"
 7759      4E545F46 
 7759      41535433 
 7759      325F5459 
 7759      50455F5F 
 7760              	.LASF909:
 7761 1f31 756E7369 		.ascii	"unsigned char\000"
 7761      676E6564 
 7761      20636861 
 7761      7200
 7762              	.LASF227:
 7763 1f3f 5F5F5341 		.ascii	"__SACCUM_IBIT__ 8\000"
 7763      4343554D 
 7763      5F494249 
 7763      545F5F20 
 7763      3800
 7764              	.LASF719:
 7765 1f51 436F7265 		.ascii	"CoreDebug_DEMCR_VC_INTERR_Msk (1UL << CoreDebug_DEM"
 7765      44656275 
 7765      675F4445 
 7765      4D43525F 
 7765      56435F49 
 7766 1f84 43525F56 		.ascii	"CR_VC_INTERR_Pos)\000"
 7766      435F494E 
 7766      54455252 
 7766      5F506F73 
 7766      2900
 7767              	.LASF128:
 7768 1f96 5F5F464C 		.ascii	"__FLT_MAX_10_EXP__ 38\000"
 7768      545F4D41 
 7768      585F3130 
 7768      5F455850 
 7768      5F5F2033 
 7769              	.LASF868:
 7770 1fac 4750494F 		.ascii	"GPIO3_Byte ((GPIO_Byte_TypeDef *)(LPC_GPIO3_BASE))\000"
ARM GAS  C:\Users\COSMIN~1.MAR\AppData\Local\Temp\ccJVXHYk.s 			page 168


 7770      335F4279 
 7770      74652028 
 7770      28475049 
 7770      4F5F4279 
 7771              	.LASF181:
 7772 1fdf 5F5F4445 		.ascii	"__DEC128_MAX_EXP__ 6145\000"
 7772      43313238 
 7772      5F4D4158 
 7772      5F455850 
 7772      5F5F2036 
 7773              	.LASF118:
 7774 1ff7 5F5F4743 		.ascii	"__GCC_IEC_559 0\000"
 7774      435F4945 
 7774      435F3535 
 7774      39203000 
 7775              	.LASF419:
 7776 2007 494E545F 		.ascii	"INT_LEAST32_MAX __INT_LEAST32_MAX__\000"
 7776      4C454153 
 7776      5433325F 
 7776      4D415820 
 7776      5F5F494E 
 7777              	.LASF7:
 7778 202b 5F5F4154 		.ascii	"__ATOMIC_SEQ_CST 5\000"
 7778      4F4D4943 
 7778      5F534551 
 7778      5F435354 
 7778      203500
 7779              	.LASF521:
 7780 203e 5343425F 		.ascii	"SCB_SCR_SLEEPONEXIT_Msk (1UL << SCB_SCR_SLEEPONEXIT"
 7780      5343525F 
 7780      534C4545 
 7780      504F4E45 
 7780      5849545F 
 7781 2071 5F506F73 		.ascii	"_Pos)\000"
 7781      2900
 7782              	.LASF845:
 7783 2077 4C50435F 		.ascii	"LPC_GPDMACH2 ((LPC_GPDMACH_TypeDef *) LPC_GPDMACH2_"
 7783      4750444D 
 7783      41434832 
 7783      2028284C 
 7783      50435F47 
 7784 20aa 42415345 		.ascii	"BASE )\000"
 7784      202900
 7785              	.LASF668:
 7786 20b1 4D50555F 		.ascii	"MPU_RASR_C_Pos 17\000"
 7786      52415352 
 7786      5F435F50 
 7786      6F732031 
 7786      3700
 7787              	.LASF363:
 7788 20c3 5F5F434D 		.ascii	"__CM3_CMSIS_VERSION ((__CM3_CMSIS_VERSION_MAIN << 1"
 7788      335F434D 
 7788      5349535F 
 7788      56455253 
 7788      494F4E20 
 7789 20f6 3629207C 		.ascii	"6) | __CM3_CMSIS_VERSION_SUB)\000"
 7789      205F5F43 
ARM GAS  C:\Users\COSMIN~1.MAR\AppData\Local\Temp\ccJVXHYk.s 			page 169


 7789      4D335F43 
 7789      4D534953 
 7789      5F564552 
 7790              	.LASF644:
 7791 2114 4D50555F 		.ascii	"MPU_TYPE_SEPARATE_Pos 0\000"
 7791      54595045 
 7791      5F534550 
 7791      41524154 
 7791      455F506F 
 7792              	.LASF739:
 7793 212c 53434220 		.ascii	"SCB ((SCB_Type *) SCB_BASE)\000"
 7793      28285343 
 7793      425F5479 
 7793      7065202A 
 7793      29205343 
 7794              	.LASF141:
 7795 2148 5F5F4442 		.ascii	"__DBL_MAX_EXP__ 1024\000"
 7795      4C5F4D41 
 7795      585F4558 
 7795      505F5F20 
 7795      31303234 
 7796              	.LASF112:
 7797 215d 5F5F5549 		.ascii	"__UINT_FAST8_MAX__ 4294967295U\000"
 7797      4E545F46 
 7797      41535438 
 7797      5F4D4158 
 7797      5F5F2034 
 7798              	.LASF274:
 7799 217c 5F5F5451 		.ascii	"__TQ_FBIT__ 127\000"
 7799      5F464249 
 7799      545F5F20 
 7799      31323700 
 7800              	.LASF185:
 7801 218c 5F5F4445 		.ascii	"__DEC128_SUBNORMAL_MIN__ 0.000000000000000000000000"
 7801      43313238 
 7801      5F535542 
 7801      4E4F524D 
 7801      414C5F4D 
 7802 21bf 30303030 		.ascii	"000000001E-6143DL\000"
 7802      30303030 
 7802      31452D36 
 7802      31343344 
 7802      4C00
 7803              	.LASF819:
 7804 21d1 4C50435F 		.ascii	"LPC_UART3 ((LPC_UART_TypeDef *) LPC_UART3_BASE )\000"
 7804      55415254 
 7804      33202828 
 7804      4C50435F 
 7804      55415254 
 7805              	.LASF399:
 7806 2202 5F5F696E 		.ascii	"__int_fast64_t_defined 1\000"
 7806      745F6661 
 7806      73743634 
 7806      5F745F64 
 7806      6566696E 
 7807              	.LASF354:
 7808 221b 5F5F5553 		.ascii	"__USES_INITFINI__ 1\000"
ARM GAS  C:\Users\COSMIN~1.MAR\AppData\Local\Temp\ccJVXHYk.s 			page 170


 7808      45535F49 
 7808      4E495446 
 7808      494E495F 
 7808      5F203100 
 7809              	.LASF558:
 7810 222f 5343425F 		.ascii	"SCB_SHCSR_BUSFAULTACT_Pos 1\000"
 7810      53484353 
 7810      525F4255 
 7810      53464155 
 7810      4C544143 
 7811              	.LASF16:
 7812 224b 5F5F5349 		.ascii	"__SIZEOF_SHORT__ 2\000"
 7812      5A454F46 
 7812      5F53484F 
 7812      52545F5F 
 7812      203200
 7813              	.LASF261:
 7814 225e 5F5F554C 		.ascii	"__ULLACCUM_FBIT__ 32\000"
 7814      4C414343 
 7814      554D5F46 
 7814      4249545F 
 7814      5F203332 
 7815              	.LASF551:
 7816 2273 5343425F 		.ascii	"SCB_SHCSR_PENDSVACT_Msk (1UL << SCB_SHCSR_PENDSVACT"
 7816      53484353 
 7816      525F5045 
 7816      4E445356 
 7816      4143545F 
 7817 22a6 5F506F73 		.ascii	"_Pos)\000"
 7817      2900
 7818              	.LASF794:
 7819 22ac 4C50435F 		.ascii	"LPC_GPDMACH4_BASE (LPC_AHB_BASE + 0x04180)\000"
 7819      4750444D 
 7819      41434834 
 7819      5F424153 
 7819      4520284C 
 7820              	.LASF360:
 7821 22d7 5F5F434F 		.ascii	"__CORE_CM3_H_GENERIC \000"
 7821      52455F43 
 7821      4D335F48 
 7821      5F47454E 
 7821      45524943 
 7822              	.LASF727:
 7823 22ed 436F7265 		.ascii	"CoreDebug_DEMCR_VC_NOCPERR_Msk (1UL << CoreDebug_DE"
 7823      44656275 
 7823      675F4445 
 7823      4D43525F 
 7823      56435F4E 
 7824 2320 4D43525F 		.ascii	"MCR_VC_NOCPERR_Pos)\000"
 7824      56435F4E 
 7824      4F435045 
 7824      52525F50 
 7824      6F732900 
 7825              	.LASF765:
 7826 2334 4C50435F 		.ascii	"LPC_RTC_BASE (LPC_APB0_BASE + 0x24000)\000"
 7826      5254435F 
 7826      42415345 
ARM GAS  C:\Users\COSMIN~1.MAR\AppData\Local\Temp\ccJVXHYk.s 			page 171


 7826      20284C50 
 7826      435F4150 
 7827              	.LASF722:
 7828 235b 436F7265 		.ascii	"CoreDebug_DEMCR_VC_STATERR_Pos 7\000"
 7828      44656275 
 7828      675F4445 
 7828      4D43525F 
 7828      56435F53 
 7829              	.LASF131:
 7830 237c 5F5F464C 		.ascii	"__FLT_MIN__ 1.1754943508222875e-38F\000"
 7830      545F4D49 
 7830      4E5F5F20 
 7830      312E3137 
 7830      35343934 
 7831              	.LASF369:
 7832 23a0 5F535953 		.ascii	"_SYS_FEATURES_H \000"
 7832      5F464541 
 7832      54555245 
 7832      535F4820 
 7832      00
 7833              	.LASF694:
 7834 23b1 436F7265 		.ascii	"CoreDebug_DHCSR_C_MASKINTS_Pos 3\000"
 7834      44656275 
 7834      675F4448 
 7834      4353525F 
 7834      435F4D41 
 7835              	.LASF863:
 7836 23d2 53544154 		.ascii	"STATIC static\000"
 7836      49432073 
 7836      74617469 
 7836      6300
 7837              	.LASF547:
 7838 23e0 5343425F 		.ascii	"SCB_SHCSR_USGFAULTPENDED_Msk (1UL << SCB_SHCSR_USGF"
 7838      53484353 
 7838      525F5553 
 7838      47464155 
 7838      4C545045 
 7839 2413 41554C54 		.ascii	"AULTPENDED_Pos)\000"
 7839      50454E44 
 7839      45445F50 
 7839      6F732900 
 7840              	.LASF487:
 7841 2423 5343425F 		.ascii	"SCB_ICSR_PENDSTCLR_Msk (1UL << SCB_ICSR_PENDSTCLR_P"
 7841      49435352 
 7841      5F50454E 
 7841      44535443 
 7841      4C525F4D 
 7842 2456 6F732900 		.ascii	"os)\000"
 7843              	.LASF549:
 7844 245a 5343425F 		.ascii	"SCB_SHCSR_SYSTICKACT_Msk (1UL << SCB_SHCSR_SYSTICKA"
 7844      53484353 
 7844      525F5359 
 7844      53544943 
 7844      4B414354 
 7845 248d 43545F50 		.ascii	"CT_Pos)\000"
 7845      6F732900 
 7846              	.LASF801:
ARM GAS  C:\Users\COSMIN~1.MAR\AppData\Local\Temp\ccJVXHYk.s 			page 172


 7847 2495 4C50435F 		.ascii	"LPC_GPIO2_BASE (LPC_GPIO_BASE + 0x00040)\000"
 7847      4750494F 
 7847      325F4241 
 7847      53452028 
 7847      4C50435F 
 7848              	.LASF509:
 7849 24be 5343425F 		.ascii	"SCB_AIRCR_PRIGROUP_Msk (7UL << SCB_AIRCR_PRIGROUP_P"
 7849      41495243 
 7849      525F5052 
 7849      4947524F 
 7849      55505F4D 
 7850 24f1 6F732900 		.ascii	"os)\000"
 7851              	.LASF19:
 7852 24f5 5F5F5349 		.ascii	"__SIZEOF_LONG_DOUBLE__ 8\000"
 7852      5A454F46 
 7852      5F4C4F4E 
 7852      475F444F 
 7852      55424C45 
 7853              	.LASF667:
 7854 250e 4D50555F 		.ascii	"MPU_RASR_S_Msk (1UL << MPU_RASR_S_Pos)\000"
 7854      52415352 
 7854      5F535F4D 
 7854      736B2028 
 7854      31554C20 
 7855              	.LASF809:
 7856 2535 4C50435F 		.ascii	"LPC_GPIO4 ((LPC_GPIO_TypeDef *) LPC_GPIO4_BASE )\000"
 7856      4750494F 
 7856      34202828 
 7856      4C50435F 
 7856      4750494F 
 7857              	.LASF322:
 7858 2566 5F5F5052 		.ascii	"__PRAGMA_REDEFINE_EXTNAME 1\000"
 7858      41474D41 
 7858      5F524544 
 7858      4546494E 
 7858      455F4558 
 7859              	.LASF31:
 7860 2582 5F5F5743 		.ascii	"__WCHAR_TYPE__ unsigned int\000"
 7860      4841525F 
 7860      54595045 
 7860      5F5F2075 
 7860      6E736967 
 7861              	.LASF1010:
 7862 259e 6D61736B 		.ascii	"maskValue\000"
 7862      56616C75 
 7862      6500
 7863              	.LASF978:
 7864 25a8 63686172 		.ascii	"char\000"
 7864      00
 7865              	.LASF127:
 7866 25ad 5F5F464C 		.ascii	"__FLT_MAX_EXP__ 128\000"
 7866      545F4D41 
 7866      585F4558 
 7866      505F5F20 
 7866      31323800 
 7867              	.LASF308:
 7868 25c1 5F5F4743 		.ascii	"__GCC_HAVE_SYNC_COMPARE_AND_SWAP_2 1\000"
ARM GAS  C:\Users\COSMIN~1.MAR\AppData\Local\Temp\ccJVXHYk.s 			page 173


 7868      435F4841 
 7868      56455F53 
 7868      594E435F 
 7868      434F4D50 
 7869              	.LASF459:
 7870 25e6 494E544D 		.ascii	"INTMAX_C(x) __INTMAX_C(x)\000"
 7870      41585F43 
 7870      28782920 
 7870      5F5F494E 
 7870      544D4158 
 7871              	.LASF446:
 7872 2600 50545244 		.ascii	"PTRDIFF_MIN (-PTRDIFF_MAX - 1)\000"
 7872      4946465F 
 7872      4D494E20 
 7872      282D5054 
 7872      52444946 
 7873              	.LASF358:
 7874 261f 5F5F4E56 		.ascii	"__NVIC_PRIO_BITS 5\000"
 7874      49435F50 
 7874      52494F5F 
 7874      42495453 
 7874      203500
 7875              	.LASF66:
 7876 2632 5F5F4758 		.ascii	"__GXX_ABI_VERSION 1002\000"
 7876      585F4142 
 7876      495F5645 
 7876      5253494F 
 7876      4E203130 
 7877              	.LASF61:
 7878 2649 5F5F5549 		.ascii	"__UINT_FAST64_TYPE__ long long unsigned int\000"
 7878      4E545F46 
 7878      41535436 
 7878      345F5459 
 7878      50455F5F 
 7879              	.LASF827:
 7880 2675 4C50435F 		.ascii	"LPC_GPIOINT ((LPC_GPIOINT_TypeDef *) LPC_GPIOINT_BA"
 7880      4750494F 
 7880      494E5420 
 7880      28284C50 
 7880      435F4750 
 7881 26a8 53452029 		.ascii	"SE )\000"
 7881      00
 7882              	.LASF826:
 7883 26ad 4C50435F 		.ascii	"LPC_RTC ((LPC_RTC_TypeDef *) LPC_RTC_BASE )\000"
 7883      52544320 
 7883      28284C50 
 7883      435F5254 
 7883      435F5479 
 7884              	.LASF1015:
 7885 26d9 46494F5F 		.ascii	"FIO_HalfWordClearValue\000"
 7885      48616C66 
 7885      576F7264 
 7885      436C6561 
 7885      7256616C 
 7886              	.LASF576:
 7887 26f0 5343425F 		.ascii	"SCB_DFSR_VCATCH_Pos 3\000"
 7887      44465352 
ARM GAS  C:\Users\COSMIN~1.MAR\AppData\Local\Temp\ccJVXHYk.s 			page 174


 7887      5F564341 
 7887      5443485F 
 7887      506F7320 
 7888              	.LASF286:
 7889 2706 5F5F4841 		.ascii	"__HA_FBIT__ 7\000"
 7889      5F464249 
 7889      545F5F20 
 7889      3700
 7890              	.LASF620:
 7891 2714 49544D5F 		.ascii	"ITM_IWR_ATVALIDM_Pos 0\000"
 7891      4957525F 
 7891      41545641 
 7891      4C49444D 
 7891      5F506F73 
 7892              	.LASF27:
 7893 272b 5F5F464C 		.ascii	"__FLOAT_WORD_ORDER__ __ORDER_LITTLE_ENDIAN__\000"
 7893      4F41545F 
 7893      574F5244 
 7893      5F4F5244 
 7893      45525F5F 
 7894              	.LASF318:
 7895 2758 5F5F4743 		.ascii	"__GCC_ATOMIC_LLONG_LOCK_FREE 1\000"
 7895      435F4154 
 7895      4F4D4943 
 7895      5F4C4C4F 
 7895      4E475F4C 
 7896              	.LASF828:
 7897 2777 4C50435F 		.ascii	"LPC_PINCON ((LPC_PINCON_TypeDef *) LPC_PINCON_BASE "
 7897      50494E43 
 7897      4F4E2028 
 7897      284C5043 
 7897      5F50494E 
 7898 27aa 2900     		.ascii	")\000"
 7899              	.LASF166:
 7900 27ac 5F5F4445 		.ascii	"__DEC32_MIN_EXP__ (-94)\000"
 7900      4333325F 
 7900      4D494E5F 
 7900      4558505F 
 7900      5F20282D 
 7901              	.LASF192:
 7902 27c4 5F5F5553 		.ascii	"__USFRACT_IBIT__ 0\000"
 7902      46524143 
 7902      545F4942 
 7902      49545F5F 
 7902      203000
 7903              	.LASF912:
 7904 27d7 5F5F7569 		.ascii	"__uint16_t\000"
 7904      6E743136 
 7904      5F7400
 7905              	.LASF613:
 7906 27e2 49544D5F 		.ascii	"ITM_TCR_DWTENA_Msk (1UL << ITM_TCR_DWTENA_Pos)\000"
 7906      5443525F 
 7906      44575445 
 7906      4E415F4D 
 7906      736B2028 
 7907              	.LASF193:
 7908 2811 5F5F5553 		.ascii	"__USFRACT_MIN__ 0.0UHR\000"
ARM GAS  C:\Users\COSMIN~1.MAR\AppData\Local\Temp\ccJVXHYk.s 			page 175


 7908      46524143 
 7908      545F4D49 
 7908      4E5F5F20 
 7908      302E3055 
 7909              	.LASF649:
 7910 2828 4D50555F 		.ascii	"MPU_CTRL_HFNMIENA_Msk (1UL << MPU_CTRL_HFNMIENA_Pos"
 7910      4354524C 
 7910      5F48464E 
 7910      4D49454E 
 7910      415F4D73 
 7911 285b 2900     		.ascii	")\000"
 7912              	.LASF780:
 7913 285d 4C50435F 		.ascii	"LPC_UART2_BASE (LPC_APB1_BASE + 0x18000)\000"
 7913      55415254 
 7913      325F4241 
 7913      53452028 
 7913      4C50435F 
 7914              	.LASF376:
 7915 2886 5F5F5F69 		.ascii	"___int16_t_defined 1\000"
 7915      6E743136 
 7915      5F745F64 
 7915      6566696E 
 7915      65642031 
 7916              	.LASF155:
 7917 289b 5F5F4C44 		.ascii	"__LDBL_MAX_EXP__ 1024\000"
 7917      424C5F4D 
 7917      41585F45 
 7917      58505F5F 
 7917      20313032 
 7918              	.LASF520:
 7919 28b1 5343425F 		.ascii	"SCB_SCR_SLEEPONEXIT_Pos 1\000"
 7919      5343525F 
 7919      534C4545 
 7919      504F4E45 
 7919      5849545F 
 7920              	.LASF388:
 7921 28cb 5F5F696E 		.ascii	"__int8_t_defined 1\000"
 7921      74385F74 
 7921      5F646566 
 7921      696E6564 
 7921      203100
 7922              	.LASF148:
 7923 28de 5F5F4442 		.ascii	"__DBL_HAS_DENORM__ 1\000"
 7923      4C5F4841 
 7923      535F4445 
 7923      4E4F524D 
 7923      5F5F2031 
 7924              	.LASF496:
 7925 28f3 5343425F 		.ascii	"SCB_ICSR_VECTACTIVE_Pos 0\000"
 7925      49435352 
 7925      5F564543 
 7925      54414354 
 7925      4956455F 
 7926              	.LASF965:
 7927 290d 494F3049 		.ascii	"IO0IntStatF\000"
 7927      6E745374 
 7927      61744600 
ARM GAS  C:\Users\COSMIN~1.MAR\AppData\Local\Temp\ccJVXHYk.s 			page 176


 7928              	.LASF590:
 7929 2919 53797354 		.ascii	"SysTick_CTRL_ENABLE_Pos 0\000"
 7929      69636B5F 
 7929      4354524C 
 7929      5F454E41 
 7929      424C455F 
 7930              	.LASF616:
 7931 2933 49544D5F 		.ascii	"ITM_TCR_TSENA_Pos 1\000"
 7931      5443525F 
 7931      5453454E 
 7931      415F506F 
 7931      73203100 
 7932              	.LASF792:
 7933 2947 4C50435F 		.ascii	"LPC_GPDMACH2_BASE (LPC_AHB_BASE + 0x04140)\000"
 7933      4750444D 
 7933      41434832 
 7933      5F424153 
 7933      4520284C 
 7934              	.LASF534:
 7935 2972 5343425F 		.ascii	"SCB_SHCSR_USGFAULTENA_Pos 18\000"
 7935      53484353 
 7935      525F5553 
 7935      47464155 
 7935      4C54454E 
 7936              	.LASF996:
 7937 298f 4750494F 		.ascii	"GPIO_IntCmd\000"
 7937      5F496E74 
 7937      436D6400 
 7938              	.LASF964:
 7939 299b 494F3049 		.ascii	"IO0IntStatR\000"
 7939      6E745374 
 7939      61745200 
 7940              	.LASF858:
 7941 29a7 5F534246 		.ascii	"_SBF(f,v) (v<<f)\000"
 7941      28662C76 
 7941      29202876 
 7941      3C3C6629 
 7941      00
 7942              	.LASF888:
 7943 29b8 5F493243 		.ascii	"_I2C0 1\000"
 7943      30203100 
 7944              	.LASF518:
 7945 29c0 5343425F 		.ascii	"SCB_SCR_SLEEPDEEP_Pos 2\000"
 7945      5343525F 
 7945      534C4545 
 7945      50444545 
 7945      505F506F 
 7946              	.LASF818:
 7947 29d8 4C50435F 		.ascii	"LPC_UART2 ((LPC_UART_TypeDef *) LPC_UART2_BASE )\000"
 7947      55415254 
 7947      32202828 
 7947      4C50435F 
 7947      55415254 
 7948              	.LASF483:
 7949 2a09 5343425F 		.ascii	"SCB_ICSR_PENDSVCLR_Msk (1UL << SCB_ICSR_PENDSVCLR_P"
 7949      49435352 
 7949      5F50454E 
ARM GAS  C:\Users\COSMIN~1.MAR\AppData\Local\Temp\ccJVXHYk.s 			page 177


 7949      44535643 
 7949      4C525F4D 
 7950 2a3c 6F732900 		.ascii	"os)\000"
 7951              	.LASF133:
 7952 2a40 5F5F464C 		.ascii	"__FLT_DENORM_MIN__ 1.4012984643248171e-45F\000"
 7952      545F4445 
 7952      4E4F524D 
 7952      5F4D494E 
 7952      5F5F2031 
 7953              	.LASF903:
 7954 2a6b 5F4D4350 		.ascii	"_MCPWM 1\000"
 7954      574D2031 
 7954      00
 7955              	.LASF949:
 7956 2a74 46494F53 		.ascii	"FIOSET0\000"
 7956      45543000 
 7957              	.LASF950:
 7958 2a7c 46494F53 		.ascii	"FIOSET1\000"
 7958      45543100 
 7959              	.LASF951:
 7960 2a84 46494F53 		.ascii	"FIOSET2\000"
 7960      45543200 
 7961              	.LASF952:
 7962 2a8c 46494F53 		.ascii	"FIOSET3\000"
 7962      45543300 
 7963              	.LASF536:
 7964 2a94 5343425F 		.ascii	"SCB_SHCSR_BUSFAULTENA_Pos 17\000"
 7964      53484353 
 7964      525F4255 
 7964      53464155 
 7964      4C54454E 
 7965              	.LASF407:
 7966 2ab1 494E545F 		.ascii	"INT_LEAST8_MAX __INT_LEAST8_MAX__\000"
 7966      4C454153 
 7966      54385F4D 
 7966      4158205F 
 7966      5F494E54 
 7967              	.LASF635:
 7968 2ad3 496E7454 		.ascii	"IntType_ACTLR_DISFOLD_Msk (1UL << IntType_ACTLR_DIS"
 7968      7970655F 
 7968      4143544C 
 7968      525F4449 
 7968      53464F4C 
 7969 2b06 464F4C44 		.ascii	"FOLD_Pos)\000"
 7969      5F506F73 
 7969      2900
 7970              	.LASF65:
 7971 2b10 5F5F6861 		.ascii	"__has_include_next(STR) __has_include_next__(STR)\000"
 7971      735F696E 
 7971      636C7564 
 7971      655F6E65 
 7971      78742853 
 7972              	.LASF718:
 7973 2b42 436F7265 		.ascii	"CoreDebug_DEMCR_VC_INTERR_Pos 9\000"
 7973      44656275 
 7973      675F4445 
 7973      4D43525F 
ARM GAS  C:\Users\COSMIN~1.MAR\AppData\Local\Temp\ccJVXHYk.s 			page 178


 7973      56435F49 
 7974              	.LASF105:
 7975 2b62 5F5F5549 		.ascii	"__UINT32_C(c) c ## UL\000"
 7975      4E543332 
 7975      5F432863 
 7975      29206320 
 7975      23232055 
 7976              	.LASF474:
 7977 2b78 5343425F 		.ascii	"SCB_CPUID_PARTNO_Pos 4\000"
 7977      43505549 
 7977      445F5041 
 7977      52544E4F 
 7977      5F506F73 
 7978              	.LASF479:
 7979 2b8f 5343425F 		.ascii	"SCB_ICSR_NMIPENDSET_Msk (1UL << SCB_ICSR_NMIPENDSET"
 7979      49435352 
 7979      5F4E4D49 
 7979      50454E44 
 7979      5345545F 
 7980 2bc2 5F506F73 		.ascii	"_Pos)\000"
 7980      2900
 7981              	.LASF857:
 7982 2bc8 5F534246 		.ascii	"_SBF\000"
 7982      00
 7983              	.LASF87:
 7984 2bcd 5F5F494E 		.ascii	"__INT64_MAX__ 9223372036854775807LL\000"
 7984      5436345F 
 7984      4D41585F 
 7984      5F203932 
 7984      32333337 
 7985              	.LASF132:
 7986 2bf1 5F5F464C 		.ascii	"__FLT_EPSILON__ 1.1920928955078125e-7F\000"
 7986      545F4550 
 7986      53494C4F 
 7986      4E5F5F20 
 7986      312E3139 
 7987              	.LASF703:
 7988 2c18 436F7265 		.ascii	"CoreDebug_DCRSR_REGWnR_Msk (1UL << CoreDebug_DCRSR_"
 7988      44656275 
 7988      675F4443 
 7988      5253525F 
 7988      52454757 
 7989 2c4b 52454757 		.ascii	"REGWnR_Pos)\000"
 7989      6E525F50 
 7989      6F732900 
 7990              	.LASF680:
 7991 2c57 436F7265 		.ascii	"CoreDebug_DHCSR_S_RESET_ST_Pos 25\000"
 7991      44656275 
 7991      675F4448 
 7991      4353525F 
 7991      535F5245 
 7992              	.LASF948:
 7993 2c79 46494F53 		.ascii	"FIOSETH\000"
 7993      45544800 
 7994              	.LASF947:
 7995 2c81 46494F53 		.ascii	"FIOSETL\000"
 7995      45544C00 
ARM GAS  C:\Users\COSMIN~1.MAR\AppData\Local\Temp\ccJVXHYk.s 			page 179


 7996              	.LASF605:
 7997 2c89 49544D5F 		.ascii	"ITM_TCR_BUSY_Msk (1UL << ITM_TCR_BUSY_Pos)\000"
 7997      5443525F 
 7997      42555359 
 7997      5F4D736B 
 7997      20283155 
 7998              	.LASF854:
 7999 2cb4 50415241 		.ascii	"PARAM_FUNCTIONALSTATE(State) ((State==DISABLE) || ("
 7999      4D5F4655 
 7999      4E435449 
 7999      4F4E414C 
 7999      53544154 
 8000 2ce7 53746174 		.ascii	"State==ENABLE))\000"
 8000      653D3D45 
 8000      4E41424C 
 8000      45292900 
 8001              	.LASF527:
 8002 2cf7 5343425F 		.ascii	"SCB_CCR_DIV_0_TRP_Msk (1UL << SCB_CCR_DIV_0_TRP_Pos"
 8002      4343525F 
 8002      4449565F 
 8002      305F5452 
 8002      505F4D73 
 8003 2d2a 2900     		.ascii	")\000"
 8004              	.LASF763:
 8005 2d2c 4C50435F 		.ascii	"LPC_I2C0_BASE (LPC_APB0_BASE + 0x1C000)\000"
 8005      49324330 
 8005      5F424153 
 8005      4520284C 
 8005      50435F41 
 8006              	.LASF584:
 8007 2d54 53797354 		.ascii	"SysTick_CTRL_COUNTFLAG_Pos 16\000"
 8007      69636B5F 
 8007      4354524C 
 8007      5F434F55 
 8007      4E54464C 
 8008              	.LASF391:
 8009 2d72 5F5F696E 		.ascii	"__int_least16_t_defined 1\000"
 8009      745F6C65 
 8009      61737431 
 8009      365F745F 
 8009      64656669 
 8010              	.LASF983:
 8011 2d8c 46494F53 		.ascii	"FIOSETU\000"
 8011      45545500 
 8012              	.LASF701:
 8013 2d94 436F7265 		.ascii	"CoreDebug_DHCSR_C_DEBUGEN_Msk (1UL << CoreDebug_DHC"
 8013      44656275 
 8013      675F4448 
 8013      4353525F 
 8013      435F4445 
 8014 2dc7 53525F43 		.ascii	"SR_C_DEBUGEN_Pos)\000"
 8014      5F444542 
 8014      5547454E 
 8014      5F506F73 
 8014      2900
 8015              	.LASF418:
 8016 2dd9 494E545F 		.ascii	"INT_LEAST32_MIN (-__INT_LEAST32_MAX__ - 1)\000"
ARM GAS  C:\Users\COSMIN~1.MAR\AppData\Local\Temp\ccJVXHYk.s 			page 180


 8016      4C454153 
 8016      5433325F 
 8016      4D494E20 
 8016      282D5F5F 
 8017              	.LASF315:
 8018 2e04 5F5F4743 		.ascii	"__GCC_ATOMIC_SHORT_LOCK_FREE 2\000"
 8018      435F4154 
 8018      4F4D4943 
 8018      5F53484F 
 8018      52545F4C 
 8019              	.LASF562:
 8020 2e23 5343425F 		.ascii	"SCB_CFSR_USGFAULTSR_Pos 16\000"
 8020      43465352 
 8020      5F555347 
 8020      4641554C 
 8020      5453525F 
 8021              	.LASF655:
 8022 2e3e 4D50555F 		.ascii	"MPU_RBAR_ADDR_Msk (0x7FFFFFFUL << MPU_RBAR_ADDR_Pos"
 8022      52424152 
 8022      5F414444 
 8022      525F4D73 
 8022      6B202830 
 8023 2e71 2900     		.ascii	")\000"
 8024              	.LASF597:
 8025 2e73 53797354 		.ascii	"SysTick_CALIB_NOREF_Msk (1UL << SysTick_CALIB_NOREF"
 8025      69636B5F 
 8025      43414C49 
 8025      425F4E4F 
 8025      5245465F 
 8026 2ea6 5F506F73 		.ascii	"_Pos)\000"
 8026      2900
 8027              	.LASF269:
 8028 2eac 5F5F4851 		.ascii	"__HQ_IBIT__ 0\000"
 8028      5F494249 
 8028      545F5F20 
 8028      3000
 8029              	.LASF231:
 8030 2eba 5F5F5553 		.ascii	"__USACCUM_FBIT__ 8\000"
 8030      41434355 
 8030      4D5F4642 
 8030      49545F5F 
 8030      203800
 8031              	.LASF319:
 8032 2ecd 5F5F4743 		.ascii	"__GCC_ATOMIC_TEST_AND_SET_TRUEVAL 1\000"
 8032      435F4154 
 8032      4F4D4943 
 8032      5F544553 
 8032      545F414E 
 8033              	.LASF835:
 8034 2ef1 4C50435F 		.ascii	"LPC_CANCR ((LPC_CANCR_TypeDef *) LPC_CANCR_BASE )\000"
 8034      43414E43 
 8034      52202828 
 8034      4C50435F 
 8034      43414E43 
 8035              	.LASF493:
 8036 2f23 5343425F 		.ascii	"SCB_ICSR_VECTPENDING_Msk (0x1FFUL << SCB_ICSR_VECTP"
 8036      49435352 
ARM GAS  C:\Users\COSMIN~1.MAR\AppData\Local\Temp\ccJVXHYk.s 			page 181


 8036      5F564543 
 8036      5450454E 
 8036      44494E47 
 8037 2f56 454E4449 		.ascii	"ENDING_Pos)\000"
 8037      4E475F50 
 8037      6F732900 
 8038              	.LASF539:
 8039 2f62 5343425F 		.ascii	"SCB_SHCSR_MEMFAULTENA_Msk (1UL << SCB_SHCSR_MEMFAUL"
 8039      53484353 
 8039      525F4D45 
 8039      4D464155 
 8039      4C54454E 
 8040 2f95 54454E41 		.ascii	"TENA_Pos)\000"
 8040      5F506F73 
 8040      2900
 8041              	.LASF246:
 8042 2f9f 5F5F4C41 		.ascii	"__LACCUM_FBIT__ 31\000"
 8042      4343554D 
 8042      5F464249 
 8042      545F5F20 
 8042      333100
 8043              	.LASF163:
 8044 2fb2 5F5F4C44 		.ascii	"__LDBL_HAS_INFINITY__ 1\000"
 8044      424C5F48 
 8044      41535F49 
 8044      4E46494E 
 8044      4954595F 
 8045              	.LASF292:
 8046 2fca 5F5F5441 		.ascii	"__TA_FBIT__ 63\000"
 8046      5F464249 
 8046      545F5F20 
 8046      363300
 8047              	.LASF411:
 8048 2fd9 55494E54 		.ascii	"UINT16_MAX __UINT16_MAX__\000"
 8048      31365F4D 
 8048      4158205F 
 8048      5F55494E 
 8048      5431365F 
 8049              	.LASF400:
 8050 2ff3 494E5450 		.ascii	"INTPTR_MIN (-__INTPTR_MAX__ - 1)\000"
 8050      54525F4D 
 8050      494E2028 
 8050      2D5F5F49 
 8050      4E545054 
 8051              	.LASF653:
 8052 3014 4D50555F 		.ascii	"MPU_RNR_REGION_Msk (0xFFUL << MPU_RNR_REGION_Pos)\000"
 8052      524E525F 
 8052      52454749 
 8052      4F4E5F4D 
 8052      736B2028 
 8053              	.LASF790:
 8054 3046 4C50435F 		.ascii	"LPC_GPDMACH0_BASE (LPC_AHB_BASE + 0x04100)\000"
 8054      4750444D 
 8054      41434830 
 8054      5F424153 
 8054      4520284C 
 8055              	.LASF351:
ARM GAS  C:\Users\COSMIN~1.MAR\AppData\Local\Temp\ccJVXHYk.s 			page 182


 8056 3071 5F5F4152 		.ascii	"__ARM_ARCH_EXT_IDIV__ 1\000"
 8056      4D5F4152 
 8056      43485F45 
 8056      58545F49 
 8056      4449565F 
 8057              	.LASF349:
 8058 3089 5F5F4152 		.ascii	"__ARM_PCS 1\000"
 8058      4D5F5043 
 8058      53203100 
 8059              	.LASF764:
 8060 3095 4C50435F 		.ascii	"LPC_SPI_BASE (LPC_APB0_BASE + 0x20000)\000"
 8060      5350495F 
 8060      42415345 
 8060      20284C50 
 8060      435F4150 
 8061              	.LASF441:
 8062 30bc 55494E54 		.ascii	"UINTMAX_MAX __UINTMAX_MAX__\000"
 8062      4D41585F 
 8062      4D415820 
 8062      5F5F5549 
 8062      4E544D41 
 8063              	.LASF83:
 8064 30d8 5F5F5349 		.ascii	"__SIG_ATOMIC_MIN__ (-__SIG_ATOMIC_MAX__ - 1)\000"
 8064      475F4154 
 8064      4F4D4943 
 8064      5F4D494E 
 8064      5F5F2028 
 8065              	.LASF816:
 8066 3105 4C50435F 		.ascii	"LPC_UART0 ((LPC_UART_TypeDef *) LPC_UART0_BASE )\000"
 8066      55415254 
 8066      30202828 
 8066      4C50435F 
 8066      55415254 
 8067              	.LASF243:
 8068 3136 5F5F5541 		.ascii	"__UACCUM_MIN__ 0.0UK\000"
 8068      4343554D 
 8068      5F4D494E 
 8068      5F5F2030 
 8068      2E30554B 
 8069              	.LASF480:
 8070 314b 5343425F 		.ascii	"SCB_ICSR_PENDSVSET_Pos 28\000"
 8070      49435352 
 8070      5F50454E 
 8070      44535653 
 8070      45545F50 
 8071              	.LASF749:
 8072 3165 4C50435F 		.ascii	"LPC_RAM_BASE (0x10000000UL)\000"
 8072      52414D5F 
 8072      42415345 
 8072      20283078 
 8072      31303030 
 8073              	.LASF510:
 8074 3181 5343425F 		.ascii	"SCB_AIRCR_SYSRESETREQ_Pos 2\000"
 8074      41495243 
 8074      525F5359 
 8074      53524553 
 8074      45545245 
ARM GAS  C:\Users\COSMIN~1.MAR\AppData\Local\Temp\ccJVXHYk.s 			page 183


 8075              	.LASF468:
 8076 319d 5F5F4F20 		.ascii	"__O volatile\000"
 8076      766F6C61 
 8076      74696C65 
 8076      00
 8077              	.LASF410:
 8078 31aa 494E5431 		.ascii	"INT16_MAX __INT16_MAX__\000"
 8078      365F4D41 
 8078      58205F5F 
 8078      494E5431 
 8078      365F4D41 
 8079              	.LASF362:
 8080 31c2 5F5F434D 		.ascii	"__CM3_CMSIS_VERSION_SUB (0x00)\000"
 8080      335F434D 
 8080      5349535F 
 8080      56455253 
 8080      494F4E5F 
 8081              	.LASF443:
 8082 31e1 5349475F 		.ascii	"SIG_ATOMIC_MIN (-__STDINT_EXP(INT_MAX) - 1)\000"
 8082      41544F4D 
 8082      49435F4D 
 8082      494E2028 
 8082      2D5F5F53 
 8083              	.LASF723:
 8084 320d 436F7265 		.ascii	"CoreDebug_DEMCR_VC_STATERR_Msk (1UL << CoreDebug_DE"
 8084      44656275 
 8084      675F4445 
 8084      4D43525F 
 8084      56435F53 
 8085 3240 4D43525F 		.ascii	"MCR_VC_STATERR_Pos)\000"
 8085      56435F53 
 8085      54415445 
 8085      52525F50 
 8085      6F732900 
 8086              	.LASF776:
 8087 3254 4C50435F 		.ascii	"LPC_SSP0_BASE (LPC_APB1_BASE + 0x08000)\000"
 8087      53535030 
 8087      5F424153 
 8087      4520284C 
 8087      50435F41 
 8088              	.LASF851:
 8089 327c 4C50435F 		.ascii	"LPC_USB ((LPC_USB_TypeDef *) LPC_USB_BASE )\000"
 8089      55534220 
 8089      28284C50 
 8089      435F5553 
 8089      425F5479 
 8090              	.LASF395:
 8091 32a8 5F5F696E 		.ascii	"__int_least64_t_defined 1\000"
 8091      745F6C65 
 8091      61737436 
 8091      345F745F 
 8091      64656669 
 8092              	.LASF648:
 8093 32c2 4D50555F 		.ascii	"MPU_CTRL_HFNMIENA_Pos 1\000"
 8093      4354524C 
 8093      5F48464E 
 8093      4D49454E 
ARM GAS  C:\Users\COSMIN~1.MAR\AppData\Local\Temp\ccJVXHYk.s 			page 184


 8093      415F506F 
 8094              	.LASF632:
 8095 32da 496E7454 		.ascii	"IntType_ICTR_INTLINESNUM_Pos 0\000"
 8095      7970655F 
 8095      49435452 
 8095      5F494E54 
 8095      4C494E45 
 8096              	.LASF543:
 8097 32f9 5343425F 		.ascii	"SCB_SHCSR_BUSFAULTPENDED_Msk (1UL << SCB_SHCSR_BUSF"
 8097      53484353 
 8097      525F4255 
 8097      53464155 
 8097      4C545045 
 8098 332c 41554C54 		.ascii	"AULTPENDED_Pos)\000"
 8098      50454E44 
 8098      45445F50 
 8098      6F732900 
 8099              	.LASF178:
 8100 333c 5F5F4445 		.ascii	"__DEC64_SUBNORMAL_MIN__ 0.000000000000001E-383DD\000"
 8100      4336345F 
 8100      5355424E 
 8100      4F524D41 
 8100      4C5F4D49 
 8101              	.LASF195:
 8102 336d 5F5F5553 		.ascii	"__USFRACT_EPSILON__ 0x1P-8UHR\000"
 8102      46524143 
 8102      545F4550 
 8102      53494C4F 
 8102      4E5F5F20 
 8103              	.LASF893:
 8104 338b 5F475044 		.ascii	"_GPDMA 1\000"
 8104      4D412031 
 8104      00
 8105              	.LASF355:
 8106 3394 4C504331 		.ascii	"LPC17XX_GPIO_H_ \000"
 8106      3758585F 
 8106      4750494F 
 8106      5F485F20 
 8106      00
 8107              	.LASF111:
 8108 33a5 5F5F494E 		.ascii	"__INT_FAST64_MAX__ 9223372036854775807LL\000"
 8108      545F4641 
 8108      53543634 
 8108      5F4D4158 
 8108      5F5F2039 
 8109              	.LASF846:
 8110 33ce 4C50435F 		.ascii	"LPC_GPDMACH3 ((LPC_GPDMACH_TypeDef *) LPC_GPDMACH3_"
 8110      4750444D 
 8110      41434833 
 8110      2028284C 
 8110      50435F47 
 8111 3401 42415345 		.ascii	"BASE )\000"
 8111      202900
 8112              	.LASF191:
 8113 3408 5F5F5553 		.ascii	"__USFRACT_FBIT__ 8\000"
 8113      46524143 
 8113      545F4642 
ARM GAS  C:\Users\COSMIN~1.MAR\AppData\Local\Temp\ccJVXHYk.s 			page 185


 8113      49545F5F 
 8113      203800
 8114              	.LASF259:
 8115 341b 5F5F4C4C 		.ascii	"__LLACCUM_MAX__ 0X7FFFFFFFFFFFFFFFP-31LLK\000"
 8115      41434355 
 8115      4D5F4D41 
 8115      585F5F20 
 8115      30583746 
 8116              	.LASF673:
 8117 3445 4D50555F 		.ascii	"MPU_RASR_SRD_Msk (0xFFUL << MPU_RASR_SRD_Pos)\000"
 8117      52415352 
 8117      5F535244 
 8117      5F4D736B 
 8117      20283078 
 8118              	.LASF1004:
 8119 3473 46494F5F 		.ascii	"FIO_ClearValue\000"
 8119      436C6561 
 8119      7256616C 
 8119      756500
 8120              	.LASF1002:
 8121 3482 46494F5F 		.ascii	"FIO_SetDir\000"
 8121      53657444 
 8121      697200
 8122              	.LASF120:
 8123 348d 5F5F464C 		.ascii	"__FLT_EVAL_METHOD__ 0\000"
 8123      545F4556 
 8123      414C5F4D 
 8123      4554484F 
 8123      445F5F20 
 8124              	.LASF393:
 8125 34a3 5F5F696E 		.ascii	"__int_least32_t_defined 1\000"
 8125      745F6C65 
 8125      61737433 
 8125      325F745F 
 8125      64656669 
 8126              	.LASF303:
 8127 34bd 5F5F5553 		.ascii	"__USER_LABEL_PREFIX__ \000"
 8127      45525F4C 
 8127      4142454C 
 8127      5F505245 
 8127      4649585F 
 8128              	.LASF428:
 8129 34d4 494E545F 		.ascii	"INT_FAST8_MAX __INT_FAST8_MAX__\000"
 8129      46415354 
 8129      385F4D41 
 8129      58205F5F 
 8129      494E545F 
 8130              	.LASF669:
 8131 34f4 4D50555F 		.ascii	"MPU_RASR_C_Msk (1UL << MPU_RASR_C_Pos)\000"
 8131      52415352 
 8131      5F435F4D 
 8131      736B2028 
 8131      31554C20 
 8132              	.LASF457:
 8133 351b 494E5436 		.ascii	"INT64_C(x) __INT64_C(x)\000"
 8133      345F4328 
 8133      7829205F 
ARM GAS  C:\Users\COSMIN~1.MAR\AppData\Local\Temp\ccJVXHYk.s 			page 186


 8133      5F494E54 
 8133      36345F43 
 8134              	.LASF403:
 8135 3533 494E5438 		.ascii	"INT8_MIN (-__INT8_MAX__ - 1)\000"
 8135      5F4D494E 
 8135      20282D5F 
 8135      5F494E54 
 8135      385F4D41 
 8136              	.LASF770:
 8137 3550 4C50435F 		.ascii	"LPC_CANAF_RAM_BASE (LPC_APB0_BASE + 0x38000)\000"
 8137      43414E41 
 8137      465F5241 
 8137      4D5F4241 
 8137      53452028 
 8138              	.LASF837:
 8139 357d 4C50435F 		.ascii	"LPC_CAN2 ((LPC_CAN_TypeDef *) LPC_CAN2_BASE )\000"
 8139      43414E32 
 8139      2028284C 
 8139      50435F43 
 8139      414E5F54 
 8140              	.LASF811:
 8141 35ab 4C50435F 		.ascii	"LPC_TIM0 ((LPC_TIM_TypeDef *) LPC_TIM0_BASE )\000"
 8141      54494D30 
 8141      2028284C 
 8141      50435F54 
 8141      494D5F54 
 8142              	.LASF320:
 8143 35d9 5F5F4743 		.ascii	"__GCC_ATOMIC_POINTER_LOCK_FREE 2\000"
 8143      435F4154 
 8143      4F4D4943 
 8143      5F504F49 
 8143      4E544552 
 8144              	.LASF326:
 8145 35fa 5F5F4152 		.ascii	"__ARM_FEATURE_QBIT 1\000"
 8145      4D5F4645 
 8145      41545552 
 8145      455F5142 
 8145      49542031 
 8146              	.LASF331:
 8147 360f 5F5F4152 		.ascii	"__ARM_FEATURE_CLZ 1\000"
 8147      4D5F4645 
 8147      41545552 
 8147      455F434C 
 8147      5A203100 
 8148              	.LASF8:
 8149 3623 5F5F4154 		.ascii	"__ATOMIC_ACQUIRE 2\000"
 8149      4F4D4943 
 8149      5F414351 
 8149      55495245 
 8149      203200
 8150              	.LASF966:
 8151 3636 494F3049 		.ascii	"IO0IntClr\000"
 8151      6E74436C 
 8151      7200
 8152              	.LASF901:
 8153 3640 5F555342 		.ascii	"_USB_DMA 1\000"
 8153      5F444D41 
ARM GAS  C:\Users\COSMIN~1.MAR\AppData\Local\Temp\ccJVXHYk.s 			page 187


 8153      203100
 8154              	.LASF5:
 8155 364b 5F5F5645 		.ascii	"__VERSION__ \"4.9.3 20150303 (release) [ARM/embedde"
 8155      5253494F 
 8155      4E5F5F20 
 8155      22342E39 
 8155      2E332032 
 8156 367d 642D345F 		.ascii	"d-4_9-branch revision 221220]\"\000"
 8156      392D6272 
 8156      616E6368 
 8156      20726576 
 8156      6973696F 
 8157              	.LASF515:
 8158 369c 5343425F 		.ascii	"SCB_AIRCR_VECTRESET_Msk (1UL << SCB_AIRCR_VECTRESET"
 8158      41495243 
 8158      525F5645 
 8158      43545245 
 8158      5345545F 
 8159 36cf 5F506F73 		.ascii	"_Pos)\000"
 8159      2900
 8160              	.LASF759:
 8161 36d5 4C50435F 		.ascii	"LPC_TIM1_BASE (LPC_APB0_BASE + 0x08000)\000"
 8161      54494D31 
 8161      5F424153 
 8161      4520284C 
 8161      50435F41 
 8162              	.LASF610:
 8163 36fd 49544D5F 		.ascii	"ITM_TCR_SWOENA_Pos 4\000"
 8163      5443525F 
 8163      53574F45 
 8163      4E415F50 
 8163      6F732034 
 8164              	.LASF333:
 8165 3712 5F5F4152 		.ascii	"__ARM_SIZEOF_WCHAR_T 4\000"
 8165      4D5F5349 
 8165      5A454F46 
 8165      5F574348 
 8165      41525F54 
 8166              	.LASF685:
 8167 3729 436F7265 		.ascii	"CoreDebug_DHCSR_S_LOCKUP_Msk (1UL << CoreDebug_DHCS"
 8167      44656275 
 8167      675F4448 
 8167      4353525F 
 8167      535F4C4F 
 8168 375c 525F535F 		.ascii	"R_S_LOCKUP_Pos)\000"
 8168      4C4F434B 
 8168      55505F50 
 8168      6F732900 
 8169              	.LASF64:
 8170 376c 5F5F6861 		.ascii	"__has_include(STR) __has_include__(STR)\000"
 8170      735F696E 
 8170      636C7564 
 8170      65285354 
 8170      5229205F 
 8171              	.LASF463:
 8172 3794 5F5F5353 		.ascii	"__SSAT(ARG1,ARG2) ({ uint32_t __RES, __ARG1 = (ARG1"
 8172      41542841 
ARM GAS  C:\Users\COSMIN~1.MAR\AppData\Local\Temp\ccJVXHYk.s 			page 188


 8172      5247312C 
 8172      41524732 
 8172      2920287B 
 8173 37c7 293B205F 		.ascii	"); __ASM (\"ssat %0, %1, %2\" : \"=r\" (__RES) : \""
 8173      5F41534D 
 8173      20282273 
 8173      73617420 
 8173      25302C20 
 8174 37f5 49222028 		.ascii	"I\" (ARG2), \"r\" (__ARG1) ); __RES; })\000"
 8174      41524732 
 8174      292C2022 
 8174      72222028 
 8174      5F5F4152 
 8175              	.LASF881:
 8176 381a 5F554152 		.ascii	"_UART2 1\000"
 8176      54322031 
 8176      00
 8177              	.LASF477:
 8178 3823 5343425F 		.ascii	"SCB_CPUID_REVISION_Msk (0xFUL << SCB_CPUID_REVISION"
 8178      43505549 
 8178      445F5245 
 8178      56495349 
 8178      4F4E5F4D 
 8179 3856 5F506F73 		.ascii	"_Pos)\000"
 8179      2900
 8180              	.LASF942:
 8181 385c 46494F50 		.ascii	"FIOPIN0\000"
 8181      494E3000 
 8182              	.LASF943:
 8183 3864 46494F50 		.ascii	"FIOPIN1\000"
 8183      494E3100 
 8184              	.LASF944:
 8185 386c 46494F50 		.ascii	"FIOPIN2\000"
 8185      494E3200 
 8186              	.LASF945:
 8187 3874 46494F50 		.ascii	"FIOPIN3\000"
 8187      494E3300 
 8188              	.LASF135:
 8189 387c 5F5F464C 		.ascii	"__FLT_HAS_INFINITY__ 1\000"
 8189      545F4841 
 8189      535F494E 
 8189      46494E49 
 8189      54595F5F 
 8190              	.LASF239:
 8191 3893 5F5F4143 		.ascii	"__ACCUM_MAX__ 0X7FFFFFFFP-15K\000"
 8191      43554D5F 
 8191      4D41585F 
 8191      5F203058 
 8191      37464646 
 8192              	.LASF491:
 8193 38b1 5343425F 		.ascii	"SCB_ICSR_ISRPENDING_Msk (1UL << SCB_ICSR_ISRPENDING"
 8193      49435352 
 8193      5F495352 
 8193      50454E44 
 8193      494E475F 
 8194 38e4 5F506F73 		.ascii	"_Pos)\000"
 8194      2900
ARM GAS  C:\Users\COSMIN~1.MAR\AppData\Local\Temp\ccJVXHYk.s 			page 189


 8195              	.LASF994:
 8196 38ea 4750494F 		.ascii	"GPIO_SetValue\000"
 8196      5F536574 
 8196      56616C75 
 8196      6500
 8197              	.LASF1012:
 8198 38f8 68616C66 		.ascii	"halfwordNum\000"
 8198      776F7264 
 8198      4E756D00 
 8199              	.LASF321:
 8200 3904 5F5F4743 		.ascii	"__GCC_HAVE_DWARF2_CFI_ASM 1\000"
 8200      435F4841 
 8200      56455F44 
 8200      57415246 
 8200      325F4346 
 8201              	.LASF375:
 8202 3920 5F5F5F69 		.ascii	"___int8_t_defined 1\000"
 8202      6E74385F 
 8202      745F6465 
 8202      66696E65 
 8202      64203100 
 8203              	.LASF188:
 8204 3934 5F5F5346 		.ascii	"__SFRACT_MIN__ (-0.5HR-0.5HR)\000"
 8204      52414354 
 8204      5F4D494E 
 8204      5F5F2028 
 8204      2D302E35 
 8205              	.LASF917:
 8206 3952 6C6F6E67 		.ascii	"long unsigned int\000"
 8206      20756E73 
 8206      69676E65 
 8206      6420696E 
 8206      7400
 8207              	.LASF289:
 8208 3964 5F5F5341 		.ascii	"__SA_IBIT__ 16\000"
 8208      5F494249 
 8208      545F5F20 
 8208      313600
 8209              	.LASF941:
 8210 3973 46494F50 		.ascii	"FIOPINH\000"
 8210      494E4800 
 8211              	.LASF788:
 8212 397b 4C50435F 		.ascii	"LPC_EMAC_BASE (LPC_AHB_BASE + 0x00000)\000"
 8212      454D4143 
 8212      5F424153 
 8212      4520284C 
 8212      50435F41 
 8213              	.LASF774:
 8214 39a2 4C50435F 		.ascii	"LPC_CAN2_BASE (LPC_APB0_BASE + 0x48000)\000"
 8214      43414E32 
 8214      5F424153 
 8214      4520284C 
 8214      50435F41 
 8215              	.LASF940:
 8216 39ca 46494F50 		.ascii	"FIOPINL\000"
 8216      494E4C00 
 8217              	.LASF43:
ARM GAS  C:\Users\COSMIN~1.MAR\AppData\Local\Temp\ccJVXHYk.s 			page 190


 8218 39d2 5F5F5549 		.ascii	"__UINT16_TYPE__ short unsigned int\000"
 8218      4E543136 
 8218      5F545950 
 8218      455F5F20 
 8218      73686F72 
 8219              	.LASF343:
 8220 39f5 5F5F534F 		.ascii	"__SOFTFP__ 1\000"
 8220      46544650 
 8220      5F5F2031 
 8220      00
 8221              	.LASF982:
 8222 3a02 46494F50 		.ascii	"FIOPINU\000"
 8222      494E5500 
 8223              	.LASF631:
 8224 3a0a 49544D5F 		.ascii	"ITM_LSR_Present_Msk (1UL << ITM_LSR_Present_Pos)\000"
 8224      4C53525F 
 8224      50726573 
 8224      656E745F 
 8224      4D736B20 
 8225              	.LASF167:
 8226 3a3b 5F5F4445 		.ascii	"__DEC32_MAX_EXP__ 97\000"
 8226      4333325F 
 8226      4D41585F 
 8226      4558505F 
 8226      5F203937 
 8227              	.LASF600:
 8228 3a50 53797354 		.ascii	"SysTick_CALIB_TENMS_Pos 0\000"
 8228      69636B5F 
 8228      43414C49 
 8228      425F5445 
 8228      4E4D535F 
 8229              	.LASF489:
 8230 3a6a 5343425F 		.ascii	"SCB_ICSR_ISRPREEMPT_Msk (1UL << SCB_ICSR_ISRPREEMPT"
 8230      49435352 
 8230      5F495352 
 8230      50524545 
 8230      4D50545F 
 8231 3a9d 5F506F73 		.ascii	"_Pos)\000"
 8231      2900
 8232              	.LASF761:
 8233 3aa3 4C50435F 		.ascii	"LPC_UART1_BASE (LPC_APB0_BASE + 0x10000)\000"
 8233      55415254 
 8233      315F4241 
 8233      53452028 
 8233      4C50435F 
 8234              	.LASF735:
 8235 3acc 53797354 		.ascii	"SysTick_BASE (SCS_BASE + 0x0010UL)\000"
 8235      69636B5F 
 8235      42415345 
 8235      20285343 
 8235      535F4241 
 8236              	.LASF451:
 8237 3aef 494E5438 		.ascii	"INT8_C(x) __INT8_C(x)\000"
 8237      5F432878 
 8237      29205F5F 
 8237      494E5438 
 8237      5F432878 
ARM GAS  C:\Users\COSMIN~1.MAR\AppData\Local\Temp\ccJVXHYk.s 			page 191


 8238              	.LASF651:
 8239 3b05 4D50555F 		.ascii	"MPU_CTRL_ENABLE_Msk (1UL << MPU_CTRL_ENABLE_Pos)\000"
 8239      4354524C 
 8239      5F454E41 
 8239      424C455F 
 8239      4D736B20 
 8240              	.LASF58:
 8241 3b36 5F5F5549 		.ascii	"__UINT_FAST8_TYPE__ unsigned int\000"
 8241      4E545F46 
 8241      41535438 
 8241      5F545950 
 8241      455F5F20 
 8242              	.LASF257:
 8243 3b57 5F5F4C4C 		.ascii	"__LLACCUM_IBIT__ 32\000"
 8243      41434355 
 8243      4D5F4942 
 8243      49545F5F 
 8243      20333200 
 8244              	.LASF555:
 8245 3b6b 5343425F 		.ascii	"SCB_SHCSR_SVCALLACT_Msk (1UL << SCB_SHCSR_SVCALLACT"
 8245      53484353 
 8245      525F5356 
 8245      43414C4C 
 8245      4143545F 
 8246 3b9e 5F506F73 		.ascii	"_Pos)\000"
 8246      2900
 8247              	.LASF200:
 8248 3ba4 5F5F4652 		.ascii	"__FRACT_EPSILON__ 0x1P-15R\000"
 8248      4143545F 
 8248      45505349 
 8248      4C4F4E5F 
 8248      5F203078 
 8249              	.LASF864:
 8250 3bbf 45585445 		.ascii	"EXTERN extern\000"
 8250      524E2065 
 8250      78746572 
 8250      6E00
 8251              	.LASF364:
 8252 3bcd 5F5F434F 		.ascii	"__CORTEX_M (0x03)\000"
 8252      52544558 
 8252      5F4D2028 
 8252      30783033 
 8252      2900
 8253              	.LASF51:
 8254 3bdf 5F5F5549 		.ascii	"__UINT_LEAST16_TYPE__ short unsigned int\000"
 8254      4E545F4C 
 8254      45415354 
 8254      31365F54 
 8254      5950455F 
 8255              	.LASF352:
 8256 3c08 5F5F4758 		.ascii	"__GXX_TYPEINFO_EQUALITY_INLINE 0\000"
 8256      585F5459 
 8256      5045494E 
 8256      464F5F45 
 8256      5155414C 
 8257              	.LASF870:
 8258 3c29 4750494F 		.ascii	"GPIO0_HalfWord ((GPIO_HalfWord_TypeDef *)(LPC_GPIO0"
ARM GAS  C:\Users\COSMIN~1.MAR\AppData\Local\Temp\ccJVXHYk.s 			page 192


 8258      305F4861 
 8258      6C66576F 
 8258      72642028 
 8258      28475049 
 8259 3c5c 5F424153 		.ascii	"_BASE))\000"
 8259      45292900 
 8260              	.LASF522:
 8261 3c64 5343425F 		.ascii	"SCB_CCR_STKALIGN_Pos 9\000"
 8261      4343525F 
 8261      53544B41 
 8261      4C49474E 
 8261      5F506F73 
 8262              	.LASF357:
 8263 3c7b 5F5F4D50 		.ascii	"__MPU_PRESENT 1\000"
 8263      555F5052 
 8263      4553454E 
 8263      54203100 
 8264              	.LASF37:
 8265 3c8b 5F5F5349 		.ascii	"__SIG_ATOMIC_TYPE__ int\000"
 8265      475F4154 
 8265      4F4D4943 
 8265      5F545950 
 8265      455F5F20 
 8266              	.LASF894:
 8267 3ca3 5F444143 		.ascii	"_DAC 1\000"
 8267      203100
 8268              	.LASF624:
 8269 3caa 49544D5F 		.ascii	"ITM_IMCR_INTEGRATION_Pos 0\000"
 8269      494D4352 
 8269      5F494E54 
 8269      45475241 
 8269      54494F4E 
 8270              	.LASF657:
 8271 3cc5 4D50555F 		.ascii	"MPU_RBAR_VALID_Msk (1UL << MPU_RBAR_VALID_Pos)\000"
 8271      52424152 
 8271      5F56414C 
 8271      49445F4D 
 8271      736B2028 
 8272              	.LASF841:
 8273 3cf4 4C50435F 		.ascii	"LPC_GPDMA ((LPC_GPDMA_TypeDef *) LPC_GPDMA_BASE )\000"
 8273      4750444D 
 8273      41202828 
 8273      4C50435F 
 8273      4750444D 
 8274              	.LASF503:
 8275 3d26 5343425F 		.ascii	"SCB_AIRCR_VECTKEY_Msk (0xFFFFUL << SCB_AIRCR_VECTKE"
 8275      41495243 
 8275      525F5645 
 8275      43544B45 
 8275      595F4D73 
 8276 3d59 595F506F 		.ascii	"Y_Pos)\000"
 8276      732900
 8277              	.LASF69:
 8278 3d60 5F5F494E 		.ascii	"__INT_MAX__ 2147483647\000"
 8278      545F4D41 
 8278      585F5F20 
 8278      32313437 
ARM GAS  C:\Users\COSMIN~1.MAR\AppData\Local\Temp\ccJVXHYk.s 			page 193


 8278      34383336 
 8279              	.LASF545:
 8280 3d77 5343425F 		.ascii	"SCB_SHCSR_MEMFAULTPENDED_Msk (1UL << SCB_SHCSR_MEMF"
 8280      53484353 
 8280      525F4D45 
 8280      4D464155 
 8280      4C545045 
 8281 3daa 41554C54 		.ascii	"AULTPENDED_Pos)\000"
 8281      50454E44 
 8281      45445F50 
 8281      6F732900 
 8282              	.LASF53:
 8283 3dba 5F5F5549 		.ascii	"__UINT_LEAST64_TYPE__ long long unsigned int\000"
 8283      4E545F4C 
 8283      45415354 
 8283      36345F54 
 8283      5950455F 
 8284              	.LASF184:
 8285 3de7 5F5F4445 		.ascii	"__DEC128_EPSILON__ 1E-33DL\000"
 8285      43313238 
 8285      5F455053 
 8285      494C4F4E 
 8285      5F5F2031 
 8286              	.LASF786:
 8287 3e02 4C50435F 		.ascii	"LPC_QEI_BASE (LPC_APB1_BASE + 0x3C000)\000"
 8287      5145495F 
 8287      42415345 
 8287      20284C50 
 8287      435F4150 
 8288              	.LASF552:
 8289 3e29 5343425F 		.ascii	"SCB_SHCSR_MONITORACT_Pos 8\000"
 8289      53484353 
 8289      525F4D4F 
 8289      4E49544F 
 8289      52414354 
 8290              	.LASF160:
 8291 3e44 5F5F4C44 		.ascii	"__LDBL_EPSILON__ 2.2204460492503131e-16L\000"
 8291      424C5F45 
 8291      5053494C 
 8291      4F4E5F5F 
 8291      20322E32 
 8292              	.LASF634:
 8293 3e6d 496E7454 		.ascii	"IntType_ACTLR_DISFOLD_Pos 2\000"
 8293      7970655F 
 8293      4143544C 
 8293      525F4449 
 8293      53464F4C 
 8294              	.LASF502:
 8295 3e89 5343425F 		.ascii	"SCB_AIRCR_VECTKEY_Pos 16\000"
 8295      41495243 
 8295      525F5645 
 8295      43544B45 
 8295      595F506F 
 8296              	.LASF312:
 8297 3ea2 5F5F4743 		.ascii	"__GCC_ATOMIC_CHAR16_T_LOCK_FREE 2\000"
 8297      435F4154 
 8297      4F4D4943 
ARM GAS  C:\Users\COSMIN~1.MAR\AppData\Local\Temp\ccJVXHYk.s 			page 194


 8297      5F434841 
 8297      5231365F 
 8298              	.LASF384:
 8299 3ec4 5F535953 		.ascii	"_SYS__INTSUP_H \000"
 8299      5F5F494E 
 8299      54535550 
 8299      5F482000 
 8300              	.LASF9:
 8301 3ed4 5F5F4154 		.ascii	"__ATOMIC_RELEASE 3\000"
 8301      4F4D4943 
 8301      5F52454C 
 8301      45415345 
 8301      203300
 8302              	.LASF939:
 8303 3ee7 46494F4D 		.ascii	"FIOMASK\000"
 8303      41534B00 
 8304              	.LASF743:
 8305 3eef 436F7265 		.ascii	"CoreDebug ((CoreDebug_Type *) CoreDebug_BASE)\000"
 8305      44656275 
 8305      67202828 
 8305      436F7265 
 8305      44656275 
 8306              	.LASF123:
 8307 3f1d 5F5F464C 		.ascii	"__FLT_MANT_DIG__ 24\000"
 8307      545F4D41 
 8307      4E545F44 
 8307      49475F5F 
 8307      20323400 
 8308              	.LASF742:
 8309 3f31 49544D20 		.ascii	"ITM ((ITM_Type *) ITM_BASE)\000"
 8309      28284954 
 8309      4D5F5479 
 8309      7065202A 
 8309      29204954 
 8310              	.LASF56:
 8311 3f4d 5F5F494E 		.ascii	"__INT_FAST32_TYPE__ int\000"
 8311      545F4641 
 8311      53543332 
 8311      5F545950 
 8311      455F5F20 
 8312              	.LASF675:
 8313 3f65 4D50555F 		.ascii	"MPU_RASR_SIZE_Msk (0x1FUL << MPU_RASR_SIZE_Pos)\000"
 8313      52415352 
 8313      5F53495A 
 8313      455F4D73 
 8313      6B202830 
 8314              	.LASF746:
 8315 3f95 49544D5F 		.ascii	"ITM_RXBUFFER_EMPTY 0x5AA55AA5\000"
 8315      52584255 
 8315      46464552 
 8315      5F454D50 
 8315      54592030 
 8316              	.LASF316:
 8317 3fb3 5F5F4743 		.ascii	"__GCC_ATOMIC_INT_LOCK_FREE 2\000"
 8317      435F4154 
 8317      4F4D4943 
 8317      5F494E54 
ARM GAS  C:\Users\COSMIN~1.MAR\AppData\Local\Temp\ccJVXHYk.s 			page 195


 8317      5F4C4F43 
 8318              	.LASF1006:
 8319 3fd0 46494F5F 		.ascii	"FIO_IntCmd\000"
 8319      496E7443 
 8319      6D6400
 8320              	.LASF466:
 8321 3fdb 5F5F434F 		.ascii	"__CORE_CM3_H_DEPENDANT \000"
 8321      52455F43 
 8321      4D335F48 
 8321      5F444550 
 8321      454E4441 
 8322              	.LASF467:
 8323 3ff3 5F5F4920 		.ascii	"__I volatile const\000"
 8323      766F6C61 
 8323      74696C65 
 8323      20636F6E 
 8323      737400
 8324              	.LASF740:
 8325 4006 53797354 		.ascii	"SysTick ((SysTick_Type *) SysTick_BASE)\000"
 8325      69636B20 
 8325      28285379 
 8325      73546963 
 8325      6B5F5479 
 8326              	.LASF161:
 8327 402e 5F5F4C44 		.ascii	"__LDBL_DENORM_MIN__ 4.9406564584124654e-324L\000"
 8327      424C5F44 
 8327      454E4F52 
 8327      4D5F4D49 
 8327      4E5F5F20 
 8328              	.LASF642:
 8329 405b 4D50555F 		.ascii	"MPU_TYPE_DREGION_Pos 8\000"
 8329      54595045 
 8329      5F445245 
 8329      47494F4E 
 8329      5F506F73 
 8330              	.LASF327:
 8331 4072 5F5F4152 		.ascii	"__ARM_FEATURE_SAT 1\000"
 8331      4D5F4645 
 8331      41545552 
 8331      455F5341 
 8331      54203100 
 8332              	.LASF390:
 8333 4086 5F5F696E 		.ascii	"__int16_t_defined 1\000"
 8333      7431365F 
 8333      745F6465 
 8333      66696E65 
 8333      64203100 
 8334              	.LASF222:
 8335 409a 5F5F554C 		.ascii	"__ULLFRACT_IBIT__ 0\000"
 8335      4C465241 
 8335      43545F49 
 8335      4249545F 
 8335      5F203000 
 8336              	.LASF721:
 8337 40ae 436F7265 		.ascii	"CoreDebug_DEMCR_VC_BUSERR_Msk (1UL << CoreDebug_DEM"
 8337      44656275 
 8337      675F4445 
ARM GAS  C:\Users\COSMIN~1.MAR\AppData\Local\Temp\ccJVXHYk.s 			page 196


 8337      4D43525F 
 8337      56435F42 
 8338 40e1 43525F56 		.ascii	"CR_VC_BUSERR_Pos)\000"
 8338      435F4255 
 8338      53455252 
 8338      5F506F73 
 8338      2900
 8339              	.LASF928:
 8340 40f3 46494F44 		.ascii	"FIODIR0\000"
 8340      49523000 
 8341              	.LASF929:
 8342 40fb 46494F44 		.ascii	"FIODIR1\000"
 8342      49523100 
 8343              	.LASF930:
 8344 4103 46494F44 		.ascii	"FIODIR2\000"
 8344      49523200 
 8345              	.LASF931:
 8346 410b 46494F44 		.ascii	"FIODIR3\000"
 8346      49523300 
 8347              	.LASF476:
 8348 4113 5343425F 		.ascii	"SCB_CPUID_REVISION_Pos 0\000"
 8348      43505549 
 8348      445F5245 
 8348      56495349 
 8348      4F4E5F50 
 8349              	.LASF992:
 8350 412c 62697456 		.ascii	"bitValue\000"
 8350      616C7565 
 8350      00
 8351              	.LASF798:
 8352 4135 4C50435F 		.ascii	"LPC_USB_BASE (LPC_AHB_BASE + 0x0C000)\000"
 8352      5553425F 
 8352      42415345 
 8352      20284C50 
 8352      435F4148 
 8353              	.LASF830:
 8354 415b 4C50435F 		.ascii	"LPC_SSP1 ((LPC_SSP_TypeDef *) LPC_SSP1_BASE )\000"
 8354      53535031 
 8354      2028284C 
 8354      50435F53 
 8354      53505F54 
 8355              	.LASF1024:
 8356 4189 636F7265 		.ascii	"core/lpc17xx_gpio.c\000"
 8356      2F6C7063 
 8356      31377878 
 8356      5F677069 
 8356      6F2E6300 
 8357              	.LASF130:
 8358 419d 5F5F464C 		.ascii	"__FLT_MAX__ 3.4028234663852886e+38F\000"
 8358      545F4D41 
 8358      585F5F20 
 8358      332E3430 
 8358      32383233 
 8359              	.LASF416:
 8360 41c1 494E5433 		.ascii	"INT32_MAX __INT32_MAX__\000"
 8360      325F4D41 
 8360      58205F5F 
ARM GAS  C:\Users\COSMIN~1.MAR\AppData\Local\Temp\ccJVXHYk.s 			page 197


 8360      494E5433 
 8360      325F4D41 
 8361              	.LASF241:
 8362 41d9 5F5F5541 		.ascii	"__UACCUM_FBIT__ 16\000"
 8362      4343554D 
 8362      5F464249 
 8362      545F5F20 
 8362      313600
 8363              	.LASF879:
 8364 41ec 5F554152 		.ascii	"_UART0 1\000"
 8364      54302031 
 8364      00
 8365              	.LASF205:
 8366 41f5 5F5F5546 		.ascii	"__UFRACT_EPSILON__ 0x1P-16UR\000"
 8366      52414354 
 8366      5F455053 
 8366      494C4F4E 
 8366      5F5F2030 
 8367              	.LASF927:
 8368 4212 46494F44 		.ascii	"FIODIRH\000"
 8368      49524800 
 8369              	.LASF90:
 8370 421a 5F5F5549 		.ascii	"__UINT32_MAX__ 4294967295UL\000"
 8370      4E543332 
 8370      5F4D4158 
 8370      5F5F2034 
 8370      32393439 
 8371              	.LASF974:
 8372 4236 4C50435F 		.ascii	"LPC_GPIOINT_TypeDef\000"
 8372      4750494F 
 8372      494E545F 
 8372      54797065 
 8372      44656600 
 8373              	.LASF277:
 8374 424a 5F5F5551 		.ascii	"__UQQ_IBIT__ 0\000"
 8374      515F4942 
 8374      49545F5F 
 8374      203000
 8375              	.LASF926:
 8376 4259 46494F44 		.ascii	"FIODIRL\000"
 8376      49524C00 
 8377              	.LASF317:
 8378 4261 5F5F4743 		.ascii	"__GCC_ATOMIC_LONG_LOCK_FREE 2\000"
 8378      435F4154 
 8378      4F4D4943 
 8378      5F4C4F4E 
 8378      475F4C4F 
 8379              	.LASF253:
 8380 427f 5F5F554C 		.ascii	"__ULACCUM_MIN__ 0.0ULK\000"
 8380      41434355 
 8380      4D5F4D49 
 8380      4E5F5F20 
 8380      302E3055 
 8381              	.LASF504:
 8382 4296 5343425F 		.ascii	"SCB_AIRCR_VECTKEYSTAT_Pos 16\000"
 8382      41495243 
 8382      525F5645 
ARM GAS  C:\Users\COSMIN~1.MAR\AppData\Local\Temp\ccJVXHYk.s 			page 198


 8382      43544B45 
 8382      59535441 
 8383              	.LASF916:
 8384 42b3 5F5F7569 		.ascii	"__uint32_t\000"
 8384      6E743332 
 8384      5F7400
 8385              	.LASF158:
 8386 42be 5F5F4C44 		.ascii	"__LDBL_MAX__ 1.7976931348623157e+308L\000"
 8386      424C5F4D 
 8386      41585F5F 
 8386      20312E37 
 8386      39373639 
 8387              	.LASF336:
 8388 42e4 5F5F4152 		.ascii	"__ARM_ARCH 7\000"
 8388      4D5F4152 
 8388      43482037 
 8388      00
 8389              	.LASF980:
 8390 42f1 46494F44 		.ascii	"FIODIRU\000"
 8390      49525500 
 8391              	.LASF815:
 8392 42f9 4C50435F 		.ascii	"LPC_RIT ((LPC_RIT_TypeDef *) LPC_RIT_BASE )\000"
 8392      52495420 
 8392      28284C50 
 8392      435F5249 
 8392      545F5479 
 8393              	.LASF122:
 8394 4325 5F5F464C 		.ascii	"__FLT_RADIX__ 2\000"
 8394      545F5241 
 8394      4449585F 
 8394      5F203200 
 8395              	.LASF918:
 8396 4335 6C6F6E67 		.ascii	"long long int\000"
 8396      206C6F6E 
 8396      6720696E 
 8396      7400
 8397              	.LASF971:
 8398 4343 494F3249 		.ascii	"IO2IntClr\000"
 8398      6E74436C 
 8398      7200
 8399              	.LASF775:
 8400 434d 4C50435F 		.ascii	"LPC_I2C1_BASE (LPC_APB0_BASE + 0x5C000)\000"
 8400      49324331 
 8400      5F424153 
 8400      4520284C 
 8400      50435F41 
 8401              	.LASF74:
 8402 4375 5F5F5749 		.ascii	"__WINT_MAX__ 4294967295U\000"
 8402      4E545F4D 
 8402      41585F5F 
 8402      20343239 
 8402      34393637 
 8403              	.LASF557:
 8404 438e 5343425F 		.ascii	"SCB_SHCSR_USGFAULTACT_Msk (1UL << SCB_SHCSR_USGFAUL"
 8404      53484353 
 8404      525F5553 
 8404      47464155 
ARM GAS  C:\Users\COSMIN~1.MAR\AppData\Local\Temp\ccJVXHYk.s 			page 199


 8404      4C544143 
 8405 43c1 54414354 		.ascii	"TACT_Pos)\000"
 8405      5F506F73 
 8405      2900
 8406              	.LASF820:
 8407 43cb 4C50435F 		.ascii	"LPC_PWM1 ((LPC_PWM_TypeDef *) LPC_PWM1_BASE )\000"
 8407      50574D31 
 8407      2028284C 
 8407      50435F50 
 8407      574D5F54 
 8408              	.LASF861:
 8409 43f9 4E554C4C 		.ascii	"NULL ((void*) 0)\000"
 8409      20282876 
 8409      6F69642A 
 8409      29203029 
 8409      00
 8410              	.LASF799:
 8411 440a 4C50435F 		.ascii	"LPC_GPIO0_BASE (LPC_GPIO_BASE + 0x00000)\000"
 8411      4750494F 
 8411      305F4241 
 8411      53452028 
 8411      4C50435F 
 8412              	.LASF287:
 8413 4433 5F5F4841 		.ascii	"__HA_IBIT__ 8\000"
 8413      5F494249 
 8413      545F5F20 
 8413      3800
 8414              	.LASF687:
 8415 4441 436F7265 		.ascii	"CoreDebug_DHCSR_S_SLEEP_Msk (1UL << CoreDebug_DHCSR"
 8415      44656275 
 8415      675F4448 
 8415      4353525F 
 8415      535F534C 
 8416 4474 5F535F53 		.ascii	"_S_SLEEP_Pos)\000"
 8416      4C454550 
 8416      5F506F73 
 8416      2900
 8417              	.LASF304:
 8418 4482 5F5F474E 		.ascii	"__GNUC_GNU_INLINE__ 1\000"
 8418      55435F47 
 8418      4E555F49 
 8418      4E4C494E 
 8418      455F5F20 
 8419              	.LASF953:
 8420 4498 46494F53 		.ascii	"FIOSET\000"
 8420      455400
 8421              	.LASF449:
 8422 449f 57494E54 		.ascii	"WINT_MAX __WINT_MAX__\000"
 8422      5F4D4158 
 8422      205F5F57 
 8422      494E545F 
 8422      4D41585F 
 8423              	.LASF800:
 8424 44b5 4C50435F 		.ascii	"LPC_GPIO1_BASE (LPC_GPIO_BASE + 0x00020)\000"
 8424      4750494F 
 8424      315F4241 
 8424      53452028 
ARM GAS  C:\Users\COSMIN~1.MAR\AppData\Local\Temp\ccJVXHYk.s 			page 200


 8424      4C50435F 
 8425              	.LASF439:
 8426 44de 494E544D 		.ascii	"INTMAX_MAX __INTMAX_MAX__\000"
 8426      41585F4D 
 8426      4158205F 
 8426      5F494E54 
 8426      4D41585F 
 8427              	.LASF960:
 8428 44f8 46494F43 		.ascii	"FIOCLR\000"
 8428      4C5200
 8429              	.LASF626:
 8430 44ff 49544D5F 		.ascii	"ITM_LSR_ByteAcc_Pos 2\000"
 8430      4C53525F 
 8430      42797465 
 8430      4163635F 
 8430      506F7320 
 8431              	.LASF991:
 8432 4515 46494F5F 		.ascii	"FIO_ByteGetPointer\000"
 8432      42797465 
 8432      47657450 
 8432      6F696E74 
 8432      657200
 8433              	.LASF377:
 8434 4528 5F5F5F69 		.ascii	"___int32_t_defined 1\000"
 8434      6E743332 
 8434      5F745F64 
 8434      6566696E 
 8434      65642031 
 8435              	.LASF41:
 8436 453d 5F5F494E 		.ascii	"__INT64_TYPE__ long long int\000"
 8436      5436345F 
 8436      54595045 
 8436      5F5F206C 
 8436      6F6E6720 
 8437              	.LASF206:
 8438 455a 5F5F4C46 		.ascii	"__LFRACT_FBIT__ 31\000"
 8438      52414354 
 8438      5F464249 
 8438      545F5F20 
 8438      333100
 8439              	.LASF21:
 8440 456d 5F5F4348 		.ascii	"__CHAR_BIT__ 8\000"
 8440      41525F42 
 8440      49545F5F 
 8440      203800
 8441              	.LASF323:
 8442 457c 5F5F5349 		.ascii	"__SIZEOF_WCHAR_T__ 4\000"
 8442      5A454F46 
 8442      5F574348 
 8442      41525F54 
 8442      5F5F2034 
 8443              	.LASF714:
 8444 4591 436F7265 		.ascii	"CoreDebug_DEMCR_MON_EN_Pos 16\000"
 8444      44656275 
 8444      675F4445 
 8444      4D43525F 
 8444      4D4F4E5F 
ARM GAS  C:\Users\COSMIN~1.MAR\AppData\Local\Temp\ccJVXHYk.s 			page 201


 8445              	.LASF412:
 8446 45af 494E545F 		.ascii	"INT_LEAST16_MIN (-__INT_LEAST16_MAX__ - 1)\000"
 8446      4C454153 
 8446      5431365F 
 8446      4D494E20 
 8446      282D5F5F 
 8447              	.LASF638:
 8448 45da 496E7454 		.ascii	"IntType_ACTLR_DISMCYCINT_Pos 0\000"
 8448      7970655F 
 8448      4143544C 
 8448      525F4449 
 8448      534D4359 
 8449              	.LASF104:
 8450 45f9 5F5F5549 		.ascii	"__UINT_LEAST32_MAX__ 4294967295UL\000"
 8450      4E545F4C 
 8450      45415354 
 8450      33325F4D 
 8450      41585F5F 
 8451              	.LASF492:
 8452 461b 5343425F 		.ascii	"SCB_ICSR_VECTPENDING_Pos 12\000"
 8452      49435352 
 8452      5F564543 
 8452      5450454E 
 8452      44494E47 
 8453              	.LASF733:
 8454 4637 49544D5F 		.ascii	"ITM_BASE (0xE0000000UL)\000"
 8454      42415345 
 8454      20283078 
 8454      45303030 
 8454      30303030 
 8455              	.LASF204:
 8456 464f 5F5F5546 		.ascii	"__UFRACT_MAX__ 0XFFFFP-16UR\000"
 8456      52414354 
 8456      5F4D4158 
 8456      5F5F2030 
 8456      58464646 
 8457              	.LASF382:
 8458 466b 5F5F5F69 		.ascii	"___int_least64_t_defined 1\000"
 8458      6E745F6C 
 8458      65617374 
 8458      36345F74 
 8458      5F646566 
 8459              	.LASF805:
 8460 4686 4C50435F 		.ascii	"LPC_GPIO0 ((LPC_GPIO_TypeDef *) LPC_GPIO0_BASE )\000"
 8460      4750494F 
 8460      30202828 
 8460      4C50435F 
 8460      4750494F 
 8461              	.LASF1026:
 8462 46b7 49544D5F 		.ascii	"ITM_RxBuffer\000"
 8462      52784275 
 8462      66666572 
 8462      00
 8463              	.LASF495:
 8464 46c4 5343425F 		.ascii	"SCB_ICSR_RETTOBASE_Msk (1UL << SCB_ICSR_RETTOBASE_P"
 8464      49435352 
 8464      5F524554 
ARM GAS  C:\Users\COSMIN~1.MAR\AppData\Local\Temp\ccJVXHYk.s 			page 202


 8464      544F4241 
 8464      53455F4D 
 8465 46f7 6F732900 		.ascii	"os)\000"
 8466              	.LASF470:
 8467 46fb 5343425F 		.ascii	"SCB_CPUID_IMPLEMENTER_Pos 24\000"
 8467      43505549 
 8467      445F494D 
 8467      504C454D 
 8467      454E5445 
 8468              	.LASF385:
 8469 4718 5F5F5354 		.ascii	"__STDINT_EXP(x) __ ##x ##__\000"
 8469      44494E54 
 8469      5F455850 
 8469      28782920 
 8469      5F5F2023 
 8470              	.LASF374:
 8471 4734 5F5F4558 		.ascii	"__EXP(x) __ ##x ##__\000"
 8471      50287829 
 8471      205F5F20 
 8471      23237820 
 8471      23235F5F 
 8472              	.LASF26:
 8473 4749 5F5F4259 		.ascii	"__BYTE_ORDER__ __ORDER_LITTLE_ENDIAN__\000"
 8473      54455F4F 
 8473      52444552 
 8473      5F5F205F 
 8473      5F4F5244 
 8474              	.LASF569:
 8475 4770 5343425F 		.ascii	"SCB_HFSR_DEBUGEVT_Msk (1UL << SCB_HFSR_DEBUGEVT_Pos"
 8475      48465352 
 8475      5F444542 
 8475      55474556 
 8475      545F4D73 
 8476 47a3 2900     		.ascii	")\000"
 8477              	.LASF438:
 8478 47a5 55494E54 		.ascii	"UINT_FAST64_MAX __UINT_FAST64_MAX__\000"
 8478      5F464153 
 8478      5436345F 
 8478      4D415820 
 8478      5F5F5549 
 8479              	.LASF731:
 8480 47c9 436F7265 		.ascii	"CoreDebug_DEMCR_VC_CORERESET_Msk (1UL << CoreDebug_"
 8480      44656275 
 8480      675F4445 
 8480      4D43525F 
 8480      56435F43 
 8481 47fc 44454D43 		.ascii	"DEMCR_VC_CORERESET_Pos)\000"
 8481      525F5643 
 8481      5F434F52 
 8481      45524553 
 8481      45545F50 
 8482              	.LASF784:
 8483 4814 4C50435F 		.ascii	"LPC_RIT_BASE (LPC_APB1_BASE + 0x30000)\000"
 8483      5249545F 
 8483      42415345 
 8483      20284C50 
 8483      435F4150 
ARM GAS  C:\Users\COSMIN~1.MAR\AppData\Local\Temp\ccJVXHYk.s 			page 203


 8484              	.LASF691:
 8485 483b 436F7265 		.ascii	"CoreDebug_DHCSR_S_REGRDY_Msk (1UL << CoreDebug_DHCS"
 8485      44656275 
 8485      675F4448 
 8485      4353525F 
 8485      535F5245 
 8486 486e 525F535F 		.ascii	"R_S_REGRDY_Pos)\000"
 8486      52454752 
 8486      44595F50 
 8486      6F732900 
 8487              	.LASF878:
 8488 487e 5F554152 		.ascii	"_UART 1\000"
 8488      54203100 
 8489              	.LASF621:
 8490 4886 49544D5F 		.ascii	"ITM_IWR_ATVALIDM_Msk (1UL << ITM_IWR_ATVALIDM_Pos)\000"
 8490      4957525F 
 8490      41545641 
 8490      4C49444D 
 8490      5F4D736B 
 8491              	.LASF32:
 8492 48b9 5F5F5749 		.ascii	"__WINT_TYPE__ unsigned int\000"
 8492      4E545F54 
 8492      5950455F 
 8492      5F20756E 
 8492      7369676E 
 8493              	.LASF282:
 8494 48d4 5F5F5544 		.ascii	"__UDQ_FBIT__ 64\000"
 8494      515F4642 
 8494      49545F5F 
 8494      20363400 
 8495              	.LASF813:
 8496 48e4 4C50435F 		.ascii	"LPC_TIM2 ((LPC_TIM_TypeDef *) LPC_TIM2_BASE )\000"
 8496      54494D32 
 8496      2028284C 
 8496      50435F54 
 8496      494D5F54 
 8497              	.LASF397:
 8498 4912 5F5F696E 		.ascii	"__int_fast16_t_defined 1\000"
 8498      745F6661 
 8498      73743136 
 8498      5F745F64 
 8498      6566696E 
 8499              	.LASF156:
 8500 492b 5F5F4C44 		.ascii	"__LDBL_MAX_10_EXP__ 308\000"
 8500      424C5F4D 
 8500      41585F31 
 8500      305F4558 
 8500      505F5F20 
 8501              	.LASF869:
 8502 4943 4750494F 		.ascii	"GPIO4_Byte ((GPIO_Byte_TypeDef *)(LPC_GPIO4_BASE))\000"
 8502      345F4279 
 8502      74652028 
 8502      28475049 
 8502      4F5F4279 
 8503              	.LASF548:
 8504 4976 5343425F 		.ascii	"SCB_SHCSR_SYSTICKACT_Pos 11\000"
 8504      53484353 
ARM GAS  C:\Users\COSMIN~1.MAR\AppData\Local\Temp\ccJVXHYk.s 			page 204


 8504      525F5359 
 8504      53544943 
 8504      4B414354 
 8505              	.LASF622:
 8506 4992 49544D5F 		.ascii	"ITM_IRR_ATREADYM_Pos 0\000"
 8506      4952525F 
 8506      41545245 
 8506      4144594D 
 8506      5F506F73 
 8507              	.LASF486:
 8508 49a9 5343425F 		.ascii	"SCB_ICSR_PENDSTCLR_Pos 25\000"
 8508      49435352 
 8508      5F50454E 
 8508      44535443 
 8508      4C525F50 
 8509              	.LASF920:
 8510 49c3 756E7369 		.ascii	"unsigned int\000"
 8510      676E6564 
 8510      20696E74 
 8510      00
 8511              	.LASF199:
 8512 49d0 5F5F4652 		.ascii	"__FRACT_MAX__ 0X7FFFP-15R\000"
 8512      4143545F 
 8512      4D41585F 
 8512      5F203058 
 8512      37464646 
 8513              	.LASF371:
 8514 49ea 5F5F4E45 		.ascii	"__NEWLIB_MINOR__ 2\000"
 8514      574C4942 
 8514      5F4D494E 
 8514      4F525F5F 
 8514      203200
 8515              	.LASF125:
 8516 49fd 5F5F464C 		.ascii	"__FLT_MIN_EXP__ (-125)\000"
 8516      545F4D49 
 8516      4E5F4558 
 8516      505F5F20 
 8516      282D3132 
 8517              	.LASF121:
 8518 4a14 5F5F4445 		.ascii	"__DEC_EVAL_METHOD__ 2\000"
 8518      435F4556 
 8518      414C5F4D 
 8518      4554484F 
 8518      445F5F20 
 8519              	.LASF456:
 8520 4a2a 55494E54 		.ascii	"UINT32_C(x) __UINT32_C(x)\000"
 8520      33325F43 
 8520      28782920 
 8520      5F5F5549 
 8520      4E543332 
 8521              	.LASF473:
 8522 4a44 5343425F 		.ascii	"SCB_CPUID_VARIANT_Msk (0xFUL << SCB_CPUID_VARIANT_P"
 8522      43505549 
 8522      445F5641 
 8522      5249414E 
 8522      545F4D73 
 8523 4a77 6F732900 		.ascii	"os)\000"
ARM GAS  C:\Users\COSMIN~1.MAR\AppData\Local\Temp\ccJVXHYk.s 			page 205


 8524              	.LASF232:
 8525 4a7b 5F5F5553 		.ascii	"__USACCUM_IBIT__ 8\000"
 8525      41434355 
 8525      4D5F4942 
 8525      49545F5F 
 8525      203800
 8526              	.LASF934:
 8527 4a8e 46494F4D 		.ascii	"FIOMASK0\000"
 8527      41534B30 
 8527      00
 8528              	.LASF935:
 8529 4a97 46494F4D 		.ascii	"FIOMASK1\000"
 8529      41534B31 
 8529      00
 8530              	.LASF936:
 8531 4aa0 46494F4D 		.ascii	"FIOMASK2\000"
 8531      41534B32 
 8531      00
 8532              	.LASF937:
 8533 4aa9 46494F4D 		.ascii	"FIOMASK3\000"
 8533      41534B33 
 8533      00
 8534              	.LASF117:
 8535 4ab2 5F5F5549 		.ascii	"__UINTPTR_MAX__ 4294967295U\000"
 8535      4E545054 
 8535      525F4D41 
 8535      585F5F20 
 8535      34323934 
 8536              	.LASF297:
 8537 4ace 5F5F5553 		.ascii	"__USA_IBIT__ 16\000"
 8537      415F4942 
 8537      49545F5F 
 8537      20313600 
 8538              	.LASF124:
 8539 4ade 5F5F464C 		.ascii	"__FLT_DIG__ 6\000"
 8539      545F4449 
 8539      475F5F20 
 8539      3600
 8540              	.LASF34:
 8541 4aec 5F5F5549 		.ascii	"__UINTMAX_TYPE__ long long unsigned int\000"
 8541      4E544D41 
 8541      585F5459 
 8541      50455F5F 
 8541      206C6F6E 
 8542              	.LASF987:
 8543 4b14 46494F5F 		.ascii	"FIO_HalfWordGetPointer\000"
 8543      48616C66 
 8543      576F7264 
 8543      47657450 
 8543      6F696E74 
 8544              	.LASF1019:
 8545 4b2b 46494F5F 		.ascii	"FIO_ByteSetMask\000"
 8545      42797465 
 8545      5365744D 
 8545      61736B00 
 8546              	.LASF720:
 8547 4b3b 436F7265 		.ascii	"CoreDebug_DEMCR_VC_BUSERR_Pos 8\000"
ARM GAS  C:\Users\COSMIN~1.MAR\AppData\Local\Temp\ccJVXHYk.s 			page 206


 8547      44656275 
 8547      675F4445 
 8547      4D43525F 
 8547      56435F42 
 8548              	.LASF750:
 8549 4b5b 4C50435F 		.ascii	"LPC_AHBRAM0_BASE (0x2007C000UL)\000"
 8549      41484252 
 8549      414D305F 
 8549      42415345 
 8549      20283078 
 8550              	.LASF956:
 8551 4b7b 46494F43 		.ascii	"FIOCLR0\000"
 8551      4C523000 
 8552              	.LASF957:
 8553 4b83 46494F43 		.ascii	"FIOCLR1\000"
 8553      4C523100 
 8554              	.LASF958:
 8555 4b8b 46494F43 		.ascii	"FIOCLR2\000"
 8555      4C523200 
 8556              	.LASF959:
 8557 4b93 46494F43 		.ascii	"FIOCLR3\000"
 8557      4C523300 
 8558              	.LASF348:
 8559 4b9b 5F5F4152 		.ascii	"__ARM_ARCH_7M__ 1\000"
 8559      4D5F4152 
 8559      43485F37 
 8559      4D5F5F20 
 8559      3100
 8560              	.LASF744:
 8561 4bad 4D50555F 		.ascii	"MPU_BASE (SCS_BASE + 0x0D90UL)\000"
 8561      42415345 
 8561      20285343 
 8561      535F4241 
 8561      5345202B 
 8562              	.LASF933:
 8563 4bcc 46494F4D 		.ascii	"FIOMASKH\000"
 8563      41534B48 
 8563      00
 8564              	.LASF116:
 8565 4bd5 5F5F494E 		.ascii	"__INTPTR_MAX__ 2147483647\000"
 8565      54505452 
 8565      5F4D4158 
 8565      5F5F2032 
 8565      31343734 
 8566              	.LASF932:
 8567 4bef 46494F4D 		.ascii	"FIOMASKL\000"
 8567      41534B4C 
 8567      00
 8568              	.LASF276:
 8569 4bf8 5F5F5551 		.ascii	"__UQQ_FBIT__ 8\000"
 8569      515F4642 
 8569      49545F5F 
 8569      203800
 8570              	.LASF595:
 8571 4c07 53797354 		.ascii	"SysTick_VAL_CURRENT_Msk (0xFFFFFFUL << SysTick_VAL_"
 8571      69636B5F 
 8571      56414C5F 
ARM GAS  C:\Users\COSMIN~1.MAR\AppData\Local\Temp\ccJVXHYk.s 			page 207


 8571      43555252 
 8571      454E545F 
 8572 4c3a 43555252 		.ascii	"CURRENT_Pos)\000"
 8572      454E545F 
 8572      506F7329 
 8572      00
 8573              	.LASF173:
 8574 4c47 5F5F4445 		.ascii	"__DEC64_MIN_EXP__ (-382)\000"
 8574      4336345F 
 8574      4D494E5F 
 8574      4558505F 
 8574      5F20282D 
 8575              	.LASF981:
 8576 4c60 46494F4D 		.ascii	"FIOMASKU\000"
 8576      41534B55 
 8576      00
 8577              	.LASF900:
 8578 4c69 5F555342 		.ascii	"_USBDEV 1\000"
 8578      44455620 
 8578      3100
 8579              	.LASF955:
 8580 4c73 46494F43 		.ascii	"FIOCLRH\000"
 8580      4C524800 
 8581              	.LASF413:
 8582 4c7b 494E545F 		.ascii	"INT_LEAST16_MAX __INT_LEAST16_MAX__\000"
 8582      4C454153 
 8582      5431365F 
 8582      4D415820 
 8582      5F5F494E 
 8583              	.LASF954:
 8584 4c9f 46494F43 		.ascii	"FIOCLRL\000"
 8584      4C524C00 
 8585              	.LASF325:
 8586 4ca7 5F5F5349 		.ascii	"__SIZEOF_PTRDIFF_T__ 4\000"
 8586      5A454F46 
 8586      5F505452 
 8586      44494646 
 8586      5F545F5F 
 8587              	.LASF0:
 8588 4cbe 5F5F5354 		.ascii	"__STDC__ 1\000"
 8588      44435F5F 
 8588      203100
 8589              	.LASF1009:
 8590 4cc9 46494F5F 		.ascii	"FIO_SetMask\000"
 8590      5365744D 
 8590      61736B00 
 8591              	.LASF984:
 8592 4cd5 46494F43 		.ascii	"FIOCLRU\000"
 8592      4C525500 
 8593              	.LASF42:
 8594 4cdd 5F5F5549 		.ascii	"__UINT8_TYPE__ unsigned char\000"
 8594      4E54385F 
 8594      54595045 
 8594      5F5F2075 
 8594      6E736967 
 8595              	.LASF396:
 8596 4cfa 5F5F696E 		.ascii	"__int_fast8_t_defined 1\000"
ARM GAS  C:\Users\COSMIN~1.MAR\AppData\Local\Temp\ccJVXHYk.s 			page 208


 8596      745F6661 
 8596      7374385F 
 8596      745F6465 
 8596      66696E65 
 8597              	.LASF885:
 8598 4d12 5F535350 		.ascii	"_SSP0 1\000"
 8598      30203100 
 8599              	.LASF423:
 8600 4d1a 55494E54 		.ascii	"UINT64_MAX __UINT64_MAX__\000"
 8600      36345F4D 
 8600      4158205F 
 8600      5F55494E 
 8600      5436345F 
 8601              	.LASF807:
 8602 4d34 4C50435F 		.ascii	"LPC_GPIO2 ((LPC_GPIO_TypeDef *) LPC_GPIO2_BASE )\000"
 8602      4750494F 
 8602      32202828 
 8602      4C50435F 
 8602      4750494F 
 8603              	.LASF707:
 8604 4d65 436F7265 		.ascii	"CoreDebug_DEMCR_TRCENA_Msk (1UL << CoreDebug_DEMCR_"
 8604      44656275 
 8604      675F4445 
 8604      4D43525F 
 8604      54524345 
 8605 4d98 54524345 		.ascii	"TRCENA_Pos)\000"
 8605      4E415F50 
 8605      6F732900 
 8606              	.LASF179:
 8607 4da4 5F5F4445 		.ascii	"__DEC128_MANT_DIG__ 34\000"
 8607      43313238 
 8607      5F4D414E 
 8607      545F4449 
 8607      475F5F20 
 8608              	.LASF82:
 8609 4dbb 5F5F5349 		.ascii	"__SIG_ATOMIC_MAX__ 2147483647\000"
 8609      475F4154 
 8609      4F4D4943 
 8609      5F4D4158 
 8609      5F5F2032 
 8610              	.LASF2:
 8611 4dd9 5F5F474E 		.ascii	"__GNUC__ 4\000"
 8611      55435F5F 
 8611      203400
 8612              	.LASF670:
 8613 4de4 4D50555F 		.ascii	"MPU_RASR_B_Pos 16\000"
 8613      52415352 
 8613      5F425F50 
 8613      6F732031 
 8613      3600
 8614              	.LASF296:
 8615 4df6 5F5F5553 		.ascii	"__USA_FBIT__ 16\000"
 8615      415F4642 
 8615      49545F5F 
 8615      20313600 
 8616              	.LASF902:
 8617 4e06 5F514549 		.ascii	"_QEI 1\000"
ARM GAS  C:\Users\COSMIN~1.MAR\AppData\Local\Temp\ccJVXHYk.s 			page 209


 8617      203100
 8618              	.LASF570:
 8619 4e0d 5343425F 		.ascii	"SCB_HFSR_FORCED_Pos 30\000"
 8619      48465352 
 8619      5F464F52 
 8619      4345445F 
 8619      506F7320 
 8620              	.LASF154:
 8621 4e24 5F5F4C44 		.ascii	"__LDBL_MIN_10_EXP__ (-307)\000"
 8621      424C5F4D 
 8621      494E5F31 
 8621      305F4558 
 8621      505F5F20 
 8622              	.LASF311:
 8623 4e3f 5F5F4743 		.ascii	"__GCC_ATOMIC_CHAR_LOCK_FREE 2\000"
 8623      435F4154 
 8623      4F4D4943 
 8623      5F434841 
 8623      525F4C4F 
 8624              	.LASF899:
 8625 4e5d 5F493253 		.ascii	"_I2S 1\000"
 8625      203100
 8626              	.LASF210:
 8627 4e64 5F5F4C46 		.ascii	"__LFRACT_EPSILON__ 0x1P-31LR\000"
 8627      52414354 
 8627      5F455053 
 8627      494C4F4E 
 8627      5F5F2030 
 8628              	.LASF444:
 8629 4e81 5349475F 		.ascii	"SIG_ATOMIC_MAX __STDINT_EXP(INT_MAX)\000"
 8629      41544F4D 
 8629      49435F4D 
 8629      4158205F 
 8629      5F535444 
 8630              	.LASF332:
 8631 4ea6 5F5F4152 		.ascii	"__ARM_SIZEOF_MINIMAL_ENUM 1\000"
 8631      4D5F5349 
 8631      5A454F46 
 8631      5F4D494E 
 8631      494D414C 
 8632              	.LASF92:
 8633 4ec2 5F5F494E 		.ascii	"__INT_LEAST8_MAX__ 127\000"
 8633      545F4C45 
 8633      41535438 
 8633      5F4D4158 
 8633      5F5F2031 
 8634              	.LASF541:
 8635 4ed9 5343425F 		.ascii	"SCB_SHCSR_SVCALLPENDED_Msk (1UL << SCB_SHCSR_SVCALL"
 8635      53484353 
 8635      525F5356 
 8635      43414C4C 
 8635      50454E44 
 8636 4f0c 50454E44 		.ascii	"PENDED_Pos)\000"
 8636      45445F50 
 8636      6F732900 
 8637              	.LASF938:
 8638 4f18 46494F44 		.ascii	"FIODIR\000"
ARM GAS  C:\Users\COSMIN~1.MAR\AppData\Local\Temp\ccJVXHYk.s 			page 210


 8638      495200
 8639              	.LASF335:
 8640 4f1f 5F5F6172 		.ascii	"__arm__ 1\000"
 8640      6D5F5F20 
 8640      3100
 8641              	.LASF465:
 8642 4f29 5F5F434F 		.ascii	"__CORE_CMFUNC_H__ \000"
 8642      52455F43 
 8642      4D46554E 
 8642      435F485F 
 8642      5F2000
 8643              	.LASF580:
 8644 4f3c 5343425F 		.ascii	"SCB_DFSR_BKPT_Pos 1\000"
 8644      44465352 
 8644      5F424B50 
 8644      545F506F 
 8644      73203100 
 8645              	.LASF409:
 8646 4f50 494E5431 		.ascii	"INT16_MIN (-__INT16_MAX__ - 1)\000"
 8646      365F4D49 
 8646      4E20282D 
 8646      5F5F494E 
 8646      5431365F 
 8647              	.LASF745:
 8648 4f6f 4D505520 		.ascii	"MPU ((MPU_Type*) MPU_BASE)\000"
 8648      28284D50 
 8648      555F5479 
 8648      70652A29 
 8648      204D5055 
 8649              	.LASF404:
 8650 4f8a 494E5438 		.ascii	"INT8_MAX __INT8_MAX__\000"
 8650      5F4D4158 
 8650      205F5F49 
 8650      4E54385F 
 8650      4D41585F 
 8651              	.LASF736:
 8652 4fa0 4E564943 		.ascii	"NVIC_BASE (SCS_BASE + 0x0100UL)\000"
 8652      5F424153 
 8652      45202853 
 8652      43535F42 
 8652      41534520 
 8653              	.LASF768:
 8654 4fc0 4C50435F 		.ascii	"LPC_SSP1_BASE (LPC_APB0_BASE + 0x30000)\000"
 8654      53535031 
 8654      5F424153 
 8654      4520284C 
 8654      50435F41 
 8655              	.LASF165:
 8656 4fe8 5F5F4445 		.ascii	"__DEC32_MANT_DIG__ 7\000"
 8656      4333325F 
 8656      4D414E54 
 8656      5F444947 
 8656      5F5F2037 
 8657              	.LASF290:
 8658 4ffd 5F5F4441 		.ascii	"__DA_FBIT__ 31\000"
 8658      5F464249 
 8658      545F5F20 
ARM GAS  C:\Users\COSMIN~1.MAR\AppData\Local\Temp\ccJVXHYk.s 			page 211


 8658      333100
 8659              	.LASF368:
 8660 500c 5F4D4143 		.ascii	"_MACHINE__DEFAULT_TYPES_H \000"
 8660      48494E45 
 8660      5F5F4445 
 8660      4641554C 
 8660      545F5459 
 8661              	.LASF22:
 8662 5027 5F5F4249 		.ascii	"__BIGGEST_ALIGNMENT__ 8\000"
 8662      47474553 
 8662      545F414C 
 8662      49474E4D 
 8662      454E545F 
 8663              	.LASF726:
 8664 503f 436F7265 		.ascii	"CoreDebug_DEMCR_VC_NOCPERR_Pos 5\000"
 8664      44656275 
 8664      675F4445 
 8664      4D43525F 
 8664      56435F4E 
 8665              	.LASF516:
 8666 5060 5343425F 		.ascii	"SCB_SCR_SEVONPEND_Pos 4\000"
 8666      5343525F 
 8666      5345564F 
 8666      4E50454E 
 8666      445F506F 
 8667              	.LASF871:
 8668 5078 4750494F 		.ascii	"GPIO1_HalfWord ((GPIO_HalfWord_TypeDef *)(LPC_GPIO1"
 8668      315F4861 
 8668      6C66576F 
 8668      72642028 
 8668      28475049 
 8669 50ab 5F424153 		.ascii	"_BASE))\000"
 8669      45292900 
 8670              	.LASF989:
 8671 50b3 70475049 		.ascii	"pGPIO\000"
 8671      4F00
 8672              	.LASF485:
 8673 50b9 5343425F 		.ascii	"SCB_ICSR_PENDSTSET_Msk (1UL << SCB_ICSR_PENDSTSET_P"
 8673      49435352 
 8673      5F50454E 
 8673      44535453 
 8673      45545F4D 
 8674 50ec 6F732900 		.ascii	"os)\000"
 8675              	.LASF594:
 8676 50f0 53797354 		.ascii	"SysTick_VAL_CURRENT_Pos 0\000"
 8676      69636B5F 
 8676      56414C5F 
 8676      43555252 
 8676      454E545F 
 8677              	.LASF886:
 8678 510a 5F535350 		.ascii	"_SSP1 1\000"
 8678      31203100 
 8679              	.LASF658:
 8680 5112 4D50555F 		.ascii	"MPU_RBAR_REGION_Pos 0\000"
 8680      52424152 
 8680      5F524547 
 8680      494F4E5F 
ARM GAS  C:\Users\COSMIN~1.MAR\AppData\Local\Temp\ccJVXHYk.s 			page 212


 8680      506F7320 
 8681              	.LASF488:
 8682 5128 5343425F 		.ascii	"SCB_ICSR_ISRPREEMPT_Pos 23\000"
 8682      49435352 
 8682      5F495352 
 8682      50524545 
 8682      4D50545F 
 8683              	.LASF478:
 8684 5143 5343425F 		.ascii	"SCB_ICSR_NMIPENDSET_Pos 31\000"
 8684      49435352 
 8684      5F4E4D49 
 8684      50454E44 
 8684      5345545F 
 8685              	.LASF975:
 8686 515e 44495341 		.ascii	"DISABLE\000"
 8686      424C4500 
 8687              	.LASF877:
 8688 5166 5F475049 		.ascii	"_GPIO 1\000"
 8688      4F203100 
 8689              	.LASF645:
 8690 516e 4D50555F 		.ascii	"MPU_TYPE_SEPARATE_Msk (1UL << MPU_TYPE_SEPARATE_Pos"
 8690      54595045 
 8690      5F534550 
 8690      41524154 
 8690      455F4D73 
 8691 51a1 2900     		.ascii	")\000"
 8692              	.LASF340:
 8693 51a3 5F5F4152 		.ascii	"__ARM_ARCH_ISA_THUMB 2\000"
 8693      4D5F4152 
 8693      43485F49 
 8693      53415F54 
 8693      48554D42 
 8694              	.LASF106:
 8695 51ba 5F5F5549 		.ascii	"__UINT_LEAST64_MAX__ 18446744073709551615ULL\000"
 8695      4E545F4C 
 8695      45415354 
 8695      36345F4D 
 8695      41585F5F 
 8696              	.LASF447:
 8697 51e7 57434841 		.ascii	"WCHAR_MIN __WCHAR_MIN__\000"
 8697      525F4D49 
 8697      4E205F5F 
 8697      57434841 
 8697      525F4D49 
 8698              	.LASF108:
 8699 51ff 5F5F494E 		.ascii	"__INT_FAST8_MAX__ 2147483647\000"
 8699      545F4641 
 8699      5354385F 
 8699      4D41585F 
 8699      5F203231 
 8700              	.LASF783:
 8701 521c 4C50435F 		.ascii	"LPC_I2S_BASE (LPC_APB1_BASE + 0x28000)\000"
 8701      4932535F 
 8701      42415345 
 8701      20284C50 
 8701      435F4150 
 8702              	.LASF1014:
ARM GAS  C:\Users\COSMIN~1.MAR\AppData\Local\Temp\ccJVXHYk.s 			page 213


 8703 5243 46494F5F 		.ascii	"FIO_HalfWordSetValue\000"
 8703      48616C66 
 8703      576F7264 
 8703      53657456 
 8703      616C7565 
 8704              	.LASF202:
 8705 5258 5F5F5546 		.ascii	"__UFRACT_IBIT__ 0\000"
 8705      52414354 
 8705      5F494249 
 8705      545F5F20 
 8705      3000
 8706              	.LASF329:
 8707 526a 5F5F4152 		.ascii	"__ARM_32BIT_STATE 1\000"
 8707      4D5F3332 
 8707      4249545F 
 8707      53544154 
 8707      45203100 
 8708              	.LASF93:
 8709 527e 5F5F494E 		.ascii	"__INT8_C(c) c\000"
 8709      54385F43 
 8709      28632920 
 8709      6300
 8710              	.LASF207:
 8711 528c 5F5F4C46 		.ascii	"__LFRACT_IBIT__ 0\000"
 8711      52414354 
 8711      5F494249 
 8711      545F5F20 
 8711      3000
 8712              	.LASF359:
 8713 529e 5F5F5665 		.ascii	"__Vendor_SysTickConfig 0\000"
 8713      6E646F72 
 8713      5F537973 
 8713      5469636B 
 8713      436F6E66 
 8714              	.LASF856:
 8715 52b7 5F424954 		.ascii	"_BIT(n) (1<<n)\000"
 8715      286E2920 
 8715      28313C3C 
 8715      6E2900
 8716              	.LASF907:
 8717 52c6 43484543 		.ascii	"CHECK_PARAM(expr) ((expr) ? (void)0 : check_failed("
 8717      4B5F5041 
 8717      52414D28 
 8717      65787072 
 8717      29202828 
 8718 52f9 2875696E 		.ascii	"(uint8_t *)__FILE__, __LINE__))\000"
 8718      74385F74 
 8718      202A295F 
 8718      5F46494C 
 8718      455F5F2C 
 8719              	.LASF139:
 8720 5319 5F5F4442 		.ascii	"__DBL_MIN_EXP__ (-1021)\000"
 8720      4C5F4D49 
 8720      4E5F4558 
 8720      505F5F20 
 8720      282D3130 
 8721              	.LASF817:
ARM GAS  C:\Users\COSMIN~1.MAR\AppData\Local\Temp\ccJVXHYk.s 			page 214


 8722 5331 4C50435F 		.ascii	"LPC_UART1 ((LPC_UART1_TypeDef *) LPC_UART1_BASE )\000"
 8722      55415254 
 8722      31202828 
 8722      4C50435F 
 8722      55415254 
 8723              	.LASF976:
 8724 5363 454E4142 		.ascii	"ENABLE\000"
 8724      4C4500
 8725              	.LASF86:
 8726 536a 5F5F494E 		.ascii	"__INT32_MAX__ 2147483647L\000"
 8726      5433325F 
 8726      4D41585F 
 8726      5F203231 
 8726      34373438 
 8727              	.LASF711:
 8728 5384 436F7265 		.ascii	"CoreDebug_DEMCR_MON_STEP_Msk (1UL << CoreDebug_DEMC"
 8728      44656275 
 8728      675F4445 
 8728      4D43525F 
 8728      4D4F4E5F 
 8729 53b7 525F4D4F 		.ascii	"R_MON_STEP_Pos)\000"
 8729      4E5F5354 
 8729      45505F50 
 8729      6F732900 
 8730              	.LASF873:
 8731 53c7 4750494F 		.ascii	"GPIO3_HalfWord ((GPIO_HalfWord_TypeDef *)(LPC_GPIO3"
 8731      335F4861 
 8731      6C66576F 
 8731      72642028 
 8731      28475049 
 8732 53fa 5F424153 		.ascii	"_BASE))\000"
 8732      45292900 
 8733              	.LASF825:
 8734 5402 4C50435F 		.ascii	"LPC_SPI ((LPC_SPI_TypeDef *) LPC_SPI_BASE )\000"
 8734      53504920 
 8734      28284C50 
 8734      435F5350 
 8734      495F5479 
 8735              	.LASF175:
 8736 542e 5F5F4445 		.ascii	"__DEC64_MIN__ 1E-383DD\000"
 8736      4336345F 
 8736      4D494E5F 
 8736      5F203145 
 8736      2D333833 
 8737              	.LASF612:
 8738 5445 49544D5F 		.ascii	"ITM_TCR_DWTENA_Pos 3\000"
 8738      5443525F 
 8738      44575445 
 8738      4E415F50 
 8738      6F732033 
 8739              	.LASF785:
 8740 545a 4C50435F 		.ascii	"LPC_MCPWM_BASE (LPC_APB1_BASE + 0x38000)\000"
 8740      4D435057 
 8740      4D5F4241 
 8740      53452028 
 8740      4C50435F 
 8741              	.LASF460:
ARM GAS  C:\Users\COSMIN~1.MAR\AppData\Local\Temp\ccJVXHYk.s 			page 215


 8742 5483 55494E54 		.ascii	"UINTMAX_C(x) __UINTMAX_C(x)\000"
 8742      4D41585F 
 8742      43287829 
 8742      205F5F55 
 8742      494E544D 
 8743              	.LASF383:
 8744 549f 5F5F4558 		.ascii	"__EXP\000"
 8744      5000
 8745              	.LASF378:
 8746 54a5 5F5F5F69 		.ascii	"___int64_t_defined 1\000"
 8746      6E743634 
 8746      5F745F64 
 8746      6566696E 
 8746      65642031 
 8747              	.LASF162:
 8748 54ba 5F5F4C44 		.ascii	"__LDBL_HAS_DENORM__ 1\000"
 8748      424C5F48 
 8748      41535F44 
 8748      454E4F52 
 8748      4D5F5F20 
 8749              	.LASF309:
 8750 54d0 5F5F4743 		.ascii	"__GCC_HAVE_SYNC_COMPARE_AND_SWAP_4 1\000"
 8750      435F4841 
 8750      56455F53 
 8750      594E435F 
 8750      434F4D50 
 8751              	.LASF107:
 8752 54f5 5F5F5549 		.ascii	"__UINT64_C(c) c ## ULL\000"
 8752      4E543634 
 8752      5F432863 
 8752      29206320 
 8752      23232055 
 8753              	.LASF577:
 8754 550c 5343425F 		.ascii	"SCB_DFSR_VCATCH_Msk (1UL << SCB_DFSR_VCATCH_Pos)\000"
 8754      44465352 
 8754      5F564341 
 8754      5443485F 
 8754      4D736B20 
 8755              	.LASF601:
 8756 553d 53797354 		.ascii	"SysTick_CALIB_TENMS_Msk (0xFFFFFFUL << SysTick_VAL_"
 8756      69636B5F 
 8756      43414C49 
 8756      425F5445 
 8756      4E4D535F 
 8757 5570 43555252 		.ascii	"CURRENT_Pos)\000"
 8757      454E545F 
 8757      506F7329 
 8757      00
 8758              	.LASF435:
 8759 557d 55494E54 		.ascii	"UINT_FAST32_MAX __UINT_FAST32_MAX__\000"
 8759      5F464153 
 8759      5433325F 
 8759      4D415820 
 8759      5F5F5549 
 8760              	.LASF748:
 8761 55a1 4C50435F 		.ascii	"LPC_FLASH_BASE (0x00000000UL)\000"
 8761      464C4153 
ARM GAS  C:\Users\COSMIN~1.MAR\AppData\Local\Temp\ccJVXHYk.s 			page 216


 8761      485F4241 
 8761      53452028 
 8761      30783030 
 8762              	.LASF671:
 8763 55bf 4D50555F 		.ascii	"MPU_RASR_B_Msk (1UL << MPU_RASR_B_Pos)\000"
 8763      52415352 
 8763      5F425F4D 
 8763      736B2028 
 8763      31554C20 
 8764              	.LASF48:
 8765 55e6 5F5F494E 		.ascii	"__INT_LEAST32_TYPE__ long int\000"
 8765      545F4C45 
 8765      41535433 
 8765      325F5459 
 8765      50455F5F 
 8766              	.LASF581:
 8767 5604 5343425F 		.ascii	"SCB_DFSR_BKPT_Msk (1UL << SCB_DFSR_BKPT_Pos)\000"
 8767      44465352 
 8767      5F424B50 
 8767      545F4D73 
 8767      6B202831 
 8768              	.LASF640:
 8769 5631 4D50555F 		.ascii	"MPU_TYPE_IREGION_Pos 16\000"
 8769      54595045 
 8769      5F495245 
 8769      47494F4E 
 8769      5F506F73 
 8770              	.LASF793:
 8771 5649 4C50435F 		.ascii	"LPC_GPDMACH3_BASE (LPC_AHB_BASE + 0x04160)\000"
 8771      4750444D 
 8771      41434833 
 8771      5F424153 
 8771      4520284C 
 8772              	.LASF778:
 8773 5674 4C50435F 		.ascii	"LPC_TIM2_BASE (LPC_APB1_BASE + 0x10000)\000"
 8773      54494D32 
 8773      5F424153 
 8773      4520284C 
 8773      50435F41 
 8774              	.LASF197:
 8775 569c 5F5F4652 		.ascii	"__FRACT_IBIT__ 0\000"
 8775      4143545F 
 8775      49424954 
 8775      5F5F2030 
 8775      00
 8776              	.LASF977:
 8777 56ad 46756E63 		.ascii	"FunctionalState\000"
 8777      74696F6E 
 8777      616C5374 
 8777      61746500 
 8778              	.LASF880:
 8779 56bd 5F554152 		.ascii	"_UART1 1\000"
 8779      54312031 
 8779      00
 8780              	.LASF23:
 8781 56c6 5F5F4F52 		.ascii	"__ORDER_LITTLE_ENDIAN__ 1234\000"
 8781      4445525F 
ARM GAS  C:\Users\COSMIN~1.MAR\AppData\Local\Temp\ccJVXHYk.s 			page 217


 8781      4C495454 
 8781      4C455F45 
 8781      4E444941 
 8782              	.LASF568:
 8783 56e3 5343425F 		.ascii	"SCB_HFSR_DEBUGEVT_Pos 31\000"
 8783      48465352 
 8783      5F444542 
 8783      55474556 
 8783      545F506F 
 8784              	.LASF442:
 8785 56fc 53495A45 		.ascii	"SIZE_MAX __SIZE_MAX__\000"
 8785      5F4D4158 
 8785      205F5F53 
 8785      495A455F 
 8785      4D41585F 
 8786              	.LASF361:
 8787 5712 5F5F434D 		.ascii	"__CM3_CMSIS_VERSION_MAIN (0x02)\000"
 8787      335F434D 
 8787      5349535F 
 8787      56455253 
 8787      494F4E5F 
 8788              	.LASF172:
 8789 5732 5F5F4445 		.ascii	"__DEC64_MANT_DIG__ 16\000"
 8789      4336345F 
 8789      4D414E54 
 8789      5F444947 
 8789      5F5F2031 
 8790              	.LASF919:
 8791 5748 6C6F6E67 		.ascii	"long long unsigned int\000"
 8791      206C6F6E 
 8791      6720756E 
 8791      7369676E 
 8791      65642069 
 8792              	.LASF544:
 8793 575f 5343425F 		.ascii	"SCB_SHCSR_MEMFAULTPENDED_Pos 13\000"
 8793      53484353 
 8793      525F4D45 
 8793      4D464155 
 8793      4C545045 
 8794              	.LASF676:
 8795 577f 4D50555F 		.ascii	"MPU_RASR_ENA_Pos 0\000"
 8795      52415352 
 8795      5F454E41 
 8795      5F506F73 
 8795      203000
 8796              	.LASF252:
 8797 5792 5F5F554C 		.ascii	"__ULACCUM_IBIT__ 32\000"
 8797      41434355 
 8797      4D5F4942 
 8797      49545F5F 
 8797      20333200 
 8798              	.LASF573:
 8799 57a6 5343425F 		.ascii	"SCB_HFSR_VECTTBL_Msk (1UL << SCB_HFSR_VECTTBL_Pos)\000"
 8799      48465352 
 8799      5F564543 
 8799      5454424C 
 8799      5F4D736B 
ARM GAS  C:\Users\COSMIN~1.MAR\AppData\Local\Temp\ccJVXHYk.s 			page 218


 8800              	.LASF30:
 8801 57d9 5F5F5054 		.ascii	"__PTRDIFF_TYPE__ int\000"
 8801      52444946 
 8801      465F5459 
 8801      50455F5F 
 8801      20696E74 
 8802              	.LASF683:
 8803 57ee 436F7265 		.ascii	"CoreDebug_DHCSR_S_RETIRE_ST_Msk (1UL << CoreDebug_D"
 8803      44656275 
 8803      675F4448 
 8803      4353525F 
 8803      535F5245 
 8804 5821 48435352 		.ascii	"HCSR_S_RETIRE_ST_Pos)\000"
 8804      5F535F52 
 8804      45544952 
 8804      455F5354 
 8804      5F506F73 
 8805              	.LASF337:
 8806 5837 5F5F4150 		.ascii	"__APCS_32__ 1\000"
 8806      43535F33 
 8806      325F5F20 
 8806      3100
 8807              	.LASF272:
 8808 5845 5F5F4451 		.ascii	"__DQ_FBIT__ 63\000"
 8808      5F464249 
 8808      545F5F20 
 8808      363300
 8809              	.LASF922:
 8810 5854 75696E74 		.ascii	"uint16_t\000"
 8810      31365F74 
 8810      00
 8811              	.LASF279:
 8812 585d 5F5F5548 		.ascii	"__UHQ_IBIT__ 0\000"
 8812      515F4942 
 8812      49545F5F 
 8812      203000
 8813              	.LASF853:
 8814 586c 50415241 		.ascii	"PARAM_SETSTATE(State) ((State==RESET) || (State==SE"
 8814      4D5F5345 
 8814      54535441 
 8814      54452853 
 8814      74617465 
 8815 589f 54292900 		.ascii	"T))\000"
 8816              	.LASF782:
 8817 58a3 4C50435F 		.ascii	"LPC_I2C2_BASE (LPC_APB1_BASE + 0x20000)\000"
 8817      49324332 
 8817      5F424153 
 8817      4520284C 
 8817      50435F41 
 8818              	.LASF567:
 8819 58cb 5343425F 		.ascii	"SCB_CFSR_MEMFAULTSR_Msk (0xFFUL << SCB_CFSR_MEMFAUL"
 8819      43465352 
 8819      5F4D454D 
 8819      4641554C 
 8819      5453525F 
 8820 58fe 5453525F 		.ascii	"TSR_Pos)\000"
 8820      506F7329 
ARM GAS  C:\Users\COSMIN~1.MAR\AppData\Local\Temp\ccJVXHYk.s 			page 219


 8820      00
 8821              	.LASF55:
 8822 5907 5F5F494E 		.ascii	"__INT_FAST16_TYPE__ int\000"
 8822      545F4641 
 8822      53543136 
 8822      5F545950 
 8822      455F5F20 
 8823              	.LASF812:
 8824 591f 4C50435F 		.ascii	"LPC_TIM1 ((LPC_TIM_TypeDef *) LPC_TIM1_BASE )\000"
 8824      54494D31 
 8824      2028284C 
 8824      50435F54 
 8824      494D5F54 
 8825              	.LASF561:
 8826 594d 5343425F 		.ascii	"SCB_SHCSR_MEMFAULTACT_Msk (1UL << SCB_SHCSR_MEMFAUL"
 8826      53484353 
 8826      525F4D45 
 8826      4D464155 
 8826      4C544143 
 8827 5980 54414354 		.ascii	"TACT_Pos)\000"
 8827      5F506F73 
 8827      2900
 8828              	.LASF228:
 8829 598a 5F5F5341 		.ascii	"__SACCUM_MIN__ (-0X1P7HK-0X1P7HK)\000"
 8829      4343554D 
 8829      5F4D494E 
 8829      5F5F2028 
 8829      2D305831 
 8830              	.LASF214:
 8831 59ac 5F5F554C 		.ascii	"__ULFRACT_MAX__ 0XFFFFFFFFP-32ULR\000"
 8831      46524143 
 8831      545F4D41 
 8831      585F5F20 
 8831      30584646 
 8832              	.LASF946:
 8833 59ce 46494F50 		.ascii	"FIOPIN\000"
 8833      494E00
 8834              	.LASF524:
 8835 59d5 5343425F 		.ascii	"SCB_CCR_BFHFNMIGN_Pos 8\000"
 8835      4343525F 
 8835      42464846 
 8835      4E4D4947 
 8835      4E5F506F 
 8836              	.LASF249:
 8837 59ed 5F5F4C41 		.ascii	"__LACCUM_MAX__ 0X7FFFFFFFFFFFFFFFP-31LK\000"
 8837      4343554D 
 8837      5F4D4158 
 8837      5F5F2030 
 8837      58374646 
 8838              	.LASF35:
 8839 5a15 5F5F4348 		.ascii	"__CHAR16_TYPE__ short unsigned int\000"
 8839      41523136 
 8839      5F545950 
 8839      455F5F20 
 8839      73686F72 
 8840              	.LASF525:
 8841 5a38 5343425F 		.ascii	"SCB_CCR_BFHFNMIGN_Msk (1UL << SCB_CCR_BFHFNMIGN_Pos"
ARM GAS  C:\Users\COSMIN~1.MAR\AppData\Local\Temp\ccJVXHYk.s 			page 220


 8841      4343525F 
 8841      42464846 
 8841      4E4D4947 
 8841      4E5F4D73 
 8842 5a6b 2900     		.ascii	")\000"
 8843              	.LASF614:
 8844 5a6d 49544D5F 		.ascii	"ITM_TCR_SYNCENA_Pos 2\000"
 8844      5443525F 
 8844      53594E43 
 8844      454E415F 
 8844      506F7320 
 8845              	.LASF836:
 8846 5a83 4C50435F 		.ascii	"LPC_CAN1 ((LPC_CAN_TypeDef *) LPC_CAN1_BASE )\000"
 8846      43414E31 
 8846      2028284C 
 8846      50435F43 
 8846      414E5F54 
 8847              	.LASF702:
 8848 5ab1 436F7265 		.ascii	"CoreDebug_DCRSR_REGWnR_Pos 16\000"
 8848      44656275 
 8848      675F4443 
 8848      5253525F 
 8848      52454757 
 8849              	.LASF102:
 8850 5acf 5F5F5549 		.ascii	"__UINT_LEAST16_MAX__ 65535\000"
 8850      4E545F4C 
 8850      45415354 
 8850      31365F4D 
 8850      41585F5F 
 8851              	.LASF284:
 8852 5aea 5F5F5554 		.ascii	"__UTQ_FBIT__ 128\000"
 8852      515F4642 
 8852      49545F5F 
 8852      20313238 
 8852      00
 8853              	.LASF663:
 8854 5afb 4D50555F 		.ascii	"MPU_RASR_AP_Msk (7UL << MPU_RASR_AP_Pos)\000"
 8854      52415352 
 8854      5F41505F 
 8854      4D736B20 
 8854      2837554C 
 8855              	.LASF537:
 8856 5b24 5343425F 		.ascii	"SCB_SHCSR_BUSFAULTENA_Msk (1UL << SCB_SHCSR_BUSFAUL"
 8856      53484353 
 8856      525F4255 
 8856      53464155 
 8856      4C54454E 
 8857 5b57 54454E41 		.ascii	"TENA_Pos)\000"
 8857      5F506F73 
 8857      2900
 8858              	.LASF762:
 8859 5b61 4C50435F 		.ascii	"LPC_PWM1_BASE (LPC_APB0_BASE + 0x18000)\000"
 8859      50574D31 
 8859      5F424153 
 8859      4520284C 
 8859      50435F41 
 8860              	.LASF260:
ARM GAS  C:\Users\COSMIN~1.MAR\AppData\Local\Temp\ccJVXHYk.s 			page 221


 8861 5b89 5F5F4C4C 		.ascii	"__LLACCUM_EPSILON__ 0x1P-31LLK\000"
 8861      41434355 
 8861      4D5F4550 
 8861      53494C4F 
 8861      4E5F5F20 
 8862              	.LASF12:
 8863 5ba8 5F5F4649 		.ascii	"__FINITE_MATH_ONLY__ 0\000"
 8863      4E495445 
 8863      5F4D4154 
 8863      485F4F4E 
 8863      4C595F5F 
 8864              	.LASF526:
 8865 5bbf 5343425F 		.ascii	"SCB_CCR_DIV_0_TRP_Pos 4\000"
 8865      4343525F 
 8865      4449565F 
 8865      305F5452 
 8865      505F506F 
 8866              	.LASF386:
 8867 5bd7 5F5F6861 		.ascii	"__have_longlong64 1\000"
 8867      76655F6C 
 8867      6F6E676C 
 8867      6F6E6736 
 8867      34203100 
 8868              	.LASF628:
 8869 5beb 49544D5F 		.ascii	"ITM_LSR_Access_Pos 1\000"
 8869      4C53525F 
 8869      41636365 
 8869      73735F50 
 8869      6F732031 
 8870              	.LASF373:
 8871 5c00 5F5F474E 		.ascii	"__GNUC_PREREQ__(ma,mi) __GNUC_PREREQ(ma, mi)\000"
 8871      55435F50 
 8871      52455245 
 8871      515F5F28 
 8871      6D612C6D 
 8872              	.LASF445:
 8873 5c2d 50545244 		.ascii	"PTRDIFF_MAX __PTRDIFF_MAX__\000"
 8873      4946465F 
 8873      4D415820 
 8873      5F5F5054 
 8873      52444946 
 8874              	.LASF684:
 8875 5c49 436F7265 		.ascii	"CoreDebug_DHCSR_S_LOCKUP_Pos 19\000"
 8875      44656275 
 8875      675F4448 
 8875      4353525F 
 8875      535F4C4F 
 8876              	.LASF757:
 8877 5c69 4C50435F 		.ascii	"LPC_WDT_BASE (LPC_APB0_BASE + 0x00000)\000"
 8877      5744545F 
 8877      42415345 
 8877      20284C50 
 8877      435F4150 
 8878              	.LASF804:
 8879 5c90 4C50435F 		.ascii	"LPC_SC ((LPC_SC_TypeDef *) LPC_SC_BASE )\000"
 8879      53432028 
 8879      284C5043 
ARM GAS  C:\Users\COSMIN~1.MAR\AppData\Local\Temp\ccJVXHYk.s 			page 222


 8879      5F53435F 
 8879      54797065 
 8880              	.LASF554:
 8881 5cb9 5343425F 		.ascii	"SCB_SHCSR_SVCALLACT_Pos 7\000"
 8881      53484353 
 8881      525F5356 
 8881      43414C4C 
 8881      4143545F 
 8882              	.LASF254:
 8883 5cd3 5F5F554C 		.ascii	"__ULACCUM_MAX__ 0XFFFFFFFFFFFFFFFFP-32ULK\000"
 8883      41434355 
 8883      4D5F4D41 
 8883      585F5F20 
 8883      30584646 
 8884              	.LASF213:
 8885 5cfd 5F5F554C 		.ascii	"__ULFRACT_MIN__ 0.0ULR\000"
 8885      46524143 
 8885      545F4D49 
 8885      4E5F5F20 
 8885      302E3055 
 8886              	.LASF895:
 8887 5d14 5F414443 		.ascii	"_ADC 1\000"
 8887      203100
 8888              	.LASF273:
 8889 5d1b 5F5F4451 		.ascii	"__DQ_IBIT__ 0\000"
 8889      5F494249 
 8889      545F5F20 
 8889      3000
 8890              	.LASF546:
 8891 5d29 5343425F 		.ascii	"SCB_SHCSR_USGFAULTPENDED_Pos 12\000"
 8891      53484353 
 8891      525F5553 
 8891      47464155 
 8891      4C545045 
 8892              	.LASF892:
 8893 5d49 5F574454 		.ascii	"_WDT 1\000"
 8893      203100
 8894              	.LASF472:
 8895 5d50 5343425F 		.ascii	"SCB_CPUID_VARIANT_Pos 20\000"
 8895      43505549 
 8895      445F5641 
 8895      5249414E 
 8895      545F506F 
 8896              	.LASF738:
 8897 5d69 496E7465 		.ascii	"InterruptType ((InterruptType_Type *) SCS_BASE)\000"
 8897      72727570 
 8897      74547970 
 8897      65202828 
 8897      496E7465 
 8898              	.LASF724:
 8899 5d99 436F7265 		.ascii	"CoreDebug_DEMCR_VC_CHKERR_Pos 6\000"
 8899      44656275 
 8899      675F4445 
 8899      4D43525F 
 8899      56435F43 
 8900              	.LASF867:
 8901 5db9 4750494F 		.ascii	"GPIO2_Byte ((GPIO_Byte_TypeDef *)(LPC_GPIO2_BASE))\000"
ARM GAS  C:\Users\COSMIN~1.MAR\AppData\Local\Temp\ccJVXHYk.s 			page 223


 8901      325F4279 
 8901      74652028 
 8901      28475049 
 8901      4F5F4279 
 8902              	.LASF98:
 8903 5dec 5F5F494E 		.ascii	"__INT_LEAST64_MAX__ 9223372036854775807LL\000"
 8903      545F4C45 
 8903      41535436 
 8903      345F4D41 
 8903      585F5F20 
 8904              	.LASF414:
 8905 5e16 55494E54 		.ascii	"UINT_LEAST16_MAX __UINT_LEAST16_MAX__\000"
 8905      5F4C4541 
 8905      53543136 
 8905      5F4D4158 
 8905      205F5F55 
 8906              	.LASF970:
 8907 5e3c 494F3249 		.ascii	"IO2IntStatF\000"
 8907      6E745374 
 8907      61744600 
 8908              	.LASF589:
 8909 5e48 53797354 		.ascii	"SysTick_CTRL_TICKINT_Msk (1UL << SysTick_CTRL_TICKI"
 8909      69636B5F 
 8909      4354524C 
 8909      5F544943 
 8909      4B494E54 
 8910 5e7b 4E545F50 		.ascii	"NT_Pos)\000"
 8910      6F732900 
 8911              	.LASF345:
 8912 5e83 5F5F4152 		.ascii	"__ARM_FP 12\000"
 8912      4D5F4650 
 8912      20313200 
 8913              	.LASF77:
 8914 5e8f 5F5F5349 		.ascii	"__SIZE_MAX__ 4294967295U\000"
 8914      5A455F4D 
 8914      41585F5F 
 8914      20343239 
 8914      34393637 
 8915              	.LASF969:
 8916 5ea8 494F3249 		.ascii	"IO2IntStatR\000"
 8916      6E745374 
 8916      61745200 
 8917              	.LASF285:
 8918 5eb4 5F5F5554 		.ascii	"__UTQ_IBIT__ 0\000"
 8918      515F4942 
 8918      49545F5F 
 8918      203000
 8919              	.LASF434:
 8920 5ec3 494E545F 		.ascii	"INT_FAST32_MAX __INT_FAST32_MAX__\000"
 8920      46415354 
 8920      33325F4D 
 8920      4158205F 
 8920      5F494E54 
 8921              	.LASF288:
 8922 5ee5 5F5F5341 		.ascii	"__SA_FBIT__ 15\000"
 8922      5F464249 
 8922      545F5F20 
ARM GAS  C:\Users\COSMIN~1.MAR\AppData\Local\Temp\ccJVXHYk.s 			page 224


 8922      313500
 8923              	.LASF771:
 8924 5ef4 4C50435F 		.ascii	"LPC_CANAF_BASE (LPC_APB0_BASE + 0x3C000)\000"
 8924      43414E41 
 8924      465F4241 
 8924      53452028 
 8924      4C50435F 
 8925              	.LASF789:
 8926 5f1d 4C50435F 		.ascii	"LPC_GPDMA_BASE (LPC_AHB_BASE + 0x04000)\000"
 8926      4750444D 
 8926      415F4241 
 8926      53452028 
 8926      4C50435F 
 8927              	.LASF353:
 8928 5f45 5F5F454C 		.ascii	"__ELF__ 1\000"
 8928      465F5F20 
 8928      3100
 8929              	.LASF415:
 8930 5f4f 494E5433 		.ascii	"INT32_MIN (-__INT32_MAX__ - 1)\000"
 8930      325F4D49 
 8930      4E20282D 
 8930      5F5F494E 
 8930      5433325F 
 8931              	.LASF342:
 8932 5f6e 5F5F5448 		.ascii	"__THUMBEL__ 1\000"
 8932      554D4245 
 8932      4C5F5F20 
 8932      3100
 8933              	.LASF542:
 8934 5f7c 5343425F 		.ascii	"SCB_SHCSR_BUSFAULTPENDED_Pos 14\000"
 8934      53484353 
 8934      525F4255 
 8934      53464155 
 8934      4C545045 
 8935              	.LASF803:
 8936 5f9c 4C50435F 		.ascii	"LPC_GPIO4_BASE (LPC_GPIO_BASE + 0x00080)\000"
 8936      4750494F 
 8936      345F4241 
 8936      53452028 
 8936      4C50435F 
 8937              	.LASF267:
 8938 5fc5 5F5F5151 		.ascii	"__QQ_IBIT__ 0\000"
 8938      5F494249 
 8938      545F5F20 
 8938      3000
 8939              	.LASF848:
 8940 5fd3 4C50435F 		.ascii	"LPC_GPDMACH5 ((LPC_GPDMACH_TypeDef *) LPC_GPDMACH5_"
 8940      4750444D 
 8940      41434835 
 8940      2028284C 
 8940      50435F47 
 8941 6006 42415345 		.ascii	"BASE )\000"
 8941      202900
 8942              	.LASF847:
 8943 600d 4C50435F 		.ascii	"LPC_GPDMACH4 ((LPC_GPDMACH_TypeDef *) LPC_GPDMACH4_"
 8943      4750444D 
 8943      41434834 
ARM GAS  C:\Users\COSMIN~1.MAR\AppData\Local\Temp\ccJVXHYk.s 			page 225


 8943      2028284C 
 8943      50435F47 
 8944 6040 42415345 		.ascii	"BASE )\000"
 8944      202900
 8945              	.LASF674:
 8946 6047 4D50555F 		.ascii	"MPU_RASR_SIZE_Pos 1\000"
 8946      52415352 
 8946      5F53495A 
 8946      455F506F 
 8946      73203100 
 8947              	.LASF458:
 8948 605b 55494E54 		.ascii	"UINT64_C(x) __UINT64_C(x)\000"
 8948      36345F43 
 8948      28782920 
 8948      5F5F5549 
 8948      4E543634 
 8949              	.LASF256:
 8950 6075 5F5F4C4C 		.ascii	"__LLACCUM_FBIT__ 31\000"
 8950      41434355 
 8950      4D5F4642 
 8950      49545F5F 
 8950      20333100 
 8951              	.LASF80:
 8952 6089 5F5F5549 		.ascii	"__UINTMAX_MAX__ 18446744073709551615ULL\000"
 8952      4E544D41 
 8952      585F4D41 
 8952      585F5F20 
 8952      31383434 
 8953              	.LASF875:
 8954 60b1 4C504331 		.ascii	"LPC17XX_LIBCFG_DEFAULT_H_ \000"
 8954      3758585F 
 8954      4C494243 
 8954      46475F44 
 8954      45464155 
 8955              	.LASF756:
 8956 60cc 4C50435F 		.ascii	"LPC_CM3_BASE (0xE0000000UL)\000"
 8956      434D335F 
 8956      42415345 
 8956      20283078 
 8956      45303030 
 8957              	.LASF281:
 8958 60e8 5F5F5553 		.ascii	"__USQ_IBIT__ 0\000"
 8958      515F4942 
 8958      49545F5F 
 8958      203000
 8959              	.LASF662:
 8960 60f7 4D50555F 		.ascii	"MPU_RASR_AP_Pos 24\000"
 8960      52415352 
 8960      5F41505F 
 8960      506F7320 
 8960      323400
 8961              	.LASF52:
 8962 610a 5F5F5549 		.ascii	"__UINT_LEAST32_TYPE__ long unsigned int\000"
 8962      4E545F4C 
 8962      45415354 
 8962      33325F54 
 8962      5950455F 
ARM GAS  C:\Users\COSMIN~1.MAR\AppData\Local\Temp\ccJVXHYk.s 			page 226


 8963              	.LASF696:
 8964 6132 436F7265 		.ascii	"CoreDebug_DHCSR_C_STEP_Pos 2\000"
 8964      44656275 
 8964      675F4448 
 8964      4353525F 
 8964      435F5354 
 8965              	.LASF3:
 8966 614f 5F5F474E 		.ascii	"__GNUC_MINOR__ 9\000"
 8966      55435F4D 
 8966      494E4F52 
 8966      5F5F2039 
 8966      00
 8967              	.LASF33:
 8968 6160 5F5F494E 		.ascii	"__INTMAX_TYPE__ long long int\000"
 8968      544D4158 
 8968      5F545950 
 8968      455F5F20 
 8968      6C6F6E67 
 8969              	.LASF96:
 8970 617e 5F5F494E 		.ascii	"__INT_LEAST32_MAX__ 2147483647L\000"
 8970      545F4C45 
 8970      41535433 
 8970      325F4D41 
 8970      585F5F20 
 8971              	.LASF306:
 8972 619e 5F5F4348 		.ascii	"__CHAR_UNSIGNED__ 1\000"
 8972      41525F55 
 8972      4E534947 
 8972      4E45445F 
 8972      5F203100 
 8973              	.LASF553:
 8974 61b2 5343425F 		.ascii	"SCB_SHCSR_MONITORACT_Msk (1UL << SCB_SHCSR_MONITORA"
 8974      53484353 
 8974      525F4D4F 
 8974      4E49544F 
 8974      52414354 
 8975 61e5 43545F50 		.ascii	"CT_Pos)\000"
 8975      6F732900 
 8976              	.LASF729:
 8977 61ed 436F7265 		.ascii	"CoreDebug_DEMCR_VC_MMERR_Msk (1UL << CoreDebug_DEMC"
 8977      44656275 
 8977      675F4445 
 8977      4D43525F 
 8977      56435F4D 
 8978 6220 525F5643 		.ascii	"R_VC_MMERR_Pos)\000"
 8978      5F4D4D45 
 8978      52525F50 
 8978      6F732900 
 8979              	.LASF688:
 8980 6230 436F7265 		.ascii	"CoreDebug_DHCSR_S_HALT_Pos 17\000"
 8980      44656275 
 8980      675F4448 
 8980      4353525F 
 8980      535F4841 
 8981              	.LASF654:
 8982 624e 4D50555F 		.ascii	"MPU_RBAR_ADDR_Pos 5\000"
 8982      52424152 
ARM GAS  C:\Users\COSMIN~1.MAR\AppData\Local\Temp\ccJVXHYk.s 			page 227


 8982      5F414444 
 8982      525F506F 
 8982      73203500 
 8983              	.LASF639:
 8984 6262 496E7454 		.ascii	"IntType_ACTLR_DISMCYCINT_Msk (1UL << IntType_ACTLR_"
 8984      7970655F 
 8984      4143544C 
 8984      525F4449 
 8984      534D4359 
 8985 6295 4449534D 		.ascii	"DISMCYCINT_Pos)\000"
 8985      43594349 
 8985      4E545F50 
 8985      6F732900 
 8986              	.LASF652:
 8987 62a5 4D50555F 		.ascii	"MPU_RNR_REGION_Pos 0\000"
 8987      524E525F 
 8987      52454749 
 8987      4F4E5F50 
 8987      6F732030 
 8988              	.LASF709:
 8989 62ba 436F7265 		.ascii	"CoreDebug_DEMCR_MON_REQ_Msk (1UL << CoreDebug_DEMCR"
 8989      44656275 
 8989      675F4445 
 8989      4D43525F 
 8989      4D4F4E5F 
 8990 62ed 5F4D4F4E 		.ascii	"_MON_REQ_Pos)\000"
 8990      5F524551 
 8990      5F506F73 
 8990      2900
 8991              	.LASF824:
 8992 62fb 4C50435F 		.ascii	"LPC_I2S ((LPC_I2S_TypeDef *) LPC_I2S_BASE )\000"
 8992      49325320 
 8992      28284C50 
 8992      435F4932 
 8992      535F5479 
 8993              	.LASF381:
 8994 6327 5F5F5F69 		.ascii	"___int_least32_t_defined 1\000"
 8994      6E745F6C 
 8994      65617374 
 8994      33325F74 
 8994      5F646566 
 8995              	.LASF717:
 8996 6342 436F7265 		.ascii	"CoreDebug_DEMCR_VC_HARDERR_Msk (1UL << CoreDebug_DE"
 8996      44656275 
 8996      675F4445 
 8996      4D43525F 
 8996      56435F48 
 8997 6375 4D43525F 		.ascii	"MCR_VC_HARDERR_Pos)\000"
 8997      56435F48 
 8997      41524445 
 8997      52525F50 
 8997      6F732900 
 8998              	.LASF627:
 8999 6389 49544D5F 		.ascii	"ITM_LSR_ByteAcc_Msk (1UL << ITM_LSR_ByteAcc_Pos)\000"
 8999      4C53525F 
 8999      42797465 
 8999      4163635F 
ARM GAS  C:\Users\COSMIN~1.MAR\AppData\Local\Temp\ccJVXHYk.s 			page 228


 8999      4D736B20 
 9000              	.LASF235:
 9001 63ba 5F5F5553 		.ascii	"__USACCUM_EPSILON__ 0x1P-8UHK\000"
 9001      41434355 
 9001      4D5F4550 
 9001      53494C4F 
 9001      4E5F5F20 
 9002              	.LASF150:
 9003 63d8 5F5F4442 		.ascii	"__DBL_HAS_QUIET_NAN__ 1\000"
 9003      4C5F4841 
 9003      535F5155 
 9003      4945545F 
 9003      4E414E5F 
 9004              	.LASF855:
 9005 63f0 5F424954 		.ascii	"_BIT\000"
 9005      00
 9006              	.LASF1022:
 9007 63f5 46494F5F 		.ascii	"FIO_ByteReadValue\000"
 9007      42797465 
 9007      52656164 
 9007      56616C75 
 9007      6500
 9008              	.LASF865:
 9009 6407 4750494F 		.ascii	"GPIO0_Byte ((GPIO_Byte_TypeDef *)(LPC_GPIO0_BASE))\000"
 9009      305F4279 
 9009      74652028 
 9009      28475049 
 9009      4F5F4279 
 9010              	.LASF219:
 9011 643a 5F5F4C4C 		.ascii	"__LLFRACT_MAX__ 0X7FFFFFFFFFFFFFFFP-63LLR\000"
 9011      46524143 
 9011      545F4D41 
 9011      585F5F20 
 9011      30583746 
 9012              	.LASF593:
 9013 6464 53797354 		.ascii	"SysTick_LOAD_RELOAD_Msk (0xFFFFFFUL << SysTick_LOAD"
 9013      69636B5F 
 9013      4C4F4144 
 9013      5F52454C 
 9013      4F41445F 
 9014 6497 5F52454C 		.ascii	"_RELOAD_Pos)\000"
 9014      4F41445F 
 9014      506F7329 
 9014      00
 9015              	.LASF767:
 9016 64a4 4C50435F 		.ascii	"LPC_PINCON_BASE (LPC_APB0_BASE + 0x2C000)\000"
 9016      50494E43 
 9016      4F4E5F42 
 9016      41534520 
 9016      284C5043 
 9017              	.LASF76:
 9018 64ce 5F5F5054 		.ascii	"__PTRDIFF_MAX__ 2147483647\000"
 9018      52444946 
 9018      465F4D41 
 9018      585F5F20 
 9018      32313437 
 9019              	.LASF481:
ARM GAS  C:\Users\COSMIN~1.MAR\AppData\Local\Temp\ccJVXHYk.s 			page 229


 9020 64e9 5343425F 		.ascii	"SCB_ICSR_PENDSVSET_Msk (1UL << SCB_ICSR_PENDSVSET_P"
 9020      49435352 
 9020      5F50454E 
 9020      44535653 
 9020      45545F4D 
 9021 651c 6F732900 		.ascii	"os)\000"
 9022              	.LASF596:
 9023 6520 53797354 		.ascii	"SysTick_CALIB_NOREF_Pos 31\000"
 9023      69636B5F 
 9023      43414C49 
 9023      425F4E4F 
 9023      5245465F 
 9024              	.LASF229:
 9025 653b 5F5F5341 		.ascii	"__SACCUM_MAX__ 0X7FFFP-7HK\000"
 9025      4343554D 
 9025      5F4D4158 
 9025      5F5F2030 
 9025      58374646 
 9026              	.LASF62:
 9027 6556 5F5F494E 		.ascii	"__INTPTR_TYPE__ int\000"
 9027      54505452 
 9027      5F545950 
 9027      455F5F20 
 9027      696E7400 
 9028              	.LASF514:
 9029 656a 5343425F 		.ascii	"SCB_AIRCR_VECTRESET_Pos 0\000"
 9029      41495243 
 9029      525F5645 
 9029      43545245 
 9029      5345545F 
 9030              	.LASF63:
 9031 6584 5F5F5549 		.ascii	"__UINTPTR_TYPE__ unsigned int\000"
 9031      4E545054 
 9031      525F5459 
 9031      50455F5F 
 9031      20756E73 
 9032              	.LASF591:
 9033 65a2 53797354 		.ascii	"SysTick_CTRL_ENABLE_Msk (1UL << SysTick_CTRL_ENABLE"
 9033      69636B5F 
 9033      4354524C 
 9033      5F454E41 
 9033      424C455F 
 9034 65d5 5F506F73 		.ascii	"_Pos)\000"
 9034      2900
 9035              	.LASF302:
 9036 65db 5F5F5245 		.ascii	"__REGISTER_PREFIX__ \000"
 9036      47495354 
 9036      45525F50 
 9036      52454649 
 9036      585F5F20 
 9037              	.LASF138:
 9038 65f0 5F5F4442 		.ascii	"__DBL_DIG__ 15\000"
 9038      4C5F4449 
 9038      475F5F20 
 9038      313500
 9039              	.LASF215:
 9040 65ff 5F5F554C 		.ascii	"__ULFRACT_EPSILON__ 0x1P-32ULR\000"
ARM GAS  C:\Users\COSMIN~1.MAR\AppData\Local\Temp\ccJVXHYk.s 			page 230


 9040      46524143 
 9040      545F4550 
 9040      53494C4F 
 9040      4E5F5F20 
 9041              	.LASF499:
 9042 661e 5343425F 		.ascii	"SCB_VTOR_TBLBASE_Msk (1UL << SCB_VTOR_TBLBASE_Pos)\000"
 9042      56544F52 
 9042      5F54424C 
 9042      42415345 
 9042      5F4D736B 
 9043              	.LASF507:
 9044 6651 5343425F 		.ascii	"SCB_AIRCR_ENDIANESS_Msk (1UL << SCB_AIRCR_ENDIANESS"
 9044      41495243 
 9044      525F454E 
 9044      4449414E 
 9044      4553535F 
 9045 6684 5F506F73 		.ascii	"_Pos)\000"
 9045      2900
 9046              	.LASF20:
 9047 668a 5F5F5349 		.ascii	"__SIZEOF_SIZE_T__ 4\000"
 9047      5A454F46 
 9047      5F53495A 
 9047      455F545F 
 9047      5F203400 
 9048              	.LASF45:
 9049 669e 5F5F5549 		.ascii	"__UINT64_TYPE__ long long unsigned int\000"
 9049      4E543634 
 9049      5F545950 
 9049      455F5F20 
 9049      6C6F6E67 
 9050              	.LASF182:
 9051 66c5 5F5F4445 		.ascii	"__DEC128_MIN__ 1E-6143DL\000"
 9051      43313238 
 9051      5F4D494E 
 9051      5F5F2031 
 9051      452D3631 
 9052              	.LASF99:
 9053 66de 5F5F494E 		.ascii	"__INT64_C(c) c ## LL\000"
 9053      5436345F 
 9053      43286329 
 9053      20632023 
 9053      23204C4C 
 9054              	.LASF247:
 9055 66f3 5F5F4C41 		.ascii	"__LACCUM_IBIT__ 32\000"
 9055      4343554D 
 9055      5F494249 
 9055      545F5F20 
 9055      333200
 9056              	.LASF664:
 9057 6706 4D50555F 		.ascii	"MPU_RASR_TEX_Pos 19\000"
 9057      52415352 
 9057      5F544558 
 9057      5F506F73 
 9057      20313900 
 9058              	.LASF843:
 9059 671a 4C50435F 		.ascii	"LPC_GPDMACH0 ((LPC_GPDMACH_TypeDef *) LPC_GPDMACH0_"
 9059      4750444D 
ARM GAS  C:\Users\COSMIN~1.MAR\AppData\Local\Temp\ccJVXHYk.s 			page 231


 9059      41434830 
 9059      2028284C 
 9059      50435F47 
 9060 674d 42415345 		.ascii	"BASE )\000"
 9060      202900
 9061              	.LASF530:
 9062 6754 5343425F 		.ascii	"SCB_CCR_USERSETMPEND_Pos 1\000"
 9062      4343525F 
 9062      55534552 
 9062      5345544D 
 9062      50454E44 
 9063              	.LASF998:
 9064 676f 4750494F 		.ascii	"GPIO_ReadValue\000"
 9064      5F526561 
 9064      6456616C 
 9064      756500
 9065              	.LASF781:
 9066 677e 4C50435F 		.ascii	"LPC_UART3_BASE (LPC_APB1_BASE + 0x1C000)\000"
 9066      55415254 
 9066      335F4241 
 9066      53452028 
 9066      4C50435F 
 9067              	.LASF159:
 9068 67a7 5F5F4C44 		.ascii	"__LDBL_MIN__ 2.2250738585072014e-308L\000"
 9068      424C5F4D 
 9068      494E5F5F 
 9068      20322E32 
 9068      32353037 
 9069              	.LASF672:
 9070 67cd 4D50555F 		.ascii	"MPU_RASR_SRD_Pos 8\000"
 9070      52415352 
 9070      5F535244 
 9070      5F506F73 
 9070      203800
 9071              	.LASF237:
 9072 67e0 5F5F4143 		.ascii	"__ACCUM_IBIT__ 16\000"
 9072      43554D5F 
 9072      49424954 
 9072      5F5F2031 
 9072      3600
 9073              	.LASF686:
 9074 67f2 436F7265 		.ascii	"CoreDebug_DHCSR_S_SLEEP_Pos 18\000"
 9074      44656275 
 9074      675F4448 
 9074      4353525F 
 9074      535F534C 
 9075              	.LASF89:
 9076 6811 5F5F5549 		.ascii	"__UINT16_MAX__ 65535\000"
 9076      4E543136 
 9076      5F4D4158 
 9076      5F5F2036 
 9076      35353335 
 9077              	.LASF637:
 9078 6826 496E7454 		.ascii	"IntType_ACTLR_DISDEFWBUF_Msk (1UL << IntType_ACTLR_"
 9078      7970655F 
 9078      4143544C 
 9078      525F4449 
ARM GAS  C:\Users\COSMIN~1.MAR\AppData\Local\Temp\ccJVXHYk.s 			page 232


 9078      53444546 
 9079 6859 44495344 		.ascii	"DISDEFWBUF_Pos)\000"
 9079      45465742 
 9079      55465F50 
 9079      6F732900 
 9080              	.LASF94:
 9081 6869 5F5F494E 		.ascii	"__INT_LEAST16_MAX__ 32767\000"
 9081      545F4C45 
 9081      41535431 
 9081      365F4D41 
 9081      585F5F20 
 9082              	.LASF910:
 9083 6883 73686F72 		.ascii	"short int\000"
 9083      7420696E 
 9083      7400
 9084              	.LASF540:
 9085 688d 5343425F 		.ascii	"SCB_SHCSR_SVCALLPENDED_Pos 15\000"
 9085      53484353 
 9085      525F5356 
 9085      43414C4C 
 9085      50454E44 
 9086              	.LASF201:
 9087 68ab 5F5F5546 		.ascii	"__UFRACT_FBIT__ 16\000"
 9087      52414354 
 9087      5F464249 
 9087      545F5F20 
 9087      313600
 9088              	.LASF103:
 9089 68be 5F5F5549 		.ascii	"__UINT16_C(c) c\000"
 9089      4E543136 
 9089      5F432863 
 9089      29206300 
 9090              	.LASF299:
 9091 68ce 5F5F5544 		.ascii	"__UDA_IBIT__ 32\000"
 9091      415F4942 
 9091      49545F5F 
 9091      20333200 
 9092              	.LASF618:
 9093 68de 49544D5F 		.ascii	"ITM_TCR_ITMENA_Pos 0\000"
 9093      5443525F 
 9093      49544D45 
 9093      4E415F50 
 9093      6F732030 
 9094              	.LASF305:
 9095 68f3 5F5F4E4F 		.ascii	"__NO_INLINE__ 1\000"
 9095      5F494E4C 
 9095      494E455F 
 9095      5F203100 
 9096              	.LASF704:
 9097 6903 436F7265 		.ascii	"CoreDebug_DCRSR_REGSEL_Pos 0\000"
 9097      44656275 
 9097      675F4443 
 9097      5253525F 
 9097      52454753 
 9098              	.LASF421:
 9099 6920 494E5436 		.ascii	"INT64_MIN (-__INT64_MAX__ - 1)\000"
 9099      345F4D49 
ARM GAS  C:\Users\COSMIN~1.MAR\AppData\Local\Temp\ccJVXHYk.s 			page 233


 9099      4E20282D 
 9099      5F5F494E 
 9099      5436345F 
 9100              	.LASF791:
 9101 693f 4C50435F 		.ascii	"LPC_GPDMACH1_BASE (LPC_AHB_BASE + 0x04120)\000"
 9101      4750444D 
 9101      41434831 
 9101      5F424153 
 9101      4520284C 
 9102              	.LASF6:
 9103 696a 5F5F4154 		.ascii	"__ATOMIC_RELAXED 0\000"
 9103      4F4D4943 
 9103      5F52454C 
 9103      41584544 
 9103      203000
 9104              	.LASF678:
 9105 697d 436F7265 		.ascii	"CoreDebug_DHCSR_DBGKEY_Pos 16\000"
 9105      44656275 
 9105      675F4448 
 9105      4353525F 
 9105      4442474B 
 9106              	.LASF656:
 9107 699b 4D50555F 		.ascii	"MPU_RBAR_VALID_Pos 4\000"
 9107      52424152 
 9107      5F56414C 
 9107      49445F50 
 9107      6F732034 
 9108              	.LASF149:
 9109 69b0 5F5F4442 		.ascii	"__DBL_HAS_INFINITY__ 1\000"
 9109      4C5F4841 
 9109      535F494E 
 9109      46494E49 
 9109      54595F5F 
 9110              	.LASF426:
 9111 69c7 55494E54 		.ascii	"UINT_LEAST64_MAX __UINT_LEAST64_MAX__\000"
 9111      5F4C4541 
 9111      53543634 
 9111      5F4D4158 
 9111      205F5F55 
 9112              	.LASF988:
 9113 69ed 706F7274 		.ascii	"portNum\000"
 9113      4E756D00 
 9114              	.LASF420:
 9115 69f5 55494E54 		.ascii	"UINT_LEAST32_MAX __UINT_LEAST32_MAX__\000"
 9115      5F4C4541 
 9115      53543332 
 9115      5F4D4158 
 9115      205F5F55 
 9116              	.LASF689:
 9117 6a1b 436F7265 		.ascii	"CoreDebug_DHCSR_S_HALT_Msk (1UL << CoreDebug_DHCSR_"
 9117      44656275 
 9117      675F4448 
 9117      4353525F 
 9117      535F4841 
 9118 6a4e 535F4841 		.ascii	"S_HALT_Pos)\000"
 9118      4C545F50 
 9118      6F732900 
ARM GAS  C:\Users\COSMIN~1.MAR\AppData\Local\Temp\ccJVXHYk.s 			page 234


 9119              	.LASF469:
 9120 6a5a 5F5F494F 		.ascii	"__IO volatile\000"
 9120      20766F6C 
 9120      6174696C 
 9120      6500
 9121              	.LASF832:
 9122 6a68 4C50435F 		.ascii	"LPC_DAC ((LPC_DAC_TypeDef *) LPC_DAC_BASE )\000"
 9122      44414320 
 9122      28284C50 
 9122      435F4441 
 9122      435F5479 
 9123              	.LASF17:
 9124 6a94 5F5F5349 		.ascii	"__SIZEOF_FLOAT__ 4\000"
 9124      5A454F46 
 9124      5F464C4F 
 9124      41545F5F 
 9124      203400
 9125              	.LASF452:
 9126 6aa7 55494E54 		.ascii	"UINT8_C(x) __UINT8_C(x)\000"
 9126      385F4328 
 9126      7829205F 
 9126      5F55494E 
 9126      54385F43 
 9127              	.LASF68:
 9128 6abf 5F5F5348 		.ascii	"__SHRT_MAX__ 32767\000"
 9128      52545F4D 
 9128      41585F5F 
 9128      20333237 
 9128      363700
 9129              	.LASF730:
 9130 6ad2 436F7265 		.ascii	"CoreDebug_DEMCR_VC_CORERESET_Pos 0\000"
 9130      44656275 
 9130      675F4445 
 9130      4D43525F 
 9130      56435F43 
 9131              	.LASF143:
 9132 6af5 5F5F4442 		.ascii	"__DBL_DECIMAL_DIG__ 17\000"
 9132      4C5F4445 
 9132      43494D41 
 9132      4C5F4449 
 9132      475F5F20 
 9133              	.LASF482:
 9134 6b0c 5343425F 		.ascii	"SCB_ICSR_PENDSVCLR_Pos 27\000"
 9134      49435352 
 9134      5F50454E 
 9134      44535643 
 9134      4C525F50 
 9135              	.LASF387:
 9136 6b26 5F5F6861 		.ascii	"__have_long32 1\000"
 9136      76655F6C 
 9136      6F6E6733 
 9136      32203100 
 9137              	.LASF406:
 9138 6b36 494E545F 		.ascii	"INT_LEAST8_MIN (-__INT_LEAST8_MAX__ - 1)\000"
 9138      4C454153 
 9138      54385F4D 
 9138      494E2028 
ARM GAS  C:\Users\COSMIN~1.MAR\AppData\Local\Temp\ccJVXHYk.s 			page 235


 9138      2D5F5F49 
 9139              	.LASF968:
 9140 6b5f 494F3049 		.ascii	"IO0IntEnF\000"
 9140      6E74456E 
 9140      4600
 9141              	.LASF251:
 9142 6b69 5F5F554C 		.ascii	"__ULACCUM_FBIT__ 32\000"
 9142      41434355 
 9142      4D5F4642 
 9142      49545F5F 
 9142      20333200 
 9143              	.LASF506:
 9144 6b7d 5343425F 		.ascii	"SCB_AIRCR_ENDIANESS_Pos 15\000"
 9144      41495243 
 9144      525F454E 
 9144      4449414E 
 9144      4553535F 
 9145              	.LASF625:
 9146 6b98 49544D5F 		.ascii	"ITM_IMCR_INTEGRATION_Msk (1UL << ITM_IMCR_INTEGRATI"
 9146      494D4352 
 9146      5F494E54 
 9146      45475241 
 9146      54494F4E 
 9147 6bcb 4F4E5F50 		.ascii	"ON_Pos)\000"
 9147      6F732900 
 9148              	.LASF394:
 9149 6bd3 5F5F696E 		.ascii	"__int64_t_defined 1\000"
 9149      7436345F 
 9149      745F6465 
 9149      66696E65 
 9149      64203100 
 9150              	.LASF592:
 9151 6be7 53797354 		.ascii	"SysTick_LOAD_RELOAD_Pos 0\000"
 9151      69636B5F 
 9151      4C4F4144 
 9151      5F52454C 
 9151      4F41445F 
 9152              	.LASF341:
 9153 6c01 5F5F4152 		.ascii	"__ARMEL__ 1\000"
 9153      4D454C5F 
 9153      5F203100 
 9154              	.LASF967:
 9155 6c0d 494F3049 		.ascii	"IO0IntEnR\000"
 9155      6E74456E 
 9155      5200
 9156              	.LASF623:
 9157 6c17 49544D5F 		.ascii	"ITM_IRR_ATREADYM_Msk (1UL << ITM_IRR_ATREADYM_Pos)\000"
 9157      4952525F 
 9157      41545245 
 9157      4144594D 
 9157      5F4D736B 
 9158              	.LASF698:
 9159 6c4a 436F7265 		.ascii	"CoreDebug_DHCSR_C_HALT_Pos 1\000"
 9159      44656275 
 9159      675F4448 
 9159      4353525F 
 9159      435F4841 
ARM GAS  C:\Users\COSMIN~1.MAR\AppData\Local\Temp\ccJVXHYk.s 			page 236


 9160              	.LASF606:
 9161 6c67 49544D5F 		.ascii	"ITM_TCR_ATBID_Pos 16\000"
 9161      5443525F 
 9161      41544249 
 9161      445F506F 
 9161      73203136 
 9162              	.LASF70:
 9163 6c7c 5F5F4C4F 		.ascii	"__LONG_MAX__ 2147483647L\000"
 9163      4E475F4D 
 9163      41585F5F 
 9163      20323134 
 9163      37343833 
 9164              	.LASF266:
 9165 6c95 5F5F5151 		.ascii	"__QQ_FBIT__ 7\000"
 9165      5F464249 
 9165      545F5F20 
 9165      3700
 9166              	.LASF1000:
 9167 6ca3 70696E4E 		.ascii	"pinNum\000"
 9167      756D00
 9168              	.LASF301:
 9169 6caa 5F5F5554 		.ascii	"__UTA_IBIT__ 64\000"
 9169      415F4942 
 9169      49545F5F 
 9169      20363400 
 9170              	.LASF262:
 9171 6cba 5F5F554C 		.ascii	"__ULLACCUM_IBIT__ 32\000"
 9171      4C414343 
 9171      554D5F49 
 9171      4249545F 
 9171      5F203332 
 9172              	.LASF225:
 9173 6ccf 5F5F554C 		.ascii	"__ULLFRACT_EPSILON__ 0x1P-64ULLR\000"
 9173      4C465241 
 9173      43545F45 
 9173      5053494C 
 9173      4F4E5F5F 
 9174              	.LASF324:
 9175 6cf0 5F5F5349 		.ascii	"__SIZEOF_WINT_T__ 4\000"
 9175      5A454F46 
 9175      5F57494E 
 9175      545F545F 
 9175      5F203400 
 9176              	.LASF328:
 9177 6d04 5F5F4152 		.ascii	"__ARM_FEATURE_UNALIGNED 1\000"
 9177      4D5F4645 
 9177      41545552 
 9177      455F554E 
 9177      414C4947 
 9178              	.LASF218:
 9179 6d1e 5F5F4C4C 		.ascii	"__LLFRACT_MIN__ (-0.5LLR-0.5LLR)\000"
 9179      46524143 
 9179      545F4D49 
 9179      4E5F5F20 
 9179      282D302E 
 9180              	.LASF248:
 9181 6d3f 5F5F4C41 		.ascii	"__LACCUM_MIN__ (-0X1P31LK-0X1P31LK)\000"
ARM GAS  C:\Users\COSMIN~1.MAR\AppData\Local\Temp\ccJVXHYk.s 			page 237


 9181      4343554D 
 9181      5F4D494E 
 9181      5F5F2028 
 9181      2D305831 
 9182              	.LASF350:
 9183 6d63 5F5F4152 		.ascii	"__ARM_EABI__ 1\000"
 9183      4D5F4541 
 9183      42495F5F 
 9183      203100
 9184              	.LASF963:
 9185 6d72 496E7453 		.ascii	"IntStatus\000"
 9185      74617475 
 9185      7300
 9186              	.LASF147:
 9187 6d7c 5F5F4442 		.ascii	"__DBL_DENORM_MIN__ ((double)4.9406564584124654e-324"
 9187      4C5F4445 
 9187      4E4F524D 
 9187      5F4D494E 
 9187      5F5F2028 
 9188 6daf 4C2900   		.ascii	"L)\000"
 9189              	.LASF263:
 9190 6db2 5F5F554C 		.ascii	"__ULLACCUM_MIN__ 0.0ULLK\000"
 9190      4C414343 
 9190      554D5F4D 
 9190      494E5F5F 
 9190      20302E30 
 9191              	.LASF874:
 9192 6dcb 4750494F 		.ascii	"GPIO4_HalfWord ((GPIO_HalfWord_TypeDef *)(LPC_GPIO4"
 9192      345F4861 
 9192      6C66576F 
 9192      72642028 
 9192      28475049 
 9193 6dfe 5F424153 		.ascii	"_BASE))\000"
 9193      45292900 
 9194              	.LASF611:
 9195 6e06 49544D5F 		.ascii	"ITM_TCR_SWOENA_Msk (1UL << ITM_TCR_SWOENA_Pos)\000"
 9195      5443525F 
 9195      53574F45 
 9195      4E415F4D 
 9195      736B2028 
 9196              	.LASF682:
 9197 6e35 436F7265 		.ascii	"CoreDebug_DHCSR_S_RETIRE_ST_Pos 24\000"
 9197      44656275 
 9197      675F4448 
 9197      4353525F 
 9197      535F5245 
 9198              	.LASF860:
 9199 6e58 5F424954 		.ascii	"_BITMASK(field_width) ( _BIT(field_width) - 1)\000"
 9199      4D41534B 
 9199      28666965 
 9199      6C645F77 
 9199      69647468 
 9200              	.LASF44:
 9201 6e87 5F5F5549 		.ascii	"__UINT32_TYPE__ long unsigned int\000"
 9201      4E543332 
 9201      5F545950 
 9201      455F5F20 
ARM GAS  C:\Users\COSMIN~1.MAR\AppData\Local\Temp\ccJVXHYk.s 			page 238


 9201      6C6F6E67 
 9202              	.LASF401:
 9203 6ea9 494E5450 		.ascii	"INTPTR_MAX __INTPTR_MAX__\000"
 9203      54525F4D 
 9203      4158205F 
 9203      5F494E54 
 9203      5054525F 
 9204              	.LASF339:
 9205 6ec3 5F5F7468 		.ascii	"__thumb2__ 1\000"
 9205      756D6232 
 9205      5F5F2031 
 9205      00
 9206              	.LASF607:
 9207 6ed0 49544D5F 		.ascii	"ITM_TCR_ATBID_Msk (0x7FUL << ITM_TCR_ATBID_Pos)\000"
 9207      5443525F 
 9207      41544249 
 9207      445F4D73 
 9207      6B202830 
 9208              	.LASF500:
 9209 6f00 5343425F 		.ascii	"SCB_VTOR_TBLOFF_Pos 7\000"
 9209      56544F52 
 9209      5F54424C 
 9209      4F46465F 
 9209      506F7320 
 9210              	.LASF565:
 9211 6f16 5343425F 		.ascii	"SCB_CFSR_BUSFAULTSR_Msk (0xFFUL << SCB_CFSR_BUSFAUL"
 9211      43465352 
 9211      5F425553 
 9211      4641554C 
 9211      5453525F 
 9212 6f49 5453525F 		.ascii	"TSR_Pos)\000"
 9212      506F7329 
 9212      00
 9213              	.LASF773:
 9214 6f52 4C50435F 		.ascii	"LPC_CAN1_BASE (LPC_APB0_BASE + 0x44000)\000"
 9214      43414E31 
 9214      5F424153 
 9214      4520284C 
 9214      50435F41 
 9215              	.LASF629:
 9216 6f7a 49544D5F 		.ascii	"ITM_LSR_Access_Msk (1UL << ITM_LSR_Access_Pos)\000"
 9216      4C53525F 
 9216      41636365 
 9216      73735F4D 
 9216      736B2028 
 9217              	.LASF823:
 9218 6fa9 4C50435F 		.ascii	"LPC_I2C2 ((LPC_I2C_TypeDef *) LPC_I2C2_BASE )\000"
 9218      49324332 
 9218      2028284C 
 9218      50435F49 
 9218      32435F54 
 9219              	.LASF223:
 9220 6fd7 5F5F554C 		.ascii	"__ULLFRACT_MIN__ 0.0ULLR\000"
 9220      4C465241 
 9220      43545F4D 
 9220      494E5F5F 
 9220      20302E30 
ARM GAS  C:\Users\COSMIN~1.MAR\AppData\Local\Temp\ccJVXHYk.s 			page 239


 9221              	.LASF859:
 9222 6ff0 5F424954 		.ascii	"_BITMASK\000"
 9222      4D41534B 
 9222      00
 9223              	.LASF283:
 9224 6ff9 5F5F5544 		.ascii	"__UDQ_IBIT__ 0\000"
 9224      515F4942 
 9224      49545F5F 
 9224      203000
 9225              	.LASF13:
 9226 7008 5F5F5349 		.ascii	"__SIZEOF_INT__ 4\000"
 9226      5A454F46 
 9226      5F494E54 
 9226      5F5F2034 
 9226      00
 9227              	.LASF217:
 9228 7019 5F5F4C4C 		.ascii	"__LLFRACT_IBIT__ 0\000"
 9228      46524143 
 9228      545F4942 
 9228      49545F5F 
 9228      203000
 9229              	.LASF454:
 9230 702c 55494E54 		.ascii	"UINT16_C(x) __UINT16_C(x)\000"
 9230      31365F43 
 9230      28782920 
 9230      5F5F5549 
 9230      4E543136 
 9231              	.LASF679:
 9232 7046 436F7265 		.ascii	"CoreDebug_DHCSR_DBGKEY_Msk (0xFFFFUL << CoreDebug_D"
 9232      44656275 
 9232      675F4448 
 9232      4353525F 
 9232      4442474B 
 9233 7079 48435352 		.ascii	"HCSR_DBGKEY_Pos)\000"
 9233      5F444247 
 9233      4B45595F 
 9233      506F7329 
 9233      00
 9234              	.LASF924:
 9235 708a 75696E74 		.ascii	"uint32_t\000"
 9235      33325F74 
 9235      00
 9236              	.LASF829:
 9237 7093 4C50435F 		.ascii	"LPC_SSP0 ((LPC_SSP_TypeDef *) LPC_SSP0_BASE )\000"
 9237      53535030 
 9237      2028284C 
 9237      50435F53 
 9237      53505F54 
 9238              	.LASF630:
 9239 70c1 49544D5F 		.ascii	"ITM_LSR_Present_Pos 0\000"
 9239      4C53525F 
 9239      50726573 
 9239      656E745F 
 9239      506F7320 
 9240              	.LASF993:
 9241 70d7 4750494F 		.ascii	"GPIO_SetDir\000"
 9241      5F536574 
ARM GAS  C:\Users\COSMIN~1.MAR\AppData\Local\Temp\ccJVXHYk.s 			page 240


 9241      44697200 
 9242              	.LASF753:
 9243 70e3 4C50435F 		.ascii	"LPC_APB0_BASE (0x40000000UL)\000"
 9243      41504230 
 9243      5F424153 
 9243      45202830 
 9243      78343030 
 9244              	.LASF230:
 9245 7100 5F5F5341 		.ascii	"__SACCUM_EPSILON__ 0x1P-7HK\000"
 9245      4343554D 
 9245      5F455053 
 9245      494C4F4E 
 9245      5F5F2030 
 9246              	.LASF862:
 9247 711c 4E454C45 		.ascii	"NELEMENTS(array) (sizeof (array) / sizeof (array[0]"
 9247      4D454E54 
 9247      53286172 
 9247      72617929 
 9247      20287369 
 9248 714f 292900   		.ascii	"))\000"
 9249              	.LASF59:
 9250 7152 5F5F5549 		.ascii	"__UINT_FAST16_TYPE__ unsigned int\000"
 9250      4E545F46 
 9250      41535431 
 9250      365F5459 
 9250      50455F5F 
 9251              	.LASF599:
 9252 7174 53797354 		.ascii	"SysTick_CALIB_SKEW_Msk (1UL << SysTick_CALIB_SKEW_P"
 9252      69636B5F 
 9252      43414C49 
 9252      425F534B 
 9252      45575F4D 
 9253 71a7 6F732900 		.ascii	"os)\000"
 9254              	.LASF295:
 9255 71ab 5F5F5548 		.ascii	"__UHA_IBIT__ 8\000"
 9255      415F4942 
 9255      49545F5F 
 9255      203800
 9256              	.LASF646:
 9257 71ba 4D50555F 		.ascii	"MPU_CTRL_PRIVDEFENA_Pos 2\000"
 9257      4354524C 
 9257      5F505249 
 9257      56444546 
 9257      454E415F 
 9258              	.LASF240:
 9259 71d4 5F5F4143 		.ascii	"__ACCUM_EPSILON__ 0x1P-15K\000"
 9259      43554D5F 
 9259      45505349 
 9259      4C4F4E5F 
 9259      5F203078 
 9260              	.LASF255:
 9261 71ef 5F5F554C 		.ascii	"__ULACCUM_EPSILON__ 0x1P-32ULK\000"
 9261      41434355 
 9261      4D5F4550 
 9261      53494C4F 
 9261      4E5F5F20 
 9262              	.LASF152:
ARM GAS  C:\Users\COSMIN~1.MAR\AppData\Local\Temp\ccJVXHYk.s 			page 241


 9263 720e 5F5F4C44 		.ascii	"__LDBL_DIG__ 15\000"
 9263      424C5F44 
 9263      49475F5F 
 9263      20313500 
 9264              	.LASF75:
 9265 721e 5F5F5749 		.ascii	"__WINT_MIN__ 0U\000"
 9265      4E545F4D 
 9265      494E5F5F 
 9265      20305500 
 9266              	.LASF962:
 9267 722e 4C50435F 		.ascii	"LPC_GPIO_TypeDef\000"
 9267      4750494F 
 9267      5F547970 
 9267      65446566 
 9267      00
 9268              	.LASF700:
 9269 723f 436F7265 		.ascii	"CoreDebug_DHCSR_C_DEBUGEN_Pos 0\000"
 9269      44656275 
 9269      675F4448 
 9269      4353525F 
 9269      435F4445 
 9270              	.LASF498:
 9271 725f 5343425F 		.ascii	"SCB_VTOR_TBLBASE_Pos 29\000"
 9271      56544F52 
 9271      5F54424C 
 9271      42415345 
 9271      5F506F73 
 9272              	.LASF432:
 9273 7277 55494E54 		.ascii	"UINT_FAST16_MAX __UINT_FAST16_MAX__\000"
 9273      5F464153 
 9273      5431365F 
 9273      4D415820 
 9273      5F5F5549 
 9274              	.LASF1007:
 9275 729b 46494F5F 		.ascii	"FIO_GetIntStatus\000"
 9275      47657449 
 9275      6E745374 
 9275      61747573 
 9275      00
 9276              	.LASF47:
 9277 72ac 5F5F494E 		.ascii	"__INT_LEAST16_TYPE__ short int\000"
 9277      545F4C45 
 9277      41535431 
 9277      365F5459 
 9277      50455F5F 
 9278              	.LASF265:
 9279 72cb 5F5F554C 		.ascii	"__ULLACCUM_EPSILON__ 0x1P-32ULLK\000"
 9279      4C414343 
 9279      554D5F45 
 9279      5053494C 
 9279      4F4E5F5F 
 9280              	.LASF1016:
 9281 72ec 46494F5F 		.ascii	"FIO_HalfWordReadValue\000"
 9281      48616C66 
 9281      576F7264 
 9281      52656164 
 9281      56616C75 
ARM GAS  C:\Users\COSMIN~1.MAR\AppData\Local\Temp\ccJVXHYk.s 			page 242


 9282              	.LASF144:
 9283 7302 5F5F4442 		.ascii	"__DBL_MAX__ ((double)1.7976931348623157e+308L)\000"
 9283      4C5F4D41 
 9283      585F5F20 
 9283      2828646F 
 9283      75626C65 
 9284              	.LASF913:
 9285 7331 73686F72 		.ascii	"short unsigned int\000"
 9285      7420756E 
 9285      7369676E 
 9285      65642069 
 9285      6E7400
 9286              	.LASF216:
 9287 7344 5F5F4C4C 		.ascii	"__LLFRACT_FBIT__ 63\000"
 9287      46524143 
 9287      545F4642 
 9287      49545F5F 
 9287      20363300 
 9288              	.LASF471:
 9289 7358 5343425F 		.ascii	"SCB_CPUID_IMPLEMENTER_Msk (0xFFUL << SCB_CPUID_IMPL"
 9289      43505549 
 9289      445F494D 
 9289      504C454D 
 9289      454E5445 
 9290 738b 454D454E 		.ascii	"EMENTER_Pos)\000"
 9290      5445525F 
 9290      506F7329 
 9290      00
 9291              	.LASF690:
 9292 7398 436F7265 		.ascii	"CoreDebug_DHCSR_S_REGRDY_Pos 16\000"
 9292      44656275 
 9292      675F4448 
 9292      4353525F 
 9292      535F5245 
 9293              	.LASF338:
 9294 73b8 5F5F7468 		.ascii	"__thumb__ 1\000"
 9294      756D625F 
 9294      5F203100 
 9295              	.LASF431:
 9296 73c4 494E545F 		.ascii	"INT_FAST16_MAX __INT_FAST16_MAX__\000"
 9296      46415354 
 9296      31365F4D 
 9296      4158205F 
 9296      5F494E54 
 9297              	.LASF113:
 9298 73e6 5F5F5549 		.ascii	"__UINT_FAST16_MAX__ 4294967295U\000"
 9298      4E545F46 
 9298      41535431 
 9298      365F4D41 
 9298      585F5F20 
 9299              	.LASF462:
 9300 7406 5F5F434F 		.ascii	"__CORE_CMINSTR_H__ \000"
 9300      52455F43 
 9300      4D494E53 
 9300      54525F48 
 9300      5F5F2000 
 9301              	.LASF268:
ARM GAS  C:\Users\COSMIN~1.MAR\AppData\Local\Temp\ccJVXHYk.s 			page 243


 9302 741a 5F5F4851 		.ascii	"__HQ_FBIT__ 15\000"
 9302      5F464249 
 9302      545F5F20 
 9302      313500
 9303              	.LASF511:
 9304 7429 5343425F 		.ascii	"SCB_AIRCR_SYSRESETREQ_Msk (1UL << SCB_AIRCR_SYSRESE"
 9304      41495243 
 9304      525F5359 
 9304      53524553 
 9304      45545245 
 9305 745c 54524551 		.ascii	"TREQ_Pos)\000"
 9305      5F506F73 
 9305      2900
 9306              	.LASF661:
 9307 7466 4D50555F 		.ascii	"MPU_RASR_XN_Msk (1UL << MPU_RASR_XN_Pos)\000"
 9307      52415352 
 9307      5F584E5F 
 9307      4D736B20 
 9307      2831554C 
 9308              	.LASF512:
 9309 748f 5343425F 		.ascii	"SCB_AIRCR_VECTCLRACTIVE_Pos 1\000"
 9309      41495243 
 9309      525F5645 
 9309      4354434C 
 9309      52414354 
 9310              	.LASF906:
 9311 74ad 5F454D41 		.ascii	"_EMAC 1\000"
 9311      43203100 
 9312              	.LASF973:
 9313 74b5 494F3249 		.ascii	"IO2IntEnF\000"
 9313      6E74456E 
 9313      4600
 9314              	.LASF538:
 9315 74bf 5343425F 		.ascii	"SCB_SHCSR_MEMFAULTENA_Pos 16\000"
 9315      53484353 
 9315      525F4D45 
 9315      4D464155 
 9315      4C54454E 
 9316              	.LASF187:
 9317 74dc 5F5F5346 		.ascii	"__SFRACT_IBIT__ 0\000"
 9317      52414354 
 9317      5F494249 
 9317      545F5F20 
 9317      3000
 9318              	.LASF972:
 9319 74ee 494F3249 		.ascii	"IO2IntEnR\000"
 9319      6E74456E 
 9319      5200
 9320              	.LASF389:
 9321 74f8 5F5F696E 		.ascii	"__int_least8_t_defined 1\000"
 9321      745F6C65 
 9321      61737438 
 9321      5F745F64 
 9321      6566696E 
 9322              	.LASF884:
 9323 7511 5F535350 		.ascii	"_SSP 1\000"
 9323      203100
ARM GAS  C:\Users\COSMIN~1.MAR\AppData\Local\Temp\ccJVXHYk.s 			page 244


 9324              	.LASF914:
 9325 7518 5F5F696E 		.ascii	"__int32_t\000"
 9325      7433325F 
 9325      7400
 9326              	.LASF528:
 9327 7522 5343425F 		.ascii	"SCB_CCR_UNALIGN_TRP_Pos 3\000"
 9327      4343525F 
 9327      554E414C 
 9327      49474E5F 
 9327      5452505F 
 9328              	.LASF712:
 9329 753c 436F7265 		.ascii	"CoreDebug_DEMCR_MON_PEND_Pos 17\000"
 9329      44656275 
 9329      675F4445 
 9329      4D43525F 
 9329      4D4F4E5F 
 9330              	.LASF849:
 9331 755c 4C50435F 		.ascii	"LPC_GPDMACH6 ((LPC_GPDMACH_TypeDef *) LPC_GPDMACH6_"
 9331      4750444D 
 9331      41434836 
 9331      2028284C 
 9331      50435F47 
 9332 758f 42415345 		.ascii	"BASE )\000"
 9332      202900
 9333              	.LASF659:
 9334 7596 4D50555F 		.ascii	"MPU_RBAR_REGION_Msk (0xFUL << MPU_RBAR_REGION_Pos)\000"
 9334      52424152 
 9334      5F524547 
 9334      494F4E5F 
 9334      4D736B20 
 9335              	.LASF997:
 9336 75c9 65646765 		.ascii	"edgeState\000"
 9336      53746174 
 9336      6500
 9337              	.LASF889:
 9338 75d3 5F493243 		.ascii	"_I2C1 1\000"
 9338      31203100 
 9339              	.LASF852:
 9340 75db 4C50435F 		.ascii	"LPC_TYPES_H \000"
 9340      54595045 
 9340      535F4820 
 9340      00
 9341              	.LASF220:
 9342 75e8 5F5F4C4C 		.ascii	"__LLFRACT_EPSILON__ 0x1P-63LLR\000"
 9342      46524143 
 9342      545F4550 
 9342      53494C4F 
 9342      4E5F5F20 
 9343              	.LASF560:
 9344 7607 5343425F 		.ascii	"SCB_SHCSR_MEMFAULTACT_Pos 0\000"
 9344      53484353 
 9344      525F4D45 
 9344      4D464155 
 9344      4C544143 
 9345              	.LASF189:
 9346 7623 5F5F5346 		.ascii	"__SFRACT_MAX__ 0X7FP-7HR\000"
 9346      52414354 
ARM GAS  C:\Users\COSMIN~1.MAR\AppData\Local\Temp\ccJVXHYk.s 			page 245


 9346      5F4D4158 
 9346      5F5F2030 
 9346      58374650 
 9347              	.LASF692:
 9348 763c 436F7265 		.ascii	"CoreDebug_DHCSR_C_SNAPSTALL_Pos 5\000"
 9348      44656275 
 9348      675F4448 
 9348      4353525F 
 9348      435F534E 
 9349              	.LASF95:
 9350 765e 5F5F494E 		.ascii	"__INT16_C(c) c\000"
 9350      5431365F 
 9350      43286329 
 9350      206300
 9351              	.LASF681:
 9352 766d 436F7265 		.ascii	"CoreDebug_DHCSR_S_RESET_ST_Msk (1UL << CoreDebug_DH"
 9352      44656275 
 9352      675F4448 
 9352      4353525F 
 9352      535F5245 
 9353 76a0 4353525F 		.ascii	"CSR_S_RESET_ST_Pos)\000"
 9353      535F5245 
 9353      5345545F 
 9353      53545F50 
 9353      6F732900 
 9354              	.LASF291:
 9355 76b4 5F5F4441 		.ascii	"__DA_IBIT__ 32\000"
 9355      5F494249 
 9355      545F5F20 
 9355      333200
 9356              	.LASF603:
 9357 76c3 49544D5F 		.ascii	"ITM_TPR_PRIVMASK_Msk (0xFUL << ITM_TPR_PRIVMASK_Pos"
 9357      5450525F 
 9357      50524956 
 9357      4D41534B 
 9357      5F4D736B 
 9358 76f6 2900     		.ascii	")\000"
 9359              	.LASF517:
 9360 76f8 5343425F 		.ascii	"SCB_SCR_SEVONPEND_Msk (1UL << SCB_SCR_SEVONPEND_Pos"
 9360      5343525F 
 9360      5345564F 
 9360      4E50454E 
 9360      445F4D73 
 9361 772b 2900     		.ascii	")\000"
 9362              	.LASF10:
 9363 772d 5F5F4154 		.ascii	"__ATOMIC_ACQ_REL 4\000"
 9363      4F4D4943 
 9363      5F414351 
 9363      5F52454C 
 9363      203400
 9364              	.LASF986:
 9365 7740 4750494F 		.ascii	"GPIO_GetPointer\000"
 9365      5F476574 
 9365      506F696E 
 9365      74657200 
 9366              	.LASF40:
 9367 7750 5F5F494E 		.ascii	"__INT32_TYPE__ long int\000"
ARM GAS  C:\Users\COSMIN~1.MAR\AppData\Local\Temp\ccJVXHYk.s 			page 246


 9367      5433325F 
 9367      54595045 
 9367      5F5F206C 
 9367      6F6E6720 
 9368              	.LASF140:
 9369 7768 5F5F4442 		.ascii	"__DBL_MIN_10_EXP__ (-307)\000"
 9369      4C5F4D49 
 9369      4E5F3130 
 9369      5F455850 
 9369      5F5F2028 
 9370              	.LASF866:
 9371 7782 4750494F 		.ascii	"GPIO1_Byte ((GPIO_Byte_TypeDef *)(LPC_GPIO1_BASE))\000"
 9371      315F4279 
 9371      74652028 
 9371      28475049 
 9371      4F5F4279 
 9372              	.LASF505:
 9373 77b5 5343425F 		.ascii	"SCB_AIRCR_VECTKEYSTAT_Msk (0xFFFFUL << SCB_AIRCR_VE"
 9373      41495243 
 9373      525F5645 
 9373      43544B45 
 9373      59535441 
 9374 77e8 43544B45 		.ascii	"CTKEYSTAT_Pos)\000"
 9374      59535441 
 9374      545F506F 
 9374      732900
 9375              	.LASF1025:
 9376 77f7 443A5C77 		.ascii	"D:\\work\\Embedded\\aoaa\000"
 9376      6F726B5C 
 9376      456D6265 
 9376      64646564 
 9376      5C616F61 
 9377              	.LASF427:
 9378 780d 494E545F 		.ascii	"INT_FAST8_MIN (-__INT_FAST8_MAX__ - 1)\000"
 9378      46415354 
 9378      385F4D49 
 9378      4E20282D 
 9378      5F5F494E 
 9379              	.LASF608:
 9380 7834 49544D5F 		.ascii	"ITM_TCR_TSPrescale_Pos 8\000"
 9380      5443525F 
 9380      54535072 
 9380      65736361 
 9380      6C655F50 
 9381              	.LASF842:
 9382 784d 444D4152 		.ascii	"DMAREQSEL (*(__IO uint32_t *) ( 0x4000C1C4))\000"
 9382      45515345 
 9382      4C20282A 
 9382      285F5F49 
 9382      4F207569 
 9383              	.LASF366:
 9384 787a 5F5F494E 		.ascii	"__INLINE inline\000"
 9384      4C494E45 
 9384      20696E6C 
 9384      696E6500 
 9385              	.LASF88:
 9386 788a 5F5F5549 		.ascii	"__UINT8_MAX__ 255\000"
ARM GAS  C:\Users\COSMIN~1.MAR\AppData\Local\Temp\ccJVXHYk.s 			page 247


 9386      4E54385F 
 9386      4D41585F 
 9386      5F203235 
 9386      3500
 9387              	.LASF114:
 9388 789c 5F5F5549 		.ascii	"__UINT_FAST32_MAX__ 4294967295U\000"
 9388      4E545F46 
 9388      41535433 
 9388      325F4D41 
 9388      585F5F20 
 9389              	.LASF100:
 9390 78bc 5F5F5549 		.ascii	"__UINT_LEAST8_MAX__ 255\000"
 9390      4E545F4C 
 9390      45415354 
 9390      385F4D41 
 9390      585F5F20 
 9391              	.LASF330:
 9392 78d4 5F5F4152 		.ascii	"__ARM_FEATURE_LDREX 7\000"
 9392      4D5F4645 
 9392      41545552 
 9392      455F4C44 
 9392      52455820 
 9393              	.LASF1013:
 9394 78ea 46494F5F 		.ascii	"FIO_HalfWordSetMask\000"
 9394      48616C66 
 9394      576F7264 
 9394      5365744D 
 9394      61736B00 
 9395              	.LASF137:
 9396 78fe 5F5F4442 		.ascii	"__DBL_MANT_DIG__ 53\000"
 9396      4C5F4D41 
 9396      4E545F44 
 9396      49475F5F 
 9396      20353300 
 9397              	.LASF212:
 9398 7912 5F5F554C 		.ascii	"__ULFRACT_IBIT__ 0\000"
 9398      46524143 
 9398      545F4942 
 9398      49545F5F 
 9398      203000
 9399              	.LASF650:
 9400 7925 4D50555F 		.ascii	"MPU_CTRL_ENABLE_Pos 0\000"
 9400      4354524C 
 9400      5F454E41 
 9400      424C455F 
 9400      506F7320 
 9401              	.LASF556:
 9402 793b 5343425F 		.ascii	"SCB_SHCSR_USGFAULTACT_Pos 3\000"
 9402      53484353 
 9402      525F5553 
 9402      47464155 
 9402      4C544143 
 9403              	.LASF802:
 9404 7957 4C50435F 		.ascii	"LPC_GPIO3_BASE (LPC_GPIO_BASE + 0x00060)\000"
 9404      4750494F 
 9404      335F4241 
 9404      53452028 
ARM GAS  C:\Users\COSMIN~1.MAR\AppData\Local\Temp\ccJVXHYk.s 			page 248


 9404      4C50435F 
 9405              	.LASF203:
 9406 7980 5F5F5546 		.ascii	"__UFRACT_MIN__ 0.0UR\000"
 9406      52414354 
 9406      5F4D494E 
 9406      5F5F2030 
 9406      2E305552 
 9407              	.LASF844:
 9408 7995 4C50435F 		.ascii	"LPC_GPDMACH1 ((LPC_GPDMACH_TypeDef *) LPC_GPDMACH1_"
 9408      4750444D 
 9408      41434831 
 9408      2028284C 
 9408      50435F47 
 9409 79c8 42415345 		.ascii	"BASE )\000"
 9409      202900
 9410              	.LASF226:
 9411 79cf 5F5F5341 		.ascii	"__SACCUM_FBIT__ 7\000"
 9411      4343554D 
 9411      5F464249 
 9411      545F5F20 
 9411      3700
 9412              		.ident	"GCC: (GNU Tools for ARM Embedded Processors) 4.9.3 20150303 (release) [ARM/embedded-4_9-br
ARM GAS  C:\Users\COSMIN~1.MAR\AppData\Local\Temp\ccJVXHYk.s 			page 249


DEFINED SYMBOLS
                            *ABS*:00000000 lpc17xx_gpio.c
C:\Users\COSMIN~1.MAR\AppData\Local\Temp\ccJVXHYk.s:53     .text.GPIO_GetPointer:00000000 $t
C:\Users\COSMIN~1.MAR\AppData\Local\Temp\ccJVXHYk.s:57     .text.GPIO_GetPointer:00000000 GPIO_GetPointer
C:\Users\COSMIN~1.MAR\AppData\Local\Temp\ccJVXHYk.s:85     .text.GPIO_GetPointer:0000001c $d
C:\Users\COSMIN~1.MAR\AppData\Local\Temp\ccJVXHYk.s:90     .text.GPIO_GetPointer:00000030 $t
C:\Users\COSMIN~1.MAR\AppData\Local\Temp\ccJVXHYk.s:141    .text.GPIO_GetPointer:00000060 $d
C:\Users\COSMIN~1.MAR\AppData\Local\Temp\ccJVXHYk.s:150    .text.FIO_HalfWordGetPointer:00000000 $t
C:\Users\COSMIN~1.MAR\AppData\Local\Temp\ccJVXHYk.s:154    .text.FIO_HalfWordGetPointer:00000000 FIO_HalfWordGetPointer
C:\Users\COSMIN~1.MAR\AppData\Local\Temp\ccJVXHYk.s:181    .text.FIO_HalfWordGetPointer:0000001c $d
C:\Users\COSMIN~1.MAR\AppData\Local\Temp\ccJVXHYk.s:186    .text.FIO_HalfWordGetPointer:00000030 $t
C:\Users\COSMIN~1.MAR\AppData\Local\Temp\ccJVXHYk.s:237    .text.FIO_HalfWordGetPointer:00000060 $d
C:\Users\COSMIN~1.MAR\AppData\Local\Temp\ccJVXHYk.s:246    .text.FIO_ByteGetPointer:00000000 $t
C:\Users\COSMIN~1.MAR\AppData\Local\Temp\ccJVXHYk.s:250    .text.FIO_ByteGetPointer:00000000 FIO_ByteGetPointer
C:\Users\COSMIN~1.MAR\AppData\Local\Temp\ccJVXHYk.s:277    .text.FIO_ByteGetPointer:0000001c $d
C:\Users\COSMIN~1.MAR\AppData\Local\Temp\ccJVXHYk.s:282    .text.FIO_ByteGetPointer:00000030 $t
C:\Users\COSMIN~1.MAR\AppData\Local\Temp\ccJVXHYk.s:333    .text.FIO_ByteGetPointer:00000060 $d
C:\Users\COSMIN~1.MAR\AppData\Local\Temp\ccJVXHYk.s:342    .text.GPIO_SetDir:00000000 $t
C:\Users\COSMIN~1.MAR\AppData\Local\Temp\ccJVXHYk.s:347    .text.GPIO_SetDir:00000000 GPIO_SetDir
C:\Users\COSMIN~1.MAR\AppData\Local\Temp\ccJVXHYk.s:408    .text.GPIO_SetValue:00000000 $t
C:\Users\COSMIN~1.MAR\AppData\Local\Temp\ccJVXHYk.s:413    .text.GPIO_SetValue:00000000 GPIO_SetValue
C:\Users\COSMIN~1.MAR\AppData\Local\Temp\ccJVXHYk.s:455    .text.GPIO_ClearValue:00000000 $t
C:\Users\COSMIN~1.MAR\AppData\Local\Temp\ccJVXHYk.s:460    .text.GPIO_ClearValue:00000000 GPIO_ClearValue
C:\Users\COSMIN~1.MAR\AppData\Local\Temp\ccJVXHYk.s:502    .text.GPIO_ReadValue:00000000 $t
C:\Users\COSMIN~1.MAR\AppData\Local\Temp\ccJVXHYk.s:507    .text.GPIO_ReadValue:00000000 GPIO_ReadValue
C:\Users\COSMIN~1.MAR\AppData\Local\Temp\ccJVXHYk.s:552    .text.GPIO_IntCmd:00000000 $t
C:\Users\COSMIN~1.MAR\AppData\Local\Temp\ccJVXHYk.s:557    .text.GPIO_IntCmd:00000000 GPIO_IntCmd
C:\Users\COSMIN~1.MAR\AppData\Local\Temp\ccJVXHYk.s:660    .text.GPIO_IntCmd:00000084 $d
C:\Users\COSMIN~1.MAR\AppData\Local\Temp\ccJVXHYk.s:665    .text.GPIO_GetIntStatus:00000000 $t
C:\Users\COSMIN~1.MAR\AppData\Local\Temp\ccJVXHYk.s:670    .text.GPIO_GetIntStatus:00000000 GPIO_GetIntStatus
C:\Users\COSMIN~1.MAR\AppData\Local\Temp\ccJVXHYk.s:778    .text.GPIO_GetIntStatus:000000a0 $d
C:\Users\COSMIN~1.MAR\AppData\Local\Temp\ccJVXHYk.s:783    .text.GPIO_ClearInt:00000000 $t
C:\Users\COSMIN~1.MAR\AppData\Local\Temp\ccJVXHYk.s:788    .text.GPIO_ClearInt:00000000 GPIO_ClearInt
C:\Users\COSMIN~1.MAR\AppData\Local\Temp\ccJVXHYk.s:841    .text.GPIO_ClearInt:00000034 $d
C:\Users\COSMIN~1.MAR\AppData\Local\Temp\ccJVXHYk.s:846    .text.FIO_SetDir:00000000 $t
C:\Users\COSMIN~1.MAR\AppData\Local\Temp\ccJVXHYk.s:851    .text.FIO_SetDir:00000000 FIO_SetDir
C:\Users\COSMIN~1.MAR\AppData\Local\Temp\ccJVXHYk.s:888    .text.FIO_SetValue:00000000 $t
C:\Users\COSMIN~1.MAR\AppData\Local\Temp\ccJVXHYk.s:893    .text.FIO_SetValue:00000000 FIO_SetValue
C:\Users\COSMIN~1.MAR\AppData\Local\Temp\ccJVXHYk.s:926    .text.FIO_ClearValue:00000000 $t
C:\Users\COSMIN~1.MAR\AppData\Local\Temp\ccJVXHYk.s:931    .text.FIO_ClearValue:00000000 FIO_ClearValue
C:\Users\COSMIN~1.MAR\AppData\Local\Temp\ccJVXHYk.s:964    .text.FIO_ReadValue:00000000 $t
C:\Users\COSMIN~1.MAR\AppData\Local\Temp\ccJVXHYk.s:969    .text.FIO_ReadValue:00000000 FIO_ReadValue
C:\Users\COSMIN~1.MAR\AppData\Local\Temp\ccJVXHYk.s:1002   .text.FIO_IntCmd:00000000 $t
C:\Users\COSMIN~1.MAR\AppData\Local\Temp\ccJVXHYk.s:1007   .text.FIO_IntCmd:00000000 FIO_IntCmd
C:\Users\COSMIN~1.MAR\AppData\Local\Temp\ccJVXHYk.s:1044   .text.FIO_GetIntStatus:00000000 $t
C:\Users\COSMIN~1.MAR\AppData\Local\Temp\ccJVXHYk.s:1049   .text.FIO_GetIntStatus:00000000 FIO_GetIntStatus
C:\Users\COSMIN~1.MAR\AppData\Local\Temp\ccJVXHYk.s:1088   .text.FIO_ClearInt:00000000 $t
C:\Users\COSMIN~1.MAR\AppData\Local\Temp\ccJVXHYk.s:1093   .text.FIO_ClearInt:00000000 FIO_ClearInt
C:\Users\COSMIN~1.MAR\AppData\Local\Temp\ccJVXHYk.s:1126   .text.FIO_SetMask:00000000 $t
C:\Users\COSMIN~1.MAR\AppData\Local\Temp\ccJVXHYk.s:1131   .text.FIO_SetMask:00000000 FIO_SetMask
C:\Users\COSMIN~1.MAR\AppData\Local\Temp\ccJVXHYk.s:1192   .text.FIO_HalfWordSetDir:00000000 $t
C:\Users\COSMIN~1.MAR\AppData\Local\Temp\ccJVXHYk.s:1197   .text.FIO_HalfWordSetDir:00000000 FIO_HalfWordSetDir
C:\Users\COSMIN~1.MAR\AppData\Local\Temp\ccJVXHYk.s:1307   .text.FIO_HalfWordSetMask:00000000 $t
C:\Users\COSMIN~1.MAR\AppData\Local\Temp\ccJVXHYk.s:1312   .text.FIO_HalfWordSetMask:00000000 FIO_HalfWordSetMask
C:\Users\COSMIN~1.MAR\AppData\Local\Temp\ccJVXHYk.s:1422   .text.FIO_HalfWordSetValue:00000000 $t
C:\Users\COSMIN~1.MAR\AppData\Local\Temp\ccJVXHYk.s:1427   .text.FIO_HalfWordSetValue:00000000 FIO_HalfWordSetValue
C:\Users\COSMIN~1.MAR\AppData\Local\Temp\ccJVXHYk.s:1482   .text.FIO_HalfWordClearValue:00000000 $t
ARM GAS  C:\Users\COSMIN~1.MAR\AppData\Local\Temp\ccJVXHYk.s 			page 250


C:\Users\COSMIN~1.MAR\AppData\Local\Temp\ccJVXHYk.s:1487   .text.FIO_HalfWordClearValue:00000000 FIO_HalfWordClearValue
C:\Users\COSMIN~1.MAR\AppData\Local\Temp\ccJVXHYk.s:1542   .text.FIO_HalfWordReadValue:00000000 $t
C:\Users\COSMIN~1.MAR\AppData\Local\Temp\ccJVXHYk.s:1547   .text.FIO_HalfWordReadValue:00000000 FIO_HalfWordReadValue
C:\Users\COSMIN~1.MAR\AppData\Local\Temp\ccJVXHYk.s:1606   .text.FIO_ByteSetDir:00000000 $t
C:\Users\COSMIN~1.MAR\AppData\Local\Temp\ccJVXHYk.s:1611   .text.FIO_ByteSetDir:00000000 FIO_ByteSetDir
C:\Users\COSMIN~1.MAR\AppData\Local\Temp\ccJVXHYk.s:1699   .text.FIO_ByteSetMask:00000000 $t
C:\Users\COSMIN~1.MAR\AppData\Local\Temp\ccJVXHYk.s:1704   .text.FIO_ByteSetMask:00000000 FIO_ByteSetMask
C:\Users\COSMIN~1.MAR\AppData\Local\Temp\ccJVXHYk.s:1798   .text.FIO_ByteSetValue:00000000 $t
C:\Users\COSMIN~1.MAR\AppData\Local\Temp\ccJVXHYk.s:1803   .text.FIO_ByteSetValue:00000000 FIO_ByteSetValue
C:\Users\COSMIN~1.MAR\AppData\Local\Temp\ccJVXHYk.s:1854   .text.FIO_ByteClearValue:00000000 $t
C:\Users\COSMIN~1.MAR\AppData\Local\Temp\ccJVXHYk.s:1859   .text.FIO_ByteClearValue:00000000 FIO_ByteClearValue
C:\Users\COSMIN~1.MAR\AppData\Local\Temp\ccJVXHYk.s:1910   .text.FIO_ByteReadValue:00000000 $t
C:\Users\COSMIN~1.MAR\AppData\Local\Temp\ccJVXHYk.s:1915   .text.FIO_ByteReadValue:00000000 FIO_ByteReadValue
                     .debug_frame:00000010 $d
                           .group:00000000 wm4.0.1834ce015d70b8127b1e5f7bc96e3d8e
                           .group:00000000 wm4.LPC17xx.h.27.964facdaadd4aa3f18ac78c8a78f0013
                           .group:00000000 wm4.core_cm3.h.32.ec4df48419563a0d596421d1133ac586
                           .group:00000000 wm4.features.h.22.2e382148a0560adabf236cddd4e880f4
                           .group:00000000 wm4._default_types.h.15.933e8edd27a65e0b69af4a865eb623d2
                           .group:00000000 wm4._intsup.h.10.ca9f32a61b410c270a48d1161ca2c217
                           .group:00000000 wm4.stdint.h.22.f4a337c398d8b6d821a97202448bc0d0
                           .group:00000000 wm4.core_cmInstr.h.25.367280a3dbe1a27f086157cbbb6352e1
                           .group:00000000 wm4.core_cm3.h.90.d0c8a7fd6bb95729c958e48b22262446
                           .group:00000000 wm4.LPC17xx.h.953.77a3a85f2f7c5b921d480655a6f3d5b1
                           .group:00000000 wm4.lpc_types.h.31.fe468f0c170b3f2fb639f9a689afb2c4
                           .group:00000000 wm4.lpc17xx_gpio.h.46.bb938143fd7eb0f6afd2eec72bcfb190
                           .group:00000000 wm4.lpc17xx_libcfg_default.h.27.7c412cdf4245ef94b86bdcf981a232f0

NO UNDEFINED SYMBOLS
