ARM GAS  C:\Users\STUDENT\AppData\Local\Temp\ccMxouBa.s 			page 1


   1              		.syntax unified
   2              		.cpu cortex-m3
   3              		.fpu softvfp
   4              		.eabi_attribute 20, 1	@ Tag_ABI_FP_denormal
   5              		.eabi_attribute 21, 1	@ Tag_ABI_FP_exceptions
   6              		.eabi_attribute 23, 3	@ Tag_ABI_FP_number_model
   7              		.eabi_attribute 24, 1	@ Tag_ABI_align8_needed
   8              		.eabi_attribute 25, 1	@ Tag_ABI_align8_preserved
   9              		.eabi_attribute 26, 1	@ Tag_ABI_enum_size
  10              		.eabi_attribute 30, 6	@ Tag_ABI_optimization_goals
  11              		.eabi_attribute 34, 1	@ Tag_CPU_unaligned_access
  12              		.eabi_attribute 18, 4	@ Tag_ABI_PCS_wchar_t
  13              		.file	"lpc17xx_uart.c"
  14              	@ GNU C89 (GNU Tools for ARM Embedded Processors) version 5.4.1 20160919 (release) [ARM/embedded-5-
  15              	@	compiled by GNU C version 4.7.4, GMP version 4.3.2, MPFR version 2.4.2, MPC version 0.8.1
  16              	@ GGC heuristics: --param ggc-min-expand=100 --param ggc-min-heapsize=131072
  17              	@ options passed:  -I . -I config -I system -I core -I drivers -I FreeRTOS
  18              	@ -I FreeRTOS/include -I FreeRTOS/portable/GCC/ARM_CM3 -I FreeRTOS/portable
  19              	@ -I tasks/rc_task_leds -I modules/rc_leds -I drivers/rc_system
  20              	@ -I drivers/rc_gpio -I drivers/rc_uart -I drivers/rc_pinsel
  21              	@ -I drivers/rc_timer -I drivers/rc_adc -imultilib armv7-m
  22              	@ -iprefix c:\program files (x86)\gnu tools arm embedded\5.4 2016q3\bin\../lib/gcc/arm-none-eabi/5.
  23              	@ -isysroot c:\program files (x86)\gnu tools arm embedded\5.4 2016q3\bin\../arm-none-eabi
  24              	@ -MD out/lpc17xx_uart.d -MF out/lpc17xx_uart.d -MP -MQ out/lpc17xx_uart.o
  25              	@ -D__USES_INITFINI__ core/lpc17xx_uart.c -mcpu=cortex-m3 -mthumb
  26              	@ -auxbase-strip out/lpc17xx_uart.o -g -ggdb3 -O0 -Wall -Wstrict-prototypes
  27              	@ -Wextra -std=gnu90 -ffunction-sections -fdata-sections -fverbose-asm
  28              	@ options enabled:  -faggressive-loop-optimizations -fauto-inc-dec
  29              	@ -fchkp-check-incomplete-type -fchkp-check-read -fchkp-check-write
  30              	@ -fchkp-instrument-calls -fchkp-narrow-bounds -fchkp-optimize
  31              	@ -fchkp-store-bounds -fchkp-use-static-bounds
  32              	@ -fchkp-use-static-const-bounds -fchkp-use-wrappers -fcommon
  33              	@ -fdata-sections -fdelete-null-pointer-checks -fdwarf2-cfi-asm
  34              	@ -fearly-inlining -feliminate-unused-debug-types -ffunction-cse
  35              	@ -ffunction-sections -fgcse-lm -fgnu-runtime -fgnu-unique -fident
  36              	@ -finline-atomics -fira-hoist-pressure -fira-share-save-slots
  37              	@ -fira-share-spill-slots -fivopts -fkeep-static-consts
  38              	@ -fleading-underscore -flifetime-dse -flto-odr-type-merging -fmath-errno
  39              	@ -fmerge-debug-strings -fpeephole -fprefetch-loop-arrays
  40              	@ -freg-struct-return -fsched-critical-path-heuristic
  41              	@ -fsched-dep-count-heuristic -fsched-group-heuristic -fsched-interblock
  42              	@ -fsched-last-insn-heuristic -fsched-rank-heuristic -fsched-spec
  43              	@ -fsched-spec-insn-heuristic -fsched-stalled-insns-dep
  44              	@ -fsemantic-interposition -fshow-column -fsigned-zeros
  45              	@ -fsplit-ivs-in-unroller -fstdarg-opt -fstrict-volatile-bitfields
  46              	@ -fsync-libcalls -ftrapping-math -ftree-coalesce-vars -ftree-cselim
  47              	@ -ftree-forwprop -ftree-loop-if-convert -ftree-loop-im -ftree-loop-ivcanon
  48              	@ -ftree-loop-optimize -ftree-parallelize-loops= -ftree-phiprop
  49              	@ -ftree-reassoc -ftree-scev-cprop -funit-at-a-time -fverbose-asm
  50              	@ -fzero-initialized-in-bss -masm-syntax-unified -mfix-cortex-m3-ldrd
  51              	@ -mlittle-endian -mpic-data-is-text-relative -msched-prolog -mthumb
  52              	@ -munaligned-access -mvectorize-with-neon-quad
  53              	
  54              		.text
  55              	.Ltext0:
  56              		.cfi_sections	.debug_frame
  57              		.global	uartCbsDat
ARM GAS  C:\Users\STUDENT\AppData\Local\Temp\ccMxouBa.s 			page 2


  58              		.section	.bss.uartCbsDat,"aw",%nobits
  59              		.align	2
  60              		.type	uartCbsDat, %object
  61              		.size	uartCbsDat, 64
  62              	uartCbsDat:
  63 0000 00000000 		.space	64
  63      00000000 
  63      00000000 
  63      00000000 
  63      00000000 
  64              		.global	pfnModemCbs
  65              		.section	.bss.pfnModemCbs,"aw",%nobits
  66              		.align	2
  67              		.type	pfnModemCbs, %object
  68              		.size	pfnModemCbs, 4
  69              	pfnModemCbs:
  70 0000 00000000 		.space	4
  71              		.section	.text.getUartNum,"ax",%progbits
  72              		.align	2
  73              		.global	getUartNum
  74              		.thumb
  75              		.thumb_func
  76              		.type	getUartNum, %function
  77              	getUartNum:
  78              	.LFB55:
  79              		.file 1 "core/lpc17xx_uart.c"
   1:core/lpc17xx_uart.c **** /**
   2:core/lpc17xx_uart.c ****  * @file	: lpc17xx_uart.c
   3:core/lpc17xx_uart.c ****  * @brief	: Contains all functions support for UART firmware library on LPC17xx
   4:core/lpc17xx_uart.c ****  * @version	: 1.0
   5:core/lpc17xx_uart.c ****  * @date	: 18. Mar. 2009
   6:core/lpc17xx_uart.c ****  * @author	: HieuNguyen
   7:core/lpc17xx_uart.c ****  **************************************************************************
   8:core/lpc17xx_uart.c ****  * Software that is described herein is for illustrative purposes only
   9:core/lpc17xx_uart.c ****  * which provides customers with programming information regarding the
  10:core/lpc17xx_uart.c ****  * products. This software is supplied "AS IS" without any warranties.
  11:core/lpc17xx_uart.c ****  * NXP Semiconductors assumes no responsibility or liability for the
  12:core/lpc17xx_uart.c ****  * use of the software, conveys no license or title under any patent,
  13:core/lpc17xx_uart.c ****  * copyright, or mask work right to the product. NXP Semiconductors
  14:core/lpc17xx_uart.c ****  * reserves the right to make changes in the software without
  15:core/lpc17xx_uart.c ****  * notification. NXP Semiconductors also make no representation or
  16:core/lpc17xx_uart.c ****  * warranty that such application will be suitable for the specified
  17:core/lpc17xx_uart.c ****  * use without further testing or modification.
  18:core/lpc17xx_uart.c ****  **********************************************************************/
  19:core/lpc17xx_uart.c **** 
  20:core/lpc17xx_uart.c **** /* Peripheral group ----------------------------------------------------------- */
  21:core/lpc17xx_uart.c **** /** @addtogroup UART
  22:core/lpc17xx_uart.c ****  * @{
  23:core/lpc17xx_uart.c ****  */
  24:core/lpc17xx_uart.c **** 
  25:core/lpc17xx_uart.c **** /* Includes ------------------------------------------------------------------- */
  26:core/lpc17xx_uart.c **** #include "lpc17xx_uart.h"
  27:core/lpc17xx_uart.c **** #include "lpc17xx_clkpwr.h"
  28:core/lpc17xx_uart.c **** 
  29:core/lpc17xx_uart.c **** /* If this source file built with example, the LPC17xx FW library configuration
  30:core/lpc17xx_uart.c ****  * file in each example directory ("lpc17xx_libcfg.h") must be included,
  31:core/lpc17xx_uart.c ****  * otherwise the default FW library configuration file must be included instead
ARM GAS  C:\Users\STUDENT\AppData\Local\Temp\ccMxouBa.s 			page 3


  32:core/lpc17xx_uart.c ****  */
  33:core/lpc17xx_uart.c **** #ifdef __BUILD_WITH_EXAMPLE__
  34:core/lpc17xx_uart.c **** #include "lpc17xx_libcfg.h"
  35:core/lpc17xx_uart.c **** #else
  36:core/lpc17xx_uart.c **** #include "lpc17xx_libcfg_default.h"
  37:core/lpc17xx_uart.c **** #endif /* __BUILD_WITH_EXAMPLE__ */
  38:core/lpc17xx_uart.c **** 
  39:core/lpc17xx_uart.c **** 
  40:core/lpc17xx_uart.c **** #ifdef _UART
  41:core/lpc17xx_uart.c **** 
  42:core/lpc17xx_uart.c **** /* Private Types -------------------------------------------------------------- */
  43:core/lpc17xx_uart.c **** /** @defgroup UART_Private_Types
  44:core/lpc17xx_uart.c ****  * @{
  45:core/lpc17xx_uart.c ****  */
  46:core/lpc17xx_uart.c **** 
  47:core/lpc17xx_uart.c **** /**
  48:core/lpc17xx_uart.c ****  * @brief UART call-back function type definitions
  49:core/lpc17xx_uart.c ****  */
  50:core/lpc17xx_uart.c **** typedef struct {
  51:core/lpc17xx_uart.c **** 	fnTxCbs_Type *pfnTxCbs; 	// Transmit callback
  52:core/lpc17xx_uart.c **** 	fnRxCbs_Type *pfnRxCbs;		// Receive callback
  53:core/lpc17xx_uart.c **** 	fnABCbs_Type *pfnABCbs;		// Auto-Baudrate callback
  54:core/lpc17xx_uart.c **** 	fnErrCbs_Type *pfnErrCbs;	// Error callback
  55:core/lpc17xx_uart.c **** } UART_CBS_Type;
  56:core/lpc17xx_uart.c **** 
  57:core/lpc17xx_uart.c **** /**
  58:core/lpc17xx_uart.c ****  * @}
  59:core/lpc17xx_uart.c ****  */
  60:core/lpc17xx_uart.c **** 
  61:core/lpc17xx_uart.c **** 
  62:core/lpc17xx_uart.c **** /* Private Variables ---------------------------------------------------------- */
  63:core/lpc17xx_uart.c **** /** @defgroup UART_Private_Variables
  64:core/lpc17xx_uart.c ****  * @{
  65:core/lpc17xx_uart.c ****  */
  66:core/lpc17xx_uart.c **** 
  67:core/lpc17xx_uart.c **** 
  68:core/lpc17xx_uart.c **** /** Call-back function pointer data */
  69:core/lpc17xx_uart.c **** UART_CBS_Type uartCbsDat[4] = {
  70:core/lpc17xx_uart.c **** 		{NULL, NULL, NULL, NULL},
  71:core/lpc17xx_uart.c **** 		{NULL, NULL, NULL, NULL},
  72:core/lpc17xx_uart.c **** 		{NULL, NULL, NULL, NULL},
  73:core/lpc17xx_uart.c **** 		{NULL, NULL, NULL, NULL},
  74:core/lpc17xx_uart.c **** };
  75:core/lpc17xx_uart.c **** 
  76:core/lpc17xx_uart.c **** /** UART1 modem status interrupt callback pointer data */
  77:core/lpc17xx_uart.c **** fnModemCbs_Type *pfnModemCbs = NULL;
  78:core/lpc17xx_uart.c **** 
  79:core/lpc17xx_uart.c **** /**
  80:core/lpc17xx_uart.c ****  * @}
  81:core/lpc17xx_uart.c ****  */
  82:core/lpc17xx_uart.c **** 
  83:core/lpc17xx_uart.c **** 
  84:core/lpc17xx_uart.c **** /* Private Functions ---------------------------------------------------------- */
  85:core/lpc17xx_uart.c **** /** @defgroup UART_Private_Functions
  86:core/lpc17xx_uart.c ****  * @{
  87:core/lpc17xx_uart.c ****  */
  88:core/lpc17xx_uart.c **** 
ARM GAS  C:\Users\STUDENT\AppData\Local\Temp\ccMxouBa.s 			page 4


  89:core/lpc17xx_uart.c **** /**
  90:core/lpc17xx_uart.c ****  * @brief		Get UART number due to UART peripheral pointer
  91:core/lpc17xx_uart.c ****  * @param[in]	UARTx	UART pointer
  92:core/lpc17xx_uart.c ****  * @return		UART number
  93:core/lpc17xx_uart.c ****  */
  94:core/lpc17xx_uart.c **** uint8_t getUartNum(LPC_UART_TypeDef *UARTx) {
  80              		.loc 1 94 0
  81              		.cfi_startproc
  82              		@ args = 0, pretend = 0, frame = 8
  83              		@ frame_needed = 1, uses_anonymous_args = 0
  84              		@ link register save eliminated.
  85 0000 80B4     		push	{r7}	@
  86              		.cfi_def_cfa_offset 4
  87              		.cfi_offset 7, -4
  88 0002 83B0     		sub	sp, sp, #12	@,,
  89              		.cfi_def_cfa_offset 16
  90 0004 00AF     		add	r7, sp, #0	@,,
  91              		.cfi_def_cfa_register 7
  92 0006 7860     		str	r0, [r7, #4]	@ UARTx, UARTx
  95:core/lpc17xx_uart.c **** 	if (UARTx == (LPC_UART_TypeDef*)LPC_UART0) return (0);
  93              		.loc 1 95 0
  94 0008 7B68     		ldr	r3, [r7, #4]	@ tmp112, UARTx
  95 000a 0B4A     		ldr	r2, .L6	@ tmp113,
  96 000c 9342     		cmp	r3, r2	@ tmp112, tmp113
  97 000e 01D1     		bne	.L2	@,
  98              		.loc 1 95 0 is_stmt 0 discriminator 1
  99 0010 0023     		movs	r3, #0	@ D.6693,
 100 0012 0CE0     		b	.L3	@
 101              	.L2:
  96:core/lpc17xx_uart.c **** 	else if (UARTx == (LPC_UART_TypeDef *)LPC_UART1) return (1);
 102              		.loc 1 96 0 is_stmt 1
 103 0014 7B68     		ldr	r3, [r7, #4]	@ tmp114, UARTx
 104 0016 094A     		ldr	r2, .L6+4	@ tmp115,
 105 0018 9342     		cmp	r3, r2	@ tmp114, tmp115
 106 001a 01D1     		bne	.L4	@,
 107              		.loc 1 96 0 is_stmt 0 discriminator 1
 108 001c 0123     		movs	r3, #1	@ D.6693,
 109 001e 06E0     		b	.L3	@
 110              	.L4:
  97:core/lpc17xx_uart.c **** 	else if (UARTx == LPC_UART2) return (2);
 111              		.loc 1 97 0 is_stmt 1
 112 0020 7B68     		ldr	r3, [r7, #4]	@ tmp116, UARTx
 113 0022 074A     		ldr	r2, .L6+8	@ tmp117,
 114 0024 9342     		cmp	r3, r2	@ tmp116, tmp117
 115 0026 01D1     		bne	.L5	@,
 116              		.loc 1 97 0 is_stmt 0 discriminator 1
 117 0028 0223     		movs	r3, #2	@ D.6693,
 118 002a 00E0     		b	.L3	@
 119              	.L5:
  98:core/lpc17xx_uart.c **** 	else return (3);
 120              		.loc 1 98 0 is_stmt 1
 121 002c 0323     		movs	r3, #3	@ D.6693,
 122              	.L3:
  99:core/lpc17xx_uart.c **** }
 123              		.loc 1 99 0
 124 002e 1846     		mov	r0, r3	@, <retval>
 125 0030 0C37     		adds	r7, r7, #12	@,,
ARM GAS  C:\Users\STUDENT\AppData\Local\Temp\ccMxouBa.s 			page 5


 126              		.cfi_def_cfa_offset 4
 127 0032 BD46     		mov	sp, r7	@,
 128              		.cfi_def_cfa_register 13
 129              		@ sp needed	@
 130 0034 80BC     		pop	{r7}	@
 131              		.cfi_restore 7
 132              		.cfi_def_cfa_offset 0
 133 0036 7047     		bx	lr	@
 134              	.L7:
 135              		.align	2
 136              	.L6:
 137 0038 00C00040 		.word	1073790976
 138 003c 00000140 		.word	1073807360
 139 0040 00800940 		.word	1074364416
 140              		.cfi_endproc
 141              	.LFE55:
 142              		.size	getUartNum, .-getUartNum
 143              		.section	.text.uart_set_divisors,"ax",%progbits
 144              		.align	2
 145              		.global	uart_set_divisors
 146              		.thumb
 147              		.thumb_func
 148              		.type	uart_set_divisors, %function
 149              	uart_set_divisors:
 150              	.LFB56:
 100:core/lpc17xx_uart.c **** 
 101:core/lpc17xx_uart.c **** /*********************************************************************//**
 102:core/lpc17xx_uart.c ****  * @brief		Determines best dividers to get a target clock rate
 103:core/lpc17xx_uart.c ****  * @param[in]	UARTx	Pointer to selected UART peripheral, should be
 104:core/lpc17xx_uart.c ****  * 						UART0, UART1, UART2 or UART3.
 105:core/lpc17xx_uart.c ****  * @param[in]	baudrate Desired UART baud rate.
 106:core/lpc17xx_uart.c ****  * @return 		Error status.
 107:core/lpc17xx_uart.c ****  **********************************************************************/
 108:core/lpc17xx_uart.c **** 
 109:core/lpc17xx_uart.c **** Status uart_set_divisors(LPC_UART_TypeDef *UARTx, uint32_t baudrate)
 110:core/lpc17xx_uart.c **** {
 151              		.loc 1 110 0
 152              		.cfi_startproc
 153              		@ args = 0, pretend = 0, frame = 56
 154              		@ frame_needed = 1, uses_anonymous_args = 0
 155 0000 80B5     		push	{r7, lr}	@
 156              		.cfi_def_cfa_offset 8
 157              		.cfi_offset 7, -8
 158              		.cfi_offset 14, -4
 159 0002 8EB0     		sub	sp, sp, #56	@,,
 160              		.cfi_def_cfa_offset 64
 161 0004 00AF     		add	r7, sp, #0	@,,
 162              		.cfi_def_cfa_register 7
 163 0006 7860     		str	r0, [r7, #4]	@ UARTx, UARTx
 164 0008 3960     		str	r1, [r7]	@ baudrate, baudrate
 111:core/lpc17xx_uart.c **** 	Status errorStatus = ERROR;
 165              		.loc 1 111 0
 166 000a 0023     		movs	r3, #0	@ tmp142,
 167 000c 87F83730 		strb	r3, [r7, #55]	@ tmp143, errorStatus
 112:core/lpc17xx_uart.c **** 
 113:core/lpc17xx_uart.c **** 	uint32_t uClk;
 114:core/lpc17xx_uart.c **** 	uint32_t calcBaudrate = 0;
ARM GAS  C:\Users\STUDENT\AppData\Local\Temp\ccMxouBa.s 			page 6


 168              		.loc 1 114 0
 169 0010 0023     		movs	r3, #0	@ tmp144,
 170 0012 FB60     		str	r3, [r7, #12]	@ tmp144, calcBaudrate
 115:core/lpc17xx_uart.c **** 	uint32_t temp = 0;
 171              		.loc 1 115 0
 172 0014 0023     		movs	r3, #0	@ tmp145,
 173 0016 BB60     		str	r3, [r7, #8]	@ tmp145, temp
 116:core/lpc17xx_uart.c **** 
 117:core/lpc17xx_uart.c **** 	uint32_t mulFracDiv, dividerAddFracDiv;
 118:core/lpc17xx_uart.c **** 	uint32_t diviser = 0 ;
 174              		.loc 1 118 0
 175 0018 0023     		movs	r3, #0	@ tmp146,
 176 001a 7B62     		str	r3, [r7, #36]	@ tmp146, diviser
 119:core/lpc17xx_uart.c **** 	uint32_t mulFracDivOptimal = 1;
 177              		.loc 1 119 0
 178 001c 0123     		movs	r3, #1	@ tmp147,
 179 001e 3B62     		str	r3, [r7, #32]	@ tmp147, mulFracDivOptimal
 120:core/lpc17xx_uart.c **** 	uint32_t dividerAddOptimal = 0;
 180              		.loc 1 120 0
 181 0020 0023     		movs	r3, #0	@ tmp148,
 182 0022 FB61     		str	r3, [r7, #28]	@ tmp148, dividerAddOptimal
 121:core/lpc17xx_uart.c **** 	uint32_t diviserOptimal = 0;
 183              		.loc 1 121 0
 184 0024 0023     		movs	r3, #0	@ tmp149,
 185 0026 BB61     		str	r3, [r7, #24]	@ tmp149, diviserOptimal
 122:core/lpc17xx_uart.c **** 
 123:core/lpc17xx_uart.c **** 	uint32_t relativeError = 0;
 186              		.loc 1 123 0
 187 0028 0023     		movs	r3, #0	@ tmp150,
 188 002a 7B61     		str	r3, [r7, #20]	@ tmp150, relativeError
 124:core/lpc17xx_uart.c **** 	uint32_t relativeOptimalError = 100000;
 189              		.loc 1 124 0
 190 002c 744B     		ldr	r3, .L30	@ tmp151,
 191 002e 3B61     		str	r3, [r7, #16]	@ tmp151, relativeOptimalError
 125:core/lpc17xx_uart.c **** 
 126:core/lpc17xx_uart.c **** 	/* get UART block clock */
 127:core/lpc17xx_uart.c **** 	if (UARTx == (LPC_UART_TypeDef*) LPC_UART0)
 192              		.loc 1 127 0
 193 0030 7B68     		ldr	r3, [r7, #4]	@ tmp152, UARTx
 194 0032 744A     		ldr	r2, .L30+4	@ tmp153,
 195 0034 9342     		cmp	r3, r2	@ tmp152, tmp153
 196 0036 04D1     		bne	.L9	@,
 128:core/lpc17xx_uart.c **** 	{
 129:core/lpc17xx_uart.c **** 		uClk = CLKPWR_GetPCLK (CLKPWR_PCLKSEL_UART0);
 197              		.loc 1 129 0
 198 0038 0620     		movs	r0, #6	@,
 199 003a FFF7FEFF 		bl	CLKPWR_GetPCLK	@
 200 003e 3863     		str	r0, [r7, #48]	@, uClk
 201 0040 19E0     		b	.L10	@
 202              	.L9:
 130:core/lpc17xx_uart.c **** 	}
 131:core/lpc17xx_uart.c **** 	else if (UARTx == (LPC_UART_TypeDef *)LPC_UART1)
 203              		.loc 1 131 0
 204 0042 7B68     		ldr	r3, [r7, #4]	@ tmp154, UARTx
 205 0044 704A     		ldr	r2, .L30+8	@ tmp155,
 206 0046 9342     		cmp	r3, r2	@ tmp154, tmp155
 207 0048 04D1     		bne	.L11	@,
ARM GAS  C:\Users\STUDENT\AppData\Local\Temp\ccMxouBa.s 			page 7


 132:core/lpc17xx_uart.c **** 	{
 133:core/lpc17xx_uart.c **** 		uClk = CLKPWR_GetPCLK (CLKPWR_PCLKSEL_UART1);
 208              		.loc 1 133 0
 209 004a 0820     		movs	r0, #8	@,
 210 004c FFF7FEFF 		bl	CLKPWR_GetPCLK	@
 211 0050 3863     		str	r0, [r7, #48]	@, uClk
 212 0052 10E0     		b	.L10	@
 213              	.L11:
 134:core/lpc17xx_uart.c **** 	}
 135:core/lpc17xx_uart.c **** 	else if (UARTx == LPC_UART2)
 214              		.loc 1 135 0
 215 0054 7B68     		ldr	r3, [r7, #4]	@ tmp156, UARTx
 216 0056 6D4A     		ldr	r2, .L30+12	@ tmp157,
 217 0058 9342     		cmp	r3, r2	@ tmp156, tmp157
 218 005a 04D1     		bne	.L12	@,
 136:core/lpc17xx_uart.c **** 	{
 137:core/lpc17xx_uart.c **** 		uClk = CLKPWR_GetPCLK (CLKPWR_PCLKSEL_UART2);
 219              		.loc 1 137 0
 220 005c 3020     		movs	r0, #48	@,
 221 005e FFF7FEFF 		bl	CLKPWR_GetPCLK	@
 222 0062 3863     		str	r0, [r7, #48]	@, uClk
 223 0064 07E0     		b	.L10	@
 224              	.L12:
 138:core/lpc17xx_uart.c **** 	}
 139:core/lpc17xx_uart.c **** 	else if (UARTx == LPC_UART3)
 225              		.loc 1 139 0
 226 0066 7B68     		ldr	r3, [r7, #4]	@ tmp158, UARTx
 227 0068 694A     		ldr	r2, .L30+16	@ tmp159,
 228 006a 9342     		cmp	r3, r2	@ tmp158, tmp159
 229 006c 03D1     		bne	.L10	@,
 140:core/lpc17xx_uart.c **** 	{
 141:core/lpc17xx_uart.c **** 		uClk = CLKPWR_GetPCLK (CLKPWR_PCLKSEL_UART3);
 230              		.loc 1 141 0
 231 006e 3220     		movs	r0, #50	@,
 232 0070 FFF7FEFF 		bl	CLKPWR_GetPCLK	@
 233 0074 3863     		str	r0, [r7, #48]	@, uClk
 234              	.L10:
 142:core/lpc17xx_uart.c **** 	}
 143:core/lpc17xx_uart.c **** 
 144:core/lpc17xx_uart.c **** 
 145:core/lpc17xx_uart.c **** 	uClk = uClk >> 4; /* div by 16 */
 235              		.loc 1 145 0
 236 0076 3B6B     		ldr	r3, [r7, #48]	@ tmp161, uClk
 237 0078 1B09     		lsrs	r3, r3, #4	@ tmp160, tmp161,
 238 007a 3B63     		str	r3, [r7, #48]	@ tmp160, uClk
 146:core/lpc17xx_uart.c **** 	/* In the Uart IP block, baud rate is calculated using FDR and DLL-DLM registers
 147:core/lpc17xx_uart.c **** 	* The formula is :
 148:core/lpc17xx_uart.c **** 	* BaudRate= uClk * (mulFracDiv/(mulFracDiv+dividerAddFracDiv) / (16 * (DLL)
 149:core/lpc17xx_uart.c **** 	* It involves floating point calculations. That's the reason the formulae are adjusted with
 150:core/lpc17xx_uart.c **** 	* Multiply and divide method.*/
 151:core/lpc17xx_uart.c **** 	/* The value of mulFracDiv and dividerAddFracDiv should comply to the following expressions:
 152:core/lpc17xx_uart.c **** 	* 0 < mulFracDiv <= 15, 0 <= dividerAddFracDiv <= 15 */
 153:core/lpc17xx_uart.c **** 	for (mulFracDiv = 1 ; mulFracDiv <= 15 ;mulFracDiv++)
 239              		.loc 1 153 0
 240 007c 0123     		movs	r3, #1	@ tmp162,
 241 007e FB62     		str	r3, [r7, #44]	@ tmp162, mulFracDiv
 242 0080 56E0     		b	.L13	@
ARM GAS  C:\Users\STUDENT\AppData\Local\Temp\ccMxouBa.s 			page 8


 243              	.L23:
 154:core/lpc17xx_uart.c **** 	{
 155:core/lpc17xx_uart.c **** 	for (dividerAddFracDiv = 0 ; dividerAddFracDiv <= 15 ;dividerAddFracDiv++)
 244              		.loc 1 155 0
 245 0082 0023     		movs	r3, #0	@ tmp163,
 246 0084 BB62     		str	r3, [r7, #40]	@ tmp163, dividerAddFracDiv
 247 0086 48E0     		b	.L14	@
 248              	.L20:
 156:core/lpc17xx_uart.c **** 	{
 157:core/lpc17xx_uart.c **** 	  temp = (mulFracDiv * uClk) / ((mulFracDiv + dividerAddFracDiv));
 249              		.loc 1 157 0
 250 0088 FB6A     		ldr	r3, [r7, #44]	@ tmp164, mulFracDiv
 251 008a 3A6B     		ldr	r2, [r7, #48]	@ tmp165, uClk
 252 008c 02FB03F2 		mul	r2, r2, r3	@ D.6694, tmp165, tmp164
 253 0090 F96A     		ldr	r1, [r7, #44]	@ tmp166, mulFracDiv
 254 0092 BB6A     		ldr	r3, [r7, #40]	@ tmp167, dividerAddFracDiv
 255 0094 0B44     		add	r3, r3, r1	@ D.6694, tmp166
 256 0096 B2FBF3F3 		udiv	r3, r2, r3	@ tmp168, D.6694, D.6694
 257 009a BB60     		str	r3, [r7, #8]	@ tmp168, temp
 158:core/lpc17xx_uart.c **** 
 159:core/lpc17xx_uart.c **** 	  diviser = temp / baudrate;
 258              		.loc 1 159 0
 259 009c BA68     		ldr	r2, [r7, #8]	@ tmp171, temp
 260 009e 3B68     		ldr	r3, [r7]	@ tmp172, baudrate
 261 00a0 B2FBF3F3 		udiv	r3, r2, r3	@ tmp170, tmp171, tmp172
 262 00a4 7B62     		str	r3, [r7, #36]	@ tmp170, diviser
 160:core/lpc17xx_uart.c **** 	  if ((temp % baudrate) > (baudrate / 2))
 263              		.loc 1 160 0
 264 00a6 BB68     		ldr	r3, [r7, #8]	@ tmp173, temp
 265 00a8 3A68     		ldr	r2, [r7]	@ tmp177, baudrate
 266 00aa B3FBF2F2 		udiv	r2, r3, r2	@ tmp176, tmp173, tmp177
 267 00ae 3968     		ldr	r1, [r7]	@ tmp179, baudrate
 268 00b0 01FB02F2 		mul	r2, r1, r2	@ tmp178, tmp179, tmp176
 269 00b4 9A1A     		subs	r2, r3, r2	@ D.6694, tmp173, tmp178
 270 00b6 3B68     		ldr	r3, [r7]	@ tmp180, baudrate
 271 00b8 5B08     		lsrs	r3, r3, #1	@ D.6694, tmp180,
 272 00ba 9A42     		cmp	r2, r3	@ D.6694, D.6694
 273 00bc 02D9     		bls	.L15	@,
 161:core/lpc17xx_uart.c **** 		diviser++;
 274              		.loc 1 161 0
 275 00be 7B6A     		ldr	r3, [r7, #36]	@ tmp182, diviser
 276 00c0 0133     		adds	r3, r3, #1	@ tmp181, tmp182,
 277 00c2 7B62     		str	r3, [r7, #36]	@ tmp181, diviser
 278              	.L15:
 162:core/lpc17xx_uart.c **** 
 163:core/lpc17xx_uart.c **** 	  if (diviser > 2 && diviser < 65536)
 279              		.loc 1 163 0
 280 00c4 7B6A     		ldr	r3, [r7, #36]	@ tmp183, diviser
 281 00c6 022B     		cmp	r3, #2	@ tmp183,
 282 00c8 24D9     		bls	.L16	@,
 283              		.loc 1 163 0 is_stmt 0 discriminator 1
 284 00ca 7B6A     		ldr	r3, [r7, #36]	@ tmp184, diviser
 285 00cc B3F5803F 		cmp	r3, #65536	@ tmp184,
 286 00d0 20D2     		bcs	.L16	@,
 164:core/lpc17xx_uart.c **** 	  {
 165:core/lpc17xx_uart.c **** 		calcBaudrate = temp / diviser;
 287              		.loc 1 165 0 is_stmt 1
ARM GAS  C:\Users\STUDENT\AppData\Local\Temp\ccMxouBa.s 			page 9


 288 00d2 BA68     		ldr	r2, [r7, #8]	@ tmp187, temp
 289 00d4 7B6A     		ldr	r3, [r7, #36]	@ tmp188, diviser
 290 00d6 B2FBF3F3 		udiv	r3, r2, r3	@ tmp186, tmp187, tmp188
 291 00da FB60     		str	r3, [r7, #12]	@ tmp186, calcBaudrate
 166:core/lpc17xx_uart.c **** 
 167:core/lpc17xx_uart.c **** 		if (calcBaudrate <= baudrate)
 292              		.loc 1 167 0
 293 00dc FA68     		ldr	r2, [r7, #12]	@ tmp189, calcBaudrate
 294 00de 3B68     		ldr	r3, [r7]	@ tmp190, baudrate
 295 00e0 9A42     		cmp	r2, r3	@ tmp189, tmp190
 296 00e2 04D8     		bhi	.L17	@,
 168:core/lpc17xx_uart.c **** 		  relativeError = baudrate - calcBaudrate;
 297              		.loc 1 168 0
 298 00e4 3A68     		ldr	r2, [r7]	@ tmp192, baudrate
 299 00e6 FB68     		ldr	r3, [r7, #12]	@ tmp193, calcBaudrate
 300 00e8 D31A     		subs	r3, r2, r3	@ tmp191, tmp192, tmp193
 301 00ea 7B61     		str	r3, [r7, #20]	@ tmp191, relativeError
 302 00ec 03E0     		b	.L18	@
 303              	.L17:
 169:core/lpc17xx_uart.c **** 		else
 170:core/lpc17xx_uart.c **** 		  relativeError = calcBaudrate - baudrate;
 304              		.loc 1 170 0
 305 00ee FA68     		ldr	r2, [r7, #12]	@ tmp195, calcBaudrate
 306 00f0 3B68     		ldr	r3, [r7]	@ tmp196, baudrate
 307 00f2 D31A     		subs	r3, r2, r3	@ tmp194, tmp195, tmp196
 308 00f4 7B61     		str	r3, [r7, #20]	@ tmp194, relativeError
 309              	.L18:
 171:core/lpc17xx_uart.c **** 
 172:core/lpc17xx_uart.c **** 		if ((relativeError < relativeOptimalError))
 310              		.loc 1 172 0
 311 00f6 7A69     		ldr	r2, [r7, #20]	@ tmp197, relativeError
 312 00f8 3B69     		ldr	r3, [r7, #16]	@ tmp198, relativeOptimalError
 313 00fa 9A42     		cmp	r2, r3	@ tmp197, tmp198
 314 00fc 0AD2     		bcs	.L16	@,
 173:core/lpc17xx_uart.c **** 		{
 174:core/lpc17xx_uart.c **** 		  mulFracDivOptimal = mulFracDiv ;
 315              		.loc 1 174 0
 316 00fe FB6A     		ldr	r3, [r7, #44]	@ tmp199, mulFracDiv
 317 0100 3B62     		str	r3, [r7, #32]	@ tmp199, mulFracDivOptimal
 175:core/lpc17xx_uart.c **** 		  dividerAddOptimal = dividerAddFracDiv;
 318              		.loc 1 175 0
 319 0102 BB6A     		ldr	r3, [r7, #40]	@ tmp200, dividerAddFracDiv
 320 0104 FB61     		str	r3, [r7, #28]	@ tmp200, dividerAddOptimal
 176:core/lpc17xx_uart.c **** 		  diviserOptimal = diviser;
 321              		.loc 1 176 0
 322 0106 7B6A     		ldr	r3, [r7, #36]	@ tmp201, diviser
 323 0108 BB61     		str	r3, [r7, #24]	@ tmp201, diviserOptimal
 177:core/lpc17xx_uart.c **** 		  relativeOptimalError = relativeError;
 324              		.loc 1 177 0
 325 010a 7B69     		ldr	r3, [r7, #20]	@ tmp202, relativeError
 326 010c 3B61     		str	r3, [r7, #16]	@ tmp202, relativeOptimalError
 178:core/lpc17xx_uart.c **** 		  if (relativeError == 0)
 327              		.loc 1 178 0
 328 010e 7B69     		ldr	r3, [r7, #20]	@ tmp203, relativeError
 329 0110 002B     		cmp	r3, #0	@ tmp203,
 330 0112 06D0     		beq	.L28	@,
 331              	.L16:
ARM GAS  C:\Users\STUDENT\AppData\Local\Temp\ccMxouBa.s 			page 10


 155:core/lpc17xx_uart.c **** 	{
 332              		.loc 1 155 0 discriminator 2
 333 0114 BB6A     		ldr	r3, [r7, #40]	@ tmp205, dividerAddFracDiv
 334 0116 0133     		adds	r3, r3, #1	@ tmp204, tmp205,
 335 0118 BB62     		str	r3, [r7, #40]	@ tmp204, dividerAddFracDiv
 336              	.L14:
 155:core/lpc17xx_uart.c **** 	{
 337              		.loc 1 155 0 is_stmt 0 discriminator 1
 338 011a BB6A     		ldr	r3, [r7, #40]	@ tmp206, dividerAddFracDiv
 339 011c 0F2B     		cmp	r3, #15	@ tmp206,
 340 011e B3D9     		bls	.L20	@,
 341 0120 00E0     		b	.L19	@
 342              	.L28:
 179:core/lpc17xx_uart.c **** 			break;
 343              		.loc 1 179 0 is_stmt 1
 344 0122 00BF     		nop
 345              	.L19:
 180:core/lpc17xx_uart.c **** 		}
 181:core/lpc17xx_uart.c **** 	  } /* End of if */
 182:core/lpc17xx_uart.c **** 	} /* end of inner for loop */
 183:core/lpc17xx_uart.c **** 	if (relativeError == 0)
 346              		.loc 1 183 0
 347 0124 7B69     		ldr	r3, [r7, #20]	@ tmp207, relativeError
 348 0126 002B     		cmp	r3, #0	@ tmp207,
 349 0128 06D0     		beq	.L29	@,
 153:core/lpc17xx_uart.c **** 	{
 350              		.loc 1 153 0 discriminator 2
 351 012a FB6A     		ldr	r3, [r7, #44]	@ tmp209, mulFracDiv
 352 012c 0133     		adds	r3, r3, #1	@ tmp208, tmp209,
 353 012e FB62     		str	r3, [r7, #44]	@ tmp208, mulFracDiv
 354              	.L13:
 153:core/lpc17xx_uart.c **** 	{
 355              		.loc 1 153 0 is_stmt 0 discriminator 1
 356 0130 FB6A     		ldr	r3, [r7, #44]	@ tmp210, mulFracDiv
 357 0132 0F2B     		cmp	r3, #15	@ tmp210,
 358 0134 A5D9     		bls	.L23	@,
 359 0136 00E0     		b	.L22	@
 360              	.L29:
 184:core/lpc17xx_uart.c **** 	  break;
 361              		.loc 1 184 0 is_stmt 1
 362 0138 00BF     		nop
 363              	.L22:
 185:core/lpc17xx_uart.c **** 	} /* end of outer for loop  */
 186:core/lpc17xx_uart.c **** 
 187:core/lpc17xx_uart.c **** 	if (relativeOptimalError < ((baudrate * UART_ACCEPTED_BAUDRATE_ERROR)/100))
 364              		.loc 1 187 0
 365 013a 3A68     		ldr	r2, [r7]	@ tmp211, baudrate
 366 013c 1346     		mov	r3, r2	@ tmp212, tmp211
 367 013e 5B00     		lsls	r3, r3, #1	@ tmp212, tmp212,
 368 0140 1344     		add	r3, r3, r2	@ D.6694, tmp211
 369 0142 344A     		ldr	r2, .L30+20	@ tmp214,
 370 0144 A2FB0323 		umull	r2, r3, r2, r3	@ tmp267, tmp213, tmp214, D.6694
 371 0148 5A09     		lsrs	r2, r3, #5	@ D.6694, tmp213,
 372 014a 3B69     		ldr	r3, [r7, #16]	@ tmp215, relativeOptimalError
 373 014c 9A42     		cmp	r2, r3	@ D.6694, tmp215
 374 014e 51D9     		bls	.L24	@,
 188:core/lpc17xx_uart.c **** 	{
ARM GAS  C:\Users\STUDENT\AppData\Local\Temp\ccMxouBa.s 			page 11


 189:core/lpc17xx_uart.c **** 		if (((LPC_UART1_TypeDef *)UARTx) == LPC_UART1)
 375              		.loc 1 189 0
 376 0150 7B68     		ldr	r3, [r7, #4]	@ tmp216, UARTx
 377 0152 2D4A     		ldr	r2, .L30+8	@ tmp217,
 378 0154 9342     		cmp	r3, r2	@ tmp216, tmp217
 379 0156 23D1     		bne	.L25	@,
 190:core/lpc17xx_uart.c **** 		{
 191:core/lpc17xx_uart.c **** 			((LPC_UART1_TypeDef *)UARTx)->LCR |= UART_LCR_DLAB_EN;
 380              		.loc 1 191 0
 381 0158 7B68     		ldr	r3, [r7, #4]	@ tmp218, UARTx
 382 015a 1B7B     		ldrb	r3, [r3, #12]	@ tmp220, MEM[(struct LPC_UART1_TypeDef *)UARTx_43(D)].LCR
 383 015c DBB2     		uxtb	r3, r3	@ D.6695, tmp220
 384 015e 63F07F03 		orn	r3, r3, #127	@ tmp221, D.6695,
 385 0162 DAB2     		uxtb	r2, r3	@ D.6695, tmp221
 386 0164 7B68     		ldr	r3, [r7, #4]	@ tmp222, UARTx
 387 0166 1A73     		strb	r2, [r3, #12]	@ tmp223, MEM[(struct LPC_UART1_TypeDef *)UARTx_43(D)].LCR
 192:core/lpc17xx_uart.c **** 			((LPC_UART1_TypeDef *)UARTx)->/*DLIER.*/DLM = UART_LOAD_DLM(diviserOptimal);
 388              		.loc 1 192 0
 389 0168 BB69     		ldr	r3, [r7, #24]	@ tmp224, diviserOptimal
 390 016a 1B0A     		lsrs	r3, r3, #8	@ D.6694, tmp224,
 391 016c DAB2     		uxtb	r2, r3	@ D.6695, D.6694
 392 016e 7B68     		ldr	r3, [r7, #4]	@ tmp225, UARTx
 393 0170 1A71     		strb	r2, [r3, #4]	@ tmp226, MEM[(struct LPC_UART1_TypeDef *)UARTx_43(D)].D.4875.DLM
 193:core/lpc17xx_uart.c **** 			((LPC_UART1_TypeDef *)UARTx)->/*RBTHDLR.*/DLL = UART_LOAD_DLL(diviserOptimal);
 394              		.loc 1 193 0
 395 0172 BB69     		ldr	r3, [r7, #24]	@ tmp227, diviserOptimal
 396 0174 DAB2     		uxtb	r2, r3	@ D.6695, tmp227
 397 0176 7B68     		ldr	r3, [r7, #4]	@ tmp228, UARTx
 398 0178 1A70     		strb	r2, [r3]	@ tmp229, MEM[(struct LPC_UART1_TypeDef *)UARTx_43(D)].D.4871.DLL
 194:core/lpc17xx_uart.c **** 			/* Then reset DLAB bit */
 195:core/lpc17xx_uart.c **** 			((LPC_UART1_TypeDef *)UARTx)->LCR &= (~UART_LCR_DLAB_EN) & UART_LCR_BITMASK;
 399              		.loc 1 195 0
 400 017a 7B68     		ldr	r3, [r7, #4]	@ tmp230, UARTx
 401 017c 1B7B     		ldrb	r3, [r3, #12]	@ tmp232, MEM[(struct LPC_UART1_TypeDef *)UARTx_43(D)].LCR
 402 017e DBB2     		uxtb	r3, r3	@ D.6695, tmp232
 403 0180 03F07F03 		and	r3, r3, #127	@ tmp233, D.6695,
 404 0184 DAB2     		uxtb	r2, r3	@ D.6695, tmp233
 405 0186 7B68     		ldr	r3, [r7, #4]	@ tmp234, UARTx
 406 0188 1A73     		strb	r2, [r3, #12]	@ tmp235, MEM[(struct LPC_UART1_TypeDef *)UARTx_43(D)].LCR
 196:core/lpc17xx_uart.c **** 			((LPC_UART1_TypeDef *)UARTx)->FDR = (UART_FDR_MULVAL(mulFracDivOptimal) \
 407              		.loc 1 196 0
 408 018a 3B6A     		ldr	r3, [r7, #32]	@ tmp236, mulFracDivOptimal
 409 018c 1B01     		lsls	r3, r3, #4	@ D.6694, tmp236,
 410 018e DAB2     		uxtb	r2, r3	@ D.6694, D.6694
 197:core/lpc17xx_uart.c **** 					| UART_FDR_DIVADDVAL(dividerAddOptimal)) & UART_FDR_BITMASK;
 411              		.loc 1 197 0
 412 0190 FB69     		ldr	r3, [r7, #28]	@ tmp237, dividerAddOptimal
 413 0192 03F00F03 		and	r3, r3, #15	@ D.6694, tmp237,
 414 0196 1343     		orrs	r3, r3, r2	@, D.6694, D.6694, D.6694
 415 0198 DAB2     		uxtb	r2, r3	@ D.6694, D.6694
 196:core/lpc17xx_uart.c **** 			((LPC_UART1_TypeDef *)UARTx)->FDR = (UART_FDR_MULVAL(mulFracDivOptimal) \
 416              		.loc 1 196 0
 417 019a 7B68     		ldr	r3, [r7, #4]	@ tmp238, UARTx
 418 019c 9A62     		str	r2, [r3, #40]	@ D.6694, MEM[(struct LPC_UART1_TypeDef *)UARTx_43(D)].FDR
 419 019e 26E0     		b	.L26	@
 420              	.L25:
 198:core/lpc17xx_uart.c **** 		}
ARM GAS  C:\Users\STUDENT\AppData\Local\Temp\ccMxouBa.s 			page 12


 199:core/lpc17xx_uart.c **** 		else
 200:core/lpc17xx_uart.c **** 		{
 201:core/lpc17xx_uart.c **** 			UARTx->LCR |= UART_LCR_DLAB_EN;
 421              		.loc 1 201 0
 422 01a0 7B68     		ldr	r3, [r7, #4]	@ tmp239, UARTx
 423 01a2 1B7B     		ldrb	r3, [r3, #12]	@ tmp241, UARTx_43(D)->LCR
 424 01a4 DBB2     		uxtb	r3, r3	@ D.6695, tmp241
 425 01a6 63F07F03 		orn	r3, r3, #127	@ tmp242, D.6695,
 426 01aa DAB2     		uxtb	r2, r3	@ D.6695, tmp242
 427 01ac 7B68     		ldr	r3, [r7, #4]	@ tmp243, UARTx
 428 01ae 1A73     		strb	r2, [r3, #12]	@ tmp244, UARTx_43(D)->LCR
 202:core/lpc17xx_uart.c **** 			UARTx->/*DLIER.*/DLM = UART_LOAD_DLM(diviserOptimal);
 429              		.loc 1 202 0
 430 01b0 BB69     		ldr	r3, [r7, #24]	@ tmp245, diviserOptimal
 431 01b2 1B0A     		lsrs	r3, r3, #8	@ D.6694, tmp245,
 432 01b4 DAB2     		uxtb	r2, r3	@ D.6695, D.6694
 433 01b6 7B68     		ldr	r3, [r7, #4]	@ tmp246, UARTx
 434 01b8 1A71     		strb	r2, [r3, #4]	@ tmp247, UARTx_43(D)->D.4815.DLM
 203:core/lpc17xx_uart.c **** 			UARTx->/*RBTHDLR.*/DLL = UART_LOAD_DLL(diviserOptimal);
 435              		.loc 1 203 0
 436 01ba BB69     		ldr	r3, [r7, #24]	@ tmp248, diviserOptimal
 437 01bc DAB2     		uxtb	r2, r3	@ D.6695, tmp248
 438 01be 7B68     		ldr	r3, [r7, #4]	@ tmp249, UARTx
 439 01c0 1A70     		strb	r2, [r3]	@ tmp250, UARTx_43(D)->D.4811.DLL
 204:core/lpc17xx_uart.c **** 			/* Then reset DLAB bit */
 205:core/lpc17xx_uart.c **** 			UARTx->LCR &= (~UART_LCR_DLAB_EN) & UART_LCR_BITMASK;
 440              		.loc 1 205 0
 441 01c2 7B68     		ldr	r3, [r7, #4]	@ tmp251, UARTx
 442 01c4 1B7B     		ldrb	r3, [r3, #12]	@ tmp253, UARTx_43(D)->LCR
 443 01c6 DBB2     		uxtb	r3, r3	@ D.6695, tmp253
 444 01c8 03F07F03 		and	r3, r3, #127	@ tmp254, D.6695,
 445 01cc DAB2     		uxtb	r2, r3	@ D.6695, tmp254
 446 01ce 7B68     		ldr	r3, [r7, #4]	@ tmp255, UARTx
 447 01d0 1A73     		strb	r2, [r3, #12]	@ tmp256, UARTx_43(D)->LCR
 206:core/lpc17xx_uart.c **** 			UARTx->FDR = (UART_FDR_MULVAL(mulFracDivOptimal) \
 448              		.loc 1 206 0
 449 01d2 3B6A     		ldr	r3, [r7, #32]	@ tmp257, mulFracDivOptimal
 450 01d4 DBB2     		uxtb	r3, r3	@ D.6695, tmp257
 451 01d6 1B01     		lsls	r3, r3, #4	@ tmp258, D.6695,
 452 01d8 DAB2     		uxtb	r2, r3	@ D.6695, tmp258
 453 01da FB69     		ldr	r3, [r7, #28]	@ tmp259, dividerAddOptimal
 454 01dc DBB2     		uxtb	r3, r3	@ D.6695, tmp259
 455 01de 03F00F03 		and	r3, r3, #15	@ tmp260, D.6695,
 456 01e2 DBB2     		uxtb	r3, r3	@ D.6695, tmp260
 457 01e4 1343     		orrs	r3, r3, r2	@, tmp261, D.6695, D.6695
 458 01e6 DAB2     		uxtb	r2, r3	@ D.6695, tmp261
 459 01e8 7B68     		ldr	r3, [r7, #4]	@ tmp262, UARTx
 460 01ea 83F82820 		strb	r2, [r3, #40]	@ tmp263, UARTx_43(D)->FDR
 461              	.L26:
 207:core/lpc17xx_uart.c **** 					| UART_FDR_DIVADDVAL(dividerAddOptimal)) & UART_FDR_BITMASK;
 208:core/lpc17xx_uart.c **** 		}
 209:core/lpc17xx_uart.c **** 		errorStatus = SUCCESS;
 462              		.loc 1 209 0
 463 01ee 0123     		movs	r3, #1	@ tmp264,
 464 01f0 87F83730 		strb	r3, [r7, #55]	@ tmp265, errorStatus
 465              	.L24:
 210:core/lpc17xx_uart.c **** 	}
ARM GAS  C:\Users\STUDENT\AppData\Local\Temp\ccMxouBa.s 			page 13


 211:core/lpc17xx_uart.c **** 
 212:core/lpc17xx_uart.c **** 	return errorStatus;
 466              		.loc 1 212 0
 467 01f4 97F83730 		ldrb	r3, [r7, #55]	@ zero_extendqisi2	@ D.6696, errorStatus
 213:core/lpc17xx_uart.c **** }
 468              		.loc 1 213 0
 469 01f8 1846     		mov	r0, r3	@, <retval>
 470 01fa 3837     		adds	r7, r7, #56	@,,
 471              		.cfi_def_cfa_offset 8
 472 01fc BD46     		mov	sp, r7	@,
 473              		.cfi_def_cfa_register 13
 474              		@ sp needed	@
 475 01fe 80BD     		pop	{r7, pc}	@
 476              	.L31:
 477              		.align	2
 478              	.L30:
 479 0200 A0860100 		.word	100000
 480 0204 00C00040 		.word	1073790976
 481 0208 00000140 		.word	1073807360
 482 020c 00800940 		.word	1074364416
 483 0210 00C00940 		.word	1074380800
 484 0214 1F85EB51 		.word	1374389535
 485              		.cfi_endproc
 486              	.LFE56:
 487              		.size	uart_set_divisors, .-uart_set_divisors
 488              		.section	.bss.xx,"aw",%nobits
 489              		.align	2
 490              		.type	xx, %object
 491              		.size	xx, 4
 492              	xx:
 493 0000 00000000 		.space	4
 494              		.section	.text.UART_GenIntHandler,"ax",%progbits
 495              		.align	2
 496              		.global	UART_GenIntHandler
 497              		.thumb
 498              		.thumb_func
 499              		.type	UART_GenIntHandler, %function
 500              	UART_GenIntHandler:
 501              	.LFB57:
 214:core/lpc17xx_uart.c **** static volatile xx=0u;
 215:core/lpc17xx_uart.c **** /*********************************************************************//**
 216:core/lpc17xx_uart.c ****  * @brief		General UART interrupt handler and router
 217:core/lpc17xx_uart.c ****  * @param[in]	UARTx	Selected UART peripheral, should be UART0..3
 218:core/lpc17xx_uart.c ****  * @return		None
 219:core/lpc17xx_uart.c ****  *
 220:core/lpc17xx_uart.c ****  * Note:
 221:core/lpc17xx_uart.c ****  * - Handles transmit, receive, and status interrupts for the UART.
 222:core/lpc17xx_uart.c ****  * Based on the interrupt status, routes the interrupt to the
 223:core/lpc17xx_uart.c ****  * respective call-back to be handled by the user application using
 224:core/lpc17xx_uart.c ****  * this driver.
 225:core/lpc17xx_uart.c ****  * - If callback is not installed, corresponding interrupt will be disabled
 226:core/lpc17xx_uart.c ****  * - All these interrupt source below will be checked:
 227:core/lpc17xx_uart.c ****  *   		- Transmit Holding Register Empty.
 228:core/lpc17xx_uart.c ****  * 			- Received Data Available and Character Time Out.
 229:core/lpc17xx_uart.c ****  * 			- Receive Line Status (not implemented)
 230:core/lpc17xx_uart.c ****  * 			- End of auto-baud interrupt (not implemented)
 231:core/lpc17xx_uart.c ****  * 			- Auto-Baudrate Time-Out interrupt (not implemented)
ARM GAS  C:\Users\STUDENT\AppData\Local\Temp\ccMxouBa.s 			page 14


 232:core/lpc17xx_uart.c ****  * 			- Modem Status interrupt (UART0 Modem functionality)
 233:core/lpc17xx_uart.c ****  * 			- CTS signal transition interrupt (UART0 Modem functionality)
 234:core/lpc17xx_uart.c ****  **********************************************************************/
 235:core/lpc17xx_uart.c **** void UART_GenIntHandler(LPC_UART_TypeDef *UARTx)
 236:core/lpc17xx_uart.c **** {
 502              		.loc 1 236 0
 503              		.cfi_startproc
 504              		@ args = 0, pretend = 0, frame = 32
 505              		@ frame_needed = 1, uses_anonymous_args = 0
 506 0000 80B5     		push	{r7, lr}	@
 507              		.cfi_def_cfa_offset 8
 508              		.cfi_offset 7, -8
 509              		.cfi_offset 14, -4
 510 0002 88B0     		sub	sp, sp, #32	@,,
 511              		.cfi_def_cfa_offset 40
 512 0004 00AF     		add	r7, sp, #0	@,,
 513              		.cfi_def_cfa_register 7
 514 0006 7860     		str	r0, [r7, #4]	@ UARTx, UARTx
 237:core/lpc17xx_uart.c **** 	uint8_t pUart, modemsts;
 238:core/lpc17xx_uart.c **** 	uint32_t intsrc, tmp, tmp1;
 239:core/lpc17xx_uart.c **** 
 240:core/lpc17xx_uart.c **** 	pUart = getUartNum(UARTx);
 515              		.loc 1 240 0
 516 0008 7868     		ldr	r0, [r7, #4]	@, UARTx
 517 000a FFF7FEFF 		bl	getUartNum	@
 518 000e 0346     		mov	r3, r0	@ tmp148,
 519 0010 FB77     		strb	r3, [r7, #31]	@ tmp149, pUart
 241:core/lpc17xx_uart.c **** 
 242:core/lpc17xx_uart.c **** 	/* Determine the interrupt source */
 243:core/lpc17xx_uart.c **** 	intsrc = UARTx->IIR;
 520              		.loc 1 243 0
 521 0012 7B68     		ldr	r3, [r7, #4]	@ tmp150, UARTx
 522 0014 9B68     		ldr	r3, [r3, #8]	@ tmp151, UARTx_7(D)->D.4819.IIR
 523 0016 BB61     		str	r3, [r7, #24]	@ tmp151, intsrc
 244:core/lpc17xx_uart.c **** 	tmp = intsrc & UART_IIR_INTID_MASK;
 524              		.loc 1 244 0
 525 0018 BB69     		ldr	r3, [r7, #24]	@ tmp153, intsrc
 526 001a 03F00E03 		and	r3, r3, #14	@ tmp152, tmp153,
 527 001e 7B61     		str	r3, [r7, #20]	@ tmp152, tmp
 245:core/lpc17xx_uart.c **** 
 246:core/lpc17xx_uart.c **** 	/*
 247:core/lpc17xx_uart.c **** 	 * In case of using UART1 with full modem,
 248:core/lpc17xx_uart.c **** 	 * interrupt ID = 0 that means modem status interrupt has been detected
 249:core/lpc17xx_uart.c **** 	 */
 250:core/lpc17xx_uart.c **** 	if (pUart == 1) {
 528              		.loc 1 250 0
 529 0020 FB7F     		ldrb	r3, [r7, #31]	@ zero_extendqisi2	@ tmp154, pUart
 530 0022 012B     		cmp	r3, #1	@ tmp154,
 531 0024 1AD1     		bne	.L33	@,
 251:core/lpc17xx_uart.c **** 		xx++;
 532              		.loc 1 251 0
 533 0026 4F4B     		ldr	r3, .L45	@ tmp155,
 534 0028 1B68     		ldr	r3, [r3]	@ D.6697, xx
 535 002a 0133     		adds	r3, r3, #1	@ D.6697, D.6697,
 536 002c 4D4A     		ldr	r2, .L45	@ tmp156,
 537 002e 1360     		str	r3, [r2]	@ D.6697, xx
 252:core/lpc17xx_uart.c **** 		if (tmp == 0){
ARM GAS  C:\Users\STUDENT\AppData\Local\Temp\ccMxouBa.s 			page 15


 538              		.loc 1 252 0
 539 0030 7B69     		ldr	r3, [r7, #20]	@ tmp157, tmp
 540 0032 002B     		cmp	r3, #0	@ tmp157,
 541 0034 12D1     		bne	.L33	@,
 253:core/lpc17xx_uart.c **** 			// Check Modem status
 254:core/lpc17xx_uart.c **** 			modemsts = LPC_UART1->MSR & UART1_MSR_BITMASK;
 542              		.loc 1 254 0
 543 0036 4C4B     		ldr	r3, .L45+4	@ D.6698,
 544 0038 1B7E     		ldrb	r3, [r3, #24]	@ tmp158, _15->MSR
 545 003a FB74     		strb	r3, [r7, #19]	@ tmp158, modemsts
 255:core/lpc17xx_uart.c **** 			// Call modem status call-back
 256:core/lpc17xx_uart.c **** 			if (pfnModemCbs != NULL){
 546              		.loc 1 256 0
 547 003c 4B4B     		ldr	r3, .L45+8	@ tmp159,
 548 003e 1B68     		ldr	r3, [r3]	@ D.6699, pfnModemCbs
 549 0040 002B     		cmp	r3, #0	@ D.6699,
 550 0042 05D0     		beq	.L34	@,
 257:core/lpc17xx_uart.c **** 				pfnModemCbs(modemsts);
 551              		.loc 1 257 0
 552 0044 494B     		ldr	r3, .L45+8	@ tmp160,
 553 0046 1B68     		ldr	r3, [r3]	@ D.6699, pfnModemCbs
 554 0048 FA7C     		ldrb	r2, [r7, #19]	@ zero_extendqisi2	@ tmp161, modemsts
 555 004a 1046     		mov	r0, r2	@, tmp161
 556 004c 9847     		blx	r3	@ D.6699
 557 004e 05E0     		b	.L33	@
 558              	.L34:
 258:core/lpc17xx_uart.c **** 			}
 259:core/lpc17xx_uart.c **** 			// disable modem status interrupt and CTS status change interrupt
 260:core/lpc17xx_uart.c **** 			// if its callback is not installed
 261:core/lpc17xx_uart.c **** 			else {
 262:core/lpc17xx_uart.c **** 				LPC_UART1->IER &= ~(UART1_IER_MSINT_EN | UART1_IER_CTSINT_EN);
 559              		.loc 1 262 0
 560 0050 454A     		ldr	r2, .L45+4	@ D.6698,
 561 0052 454B     		ldr	r3, .L45+4	@ D.6698,
 562 0054 5B68     		ldr	r3, [r3, #4]	@ D.6700, _21->D.4875.IER
 563 0056 23F08803 		bic	r3, r3, #136	@ D.6700, D.6700,
 564 005a 5360     		str	r3, [r2, #4]	@ D.6700, _20->D.4875.IER
 565              	.L33:
 263:core/lpc17xx_uart.c **** 			}
 264:core/lpc17xx_uart.c **** 		}
 265:core/lpc17xx_uart.c **** 	}
 266:core/lpc17xx_uart.c **** 
 267:core/lpc17xx_uart.c **** 	// Receive Line Status
 268:core/lpc17xx_uart.c **** 	if (tmp == UART_IIR_INTID_RLS){
 566              		.loc 1 268 0
 567 005c 7B69     		ldr	r3, [r7, #20]	@ tmp162, tmp
 568 005e 062B     		cmp	r3, #6	@ tmp162,
 569 0060 23D1     		bne	.L35	@,
 269:core/lpc17xx_uart.c **** 		// Check line status
 270:core/lpc17xx_uart.c **** 		tmp1 = UARTx->LSR;
 570              		.loc 1 270 0
 571 0062 7B68     		ldr	r3, [r7, #4]	@ tmp163, UARTx
 572 0064 1B7D     		ldrb	r3, [r3, #20]	@ tmp165, UARTx_7(D)->LSR
 573 0066 DBB2     		uxtb	r3, r3	@ D.6701, tmp165
 574 0068 FB60     		str	r3, [r7, #12]	@ D.6701, tmp1
 271:core/lpc17xx_uart.c **** 		// Mask out the Receive Ready and Transmit Holding empty status
 272:core/lpc17xx_uart.c **** 		tmp1 &= (UART_LSR_OE | UART_LSR_PE | UART_LSR_FE \
ARM GAS  C:\Users\STUDENT\AppData\Local\Temp\ccMxouBa.s 			page 16


 575              		.loc 1 272 0
 576 006a FB68     		ldr	r3, [r7, #12]	@ tmp167, tmp1
 577 006c 03F09E03 		and	r3, r3, #158	@ tmp166, tmp167,
 578 0070 FB60     		str	r3, [r7, #12]	@ tmp166, tmp1
 273:core/lpc17xx_uart.c **** 				| UART_LSR_BI | UART_LSR_RXFE);
 274:core/lpc17xx_uart.c **** 		// If any error exist
 275:core/lpc17xx_uart.c **** 		if (tmp1) {
 579              		.loc 1 275 0
 580 0072 FB68     		ldr	r3, [r7, #12]	@ tmp168, tmp1
 581 0074 002B     		cmp	r3, #0	@ tmp168,
 582 0076 18D0     		beq	.L35	@,
 276:core/lpc17xx_uart.c **** 			// Call Call-back function with error input value
 277:core/lpc17xx_uart.c **** 			if (uartCbsDat[pUart].pfnErrCbs != NULL) {
 583              		.loc 1 277 0
 584 0078 FB7F     		ldrb	r3, [r7, #31]	@ zero_extendqisi2	@ D.6697, pUart
 585 007a 3D4A     		ldr	r2, .L45+12	@ tmp169,
 586 007c 1B01     		lsls	r3, r3, #4	@ tmp170, D.6697,
 587 007e 1344     		add	r3, r3, r2	@ tmp171, tmp169
 588 0080 0C33     		adds	r3, r3, #12	@ tmp172, tmp171,
 589 0082 1B68     		ldr	r3, [r3]	@ D.6702, uartCbsDat[_28].pfnErrCbs
 590 0084 002B     		cmp	r3, #0	@ D.6702,
 591 0086 0AD0     		beq	.L36	@,
 278:core/lpc17xx_uart.c **** 				uartCbsDat[pUart].pfnErrCbs(tmp1);
 592              		.loc 1 278 0
 593 0088 FB7F     		ldrb	r3, [r7, #31]	@ zero_extendqisi2	@ D.6697, pUart
 594 008a 394A     		ldr	r2, .L45+12	@ tmp173,
 595 008c 1B01     		lsls	r3, r3, #4	@ tmp174, D.6697,
 596 008e 1344     		add	r3, r3, r2	@ tmp175, tmp173
 597 0090 0C33     		adds	r3, r3, #12	@ tmp176, tmp175,
 598 0092 1B68     		ldr	r3, [r3]	@ D.6702, uartCbsDat[_30].pfnErrCbs
 599 0094 FA68     		ldr	r2, [r7, #12]	@ tmp177, tmp1
 600 0096 D2B2     		uxtb	r2, r2	@ D.6701, tmp177
 601 0098 1046     		mov	r0, r2	@, D.6701
 602 009a 9847     		blx	r3	@ D.6702
 603 009c 05E0     		b	.L35	@
 604              	.L36:
 279:core/lpc17xx_uart.c **** 			}
 280:core/lpc17xx_uart.c **** 			// Disable interrupt if its call-back is not install
 281:core/lpc17xx_uart.c **** 			else {
 282:core/lpc17xx_uart.c **** 				UARTx->IER &= ~(UART_IER_RLSINT_EN);
 605              		.loc 1 282 0
 606 009e 7B68     		ldr	r3, [r7, #4]	@ tmp178, UARTx
 607 00a0 5B68     		ldr	r3, [r3, #4]	@ D.6700, UARTx_7(D)->D.4815.IER
 608 00a2 23F00402 		bic	r2, r3, #4	@ D.6700, D.6700,
 609 00a6 7B68     		ldr	r3, [r7, #4]	@ tmp179, UARTx
 610 00a8 5A60     		str	r2, [r3, #4]	@ D.6700, UARTx_7(D)->D.4815.IER
 611              	.L35:
 283:core/lpc17xx_uart.c **** 			}
 284:core/lpc17xx_uart.c **** 		}
 285:core/lpc17xx_uart.c **** 	}
 286:core/lpc17xx_uart.c **** 
 287:core/lpc17xx_uart.c **** 	// Receive Data Available or Character time-out
 288:core/lpc17xx_uart.c **** 	if ((tmp == UART_IIR_INTID_RDA)||(tmp == UART_IIR_INTID_CTI)){
 612              		.loc 1 288 0
 613 00aa 7B69     		ldr	r3, [r7, #20]	@ tmp180, tmp
 614 00ac 042B     		cmp	r3, #4	@ tmp180,
 615 00ae 02D0     		beq	.L37	@,
ARM GAS  C:\Users\STUDENT\AppData\Local\Temp\ccMxouBa.s 			page 17


 616              		.loc 1 288 0 is_stmt 0 discriminator 1
 617 00b0 7B69     		ldr	r3, [r7, #20]	@ tmp181, tmp
 618 00b2 0C2B     		cmp	r3, #12	@ tmp181,
 619 00b4 15D1     		bne	.L38	@,
 620              	.L37:
 289:core/lpc17xx_uart.c **** 		// Call Rx call back function
 290:core/lpc17xx_uart.c **** 		if (uartCbsDat[pUart].pfnRxCbs != NULL) {
 621              		.loc 1 290 0 is_stmt 1
 622 00b6 FB7F     		ldrb	r3, [r7, #31]	@ zero_extendqisi2	@ D.6697, pUart
 623 00b8 2D4A     		ldr	r2, .L45+12	@ tmp182,
 624 00ba 1B01     		lsls	r3, r3, #4	@ tmp183, D.6697,
 625 00bc 1344     		add	r3, r3, r2	@ tmp184, tmp182
 626 00be 0433     		adds	r3, r3, #4	@ tmp185, tmp184,
 627 00c0 1B68     		ldr	r3, [r3]	@ D.6703, uartCbsDat[_37].pfnRxCbs
 628 00c2 002B     		cmp	r3, #0	@ D.6703,
 629 00c4 07D0     		beq	.L39	@,
 291:core/lpc17xx_uart.c **** 			uartCbsDat[pUart].pfnRxCbs();
 630              		.loc 1 291 0
 631 00c6 FB7F     		ldrb	r3, [r7, #31]	@ zero_extendqisi2	@ D.6697, pUart
 632 00c8 294A     		ldr	r2, .L45+12	@ tmp186,
 633 00ca 1B01     		lsls	r3, r3, #4	@ tmp187, D.6697,
 634 00cc 1344     		add	r3, r3, r2	@ tmp188, tmp186
 635 00ce 0433     		adds	r3, r3, #4	@ tmp189, tmp188,
 636 00d0 1B68     		ldr	r3, [r3]	@ D.6703, uartCbsDat[_39].pfnRxCbs
 637 00d2 9847     		blx	r3	@ D.6703
 638 00d4 05E0     		b	.L38	@
 639              	.L39:
 292:core/lpc17xx_uart.c **** 		}
 293:core/lpc17xx_uart.c **** 		// Disable interrupt if its call-back is not install
 294:core/lpc17xx_uart.c **** 		else {
 295:core/lpc17xx_uart.c **** 			UARTx->IER &= ~(UART_IER_RBRINT_EN);
 640              		.loc 1 295 0
 641 00d6 7B68     		ldr	r3, [r7, #4]	@ tmp190, UARTx
 642 00d8 5B68     		ldr	r3, [r3, #4]	@ D.6700, UARTx_7(D)->D.4815.IER
 643 00da 23F00102 		bic	r2, r3, #1	@ D.6700, D.6700,
 644 00de 7B68     		ldr	r3, [r7, #4]	@ tmp191, UARTx
 645 00e0 5A60     		str	r2, [r3, #4]	@ D.6700, UARTx_7(D)->D.4815.IER
 646              	.L38:
 296:core/lpc17xx_uart.c **** 		}
 297:core/lpc17xx_uart.c **** 	}
 298:core/lpc17xx_uart.c **** 
 299:core/lpc17xx_uart.c **** 	// Transmit Holding Empty
 300:core/lpc17xx_uart.c **** 	if (tmp == UART_IIR_INTID_THRE){
 647              		.loc 1 300 0
 648 00e2 7B69     		ldr	r3, [r7, #20]	@ tmp192, tmp
 649 00e4 022B     		cmp	r3, #2	@ tmp192,
 650 00e6 13D1     		bne	.L40	@,
 301:core/lpc17xx_uart.c **** 		// Call Tx call back function
 302:core/lpc17xx_uart.c **** 		if (uartCbsDat[pUart].pfnTxCbs != NULL) {
 651              		.loc 1 302 0
 652 00e8 FB7F     		ldrb	r3, [r7, #31]	@ zero_extendqisi2	@ D.6697, pUart
 653 00ea 214A     		ldr	r2, .L45+12	@ tmp193,
 654 00ec 1B01     		lsls	r3, r3, #4	@ tmp194, D.6697,
 655 00ee 1344     		add	r3, r3, r2	@ tmp195, tmp193
 656 00f0 1B68     		ldr	r3, [r3]	@ D.6704, uartCbsDat[_45].pfnTxCbs
 657 00f2 002B     		cmp	r3, #0	@ D.6704,
 658 00f4 06D0     		beq	.L41	@,
ARM GAS  C:\Users\STUDENT\AppData\Local\Temp\ccMxouBa.s 			page 18


 303:core/lpc17xx_uart.c **** 			uartCbsDat[pUart].pfnTxCbs();
 659              		.loc 1 303 0
 660 00f6 FB7F     		ldrb	r3, [r7, #31]	@ zero_extendqisi2	@ D.6697, pUart
 661 00f8 1D4A     		ldr	r2, .L45+12	@ tmp196,
 662 00fa 1B01     		lsls	r3, r3, #4	@ tmp197, D.6697,
 663 00fc 1344     		add	r3, r3, r2	@ tmp198, tmp196
 664 00fe 1B68     		ldr	r3, [r3]	@ D.6704, uartCbsDat[_47].pfnTxCbs
 665 0100 9847     		blx	r3	@ D.6704
 666 0102 05E0     		b	.L40	@
 667              	.L41:
 304:core/lpc17xx_uart.c **** 		}
 305:core/lpc17xx_uart.c **** 		// Disable interrupt if its call-back is not install
 306:core/lpc17xx_uart.c **** 		else {
 307:core/lpc17xx_uart.c **** 			UARTx->IER &= ~(UART_IER_THREINT_EN);
 668              		.loc 1 307 0
 669 0104 7B68     		ldr	r3, [r7, #4]	@ tmp199, UARTx
 670 0106 5B68     		ldr	r3, [r3, #4]	@ D.6700, UARTx_7(D)->D.4815.IER
 671 0108 23F00202 		bic	r2, r3, #2	@ D.6700, D.6700,
 672 010c 7B68     		ldr	r3, [r7, #4]	@ tmp200, UARTx
 673 010e 5A60     		str	r2, [r3, #4]	@ D.6700, UARTx_7(D)->D.4815.IER
 674              	.L40:
 308:core/lpc17xx_uart.c **** 		}
 309:core/lpc17xx_uart.c **** 	}
 310:core/lpc17xx_uart.c **** 
 311:core/lpc17xx_uart.c **** 	intsrc &= (UART_IIR_ABEO_INT | UART_IIR_ABTO_INT);
 675              		.loc 1 311 0
 676 0110 BB69     		ldr	r3, [r7, #24]	@ tmp202, intsrc
 677 0112 03F44073 		and	r3, r3, #768	@ tmp201, tmp202,
 678 0116 BB61     		str	r3, [r7, #24]	@ tmp201, intsrc
 312:core/lpc17xx_uart.c **** 	// Check if End of auto-baudrate interrupt or Auto baudrate time out
 313:core/lpc17xx_uart.c **** 	if (intsrc){
 679              		.loc 1 313 0
 680 0118 BB69     		ldr	r3, [r7, #24]	@ tmp203, intsrc
 681 011a 002B     		cmp	r3, #0	@ tmp203,
 682 011c 1ED0     		beq	.L44	@,
 314:core/lpc17xx_uart.c **** 		// Clear interrupt pending
 315:core/lpc17xx_uart.c **** 		UARTx->ACR |= ((intsrc & UART_IIR_ABEO_INT) ? UART_ACR_ABEOINT_CLR : 0) \
 683              		.loc 1 315 0
 684 011e 7B68     		ldr	r3, [r7, #4]	@ tmp204, UARTx
 685 0120 1A6A     		ldr	r2, [r3, #32]	@ D.6700, UARTx_7(D)->ACR
 316:core/lpc17xx_uart.c **** 						| ((intsrc & UART_IIR_ABTO_INT) ? UART_ACR_ABTOINT_CLR : 0);
 686              		.loc 1 316 0
 687 0122 BB69     		ldr	r3, [r7, #24]	@ tmp205, intsrc
 688 0124 03F44073 		and	r3, r3, #768	@ D.6700, tmp205,
 315:core/lpc17xx_uart.c **** 						| ((intsrc & UART_IIR_ABTO_INT) ? UART_ACR_ABTOINT_CLR : 0);
 689              		.loc 1 315 0
 690 0128 1A43     		orrs	r2, r2, r3	@, D.6700, D.6700, D.6700
 691 012a 7B68     		ldr	r3, [r7, #4]	@ tmp206, UARTx
 692 012c 1A62     		str	r2, [r3, #32]	@ D.6700, UARTx_7(D)->ACR
 317:core/lpc17xx_uart.c **** 		if (uartCbsDat[pUart].pfnABCbs != NULL) {
 693              		.loc 1 317 0
 694 012e FB7F     		ldrb	r3, [r7, #31]	@ zero_extendqisi2	@ D.6697, pUart
 695 0130 0F4A     		ldr	r2, .L45+12	@ tmp207,
 696 0132 1B01     		lsls	r3, r3, #4	@ tmp208, D.6697,
 697 0134 1344     		add	r3, r3, r2	@ tmp209, tmp207
 698 0136 0833     		adds	r3, r3, #8	@ tmp210, tmp209,
 699 0138 1B68     		ldr	r3, [r3]	@ D.6705, uartCbsDat[_58].pfnABCbs
ARM GAS  C:\Users\STUDENT\AppData\Local\Temp\ccMxouBa.s 			page 19


 700 013a 002B     		cmp	r3, #0	@ D.6705,
 701 013c 08D0     		beq	.L43	@,
 318:core/lpc17xx_uart.c **** 			uartCbsDat[pUart].pfnABCbs(intsrc);
 702              		.loc 1 318 0
 703 013e FB7F     		ldrb	r3, [r7, #31]	@ zero_extendqisi2	@ D.6697, pUart
 704 0140 0B4A     		ldr	r2, .L45+12	@ tmp211,
 705 0142 1B01     		lsls	r3, r3, #4	@ tmp212, D.6697,
 706 0144 1344     		add	r3, r3, r2	@ tmp213, tmp211
 707 0146 0833     		adds	r3, r3, #8	@ tmp214, tmp213,
 708 0148 1B68     		ldr	r3, [r3]	@ D.6705, uartCbsDat[_60].pfnABCbs
 709 014a B869     		ldr	r0, [r7, #24]	@, intsrc
 710 014c 9847     		blx	r3	@ D.6705
 319:core/lpc17xx_uart.c **** 		} else {
 320:core/lpc17xx_uart.c **** 			// Disable End of AB interrupt
 321:core/lpc17xx_uart.c **** 			UARTx->IER &= ~(UART_IER_ABEOINT_EN | UART_IER_ABTOINT_EN);
 322:core/lpc17xx_uart.c **** 		}
 323:core/lpc17xx_uart.c **** 	}
 324:core/lpc17xx_uart.c **** }
 711              		.loc 1 324 0
 712 014e 05E0     		b	.L44	@
 713              	.L43:
 321:core/lpc17xx_uart.c **** 		}
 714              		.loc 1 321 0
 715 0150 7B68     		ldr	r3, [r7, #4]	@ tmp215, UARTx
 716 0152 5B68     		ldr	r3, [r3, #4]	@ D.6700, UARTx_7(D)->D.4815.IER
 717 0154 23F44072 		bic	r2, r3, #768	@ D.6700, D.6700,
 718 0158 7B68     		ldr	r3, [r7, #4]	@ tmp216, UARTx
 719 015a 5A60     		str	r2, [r3, #4]	@ D.6700, UARTx_7(D)->D.4815.IER
 720              	.L44:
 721              		.loc 1 324 0
 722 015c 00BF     		nop
 723 015e 2037     		adds	r7, r7, #32	@,,
 724              		.cfi_def_cfa_offset 8
 725 0160 BD46     		mov	sp, r7	@,
 726              		.cfi_def_cfa_register 13
 727              		@ sp needed	@
 728 0162 80BD     		pop	{r7, pc}	@
 729              	.L46:
 730              		.align	2
 731              	.L45:
 732 0164 00000000 		.word	xx
 733 0168 00000140 		.word	1073807360
 734 016c 00000000 		.word	pfnModemCbs
 735 0170 00000000 		.word	uartCbsDat
 736              		.cfi_endproc
 737              	.LFE57:
 738              		.size	UART_GenIntHandler, .-UART_GenIntHandler
 739              		.section	.rodata
 740              		.align	2
 741              	.LC0:
 742 0000 636F7265 		.ascii	"core/lpc17xx_uart.c\000"
 742      2F6C7063 
 742      31377878 
 742      5F756172 
 742      742E6300 
 743              		.section	.text.UART_DeInit,"ax",%progbits
 744              		.align	2
ARM GAS  C:\Users\STUDENT\AppData\Local\Temp\ccMxouBa.s 			page 20


 745              		.global	UART_DeInit
 746              		.thumb
 747              		.thumb_func
 748              		.type	UART_DeInit, %function
 749              	UART_DeInit:
 750              	.LFB58:
 325:core/lpc17xx_uart.c **** 
 326:core/lpc17xx_uart.c **** /**
 327:core/lpc17xx_uart.c ****  * @}
 328:core/lpc17xx_uart.c ****  */
 329:core/lpc17xx_uart.c **** 
 330:core/lpc17xx_uart.c **** 
 331:core/lpc17xx_uart.c **** /* Public Functions ----------------------------------------------------------- */
 332:core/lpc17xx_uart.c **** /** @addtogroup UART_Public_Functions
 333:core/lpc17xx_uart.c ****  * @{
 334:core/lpc17xx_uart.c ****  */
 335:core/lpc17xx_uart.c **** 
 336:core/lpc17xx_uart.c **** /*********************************************************************//**
 337:core/lpc17xx_uart.c ****  * @brief		De-initializes the UARTx peripheral registers to their
 338:core/lpc17xx_uart.c **** *                  default reset values.
 339:core/lpc17xx_uart.c ****  * @param[in]	UARTx	UART peripheral selected, should be UART0, UART1,
 340:core/lpc17xx_uart.c ****  * 						UART2 or UART3.
 341:core/lpc17xx_uart.c ****  * @return 		None
 342:core/lpc17xx_uart.c ****  **********************************************************************/
 343:core/lpc17xx_uart.c **** void UART_DeInit(LPC_UART_TypeDef* UARTx)
 344:core/lpc17xx_uart.c **** {
 751              		.loc 1 344 0
 752              		.cfi_startproc
 753              		@ args = 0, pretend = 0, frame = 8
 754              		@ frame_needed = 1, uses_anonymous_args = 0
 755 0000 80B5     		push	{r7, lr}	@
 756              		.cfi_def_cfa_offset 8
 757              		.cfi_offset 7, -8
 758              		.cfi_offset 14, -4
 759 0002 82B0     		sub	sp, sp, #8	@,,
 760              		.cfi_def_cfa_offset 16
 761 0004 00AF     		add	r7, sp, #0	@,,
 762              		.cfi_def_cfa_register 7
 763 0006 7860     		str	r0, [r7, #4]	@ UARTx, UARTx
 345:core/lpc17xx_uart.c **** 	// For debug mode
 346:core/lpc17xx_uart.c **** 	CHECK_PARAM(PARAM_UARTx(UARTx));
 764              		.loc 1 346 0
 765 0008 7B68     		ldr	r3, [r7, #4]	@ tmp110, UARTx
 766 000a 1F4A     		ldr	r2, .L54	@ tmp111,
 767 000c 9342     		cmp	r3, r2	@ tmp110, tmp111
 768 000e 10D0     		beq	.L48	@,
 769              		.loc 1 346 0 is_stmt 0 discriminator 1
 770 0010 7B68     		ldr	r3, [r7, #4]	@ tmp112, UARTx
 771 0012 1E4A     		ldr	r2, .L54+4	@ tmp113,
 772 0014 9342     		cmp	r3, r2	@ tmp112, tmp113
 773 0016 0CD0     		beq	.L48	@,
 774              		.loc 1 346 0 discriminator 2
 775 0018 7B68     		ldr	r3, [r7, #4]	@ tmp114, UARTx
 776 001a 1D4A     		ldr	r2, .L54+8	@ tmp115,
 777 001c 9342     		cmp	r3, r2	@ tmp114, tmp115
 778 001e 08D0     		beq	.L48	@,
 779              		.loc 1 346 0 discriminator 3
ARM GAS  C:\Users\STUDENT\AppData\Local\Temp\ccMxouBa.s 			page 21


 780 0020 7B68     		ldr	r3, [r7, #4]	@ tmp116, UARTx
 781 0022 1C4A     		ldr	r2, .L54+12	@ tmp117,
 782 0024 9342     		cmp	r3, r2	@ tmp116, tmp117
 783 0026 04D0     		beq	.L48	@,
 784              		.loc 1 346 0 discriminator 4
 785 0028 4FF4AD71 		mov	r1, #346	@,
 786 002c 1A48     		ldr	r0, .L54+16	@,
 787 002e FFF7FEFF 		bl	check_failed	@
 788              	.L48:
 347:core/lpc17xx_uart.c **** 
 348:core/lpc17xx_uart.c **** 	UART_TxCmd(UARTx, DISABLE);
 789              		.loc 1 348 0 is_stmt 1
 790 0032 0021     		movs	r1, #0	@,
 791 0034 7868     		ldr	r0, [r7, #4]	@, UARTx
 792 0036 FFF7FEFF 		bl	UART_TxCmd	@
 349:core/lpc17xx_uart.c **** 
 350:core/lpc17xx_uart.c **** #ifdef _UART0
 351:core/lpc17xx_uart.c **** 	if (UARTx == (LPC_UART_TypeDef*)LPC_UART0)
 793              		.loc 1 351 0
 794 003a 7B68     		ldr	r3, [r7, #4]	@ tmp118, UARTx
 795 003c 124A     		ldr	r2, .L54	@ tmp119,
 796 003e 9342     		cmp	r3, r2	@ tmp118, tmp119
 797 0040 03D1     		bne	.L49	@,
 352:core/lpc17xx_uart.c **** 	{
 353:core/lpc17xx_uart.c **** 		/* Set up clock and power for UART module */
 354:core/lpc17xx_uart.c **** 		CLKPWR_ConfigPPWR (CLKPWR_PCONP_PCUART0, DISABLE);
 798              		.loc 1 354 0
 799 0042 0021     		movs	r1, #0	@,
 800 0044 0820     		movs	r0, #8	@,
 801 0046 FFF7FEFF 		bl	CLKPWR_ConfigPPWR	@
 802              	.L49:
 355:core/lpc17xx_uart.c **** 	}
 356:core/lpc17xx_uart.c **** #endif
 357:core/lpc17xx_uart.c **** 
 358:core/lpc17xx_uart.c **** #ifdef _UART1
 359:core/lpc17xx_uart.c **** 	if (((LPC_UART1_TypeDef *)UARTx) == LPC_UART1)
 803              		.loc 1 359 0
 804 004a 7B68     		ldr	r3, [r7, #4]	@ tmp120, UARTx
 805 004c 0F4A     		ldr	r2, .L54+4	@ tmp121,
 806 004e 9342     		cmp	r3, r2	@ tmp120, tmp121
 807 0050 03D1     		bne	.L50	@,
 360:core/lpc17xx_uart.c **** 	{
 361:core/lpc17xx_uart.c **** 		/* Set up clock and power for UART module */
 362:core/lpc17xx_uart.c **** 		CLKPWR_ConfigPPWR (CLKPWR_PCONP_PCUART1, DISABLE);
 808              		.loc 1 362 0
 809 0052 0021     		movs	r1, #0	@,
 810 0054 1020     		movs	r0, #16	@,
 811 0056 FFF7FEFF 		bl	CLKPWR_ConfigPPWR	@
 812              	.L50:
 363:core/lpc17xx_uart.c **** 	}
 364:core/lpc17xx_uart.c **** #endif
 365:core/lpc17xx_uart.c **** 
 366:core/lpc17xx_uart.c **** #ifdef _UART2
 367:core/lpc17xx_uart.c **** 	if (UARTx == LPC_UART2)
 813              		.loc 1 367 0
 814 005a 7B68     		ldr	r3, [r7, #4]	@ tmp122, UARTx
 815 005c 0C4A     		ldr	r2, .L54+8	@ tmp123,
ARM GAS  C:\Users\STUDENT\AppData\Local\Temp\ccMxouBa.s 			page 22


 816 005e 9342     		cmp	r3, r2	@ tmp122, tmp123
 817 0060 04D1     		bne	.L51	@,
 368:core/lpc17xx_uart.c **** 	{
 369:core/lpc17xx_uart.c **** 		/* Set up clock and power for UART module */
 370:core/lpc17xx_uart.c **** 		CLKPWR_ConfigPPWR (CLKPWR_PCONP_PCUART2, DISABLE);
 818              		.loc 1 370 0
 819 0062 0021     		movs	r1, #0	@,
 820 0064 4FF08070 		mov	r0, #16777216	@,
 821 0068 FFF7FEFF 		bl	CLKPWR_ConfigPPWR	@
 822              	.L51:
 371:core/lpc17xx_uart.c **** 	}
 372:core/lpc17xx_uart.c **** #endif
 373:core/lpc17xx_uart.c **** 
 374:core/lpc17xx_uart.c **** #ifdef _UART3
 375:core/lpc17xx_uart.c **** 	if (UARTx == LPC_UART3)
 823              		.loc 1 375 0
 824 006c 7B68     		ldr	r3, [r7, #4]	@ tmp124, UARTx
 825 006e 094A     		ldr	r2, .L54+12	@ tmp125,
 826 0070 9342     		cmp	r3, r2	@ tmp124, tmp125
 827 0072 04D1     		bne	.L53	@,
 376:core/lpc17xx_uart.c **** 	{
 377:core/lpc17xx_uart.c **** 		/* Set up clock and power for UART module */
 378:core/lpc17xx_uart.c **** 		CLKPWR_ConfigPPWR (CLKPWR_PCONP_PCUART3, DISABLE);
 828              		.loc 1 378 0
 829 0074 0021     		movs	r1, #0	@,
 830 0076 4FF00070 		mov	r0, #33554432	@,
 831 007a FFF7FEFF 		bl	CLKPWR_ConfigPPWR	@
 832              	.L53:
 379:core/lpc17xx_uart.c **** 	}
 380:core/lpc17xx_uart.c **** #endif
 381:core/lpc17xx_uart.c **** }
 833              		.loc 1 381 0
 834 007e 00BF     		nop
 835 0080 0837     		adds	r7, r7, #8	@,,
 836              		.cfi_def_cfa_offset 8
 837 0082 BD46     		mov	sp, r7	@,
 838              		.cfi_def_cfa_register 13
 839              		@ sp needed	@
 840 0084 80BD     		pop	{r7, pc}	@
 841              	.L55:
 842 0086 00BF     		.align	2
 843              	.L54:
 844 0088 00C00040 		.word	1073790976
 845 008c 00000140 		.word	1073807360
 846 0090 00800940 		.word	1074364416
 847 0094 00C00940 		.word	1074380800
 848 0098 00000000 		.word	.LC0
 849              		.cfi_endproc
 850              	.LFE58:
 851              		.size	UART_DeInit, .-UART_DeInit
 852              		.section	.text.UART_Init,"ax",%progbits
 853              		.align	2
 854              		.global	UART_Init
 855              		.thumb
 856              		.thumb_func
 857              		.type	UART_Init, %function
 858              	UART_Init:
ARM GAS  C:\Users\STUDENT\AppData\Local\Temp\ccMxouBa.s 			page 23


 859              	.LFB59:
 382:core/lpc17xx_uart.c **** 
 383:core/lpc17xx_uart.c **** /********************************************************************//**
 384:core/lpc17xx_uart.c ****  * @brief		Initializes the UARTx peripheral according to the specified
 385:core/lpc17xx_uart.c **** *               parameters in the UART_ConfigStruct.
 386:core/lpc17xx_uart.c ****  * @param[in]	UARTx	UART peripheral selected, should be UART0, UART1,
 387:core/lpc17xx_uart.c ****  * 						UART2 or UART3.
 388:core/lpc17xx_uart.c ****  * @param[in]	UART_ConfigStruct Pointer to a UART_CFG_Type structure
 389:core/lpc17xx_uart.c **** *                    that contains the configuration information for the
 390:core/lpc17xx_uart.c **** *                    specified UART peripheral.
 391:core/lpc17xx_uart.c ****  * @return 		None
 392:core/lpc17xx_uart.c ****  *********************************************************************/
 393:core/lpc17xx_uart.c **** void UART_Init(LPC_UART_TypeDef *UARTx, UART_CFG_Type *UART_ConfigStruct)
 394:core/lpc17xx_uart.c **** {
 860              		.loc 1 394 0
 861              		.cfi_startproc
 862              		@ args = 0, pretend = 0, frame = 16
 863              		@ frame_needed = 1, uses_anonymous_args = 0
 864 0000 80B5     		push	{r7, lr}	@
 865              		.cfi_def_cfa_offset 8
 866              		.cfi_offset 7, -8
 867              		.cfi_offset 14, -4
 868 0002 84B0     		sub	sp, sp, #16	@,,
 869              		.cfi_def_cfa_offset 24
 870 0004 00AF     		add	r7, sp, #0	@,,
 871              		.cfi_def_cfa_register 7
 872 0006 7860     		str	r0, [r7, #4]	@ UARTx, UARTx
 873 0008 3960     		str	r1, [r7]	@ UART_ConfigStruct, UART_ConfigStruct
 395:core/lpc17xx_uart.c **** 	uint32_t tmp;
 396:core/lpc17xx_uart.c **** 
 397:core/lpc17xx_uart.c **** 	// For debug mode
 398:core/lpc17xx_uart.c **** 	CHECK_PARAM(PARAM_UARTx(UARTx));
 874              		.loc 1 398 0
 875 000a 7B68     		ldr	r3, [r7, #4]	@ tmp152, UARTx
 876 000c A64A     		ldr	r2, .L97	@ tmp153,
 877 000e 9342     		cmp	r3, r2	@ tmp152, tmp153
 878 0010 10D0     		beq	.L57	@,
 879              		.loc 1 398 0 is_stmt 0 discriminator 1
 880 0012 7B68     		ldr	r3, [r7, #4]	@ tmp154, UARTx
 881 0014 A54A     		ldr	r2, .L97+4	@ tmp155,
 882 0016 9342     		cmp	r3, r2	@ tmp154, tmp155
 883 0018 0CD0     		beq	.L57	@,
 884              		.loc 1 398 0 discriminator 2
 885 001a 7B68     		ldr	r3, [r7, #4]	@ tmp156, UARTx
 886 001c A44A     		ldr	r2, .L97+8	@ tmp157,
 887 001e 9342     		cmp	r3, r2	@ tmp156, tmp157
 888 0020 08D0     		beq	.L57	@,
 889              		.loc 1 398 0 discriminator 3
 890 0022 7B68     		ldr	r3, [r7, #4]	@ tmp158, UARTx
 891 0024 A34A     		ldr	r2, .L97+12	@ tmp159,
 892 0026 9342     		cmp	r3, r2	@ tmp158, tmp159
 893 0028 04D0     		beq	.L57	@,
 894              		.loc 1 398 0 discriminator 4
 895 002a 4FF4C771 		mov	r1, #398	@,
 896 002e A248     		ldr	r0, .L97+16	@,
 897 0030 FFF7FEFF 		bl	check_failed	@
 898              	.L57:
ARM GAS  C:\Users\STUDENT\AppData\Local\Temp\ccMxouBa.s 			page 24


 399:core/lpc17xx_uart.c **** 	CHECK_PARAM(PARAM_UART_DATABIT(UART_ConfigStruct->Databits));
 899              		.loc 1 399 0 is_stmt 1
 900 0034 3B68     		ldr	r3, [r7]	@ tmp160, UART_ConfigStruct
 901 0036 5B79     		ldrb	r3, [r3, #5]	@ zero_extendqisi2	@ D.6707, UART_ConfigStruct_19(D)->Databits
 902 0038 002B     		cmp	r3, #0	@ D.6707,
 903 003a 10D0     		beq	.L58	@,
 904              		.loc 1 399 0 is_stmt 0 discriminator 1
 905 003c 3B68     		ldr	r3, [r7]	@ tmp161, UART_ConfigStruct
 906 003e 5B79     		ldrb	r3, [r3, #5]	@ zero_extendqisi2	@ D.6707, UART_ConfigStruct_19(D)->Databits
 907 0040 012B     		cmp	r3, #1	@ D.6707,
 908 0042 0CD0     		beq	.L58	@,
 909              		.loc 1 399 0 discriminator 2
 910 0044 3B68     		ldr	r3, [r7]	@ tmp162, UART_ConfigStruct
 911 0046 5B79     		ldrb	r3, [r3, #5]	@ zero_extendqisi2	@ D.6707, UART_ConfigStruct_19(D)->Databits
 912 0048 022B     		cmp	r3, #2	@ D.6707,
 913 004a 08D0     		beq	.L58	@,
 914              		.loc 1 399 0 discriminator 3
 915 004c 3B68     		ldr	r3, [r7]	@ tmp163, UART_ConfigStruct
 916 004e 5B79     		ldrb	r3, [r3, #5]	@ zero_extendqisi2	@ D.6707, UART_ConfigStruct_19(D)->Databits
 917 0050 032B     		cmp	r3, #3	@ D.6707,
 918 0052 04D0     		beq	.L58	@,
 919              		.loc 1 399 0 discriminator 4
 920 0054 40F28F11 		movw	r1, #399	@,
 921 0058 9748     		ldr	r0, .L97+16	@,
 922 005a FFF7FEFF 		bl	check_failed	@
 923              	.L58:
 400:core/lpc17xx_uart.c **** 	CHECK_PARAM(PARAM_UART_STOPBIT(UART_ConfigStruct->Stopbits));
 924              		.loc 1 400 0 is_stmt 1
 925 005e 3B68     		ldr	r3, [r7]	@ tmp164, UART_ConfigStruct
 926 0060 9B79     		ldrb	r3, [r3, #6]	@ zero_extendqisi2	@ D.6708, UART_ConfigStruct_19(D)->Stopbits
 927 0062 002B     		cmp	r3, #0	@ D.6708,
 928 0064 08D0     		beq	.L59	@,
 929              		.loc 1 400 0 is_stmt 0 discriminator 1
 930 0066 3B68     		ldr	r3, [r7]	@ tmp165, UART_ConfigStruct
 931 0068 9B79     		ldrb	r3, [r3, #6]	@ zero_extendqisi2	@ D.6708, UART_ConfigStruct_19(D)->Stopbits
 932 006a 012B     		cmp	r3, #1	@ D.6708,
 933 006c 04D0     		beq	.L59	@,
 934              		.loc 1 400 0 discriminator 2
 935 006e 4FF4C871 		mov	r1, #400	@,
 936 0072 9148     		ldr	r0, .L97+16	@,
 937 0074 FFF7FEFF 		bl	check_failed	@
 938              	.L59:
 401:core/lpc17xx_uart.c **** 	CHECK_PARAM(PARAM_UART_PARITY(UART_ConfigStruct->Parity));
 939              		.loc 1 401 0 is_stmt 1
 940 0078 3B68     		ldr	r3, [r7]	@ tmp166, UART_ConfigStruct
 941 007a 1B79     		ldrb	r3, [r3, #4]	@ zero_extendqisi2	@ D.6709, UART_ConfigStruct_19(D)->Parity
 942 007c 002B     		cmp	r3, #0	@ D.6709,
 943 007e 14D0     		beq	.L60	@,
 944              		.loc 1 401 0 is_stmt 0 discriminator 1
 945 0080 3B68     		ldr	r3, [r7]	@ tmp167, UART_ConfigStruct
 946 0082 1B79     		ldrb	r3, [r3, #4]	@ zero_extendqisi2	@ D.6709, UART_ConfigStruct_19(D)->Parity
 947 0084 012B     		cmp	r3, #1	@ D.6709,
 948 0086 10D0     		beq	.L60	@,
 949              		.loc 1 401 0 discriminator 2
 950 0088 3B68     		ldr	r3, [r7]	@ tmp168, UART_ConfigStruct
 951 008a 1B79     		ldrb	r3, [r3, #4]	@ zero_extendqisi2	@ D.6709, UART_ConfigStruct_19(D)->Parity
 952 008c 022B     		cmp	r3, #2	@ D.6709,
ARM GAS  C:\Users\STUDENT\AppData\Local\Temp\ccMxouBa.s 			page 25


 953 008e 0CD0     		beq	.L60	@,
 954              		.loc 1 401 0 discriminator 3
 955 0090 3B68     		ldr	r3, [r7]	@ tmp169, UART_ConfigStruct
 956 0092 1B79     		ldrb	r3, [r3, #4]	@ zero_extendqisi2	@ D.6709, UART_ConfigStruct_19(D)->Parity
 957 0094 032B     		cmp	r3, #3	@ D.6709,
 958 0096 08D0     		beq	.L60	@,
 959              		.loc 1 401 0 discriminator 4
 960 0098 3B68     		ldr	r3, [r7]	@ tmp170, UART_ConfigStruct
 961 009a 1B79     		ldrb	r3, [r3, #4]	@ zero_extendqisi2	@ D.6709, UART_ConfigStruct_19(D)->Parity
 962 009c 042B     		cmp	r3, #4	@ D.6709,
 963 009e 04D0     		beq	.L60	@,
 964              		.loc 1 401 0 discriminator 5
 965 00a0 40F29111 		movw	r1, #401	@,
 966 00a4 8448     		ldr	r0, .L97+16	@,
 967 00a6 FFF7FEFF 		bl	check_failed	@
 968              	.L60:
 402:core/lpc17xx_uart.c **** 
 403:core/lpc17xx_uart.c **** #ifdef _UART0
 404:core/lpc17xx_uart.c **** 	if(UARTx == (LPC_UART_TypeDef*)LPC_UART0)
 969              		.loc 1 404 0 is_stmt 1
 970 00aa 7B68     		ldr	r3, [r7, #4]	@ tmp171, UARTx
 971 00ac 7E4A     		ldr	r2, .L97	@ tmp172,
 972 00ae 9342     		cmp	r3, r2	@ tmp171, tmp172
 973 00b0 03D1     		bne	.L61	@,
 405:core/lpc17xx_uart.c **** 	{
 406:core/lpc17xx_uart.c **** 		/* Set up clock and power for UART module */
 407:core/lpc17xx_uart.c **** 		CLKPWR_ConfigPPWR (CLKPWR_PCONP_PCUART0, ENABLE);
 974              		.loc 1 407 0
 975 00b2 0121     		movs	r1, #1	@,
 976 00b4 0820     		movs	r0, #8	@,
 977 00b6 FFF7FEFF 		bl	CLKPWR_ConfigPPWR	@
 978              	.L61:
 408:core/lpc17xx_uart.c **** 	}
 409:core/lpc17xx_uart.c **** #endif
 410:core/lpc17xx_uart.c **** 
 411:core/lpc17xx_uart.c **** #ifdef _UART1
 412:core/lpc17xx_uart.c **** 	if(((LPC_UART1_TypeDef *)UARTx) == LPC_UART1)
 979              		.loc 1 412 0
 980 00ba 7B68     		ldr	r3, [r7, #4]	@ tmp173, UARTx
 981 00bc 7B4A     		ldr	r2, .L97+4	@ tmp174,
 982 00be 9342     		cmp	r3, r2	@ tmp173, tmp174
 983 00c0 03D1     		bne	.L62	@,
 413:core/lpc17xx_uart.c **** 	{
 414:core/lpc17xx_uart.c **** 		/* Set up clock and power for UART module */
 415:core/lpc17xx_uart.c **** 		CLKPWR_ConfigPPWR (CLKPWR_PCONP_PCUART1, ENABLE);
 984              		.loc 1 415 0
 985 00c2 0121     		movs	r1, #1	@,
 986 00c4 1020     		movs	r0, #16	@,
 987 00c6 FFF7FEFF 		bl	CLKPWR_ConfigPPWR	@
 988              	.L62:
 416:core/lpc17xx_uart.c **** 	}
 417:core/lpc17xx_uart.c **** #endif
 418:core/lpc17xx_uart.c **** 
 419:core/lpc17xx_uart.c **** #ifdef _UART2
 420:core/lpc17xx_uart.c **** 	if(UARTx == LPC_UART2)
 989              		.loc 1 420 0
 990 00ca 7B68     		ldr	r3, [r7, #4]	@ tmp175, UARTx
ARM GAS  C:\Users\STUDENT\AppData\Local\Temp\ccMxouBa.s 			page 26


 991 00cc 784A     		ldr	r2, .L97+8	@ tmp176,
 992 00ce 9342     		cmp	r3, r2	@ tmp175, tmp176
 993 00d0 04D1     		bne	.L63	@,
 421:core/lpc17xx_uart.c **** 	{
 422:core/lpc17xx_uart.c **** 		/* Set up clock and power for UART module */
 423:core/lpc17xx_uart.c **** 		CLKPWR_ConfigPPWR (CLKPWR_PCONP_PCUART2, ENABLE);
 994              		.loc 1 423 0
 995 00d2 0121     		movs	r1, #1	@,
 996 00d4 4FF08070 		mov	r0, #16777216	@,
 997 00d8 FFF7FEFF 		bl	CLKPWR_ConfigPPWR	@
 998              	.L63:
 424:core/lpc17xx_uart.c **** 	}
 425:core/lpc17xx_uart.c **** #endif
 426:core/lpc17xx_uart.c **** 
 427:core/lpc17xx_uart.c **** #ifdef _UART3
 428:core/lpc17xx_uart.c **** 	if(UARTx == LPC_UART3)
 999              		.loc 1 428 0
 1000 00dc 7B68     		ldr	r3, [r7, #4]	@ tmp177, UARTx
 1001 00de 754A     		ldr	r2, .L97+12	@ tmp178,
 1002 00e0 9342     		cmp	r3, r2	@ tmp177, tmp178
 1003 00e2 04D1     		bne	.L64	@,
 429:core/lpc17xx_uart.c **** 	{
 430:core/lpc17xx_uart.c **** 		/* Set up clock and power for UART module */
 431:core/lpc17xx_uart.c **** 		CLKPWR_ConfigPPWR (CLKPWR_PCONP_PCUART3, ENABLE);
 1004              		.loc 1 431 0
 1005 00e4 0121     		movs	r1, #1	@,
 1006 00e6 4FF00070 		mov	r0, #33554432	@,
 1007 00ea FFF7FEFF 		bl	CLKPWR_ConfigPPWR	@
 1008              	.L64:
 432:core/lpc17xx_uart.c **** 	}
 433:core/lpc17xx_uart.c **** #endif
 434:core/lpc17xx_uart.c **** 
 435:core/lpc17xx_uart.c **** 	if (((LPC_UART1_TypeDef *)UARTx) == LPC_UART1)
 1009              		.loc 1 435 0
 1010 00ee 7B68     		ldr	r3, [r7, #4]	@ tmp179, UARTx
 1011 00f0 6E4A     		ldr	r2, .L97+4	@ tmp180,
 1012 00f2 9342     		cmp	r3, r2	@ tmp179, tmp180
 1013 00f4 42D1     		bne	.L65	@,
 436:core/lpc17xx_uart.c **** 	{
 437:core/lpc17xx_uart.c **** 		/* FIFOs are empty */
 438:core/lpc17xx_uart.c **** 		((LPC_UART1_TypeDef *)UARTx)->/*IIFCR.*/FCR = ( UART_FCR_FIFO_EN \
 1014              		.loc 1 438 0
 1015 00f6 7B68     		ldr	r3, [r7, #4]	@ tmp181, UARTx
 1016 00f8 0722     		movs	r2, #7	@ tmp182,
 1017 00fa 1A72     		strb	r2, [r3, #8]	@ tmp183, MEM[(struct LPC_UART1_TypeDef *)UARTx_16(D)].D.4879.FCR
 439:core/lpc17xx_uart.c **** 				| UART_FCR_RX_RS | UART_FCR_TX_RS);
 440:core/lpc17xx_uart.c **** 		// Disable FIFO
 441:core/lpc17xx_uart.c **** 		((LPC_UART1_TypeDef *)UARTx)->/*IIFCR.*/FCR = 0;
 1018              		.loc 1 441 0
 1019 00fc 7B68     		ldr	r3, [r7, #4]	@ tmp184, UARTx
 1020 00fe 0022     		movs	r2, #0	@ tmp185,
 1021 0100 1A72     		strb	r2, [r3, #8]	@ tmp186, MEM[(struct LPC_UART1_TypeDef *)UARTx_16(D)].D.4879.FCR
 442:core/lpc17xx_uart.c **** 
 443:core/lpc17xx_uart.c **** 		// Dummy reading
 444:core/lpc17xx_uart.c **** 		while (((LPC_UART1_TypeDef *)UARTx)->LSR & UART_LSR_RDR)
 1022              		.loc 1 444 0
 1023 0102 03E0     		b	.L66	@
ARM GAS  C:\Users\STUDENT\AppData\Local\Temp\ccMxouBa.s 			page 27


 1024              	.L67:
 445:core/lpc17xx_uart.c **** 		{
 446:core/lpc17xx_uart.c **** 			tmp = ((LPC_UART1_TypeDef *)UARTx)->/*RBTHDLR.*/RBR;
 1025              		.loc 1 446 0
 1026 0104 7B68     		ldr	r3, [r7, #4]	@ tmp187, UARTx
 1027 0106 1B78     		ldrb	r3, [r3]	@ tmp188, MEM[(struct LPC_UART1_TypeDef *)UARTx_16(D)].D.4871.RBR
 1028 0108 DBB2     		uxtb	r3, r3	@ D.6710, tmp188
 1029 010a FB60     		str	r3, [r7, #12]	@ D.6710, tmp
 1030              	.L66:
 444:core/lpc17xx_uart.c **** 		{
 1031              		.loc 1 444 0
 1032 010c 7B68     		ldr	r3, [r7, #4]	@ tmp189, UARTx
 1033 010e 1B7D     		ldrb	r3, [r3, #20]	@ tmp191, MEM[(struct LPC_UART1_TypeDef *)UARTx_16(D)].LSR
 1034 0110 DBB2     		uxtb	r3, r3	@ D.6710, tmp191
 1035 0112 03F00103 		and	r3, r3, #1	@ D.6711, D.6711,
 1036 0116 002B     		cmp	r3, #0	@ D.6711,
 1037 0118 F4D1     		bne	.L67	@,
 447:core/lpc17xx_uart.c **** 		}
 448:core/lpc17xx_uart.c **** 
 449:core/lpc17xx_uart.c **** 		((LPC_UART1_TypeDef *)UARTx)->TER = UART_TER_TXEN;
 1038              		.loc 1 449 0
 1039 011a 7B68     		ldr	r3, [r7, #4]	@ tmp192, UARTx
 1040 011c 8022     		movs	r2, #128	@ tmp193,
 1041 011e 83F83020 		strb	r2, [r3, #48]	@ tmp194, MEM[(struct LPC_UART1_TypeDef *)UARTx_16(D)].TER
 450:core/lpc17xx_uart.c **** 		// Wait for current transmit complete
 451:core/lpc17xx_uart.c **** 		while (!(((LPC_UART1_TypeDef *)UARTx)->LSR & UART_LSR_THRE));
 1042              		.loc 1 451 0
 1043 0122 00BF     		nop
 1044              	.L68:
 1045              		.loc 1 451 0 is_stmt 0 discriminator 1
 1046 0124 7B68     		ldr	r3, [r7, #4]	@ tmp195, UARTx
 1047 0126 1B7D     		ldrb	r3, [r3, #20]	@ tmp197, MEM[(struct LPC_UART1_TypeDef *)UARTx_16(D)].LSR
 1048 0128 DBB2     		uxtb	r3, r3	@ D.6710, tmp197
 1049 012a 03F02003 		and	r3, r3, #32	@ D.6711, D.6711,
 1050 012e 002B     		cmp	r3, #0	@ D.6711,
 1051 0130 F8D0     		beq	.L68	@,
 452:core/lpc17xx_uart.c **** 		// Disable Tx
 453:core/lpc17xx_uart.c **** 		((LPC_UART1_TypeDef *)UARTx)->TER = 0;
 1052              		.loc 1 453 0 is_stmt 1
 1053 0132 7B68     		ldr	r3, [r7, #4]	@ tmp198, UARTx
 1054 0134 0022     		movs	r2, #0	@ tmp199,
 1055 0136 83F83020 		strb	r2, [r3, #48]	@ tmp200, MEM[(struct LPC_UART1_TypeDef *)UARTx_16(D)].TER
 454:core/lpc17xx_uart.c **** 
 455:core/lpc17xx_uart.c **** 		// Disable interrupt
 456:core/lpc17xx_uart.c **** 		((LPC_UART1_TypeDef *)UARTx)->/*DLIER.*/IER = 0;
 1056              		.loc 1 456 0
 1057 013a 7B68     		ldr	r3, [r7, #4]	@ tmp201, UARTx
 1058 013c 0022     		movs	r2, #0	@ tmp202,
 1059 013e 5A60     		str	r2, [r3, #4]	@ tmp202, MEM[(struct LPC_UART1_TypeDef *)UARTx_16(D)].D.4875.IER
 457:core/lpc17xx_uart.c **** 		// Set LCR to default state
 458:core/lpc17xx_uart.c **** 		((LPC_UART1_TypeDef *)UARTx)->LCR = 0;
 1060              		.loc 1 458 0
 1061 0140 7B68     		ldr	r3, [r7, #4]	@ tmp203, UARTx
 1062 0142 0022     		movs	r2, #0	@ tmp204,
 1063 0144 1A73     		strb	r2, [r3, #12]	@ tmp205, MEM[(struct LPC_UART1_TypeDef *)UARTx_16(D)].LCR
 459:core/lpc17xx_uart.c **** 		// Set ACR to default state
 460:core/lpc17xx_uart.c **** 		((LPC_UART1_TypeDef *)UARTx)->ACR = 0;
ARM GAS  C:\Users\STUDENT\AppData\Local\Temp\ccMxouBa.s 			page 28


 1064              		.loc 1 460 0
 1065 0146 7B68     		ldr	r3, [r7, #4]	@ tmp206, UARTx
 1066 0148 0022     		movs	r2, #0	@ tmp207,
 1067 014a 1A62     		str	r2, [r3, #32]	@ tmp207, MEM[(struct LPC_UART1_TypeDef *)UARTx_16(D)].ACR
 461:core/lpc17xx_uart.c **** 		// Set Modem Control to default state
 462:core/lpc17xx_uart.c **** 		((LPC_UART1_TypeDef *)UARTx)->MCR = 0;
 1068              		.loc 1 462 0
 1069 014c 7B68     		ldr	r3, [r7, #4]	@ tmp208, UARTx
 1070 014e 0022     		movs	r2, #0	@ tmp209,
 1071 0150 1A74     		strb	r2, [r3, #16]	@ tmp210, MEM[(struct LPC_UART1_TypeDef *)UARTx_16(D)].MCR
 463:core/lpc17xx_uart.c **** 		// Set RS485 control to default state
 464:core/lpc17xx_uart.c **** 		((LPC_UART1_TypeDef *)UARTx)->RS485CTRL = 0;
 1072              		.loc 1 464 0
 1073 0152 7B68     		ldr	r3, [r7, #4]	@ tmp211, UARTx
 1074 0154 0022     		movs	r2, #0	@ tmp212,
 1075 0156 83F84C20 		strb	r2, [r3, #76]	@ tmp213, MEM[(struct LPC_UART1_TypeDef *)UARTx_16(D)].RS485CTRL
 465:core/lpc17xx_uart.c **** 		// Set RS485 delay timer to default state
 466:core/lpc17xx_uart.c **** 		((LPC_UART1_TypeDef *)UARTx)->RS485DLY = 0;
 1076              		.loc 1 466 0
 1077 015a 7B68     		ldr	r3, [r7, #4]	@ tmp214, UARTx
 1078 015c 0022     		movs	r2, #0	@ tmp215,
 1079 015e 83F85420 		strb	r2, [r3, #84]	@ tmp216, MEM[(struct LPC_UART1_TypeDef *)UARTx_16(D)].RS485DLY
 467:core/lpc17xx_uart.c **** 		// Set RS485 addr match to default state
 468:core/lpc17xx_uart.c **** 		((LPC_UART1_TypeDef *)UARTx)->ADRMATCH = 0;
 1080              		.loc 1 468 0
 1081 0162 7B68     		ldr	r3, [r7, #4]	@ tmp217, UARTx
 1082 0164 0022     		movs	r2, #0	@ tmp218,
 1083 0166 83F85020 		strb	r2, [r3, #80]	@ tmp219, MEM[(struct LPC_UART1_TypeDef *)UARTx_16(D)].ADRMATCH
 469:core/lpc17xx_uart.c **** 		//Dummy Reading to Clear Status
 470:core/lpc17xx_uart.c **** 		tmp = ((LPC_UART1_TypeDef *)UARTx)->MSR;
 1084              		.loc 1 470 0
 1085 016a 7B68     		ldr	r3, [r7, #4]	@ tmp220, UARTx
 1086 016c 1B7E     		ldrb	r3, [r3, #24]	@ tmp222, MEM[(struct LPC_UART1_TypeDef *)UARTx_16(D)].MSR
 1087 016e DBB2     		uxtb	r3, r3	@ D.6710, tmp222
 1088 0170 FB60     		str	r3, [r7, #12]	@ D.6710, tmp
 471:core/lpc17xx_uart.c **** 		tmp = ((LPC_UART1_TypeDef *)UARTx)->LSR;
 1089              		.loc 1 471 0
 1090 0172 7B68     		ldr	r3, [r7, #4]	@ tmp223, UARTx
 1091 0174 1B7D     		ldrb	r3, [r3, #20]	@ tmp225, MEM[(struct LPC_UART1_TypeDef *)UARTx_16(D)].LSR
 1092 0176 DBB2     		uxtb	r3, r3	@ D.6710, tmp225
 1093 0178 FB60     		str	r3, [r7, #12]	@ D.6710, tmp
 1094 017a 2EE0     		b	.L69	@
 1095              	.L65:
 472:core/lpc17xx_uart.c **** 	}
 473:core/lpc17xx_uart.c **** 	else
 474:core/lpc17xx_uart.c **** 	{
 475:core/lpc17xx_uart.c **** 		/* FIFOs are empty */
 476:core/lpc17xx_uart.c **** 		UARTx->/*IIFCR.*/FCR = ( UART_FCR_FIFO_EN | UART_FCR_RX_RS | UART_FCR_TX_RS);
 1096              		.loc 1 476 0
 1097 017c 7B68     		ldr	r3, [r7, #4]	@ tmp226, UARTx
 1098 017e 0722     		movs	r2, #7	@ tmp227,
 1099 0180 1A72     		strb	r2, [r3, #8]	@ tmp228, UARTx_16(D)->D.4819.FCR
 477:core/lpc17xx_uart.c **** 		// Disable FIFO
 478:core/lpc17xx_uart.c **** 		UARTx->/*IIFCR.*/FCR = 0;
 1100              		.loc 1 478 0
 1101 0182 7B68     		ldr	r3, [r7, #4]	@ tmp229, UARTx
 1102 0184 0022     		movs	r2, #0	@ tmp230,
ARM GAS  C:\Users\STUDENT\AppData\Local\Temp\ccMxouBa.s 			page 29


 1103 0186 1A72     		strb	r2, [r3, #8]	@ tmp231, UARTx_16(D)->D.4819.FCR
 479:core/lpc17xx_uart.c **** 
 480:core/lpc17xx_uart.c **** 		// Dummy reading
 481:core/lpc17xx_uart.c **** 		while (UARTx->LSR & UART_LSR_RDR)
 1104              		.loc 1 481 0
 1105 0188 03E0     		b	.L70	@
 1106              	.L71:
 482:core/lpc17xx_uart.c **** 		{
 483:core/lpc17xx_uart.c **** 			tmp = UARTx->/*RBTHDLR.*/RBR;
 1107              		.loc 1 483 0
 1108 018a 7B68     		ldr	r3, [r7, #4]	@ tmp232, UARTx
 1109 018c 1B78     		ldrb	r3, [r3]	@ tmp233, UARTx_16(D)->D.4811.RBR
 1110 018e DBB2     		uxtb	r3, r3	@ D.6710, tmp233
 1111 0190 FB60     		str	r3, [r7, #12]	@ D.6710, tmp
 1112              	.L70:
 481:core/lpc17xx_uart.c **** 		{
 1113              		.loc 1 481 0
 1114 0192 7B68     		ldr	r3, [r7, #4]	@ tmp234, UARTx
 1115 0194 1B7D     		ldrb	r3, [r3, #20]	@ tmp236, UARTx_16(D)->LSR
 1116 0196 DBB2     		uxtb	r3, r3	@ D.6710, tmp236
 1117 0198 03F00103 		and	r3, r3, #1	@ D.6711, D.6711,
 1118 019c 002B     		cmp	r3, #0	@ D.6711,
 1119 019e F4D1     		bne	.L71	@,
 484:core/lpc17xx_uart.c **** 		}
 485:core/lpc17xx_uart.c **** 
 486:core/lpc17xx_uart.c **** 		UARTx->TER = UART_TER_TXEN;
 1120              		.loc 1 486 0
 1121 01a0 7B68     		ldr	r3, [r7, #4]	@ tmp237, UARTx
 1122 01a2 8022     		movs	r2, #128	@ tmp238,
 1123 01a4 83F83020 		strb	r2, [r3, #48]	@ tmp239, UARTx_16(D)->TER
 487:core/lpc17xx_uart.c **** 		// Wait for current transmit complete
 488:core/lpc17xx_uart.c **** 		while (!(UARTx->LSR & UART_LSR_THRE));
 1124              		.loc 1 488 0
 1125 01a8 00BF     		nop
 1126              	.L72:
 1127              		.loc 1 488 0 is_stmt 0 discriminator 1
 1128 01aa 7B68     		ldr	r3, [r7, #4]	@ tmp240, UARTx
 1129 01ac 1B7D     		ldrb	r3, [r3, #20]	@ tmp242, UARTx_16(D)->LSR
 1130 01ae DBB2     		uxtb	r3, r3	@ D.6710, tmp242
 1131 01b0 03F02003 		and	r3, r3, #32	@ D.6711, D.6711,
 1132 01b4 002B     		cmp	r3, #0	@ D.6711,
 1133 01b6 F8D0     		beq	.L72	@,
 489:core/lpc17xx_uart.c **** 		// Disable Tx
 490:core/lpc17xx_uart.c **** 		UARTx->TER = 0;
 1134              		.loc 1 490 0 is_stmt 1
 1135 01b8 7B68     		ldr	r3, [r7, #4]	@ tmp243, UARTx
 1136 01ba 0022     		movs	r2, #0	@ tmp244,
 1137 01bc 83F83020 		strb	r2, [r3, #48]	@ tmp245, UARTx_16(D)->TER
 491:core/lpc17xx_uart.c **** 
 492:core/lpc17xx_uart.c **** 		// Disable interrupt
 493:core/lpc17xx_uart.c **** 		UARTx->/*DLIER.*/IER = 0;
 1138              		.loc 1 493 0
 1139 01c0 7B68     		ldr	r3, [r7, #4]	@ tmp246, UARTx
 1140 01c2 0022     		movs	r2, #0	@ tmp247,
 1141 01c4 5A60     		str	r2, [r3, #4]	@ tmp247, UARTx_16(D)->D.4815.IER
 494:core/lpc17xx_uart.c **** 		// Set LCR to default state
 495:core/lpc17xx_uart.c **** 		UARTx->LCR = 0;
ARM GAS  C:\Users\STUDENT\AppData\Local\Temp\ccMxouBa.s 			page 30


 1142              		.loc 1 495 0
 1143 01c6 7B68     		ldr	r3, [r7, #4]	@ tmp248, UARTx
 1144 01c8 0022     		movs	r2, #0	@ tmp249,
 1145 01ca 1A73     		strb	r2, [r3, #12]	@ tmp250, UARTx_16(D)->LCR
 496:core/lpc17xx_uart.c **** 		// Set ACR to default state
 497:core/lpc17xx_uart.c **** 		UARTx->ACR = 0;
 1146              		.loc 1 497 0
 1147 01cc 7B68     		ldr	r3, [r7, #4]	@ tmp251, UARTx
 1148 01ce 0022     		movs	r2, #0	@ tmp252,
 1149 01d0 1A62     		str	r2, [r3, #32]	@ tmp252, UARTx_16(D)->ACR
 498:core/lpc17xx_uart.c **** 		// Dummy reading
 499:core/lpc17xx_uart.c **** 		tmp = UARTx->LSR;
 1150              		.loc 1 499 0
 1151 01d2 7B68     		ldr	r3, [r7, #4]	@ tmp253, UARTx
 1152 01d4 1B7D     		ldrb	r3, [r3, #20]	@ tmp255, UARTx_16(D)->LSR
 1153 01d6 DBB2     		uxtb	r3, r3	@ D.6710, tmp255
 1154 01d8 FB60     		str	r3, [r7, #12]	@ D.6710, tmp
 1155              	.L69:
 500:core/lpc17xx_uart.c **** 	}
 501:core/lpc17xx_uart.c **** 
 502:core/lpc17xx_uart.c **** 	if (UARTx == LPC_UART3)
 1156              		.loc 1 502 0
 1157 01da 7B68     		ldr	r3, [r7, #4]	@ tmp256, UARTx
 1158 01dc 354A     		ldr	r2, .L97+12	@ tmp257,
 1159 01de 9342     		cmp	r3, r2	@ tmp256, tmp257
 1160 01e0 03D1     		bne	.L73	@,
 503:core/lpc17xx_uart.c **** 	{
 504:core/lpc17xx_uart.c **** 		// Set IrDA to default state
 505:core/lpc17xx_uart.c **** 		UARTx->ICR = 0;
 1161              		.loc 1 505 0
 1162 01e2 7B68     		ldr	r3, [r7, #4]	@ tmp258, UARTx
 1163 01e4 0022     		movs	r2, #0	@ tmp259,
 1164 01e6 83F82420 		strb	r2, [r3, #36]	@ tmp260, UARTx_16(D)->ICR
 1165              	.L73:
 506:core/lpc17xx_uart.c **** 	}
 507:core/lpc17xx_uart.c **** 
 508:core/lpc17xx_uart.c **** 	// Set Line Control register ----------------------------
 509:core/lpc17xx_uart.c **** 
 510:core/lpc17xx_uart.c **** 	uart_set_divisors(UARTx, (UART_ConfigStruct->Baud_rate));
 1166              		.loc 1 510 0
 1167 01ea 3B68     		ldr	r3, [r7]	@ tmp261, UART_ConfigStruct
 1168 01ec 1B68     		ldr	r3, [r3]	@ D.6712, UART_ConfigStruct_19(D)->Baud_rate
 1169 01ee 1946     		mov	r1, r3	@, D.6712
 1170 01f0 7868     		ldr	r0, [r7, #4]	@, UARTx
 1171 01f2 FFF7FEFF 		bl	uart_set_divisors	@
 511:core/lpc17xx_uart.c **** 
 512:core/lpc17xx_uart.c **** 	if (((LPC_UART1_TypeDef *)UARTx) == LPC_UART1)
 1172              		.loc 1 512 0
 1173 01f6 7B68     		ldr	r3, [r7, #4]	@ tmp262, UARTx
 1174 01f8 2C4A     		ldr	r2, .L97+4	@ tmp263,
 1175 01fa 9342     		cmp	r3, r2	@ tmp262, tmp263
 1176 01fc 06D1     		bne	.L74	@,
 513:core/lpc17xx_uart.c **** 	{
 514:core/lpc17xx_uart.c **** 		tmp = (((LPC_UART1_TypeDef *)UARTx)->LCR & (UART_LCR_DLAB_EN | UART_LCR_BREAK_EN)) \
 1177              		.loc 1 514 0
 1178 01fe 7B68     		ldr	r3, [r7, #4]	@ tmp264, UARTx
 1179 0200 1B7B     		ldrb	r3, [r3, #12]	@ tmp266, MEM[(struct LPC_UART1_TypeDef *)UARTx_16(D)].LCR
ARM GAS  C:\Users\STUDENT\AppData\Local\Temp\ccMxouBa.s 			page 31


 1180 0202 DBB2     		uxtb	r3, r3	@ D.6710, tmp266
 1181 0204 03F0C003 		and	r3, r3, #192	@ tmp267, D.6712,
 1182 0208 FB60     		str	r3, [r7, #12]	@ tmp267, tmp
 1183 020a 05E0     		b	.L75	@
 1184              	.L74:
 515:core/lpc17xx_uart.c **** 				& UART_LCR_BITMASK;
 516:core/lpc17xx_uart.c **** 	}
 517:core/lpc17xx_uart.c **** 	else
 518:core/lpc17xx_uart.c **** 	{
 519:core/lpc17xx_uart.c **** 		tmp = (UARTx->LCR & (UART_LCR_DLAB_EN | UART_LCR_BREAK_EN)) & UART_LCR_BITMASK;
 1185              		.loc 1 519 0
 1186 020c 7B68     		ldr	r3, [r7, #4]	@ tmp268, UARTx
 1187 020e 1B7B     		ldrb	r3, [r3, #12]	@ tmp270, UARTx_16(D)->LCR
 1188 0210 DBB2     		uxtb	r3, r3	@ D.6710, tmp270
 1189 0212 03F0C003 		and	r3, r3, #192	@ tmp271, D.6712,
 1190 0216 FB60     		str	r3, [r7, #12]	@ tmp271, tmp
 1191              	.L75:
 520:core/lpc17xx_uart.c **** 	}
 521:core/lpc17xx_uart.c **** 
 522:core/lpc17xx_uart.c **** 	switch (UART_ConfigStruct->Databits){
 1192              		.loc 1 522 0
 1193 0218 3B68     		ldr	r3, [r7]	@ tmp272, UART_ConfigStruct
 1194 021a 5B79     		ldrb	r3, [r3, #5]	@ zero_extendqisi2	@ D.6707, UART_ConfigStruct_19(D)->Databits
 1195 021c 012B     		cmp	r3, #1	@ D.6711,
 1196 021e 04D0     		beq	.L77	@,
 1197 0220 022B     		cmp	r3, #2	@ D.6711,
 1198 0222 07D0     		beq	.L78	@,
 1199 0224 002B     		cmp	r3, #0	@ D.6711,
 1200 0226 0FD0     		beq	.L94	@,
 1201 0228 09E0     		b	.L93	@
 1202              	.L77:
 523:core/lpc17xx_uart.c **** 	case UART_DATABIT_5:
 524:core/lpc17xx_uart.c **** 		tmp |= UART_LCR_WLEN5;
 525:core/lpc17xx_uart.c **** 		break;
 526:core/lpc17xx_uart.c **** 	case UART_DATABIT_6:
 527:core/lpc17xx_uart.c **** 		tmp |= UART_LCR_WLEN6;
 1203              		.loc 1 527 0
 1204 022a FB68     		ldr	r3, [r7, #12]	@ tmp274, tmp
 1205 022c 43F00103 		orr	r3, r3, #1	@ tmp273, tmp274,
 1206 0230 FB60     		str	r3, [r7, #12]	@ tmp273, tmp
 528:core/lpc17xx_uart.c **** 		break;
 1207              		.loc 1 528 0
 1208 0232 0AE0     		b	.L80	@
 1209              	.L78:
 529:core/lpc17xx_uart.c **** 	case UART_DATABIT_7:
 530:core/lpc17xx_uart.c **** 		tmp |= UART_LCR_WLEN7;
 1210              		.loc 1 530 0
 1211 0234 FB68     		ldr	r3, [r7, #12]	@ tmp276, tmp
 1212 0236 43F00203 		orr	r3, r3, #2	@ tmp275, tmp276,
 1213 023a FB60     		str	r3, [r7, #12]	@ tmp275, tmp
 531:core/lpc17xx_uart.c **** 		break;
 1214              		.loc 1 531 0
 1215 023c 05E0     		b	.L80	@
 1216              	.L93:
 532:core/lpc17xx_uart.c **** 	case UART_DATABIT_8:
 533:core/lpc17xx_uart.c **** 	default:
 534:core/lpc17xx_uart.c **** 		tmp |= UART_LCR_WLEN8;
ARM GAS  C:\Users\STUDENT\AppData\Local\Temp\ccMxouBa.s 			page 32


 1217              		.loc 1 534 0
 1218 023e FB68     		ldr	r3, [r7, #12]	@ tmp278, tmp
 1219 0240 43F00303 		orr	r3, r3, #3	@ tmp277, tmp278,
 1220 0244 FB60     		str	r3, [r7, #12]	@ tmp277, tmp
 535:core/lpc17xx_uart.c **** 		break;
 1221              		.loc 1 535 0
 1222 0246 00E0     		b	.L80	@
 1223              	.L94:
 525:core/lpc17xx_uart.c **** 	case UART_DATABIT_6:
 1224              		.loc 1 525 0
 1225 0248 00BF     		nop
 1226              	.L80:
 536:core/lpc17xx_uart.c **** 	}
 537:core/lpc17xx_uart.c **** 
 538:core/lpc17xx_uart.c **** 	if (UART_ConfigStruct->Parity == UART_PARITY_NONE)
 1227              		.loc 1 538 0
 1228 024a 3B68     		ldr	r3, [r7]	@ tmp279, UART_ConfigStruct
 1229 024c 1B79     		ldrb	r3, [r3, #4]	@ zero_extendqisi2	@ D.6709, UART_ConfigStruct_19(D)->Parity
 1230 024e 002B     		cmp	r3, #0	@ D.6709,
 1231 0250 24D0     		beq	.L81	@,
 539:core/lpc17xx_uart.c **** 	{
 540:core/lpc17xx_uart.c **** 		// Do nothing...
 541:core/lpc17xx_uart.c **** 	}
 542:core/lpc17xx_uart.c **** 	else
 543:core/lpc17xx_uart.c **** 	{
 544:core/lpc17xx_uart.c **** 		tmp |= UART_LCR_PARITY_EN;
 1232              		.loc 1 544 0
 1233 0252 FB68     		ldr	r3, [r7, #12]	@ tmp281, tmp
 1234 0254 43F00803 		orr	r3, r3, #8	@ tmp280, tmp281,
 1235 0258 FB60     		str	r3, [r7, #12]	@ tmp280, tmp
 545:core/lpc17xx_uart.c **** 		switch (UART_ConfigStruct->Parity)
 1236              		.loc 1 545 0
 1237 025a 3B68     		ldr	r3, [r7]	@ tmp282, UART_ConfigStruct
 1238 025c 1B79     		ldrb	r3, [r3, #4]	@ zero_extendqisi2	@ D.6709, UART_ConfigStruct_19(D)->Parity
 1239 025e 013B     		subs	r3, r3, #1	@ tmp283, D.6711,
 1240 0260 032B     		cmp	r3, #3	@ tmp283,
 1241 0262 1AD8     		bhi	.L95	@
 1242 0264 01A2     		adr	r2, .L84	@ tmp301,
 1243 0266 52F823F0 		ldr	pc, [r2, r3, lsl #2]	@ tmp301, tmp283
 1244 026a 00BF     		.p2align 2
 1245              	.L84:
 1246 026c 9B020000 		.word	.L95+1
 1247 0270 7D020000 		.word	.L85+1
 1248 0274 87020000 		.word	.L86+1
 1249 0278 91020000 		.word	.L87+1
 1250              		.p2align 1
 1251              	.L85:
 546:core/lpc17xx_uart.c **** 		{
 547:core/lpc17xx_uart.c **** 		case UART_PARITY_ODD:
 548:core/lpc17xx_uart.c **** 			tmp |= UART_LCR_PARITY_ODD;
 549:core/lpc17xx_uart.c **** 			break;
 550:core/lpc17xx_uart.c **** 
 551:core/lpc17xx_uart.c **** 		case UART_PARITY_EVEN:
 552:core/lpc17xx_uart.c **** 			tmp |= UART_LCR_PARITY_EVEN;
 1252              		.loc 1 552 0
 1253 027c FB68     		ldr	r3, [r7, #12]	@ tmp285, tmp
 1254 027e 43F01003 		orr	r3, r3, #16	@ tmp284, tmp285,
ARM GAS  C:\Users\STUDENT\AppData\Local\Temp\ccMxouBa.s 			page 33


 1255 0282 FB60     		str	r3, [r7, #12]	@ tmp284, tmp
 553:core/lpc17xx_uart.c **** 			break;
 1256              		.loc 1 553 0
 1257 0284 0AE0     		b	.L81	@
 1258              	.L86:
 554:core/lpc17xx_uart.c **** 
 555:core/lpc17xx_uart.c **** 		case UART_PARITY_SP_1:
 556:core/lpc17xx_uart.c **** 			tmp |= UART_LCR_PARITY_F_1;
 1259              		.loc 1 556 0
 1260 0286 FB68     		ldr	r3, [r7, #12]	@ tmp287, tmp
 1261 0288 43F02003 		orr	r3, r3, #32	@ tmp286, tmp287,
 1262 028c FB60     		str	r3, [r7, #12]	@ tmp286, tmp
 557:core/lpc17xx_uart.c **** 			break;
 1263              		.loc 1 557 0
 1264 028e 05E0     		b	.L81	@
 1265              	.L87:
 558:core/lpc17xx_uart.c **** 
 559:core/lpc17xx_uart.c **** 		case UART_PARITY_SP_0:
 560:core/lpc17xx_uart.c **** 			tmp |= UART_LCR_PARITY_F_0;
 1266              		.loc 1 560 0
 1267 0290 FB68     		ldr	r3, [r7, #12]	@ tmp289, tmp
 1268 0292 43F03003 		orr	r3, r3, #48	@ tmp288, tmp289,
 1269 0296 FB60     		str	r3, [r7, #12]	@ tmp288, tmp
 561:core/lpc17xx_uart.c **** 			break;
 1270              		.loc 1 561 0
 1271 0298 00E0     		b	.L81	@
 1272              	.L95:
 562:core/lpc17xx_uart.c **** 		default:
 563:core/lpc17xx_uart.c **** 			break;
 1273              		.loc 1 563 0
 1274 029a 00BF     		nop
 1275              	.L81:
 564:core/lpc17xx_uart.c **** 		}
 565:core/lpc17xx_uart.c **** 	}
 566:core/lpc17xx_uart.c **** 
 567:core/lpc17xx_uart.c **** 	switch (UART_ConfigStruct->Stopbits){
 1276              		.loc 1 567 0
 1277 029c 3B68     		ldr	r3, [r7]	@ tmp290, UART_ConfigStruct
 1278 029e 9B79     		ldrb	r3, [r3, #6]	@ zero_extendqisi2	@ D.6708, UART_ConfigStruct_19(D)->Stopbits
 1279 02a0 012B     		cmp	r3, #1	@ D.6711,
 1280 02a2 0BD0     		beq	.L89	@,
 568:core/lpc17xx_uart.c **** 	case UART_STOPBIT_2:
 569:core/lpc17xx_uart.c **** 		tmp |= UART_LCR_STOPBIT_SEL;
 570:core/lpc17xx_uart.c **** 		break;
 571:core/lpc17xx_uart.c **** 	case UART_STOPBIT_1:
 572:core/lpc17xx_uart.c **** 	default:
 573:core/lpc17xx_uart.c **** 		// Do no thing
 574:core/lpc17xx_uart.c **** 		break;
 1281              		.loc 1 574 0
 1282 02a4 0FE0     		b	.L90	@
 1283              	.L98:
 1284 02a6 00BF     		.align	2
 1285              	.L97:
 1286 02a8 00C00040 		.word	1073790976
 1287 02ac 00000140 		.word	1073807360
 1288 02b0 00800940 		.word	1074364416
 1289 02b4 00C00940 		.word	1074380800
ARM GAS  C:\Users\STUDENT\AppData\Local\Temp\ccMxouBa.s 			page 34


 1290 02b8 00000000 		.word	.LC0
 1291              	.L89:
 569:core/lpc17xx_uart.c **** 		break;
 1292              		.loc 1 569 0
 1293 02bc FB68     		ldr	r3, [r7, #12]	@ tmp292, tmp
 1294 02be 43F00403 		orr	r3, r3, #4	@ tmp291, tmp292,
 1295 02c2 FB60     		str	r3, [r7, #12]	@ tmp291, tmp
 570:core/lpc17xx_uart.c **** 	case UART_STOPBIT_1:
 1296              		.loc 1 570 0
 1297 02c4 00BF     		nop
 1298              	.L90:
 575:core/lpc17xx_uart.c **** 	}
 576:core/lpc17xx_uart.c **** 
 577:core/lpc17xx_uart.c **** 
 578:core/lpc17xx_uart.c **** 	// Write back to LCR, configure FIFO and Disable Tx
 579:core/lpc17xx_uart.c **** 	if (((LPC_UART1_TypeDef *)UARTx) ==  LPC_UART1)
 1299              		.loc 1 579 0
 1300 02c6 7B68     		ldr	r3, [r7, #4]	@ tmp293, UARTx
 1301 02c8 074A     		ldr	r2, .L99	@ tmp294,
 1302 02ca 9342     		cmp	r3, r2	@ tmp293, tmp294
 1303 02cc 04D1     		bne	.L91	@,
 580:core/lpc17xx_uart.c **** 	{
 581:core/lpc17xx_uart.c **** 		((LPC_UART1_TypeDef *)UARTx)->LCR = (uint8_t)(tmp & UART_LCR_BITMASK);
 1304              		.loc 1 581 0
 1305 02ce FB68     		ldr	r3, [r7, #12]	@ tmp295, tmp
 1306 02d0 DAB2     		uxtb	r2, r3	@ D.6710, tmp295
 1307 02d2 7B68     		ldr	r3, [r7, #4]	@ tmp296, UARTx
 1308 02d4 1A73     		strb	r2, [r3, #12]	@ tmp297, MEM[(struct LPC_UART1_TypeDef *)UARTx_16(D)].LCR
 582:core/lpc17xx_uart.c **** 	}
 583:core/lpc17xx_uart.c **** 	else
 584:core/lpc17xx_uart.c **** 	{
 585:core/lpc17xx_uart.c **** 		UARTx->LCR = (uint8_t)(tmp & UART_LCR_BITMASK);
 586:core/lpc17xx_uart.c **** 	}
 587:core/lpc17xx_uart.c **** }
 1309              		.loc 1 587 0
 1310 02d6 03E0     		b	.L96	@
 1311              	.L91:
 585:core/lpc17xx_uart.c **** 	}
 1312              		.loc 1 585 0
 1313 02d8 FB68     		ldr	r3, [r7, #12]	@ tmp298, tmp
 1314 02da DAB2     		uxtb	r2, r3	@ D.6710, tmp298
 1315 02dc 7B68     		ldr	r3, [r7, #4]	@ tmp299, UARTx
 1316 02de 1A73     		strb	r2, [r3, #12]	@ tmp300, UARTx_16(D)->LCR
 1317              	.L96:
 1318              		.loc 1 587 0
 1319 02e0 00BF     		nop
 1320 02e2 1037     		adds	r7, r7, #16	@,,
 1321              		.cfi_def_cfa_offset 8
 1322 02e4 BD46     		mov	sp, r7	@,
 1323              		.cfi_def_cfa_register 13
 1324              		@ sp needed	@
 1325 02e6 80BD     		pop	{r7, pc}	@
 1326              	.L100:
 1327              		.align	2
 1328              	.L99:
 1329 02e8 00000140 		.word	1073807360
 1330              		.cfi_endproc
ARM GAS  C:\Users\STUDENT\AppData\Local\Temp\ccMxouBa.s 			page 35


 1331              	.LFE59:
 1332              		.size	UART_Init, .-UART_Init
 1333              		.section	.text.UART_ConfigStructInit,"ax",%progbits
 1334              		.align	2
 1335              		.global	UART_ConfigStructInit
 1336              		.thumb
 1337              		.thumb_func
 1338              		.type	UART_ConfigStructInit, %function
 1339              	UART_ConfigStructInit:
 1340              	.LFB60:
 588:core/lpc17xx_uart.c **** 
 589:core/lpc17xx_uart.c **** 
 590:core/lpc17xx_uart.c **** /*****************************************************************************//**
 591:core/lpc17xx_uart.c **** * @brief		Fills each UART_InitStruct member with its default value:
 592:core/lpc17xx_uart.c **** * 				9600 bps
 593:core/lpc17xx_uart.c **** * 				8-bit data
 594:core/lpc17xx_uart.c **** * 				1 Stopbit
 595:core/lpc17xx_uart.c **** * 				None Parity
 596:core/lpc17xx_uart.c **** * @param[in]	UART_InitStruct Pointer to a UART_CFG_Type structure
 597:core/lpc17xx_uart.c **** *                    which will be initialized.
 598:core/lpc17xx_uart.c **** * @return		None
 599:core/lpc17xx_uart.c **** *******************************************************************************/
 600:core/lpc17xx_uart.c **** void UART_ConfigStructInit(UART_CFG_Type *UART_InitStruct)
 601:core/lpc17xx_uart.c **** {
 1341              		.loc 1 601 0
 1342              		.cfi_startproc
 1343              		@ args = 0, pretend = 0, frame = 8
 1344              		@ frame_needed = 1, uses_anonymous_args = 0
 1345              		@ link register save eliminated.
 1346 0000 80B4     		push	{r7}	@
 1347              		.cfi_def_cfa_offset 4
 1348              		.cfi_offset 7, -4
 1349 0002 83B0     		sub	sp, sp, #12	@,,
 1350              		.cfi_def_cfa_offset 16
 1351 0004 00AF     		add	r7, sp, #0	@,,
 1352              		.cfi_def_cfa_register 7
 1353 0006 7860     		str	r0, [r7, #4]	@ UART_InitStruct, UART_InitStruct
 602:core/lpc17xx_uart.c **** 	UART_InitStruct->Baud_rate = 9600;
 1354              		.loc 1 602 0
 1355 0008 7B68     		ldr	r3, [r7, #4]	@ tmp110, UART_InitStruct
 1356 000a 4FF41652 		mov	r2, #9600	@ tmp111,
 1357 000e 1A60     		str	r2, [r3]	@ tmp111, UART_InitStruct_2(D)->Baud_rate
 603:core/lpc17xx_uart.c **** 	UART_InitStruct->Databits = UART_DATABIT_8;
 1358              		.loc 1 603 0
 1359 0010 7B68     		ldr	r3, [r7, #4]	@ tmp112, UART_InitStruct
 1360 0012 0322     		movs	r2, #3	@ tmp113,
 1361 0014 5A71     		strb	r2, [r3, #5]	@ tmp114, UART_InitStruct_2(D)->Databits
 604:core/lpc17xx_uart.c **** 	UART_InitStruct->Parity = UART_PARITY_NONE;
 1362              		.loc 1 604 0
 1363 0016 7B68     		ldr	r3, [r7, #4]	@ tmp115, UART_InitStruct
 1364 0018 0022     		movs	r2, #0	@ tmp116,
 1365 001a 1A71     		strb	r2, [r3, #4]	@ tmp117, UART_InitStruct_2(D)->Parity
 605:core/lpc17xx_uart.c **** 	UART_InitStruct->Stopbits = UART_STOPBIT_1;
 1366              		.loc 1 605 0
 1367 001c 7B68     		ldr	r3, [r7, #4]	@ tmp118, UART_InitStruct
 1368 001e 0022     		movs	r2, #0	@ tmp119,
 1369 0020 9A71     		strb	r2, [r3, #6]	@ tmp120, UART_InitStruct_2(D)->Stopbits
ARM GAS  C:\Users\STUDENT\AppData\Local\Temp\ccMxouBa.s 			page 36


 606:core/lpc17xx_uart.c **** }
 1370              		.loc 1 606 0
 1371 0022 00BF     		nop
 1372 0024 0C37     		adds	r7, r7, #12	@,,
 1373              		.cfi_def_cfa_offset 4
 1374 0026 BD46     		mov	sp, r7	@,
 1375              		.cfi_def_cfa_register 13
 1376              		@ sp needed	@
 1377 0028 80BC     		pop	{r7}	@
 1378              		.cfi_restore 7
 1379              		.cfi_def_cfa_offset 0
 1380 002a 7047     		bx	lr	@
 1381              		.cfi_endproc
 1382              	.LFE60:
 1383              		.size	UART_ConfigStructInit, .-UART_ConfigStructInit
 1384              		.section	.text.UART_SendData,"ax",%progbits
 1385              		.align	2
 1386              		.global	UART_SendData
 1387              		.thumb
 1388              		.thumb_func
 1389              		.type	UART_SendData, %function
 1390              	UART_SendData:
 1391              	.LFB61:
 607:core/lpc17xx_uart.c **** 
 608:core/lpc17xx_uart.c **** 
 609:core/lpc17xx_uart.c **** /*********************************************************************//**
 610:core/lpc17xx_uart.c ****  * @brief		Transmit a single data through UART peripheral
 611:core/lpc17xx_uart.c ****  * @param[in]	UARTx	UART peripheral selected, should be UART0, UART1,
 612:core/lpc17xx_uart.c ****  * 						UART2 or UART3.
 613:core/lpc17xx_uart.c ****  * @param[in]	Data	Data to transmit (must be 8-bit long)
 614:core/lpc17xx_uart.c ****  * @return none
 615:core/lpc17xx_uart.c ****  **********************************************************************/
 616:core/lpc17xx_uart.c **** void UART_SendData(LPC_UART_TypeDef* UARTx, uint8_t Data)
 617:core/lpc17xx_uart.c **** {
 1392              		.loc 1 617 0
 1393              		.cfi_startproc
 1394              		@ args = 0, pretend = 0, frame = 8
 1395              		@ frame_needed = 1, uses_anonymous_args = 0
 1396 0000 80B5     		push	{r7, lr}	@
 1397              		.cfi_def_cfa_offset 8
 1398              		.cfi_offset 7, -8
 1399              		.cfi_offset 14, -4
 1400 0002 82B0     		sub	sp, sp, #8	@,,
 1401              		.cfi_def_cfa_offset 16
 1402 0004 00AF     		add	r7, sp, #0	@,,
 1403              		.cfi_def_cfa_register 7
 1404 0006 7860     		str	r0, [r7, #4]	@ UARTx, UARTx
 1405 0008 0B46     		mov	r3, r1	@ tmp110, Data
 1406 000a FB70     		strb	r3, [r7, #3]	@ tmp111, Data
 618:core/lpc17xx_uart.c **** 	CHECK_PARAM(PARAM_UARTx(UARTx));
 1407              		.loc 1 618 0
 1408 000c 7B68     		ldr	r3, [r7, #4]	@ tmp112, UARTx
 1409 000e 114A     		ldr	r2, .L107	@ tmp113,
 1410 0010 9342     		cmp	r3, r2	@ tmp112, tmp113
 1411 0012 10D0     		beq	.L103	@,
 1412              		.loc 1 618 0 is_stmt 0 discriminator 1
 1413 0014 7B68     		ldr	r3, [r7, #4]	@ tmp114, UARTx
ARM GAS  C:\Users\STUDENT\AppData\Local\Temp\ccMxouBa.s 			page 37


 1414 0016 104A     		ldr	r2, .L107+4	@ tmp115,
 1415 0018 9342     		cmp	r3, r2	@ tmp114, tmp115
 1416 001a 0CD0     		beq	.L103	@,
 1417              		.loc 1 618 0 discriminator 2
 1418 001c 7B68     		ldr	r3, [r7, #4]	@ tmp116, UARTx
 1419 001e 0F4A     		ldr	r2, .L107+8	@ tmp117,
 1420 0020 9342     		cmp	r3, r2	@ tmp116, tmp117
 1421 0022 08D0     		beq	.L103	@,
 1422              		.loc 1 618 0 discriminator 3
 1423 0024 7B68     		ldr	r3, [r7, #4]	@ tmp118, UARTx
 1424 0026 0E4A     		ldr	r2, .L107+12	@ tmp119,
 1425 0028 9342     		cmp	r3, r2	@ tmp118, tmp119
 1426 002a 04D0     		beq	.L103	@,
 1427              		.loc 1 618 0 discriminator 4
 1428 002c 40F26A21 		movw	r1, #618	@,
 1429 0030 0C48     		ldr	r0, .L107+16	@,
 1430 0032 FFF7FEFF 		bl	check_failed	@
 1431              	.L103:
 619:core/lpc17xx_uart.c **** 
 620:core/lpc17xx_uart.c **** 	if (((LPC_UART1_TypeDef *)UARTx) == LPC_UART1)
 1432              		.loc 1 620 0 is_stmt 1
 1433 0036 7B68     		ldr	r3, [r7, #4]	@ tmp120, UARTx
 1434 0038 074A     		ldr	r2, .L107+4	@ tmp121,
 1435 003a 9342     		cmp	r3, r2	@ tmp120, tmp121
 1436 003c 03D1     		bne	.L104	@,
 621:core/lpc17xx_uart.c **** 	{
 622:core/lpc17xx_uart.c **** 		((LPC_UART1_TypeDef *)UARTx)->/*RBTHDLR.*/THR = Data & UART_THR_MASKBIT;
 1437              		.loc 1 622 0
 1438 003e 7B68     		ldr	r3, [r7, #4]	@ tmp122, UARTx
 1439 0040 FA78     		ldrb	r2, [r7, #3]	@ tmp123, Data
 1440 0042 1A70     		strb	r2, [r3]	@ tmp123, MEM[(struct LPC_UART1_TypeDef *)UARTx_3(D)].D.4871.THR
 623:core/lpc17xx_uart.c **** 	}
 624:core/lpc17xx_uart.c **** 	else
 625:core/lpc17xx_uart.c **** 	{
 626:core/lpc17xx_uart.c **** 		UARTx->/*RBTHDLR.*/THR = Data & UART_THR_MASKBIT;
 627:core/lpc17xx_uart.c **** 	}
 628:core/lpc17xx_uart.c **** 
 629:core/lpc17xx_uart.c **** }
 1441              		.loc 1 629 0
 1442 0044 02E0     		b	.L106	@
 1443              	.L104:
 626:core/lpc17xx_uart.c **** 	}
 1444              		.loc 1 626 0
 1445 0046 7B68     		ldr	r3, [r7, #4]	@ tmp124, UARTx
 1446 0048 FA78     		ldrb	r2, [r7, #3]	@ tmp125, Data
 1447 004a 1A70     		strb	r2, [r3]	@ tmp125, UARTx_3(D)->D.4811.THR
 1448              	.L106:
 1449              		.loc 1 629 0
 1450 004c 00BF     		nop
 1451 004e 0837     		adds	r7, r7, #8	@,,
 1452              		.cfi_def_cfa_offset 8
 1453 0050 BD46     		mov	sp, r7	@,
 1454              		.cfi_def_cfa_register 13
 1455              		@ sp needed	@
 1456 0052 80BD     		pop	{r7, pc}	@
 1457              	.L108:
 1458              		.align	2
ARM GAS  C:\Users\STUDENT\AppData\Local\Temp\ccMxouBa.s 			page 38


 1459              	.L107:
 1460 0054 00C00040 		.word	1073790976
 1461 0058 00000140 		.word	1073807360
 1462 005c 00800940 		.word	1074364416
 1463 0060 00C00940 		.word	1074380800
 1464 0064 00000000 		.word	.LC0
 1465              		.cfi_endproc
 1466              	.LFE61:
 1467              		.size	UART_SendData, .-UART_SendData
 1468              		.section	.text.UART_ReceiveData,"ax",%progbits
 1469              		.align	2
 1470              		.global	UART_ReceiveData
 1471              		.thumb
 1472              		.thumb_func
 1473              		.type	UART_ReceiveData, %function
 1474              	UART_ReceiveData:
 1475              	.LFB62:
 630:core/lpc17xx_uart.c **** 
 631:core/lpc17xx_uart.c **** 
 632:core/lpc17xx_uart.c **** /*********************************************************************//**
 633:core/lpc17xx_uart.c ****  * @brief		Receive a single data from UART peripheral
 634:core/lpc17xx_uart.c ****  * @param[in]	UARTx	UART peripheral selected, should be UART0, UART1,
 635:core/lpc17xx_uart.c ****  * 						UART2 or UART3.
 636:core/lpc17xx_uart.c ****  * @return 		Data received
 637:core/lpc17xx_uart.c ****  **********************************************************************/
 638:core/lpc17xx_uart.c **** uint8_t UART_ReceiveData(LPC_UART_TypeDef* UARTx)
 639:core/lpc17xx_uart.c **** {
 1476              		.loc 1 639 0
 1477              		.cfi_startproc
 1478              		@ args = 0, pretend = 0, frame = 8
 1479              		@ frame_needed = 1, uses_anonymous_args = 0
 1480 0000 80B5     		push	{r7, lr}	@
 1481              		.cfi_def_cfa_offset 8
 1482              		.cfi_offset 7, -8
 1483              		.cfi_offset 14, -4
 1484 0002 82B0     		sub	sp, sp, #8	@,,
 1485              		.cfi_def_cfa_offset 16
 1486 0004 00AF     		add	r7, sp, #0	@,,
 1487              		.cfi_def_cfa_register 7
 1488 0006 7860     		str	r0, [r7, #4]	@ UARTx, UARTx
 640:core/lpc17xx_uart.c **** 	CHECK_PARAM(PARAM_UARTx(UARTx));
 1489              		.loc 1 640 0
 1490 0008 7B68     		ldr	r3, [r7, #4]	@ tmp112, UARTx
 1491 000a 114A     		ldr	r2, .L113	@ tmp113,
 1492 000c 9342     		cmp	r3, r2	@ tmp112, tmp113
 1493 000e 10D0     		beq	.L110	@,
 1494              		.loc 1 640 0 is_stmt 0 discriminator 1
 1495 0010 7B68     		ldr	r3, [r7, #4]	@ tmp114, UARTx
 1496 0012 104A     		ldr	r2, .L113+4	@ tmp115,
 1497 0014 9342     		cmp	r3, r2	@ tmp114, tmp115
 1498 0016 0CD0     		beq	.L110	@,
 1499              		.loc 1 640 0 discriminator 2
 1500 0018 7B68     		ldr	r3, [r7, #4]	@ tmp116, UARTx
 1501 001a 0F4A     		ldr	r2, .L113+8	@ tmp117,
 1502 001c 9342     		cmp	r3, r2	@ tmp116, tmp117
 1503 001e 08D0     		beq	.L110	@,
 1504              		.loc 1 640 0 discriminator 3
ARM GAS  C:\Users\STUDENT\AppData\Local\Temp\ccMxouBa.s 			page 39


 1505 0020 7B68     		ldr	r3, [r7, #4]	@ tmp118, UARTx
 1506 0022 0E4A     		ldr	r2, .L113+12	@ tmp119,
 1507 0024 9342     		cmp	r3, r2	@ tmp118, tmp119
 1508 0026 04D0     		beq	.L110	@,
 1509              		.loc 1 640 0 discriminator 4
 1510 0028 4FF42071 		mov	r1, #640	@,
 1511 002c 0C48     		ldr	r0, .L113+16	@,
 1512 002e FFF7FEFF 		bl	check_failed	@
 1513              	.L110:
 641:core/lpc17xx_uart.c **** 
 642:core/lpc17xx_uart.c **** 	if (((LPC_UART1_TypeDef *)UARTx) == LPC_UART1)
 1514              		.loc 1 642 0 is_stmt 1
 1515 0032 7B68     		ldr	r3, [r7, #4]	@ tmp120, UARTx
 1516 0034 074A     		ldr	r2, .L113+4	@ tmp121,
 1517 0036 9342     		cmp	r3, r2	@ tmp120, tmp121
 1518 0038 03D1     		bne	.L111	@,
 643:core/lpc17xx_uart.c **** 	{
 644:core/lpc17xx_uart.c **** 		return (((LPC_UART1_TypeDef *)UARTx)->/*RBTHDLR.*/RBR & UART_RBR_MASKBIT);
 1519              		.loc 1 644 0
 1520 003a 7B68     		ldr	r3, [r7, #4]	@ tmp122, UARTx
 1521 003c 1B78     		ldrb	r3, [r3]	@ tmp123, MEM[(struct LPC_UART1_TypeDef *)UARTx_3(D)].D.4871.RBR
 1522 003e DBB2     		uxtb	r3, r3	@ D.6713, tmp123
 1523 0040 02E0     		b	.L112	@
 1524              	.L111:
 645:core/lpc17xx_uart.c **** 	}
 646:core/lpc17xx_uart.c **** 	else
 647:core/lpc17xx_uart.c **** 	{
 648:core/lpc17xx_uart.c **** 		return (UARTx->/*RBTHDLR.*/RBR & UART_RBR_MASKBIT);
 1525              		.loc 1 648 0
 1526 0042 7B68     		ldr	r3, [r7, #4]	@ tmp124, UARTx
 1527 0044 1B78     		ldrb	r3, [r3]	@ tmp125, UARTx_3(D)->D.4811.RBR
 1528 0046 DBB2     		uxtb	r3, r3	@ D.6713, tmp125
 1529              	.L112:
 649:core/lpc17xx_uart.c **** 	}
 650:core/lpc17xx_uart.c **** }
 1530              		.loc 1 650 0
 1531 0048 1846     		mov	r0, r3	@, <retval>
 1532 004a 0837     		adds	r7, r7, #8	@,,
 1533              		.cfi_def_cfa_offset 8
 1534 004c BD46     		mov	sp, r7	@,
 1535              		.cfi_def_cfa_register 13
 1536              		@ sp needed	@
 1537 004e 80BD     		pop	{r7, pc}	@
 1538              	.L114:
 1539              		.align	2
 1540              	.L113:
 1541 0050 00C00040 		.word	1073790976
 1542 0054 00000140 		.word	1073807360
 1543 0058 00800940 		.word	1074364416
 1544 005c 00C00940 		.word	1074380800
 1545 0060 00000000 		.word	.LC0
 1546              		.cfi_endproc
 1547              	.LFE62:
 1548              		.size	UART_ReceiveData, .-UART_ReceiveData
 1549              		.section	.text.UART_ForceBreak,"ax",%progbits
 1550              		.align	2
 1551              		.global	UART_ForceBreak
ARM GAS  C:\Users\STUDENT\AppData\Local\Temp\ccMxouBa.s 			page 40


 1552              		.thumb
 1553              		.thumb_func
 1554              		.type	UART_ForceBreak, %function
 1555              	UART_ForceBreak:
 1556              	.LFB63:
 651:core/lpc17xx_uart.c **** 
 652:core/lpc17xx_uart.c **** 
 653:core/lpc17xx_uart.c **** /*********************************************************************//**
 654:core/lpc17xx_uart.c ****  * @brief		Force BREAK character on UART line, output pin UARTx TXD is
 655:core/lpc17xx_uart.c **** 				forced to logic 0.
 656:core/lpc17xx_uart.c ****  * @param[in]	UARTx	UART peripheral selected, should be UART0, UART1,
 657:core/lpc17xx_uart.c ****  * 						UART2 or UART3.
 658:core/lpc17xx_uart.c ****  * @return none
 659:core/lpc17xx_uart.c ****  **********************************************************************/
 660:core/lpc17xx_uart.c **** void UART_ForceBreak(LPC_UART_TypeDef* UARTx)
 661:core/lpc17xx_uart.c **** {
 1557              		.loc 1 661 0
 1558              		.cfi_startproc
 1559              		@ args = 0, pretend = 0, frame = 8
 1560              		@ frame_needed = 1, uses_anonymous_args = 0
 1561 0000 80B5     		push	{r7, lr}	@
 1562              		.cfi_def_cfa_offset 8
 1563              		.cfi_offset 7, -8
 1564              		.cfi_offset 14, -4
 1565 0002 82B0     		sub	sp, sp, #8	@,,
 1566              		.cfi_def_cfa_offset 16
 1567 0004 00AF     		add	r7, sp, #0	@,,
 1568              		.cfi_def_cfa_register 7
 1569 0006 7860     		str	r0, [r7, #4]	@ UARTx, UARTx
 662:core/lpc17xx_uart.c **** 	CHECK_PARAM(PARAM_UARTx(UARTx));
 1570              		.loc 1 662 0
 1571 0008 7B68     		ldr	r3, [r7, #4]	@ tmp114, UARTx
 1572 000a 164A     		ldr	r2, .L120	@ tmp115,
 1573 000c 9342     		cmp	r3, r2	@ tmp114, tmp115
 1574 000e 10D0     		beq	.L116	@,
 1575              		.loc 1 662 0 is_stmt 0 discriminator 1
 1576 0010 7B68     		ldr	r3, [r7, #4]	@ tmp116, UARTx
 1577 0012 154A     		ldr	r2, .L120+4	@ tmp117,
 1578 0014 9342     		cmp	r3, r2	@ tmp116, tmp117
 1579 0016 0CD0     		beq	.L116	@,
 1580              		.loc 1 662 0 discriminator 2
 1581 0018 7B68     		ldr	r3, [r7, #4]	@ tmp118, UARTx
 1582 001a 144A     		ldr	r2, .L120+8	@ tmp119,
 1583 001c 9342     		cmp	r3, r2	@ tmp118, tmp119
 1584 001e 08D0     		beq	.L116	@,
 1585              		.loc 1 662 0 discriminator 3
 1586 0020 7B68     		ldr	r3, [r7, #4]	@ tmp120, UARTx
 1587 0022 134A     		ldr	r2, .L120+12	@ tmp121,
 1588 0024 9342     		cmp	r3, r2	@ tmp120, tmp121
 1589 0026 04D0     		beq	.L116	@,
 1590              		.loc 1 662 0 discriminator 4
 1591 0028 40F29621 		movw	r1, #662	@,
 1592 002c 1148     		ldr	r0, .L120+16	@,
 1593 002e FFF7FEFF 		bl	check_failed	@
 1594              	.L116:
 663:core/lpc17xx_uart.c **** 
 664:core/lpc17xx_uart.c **** 	if (((LPC_UART1_TypeDef *)UARTx) == LPC_UART1)
ARM GAS  C:\Users\STUDENT\AppData\Local\Temp\ccMxouBa.s 			page 41


 1595              		.loc 1 664 0 is_stmt 1
 1596 0032 7B68     		ldr	r3, [r7, #4]	@ tmp122, UARTx
 1597 0034 0C4A     		ldr	r2, .L120+4	@ tmp123,
 1598 0036 9342     		cmp	r3, r2	@ tmp122, tmp123
 1599 0038 08D1     		bne	.L117	@,
 665:core/lpc17xx_uart.c **** 	{
 666:core/lpc17xx_uart.c **** 		((LPC_UART1_TypeDef *)UARTx)->LCR |= UART_LCR_BREAK_EN;
 1600              		.loc 1 666 0
 1601 003a 7B68     		ldr	r3, [r7, #4]	@ tmp124, UARTx
 1602 003c 1B7B     		ldrb	r3, [r3, #12]	@ tmp126, MEM[(struct LPC_UART1_TypeDef *)UARTx_3(D)].LCR
 1603 003e DBB2     		uxtb	r3, r3	@ D.6714, tmp126
 1604 0040 43F04003 		orr	r3, r3, #64	@ tmp127, D.6714,
 1605 0044 DAB2     		uxtb	r2, r3	@ D.6714, tmp127
 1606 0046 7B68     		ldr	r3, [r7, #4]	@ tmp128, UARTx
 1607 0048 1A73     		strb	r2, [r3, #12]	@ tmp129, MEM[(struct LPC_UART1_TypeDef *)UARTx_3(D)].LCR
 667:core/lpc17xx_uart.c **** 	}
 668:core/lpc17xx_uart.c **** 	else
 669:core/lpc17xx_uart.c **** 	{
 670:core/lpc17xx_uart.c **** 		UARTx->LCR |= UART_LCR_BREAK_EN;
 671:core/lpc17xx_uart.c **** 	}
 672:core/lpc17xx_uart.c **** }
 1608              		.loc 1 672 0
 1609 004a 07E0     		b	.L119	@
 1610              	.L117:
 670:core/lpc17xx_uart.c **** 	}
 1611              		.loc 1 670 0
 1612 004c 7B68     		ldr	r3, [r7, #4]	@ tmp130, UARTx
 1613 004e 1B7B     		ldrb	r3, [r3, #12]	@ tmp132, UARTx_3(D)->LCR
 1614 0050 DBB2     		uxtb	r3, r3	@ D.6714, tmp132
 1615 0052 43F04003 		orr	r3, r3, #64	@ tmp133, D.6714,
 1616 0056 DAB2     		uxtb	r2, r3	@ D.6714, tmp133
 1617 0058 7B68     		ldr	r3, [r7, #4]	@ tmp134, UARTx
 1618 005a 1A73     		strb	r2, [r3, #12]	@ tmp135, UARTx_3(D)->LCR
 1619              	.L119:
 1620              		.loc 1 672 0
 1621 005c 00BF     		nop
 1622 005e 0837     		adds	r7, r7, #8	@,,
 1623              		.cfi_def_cfa_offset 8
 1624 0060 BD46     		mov	sp, r7	@,
 1625              		.cfi_def_cfa_register 13
 1626              		@ sp needed	@
 1627 0062 80BD     		pop	{r7, pc}	@
 1628              	.L121:
 1629              		.align	2
 1630              	.L120:
 1631 0064 00C00040 		.word	1073790976
 1632 0068 00000140 		.word	1073807360
 1633 006c 00800940 		.word	1074364416
 1634 0070 00C00940 		.word	1074380800
 1635 0074 00000000 		.word	.LC0
 1636              		.cfi_endproc
 1637              	.LFE63:
 1638              		.size	UART_ForceBreak, .-UART_ForceBreak
 1639              		.section	.text.UART_IrDAInvtInputCmd,"ax",%progbits
 1640              		.align	2
 1641              		.global	UART_IrDAInvtInputCmd
 1642              		.thumb
ARM GAS  C:\Users\STUDENT\AppData\Local\Temp\ccMxouBa.s 			page 42


 1643              		.thumb_func
 1644              		.type	UART_IrDAInvtInputCmd, %function
 1645              	UART_IrDAInvtInputCmd:
 1646              	.LFB64:
 673:core/lpc17xx_uart.c **** 
 674:core/lpc17xx_uart.c **** 
 675:core/lpc17xx_uart.c **** #ifdef _UART3
 676:core/lpc17xx_uart.c **** 
 677:core/lpc17xx_uart.c **** /*********************************************************************//**
 678:core/lpc17xx_uart.c ****  * @brief		Enable or disable inverting serial input function of IrDA
 679:core/lpc17xx_uart.c ****  * 				on UART peripheral.
 680:core/lpc17xx_uart.c ****  * @param[in]	UARTx UART peripheral selected, should be UART3 (only)
 681:core/lpc17xx_uart.c ****  * @param[in]	NewState New state of inverting serial input, should be:
 682:core/lpc17xx_uart.c ****  * 				- ENABLE: Enable this function.
 683:core/lpc17xx_uart.c ****  * 				- DISABLE: Disable this function.
 684:core/lpc17xx_uart.c ****  * @return none
 685:core/lpc17xx_uart.c ****  **********************************************************************/
 686:core/lpc17xx_uart.c **** void UART_IrDAInvtInputCmd(LPC_UART_TypeDef* UARTx, FunctionalState NewState)
 687:core/lpc17xx_uart.c **** {
 1647              		.loc 1 687 0
 1648              		.cfi_startproc
 1649              		@ args = 0, pretend = 0, frame = 8
 1650              		@ frame_needed = 1, uses_anonymous_args = 0
 1651 0000 80B5     		push	{r7, lr}	@
 1652              		.cfi_def_cfa_offset 8
 1653              		.cfi_offset 7, -8
 1654              		.cfi_offset 14, -4
 1655 0002 82B0     		sub	sp, sp, #8	@,,
 1656              		.cfi_def_cfa_offset 16
 1657 0004 00AF     		add	r7, sp, #0	@,,
 1658              		.cfi_def_cfa_register 7
 1659 0006 7860     		str	r0, [r7, #4]	@ UARTx, UARTx
 1660 0008 0B46     		mov	r3, r1	@ tmp114, NewState
 1661 000a FB70     		strb	r3, [r7, #3]	@ tmp115, NewState
 688:core/lpc17xx_uart.c **** 	CHECK_PARAM(PARAM_UART_IrDA(UARTx));
 1662              		.loc 1 688 0
 1663 000c 7B68     		ldr	r3, [r7, #4]	@ tmp116, UARTx
 1664 000e 194A     		ldr	r2, .L128	@ tmp117,
 1665 0010 9342     		cmp	r3, r2	@ tmp116, tmp117
 1666 0012 04D0     		beq	.L123	@,
 1667              		.loc 1 688 0 is_stmt 0 discriminator 1
 1668 0014 4FF42C71 		mov	r1, #688	@,
 1669 0018 1748     		ldr	r0, .L128+4	@,
 1670 001a FFF7FEFF 		bl	check_failed	@
 1671              	.L123:
 689:core/lpc17xx_uart.c **** 	CHECK_PARAM(PARAM_FUNCTIONALSTATE(NewState));
 1672              		.loc 1 689 0 is_stmt 1
 1673 001e FB78     		ldrb	r3, [r7, #3]	@ zero_extendqisi2	@ tmp118, NewState
 1674 0020 002B     		cmp	r3, #0	@ tmp118,
 1675 0022 07D0     		beq	.L124	@,
 1676              		.loc 1 689 0 is_stmt 0 discriminator 1
 1677 0024 FB78     		ldrb	r3, [r7, #3]	@ zero_extendqisi2	@ tmp119, NewState
 1678 0026 012B     		cmp	r3, #1	@ tmp119,
 1679 0028 04D0     		beq	.L124	@,
 1680              		.loc 1 689 0 discriminator 2
 1681 002a 40F2B121 		movw	r1, #689	@,
 1682 002e 1248     		ldr	r0, .L128+4	@,
ARM GAS  C:\Users\STUDENT\AppData\Local\Temp\ccMxouBa.s 			page 43


 1683 0030 FFF7FEFF 		bl	check_failed	@
 1684              	.L124:
 690:core/lpc17xx_uart.c **** 
 691:core/lpc17xx_uart.c **** 	if (NewState == ENABLE)
 1685              		.loc 1 691 0 is_stmt 1
 1686 0034 FB78     		ldrb	r3, [r7, #3]	@ zero_extendqisi2	@ tmp120, NewState
 1687 0036 012B     		cmp	r3, #1	@ tmp120,
 1688 0038 0AD1     		bne	.L125	@,
 692:core/lpc17xx_uart.c **** 	{
 693:core/lpc17xx_uart.c **** 		UARTx->ICR |= UART_ICR_IRDAINV;
 1689              		.loc 1 693 0
 1690 003a 7B68     		ldr	r3, [r7, #4]	@ tmp121, UARTx
 1691 003c 93F82430 		ldrb	r3, [r3, #36]	@ tmp123, UARTx_4(D)->ICR
 1692 0040 DBB2     		uxtb	r3, r3	@ D.6715, tmp123
 1693 0042 43F00203 		orr	r3, r3, #2	@ tmp124, D.6715,
 1694 0046 DAB2     		uxtb	r2, r3	@ D.6715, tmp124
 1695 0048 7B68     		ldr	r3, [r7, #4]	@ tmp125, UARTx
 1696 004a 83F82420 		strb	r2, [r3, #36]	@ tmp126, UARTx_4(D)->ICR
 694:core/lpc17xx_uart.c **** 	}
 695:core/lpc17xx_uart.c **** 	else if (NewState == DISABLE)
 696:core/lpc17xx_uart.c **** 	{
 697:core/lpc17xx_uart.c **** 		UARTx->ICR &= (~UART_ICR_IRDAINV) & UART_ICR_BITMASK;
 698:core/lpc17xx_uart.c **** 	}
 699:core/lpc17xx_uart.c **** }
 1697              		.loc 1 699 0
 1698 004e 0CE0     		b	.L127	@
 1699              	.L125:
 695:core/lpc17xx_uart.c **** 	{
 1700              		.loc 1 695 0
 1701 0050 FB78     		ldrb	r3, [r7, #3]	@ zero_extendqisi2	@ tmp127, NewState
 1702 0052 002B     		cmp	r3, #0	@ tmp127,
 1703 0054 09D1     		bne	.L127	@,
 697:core/lpc17xx_uart.c **** 	}
 1704              		.loc 1 697 0
 1705 0056 7B68     		ldr	r3, [r7, #4]	@ tmp128, UARTx
 1706 0058 93F82430 		ldrb	r3, [r3, #36]	@ tmp130, UARTx_4(D)->ICR
 1707 005c DBB2     		uxtb	r3, r3	@ D.6715, tmp130
 1708 005e 03F03D03 		and	r3, r3, #61	@ tmp131, D.6715,
 1709 0062 DAB2     		uxtb	r2, r3	@ D.6715, tmp131
 1710 0064 7B68     		ldr	r3, [r7, #4]	@ tmp132, UARTx
 1711 0066 83F82420 		strb	r2, [r3, #36]	@ tmp133, UARTx_4(D)->ICR
 1712              	.L127:
 1713              		.loc 1 699 0
 1714 006a 00BF     		nop
 1715 006c 0837     		adds	r7, r7, #8	@,,
 1716              		.cfi_def_cfa_offset 8
 1717 006e BD46     		mov	sp, r7	@,
 1718              		.cfi_def_cfa_register 13
 1719              		@ sp needed	@
 1720 0070 80BD     		pop	{r7, pc}	@
 1721              	.L129:
 1722 0072 00BF     		.align	2
 1723              	.L128:
 1724 0074 00C00940 		.word	1074380800
 1725 0078 00000000 		.word	.LC0
 1726              		.cfi_endproc
 1727              	.LFE64:
ARM GAS  C:\Users\STUDENT\AppData\Local\Temp\ccMxouBa.s 			page 44


 1728              		.size	UART_IrDAInvtInputCmd, .-UART_IrDAInvtInputCmd
 1729              		.section	.text.UART_IrDACmd,"ax",%progbits
 1730              		.align	2
 1731              		.global	UART_IrDACmd
 1732              		.thumb
 1733              		.thumb_func
 1734              		.type	UART_IrDACmd, %function
 1735              	UART_IrDACmd:
 1736              	.LFB65:
 700:core/lpc17xx_uart.c **** 
 701:core/lpc17xx_uart.c **** 
 702:core/lpc17xx_uart.c **** /*********************************************************************//**
 703:core/lpc17xx_uart.c ****  * @brief		Enable or disable IrDA function on UART peripheral.
 704:core/lpc17xx_uart.c ****  * @param[in]	UARTx UART peripheral selected, should be UART3 (only)
 705:core/lpc17xx_uart.c ****  * @param[in]	NewState New state of IrDA function, should be:
 706:core/lpc17xx_uart.c ****  * 				- ENABLE: Enable this function.
 707:core/lpc17xx_uart.c ****  * 				- DISABLE: Disable this function.
 708:core/lpc17xx_uart.c ****  * @return none
 709:core/lpc17xx_uart.c ****  **********************************************************************/
 710:core/lpc17xx_uart.c **** void UART_IrDACmd(LPC_UART_TypeDef* UARTx, FunctionalState NewState)
 711:core/lpc17xx_uart.c **** {
 1737              		.loc 1 711 0
 1738              		.cfi_startproc
 1739              		@ args = 0, pretend = 0, frame = 8
 1740              		@ frame_needed = 1, uses_anonymous_args = 0
 1741 0000 80B5     		push	{r7, lr}	@
 1742              		.cfi_def_cfa_offset 8
 1743              		.cfi_offset 7, -8
 1744              		.cfi_offset 14, -4
 1745 0002 82B0     		sub	sp, sp, #8	@,,
 1746              		.cfi_def_cfa_offset 16
 1747 0004 00AF     		add	r7, sp, #0	@,,
 1748              		.cfi_def_cfa_register 7
 1749 0006 7860     		str	r0, [r7, #4]	@ UARTx, UARTx
 1750 0008 0B46     		mov	r3, r1	@ tmp114, NewState
 1751 000a FB70     		strb	r3, [r7, #3]	@ tmp115, NewState
 712:core/lpc17xx_uart.c **** 	CHECK_PARAM(PARAM_UART_IrDA(UARTx));
 1752              		.loc 1 712 0
 1753 000c 7B68     		ldr	r3, [r7, #4]	@ tmp116, UARTx
 1754 000e 174A     		ldr	r2, .L136	@ tmp117,
 1755 0010 9342     		cmp	r3, r2	@ tmp116, tmp117
 1756 0012 04D0     		beq	.L131	@,
 1757              		.loc 1 712 0 is_stmt 0 discriminator 1
 1758 0014 4FF43271 		mov	r1, #712	@,
 1759 0018 1548     		ldr	r0, .L136+4	@,
 1760 001a FFF7FEFF 		bl	check_failed	@
 1761              	.L131:
 713:core/lpc17xx_uart.c **** 	CHECK_PARAM(PARAM_FUNCTIONALSTATE(NewState));
 1762              		.loc 1 713 0 is_stmt 1
 1763 001e FB78     		ldrb	r3, [r7, #3]	@ zero_extendqisi2	@ tmp118, NewState
 1764 0020 002B     		cmp	r3, #0	@ tmp118,
 1765 0022 07D0     		beq	.L132	@,
 1766              		.loc 1 713 0 is_stmt 0 discriminator 1
 1767 0024 FB78     		ldrb	r3, [r7, #3]	@ zero_extendqisi2	@ tmp119, NewState
 1768 0026 012B     		cmp	r3, #1	@ tmp119,
 1769 0028 04D0     		beq	.L132	@,
 1770              		.loc 1 713 0 discriminator 2
ARM GAS  C:\Users\STUDENT\AppData\Local\Temp\ccMxouBa.s 			page 45


 1771 002a 40F2C921 		movw	r1, #713	@,
 1772 002e 1048     		ldr	r0, .L136+4	@,
 1773 0030 FFF7FEFF 		bl	check_failed	@
 1774              	.L132:
 714:core/lpc17xx_uart.c **** 
 715:core/lpc17xx_uart.c **** 	if (NewState == ENABLE)
 1775              		.loc 1 715 0 is_stmt 1
 1776 0034 FB78     		ldrb	r3, [r7, #3]	@ zero_extendqisi2	@ tmp120, NewState
 1777 0036 012B     		cmp	r3, #1	@ tmp120,
 1778 0038 0AD1     		bne	.L133	@,
 716:core/lpc17xx_uart.c **** 	{
 717:core/lpc17xx_uart.c **** 		UARTx->ICR |= UART_ICR_IRDAEN;
 1779              		.loc 1 717 0
 1780 003a 7B68     		ldr	r3, [r7, #4]	@ tmp121, UARTx
 1781 003c 93F82430 		ldrb	r3, [r3, #36]	@ tmp123, UARTx_4(D)->ICR
 1782 0040 DBB2     		uxtb	r3, r3	@ D.6716, tmp123
 1783 0042 43F00103 		orr	r3, r3, #1	@ tmp124, D.6716,
 1784 0046 DAB2     		uxtb	r2, r3	@ D.6716, tmp124
 1785 0048 7B68     		ldr	r3, [r7, #4]	@ tmp125, UARTx
 1786 004a 83F82420 		strb	r2, [r3, #36]	@ tmp126, UARTx_4(D)->ICR
 718:core/lpc17xx_uart.c **** 	}
 719:core/lpc17xx_uart.c **** 	else
 720:core/lpc17xx_uart.c **** 	{
 721:core/lpc17xx_uart.c **** 		UARTx->ICR &= (~UART_ICR_IRDAEN) & UART_ICR_BITMASK;
 722:core/lpc17xx_uart.c **** 	}
 723:core/lpc17xx_uart.c **** }
 1787              		.loc 1 723 0
 1788 004e 09E0     		b	.L135	@
 1789              	.L133:
 721:core/lpc17xx_uart.c **** 	}
 1790              		.loc 1 721 0
 1791 0050 7B68     		ldr	r3, [r7, #4]	@ tmp127, UARTx
 1792 0052 93F82430 		ldrb	r3, [r3, #36]	@ tmp129, UARTx_4(D)->ICR
 1793 0056 DBB2     		uxtb	r3, r3	@ D.6716, tmp129
 1794 0058 03F03E03 		and	r3, r3, #62	@ tmp130, D.6716,
 1795 005c DAB2     		uxtb	r2, r3	@ D.6716, tmp130
 1796 005e 7B68     		ldr	r3, [r7, #4]	@ tmp131, UARTx
 1797 0060 83F82420 		strb	r2, [r3, #36]	@ tmp132, UARTx_4(D)->ICR
 1798              	.L135:
 1799              		.loc 1 723 0
 1800 0064 00BF     		nop
 1801 0066 0837     		adds	r7, r7, #8	@,,
 1802              		.cfi_def_cfa_offset 8
 1803 0068 BD46     		mov	sp, r7	@,
 1804              		.cfi_def_cfa_register 13
 1805              		@ sp needed	@
 1806 006a 80BD     		pop	{r7, pc}	@
 1807              	.L137:
 1808              		.align	2
 1809              	.L136:
 1810 006c 00C00940 		.word	1074380800
 1811 0070 00000000 		.word	.LC0
 1812              		.cfi_endproc
 1813              	.LFE65:
 1814              		.size	UART_IrDACmd, .-UART_IrDACmd
 1815              		.section	.text.UART_IrDAPulseDivConfig,"ax",%progbits
 1816              		.align	2
ARM GAS  C:\Users\STUDENT\AppData\Local\Temp\ccMxouBa.s 			page 46


 1817              		.global	UART_IrDAPulseDivConfig
 1818              		.thumb
 1819              		.thumb_func
 1820              		.type	UART_IrDAPulseDivConfig, %function
 1821              	UART_IrDAPulseDivConfig:
 1822              	.LFB66:
 724:core/lpc17xx_uart.c **** 
 725:core/lpc17xx_uart.c **** 
 726:core/lpc17xx_uart.c **** /*********************************************************************//**
 727:core/lpc17xx_uart.c ****  * @brief		Configure Pulse divider for IrDA function on UART peripheral.
 728:core/lpc17xx_uart.c ****  * @param[in]	UARTx UART peripheral selected, should be UART3 (only)
 729:core/lpc17xx_uart.c ****  * @param[in]	PulseDiv Pulse Divider value from Peripheral clock,
 730:core/lpc17xx_uart.c ****  * 				should be one of the following:
 731:core/lpc17xx_uart.c **** 				- UART_IrDA_PULSEDIV2 	: Pulse width = 2 * Tpclk
 732:core/lpc17xx_uart.c **** 				- UART_IrDA_PULSEDIV4 	: Pulse width = 4 * Tpclk
 733:core/lpc17xx_uart.c **** 				- UART_IrDA_PULSEDIV8 	: Pulse width = 8 * Tpclk
 734:core/lpc17xx_uart.c **** 				- UART_IrDA_PULSEDIV16 	: Pulse width = 16 * Tpclk
 735:core/lpc17xx_uart.c **** 				- UART_IrDA_PULSEDIV32 	: Pulse width = 32 * Tpclk
 736:core/lpc17xx_uart.c **** 				- UART_IrDA_PULSEDIV64 	: Pulse width = 64 * Tpclk
 737:core/lpc17xx_uart.c **** 				- UART_IrDA_PULSEDIV128 : Pulse width = 128 * Tpclk
 738:core/lpc17xx_uart.c **** 				- UART_IrDA_PULSEDIV256 : Pulse width = 256 * Tpclk
 739:core/lpc17xx_uart.c **** 
 740:core/lpc17xx_uart.c ****  * @return none
 741:core/lpc17xx_uart.c ****  **********************************************************************/
 742:core/lpc17xx_uart.c **** void UART_IrDAPulseDivConfig(LPC_UART_TypeDef *UARTx, UART_IrDA_PULSE_Type PulseDiv)
 743:core/lpc17xx_uart.c **** {
 1823              		.loc 1 743 0
 1824              		.cfi_startproc
 1825              		@ args = 0, pretend = 0, frame = 16
 1826              		@ frame_needed = 1, uses_anonymous_args = 0
 1827 0000 80B5     		push	{r7, lr}	@
 1828              		.cfi_def_cfa_offset 8
 1829              		.cfi_offset 7, -8
 1830              		.cfi_offset 14, -4
 1831 0002 84B0     		sub	sp, sp, #16	@,,
 1832              		.cfi_def_cfa_offset 24
 1833 0004 00AF     		add	r7, sp, #0	@,,
 1834              		.cfi_def_cfa_register 7
 1835 0006 7860     		str	r0, [r7, #4]	@ UARTx, UARTx
 1836 0008 0B46     		mov	r3, r1	@ tmp118, PulseDiv
 1837 000a FB70     		strb	r3, [r7, #3]	@ tmp119, PulseDiv
 744:core/lpc17xx_uart.c **** 	uint32_t tmp, tmp1;
 745:core/lpc17xx_uart.c **** 	CHECK_PARAM(PARAM_UART_IrDA(UARTx));
 1838              		.loc 1 745 0
 1839 000c 7B68     		ldr	r3, [r7, #4]	@ tmp120, UARTx
 1840 000e 214A     		ldr	r2, .L141	@ tmp121,
 1841 0010 9342     		cmp	r3, r2	@ tmp120, tmp121
 1842 0012 04D0     		beq	.L139	@,
 1843              		.loc 1 745 0 is_stmt 0 discriminator 1
 1844 0014 40F2E921 		movw	r1, #745	@,
 1845 0018 1F48     		ldr	r0, .L141+4	@,
 1846 001a FFF7FEFF 		bl	check_failed	@
 1847              	.L139:
 746:core/lpc17xx_uart.c **** 	CHECK_PARAM(PARAM_UART_IrDA_PULSEDIV(PulseDiv));
 1848              		.loc 1 746 0 is_stmt 1
 1849 001e FB78     		ldrb	r3, [r7, #3]	@ zero_extendqisi2	@ tmp122, PulseDiv
 1850 0020 002B     		cmp	r3, #0	@ tmp122,
ARM GAS  C:\Users\STUDENT\AppData\Local\Temp\ccMxouBa.s 			page 47


 1851 0022 19D0     		beq	.L140	@,
 1852              		.loc 1 746 0 is_stmt 0 discriminator 1
 1853 0024 FB78     		ldrb	r3, [r7, #3]	@ zero_extendqisi2	@ tmp123, PulseDiv
 1854 0026 012B     		cmp	r3, #1	@ tmp123,
 1855 0028 16D0     		beq	.L140	@,
 1856              		.loc 1 746 0 discriminator 2
 1857 002a FB78     		ldrb	r3, [r7, #3]	@ zero_extendqisi2	@ tmp124, PulseDiv
 1858 002c 022B     		cmp	r3, #2	@ tmp124,
 1859 002e 13D0     		beq	.L140	@,
 1860              		.loc 1 746 0 discriminator 3
 1861 0030 FB78     		ldrb	r3, [r7, #3]	@ zero_extendqisi2	@ tmp125, PulseDiv
 1862 0032 032B     		cmp	r3, #3	@ tmp125,
 1863 0034 10D0     		beq	.L140	@,
 1864              		.loc 1 746 0 discriminator 4
 1865 0036 FB78     		ldrb	r3, [r7, #3]	@ zero_extendqisi2	@ tmp126, PulseDiv
 1866 0038 042B     		cmp	r3, #4	@ tmp126,
 1867 003a 0DD0     		beq	.L140	@,
 1868              		.loc 1 746 0 discriminator 5
 1869 003c FB78     		ldrb	r3, [r7, #3]	@ zero_extendqisi2	@ tmp127, PulseDiv
 1870 003e 052B     		cmp	r3, #5	@ tmp127,
 1871 0040 0AD0     		beq	.L140	@,
 1872              		.loc 1 746 0 discriminator 6
 1873 0042 FB78     		ldrb	r3, [r7, #3]	@ zero_extendqisi2	@ tmp128, PulseDiv
 1874 0044 062B     		cmp	r3, #6	@ tmp128,
 1875 0046 07D0     		beq	.L140	@,
 1876              		.loc 1 746 0 discriminator 7
 1877 0048 FB78     		ldrb	r3, [r7, #3]	@ zero_extendqisi2	@ tmp129, PulseDiv
 1878 004a 072B     		cmp	r3, #7	@ tmp129,
 1879 004c 04D0     		beq	.L140	@,
 1880              		.loc 1 746 0 discriminator 8
 1881 004e 40F2EA21 		movw	r1, #746	@,
 1882 0052 1148     		ldr	r0, .L141+4	@,
 1883 0054 FFF7FEFF 		bl	check_failed	@
 1884              	.L140:
 747:core/lpc17xx_uart.c **** 
 748:core/lpc17xx_uart.c **** 	tmp1 = UART_ICR_PULSEDIV(PulseDiv);
 1885              		.loc 1 748 0 is_stmt 1
 1886 0058 FB78     		ldrb	r3, [r7, #3]	@ zero_extendqisi2	@ D.6717, PulseDiv
 1887 005a DB00     		lsls	r3, r3, #3	@ D.6717, D.6717,
 1888 005c 03F03803 		and	r3, r3, #56	@ tmp130, D.6718,
 1889 0060 FB60     		str	r3, [r7, #12]	@ tmp130, tmp1
 749:core/lpc17xx_uart.c **** 	tmp = UARTx->ICR & (~UART_ICR_PULSEDIV(7));
 1890              		.loc 1 749 0
 1891 0062 7B68     		ldr	r3, [r7, #4]	@ tmp131, UARTx
 1892 0064 93F82430 		ldrb	r3, [r3, #36]	@ tmp133, UARTx_3(D)->ICR
 1893 0068 DBB2     		uxtb	r3, r3	@ D.6719, tmp133
 1894 006a 23F03803 		bic	r3, r3, #56	@ tmp134, D.6718,
 1895 006e BB60     		str	r3, [r7, #8]	@ tmp134, tmp
 750:core/lpc17xx_uart.c **** 	tmp |= tmp1 | UART_ICR_FIXPULSE_EN;
 1896              		.loc 1 750 0
 1897 0070 FA68     		ldr	r2, [r7, #12]	@ tmp135, tmp1
 1898 0072 BB68     		ldr	r3, [r7, #8]	@ tmp136, tmp
 1899 0074 1343     		orrs	r3, r3, r2	@, D.6718, tmp136, tmp135
 1900 0076 43F00403 		orr	r3, r3, #4	@ tmp137, D.6718,
 1901 007a BB60     		str	r3, [r7, #8]	@ tmp137, tmp
 751:core/lpc17xx_uart.c **** 	UARTx->ICR = tmp & UART_ICR_BITMASK;
 1902              		.loc 1 751 0
ARM GAS  C:\Users\STUDENT\AppData\Local\Temp\ccMxouBa.s 			page 48


 1903 007c BB68     		ldr	r3, [r7, #8]	@ tmp138, tmp
 1904 007e DBB2     		uxtb	r3, r3	@ D.6719, tmp138
 1905 0080 03F03F03 		and	r3, r3, #63	@ tmp139, D.6719,
 1906 0084 DAB2     		uxtb	r2, r3	@ D.6719, tmp139
 1907 0086 7B68     		ldr	r3, [r7, #4]	@ tmp140, UARTx
 1908 0088 83F82420 		strb	r2, [r3, #36]	@ tmp141, UARTx_3(D)->ICR
 752:core/lpc17xx_uart.c **** }
 1909              		.loc 1 752 0
 1910 008c 00BF     		nop
 1911 008e 1037     		adds	r7, r7, #16	@,,
 1912              		.cfi_def_cfa_offset 8
 1913 0090 BD46     		mov	sp, r7	@,
 1914              		.cfi_def_cfa_register 13
 1915              		@ sp needed	@
 1916 0092 80BD     		pop	{r7, pc}	@
 1917              	.L142:
 1918              		.align	2
 1919              	.L141:
 1920 0094 00C00940 		.word	1074380800
 1921 0098 00000000 		.word	.LC0
 1922              		.cfi_endproc
 1923              	.LFE66:
 1924              		.size	UART_IrDAPulseDivConfig, .-UART_IrDAPulseDivConfig
 1925              		.section	.text.UART_IntConfig,"ax",%progbits
 1926              		.align	2
 1927              		.global	UART_IntConfig
 1928              		.thumb
 1929              		.thumb_func
 1930              		.type	UART_IntConfig, %function
 1931              	UART_IntConfig:
 1932              	.LFB67:
 753:core/lpc17xx_uart.c **** 
 754:core/lpc17xx_uart.c **** #endif
 755:core/lpc17xx_uart.c **** 
 756:core/lpc17xx_uart.c **** 
 757:core/lpc17xx_uart.c **** /********************************************************************//**
 758:core/lpc17xx_uart.c ****  * @brief 		Enable or disable specified UART interrupt.
 759:core/lpc17xx_uart.c ****  * @param[in]	UARTx	UART peripheral selected, should be UART0, UART1,
 760:core/lpc17xx_uart.c ****  * 						UART2 or UART3.
 761:core/lpc17xx_uart.c ****  * @param[in]	UARTIntCfg	Specifies the interrupt flag,
 762:core/lpc17xx_uart.c ****  * 				should be one of the following:
 763:core/lpc17xx_uart.c **** 				- UART_INTCFG_RBR 	:  RBR Interrupt enable
 764:core/lpc17xx_uart.c **** 				- UART_INTCFG_THRE 	:  THR Interrupt enable
 765:core/lpc17xx_uart.c **** 				- UART_INTCFG_RLS 	:  RX line status interrupt enable
 766:core/lpc17xx_uart.c **** 				- UART1_INTCFG_MS	:  Modem status interrupt enable (UART1 only)
 767:core/lpc17xx_uart.c **** 				- UART1_INTCFG_CTS	:  CTS1 signal transition interrupt enable (UART1 only)
 768:core/lpc17xx_uart.c **** 				- UART_INTCFG_ABEO 	:  Enables the end of auto-baud interrupt
 769:core/lpc17xx_uart.c **** 				- UART_INTCFG_ABTO 	:  Enables the auto-baud time-out interrupt
 770:core/lpc17xx_uart.c ****  * @param[in]	NewState New state of specified UART interrupt type,
 771:core/lpc17xx_uart.c ****  * 				should be:
 772:core/lpc17xx_uart.c ****  * 				- ENALBE: Enable this UART interrupt type.
 773:core/lpc17xx_uart.c **** * 				- DISALBE: Disable this UART interrupt type.
 774:core/lpc17xx_uart.c ****  * @return 		None
 775:core/lpc17xx_uart.c ****  *********************************************************************/
 776:core/lpc17xx_uart.c **** void UART_IntConfig(LPC_UART_TypeDef *UARTx, UART_INT_Type UARTIntCfg, FunctionalState NewState)
 777:core/lpc17xx_uart.c **** {
 1933              		.loc 1 777 0
ARM GAS  C:\Users\STUDENT\AppData\Local\Temp\ccMxouBa.s 			page 49


 1934              		.cfi_startproc
 1935              		@ args = 0, pretend = 0, frame = 16
 1936              		@ frame_needed = 1, uses_anonymous_args = 0
 1937 0000 80B5     		push	{r7, lr}	@
 1938              		.cfi_def_cfa_offset 8
 1939              		.cfi_offset 7, -8
 1940              		.cfi_offset 14, -4
 1941 0002 84B0     		sub	sp, sp, #16	@,,
 1942              		.cfi_def_cfa_offset 24
 1943 0004 00AF     		add	r7, sp, #0	@,,
 1944              		.cfi_def_cfa_register 7
 1945 0006 7860     		str	r0, [r7, #4]	@ UARTx, UARTx
 1946 0008 0B46     		mov	r3, r1	@ tmp123, UARTIntCfg
 1947 000a FB70     		strb	r3, [r7, #3]	@ tmp124, UARTIntCfg
 1948 000c 1346     		mov	r3, r2	@ tmp126, tmp125
 1949 000e BB70     		strb	r3, [r7, #2]	@ tmp126, NewState
 778:core/lpc17xx_uart.c **** 	uint32_t tmp;
 779:core/lpc17xx_uart.c **** 
 780:core/lpc17xx_uart.c **** 	CHECK_PARAM(PARAM_UARTx(UARTx));
 1950              		.loc 1 780 0
 1951 0010 7B68     		ldr	r3, [r7, #4]	@ tmp127, UARTx
 1952 0012 574A     		ldr	r2, .L163	@ tmp128,
 1953 0014 9342     		cmp	r3, r2	@ tmp127, tmp128
 1954 0016 10D0     		beq	.L144	@,
 1955              		.loc 1 780 0 is_stmt 0 discriminator 1
 1956 0018 7B68     		ldr	r3, [r7, #4]	@ tmp129, UARTx
 1957 001a 564A     		ldr	r2, .L163+4	@ tmp130,
 1958 001c 9342     		cmp	r3, r2	@ tmp129, tmp130
 1959 001e 0CD0     		beq	.L144	@,
 1960              		.loc 1 780 0 discriminator 2
 1961 0020 7B68     		ldr	r3, [r7, #4]	@ tmp131, UARTx
 1962 0022 554A     		ldr	r2, .L163+8	@ tmp132,
 1963 0024 9342     		cmp	r3, r2	@ tmp131, tmp132
 1964 0026 08D0     		beq	.L144	@,
 1965              		.loc 1 780 0 discriminator 3
 1966 0028 7B68     		ldr	r3, [r7, #4]	@ tmp133, UARTx
 1967 002a 544A     		ldr	r2, .L163+12	@ tmp134,
 1968 002c 9342     		cmp	r3, r2	@ tmp133, tmp134
 1969 002e 04D0     		beq	.L144	@,
 1970              		.loc 1 780 0 discriminator 4
 1971 0030 4FF44371 		mov	r1, #780	@,
 1972 0034 5248     		ldr	r0, .L163+16	@,
 1973 0036 FFF7FEFF 		bl	check_failed	@
 1974              	.L144:
 781:core/lpc17xx_uart.c **** 	CHECK_PARAM(PARAM_FUNCTIONALSTATE(NewState));
 1975              		.loc 1 781 0 is_stmt 1
 1976 003a BB78     		ldrb	r3, [r7, #2]	@ zero_extendqisi2	@ tmp135, NewState
 1977 003c 002B     		cmp	r3, #0	@ tmp135,
 1978 003e 07D0     		beq	.L145	@,
 1979              		.loc 1 781 0 is_stmt 0 discriminator 1
 1980 0040 BB78     		ldrb	r3, [r7, #2]	@ zero_extendqisi2	@ tmp136, NewState
 1981 0042 012B     		cmp	r3, #1	@ tmp136,
 1982 0044 04D0     		beq	.L145	@,
 1983              		.loc 1 781 0 discriminator 2
 1984 0046 40F20D31 		movw	r1, #781	@,
 1985 004a 4D48     		ldr	r0, .L163+16	@,
 1986 004c FFF7FEFF 		bl	check_failed	@
ARM GAS  C:\Users\STUDENT\AppData\Local\Temp\ccMxouBa.s 			page 50


 1987              	.L145:
 782:core/lpc17xx_uart.c **** 
 783:core/lpc17xx_uart.c **** 	switch(UARTIntCfg){
 1988              		.loc 1 783 0 is_stmt 1
 1989 0050 FB78     		ldrb	r3, [r7, #3]	@ zero_extendqisi2	@ D.6720, UARTIntCfg
 1990 0052 062B     		cmp	r3, #6	@ D.6720,
 1991 0054 27D8     		bhi	.L146	@
 1992 0056 01A2     		adr	r2, .L148	@ tmp175,
 1993 0058 52F823F0 		ldr	pc, [r2, r3, lsl #2]	@ tmp175, D.6720
 1994              		.p2align 2
 1995              	.L148:
 1996 005c 79000000 		.word	.L147+1
 1997 0060 7F000000 		.word	.L149+1
 1998 0064 85000000 		.word	.L150+1
 1999 0068 8B000000 		.word	.L151+1
 2000 006c 91000000 		.word	.L152+1
 2001 0070 97000000 		.word	.L153+1
 2002 0074 9F000000 		.word	.L154+1
 2003              		.p2align 1
 2004              	.L147:
 784:core/lpc17xx_uart.c **** 		case UART_INTCFG_RBR:
 785:core/lpc17xx_uart.c **** 			tmp = UART_IER_RBRINT_EN;
 2005              		.loc 1 785 0
 2006 0078 0123     		movs	r3, #1	@ tmp137,
 2007 007a FB60     		str	r3, [r7, #12]	@ tmp137, tmp
 786:core/lpc17xx_uart.c **** 			break;
 2008              		.loc 1 786 0
 2009 007c 13E0     		b	.L146	@
 2010              	.L149:
 787:core/lpc17xx_uart.c **** 		case UART_INTCFG_THRE:
 788:core/lpc17xx_uart.c **** 			tmp = UART_IER_THREINT_EN;
 2011              		.loc 1 788 0
 2012 007e 0223     		movs	r3, #2	@ tmp138,
 2013 0080 FB60     		str	r3, [r7, #12]	@ tmp138, tmp
 789:core/lpc17xx_uart.c **** 			break;
 2014              		.loc 1 789 0
 2015 0082 10E0     		b	.L146	@
 2016              	.L150:
 790:core/lpc17xx_uart.c **** 		case UART_INTCFG_RLS:
 791:core/lpc17xx_uart.c **** 			tmp = UART_IER_RLSINT_EN;
 2017              		.loc 1 791 0
 2018 0084 0423     		movs	r3, #4	@ tmp139,
 2019 0086 FB60     		str	r3, [r7, #12]	@ tmp139, tmp
 792:core/lpc17xx_uart.c **** 			break;
 2020              		.loc 1 792 0
 2021 0088 0DE0     		b	.L146	@
 2022              	.L151:
 793:core/lpc17xx_uart.c **** 		case UART1_INTCFG_MS:
 794:core/lpc17xx_uart.c **** 			tmp = UART1_IER_MSINT_EN;
 2023              		.loc 1 794 0
 2024 008a 0823     		movs	r3, #8	@ tmp140,
 2025 008c FB60     		str	r3, [r7, #12]	@ tmp140, tmp
 795:core/lpc17xx_uart.c **** 			break;
 2026              		.loc 1 795 0
 2027 008e 0AE0     		b	.L146	@
 2028              	.L152:
 796:core/lpc17xx_uart.c **** 		case UART1_INTCFG_CTS:
ARM GAS  C:\Users\STUDENT\AppData\Local\Temp\ccMxouBa.s 			page 51


 797:core/lpc17xx_uart.c **** 			tmp = UART1_IER_CTSINT_EN;
 2029              		.loc 1 797 0
 2030 0090 8023     		movs	r3, #128	@ tmp141,
 2031 0092 FB60     		str	r3, [r7, #12]	@ tmp141, tmp
 798:core/lpc17xx_uart.c **** 			break;
 2032              		.loc 1 798 0
 2033 0094 07E0     		b	.L146	@
 2034              	.L153:
 799:core/lpc17xx_uart.c **** 		case UART_INTCFG_ABEO:
 800:core/lpc17xx_uart.c **** 			tmp = UART_IER_ABEOINT_EN;
 2035              		.loc 1 800 0
 2036 0096 4FF48073 		mov	r3, #256	@ tmp142,
 2037 009a FB60     		str	r3, [r7, #12]	@ tmp142, tmp
 801:core/lpc17xx_uart.c **** 			break;
 2038              		.loc 1 801 0
 2039 009c 03E0     		b	.L146	@
 2040              	.L154:
 802:core/lpc17xx_uart.c **** 		case UART_INTCFG_ABTO:
 803:core/lpc17xx_uart.c **** 			tmp = UART_IER_ABTOINT_EN;
 2041              		.loc 1 803 0
 2042 009e 4FF40073 		mov	r3, #512	@ tmp143,
 2043 00a2 FB60     		str	r3, [r7, #12]	@ tmp143, tmp
 804:core/lpc17xx_uart.c **** 			break;
 2044              		.loc 1 804 0
 2045 00a4 00BF     		nop
 2046              	.L146:
 805:core/lpc17xx_uart.c **** 	}
 806:core/lpc17xx_uart.c **** 
 807:core/lpc17xx_uart.c **** 	if ((LPC_UART1_TypeDef *) UARTx == LPC_UART1)
 2047              		.loc 1 807 0
 2048 00a6 7B68     		ldr	r3, [r7, #4]	@ tmp144, UARTx
 2049 00a8 324A     		ldr	r2, .L163+4	@ tmp145,
 2050 00aa 9342     		cmp	r3, r2	@ tmp144, tmp145
 2051 00ac 1AD1     		bne	.L155	@,
 808:core/lpc17xx_uart.c **** 	{
 809:core/lpc17xx_uart.c **** 		CHECK_PARAM((PARAM_UART_INTCFG(UARTIntCfg)) || (PARAM_UART1_INTCFG(UARTIntCfg)));
 2052              		.loc 1 809 0
 2053 00ae FB78     		ldrb	r3, [r7, #3]	@ zero_extendqisi2	@ tmp146, UARTIntCfg
 2054 00b0 002B     		cmp	r3, #0	@ tmp146,
 2055 00b2 2BD0     		beq	.L156	@,
 2056              		.loc 1 809 0 is_stmt 0 discriminator 1
 2057 00b4 FB78     		ldrb	r3, [r7, #3]	@ zero_extendqisi2	@ tmp147, UARTIntCfg
 2058 00b6 012B     		cmp	r3, #1	@ tmp147,
 2059 00b8 28D0     		beq	.L156	@,
 2060              		.loc 1 809 0 discriminator 2
 2061 00ba FB78     		ldrb	r3, [r7, #3]	@ zero_extendqisi2	@ tmp148, UARTIntCfg
 2062 00bc 022B     		cmp	r3, #2	@ tmp148,
 2063 00be 25D0     		beq	.L156	@,
 2064              		.loc 1 809 0 discriminator 3
 2065 00c0 FB78     		ldrb	r3, [r7, #3]	@ zero_extendqisi2	@ tmp149, UARTIntCfg
 2066 00c2 052B     		cmp	r3, #5	@ tmp149,
 2067 00c4 22D0     		beq	.L156	@,
 2068              		.loc 1 809 0 discriminator 4
 2069 00c6 FB78     		ldrb	r3, [r7, #3]	@ zero_extendqisi2	@ tmp150, UARTIntCfg
 2070 00c8 062B     		cmp	r3, #6	@ tmp150,
 2071 00ca 1FD0     		beq	.L156	@,
 2072              		.loc 1 809 0 discriminator 5
ARM GAS  C:\Users\STUDENT\AppData\Local\Temp\ccMxouBa.s 			page 52


 2073 00cc FB78     		ldrb	r3, [r7, #3]	@ zero_extendqisi2	@ tmp151, UARTIntCfg
 2074 00ce 032B     		cmp	r3, #3	@ tmp151,
 2075 00d0 1CD0     		beq	.L156	@,
 2076              		.loc 1 809 0 discriminator 6
 2077 00d2 FB78     		ldrb	r3, [r7, #3]	@ zero_extendqisi2	@ tmp152, UARTIntCfg
 2078 00d4 042B     		cmp	r3, #4	@ tmp152,
 2079 00d6 19D0     		beq	.L156	@,
 2080              		.loc 1 809 0 discriminator 7
 2081 00d8 40F22931 		movw	r1, #809	@,
 2082 00dc 2848     		ldr	r0, .L163+16	@,
 2083 00de FFF7FEFF 		bl	check_failed	@
 2084 00e2 13E0     		b	.L156	@
 2085              	.L155:
 810:core/lpc17xx_uart.c **** 	}
 811:core/lpc17xx_uart.c **** 	else
 812:core/lpc17xx_uart.c **** 	{
 813:core/lpc17xx_uart.c **** 		CHECK_PARAM(PARAM_UART_INTCFG(UARTIntCfg));
 2086              		.loc 1 813 0 is_stmt 1
 2087 00e4 FB78     		ldrb	r3, [r7, #3]	@ zero_extendqisi2	@ tmp153, UARTIntCfg
 2088 00e6 002B     		cmp	r3, #0	@ tmp153,
 2089 00e8 10D0     		beq	.L156	@,
 2090              		.loc 1 813 0 is_stmt 0 discriminator 1
 2091 00ea FB78     		ldrb	r3, [r7, #3]	@ zero_extendqisi2	@ tmp154, UARTIntCfg
 2092 00ec 012B     		cmp	r3, #1	@ tmp154,
 2093 00ee 0DD0     		beq	.L156	@,
 2094              		.loc 1 813 0 discriminator 2
 2095 00f0 FB78     		ldrb	r3, [r7, #3]	@ zero_extendqisi2	@ tmp155, UARTIntCfg
 2096 00f2 022B     		cmp	r3, #2	@ tmp155,
 2097 00f4 0AD0     		beq	.L156	@,
 2098              		.loc 1 813 0 discriminator 3
 2099 00f6 FB78     		ldrb	r3, [r7, #3]	@ zero_extendqisi2	@ tmp156, UARTIntCfg
 2100 00f8 052B     		cmp	r3, #5	@ tmp156,
 2101 00fa 07D0     		beq	.L156	@,
 2102              		.loc 1 813 0 discriminator 4
 2103 00fc FB78     		ldrb	r3, [r7, #3]	@ zero_extendqisi2	@ tmp157, UARTIntCfg
 2104 00fe 062B     		cmp	r3, #6	@ tmp157,
 2105 0100 04D0     		beq	.L156	@,
 2106              		.loc 1 813 0 discriminator 5
 2107 0102 40F22D31 		movw	r1, #813	@,
 2108 0106 1E48     		ldr	r0, .L163+16	@,
 2109 0108 FFF7FEFF 		bl	check_failed	@
 2110              	.L156:
 814:core/lpc17xx_uart.c **** 	}
 815:core/lpc17xx_uart.c **** 
 816:core/lpc17xx_uart.c **** 	if (NewState == ENABLE)
 2111              		.loc 1 816 0 is_stmt 1
 2112 010c BB78     		ldrb	r3, [r7, #2]	@ zero_extendqisi2	@ tmp158, NewState
 2113 010e 012B     		cmp	r3, #1	@ tmp158,
 2114 0110 11D1     		bne	.L157	@,
 817:core/lpc17xx_uart.c **** 	{
 818:core/lpc17xx_uart.c **** 		if ((LPC_UART1_TypeDef *) UARTx == LPC_UART1)
 2115              		.loc 1 818 0
 2116 0112 7B68     		ldr	r3, [r7, #4]	@ tmp159, UARTx
 2117 0114 174A     		ldr	r2, .L163+4	@ tmp160,
 2118 0116 9342     		cmp	r3, r2	@ tmp159, tmp160
 2119 0118 06D1     		bne	.L158	@,
 819:core/lpc17xx_uart.c **** 		{
ARM GAS  C:\Users\STUDENT\AppData\Local\Temp\ccMxouBa.s 			page 53


 820:core/lpc17xx_uart.c **** 			((LPC_UART1_TypeDef *)UARTx)->/*DLIER.*/IER |= tmp;
 2120              		.loc 1 820 0
 2121 011a 7B68     		ldr	r3, [r7, #4]	@ tmp161, UARTx
 2122 011c 5A68     		ldr	r2, [r3, #4]	@ D.6721, MEM[(struct LPC_UART1_TypeDef *)UARTx_7(D)].D.4875.IER
 2123 011e FB68     		ldr	r3, [r7, #12]	@ tmp162, tmp
 2124 0120 1A43     		orrs	r2, r2, r3	@, D.6721, D.6721, tmp162
 2125 0122 7B68     		ldr	r3, [r7, #4]	@ tmp163, UARTx
 2126 0124 5A60     		str	r2, [r3, #4]	@ D.6721, MEM[(struct LPC_UART1_TypeDef *)UARTx_7(D)].D.4875.IER
 821:core/lpc17xx_uart.c **** 		}
 822:core/lpc17xx_uart.c **** 		else
 823:core/lpc17xx_uart.c **** 		{
 824:core/lpc17xx_uart.c **** 			UARTx->/*DLIER.*/IER |= tmp;
 825:core/lpc17xx_uart.c **** 		}
 826:core/lpc17xx_uart.c **** 	}
 827:core/lpc17xx_uart.c **** 	else
 828:core/lpc17xx_uart.c **** 	{
 829:core/lpc17xx_uart.c **** 		if ((LPC_UART1_TypeDef *) UARTx == LPC_UART1)
 830:core/lpc17xx_uart.c **** 		{
 831:core/lpc17xx_uart.c **** 			((LPC_UART1_TypeDef *)UARTx)->/*DLIER.*/IER &= (~tmp) & UART1_IER_BITMASK;
 832:core/lpc17xx_uart.c **** 		}
 833:core/lpc17xx_uart.c **** 		else
 834:core/lpc17xx_uart.c **** 		{
 835:core/lpc17xx_uart.c **** 			UARTx->/*DLIER.*/IER &= (~tmp) & UART_IER_BITMASK;
 836:core/lpc17xx_uart.c **** 		}
 837:core/lpc17xx_uart.c **** 	}
 838:core/lpc17xx_uart.c **** }
 2127              		.loc 1 838 0
 2128 0126 1FE0     		b	.L162	@
 2129              	.L158:
 824:core/lpc17xx_uart.c **** 		}
 2130              		.loc 1 824 0
 2131 0128 7B68     		ldr	r3, [r7, #4]	@ tmp164, UARTx
 2132 012a 5A68     		ldr	r2, [r3, #4]	@ D.6721, UARTx_7(D)->D.4815.IER
 2133 012c FB68     		ldr	r3, [r7, #12]	@ tmp165, tmp
 2134 012e 1A43     		orrs	r2, r2, r3	@, D.6721, D.6721, tmp165
 2135 0130 7B68     		ldr	r3, [r7, #4]	@ tmp166, UARTx
 2136 0132 5A60     		str	r2, [r3, #4]	@ D.6721, UARTx_7(D)->D.4815.IER
 2137              		.loc 1 838 0
 2138 0134 18E0     		b	.L162	@
 2139              	.L157:
 829:core/lpc17xx_uart.c **** 		{
 2140              		.loc 1 829 0
 2141 0136 7B68     		ldr	r3, [r7, #4]	@ tmp167, UARTx
 2142 0138 0E4A     		ldr	r2, .L163+4	@ tmp168,
 2143 013a 9342     		cmp	r3, r2	@ tmp167, tmp168
 2144 013c 0AD1     		bne	.L161	@,
 831:core/lpc17xx_uart.c **** 		}
 2145              		.loc 1 831 0
 2146 013e 7B68     		ldr	r3, [r7, #4]	@ tmp169, UARTx
 2147 0140 5A68     		ldr	r2, [r3, #4]	@ D.6721, MEM[(struct LPC_UART1_TypeDef *)UARTx_7(D)].D.4875.IER
 2148 0142 FB68     		ldr	r3, [r7, #12]	@ tmp170, tmp
 2149 0144 DB43     		mvns	r3, r3	@ D.6721, tmp170
 2150 0146 1A40     		ands	r2, r2, r3	@, D.6721, D.6721, D.6721
 2151 0148 40F28F33 		movw	r3, #911	@ D.6721,
 2152 014c 1340     		ands	r3, r3, r2	@, D.6721, D.6721, D.6721
 2153 014e 7A68     		ldr	r2, [r7, #4]	@ tmp171, UARTx
 2154 0150 5360     		str	r3, [r2, #4]	@ D.6721, MEM[(struct LPC_UART1_TypeDef *)UARTx_7(D)].D.4875.IER
ARM GAS  C:\Users\STUDENT\AppData\Local\Temp\ccMxouBa.s 			page 54


 2155              		.loc 1 838 0
 2156 0152 09E0     		b	.L162	@
 2157              	.L161:
 835:core/lpc17xx_uart.c **** 		}
 2158              		.loc 1 835 0
 2159 0154 7B68     		ldr	r3, [r7, #4]	@ tmp172, UARTx
 2160 0156 5A68     		ldr	r2, [r3, #4]	@ D.6721, UARTx_7(D)->D.4815.IER
 2161 0158 FB68     		ldr	r3, [r7, #12]	@ tmp173, tmp
 2162 015a DB43     		mvns	r3, r3	@ D.6721, tmp173
 2163 015c 1A40     		ands	r2, r2, r3	@, D.6721, D.6721, D.6721
 2164 015e 40F20733 		movw	r3, #775	@ D.6721,
 2165 0162 1340     		ands	r3, r3, r2	@, D.6721, D.6721, D.6721
 2166 0164 7A68     		ldr	r2, [r7, #4]	@ tmp174, UARTx
 2167 0166 5360     		str	r3, [r2, #4]	@ D.6721, UARTx_7(D)->D.4815.IER
 2168              	.L162:
 2169              		.loc 1 838 0
 2170 0168 00BF     		nop
 2171 016a 1037     		adds	r7, r7, #16	@,,
 2172              		.cfi_def_cfa_offset 8
 2173 016c BD46     		mov	sp, r7	@,
 2174              		.cfi_def_cfa_register 13
 2175              		@ sp needed	@
 2176 016e 80BD     		pop	{r7, pc}	@
 2177              	.L164:
 2178              		.align	2
 2179              	.L163:
 2180 0170 00C00040 		.word	1073790976
 2181 0174 00000140 		.word	1073807360
 2182 0178 00800940 		.word	1074364416
 2183 017c 00C00940 		.word	1074380800
 2184 0180 00000000 		.word	.LC0
 2185              		.cfi_endproc
 2186              	.LFE67:
 2187              		.size	UART_IntConfig, .-UART_IntConfig
 2188              		.section	.text.UART_GetLineStatus,"ax",%progbits
 2189              		.align	2
 2190              		.global	UART_GetLineStatus
 2191              		.thumb
 2192              		.thumb_func
 2193              		.type	UART_GetLineStatus, %function
 2194              	UART_GetLineStatus:
 2195              	.LFB68:
 839:core/lpc17xx_uart.c **** 
 840:core/lpc17xx_uart.c **** 
 841:core/lpc17xx_uart.c **** /********************************************************************//**
 842:core/lpc17xx_uart.c ****  * @brief 		Get current value of Line Status register in UART peripheral.
 843:core/lpc17xx_uart.c ****  * @param[in]	UARTx	UART peripheral selected, should be UART0, UART1,
 844:core/lpc17xx_uart.c ****  * 						UART2 or UART3.
 845:core/lpc17xx_uart.c ****  * @return		Current value of Line Status register in UART peripheral.
 846:core/lpc17xx_uart.c ****  * Note:	The return value of this function must be ANDed with each member in
 847:core/lpc17xx_uart.c ****  * 			UART_LS_Type enumeration to determine current flag status
 848:core/lpc17xx_uart.c ****  * 			corresponding to each Line status type. Because some flags in
 849:core/lpc17xx_uart.c ****  * 			Line Status register will be cleared after reading, the next reading
 850:core/lpc17xx_uart.c ****  * 			Line Status register could not be correct. So this function used to
 851:core/lpc17xx_uart.c ****  * 			read Line status register in one time only, then the return value
 852:core/lpc17xx_uart.c ****  * 			used to check all flags.
 853:core/lpc17xx_uart.c ****  *********************************************************************/
ARM GAS  C:\Users\STUDENT\AppData\Local\Temp\ccMxouBa.s 			page 55


 854:core/lpc17xx_uart.c **** uint8_t UART_GetLineStatus(LPC_UART_TypeDef* UARTx)
 855:core/lpc17xx_uart.c **** {
 2196              		.loc 1 855 0
 2197              		.cfi_startproc
 2198              		@ args = 0, pretend = 0, frame = 8
 2199              		@ frame_needed = 1, uses_anonymous_args = 0
 2200 0000 80B5     		push	{r7, lr}	@
 2201              		.cfi_def_cfa_offset 8
 2202              		.cfi_offset 7, -8
 2203              		.cfi_offset 14, -4
 2204 0002 82B0     		sub	sp, sp, #8	@,,
 2205              		.cfi_def_cfa_offset 16
 2206 0004 00AF     		add	r7, sp, #0	@,,
 2207              		.cfi_def_cfa_register 7
 2208 0006 7860     		str	r0, [r7, #4]	@ UARTx, UARTx
 856:core/lpc17xx_uart.c **** 	CHECK_PARAM(PARAM_UARTx(UARTx));
 2209              		.loc 1 856 0
 2210 0008 7B68     		ldr	r3, [r7, #4]	@ tmp113, UARTx
 2211 000a 114A     		ldr	r2, .L169	@ tmp114,
 2212 000c 9342     		cmp	r3, r2	@ tmp113, tmp114
 2213 000e 10D0     		beq	.L166	@,
 2214              		.loc 1 856 0 is_stmt 0 discriminator 1
 2215 0010 7B68     		ldr	r3, [r7, #4]	@ tmp115, UARTx
 2216 0012 104A     		ldr	r2, .L169+4	@ tmp116,
 2217 0014 9342     		cmp	r3, r2	@ tmp115, tmp116
 2218 0016 0CD0     		beq	.L166	@,
 2219              		.loc 1 856 0 discriminator 2
 2220 0018 7B68     		ldr	r3, [r7, #4]	@ tmp117, UARTx
 2221 001a 0F4A     		ldr	r2, .L169+8	@ tmp118,
 2222 001c 9342     		cmp	r3, r2	@ tmp117, tmp118
 2223 001e 08D0     		beq	.L166	@,
 2224              		.loc 1 856 0 discriminator 3
 2225 0020 7B68     		ldr	r3, [r7, #4]	@ tmp119, UARTx
 2226 0022 0E4A     		ldr	r2, .L169+12	@ tmp120,
 2227 0024 9342     		cmp	r3, r2	@ tmp119, tmp120
 2228 0026 04D0     		beq	.L166	@,
 2229              		.loc 1 856 0 discriminator 4
 2230 0028 4FF45671 		mov	r1, #856	@,
 2231 002c 0C48     		ldr	r0, .L169+16	@,
 2232 002e FFF7FEFF 		bl	check_failed	@
 2233              	.L166:
 857:core/lpc17xx_uart.c **** 
 858:core/lpc17xx_uart.c **** 	if (((LPC_UART1_TypeDef *)UARTx) == LPC_UART1)
 2234              		.loc 1 858 0 is_stmt 1
 2235 0032 7B68     		ldr	r3, [r7, #4]	@ tmp121, UARTx
 2236 0034 074A     		ldr	r2, .L169+4	@ tmp122,
 2237 0036 9342     		cmp	r3, r2	@ tmp121, tmp122
 2238 0038 03D1     		bne	.L167	@,
 859:core/lpc17xx_uart.c **** 	{
 860:core/lpc17xx_uart.c **** 		return ((((LPC_UART1_TypeDef *)LPC_UART1)->LSR) & UART_LSR_BITMASK);
 2239              		.loc 1 860 0
 2240 003a 064B     		ldr	r3, .L169+4	@ D.6723,
 2241 003c 1B7D     		ldrb	r3, [r3, #20]	@ tmp124, _6->LSR
 2242 003e DBB2     		uxtb	r3, r3	@ D.6722, tmp124
 2243 0040 02E0     		b	.L168	@
 2244              	.L167:
 861:core/lpc17xx_uart.c **** 	}
ARM GAS  C:\Users\STUDENT\AppData\Local\Temp\ccMxouBa.s 			page 56


 862:core/lpc17xx_uart.c **** 	else
 863:core/lpc17xx_uart.c **** 	{
 864:core/lpc17xx_uart.c **** 		return ((UARTx->LSR) & UART_LSR_BITMASK);
 2245              		.loc 1 864 0
 2246 0042 7B68     		ldr	r3, [r7, #4]	@ tmp125, UARTx
 2247 0044 1B7D     		ldrb	r3, [r3, #20]	@ tmp127, UARTx_3(D)->LSR
 2248 0046 DBB2     		uxtb	r3, r3	@ D.6722, tmp127
 2249              	.L168:
 865:core/lpc17xx_uart.c **** 	}
 866:core/lpc17xx_uart.c **** }
 2250              		.loc 1 866 0
 2251 0048 1846     		mov	r0, r3	@, <retval>
 2252 004a 0837     		adds	r7, r7, #8	@,,
 2253              		.cfi_def_cfa_offset 8
 2254 004c BD46     		mov	sp, r7	@,
 2255              		.cfi_def_cfa_register 13
 2256              		@ sp needed	@
 2257 004e 80BD     		pop	{r7, pc}	@
 2258              	.L170:
 2259              		.align	2
 2260              	.L169:
 2261 0050 00C00040 		.word	1073790976
 2262 0054 00000140 		.word	1073807360
 2263 0058 00800940 		.word	1074364416
 2264 005c 00C00940 		.word	1074380800
 2265 0060 00000000 		.word	.LC0
 2266              		.cfi_endproc
 2267              	.LFE68:
 2268              		.size	UART_GetLineStatus, .-UART_GetLineStatus
 2269              		.section	.text.UART_CheckBusy,"ax",%progbits
 2270              		.align	2
 2271              		.global	UART_CheckBusy
 2272              		.thumb
 2273              		.thumb_func
 2274              		.type	UART_CheckBusy, %function
 2275              	UART_CheckBusy:
 2276              	.LFB69:
 867:core/lpc17xx_uart.c **** 
 868:core/lpc17xx_uart.c **** /*********************************************************************//**
 869:core/lpc17xx_uart.c ****  * @brief		Check whether if UART is busy or not
 870:core/lpc17xx_uart.c ****  * @param[in]	UARTx	UART peripheral selected, should be UART0, UART1,
 871:core/lpc17xx_uart.c ****  * 						UART2 or UART3.
 872:core/lpc17xx_uart.c ****  * @return		RESET if UART is not busy, otherwise return SET.
 873:core/lpc17xx_uart.c ****  **********************************************************************/
 874:core/lpc17xx_uart.c **** FlagStatus UART_CheckBusy(LPC_UART_TypeDef *UARTx)
 875:core/lpc17xx_uart.c **** {
 2277              		.loc 1 875 0
 2278              		.cfi_startproc
 2279              		@ args = 0, pretend = 0, frame = 8
 2280              		@ frame_needed = 1, uses_anonymous_args = 0
 2281              		@ link register save eliminated.
 2282 0000 80B4     		push	{r7}	@
 2283              		.cfi_def_cfa_offset 4
 2284              		.cfi_offset 7, -4
 2285 0002 83B0     		sub	sp, sp, #12	@,,
 2286              		.cfi_def_cfa_offset 16
 2287 0004 00AF     		add	r7, sp, #0	@,,
ARM GAS  C:\Users\STUDENT\AppData\Local\Temp\ccMxouBa.s 			page 57


 2288              		.cfi_def_cfa_register 7
 2289 0006 7860     		str	r0, [r7, #4]	@ UARTx, UARTx
 876:core/lpc17xx_uart.c **** 	if (UARTx->LSR & UART_LSR_TEMT){
 2290              		.loc 1 876 0
 2291 0008 7B68     		ldr	r3, [r7, #4]	@ tmp115, UARTx
 2292 000a 1B7D     		ldrb	r3, [r3, #20]	@ tmp117, UARTx_3(D)->LSR
 2293 000c DBB2     		uxtb	r3, r3	@ D.6725, tmp117
 2294 000e 03F04003 		and	r3, r3, #64	@ D.6726, D.6726,
 2295 0012 002B     		cmp	r3, #0	@ D.6726,
 2296 0014 01D0     		beq	.L172	@,
 877:core/lpc17xx_uart.c **** 		return RESET;
 2297              		.loc 1 877 0
 2298 0016 0023     		movs	r3, #0	@ D.6724,
 2299 0018 00E0     		b	.L173	@
 2300              	.L172:
 878:core/lpc17xx_uart.c **** 	} else {
 879:core/lpc17xx_uart.c **** 		return SET;
 2301              		.loc 1 879 0
 2302 001a 0123     		movs	r3, #1	@ D.6724,
 2303              	.L173:
 880:core/lpc17xx_uart.c **** 	}
 881:core/lpc17xx_uart.c **** }
 2304              		.loc 1 881 0
 2305 001c 1846     		mov	r0, r3	@, <retval>
 2306 001e 0C37     		adds	r7, r7, #12	@,,
 2307              		.cfi_def_cfa_offset 4
 2308 0020 BD46     		mov	sp, r7	@,
 2309              		.cfi_def_cfa_register 13
 2310              		@ sp needed	@
 2311 0022 80BC     		pop	{r7}	@
 2312              		.cfi_restore 7
 2313              		.cfi_def_cfa_offset 0
 2314 0024 7047     		bx	lr	@
 2315              		.cfi_endproc
 2316              	.LFE69:
 2317              		.size	UART_CheckBusy, .-UART_CheckBusy
 2318 0026 00BF     		.section	.text.UART_FIFOConfig,"ax",%progbits
 2319              		.align	2
 2320              		.global	UART_FIFOConfig
 2321              		.thumb
 2322              		.thumb_func
 2323              		.type	UART_FIFOConfig, %function
 2324              	UART_FIFOConfig:
 2325              	.LFB70:
 882:core/lpc17xx_uart.c **** 
 883:core/lpc17xx_uart.c **** 
 884:core/lpc17xx_uart.c **** /*********************************************************************//**
 885:core/lpc17xx_uart.c ****  * @brief		Configure FIFO function on selected UART peripheral
 886:core/lpc17xx_uart.c ****  * @param[in]	UARTx	UART peripheral selected, should be UART0, UART1,
 887:core/lpc17xx_uart.c ****  * 						UART2 or UART3.
 888:core/lpc17xx_uart.c ****  * @param[in]	FIFOCfg	Pointer to a UART_FIFO_CFG_Type Structure that
 889:core/lpc17xx_uart.c ****  * 						contains specified information about FIFO configuration
 890:core/lpc17xx_uart.c ****  * @return 		none
 891:core/lpc17xx_uart.c ****  **********************************************************************/
 892:core/lpc17xx_uart.c **** void UART_FIFOConfig(LPC_UART_TypeDef *UARTx, UART_FIFO_CFG_Type *FIFOCfg)
 893:core/lpc17xx_uart.c **** {
 2326              		.loc 1 893 0
ARM GAS  C:\Users\STUDENT\AppData\Local\Temp\ccMxouBa.s 			page 58


 2327              		.cfi_startproc
 2328              		@ args = 0, pretend = 0, frame = 16
 2329              		@ frame_needed = 1, uses_anonymous_args = 0
 2330 0000 80B5     		push	{r7, lr}	@
 2331              		.cfi_def_cfa_offset 8
 2332              		.cfi_offset 7, -8
 2333              		.cfi_offset 14, -4
 2334 0002 84B0     		sub	sp, sp, #16	@,,
 2335              		.cfi_def_cfa_offset 24
 2336 0004 00AF     		add	r7, sp, #0	@,,
 2337              		.cfi_def_cfa_register 7
 2338 0006 7860     		str	r0, [r7, #4]	@ UARTx, UARTx
 2339 0008 3960     		str	r1, [r7]	@ FIFOCfg, FIFOCfg
 894:core/lpc17xx_uart.c **** 	uint8_t tmp = 0;
 2340              		.loc 1 894 0
 2341 000a 0023     		movs	r3, #0	@ tmp127,
 2342 000c FB73     		strb	r3, [r7, #15]	@ tmp128, tmp
 895:core/lpc17xx_uart.c **** 
 896:core/lpc17xx_uart.c **** 	CHECK_PARAM(PARAM_UARTx(UARTx));
 2343              		.loc 1 896 0
 2344 000e 7B68     		ldr	r3, [r7, #4]	@ tmp129, UARTx
 2345 0010 4C4A     		ldr	r2, .L193	@ tmp130,
 2346 0012 9342     		cmp	r3, r2	@ tmp129, tmp130
 2347 0014 10D0     		beq	.L175	@,
 2348              		.loc 1 896 0 is_stmt 0 discriminator 1
 2349 0016 7B68     		ldr	r3, [r7, #4]	@ tmp131, UARTx
 2350 0018 4B4A     		ldr	r2, .L193+4	@ tmp132,
 2351 001a 9342     		cmp	r3, r2	@ tmp131, tmp132
 2352 001c 0CD0     		beq	.L175	@,
 2353              		.loc 1 896 0 discriminator 2
 2354 001e 7B68     		ldr	r3, [r7, #4]	@ tmp133, UARTx
 2355 0020 4A4A     		ldr	r2, .L193+8	@ tmp134,
 2356 0022 9342     		cmp	r3, r2	@ tmp133, tmp134
 2357 0024 08D0     		beq	.L175	@,
 2358              		.loc 1 896 0 discriminator 3
 2359 0026 7B68     		ldr	r3, [r7, #4]	@ tmp135, UARTx
 2360 0028 494A     		ldr	r2, .L193+12	@ tmp136,
 2361 002a 9342     		cmp	r3, r2	@ tmp135, tmp136
 2362 002c 04D0     		beq	.L175	@,
 2363              		.loc 1 896 0 discriminator 4
 2364 002e 4FF46071 		mov	r1, #896	@,
 2365 0032 4848     		ldr	r0, .L193+16	@,
 2366 0034 FFF7FEFF 		bl	check_failed	@
 2367              	.L175:
 897:core/lpc17xx_uart.c **** 	CHECK_PARAM(PARAM_UART_FIFO_LEVEL(FIFOCfg->FIFO_Level));
 2368              		.loc 1 897 0 is_stmt 1
 2369 0038 3B68     		ldr	r3, [r7]	@ tmp137, FIFOCfg
 2370 003a DB78     		ldrb	r3, [r3, #3]	@ zero_extendqisi2	@ D.6727, FIFOCfg_15(D)->FIFO_Level
 2371 003c 002B     		cmp	r3, #0	@ D.6727,
 2372 003e 10D0     		beq	.L176	@,
 2373              		.loc 1 897 0 is_stmt 0 discriminator 1
 2374 0040 3B68     		ldr	r3, [r7]	@ tmp138, FIFOCfg
 2375 0042 DB78     		ldrb	r3, [r3, #3]	@ zero_extendqisi2	@ D.6727, FIFOCfg_15(D)->FIFO_Level
 2376 0044 012B     		cmp	r3, #1	@ D.6727,
 2377 0046 0CD0     		beq	.L176	@,
 2378              		.loc 1 897 0 discriminator 2
 2379 0048 3B68     		ldr	r3, [r7]	@ tmp139, FIFOCfg
ARM GAS  C:\Users\STUDENT\AppData\Local\Temp\ccMxouBa.s 			page 59


 2380 004a DB78     		ldrb	r3, [r3, #3]	@ zero_extendqisi2	@ D.6727, FIFOCfg_15(D)->FIFO_Level
 2381 004c 022B     		cmp	r3, #2	@ D.6727,
 2382 004e 08D0     		beq	.L176	@,
 2383              		.loc 1 897 0 discriminator 3
 2384 0050 3B68     		ldr	r3, [r7]	@ tmp140, FIFOCfg
 2385 0052 DB78     		ldrb	r3, [r3, #3]	@ zero_extendqisi2	@ D.6727, FIFOCfg_15(D)->FIFO_Level
 2386 0054 032B     		cmp	r3, #3	@ D.6727,
 2387 0056 04D0     		beq	.L176	@,
 2388              		.loc 1 897 0 discriminator 4
 2389 0058 40F28131 		movw	r1, #897	@,
 2390 005c 3D48     		ldr	r0, .L193+16	@,
 2391 005e FFF7FEFF 		bl	check_failed	@
 2392              	.L176:
 898:core/lpc17xx_uart.c **** 	CHECK_PARAM(PARAM_FUNCTIONALSTATE(FIFOCfg->FIFO_DMAMode));
 2393              		.loc 1 898 0 is_stmt 1
 2394 0062 3B68     		ldr	r3, [r7]	@ tmp141, FIFOCfg
 2395 0064 9B78     		ldrb	r3, [r3, #2]	@ zero_extendqisi2	@ D.6728, FIFOCfg_15(D)->FIFO_DMAMode
 2396 0066 002B     		cmp	r3, #0	@ D.6728,
 2397 0068 08D0     		beq	.L177	@,
 2398              		.loc 1 898 0 is_stmt 0 discriminator 1
 2399 006a 3B68     		ldr	r3, [r7]	@ tmp142, FIFOCfg
 2400 006c 9B78     		ldrb	r3, [r3, #2]	@ zero_extendqisi2	@ D.6728, FIFOCfg_15(D)->FIFO_DMAMode
 2401 006e 012B     		cmp	r3, #1	@ D.6728,
 2402 0070 04D0     		beq	.L177	@,
 2403              		.loc 1 898 0 discriminator 2
 2404 0072 40F28231 		movw	r1, #898	@,
 2405 0076 3748     		ldr	r0, .L193+16	@,
 2406 0078 FFF7FEFF 		bl	check_failed	@
 2407              	.L177:
 899:core/lpc17xx_uart.c **** 	CHECK_PARAM(PARAM_FUNCTIONALSTATE(FIFOCfg->FIFO_ResetRxBuf));
 2408              		.loc 1 899 0 is_stmt 1
 2409 007c 3B68     		ldr	r3, [r7]	@ tmp143, FIFOCfg
 2410 007e 1B78     		ldrb	r3, [r3]	@ zero_extendqisi2	@ D.6728, FIFOCfg_15(D)->FIFO_ResetRxBuf
 2411 0080 002B     		cmp	r3, #0	@ D.6728,
 2412 0082 08D0     		beq	.L178	@,
 2413              		.loc 1 899 0 is_stmt 0 discriminator 1
 2414 0084 3B68     		ldr	r3, [r7]	@ tmp144, FIFOCfg
 2415 0086 1B78     		ldrb	r3, [r3]	@ zero_extendqisi2	@ D.6728, FIFOCfg_15(D)->FIFO_ResetRxBuf
 2416 0088 012B     		cmp	r3, #1	@ D.6728,
 2417 008a 04D0     		beq	.L178	@,
 2418              		.loc 1 899 0 discriminator 2
 2419 008c 40F28331 		movw	r1, #899	@,
 2420 0090 3048     		ldr	r0, .L193+16	@,
 2421 0092 FFF7FEFF 		bl	check_failed	@
 2422              	.L178:
 900:core/lpc17xx_uart.c **** 	CHECK_PARAM(PARAM_FUNCTIONALSTATE(FIFOCfg->FIFO_ResetTxBuf));
 2423              		.loc 1 900 0 is_stmt 1
 2424 0096 3B68     		ldr	r3, [r7]	@ tmp145, FIFOCfg
 2425 0098 5B78     		ldrb	r3, [r3, #1]	@ zero_extendqisi2	@ D.6728, FIFOCfg_15(D)->FIFO_ResetTxBuf
 2426 009a 002B     		cmp	r3, #0	@ D.6728,
 2427 009c 08D0     		beq	.L179	@,
 2428              		.loc 1 900 0 is_stmt 0 discriminator 1
 2429 009e 3B68     		ldr	r3, [r7]	@ tmp146, FIFOCfg
 2430 00a0 5B78     		ldrb	r3, [r3, #1]	@ zero_extendqisi2	@ D.6728, FIFOCfg_15(D)->FIFO_ResetTxBuf
 2431 00a2 012B     		cmp	r3, #1	@ D.6728,
 2432 00a4 04D0     		beq	.L179	@,
 2433              		.loc 1 900 0 discriminator 2
ARM GAS  C:\Users\STUDENT\AppData\Local\Temp\ccMxouBa.s 			page 60


 2434 00a6 4FF46171 		mov	r1, #900	@,
 2435 00aa 2A48     		ldr	r0, .L193+16	@,
 2436 00ac FFF7FEFF 		bl	check_failed	@
 2437              	.L179:
 901:core/lpc17xx_uart.c **** 
 902:core/lpc17xx_uart.c **** 	tmp |= UART_FCR_FIFO_EN;
 2438              		.loc 1 902 0 is_stmt 1
 2439 00b0 FB7B     		ldrb	r3, [r7, #15]	@ tmp147, tmp
 2440 00b2 43F00103 		orr	r3, r3, #1	@ tmp148, tmp147,
 2441 00b6 FB73     		strb	r3, [r7, #15]	@ tmp149, tmp
 903:core/lpc17xx_uart.c **** 	switch (FIFOCfg->FIFO_Level){
 2442              		.loc 1 903 0
 2443 00b8 3B68     		ldr	r3, [r7]	@ tmp150, FIFOCfg
 2444 00ba DB78     		ldrb	r3, [r3, #3]	@ zero_extendqisi2	@ D.6727, FIFOCfg_15(D)->FIFO_Level
 2445 00bc 012B     		cmp	r3, #1	@ D.6729,
 2446 00be 04D0     		beq	.L181	@,
 2447 00c0 022B     		cmp	r3, #2	@ D.6729,
 2448 00c2 07D0     		beq	.L182	@,
 2449 00c4 002B     		cmp	r3, #0	@ D.6729,
 2450 00c6 0FD0     		beq	.L191	@,
 2451 00c8 09E0     		b	.L190	@
 2452              	.L181:
 904:core/lpc17xx_uart.c **** 	case UART_FIFO_TRGLEV0:
 905:core/lpc17xx_uart.c **** 		tmp |= UART_FCR_TRG_LEV0;
 906:core/lpc17xx_uart.c **** 		break;
 907:core/lpc17xx_uart.c **** 	case UART_FIFO_TRGLEV1:
 908:core/lpc17xx_uart.c **** 		tmp |= UART_FCR_TRG_LEV1;
 2453              		.loc 1 908 0
 2454 00ca FB7B     		ldrb	r3, [r7, #15]	@ tmp151, tmp
 2455 00cc 43F04003 		orr	r3, r3, #64	@ tmp152, tmp151,
 2456 00d0 FB73     		strb	r3, [r7, #15]	@ tmp153, tmp
 909:core/lpc17xx_uart.c **** 		break;
 2457              		.loc 1 909 0
 2458 00d2 0AE0     		b	.L184	@
 2459              	.L182:
 910:core/lpc17xx_uart.c **** 	case UART_FIFO_TRGLEV2:
 911:core/lpc17xx_uart.c **** 		tmp |= UART_FCR_TRG_LEV2;
 2460              		.loc 1 911 0
 2461 00d4 FB7B     		ldrb	r3, [r7, #15]	@ tmp154, tmp
 2462 00d6 63F07F03 		orn	r3, r3, #127	@ tmp155, tmp154,
 2463 00da FB73     		strb	r3, [r7, #15]	@ tmp156, tmp
 912:core/lpc17xx_uart.c **** 		break;
 2464              		.loc 1 912 0
 2465 00dc 05E0     		b	.L184	@
 2466              	.L190:
 913:core/lpc17xx_uart.c **** 	case UART_FIFO_TRGLEV3:
 914:core/lpc17xx_uart.c **** 	default:
 915:core/lpc17xx_uart.c **** 		tmp |= UART_FCR_TRG_LEV3;
 2467              		.loc 1 915 0
 2468 00de FB7B     		ldrb	r3, [r7, #15]	@ tmp157, tmp
 2469 00e0 63F03F03 		orn	r3, r3, #63	@ tmp158, tmp157,
 2470 00e4 FB73     		strb	r3, [r7, #15]	@ tmp159, tmp
 916:core/lpc17xx_uart.c **** 		break;
 2471              		.loc 1 916 0
 2472 00e6 00E0     		b	.L184	@
 2473              	.L191:
 906:core/lpc17xx_uart.c **** 	case UART_FIFO_TRGLEV1:
ARM GAS  C:\Users\STUDENT\AppData\Local\Temp\ccMxouBa.s 			page 61


 2474              		.loc 1 906 0
 2475 00e8 00BF     		nop
 2476              	.L184:
 917:core/lpc17xx_uart.c **** 	}
 918:core/lpc17xx_uart.c **** 
 919:core/lpc17xx_uart.c **** 	if (FIFOCfg->FIFO_ResetTxBuf == ENABLE)
 2477              		.loc 1 919 0
 2478 00ea 3B68     		ldr	r3, [r7]	@ tmp160, FIFOCfg
 2479 00ec 5B78     		ldrb	r3, [r3, #1]	@ zero_extendqisi2	@ D.6728, FIFOCfg_15(D)->FIFO_ResetTxBuf
 2480 00ee 012B     		cmp	r3, #1	@ D.6728,
 2481 00f0 03D1     		bne	.L185	@,
 920:core/lpc17xx_uart.c **** 	{
 921:core/lpc17xx_uart.c **** 		tmp |= UART_FCR_TX_RS;
 2482              		.loc 1 921 0
 2483 00f2 FB7B     		ldrb	r3, [r7, #15]	@ tmp161, tmp
 2484 00f4 43F00403 		orr	r3, r3, #4	@ tmp162, tmp161,
 2485 00f8 FB73     		strb	r3, [r7, #15]	@ tmp163, tmp
 2486              	.L185:
 922:core/lpc17xx_uart.c **** 	}
 923:core/lpc17xx_uart.c **** 	if (FIFOCfg->FIFO_ResetRxBuf == ENABLE)
 2487              		.loc 1 923 0
 2488 00fa 3B68     		ldr	r3, [r7]	@ tmp164, FIFOCfg
 2489 00fc 1B78     		ldrb	r3, [r3]	@ zero_extendqisi2	@ D.6728, FIFOCfg_15(D)->FIFO_ResetRxBuf
 2490 00fe 012B     		cmp	r3, #1	@ D.6728,
 2491 0100 03D1     		bne	.L186	@,
 924:core/lpc17xx_uart.c **** 	{
 925:core/lpc17xx_uart.c **** 		tmp |= UART_FCR_RX_RS;
 2492              		.loc 1 925 0
 2493 0102 FB7B     		ldrb	r3, [r7, #15]	@ tmp165, tmp
 2494 0104 43F00203 		orr	r3, r3, #2	@ tmp166, tmp165,
 2495 0108 FB73     		strb	r3, [r7, #15]	@ tmp167, tmp
 2496              	.L186:
 926:core/lpc17xx_uart.c **** 	}
 927:core/lpc17xx_uart.c **** 	if (FIFOCfg->FIFO_DMAMode == ENABLE)
 2497              		.loc 1 927 0
 2498 010a 3B68     		ldr	r3, [r7]	@ tmp168, FIFOCfg
 2499 010c 9B78     		ldrb	r3, [r3, #2]	@ zero_extendqisi2	@ D.6728, FIFOCfg_15(D)->FIFO_DMAMode
 2500 010e 012B     		cmp	r3, #1	@ D.6728,
 2501 0110 03D1     		bne	.L187	@,
 928:core/lpc17xx_uart.c **** 	{
 929:core/lpc17xx_uart.c **** 		tmp |= UART_FCR_DMAMODE_SEL;
 2502              		.loc 1 929 0
 2503 0112 FB7B     		ldrb	r3, [r7, #15]	@ tmp169, tmp
 2504 0114 43F00803 		orr	r3, r3, #8	@ tmp170, tmp169,
 2505 0118 FB73     		strb	r3, [r7, #15]	@ tmp171, tmp
 2506              	.L187:
 930:core/lpc17xx_uart.c **** 	}
 931:core/lpc17xx_uart.c **** 
 932:core/lpc17xx_uart.c **** 
 933:core/lpc17xx_uart.c **** 	//write to FIFO control register
 934:core/lpc17xx_uart.c **** 	if (((LPC_UART1_TypeDef *)UARTx) == LPC_UART1)
 2507              		.loc 1 934 0
 2508 011a 7B68     		ldr	r3, [r7, #4]	@ tmp172, UARTx
 2509 011c 0A4A     		ldr	r2, .L193+4	@ tmp173,
 2510 011e 9342     		cmp	r3, r2	@ tmp172, tmp173
 2511 0120 06D1     		bne	.L188	@,
 935:core/lpc17xx_uart.c **** 	{
ARM GAS  C:\Users\STUDENT\AppData\Local\Temp\ccMxouBa.s 			page 62


 936:core/lpc17xx_uart.c **** 		((LPC_UART1_TypeDef *)UARTx)->/*IIFCR.*/FCR = tmp & UART_FCR_BITMASK;
 2512              		.loc 1 936 0
 2513 0122 FB7B     		ldrb	r3, [r7, #15]	@ tmp174, tmp
 2514 0124 23F03003 		bic	r3, r3, #48	@ tmp175, tmp174,
 2515 0128 DAB2     		uxtb	r2, r3	@ D.6730, tmp175
 2516 012a 7B68     		ldr	r3, [r7, #4]	@ tmp176, UARTx
 2517 012c 1A72     		strb	r2, [r3, #8]	@ tmp177, MEM[(struct LPC_UART1_TypeDef *)UARTx_12(D)].D.4879.FCR
 937:core/lpc17xx_uart.c **** 	}
 938:core/lpc17xx_uart.c **** 	else
 939:core/lpc17xx_uart.c **** 	{
 940:core/lpc17xx_uart.c **** 		UARTx->/*IIFCR.*/FCR = tmp & UART_FCR_BITMASK;
 941:core/lpc17xx_uart.c **** 	}
 942:core/lpc17xx_uart.c **** 
 943:core/lpc17xx_uart.c **** }
 2518              		.loc 1 943 0
 2519 012e 05E0     		b	.L192	@
 2520              	.L188:
 940:core/lpc17xx_uart.c **** 	}
 2521              		.loc 1 940 0
 2522 0130 FB7B     		ldrb	r3, [r7, #15]	@ tmp178, tmp
 2523 0132 23F03003 		bic	r3, r3, #48	@ tmp179, tmp178,
 2524 0136 DAB2     		uxtb	r2, r3	@ D.6730, tmp179
 2525 0138 7B68     		ldr	r3, [r7, #4]	@ tmp180, UARTx
 2526 013a 1A72     		strb	r2, [r3, #8]	@ tmp181, UARTx_12(D)->D.4819.FCR
 2527              	.L192:
 2528              		.loc 1 943 0
 2529 013c 00BF     		nop
 2530 013e 1037     		adds	r7, r7, #16	@,,
 2531              		.cfi_def_cfa_offset 8
 2532 0140 BD46     		mov	sp, r7	@,
 2533              		.cfi_def_cfa_register 13
 2534              		@ sp needed	@
 2535 0142 80BD     		pop	{r7, pc}	@
 2536              	.L194:
 2537              		.align	2
 2538              	.L193:
 2539 0144 00C00040 		.word	1073790976
 2540 0148 00000140 		.word	1073807360
 2541 014c 00800940 		.word	1074364416
 2542 0150 00C00940 		.word	1074380800
 2543 0154 00000000 		.word	.LC0
 2544              		.cfi_endproc
 2545              	.LFE70:
 2546              		.size	UART_FIFOConfig, .-UART_FIFOConfig
 2547              		.section	.text.UART_FIFOConfigStructInit,"ax",%progbits
 2548              		.align	2
 2549              		.global	UART_FIFOConfigStructInit
 2550              		.thumb
 2551              		.thumb_func
 2552              		.type	UART_FIFOConfigStructInit, %function
 2553              	UART_FIFOConfigStructInit:
 2554              	.LFB71:
 944:core/lpc17xx_uart.c **** 
 945:core/lpc17xx_uart.c **** 
 946:core/lpc17xx_uart.c **** /*****************************************************************************//**
 947:core/lpc17xx_uart.c **** * @brief		Fills each UART_FIFOInitStruct member with its default value:
 948:core/lpc17xx_uart.c **** * 				- FIFO_DMAMode = DISABLE
ARM GAS  C:\Users\STUDENT\AppData\Local\Temp\ccMxouBa.s 			page 63


 949:core/lpc17xx_uart.c **** * 				- FIFO_Level = UART_FIFO_TRGLEV0
 950:core/lpc17xx_uart.c **** * 				- FIFO_ResetRxBuf = ENABLE
 951:core/lpc17xx_uart.c **** * 				- FIFO_ResetTxBuf = ENABLE
 952:core/lpc17xx_uart.c **** * 				- FIFO_State = ENABLE
 953:core/lpc17xx_uart.c **** 
 954:core/lpc17xx_uart.c **** * @param[in]	UART_FIFOInitStruct Pointer to a UART_FIFO_CFG_Type structure
 955:core/lpc17xx_uart.c **** *                    which will be initialized.
 956:core/lpc17xx_uart.c **** * @return		None
 957:core/lpc17xx_uart.c **** *******************************************************************************/
 958:core/lpc17xx_uart.c **** void UART_FIFOConfigStructInit(UART_FIFO_CFG_Type *UART_FIFOInitStruct)
 959:core/lpc17xx_uart.c **** {
 2555              		.loc 1 959 0
 2556              		.cfi_startproc
 2557              		@ args = 0, pretend = 0, frame = 8
 2558              		@ frame_needed = 1, uses_anonymous_args = 0
 2559              		@ link register save eliminated.
 2560 0000 80B4     		push	{r7}	@
 2561              		.cfi_def_cfa_offset 4
 2562              		.cfi_offset 7, -4
 2563 0002 83B0     		sub	sp, sp, #12	@,,
 2564              		.cfi_def_cfa_offset 16
 2565 0004 00AF     		add	r7, sp, #0	@,,
 2566              		.cfi_def_cfa_register 7
 2567 0006 7860     		str	r0, [r7, #4]	@ UART_FIFOInitStruct, UART_FIFOInitStruct
 960:core/lpc17xx_uart.c **** 	UART_FIFOInitStruct->FIFO_DMAMode = DISABLE;
 2568              		.loc 1 960 0
 2569 0008 7B68     		ldr	r3, [r7, #4]	@ tmp110, UART_FIFOInitStruct
 2570 000a 0022     		movs	r2, #0	@ tmp111,
 2571 000c 9A70     		strb	r2, [r3, #2]	@ tmp112, UART_FIFOInitStruct_2(D)->FIFO_DMAMode
 961:core/lpc17xx_uart.c **** 	UART_FIFOInitStruct->FIFO_Level = UART_FIFO_TRGLEV0;
 2572              		.loc 1 961 0
 2573 000e 7B68     		ldr	r3, [r7, #4]	@ tmp113, UART_FIFOInitStruct
 2574 0010 0022     		movs	r2, #0	@ tmp114,
 2575 0012 DA70     		strb	r2, [r3, #3]	@ tmp115, UART_FIFOInitStruct_2(D)->FIFO_Level
 962:core/lpc17xx_uart.c **** 	UART_FIFOInitStruct->FIFO_ResetRxBuf = ENABLE;
 2576              		.loc 1 962 0
 2577 0014 7B68     		ldr	r3, [r7, #4]	@ tmp116, UART_FIFOInitStruct
 2578 0016 0122     		movs	r2, #1	@ tmp117,
 2579 0018 1A70     		strb	r2, [r3]	@ tmp118, UART_FIFOInitStruct_2(D)->FIFO_ResetRxBuf
 963:core/lpc17xx_uart.c **** 	UART_FIFOInitStruct->FIFO_ResetTxBuf = ENABLE;
 2580              		.loc 1 963 0
 2581 001a 7B68     		ldr	r3, [r7, #4]	@ tmp119, UART_FIFOInitStruct
 2582 001c 0122     		movs	r2, #1	@ tmp120,
 2583 001e 5A70     		strb	r2, [r3, #1]	@ tmp121, UART_FIFOInitStruct_2(D)->FIFO_ResetTxBuf
 964:core/lpc17xx_uart.c **** }
 2584              		.loc 1 964 0
 2585 0020 00BF     		nop
 2586 0022 0C37     		adds	r7, r7, #12	@,,
 2587              		.cfi_def_cfa_offset 4
 2588 0024 BD46     		mov	sp, r7	@,
 2589              		.cfi_def_cfa_register 13
 2590              		@ sp needed	@
 2591 0026 80BC     		pop	{r7}	@
 2592              		.cfi_restore 7
 2593              		.cfi_def_cfa_offset 0
 2594 0028 7047     		bx	lr	@
 2595              		.cfi_endproc
ARM GAS  C:\Users\STUDENT\AppData\Local\Temp\ccMxouBa.s 			page 64


 2596              	.LFE71:
 2597              		.size	UART_FIFOConfigStructInit, .-UART_FIFOConfigStructInit
 2598 002a 00BF     		.section	.text.UART_ABCmd,"ax",%progbits
 2599              		.align	2
 2600              		.global	UART_ABCmd
 2601              		.thumb
 2602              		.thumb_func
 2603              		.type	UART_ABCmd, %function
 2604              	UART_ABCmd:
 2605              	.LFB72:
 965:core/lpc17xx_uart.c **** 
 966:core/lpc17xx_uart.c **** 
 967:core/lpc17xx_uart.c **** /*********************************************************************//**
 968:core/lpc17xx_uart.c ****  * @brief		Start/Stop Auto Baudrate activity
 969:core/lpc17xx_uart.c ****  * @param[in]	UARTx	UART peripheral selected, should be UART0, UART1,
 970:core/lpc17xx_uart.c ****  * 						UART2 or UART3.
 971:core/lpc17xx_uart.c ****  * @param[in]	ABConfigStruct	A pointer to UART_AB_CFG_Type structure that
 972:core/lpc17xx_uart.c ****  * 								contains specified information about UART
 973:core/lpc17xx_uart.c ****  * 								auto baudrate configuration
 974:core/lpc17xx_uart.c ****  * @param[in]	NewState New State of Auto baudrate activity, should be:
 975:core/lpc17xx_uart.c ****  * 				- ENABLE: Start this activity
 976:core/lpc17xx_uart.c ****  *				- DISABLE: Stop this activity
 977:core/lpc17xx_uart.c ****  * Note:		Auto-baudrate mode enable bit will be cleared once this mode
 978:core/lpc17xx_uart.c ****  * 				completed.
 979:core/lpc17xx_uart.c ****  * @return 		none
 980:core/lpc17xx_uart.c ****  **********************************************************************/
 981:core/lpc17xx_uart.c **** void UART_ABCmd(LPC_UART_TypeDef *UARTx, UART_AB_CFG_Type *ABConfigStruct, \
 982:core/lpc17xx_uart.c **** 				FunctionalState NewState)
 983:core/lpc17xx_uart.c **** {
 2606              		.loc 1 983 0
 2607              		.cfi_startproc
 2608              		@ args = 0, pretend = 0, frame = 24
 2609              		@ frame_needed = 1, uses_anonymous_args = 0
 2610 0000 80B5     		push	{r7, lr}	@
 2611              		.cfi_def_cfa_offset 8
 2612              		.cfi_offset 7, -8
 2613              		.cfi_offset 14, -4
 2614 0002 86B0     		sub	sp, sp, #24	@,,
 2615              		.cfi_def_cfa_offset 32
 2616 0004 00AF     		add	r7, sp, #0	@,,
 2617              		.cfi_def_cfa_register 7
 2618 0006 F860     		str	r0, [r7, #12]	@ UARTx, UARTx
 2619 0008 B960     		str	r1, [r7, #8]	@ ABConfigStruct, ABConfigStruct
 2620 000a 1346     		mov	r3, r2	@ tmp122, NewState
 2621 000c FB71     		strb	r3, [r7, #7]	@ tmp123, NewState
 984:core/lpc17xx_uart.c **** 	uint32_t tmp;
 985:core/lpc17xx_uart.c **** 
 986:core/lpc17xx_uart.c **** 	CHECK_PARAM(PARAM_UARTx(UARTx));
 2622              		.loc 1 986 0
 2623 000e FB68     		ldr	r3, [r7, #12]	@ tmp124, UARTx
 2624 0010 434A     		ldr	r2, .L207	@ tmp125,
 2625 0012 9342     		cmp	r3, r2	@ tmp124, tmp125
 2626 0014 10D0     		beq	.L197	@,
 2627              		.loc 1 986 0 is_stmt 0 discriminator 1
 2628 0016 FB68     		ldr	r3, [r7, #12]	@ tmp126, UARTx
 2629 0018 424A     		ldr	r2, .L207+4	@ tmp127,
 2630 001a 9342     		cmp	r3, r2	@ tmp126, tmp127
ARM GAS  C:\Users\STUDENT\AppData\Local\Temp\ccMxouBa.s 			page 65


 2631 001c 0CD0     		beq	.L197	@,
 2632              		.loc 1 986 0 discriminator 2
 2633 001e FB68     		ldr	r3, [r7, #12]	@ tmp128, UARTx
 2634 0020 414A     		ldr	r2, .L207+8	@ tmp129,
 2635 0022 9342     		cmp	r3, r2	@ tmp128, tmp129
 2636 0024 08D0     		beq	.L197	@,
 2637              		.loc 1 986 0 discriminator 3
 2638 0026 FB68     		ldr	r3, [r7, #12]	@ tmp130, UARTx
 2639 0028 404A     		ldr	r2, .L207+12	@ tmp131,
 2640 002a 9342     		cmp	r3, r2	@ tmp130, tmp131
 2641 002c 04D0     		beq	.L197	@,
 2642              		.loc 1 986 0 discriminator 4
 2643 002e 40F2DA31 		movw	r1, #986	@,
 2644 0032 3F48     		ldr	r0, .L207+16	@,
 2645 0034 FFF7FEFF 		bl	check_failed	@
 2646              	.L197:
 987:core/lpc17xx_uart.c **** 	CHECK_PARAM(PARAM_FUNCTIONALSTATE(NewState));
 2647              		.loc 1 987 0 is_stmt 1
 2648 0038 FB79     		ldrb	r3, [r7, #7]	@ zero_extendqisi2	@ tmp132, NewState
 2649 003a 002B     		cmp	r3, #0	@ tmp132,
 2650 003c 07D0     		beq	.L198	@,
 2651              		.loc 1 987 0 is_stmt 0 discriminator 1
 2652 003e FB79     		ldrb	r3, [r7, #7]	@ zero_extendqisi2	@ tmp133, NewState
 2653 0040 012B     		cmp	r3, #1	@ tmp133,
 2654 0042 04D0     		beq	.L198	@,
 2655              		.loc 1 987 0 discriminator 2
 2656 0044 40F2DB31 		movw	r1, #987	@,
 2657 0048 3948     		ldr	r0, .L207+16	@,
 2658 004a FFF7FEFF 		bl	check_failed	@
 2659              	.L198:
 988:core/lpc17xx_uart.c **** 
 989:core/lpc17xx_uart.c **** 	tmp = 0;
 2660              		.loc 1 989 0 is_stmt 1
 2661 004e 0023     		movs	r3, #0	@ tmp134,
 2662 0050 7B61     		str	r3, [r7, #20]	@ tmp134, tmp
 990:core/lpc17xx_uart.c **** 	if (NewState == ENABLE) {
 2663              		.loc 1 990 0
 2664 0052 FB79     		ldrb	r3, [r7, #7]	@ zero_extendqisi2	@ tmp135, NewState
 2665 0054 012B     		cmp	r3, #1	@ tmp135,
 2666 0056 0FD1     		bne	.L199	@,
 991:core/lpc17xx_uart.c **** 		if (ABConfigStruct->ABMode == UART_AUTOBAUD_MODE1){
 2667              		.loc 1 991 0
 2668 0058 BB68     		ldr	r3, [r7, #8]	@ tmp136, ABConfigStruct
 2669 005a 1B78     		ldrb	r3, [r3]	@ zero_extendqisi2	@ D.6731, ABConfigStruct_13(D)->ABMode
 2670 005c 012B     		cmp	r3, #1	@ D.6731,
 2671 005e 03D1     		bne	.L200	@,
 992:core/lpc17xx_uart.c **** 			tmp |= UART_ACR_MODE;
 2672              		.loc 1 992 0
 2673 0060 7B69     		ldr	r3, [r7, #20]	@ tmp138, tmp
 2674 0062 43F00203 		orr	r3, r3, #2	@ tmp137, tmp138,
 2675 0066 7B61     		str	r3, [r7, #20]	@ tmp137, tmp
 2676              	.L200:
 993:core/lpc17xx_uart.c **** 		}
 994:core/lpc17xx_uart.c **** 		if (ABConfigStruct->AutoRestart == ENABLE){
 2677              		.loc 1 994 0
 2678 0068 BB68     		ldr	r3, [r7, #8]	@ tmp139, ABConfigStruct
 2679 006a 5B78     		ldrb	r3, [r3, #1]	@ zero_extendqisi2	@ D.6732, ABConfigStruct_13(D)->AutoRestart
ARM GAS  C:\Users\STUDENT\AppData\Local\Temp\ccMxouBa.s 			page 66


 2680 006c 012B     		cmp	r3, #1	@ D.6732,
 2681 006e 03D1     		bne	.L199	@,
 995:core/lpc17xx_uart.c **** 			tmp |= UART_ACR_AUTO_RESTART;
 2682              		.loc 1 995 0
 2683 0070 7B69     		ldr	r3, [r7, #20]	@ tmp141, tmp
 2684 0072 43F00403 		orr	r3, r3, #4	@ tmp140, tmp141,
 2685 0076 7B61     		str	r3, [r7, #20]	@ tmp140, tmp
 2686              	.L199:
 996:core/lpc17xx_uart.c **** 		}
 997:core/lpc17xx_uart.c **** 	}
 998:core/lpc17xx_uart.c **** 
 999:core/lpc17xx_uart.c **** 	if (((LPC_UART1_TypeDef *)UARTx) == LPC_UART1)
 2687              		.loc 1 999 0
 2688 0078 FB68     		ldr	r3, [r7, #12]	@ tmp142, UARTx
 2689 007a 2A4A     		ldr	r2, .L207+4	@ tmp143,
 2690 007c 9342     		cmp	r3, r2	@ tmp142, tmp143
 2691 007e 25D1     		bne	.L201	@,
1000:core/lpc17xx_uart.c **** 	{
1001:core/lpc17xx_uart.c **** 		if (NewState == ENABLE)
 2692              		.loc 1 1001 0
 2693 0080 FB79     		ldrb	r3, [r7, #7]	@ zero_extendqisi2	@ tmp144, NewState
 2694 0082 012B     		cmp	r3, #1	@ tmp144,
 2695 0084 1ED1     		bne	.L202	@,
1002:core/lpc17xx_uart.c **** 		{
1003:core/lpc17xx_uart.c **** 			// Clear DLL and DLM value
1004:core/lpc17xx_uart.c **** 			((LPC_UART1_TypeDef *)UARTx)->LCR |= UART_LCR_DLAB_EN;
 2696              		.loc 1 1004 0
 2697 0086 FB68     		ldr	r3, [r7, #12]	@ tmp145, UARTx
 2698 0088 1B7B     		ldrb	r3, [r3, #12]	@ tmp147, MEM[(struct LPC_UART1_TypeDef *)UARTx_7(D)].LCR
 2699 008a DBB2     		uxtb	r3, r3	@ D.6733, tmp147
 2700 008c 63F07F03 		orn	r3, r3, #127	@ tmp148, D.6733,
 2701 0090 DAB2     		uxtb	r2, r3	@ D.6733, tmp148
 2702 0092 FB68     		ldr	r3, [r7, #12]	@ tmp149, UARTx
 2703 0094 1A73     		strb	r2, [r3, #12]	@ tmp150, MEM[(struct LPC_UART1_TypeDef *)UARTx_7(D)].LCR
1005:core/lpc17xx_uart.c **** 			((LPC_UART1_TypeDef *)UARTx)->DLL = 0;
 2704              		.loc 1 1005 0
 2705 0096 FB68     		ldr	r3, [r7, #12]	@ tmp151, UARTx
 2706 0098 0022     		movs	r2, #0	@ tmp152,
 2707 009a 1A70     		strb	r2, [r3]	@ tmp153, MEM[(struct LPC_UART1_TypeDef *)UARTx_7(D)].D.4871.DLL
1006:core/lpc17xx_uart.c **** 			((LPC_UART1_TypeDef *)UARTx)->DLM = 0;
 2708              		.loc 1 1006 0
 2709 009c FB68     		ldr	r3, [r7, #12]	@ tmp154, UARTx
 2710 009e 0022     		movs	r2, #0	@ tmp155,
 2711 00a0 1A71     		strb	r2, [r3, #4]	@ tmp156, MEM[(struct LPC_UART1_TypeDef *)UARTx_7(D)].D.4875.DLM
1007:core/lpc17xx_uart.c **** 			((LPC_UART1_TypeDef *)UARTx)->LCR &= ~UART_LCR_DLAB_EN;
 2712              		.loc 1 1007 0
 2713 00a2 FB68     		ldr	r3, [r7, #12]	@ tmp157, UARTx
 2714 00a4 1B7B     		ldrb	r3, [r3, #12]	@ tmp159, MEM[(struct LPC_UART1_TypeDef *)UARTx_7(D)].LCR
 2715 00a6 DBB2     		uxtb	r3, r3	@ D.6733, tmp159
 2716 00a8 03F07F03 		and	r3, r3, #127	@ tmp160, D.6733,
 2717 00ac DAB2     		uxtb	r2, r3	@ D.6733, tmp160
 2718 00ae FB68     		ldr	r3, [r7, #12]	@ tmp161, UARTx
 2719 00b0 1A73     		strb	r2, [r3, #12]	@ tmp162, MEM[(struct LPC_UART1_TypeDef *)UARTx_7(D)].LCR
1008:core/lpc17xx_uart.c **** 			// FDR value must be reset to default value
1009:core/lpc17xx_uart.c **** 			((LPC_UART1_TypeDef *)UARTx)->FDR = 0x10;
 2720              		.loc 1 1009 0
 2721 00b2 FB68     		ldr	r3, [r7, #12]	@ tmp163, UARTx
ARM GAS  C:\Users\STUDENT\AppData\Local\Temp\ccMxouBa.s 			page 67


 2722 00b4 1022     		movs	r2, #16	@ tmp164,
 2723 00b6 9A62     		str	r2, [r3, #40]	@ tmp164, MEM[(struct LPC_UART1_TypeDef *)UARTx_7(D)].FDR
1010:core/lpc17xx_uart.c **** 			((LPC_UART1_TypeDef *)UARTx)->ACR = UART_ACR_START | tmp;
 2724              		.loc 1 1010 0
 2725 00b8 7B69     		ldr	r3, [r7, #20]	@ tmp165, tmp
 2726 00ba 43F00102 		orr	r2, r3, #1	@ D.6734, tmp165,
 2727 00be FB68     		ldr	r3, [r7, #12]	@ tmp166, UARTx
 2728 00c0 1A62     		str	r2, [r3, #32]	@ D.6734, MEM[(struct LPC_UART1_TypeDef *)UARTx_7(D)].ACR
1011:core/lpc17xx_uart.c **** 		}
1012:core/lpc17xx_uart.c **** 		else
1013:core/lpc17xx_uart.c **** 		{
1014:core/lpc17xx_uart.c **** 			((LPC_UART1_TypeDef *)UARTx)->ACR = 0;
1015:core/lpc17xx_uart.c **** 		}
1016:core/lpc17xx_uart.c **** 	}
1017:core/lpc17xx_uart.c **** 	else
1018:core/lpc17xx_uart.c **** 	{
1019:core/lpc17xx_uart.c **** 		if (NewState == ENABLE)
1020:core/lpc17xx_uart.c **** 		{
1021:core/lpc17xx_uart.c **** 			// Clear DLL and DLM value
1022:core/lpc17xx_uart.c **** 			UARTx->LCR |= UART_LCR_DLAB_EN;
1023:core/lpc17xx_uart.c **** 			UARTx->DLL = 0;
1024:core/lpc17xx_uart.c **** 			UARTx->DLM = 0;
1025:core/lpc17xx_uart.c **** 			UARTx->LCR &= ~UART_LCR_DLAB_EN;
1026:core/lpc17xx_uart.c **** 			// FDR value must be reset to default value
1027:core/lpc17xx_uart.c **** 			UARTx->FDR = 0x10;
1028:core/lpc17xx_uart.c **** 			UARTx->ACR = UART_ACR_START | tmp;
1029:core/lpc17xx_uart.c **** 		}
1030:core/lpc17xx_uart.c **** 		else
1031:core/lpc17xx_uart.c **** 		{
1032:core/lpc17xx_uart.c **** 			UARTx->ACR = 0;
1033:core/lpc17xx_uart.c **** 		}
1034:core/lpc17xx_uart.c **** 	}
1035:core/lpc17xx_uart.c **** }
 2729              		.loc 1 1035 0
 2730 00c2 29E0     		b	.L206	@
 2731              	.L202:
1014:core/lpc17xx_uart.c **** 		}
 2732              		.loc 1 1014 0
 2733 00c4 FB68     		ldr	r3, [r7, #12]	@ tmp167, UARTx
 2734 00c6 0022     		movs	r2, #0	@ tmp168,
 2735 00c8 1A62     		str	r2, [r3, #32]	@ tmp168, MEM[(struct LPC_UART1_TypeDef *)UARTx_7(D)].ACR
 2736              		.loc 1 1035 0
 2737 00ca 25E0     		b	.L206	@
 2738              	.L201:
1019:core/lpc17xx_uart.c **** 		{
 2739              		.loc 1 1019 0
 2740 00cc FB79     		ldrb	r3, [r7, #7]	@ zero_extendqisi2	@ tmp169, NewState
 2741 00ce 012B     		cmp	r3, #1	@ tmp169,
 2742 00d0 1FD1     		bne	.L205	@,
1022:core/lpc17xx_uart.c **** 			UARTx->DLL = 0;
 2743              		.loc 1 1022 0
 2744 00d2 FB68     		ldr	r3, [r7, #12]	@ tmp170, UARTx
 2745 00d4 1B7B     		ldrb	r3, [r3, #12]	@ tmp172, UARTx_7(D)->LCR
 2746 00d6 DBB2     		uxtb	r3, r3	@ D.6733, tmp172
 2747 00d8 63F07F03 		orn	r3, r3, #127	@ tmp173, D.6733,
 2748 00dc DAB2     		uxtb	r2, r3	@ D.6733, tmp173
 2749 00de FB68     		ldr	r3, [r7, #12]	@ tmp174, UARTx
ARM GAS  C:\Users\STUDENT\AppData\Local\Temp\ccMxouBa.s 			page 68


 2750 00e0 1A73     		strb	r2, [r3, #12]	@ tmp175, UARTx_7(D)->LCR
1023:core/lpc17xx_uart.c **** 			UARTx->DLM = 0;
 2751              		.loc 1 1023 0
 2752 00e2 FB68     		ldr	r3, [r7, #12]	@ tmp176, UARTx
 2753 00e4 0022     		movs	r2, #0	@ tmp177,
 2754 00e6 1A70     		strb	r2, [r3]	@ tmp178, UARTx_7(D)->D.4811.DLL
1024:core/lpc17xx_uart.c **** 			UARTx->LCR &= ~UART_LCR_DLAB_EN;
 2755              		.loc 1 1024 0
 2756 00e8 FB68     		ldr	r3, [r7, #12]	@ tmp179, UARTx
 2757 00ea 0022     		movs	r2, #0	@ tmp180,
 2758 00ec 1A71     		strb	r2, [r3, #4]	@ tmp181, UARTx_7(D)->D.4815.DLM
1025:core/lpc17xx_uart.c **** 			// FDR value must be reset to default value
 2759              		.loc 1 1025 0
 2760 00ee FB68     		ldr	r3, [r7, #12]	@ tmp182, UARTx
 2761 00f0 1B7B     		ldrb	r3, [r3, #12]	@ tmp184, UARTx_7(D)->LCR
 2762 00f2 DBB2     		uxtb	r3, r3	@ D.6733, tmp184
 2763 00f4 03F07F03 		and	r3, r3, #127	@ tmp185, D.6733,
 2764 00f8 DAB2     		uxtb	r2, r3	@ D.6733, tmp185
 2765 00fa FB68     		ldr	r3, [r7, #12]	@ tmp186, UARTx
 2766 00fc 1A73     		strb	r2, [r3, #12]	@ tmp187, UARTx_7(D)->LCR
1027:core/lpc17xx_uart.c **** 			UARTx->ACR = UART_ACR_START | tmp;
 2767              		.loc 1 1027 0
 2768 00fe FB68     		ldr	r3, [r7, #12]	@ tmp188, UARTx
 2769 0100 1022     		movs	r2, #16	@ tmp189,
 2770 0102 83F82820 		strb	r2, [r3, #40]	@ tmp190, UARTx_7(D)->FDR
1028:core/lpc17xx_uart.c **** 		}
 2771              		.loc 1 1028 0
 2772 0106 7B69     		ldr	r3, [r7, #20]	@ tmp191, tmp
 2773 0108 43F00102 		orr	r2, r3, #1	@ D.6734, tmp191,
 2774 010c FB68     		ldr	r3, [r7, #12]	@ tmp192, UARTx
 2775 010e 1A62     		str	r2, [r3, #32]	@ D.6734, UARTx_7(D)->ACR
 2776              		.loc 1 1035 0
 2777 0110 02E0     		b	.L206	@
 2778              	.L205:
1032:core/lpc17xx_uart.c **** 		}
 2779              		.loc 1 1032 0
 2780 0112 FB68     		ldr	r3, [r7, #12]	@ tmp193, UARTx
 2781 0114 0022     		movs	r2, #0	@ tmp194,
 2782 0116 1A62     		str	r2, [r3, #32]	@ tmp194, UARTx_7(D)->ACR
 2783              	.L206:
 2784              		.loc 1 1035 0
 2785 0118 00BF     		nop
 2786 011a 1837     		adds	r7, r7, #24	@,,
 2787              		.cfi_def_cfa_offset 8
 2788 011c BD46     		mov	sp, r7	@,
 2789              		.cfi_def_cfa_register 13
 2790              		@ sp needed	@
 2791 011e 80BD     		pop	{r7, pc}	@
 2792              	.L208:
 2793              		.align	2
 2794              	.L207:
 2795 0120 00C00040 		.word	1073790976
 2796 0124 00000140 		.word	1073807360
 2797 0128 00800940 		.word	1074364416
 2798 012c 00C00940 		.word	1074380800
 2799 0130 00000000 		.word	.LC0
 2800              		.cfi_endproc
ARM GAS  C:\Users\STUDENT\AppData\Local\Temp\ccMxouBa.s 			page 69


 2801              	.LFE72:
 2802              		.size	UART_ABCmd, .-UART_ABCmd
 2803              		.section	.text.UART_TxCmd,"ax",%progbits
 2804              		.align	2
 2805              		.global	UART_TxCmd
 2806              		.thumb
 2807              		.thumb_func
 2808              		.type	UART_TxCmd, %function
 2809              	UART_TxCmd:
 2810              	.LFB73:
1036:core/lpc17xx_uart.c **** 
1037:core/lpc17xx_uart.c **** 
1038:core/lpc17xx_uart.c **** /*********************************************************************//**
1039:core/lpc17xx_uart.c ****  * @brief		Enable/Disable transmission on UART TxD pin
1040:core/lpc17xx_uart.c ****  * @param[in]	UARTx	UART peripheral selected, should be UART0, UART1,
1041:core/lpc17xx_uart.c ****  * 						UART2 or UART3.
1042:core/lpc17xx_uart.c ****  * @param[in]	NewState New State of Tx transmission function, should be:
1043:core/lpc17xx_uart.c ****  * 				- ENABLE: Enable this function
1044:core/lpc17xx_uart.c **** 				- DISABLE: Disable this function
1045:core/lpc17xx_uart.c ****  * @return none
1046:core/lpc17xx_uart.c ****  **********************************************************************/
1047:core/lpc17xx_uart.c **** void UART_TxCmd(LPC_UART_TypeDef *UARTx, FunctionalState NewState)
1048:core/lpc17xx_uart.c **** {
 2811              		.loc 1 1048 0
 2812              		.cfi_startproc
 2813              		@ args = 0, pretend = 0, frame = 8
 2814              		@ frame_needed = 1, uses_anonymous_args = 0
 2815 0000 80B5     		push	{r7, lr}	@
 2816              		.cfi_def_cfa_offset 8
 2817              		.cfi_offset 7, -8
 2818              		.cfi_offset 14, -4
 2819 0002 82B0     		sub	sp, sp, #8	@,,
 2820              		.cfi_def_cfa_offset 16
 2821 0004 00AF     		add	r7, sp, #0	@,,
 2822              		.cfi_def_cfa_register 7
 2823 0006 7860     		str	r0, [r7, #4]	@ UARTx, UARTx
 2824 0008 0B46     		mov	r3, r1	@ tmp116, NewState
 2825 000a FB70     		strb	r3, [r7, #3]	@ tmp117, NewState
1049:core/lpc17xx_uart.c **** 	CHECK_PARAM(PARAM_UARTx(UARTx));
 2826              		.loc 1 1049 0
 2827 000c 7B68     		ldr	r3, [r7, #4]	@ tmp118, UARTx
 2828 000e 294A     		ldr	r2, .L218	@ tmp119,
 2829 0010 9342     		cmp	r3, r2	@ tmp118, tmp119
 2830 0012 10D0     		beq	.L210	@,
 2831              		.loc 1 1049 0 is_stmt 0 discriminator 1
 2832 0014 7B68     		ldr	r3, [r7, #4]	@ tmp120, UARTx
 2833 0016 284A     		ldr	r2, .L218+4	@ tmp121,
 2834 0018 9342     		cmp	r3, r2	@ tmp120, tmp121
 2835 001a 0CD0     		beq	.L210	@,
 2836              		.loc 1 1049 0 discriminator 2
 2837 001c 7B68     		ldr	r3, [r7, #4]	@ tmp122, UARTx
 2838 001e 274A     		ldr	r2, .L218+8	@ tmp123,
 2839 0020 9342     		cmp	r3, r2	@ tmp122, tmp123
 2840 0022 08D0     		beq	.L210	@,
 2841              		.loc 1 1049 0 discriminator 3
 2842 0024 7B68     		ldr	r3, [r7, #4]	@ tmp124, UARTx
 2843 0026 264A     		ldr	r2, .L218+12	@ tmp125,
ARM GAS  C:\Users\STUDENT\AppData\Local\Temp\ccMxouBa.s 			page 70


 2844 0028 9342     		cmp	r3, r2	@ tmp124, tmp125
 2845 002a 04D0     		beq	.L210	@,
 2846              		.loc 1 1049 0 discriminator 4
 2847 002c 40F21941 		movw	r1, #1049	@,
 2848 0030 2448     		ldr	r0, .L218+16	@,
 2849 0032 FFF7FEFF 		bl	check_failed	@
 2850              	.L210:
1050:core/lpc17xx_uart.c **** 	CHECK_PARAM(PARAM_FUNCTIONALSTATE(NewState));
 2851              		.loc 1 1050 0 is_stmt 1
 2852 0036 FB78     		ldrb	r3, [r7, #3]	@ zero_extendqisi2	@ tmp126, NewState
 2853 0038 002B     		cmp	r3, #0	@ tmp126,
 2854 003a 07D0     		beq	.L211	@,
 2855              		.loc 1 1050 0 is_stmt 0 discriminator 1
 2856 003c FB78     		ldrb	r3, [r7, #3]	@ zero_extendqisi2	@ tmp127, NewState
 2857 003e 012B     		cmp	r3, #1	@ tmp127,
 2858 0040 04D0     		beq	.L211	@,
 2859              		.loc 1 1050 0 discriminator 2
 2860 0042 40F21A41 		movw	r1, #1050	@,
 2861 0046 1F48     		ldr	r0, .L218+16	@,
 2862 0048 FFF7FEFF 		bl	check_failed	@
 2863              	.L211:
1051:core/lpc17xx_uart.c **** 
1052:core/lpc17xx_uart.c **** 	if (NewState == ENABLE)
 2864              		.loc 1 1052 0 is_stmt 1
 2865 004c FB78     		ldrb	r3, [r7, #3]	@ zero_extendqisi2	@ tmp128, NewState
 2866 004e 012B     		cmp	r3, #1	@ tmp128,
 2867 0050 19D1     		bne	.L212	@,
1053:core/lpc17xx_uart.c **** 	{
1054:core/lpc17xx_uart.c **** 		if (((LPC_UART1_TypeDef *)UARTx) == LPC_UART1)
 2868              		.loc 1 1054 0
 2869 0052 7B68     		ldr	r3, [r7, #4]	@ tmp129, UARTx
 2870 0054 184A     		ldr	r2, .L218+4	@ tmp130,
 2871 0056 9342     		cmp	r3, r2	@ tmp129, tmp130
 2872 0058 0AD1     		bne	.L213	@,
1055:core/lpc17xx_uart.c **** 		{
1056:core/lpc17xx_uart.c **** 			((LPC_UART1_TypeDef *)UARTx)->TER |= UART_TER_TXEN;
 2873              		.loc 1 1056 0
 2874 005a 7B68     		ldr	r3, [r7, #4]	@ tmp131, UARTx
 2875 005c 93F83030 		ldrb	r3, [r3, #48]	@ tmp133, MEM[(struct LPC_UART1_TypeDef *)UARTx_5(D)].TER
 2876 0060 DBB2     		uxtb	r3, r3	@ D.6735, tmp133
 2877 0062 63F07F03 		orn	r3, r3, #127	@ tmp134, D.6735,
 2878 0066 DAB2     		uxtb	r2, r3	@ D.6735, tmp134
 2879 0068 7B68     		ldr	r3, [r7, #4]	@ tmp135, UARTx
 2880 006a 83F83020 		strb	r2, [r3, #48]	@ tmp136, MEM[(struct LPC_UART1_TypeDef *)UARTx_5(D)].TER
1057:core/lpc17xx_uart.c **** 		}
1058:core/lpc17xx_uart.c **** 		else
1059:core/lpc17xx_uart.c **** 		{
1060:core/lpc17xx_uart.c **** 			UARTx->TER |= UART_TER_TXEN;
1061:core/lpc17xx_uart.c **** 		}
1062:core/lpc17xx_uart.c **** 	}
1063:core/lpc17xx_uart.c **** 	else
1064:core/lpc17xx_uart.c **** 	{
1065:core/lpc17xx_uart.c **** 		if (((LPC_UART1_TypeDef *)UARTx) == LPC_UART1)
1066:core/lpc17xx_uart.c **** 		{
1067:core/lpc17xx_uart.c **** 			((LPC_UART1_TypeDef *)UARTx)->TER &= (~UART_TER_TXEN) & UART_TER_BITMASK;
1068:core/lpc17xx_uart.c **** 		}
1069:core/lpc17xx_uart.c **** 		else
ARM GAS  C:\Users\STUDENT\AppData\Local\Temp\ccMxouBa.s 			page 71


1070:core/lpc17xx_uart.c **** 		{
1071:core/lpc17xx_uart.c **** 			UARTx->TER &= (~UART_TER_TXEN) & UART_TER_BITMASK;
1072:core/lpc17xx_uart.c **** 		}
1073:core/lpc17xx_uart.c **** 	}
1074:core/lpc17xx_uart.c **** }
 2881              		.loc 1 1074 0
 2882 006e 1DE0     		b	.L217	@
 2883              	.L213:
1060:core/lpc17xx_uart.c **** 		}
 2884              		.loc 1 1060 0
 2885 0070 7B68     		ldr	r3, [r7, #4]	@ tmp137, UARTx
 2886 0072 93F83030 		ldrb	r3, [r3, #48]	@ tmp139, UARTx_5(D)->TER
 2887 0076 DBB2     		uxtb	r3, r3	@ D.6735, tmp139
 2888 0078 63F07F03 		orn	r3, r3, #127	@ tmp140, D.6735,
 2889 007c DAB2     		uxtb	r2, r3	@ D.6735, tmp140
 2890 007e 7B68     		ldr	r3, [r7, #4]	@ tmp141, UARTx
 2891 0080 83F83020 		strb	r2, [r3, #48]	@ tmp142, UARTx_5(D)->TER
 2892              		.loc 1 1074 0
 2893 0084 12E0     		b	.L217	@
 2894              	.L212:
1065:core/lpc17xx_uart.c **** 		{
 2895              		.loc 1 1065 0
 2896 0086 7B68     		ldr	r3, [r7, #4]	@ tmp143, UARTx
 2897 0088 0B4A     		ldr	r2, .L218+4	@ tmp144,
 2898 008a 9342     		cmp	r3, r2	@ tmp143, tmp144
 2899 008c 07D1     		bne	.L216	@,
1067:core/lpc17xx_uart.c **** 		}
 2900              		.loc 1 1067 0
 2901 008e 7B68     		ldr	r3, [r7, #4]	@ tmp145, UARTx
 2902 0090 93F83030 		ldrb	r3, [r3, #48]	@ tmp147, MEM[(struct LPC_UART1_TypeDef *)UARTx_5(D)].TER
 2903 0094 7B68     		ldr	r3, [r7, #4]	@ tmp148, UARTx
 2904 0096 0022     		movs	r2, #0	@ tmp149,
 2905 0098 83F83020 		strb	r2, [r3, #48]	@ tmp150, MEM[(struct LPC_UART1_TypeDef *)UARTx_5(D)].TER
 2906              		.loc 1 1074 0
 2907 009c 06E0     		b	.L217	@
 2908              	.L216:
1071:core/lpc17xx_uart.c **** 		}
 2909              		.loc 1 1071 0
 2910 009e 7B68     		ldr	r3, [r7, #4]	@ tmp151, UARTx
 2911 00a0 93F83030 		ldrb	r3, [r3, #48]	@ tmp153, UARTx_5(D)->TER
 2912 00a4 7B68     		ldr	r3, [r7, #4]	@ tmp154, UARTx
 2913 00a6 0022     		movs	r2, #0	@ tmp155,
 2914 00a8 83F83020 		strb	r2, [r3, #48]	@ tmp156, UARTx_5(D)->TER
 2915              	.L217:
 2916              		.loc 1 1074 0
 2917 00ac 00BF     		nop
 2918 00ae 0837     		adds	r7, r7, #8	@,,
 2919              		.cfi_def_cfa_offset 8
 2920 00b0 BD46     		mov	sp, r7	@,
 2921              		.cfi_def_cfa_register 13
 2922              		@ sp needed	@
 2923 00b2 80BD     		pop	{r7, pc}	@
 2924              	.L219:
 2925              		.align	2
 2926              	.L218:
 2927 00b4 00C00040 		.word	1073790976
 2928 00b8 00000140 		.word	1073807360
ARM GAS  C:\Users\STUDENT\AppData\Local\Temp\ccMxouBa.s 			page 72


 2929 00bc 00800940 		.word	1074364416
 2930 00c0 00C00940 		.word	1074380800
 2931 00c4 00000000 		.word	.LC0
 2932              		.cfi_endproc
 2933              	.LFE73:
 2934              		.size	UART_TxCmd, .-UART_TxCmd
 2935              		.section	.text.UART_FullModemForcePinState,"ax",%progbits
 2936              		.align	2
 2937              		.global	UART_FullModemForcePinState
 2938              		.thumb
 2939              		.thumb_func
 2940              		.type	UART_FullModemForcePinState, %function
 2941              	UART_FullModemForcePinState:
 2942              	.LFB74:
1075:core/lpc17xx_uart.c **** 
1076:core/lpc17xx_uart.c **** #ifdef _UART1
1077:core/lpc17xx_uart.c **** 
1078:core/lpc17xx_uart.c **** /*********************************************************************//**
1079:core/lpc17xx_uart.c ****  * @brief		Force pin DTR/RTS corresponding to given state (Full modem mode)
1080:core/lpc17xx_uart.c ****  * @param[in]	UARTx	UART1 (only)
1081:core/lpc17xx_uart.c ****  * @param[in]	Pin	Pin that NewState will be applied to, should be:
1082:core/lpc17xx_uart.c ****  * 				- UART1_MODEM_PIN_DTR: DTR pin.
1083:core/lpc17xx_uart.c ****  * 				- UART1_MODEM_PIN_RTS: RTS pin.
1084:core/lpc17xx_uart.c ****  * @param[in]	NewState New State of DTR/RTS pin, should be:
1085:core/lpc17xx_uart.c ****  * 				- INACTIVE: Force the pin to inactive signal.
1086:core/lpc17xx_uart.c **** 				- ACTIVE: Force the pin to active signal.
1087:core/lpc17xx_uart.c ****  * @return none
1088:core/lpc17xx_uart.c ****  **********************************************************************/
1089:core/lpc17xx_uart.c **** void UART_FullModemForcePinState(LPC_UART1_TypeDef *UARTx, UART_MODEM_PIN_Type Pin, \
1090:core/lpc17xx_uart.c **** 							UART1_SignalState NewState)
1091:core/lpc17xx_uart.c **** {
 2943              		.loc 1 1091 0
 2944              		.cfi_startproc
 2945              		@ args = 0, pretend = 0, frame = 16
 2946              		@ frame_needed = 1, uses_anonymous_args = 0
 2947 0000 80B5     		push	{r7, lr}	@
 2948              		.cfi_def_cfa_offset 8
 2949              		.cfi_offset 7, -8
 2950              		.cfi_offset 14, -4
 2951 0002 84B0     		sub	sp, sp, #16	@,,
 2952              		.cfi_def_cfa_offset 24
 2953 0004 00AF     		add	r7, sp, #0	@,,
 2954              		.cfi_def_cfa_register 7
 2955 0006 7860     		str	r0, [r7, #4]	@ UARTx, UARTx
 2956 0008 0B46     		mov	r3, r1	@ tmp117, Pin
 2957 000a FB70     		strb	r3, [r7, #3]	@ tmp118, Pin
 2958 000c 1346     		mov	r3, r2	@ tmp120, tmp119
 2959 000e BB70     		strb	r3, [r7, #2]	@ tmp120, NewState
1092:core/lpc17xx_uart.c **** 	uint8_t tmp = 0;
 2960              		.loc 1 1092 0
 2961 0010 0023     		movs	r3, #0	@ tmp121,
 2962 0012 FB73     		strb	r3, [r7, #15]	@ tmp122, tmp
1093:core/lpc17xx_uart.c **** 
1094:core/lpc17xx_uart.c **** 	CHECK_PARAM(PARAM_UART1_MODEM(UARTx));
 2963              		.loc 1 1094 0
 2964 0014 7B68     		ldr	r3, [r7, #4]	@ tmp123, UARTx
 2965 0016 234A     		ldr	r2, .L231	@ tmp124,
ARM GAS  C:\Users\STUDENT\AppData\Local\Temp\ccMxouBa.s 			page 73


 2966 0018 9342     		cmp	r3, r2	@ tmp123, tmp124
 2967 001a 04D0     		beq	.L221	@,
 2968              		.loc 1 1094 0 is_stmt 0 discriminator 1
 2969 001c 40F24641 		movw	r1, #1094	@,
 2970 0020 2148     		ldr	r0, .L231+4	@,
 2971 0022 FFF7FEFF 		bl	check_failed	@
 2972              	.L221:
1095:core/lpc17xx_uart.c **** 	CHECK_PARAM(PARAM_UART1_MODEM_PIN(Pin));
 2973              		.loc 1 1095 0 is_stmt 1
 2974 0026 FB78     		ldrb	r3, [r7, #3]	@ zero_extendqisi2	@ tmp125, Pin
 2975 0028 002B     		cmp	r3, #0	@ tmp125,
 2976 002a 07D0     		beq	.L222	@,
 2977              		.loc 1 1095 0 is_stmt 0 discriminator 1
 2978 002c FB78     		ldrb	r3, [r7, #3]	@ zero_extendqisi2	@ tmp126, Pin
 2979 002e 012B     		cmp	r3, #1	@ tmp126,
 2980 0030 04D0     		beq	.L222	@,
 2981              		.loc 1 1095 0 discriminator 2
 2982 0032 40F24741 		movw	r1, #1095	@,
 2983 0036 1C48     		ldr	r0, .L231+4	@,
 2984 0038 FFF7FEFF 		bl	check_failed	@
 2985              	.L222:
1096:core/lpc17xx_uart.c **** 	CHECK_PARAM(PARAM_UART1_SIGNALSTATE(NewState));
 2986              		.loc 1 1096 0 is_stmt 1
 2987 003c BB78     		ldrb	r3, [r7, #2]	@ zero_extendqisi2	@ tmp127, NewState
 2988 003e 002B     		cmp	r3, #0	@ tmp127,
 2989 0040 07D0     		beq	.L223	@,
 2990              		.loc 1 1096 0 is_stmt 0 discriminator 1
 2991 0042 BB78     		ldrb	r3, [r7, #2]	@ zero_extendqisi2	@ tmp128, NewState
 2992 0044 012B     		cmp	r3, #1	@ tmp128,
 2993 0046 04D0     		beq	.L223	@,
 2994              		.loc 1 1096 0 discriminator 2
 2995 0048 4FF48961 		mov	r1, #1096	@,
 2996 004c 1648     		ldr	r0, .L231+4	@,
 2997 004e FFF7FEFF 		bl	check_failed	@
 2998              	.L223:
1097:core/lpc17xx_uart.c **** 
1098:core/lpc17xx_uart.c **** 	switch (Pin){
 2999              		.loc 1 1098 0 is_stmt 1
 3000 0052 FB78     		ldrb	r3, [r7, #3]	@ zero_extendqisi2	@ D.6736, Pin
 3001 0054 002B     		cmp	r3, #0	@ D.6736,
 3002 0056 02D0     		beq	.L225	@,
 3003 0058 012B     		cmp	r3, #1	@ D.6736,
 3004 005a 03D0     		beq	.L226	@,
1099:core/lpc17xx_uart.c **** 	case UART1_MODEM_PIN_DTR:
1100:core/lpc17xx_uart.c **** 		tmp = UART1_MCR_DTR_CTRL;
1101:core/lpc17xx_uart.c **** 		break;
1102:core/lpc17xx_uart.c **** 	case UART1_MODEM_PIN_RTS:
1103:core/lpc17xx_uart.c **** 		tmp = UART1_MCR_RTS_CTRL;
1104:core/lpc17xx_uart.c **** 		break;
1105:core/lpc17xx_uart.c **** 	default:
1106:core/lpc17xx_uart.c **** 		break;
 3005              		.loc 1 1106 0
 3006 005c 05E0     		b	.L227	@
 3007              	.L225:
1100:core/lpc17xx_uart.c **** 		break;
 3008              		.loc 1 1100 0
 3009 005e 0123     		movs	r3, #1	@ tmp129,
ARM GAS  C:\Users\STUDENT\AppData\Local\Temp\ccMxouBa.s 			page 74


 3010 0060 FB73     		strb	r3, [r7, #15]	@ tmp130, tmp
1101:core/lpc17xx_uart.c **** 	case UART1_MODEM_PIN_RTS:
 3011              		.loc 1 1101 0
 3012 0062 02E0     		b	.L227	@
 3013              	.L226:
1103:core/lpc17xx_uart.c **** 		break;
 3014              		.loc 1 1103 0
 3015 0064 0223     		movs	r3, #2	@ tmp131,
 3016 0066 FB73     		strb	r3, [r7, #15]	@ tmp132, tmp
1104:core/lpc17xx_uart.c **** 	default:
 3017              		.loc 1 1104 0
 3018 0068 00BF     		nop
 3019              	.L227:
1107:core/lpc17xx_uart.c **** 	}
1108:core/lpc17xx_uart.c **** 
1109:core/lpc17xx_uart.c **** 	if (NewState == ACTIVE){
 3020              		.loc 1 1109 0
 3021 006a BB78     		ldrb	r3, [r7, #2]	@ zero_extendqisi2	@ tmp133, NewState
 3022 006c 012B     		cmp	r3, #1	@ tmp133,
 3023 006e 08D1     		bne	.L228	@,
1110:core/lpc17xx_uart.c **** 		UARTx->MCR |= tmp;
 3024              		.loc 1 1110 0
 3025 0070 7B68     		ldr	r3, [r7, #4]	@ tmp134, UARTx
 3026 0072 1B7C     		ldrb	r3, [r3, #16]	@ tmp136, UARTx_7(D)->MCR
 3027 0074 DAB2     		uxtb	r2, r3	@ D.6737, tmp136
 3028 0076 FB7B     		ldrb	r3, [r7, #15]	@ tmp137, tmp
 3029 0078 1343     		orrs	r3, r3, r2	@, tmp138, tmp137, D.6737
 3030 007a DAB2     		uxtb	r2, r3	@ D.6737, tmp138
 3031 007c 7B68     		ldr	r3, [r7, #4]	@ tmp139, UARTx
 3032 007e 1A74     		strb	r2, [r3, #16]	@ tmp140, UARTx_7(D)->MCR
1111:core/lpc17xx_uart.c **** 	} else {
1112:core/lpc17xx_uart.c **** 		UARTx->MCR &= (~tmp) & UART1_MCR_BITMASK;
1113:core/lpc17xx_uart.c **** 	}
1114:core/lpc17xx_uart.c **** }
 3033              		.loc 1 1114 0
 3034 0080 0CE0     		b	.L230	@
 3035              	.L228:
1112:core/lpc17xx_uart.c **** 	}
 3036              		.loc 1 1112 0
 3037 0082 7B68     		ldr	r3, [r7, #4]	@ tmp141, UARTx
 3038 0084 1B7C     		ldrb	r3, [r3, #16]	@ tmp143, UARTx_7(D)->MCR
 3039 0086 DAB2     		uxtb	r2, r3	@ D.6737, tmp143
 3040 0088 FB7B     		ldrb	r3, [r7, #15]	@ tmp144, tmp
 3041 008a DB43     		mvns	r3, r3	@ tmp145, tmp144
 3042 008c DBB2     		uxtb	r3, r3	@ D.6737, tmp145
 3043 008e 1340     		ands	r3, r3, r2	@, tmp146, D.6737, D.6737
 3044 0090 DBB2     		uxtb	r3, r3	@ D.6737, tmp146
 3045 0092 23F00C03 		bic	r3, r3, #12	@ tmp147, D.6737,
 3046 0096 DAB2     		uxtb	r2, r3	@ D.6737, tmp147
 3047 0098 7B68     		ldr	r3, [r7, #4]	@ tmp148, UARTx
 3048 009a 1A74     		strb	r2, [r3, #16]	@ tmp149, UARTx_7(D)->MCR
 3049              	.L230:
 3050              		.loc 1 1114 0
 3051 009c 00BF     		nop
 3052 009e 1037     		adds	r7, r7, #16	@,,
 3053              		.cfi_def_cfa_offset 8
 3054 00a0 BD46     		mov	sp, r7	@,
ARM GAS  C:\Users\STUDENT\AppData\Local\Temp\ccMxouBa.s 			page 75


 3055              		.cfi_def_cfa_register 13
 3056              		@ sp needed	@
 3057 00a2 80BD     		pop	{r7, pc}	@
 3058              	.L232:
 3059              		.align	2
 3060              	.L231:
 3061 00a4 00000140 		.word	1073807360
 3062 00a8 00000000 		.word	.LC0
 3063              		.cfi_endproc
 3064              	.LFE74:
 3065              		.size	UART_FullModemForcePinState, .-UART_FullModemForcePinState
 3066              		.section	.text.UART_FullModemConfigMode,"ax",%progbits
 3067              		.align	2
 3068              		.global	UART_FullModemConfigMode
 3069              		.thumb
 3070              		.thumb_func
 3071              		.type	UART_FullModemConfigMode, %function
 3072              	UART_FullModemConfigMode:
 3073              	.LFB75:
1115:core/lpc17xx_uart.c **** 
1116:core/lpc17xx_uart.c **** 
1117:core/lpc17xx_uart.c **** /*********************************************************************//**
1118:core/lpc17xx_uart.c ****  * @brief		Configure Full Modem mode for UART peripheral
1119:core/lpc17xx_uart.c ****  * @param[in]	UARTx	UART1 (only)
1120:core/lpc17xx_uart.c ****  * @param[in]	Mode Full Modem mode, should be:
1121:core/lpc17xx_uart.c ****  * 				- UART1_MODEM_MODE_LOOPBACK: Loop back mode.
1122:core/lpc17xx_uart.c ****  * 				- UART1_MODEM_MODE_AUTO_RTS: Auto-RTS mode.
1123:core/lpc17xx_uart.c ****  * 				- UART1_MODEM_MODE_AUTO_CTS: Auto-CTS mode.
1124:core/lpc17xx_uart.c ****  * @param[in]	NewState New State of this mode, should be:
1125:core/lpc17xx_uart.c ****  * 				- ENABLE: Enable this mode.
1126:core/lpc17xx_uart.c **** 				- DISABLE: Disable this mode.
1127:core/lpc17xx_uart.c ****  * @return none
1128:core/lpc17xx_uart.c ****  **********************************************************************/
1129:core/lpc17xx_uart.c **** void UART_FullModemConfigMode(LPC_UART1_TypeDef *UARTx, UART_MODEM_MODE_Type Mode, \
1130:core/lpc17xx_uart.c **** 							FunctionalState NewState)
1131:core/lpc17xx_uart.c **** {
 3074              		.loc 1 1131 0
 3075              		.cfi_startproc
 3076              		@ args = 0, pretend = 0, frame = 16
 3077              		@ frame_needed = 1, uses_anonymous_args = 0
 3078 0000 80B5     		push	{r7, lr}	@
 3079              		.cfi_def_cfa_offset 8
 3080              		.cfi_offset 7, -8
 3081              		.cfi_offset 14, -4
 3082 0002 84B0     		sub	sp, sp, #16	@,,
 3083              		.cfi_def_cfa_offset 24
 3084 0004 00AF     		add	r7, sp, #0	@,,
 3085              		.cfi_def_cfa_register 7
 3086 0006 7860     		str	r0, [r7, #4]	@ UARTx, UARTx
 3087 0008 0B46     		mov	r3, r1	@ tmp117, Mode
 3088 000a FB70     		strb	r3, [r7, #3]	@ tmp118, Mode
 3089 000c 1346     		mov	r3, r2	@ tmp120, tmp119
 3090 000e BB70     		strb	r3, [r7, #2]	@ tmp120, NewState
1132:core/lpc17xx_uart.c **** 	uint8_t tmp;
1133:core/lpc17xx_uart.c **** 
1134:core/lpc17xx_uart.c **** 	CHECK_PARAM(PARAM_UART1_MODEM(UARTx));
 3091              		.loc 1 1134 0
ARM GAS  C:\Users\STUDENT\AppData\Local\Temp\ccMxouBa.s 			page 76


 3092 0010 7B68     		ldr	r3, [r7, #4]	@ tmp121, UARTx
 3093 0012 274A     		ldr	r2, .L245	@ tmp122,
 3094 0014 9342     		cmp	r3, r2	@ tmp121, tmp122
 3095 0016 04D0     		beq	.L234	@,
 3096              		.loc 1 1134 0 is_stmt 0 discriminator 1
 3097 0018 40F26E41 		movw	r1, #1134	@,
 3098 001c 2548     		ldr	r0, .L245+4	@,
 3099 001e FFF7FEFF 		bl	check_failed	@
 3100              	.L234:
1135:core/lpc17xx_uart.c **** 	CHECK_PARAM(PARAM_UART1_MODEM_MODE(Mode));
 3101              		.loc 1 1135 0 is_stmt 1
 3102 0022 FB78     		ldrb	r3, [r7, #3]	@ zero_extendqisi2	@ tmp123, Mode
 3103 0024 002B     		cmp	r3, #0	@ tmp123,
 3104 0026 0AD0     		beq	.L235	@,
 3105              		.loc 1 1135 0 is_stmt 0 discriminator 1
 3106 0028 FB78     		ldrb	r3, [r7, #3]	@ zero_extendqisi2	@ tmp124, Mode
 3107 002a 012B     		cmp	r3, #1	@ tmp124,
 3108 002c 07D0     		beq	.L235	@,
 3109              		.loc 1 1135 0 discriminator 2
 3110 002e FB78     		ldrb	r3, [r7, #3]	@ zero_extendqisi2	@ tmp125, Mode
 3111 0030 022B     		cmp	r3, #2	@ tmp125,
 3112 0032 04D0     		beq	.L235	@,
 3113              		.loc 1 1135 0 discriminator 3
 3114 0034 40F26F41 		movw	r1, #1135	@,
 3115 0038 1E48     		ldr	r0, .L245+4	@,
 3116 003a FFF7FEFF 		bl	check_failed	@
 3117              	.L235:
1136:core/lpc17xx_uart.c **** 	CHECK_PARAM(PARAM_FUNCTIONALSTATE(NewState));
 3118              		.loc 1 1136 0 is_stmt 1
 3119 003e BB78     		ldrb	r3, [r7, #2]	@ zero_extendqisi2	@ tmp126, NewState
 3120 0040 002B     		cmp	r3, #0	@ tmp126,
 3121 0042 07D0     		beq	.L236	@,
 3122              		.loc 1 1136 0 is_stmt 0 discriminator 1
 3123 0044 BB78     		ldrb	r3, [r7, #2]	@ zero_extendqisi2	@ tmp127, NewState
 3124 0046 012B     		cmp	r3, #1	@ tmp127,
 3125 0048 04D0     		beq	.L236	@,
 3126              		.loc 1 1136 0 discriminator 2
 3127 004a 4FF48E61 		mov	r1, #1136	@,
 3128 004e 1948     		ldr	r0, .L245+4	@,
 3129 0050 FFF7FEFF 		bl	check_failed	@
 3130              	.L236:
1137:core/lpc17xx_uart.c **** 
1138:core/lpc17xx_uart.c **** 	switch(Mode){
 3131              		.loc 1 1138 0 is_stmt 1
 3132 0054 FB78     		ldrb	r3, [r7, #3]	@ zero_extendqisi2	@ D.6738, Mode
 3133 0056 012B     		cmp	r3, #1	@ D.6738,
 3134 0058 07D0     		beq	.L238	@,
 3135 005a 022B     		cmp	r3, #2	@ D.6738,
 3136 005c 08D0     		beq	.L239	@,
 3137 005e 002B     		cmp	r3, #0	@ D.6738,
 3138 0060 00D0     		beq	.L240	@,
1139:core/lpc17xx_uart.c **** 	case UART1_MODEM_MODE_LOOPBACK:
1140:core/lpc17xx_uart.c **** 		tmp = UART1_MCR_LOOPB_EN;
1141:core/lpc17xx_uart.c **** 		break;
1142:core/lpc17xx_uart.c **** 	case UART1_MODEM_MODE_AUTO_RTS:
1143:core/lpc17xx_uart.c **** 		tmp = UART1_MCR_AUTO_RTS_EN;
1144:core/lpc17xx_uart.c **** 		break;
ARM GAS  C:\Users\STUDENT\AppData\Local\Temp\ccMxouBa.s 			page 77


1145:core/lpc17xx_uart.c **** 	case UART1_MODEM_MODE_AUTO_CTS:
1146:core/lpc17xx_uart.c **** 		tmp = UART1_MCR_AUTO_CTS_EN;
1147:core/lpc17xx_uart.c **** 		break;
1148:core/lpc17xx_uart.c **** 	default:
1149:core/lpc17xx_uart.c **** 		break;
 3139              		.loc 1 1149 0
 3140 0062 08E0     		b	.L241	@
 3141              	.L240:
1140:core/lpc17xx_uart.c **** 		break;
 3142              		.loc 1 1140 0
 3143 0064 1023     		movs	r3, #16	@ tmp128,
 3144 0066 FB73     		strb	r3, [r7, #15]	@ tmp129, tmp
1141:core/lpc17xx_uart.c **** 	case UART1_MODEM_MODE_AUTO_RTS:
 3145              		.loc 1 1141 0
 3146 0068 05E0     		b	.L241	@
 3147              	.L238:
1143:core/lpc17xx_uart.c **** 		break;
 3148              		.loc 1 1143 0
 3149 006a 4023     		movs	r3, #64	@ tmp130,
 3150 006c FB73     		strb	r3, [r7, #15]	@ tmp131, tmp
1144:core/lpc17xx_uart.c **** 	case UART1_MODEM_MODE_AUTO_CTS:
 3151              		.loc 1 1144 0
 3152 006e 02E0     		b	.L241	@
 3153              	.L239:
1146:core/lpc17xx_uart.c **** 		break;
 3154              		.loc 1 1146 0
 3155 0070 8023     		movs	r3, #128	@ tmp132,
 3156 0072 FB73     		strb	r3, [r7, #15]	@ tmp133, tmp
1147:core/lpc17xx_uart.c **** 	default:
 3157              		.loc 1 1147 0
 3158 0074 00BF     		nop
 3159              	.L241:
1150:core/lpc17xx_uart.c **** 	}
1151:core/lpc17xx_uart.c **** 
1152:core/lpc17xx_uart.c **** 	if (NewState == ENABLE)
 3160              		.loc 1 1152 0
 3161 0076 BB78     		ldrb	r3, [r7, #2]	@ zero_extendqisi2	@ tmp134, NewState
 3162 0078 012B     		cmp	r3, #1	@ tmp134,
 3163 007a 08D1     		bne	.L242	@,
1153:core/lpc17xx_uart.c **** 	{
1154:core/lpc17xx_uart.c **** 		UARTx->MCR |= tmp;
 3164              		.loc 1 1154 0
 3165 007c 7B68     		ldr	r3, [r7, #4]	@ tmp135, UARTx
 3166 007e 1B7C     		ldrb	r3, [r3, #16]	@ tmp137, UARTx_6(D)->MCR
 3167 0080 DAB2     		uxtb	r2, r3	@ D.6739, tmp137
 3168 0082 FB7B     		ldrb	r3, [r7, #15]	@ tmp138, tmp
 3169 0084 1343     		orrs	r3, r3, r2	@, tmp139, tmp138, D.6739
 3170 0086 DAB2     		uxtb	r2, r3	@ D.6739, tmp139
 3171 0088 7B68     		ldr	r3, [r7, #4]	@ tmp140, UARTx
 3172 008a 1A74     		strb	r2, [r3, #16]	@ tmp141, UARTx_6(D)->MCR
1155:core/lpc17xx_uart.c **** 	}
1156:core/lpc17xx_uart.c **** 	else
1157:core/lpc17xx_uart.c **** 	{
1158:core/lpc17xx_uart.c **** 		UARTx->MCR &= (~tmp) & UART1_MCR_BITMASK;
1159:core/lpc17xx_uart.c **** 	}
1160:core/lpc17xx_uart.c **** }
 3173              		.loc 1 1160 0
ARM GAS  C:\Users\STUDENT\AppData\Local\Temp\ccMxouBa.s 			page 78


 3174 008c 0CE0     		b	.L244	@
 3175              	.L242:
1158:core/lpc17xx_uart.c **** 	}
 3176              		.loc 1 1158 0
 3177 008e 7B68     		ldr	r3, [r7, #4]	@ tmp142, UARTx
 3178 0090 1B7C     		ldrb	r3, [r3, #16]	@ tmp144, UARTx_6(D)->MCR
 3179 0092 DAB2     		uxtb	r2, r3	@ D.6739, tmp144
 3180 0094 FB7B     		ldrb	r3, [r7, #15]	@ tmp145, tmp
 3181 0096 DB43     		mvns	r3, r3	@ tmp146, tmp145
 3182 0098 DBB2     		uxtb	r3, r3	@ D.6739, tmp146
 3183 009a 1340     		ands	r3, r3, r2	@, tmp147, D.6739, D.6739
 3184 009c DBB2     		uxtb	r3, r3	@ D.6739, tmp147
 3185 009e 23F00C03 		bic	r3, r3, #12	@ tmp148, D.6739,
 3186 00a2 DAB2     		uxtb	r2, r3	@ D.6739, tmp148
 3187 00a4 7B68     		ldr	r3, [r7, #4]	@ tmp149, UARTx
 3188 00a6 1A74     		strb	r2, [r3, #16]	@ tmp150, UARTx_6(D)->MCR
 3189              	.L244:
 3190              		.loc 1 1160 0
 3191 00a8 00BF     		nop
 3192 00aa 1037     		adds	r7, r7, #16	@,,
 3193              		.cfi_def_cfa_offset 8
 3194 00ac BD46     		mov	sp, r7	@,
 3195              		.cfi_def_cfa_register 13
 3196              		@ sp needed	@
 3197 00ae 80BD     		pop	{r7, pc}	@
 3198              	.L246:
 3199              		.align	2
 3200              	.L245:
 3201 00b0 00000140 		.word	1073807360
 3202 00b4 00000000 		.word	.LC0
 3203              		.cfi_endproc
 3204              	.LFE75:
 3205              		.size	UART_FullModemConfigMode, .-UART_FullModemConfigMode
 3206              		.section	.text.UART_FullModemGetStatus,"ax",%progbits
 3207              		.align	2
 3208              		.global	UART_FullModemGetStatus
 3209              		.thumb
 3210              		.thumb_func
 3211              		.type	UART_FullModemGetStatus, %function
 3212              	UART_FullModemGetStatus:
 3213              	.LFB76:
1161:core/lpc17xx_uart.c **** 
1162:core/lpc17xx_uart.c **** 
1163:core/lpc17xx_uart.c **** /*********************************************************************//**
1164:core/lpc17xx_uart.c ****  * @brief		Get current status of modem status register
1165:core/lpc17xx_uart.c ****  * @param[in]	UARTx	UART1 (only)
1166:core/lpc17xx_uart.c ****  * @return 		Current value of modem status register
1167:core/lpc17xx_uart.c ****  * Note:	The return value of this function must be ANDed with each member
1168:core/lpc17xx_uart.c ****  * 			UART_MODEM_STAT_type enumeration to determine current flag status
1169:core/lpc17xx_uart.c ****  * 			corresponding to each modem flag status. Because some flags in
1170:core/lpc17xx_uart.c ****  * 			modem status register will be cleared after reading, the next reading
1171:core/lpc17xx_uart.c ****  * 			modem register could not be correct. So this function used to
1172:core/lpc17xx_uart.c ****  * 			read modem status register in one time only, then the return value
1173:core/lpc17xx_uart.c ****  * 			used to check all flags.
1174:core/lpc17xx_uart.c ****  **********************************************************************/
1175:core/lpc17xx_uart.c **** uint8_t UART_FullModemGetStatus(LPC_UART1_TypeDef *UARTx)
1176:core/lpc17xx_uart.c **** {
ARM GAS  C:\Users\STUDENT\AppData\Local\Temp\ccMxouBa.s 			page 79


 3214              		.loc 1 1176 0
 3215              		.cfi_startproc
 3216              		@ args = 0, pretend = 0, frame = 8
 3217              		@ frame_needed = 1, uses_anonymous_args = 0
 3218 0000 80B5     		push	{r7, lr}	@
 3219              		.cfi_def_cfa_offset 8
 3220              		.cfi_offset 7, -8
 3221              		.cfi_offset 14, -4
 3222 0002 82B0     		sub	sp, sp, #8	@,,
 3223              		.cfi_def_cfa_offset 16
 3224 0004 00AF     		add	r7, sp, #0	@,,
 3225              		.cfi_def_cfa_register 7
 3226 0006 7860     		str	r0, [r7, #4]	@ UARTx, UARTx
1177:core/lpc17xx_uart.c **** 	CHECK_PARAM(PARAM_UART1_MODEM(UARTx));
 3227              		.loc 1 1177 0
 3228 0008 7B68     		ldr	r3, [r7, #4]	@ tmp112, UARTx
 3229 000a 074A     		ldr	r2, .L250	@ tmp113,
 3230 000c 9342     		cmp	r3, r2	@ tmp112, tmp113
 3231 000e 04D0     		beq	.L248	@,
 3232              		.loc 1 1177 0 is_stmt 0 discriminator 1
 3233 0010 40F29941 		movw	r1, #1177	@,
 3234 0014 0548     		ldr	r0, .L250+4	@,
 3235 0016 FFF7FEFF 		bl	check_failed	@
 3236              	.L248:
1178:core/lpc17xx_uart.c **** 	return ((UARTx->MSR) & UART1_MSR_BITMASK);
 3237              		.loc 1 1178 0 is_stmt 1
 3238 001a 7B68     		ldr	r3, [r7, #4]	@ tmp114, UARTx
 3239 001c 1B7E     		ldrb	r3, [r3, #24]	@ tmp116, UARTx_2(D)->MSR
 3240 001e DBB2     		uxtb	r3, r3	@ D.6740, tmp116
1179:core/lpc17xx_uart.c **** }
 3241              		.loc 1 1179 0
 3242 0020 1846     		mov	r0, r3	@, <retval>
 3243 0022 0837     		adds	r7, r7, #8	@,,
 3244              		.cfi_def_cfa_offset 8
 3245 0024 BD46     		mov	sp, r7	@,
 3246              		.cfi_def_cfa_register 13
 3247              		@ sp needed	@
 3248 0026 80BD     		pop	{r7, pc}	@
 3249              	.L251:
 3250              		.align	2
 3251              	.L250:
 3252 0028 00000140 		.word	1073807360
 3253 002c 00000000 		.word	.LC0
 3254              		.cfi_endproc
 3255              	.LFE76:
 3256              		.size	UART_FullModemGetStatus, .-UART_FullModemGetStatus
 3257              		.section	.text.UART_RS485Config,"ax",%progbits
 3258              		.align	2
 3259              		.global	UART_RS485Config
 3260              		.thumb
 3261              		.thumb_func
 3262              		.type	UART_RS485Config, %function
 3263              	UART_RS485Config:
 3264              	.LFB77:
1180:core/lpc17xx_uart.c **** 
1181:core/lpc17xx_uart.c **** 
1182:core/lpc17xx_uart.c **** /*********************************************************************//**
ARM GAS  C:\Users\STUDENT\AppData\Local\Temp\ccMxouBa.s 			page 80


1183:core/lpc17xx_uart.c ****  * @brief		Configure UART peripheral in RS485 mode according to the specified
1184:core/lpc17xx_uart.c **** *               parameters in the RS485ConfigStruct.
1185:core/lpc17xx_uart.c ****  * @param[in]	UARTx	UART1 (only)
1186:core/lpc17xx_uart.c ****  * @param[in]	RS485ConfigStruct Pointer to a UART1_RS485_CTRLCFG_Type structure
1187:core/lpc17xx_uart.c **** *                    that contains the configuration information for specified UART
1188:core/lpc17xx_uart.c **** *                    in RS485 mode.
1189:core/lpc17xx_uart.c ****  * @return		None
1190:core/lpc17xx_uart.c ****  **********************************************************************/
1191:core/lpc17xx_uart.c **** void UART_RS485Config(LPC_UART1_TypeDef *UARTx, UART1_RS485_CTRLCFG_Type *RS485ConfigStruct)
1192:core/lpc17xx_uart.c **** {
 3265              		.loc 1 1192 0
 3266              		.cfi_startproc
 3267              		@ args = 0, pretend = 0, frame = 16
 3268              		@ frame_needed = 1, uses_anonymous_args = 0
 3269 0000 80B5     		push	{r7, lr}	@
 3270              		.cfi_def_cfa_offset 8
 3271              		.cfi_offset 7, -8
 3272              		.cfi_offset 14, -4
 3273 0002 84B0     		sub	sp, sp, #16	@,,
 3274              		.cfi_def_cfa_offset 24
 3275 0004 00AF     		add	r7, sp, #0	@,,
 3276              		.cfi_def_cfa_register 7
 3277 0006 7860     		str	r0, [r7, #4]	@ UARTx, UARTx
 3278 0008 3960     		str	r1, [r7]	@ RS485ConfigStruct, RS485ConfigStruct
1193:core/lpc17xx_uart.c **** 	uint32_t tmp;
1194:core/lpc17xx_uart.c **** 
1195:core/lpc17xx_uart.c **** 	CHECK_PARAM(PARAM_UART1_MODEM(UARTx));
 3279              		.loc 1 1195 0
 3280 000a 7B68     		ldr	r3, [r7, #4]	@ tmp136, UARTx
 3281 000c 5B4A     		ldr	r2, .L268	@ tmp137,
 3282 000e 9342     		cmp	r3, r2	@ tmp136, tmp137
 3283 0010 04D0     		beq	.L253	@,
 3284              		.loc 1 1195 0 is_stmt 0 discriminator 1
 3285 0012 40F2AB41 		movw	r1, #1195	@,
 3286 0016 5A48     		ldr	r0, .L268+4	@,
 3287 0018 FFF7FEFF 		bl	check_failed	@
 3288              	.L253:
1196:core/lpc17xx_uart.c **** 	CHECK_PARAM(PARAM_FUNCTIONALSTATE(RS485ConfigStruct->AutoAddrDetect_State));
 3289              		.loc 1 1196 0 is_stmt 1
 3290 001c 3B68     		ldr	r3, [r7]	@ tmp138, RS485ConfigStruct
 3291 001e 9B78     		ldrb	r3, [r3, #2]	@ zero_extendqisi2	@ D.6741, RS485ConfigStruct_21(D)->AutoAddrDetect_State
 3292 0020 002B     		cmp	r3, #0	@ D.6741,
 3293 0022 08D0     		beq	.L254	@,
 3294              		.loc 1 1196 0 is_stmt 0 discriminator 1
 3295 0024 3B68     		ldr	r3, [r7]	@ tmp139, RS485ConfigStruct
 3296 0026 9B78     		ldrb	r3, [r3, #2]	@ zero_extendqisi2	@ D.6741, RS485ConfigStruct_21(D)->AutoAddrDetect_State
 3297 0028 012B     		cmp	r3, #1	@ D.6741,
 3298 002a 04D0     		beq	.L254	@,
 3299              		.loc 1 1196 0 discriminator 2
 3300 002c 40F2AC41 		movw	r1, #1196	@,
 3301 0030 5348     		ldr	r0, .L268+4	@,
 3302 0032 FFF7FEFF 		bl	check_failed	@
 3303              	.L254:
1197:core/lpc17xx_uart.c **** 	CHECK_PARAM(PARAM_FUNCTIONALSTATE(RS485ConfigStruct->AutoDirCtrl_State));
 3304              		.loc 1 1197 0 is_stmt 1
 3305 0036 3B68     		ldr	r3, [r7]	@ tmp140, RS485ConfigStruct
 3306 0038 DB78     		ldrb	r3, [r3, #3]	@ zero_extendqisi2	@ D.6741, RS485ConfigStruct_21(D)->AutoDirCtrl_State
ARM GAS  C:\Users\STUDENT\AppData\Local\Temp\ccMxouBa.s 			page 81


 3307 003a 002B     		cmp	r3, #0	@ D.6741,
 3308 003c 08D0     		beq	.L255	@,
 3309              		.loc 1 1197 0 is_stmt 0 discriminator 1
 3310 003e 3B68     		ldr	r3, [r7]	@ tmp141, RS485ConfigStruct
 3311 0040 DB78     		ldrb	r3, [r3, #3]	@ zero_extendqisi2	@ D.6741, RS485ConfigStruct_21(D)->AutoDirCtrl_State
 3312 0042 012B     		cmp	r3, #1	@ D.6741,
 3313 0044 04D0     		beq	.L255	@,
 3314              		.loc 1 1197 0 discriminator 2
 3315 0046 40F2AD41 		movw	r1, #1197	@,
 3316 004a 4D48     		ldr	r0, .L268+4	@,
 3317 004c FFF7FEFF 		bl	check_failed	@
 3318              	.L255:
1198:core/lpc17xx_uart.c **** 	CHECK_PARAM(PARAM_UART1_RS485_CFG_DELAYVALUE(RS485ConfigStruct->DelayValue));
 3319              		.loc 1 1198 0 is_stmt 1
 3320 0050 3B68     		ldr	r3, [r7]	@ tmp142, RS485ConfigStruct
 3321 0052 DB79     		ldrb	r3, [r3, #7]	@ zero_extendqisi2	@ D.6742, RS485ConfigStruct_21(D)->DelayValue
 3322 0054 FF2B     		cmp	r3, #255	@ D.6742,
 3323 0056 04D1     		bne	.L256	@,
 3324              		.loc 1 1198 0 is_stmt 0 discriminator 1
 3325 0058 40F2AE41 		movw	r1, #1198	@,
 3326 005c 4848     		ldr	r0, .L268+4	@,
 3327 005e FFF7FEFF 		bl	check_failed	@
 3328              	.L256:
1199:core/lpc17xx_uart.c **** 	CHECK_PARAM(PARAM_SETSTATE(RS485ConfigStruct->DirCtrlPol_Level));
 3329              		.loc 1 1199 0 is_stmt 1
 3330 0062 3B68     		ldr	r3, [r7]	@ tmp143, RS485ConfigStruct
 3331 0064 5B79     		ldrb	r3, [r3, #5]	@ zero_extendqisi2	@ D.6743, RS485ConfigStruct_21(D)->DirCtrlPol_Level
 3332 0066 002B     		cmp	r3, #0	@ D.6743,
 3333 0068 08D0     		beq	.L257	@,
 3334              		.loc 1 1199 0 is_stmt 0 discriminator 1
 3335 006a 3B68     		ldr	r3, [r7]	@ tmp144, RS485ConfigStruct
 3336 006c 5B79     		ldrb	r3, [r3, #5]	@ zero_extendqisi2	@ D.6743, RS485ConfigStruct_21(D)->DirCtrlPol_Level
 3337 006e 012B     		cmp	r3, #1	@ D.6743,
 3338 0070 04D0     		beq	.L257	@,
 3339              		.loc 1 1199 0 discriminator 2
 3340 0072 40F2AF41 		movw	r1, #1199	@,
 3341 0076 4248     		ldr	r0, .L268+4	@,
 3342 0078 FFF7FEFF 		bl	check_failed	@
 3343              	.L257:
1200:core/lpc17xx_uart.c **** 	CHECK_PARAM(PARAM_UART_RS485_DIRCTRL_PIN(RS485ConfigStruct->DirCtrlPin));
 3344              		.loc 1 1200 0 is_stmt 1
 3345 007c 3B68     		ldr	r3, [r7]	@ tmp145, RS485ConfigStruct
 3346 007e 1B79     		ldrb	r3, [r3, #4]	@ zero_extendqisi2	@ D.6744, RS485ConfigStruct_21(D)->DirCtrlPin
 3347 0080 002B     		cmp	r3, #0	@ D.6744,
 3348 0082 08D0     		beq	.L258	@,
 3349              		.loc 1 1200 0 is_stmt 0 discriminator 1
 3350 0084 3B68     		ldr	r3, [r7]	@ tmp146, RS485ConfigStruct
 3351 0086 1B79     		ldrb	r3, [r3, #4]	@ zero_extendqisi2	@ D.6744, RS485ConfigStruct_21(D)->DirCtrlPin
 3352 0088 012B     		cmp	r3, #1	@ D.6744,
 3353 008a 04D0     		beq	.L258	@,
 3354              		.loc 1 1200 0 discriminator 2
 3355 008c 4FF49661 		mov	r1, #1200	@,
 3356 0090 3B48     		ldr	r0, .L268+4	@,
 3357 0092 FFF7FEFF 		bl	check_failed	@
 3358              	.L258:
1201:core/lpc17xx_uart.c **** 	CHECK_PARAM(PARAM_UART1_RS485_CFG_MATCHADDRVALUE(RS485ConfigStruct->MatchAddrValue));
 3359              		.loc 1 1201 0 is_stmt 1
ARM GAS  C:\Users\STUDENT\AppData\Local\Temp\ccMxouBa.s 			page 82


 3360 0096 3B68     		ldr	r3, [r7]	@ tmp147, RS485ConfigStruct
 3361 0098 9B79     		ldrb	r3, [r3, #6]	@ zero_extendqisi2	@ D.6742, RS485ConfigStruct_21(D)->MatchAddrValue
 3362 009a FF2B     		cmp	r3, #255	@ D.6742,
 3363 009c 04D1     		bne	.L259	@,
 3364              		.loc 1 1201 0 is_stmt 0 discriminator 1
 3365 009e 40F2B141 		movw	r1, #1201	@,
 3366 00a2 3748     		ldr	r0, .L268+4	@,
 3367 00a4 FFF7FEFF 		bl	check_failed	@
 3368              	.L259:
1202:core/lpc17xx_uart.c **** 	CHECK_PARAM(PARAM_FUNCTIONALSTATE(RS485ConfigStruct->NormalMultiDropMode_State));
 3369              		.loc 1 1202 0 is_stmt 1
 3370 00a8 3B68     		ldr	r3, [r7]	@ tmp148, RS485ConfigStruct
 3371 00aa 1B78     		ldrb	r3, [r3]	@ zero_extendqisi2	@ D.6741, RS485ConfigStruct_21(D)->NormalMultiDropMode_State
 3372 00ac 002B     		cmp	r3, #0	@ D.6741,
 3373 00ae 08D0     		beq	.L260	@,
 3374              		.loc 1 1202 0 is_stmt 0 discriminator 1
 3375 00b0 3B68     		ldr	r3, [r7]	@ tmp149, RS485ConfigStruct
 3376 00b2 1B78     		ldrb	r3, [r3]	@ zero_extendqisi2	@ D.6741, RS485ConfigStruct_21(D)->NormalMultiDropMode_State
 3377 00b4 012B     		cmp	r3, #1	@ D.6741,
 3378 00b6 04D0     		beq	.L260	@,
 3379              		.loc 1 1202 0 discriminator 2
 3380 00b8 40F2B241 		movw	r1, #1202	@,
 3381 00bc 3048     		ldr	r0, .L268+4	@,
 3382 00be FFF7FEFF 		bl	check_failed	@
 3383              	.L260:
1203:core/lpc17xx_uart.c **** 	CHECK_PARAM(PARAM_FUNCTIONALSTATE(RS485ConfigStruct->Rx_State));
 3384              		.loc 1 1203 0 is_stmt 1
 3385 00c2 3B68     		ldr	r3, [r7]	@ tmp150, RS485ConfigStruct
 3386 00c4 5B78     		ldrb	r3, [r3, #1]	@ zero_extendqisi2	@ D.6741, RS485ConfigStruct_21(D)->Rx_State
 3387 00c6 002B     		cmp	r3, #0	@ D.6741,
 3388 00c8 08D0     		beq	.L261	@,
 3389              		.loc 1 1203 0 is_stmt 0 discriminator 1
 3390 00ca 3B68     		ldr	r3, [r7]	@ tmp151, RS485ConfigStruct
 3391 00cc 5B78     		ldrb	r3, [r3, #1]	@ zero_extendqisi2	@ D.6741, RS485ConfigStruct_21(D)->Rx_State
 3392 00ce 012B     		cmp	r3, #1	@ D.6741,
 3393 00d0 04D0     		beq	.L261	@,
 3394              		.loc 1 1203 0 discriminator 2
 3395 00d2 40F2B341 		movw	r1, #1203	@,
 3396 00d6 2A48     		ldr	r0, .L268+4	@,
 3397 00d8 FFF7FEFF 		bl	check_failed	@
 3398              	.L261:
1204:core/lpc17xx_uart.c **** 
1205:core/lpc17xx_uart.c **** 	tmp = 0;
 3399              		.loc 1 1205 0 is_stmt 1
 3400 00dc 0023     		movs	r3, #0	@ tmp152,
 3401 00de FB60     		str	r3, [r7, #12]	@ tmp152, tmp
1206:core/lpc17xx_uart.c **** 	// If Auto Direction Control is enabled -  This function is used in Master mode
1207:core/lpc17xx_uart.c **** 	if (RS485ConfigStruct->AutoDirCtrl_State == ENABLE)
 3402              		.loc 1 1207 0
 3403 00e0 3B68     		ldr	r3, [r7]	@ tmp153, RS485ConfigStruct
 3404 00e2 DB78     		ldrb	r3, [r3, #3]	@ zero_extendqisi2	@ D.6741, RS485ConfigStruct_21(D)->AutoDirCtrl_State
 3405 00e4 012B     		cmp	r3, #1	@ D.6741,
 3406 00e6 18D1     		bne	.L262	@,
1208:core/lpc17xx_uart.c **** 	{
1209:core/lpc17xx_uart.c **** 		tmp |= UART1_RS485CTRL_DCTRL_EN;
 3407              		.loc 1 1209 0
 3408 00e8 FB68     		ldr	r3, [r7, #12]	@ tmp155, tmp
ARM GAS  C:\Users\STUDENT\AppData\Local\Temp\ccMxouBa.s 			page 83


 3409 00ea 43F01003 		orr	r3, r3, #16	@ tmp154, tmp155,
 3410 00ee FB60     		str	r3, [r7, #12]	@ tmp154, tmp
1210:core/lpc17xx_uart.c **** 
1211:core/lpc17xx_uart.c **** 		// Set polar
1212:core/lpc17xx_uart.c **** 		if (RS485ConfigStruct->DirCtrlPol_Level == SET)
 3411              		.loc 1 1212 0
 3412 00f0 3B68     		ldr	r3, [r7]	@ tmp156, RS485ConfigStruct
 3413 00f2 5B79     		ldrb	r3, [r3, #5]	@ zero_extendqisi2	@ D.6743, RS485ConfigStruct_21(D)->DirCtrlPol_Level
 3414 00f4 012B     		cmp	r3, #1	@ D.6743,
 3415 00f6 03D1     		bne	.L263	@,
1213:core/lpc17xx_uart.c **** 		{
1214:core/lpc17xx_uart.c **** 			tmp |= UART1_RS485CTRL_OINV_1;
 3416              		.loc 1 1214 0
 3417 00f8 FB68     		ldr	r3, [r7, #12]	@ tmp158, tmp
 3418 00fa 43F02003 		orr	r3, r3, #32	@ tmp157, tmp158,
 3419 00fe FB60     		str	r3, [r7, #12]	@ tmp157, tmp
 3420              	.L263:
1215:core/lpc17xx_uart.c **** 		}
1216:core/lpc17xx_uart.c **** 
1217:core/lpc17xx_uart.c **** 		// Set pin according to
1218:core/lpc17xx_uart.c **** 		if (RS485ConfigStruct->DirCtrlPin == UART1_RS485_DIRCTRL_DTR)
 3421              		.loc 1 1218 0
 3422 0100 3B68     		ldr	r3, [r7]	@ tmp159, RS485ConfigStruct
 3423 0102 1B79     		ldrb	r3, [r3, #4]	@ zero_extendqisi2	@ D.6744, RS485ConfigStruct_21(D)->DirCtrlPin
 3424 0104 012B     		cmp	r3, #1	@ D.6744,
 3425 0106 03D1     		bne	.L264	@,
1219:core/lpc17xx_uart.c **** 		{
1220:core/lpc17xx_uart.c **** 			tmp |= UART1_RS485CTRL_SEL_DTR;
 3426              		.loc 1 1220 0
 3427 0108 FB68     		ldr	r3, [r7, #12]	@ tmp161, tmp
 3428 010a 43F00803 		orr	r3, r3, #8	@ tmp160, tmp161,
 3429 010e FB60     		str	r3, [r7, #12]	@ tmp160, tmp
 3430              	.L264:
1221:core/lpc17xx_uart.c **** 		}
1222:core/lpc17xx_uart.c **** 
1223:core/lpc17xx_uart.c **** 		// Fill delay time
1224:core/lpc17xx_uart.c **** 		UARTx->RS485DLY = RS485ConfigStruct->DelayValue & UART1_RS485DLY_BITMASK;
 3431              		.loc 1 1224 0
 3432 0110 3B68     		ldr	r3, [r7]	@ tmp162, RS485ConfigStruct
 3433 0112 DA79     		ldrb	r2, [r3, #7]	@ zero_extendqisi2	@ D.6742, RS485ConfigStruct_21(D)->DelayValue
 3434 0114 7B68     		ldr	r3, [r7, #4]	@ tmp163, UARTx
 3435 0116 83F85420 		strb	r2, [r3, #84]	@ tmp164, UARTx_18(D)->RS485DLY
 3436              	.L262:
1225:core/lpc17xx_uart.c **** 	}
1226:core/lpc17xx_uart.c **** 
1227:core/lpc17xx_uart.c **** 	// MultiDrop mode is enable
1228:core/lpc17xx_uart.c **** 	if (RS485ConfigStruct->NormalMultiDropMode_State == ENABLE)
 3437              		.loc 1 1228 0
 3438 011a 3B68     		ldr	r3, [r7]	@ tmp165, RS485ConfigStruct
 3439 011c 1B78     		ldrb	r3, [r3]	@ zero_extendqisi2	@ D.6741, RS485ConfigStruct_21(D)->NormalMultiDropMode_State
 3440 011e 012B     		cmp	r3, #1	@ D.6741,
 3441 0120 03D1     		bne	.L265	@,
1229:core/lpc17xx_uart.c **** 	{
1230:core/lpc17xx_uart.c **** 		tmp |= UART1_RS485CTRL_NMM_EN;
 3442              		.loc 1 1230 0
 3443 0122 FB68     		ldr	r3, [r7, #12]	@ tmp167, tmp
 3444 0124 43F00103 		orr	r3, r3, #1	@ tmp166, tmp167,
ARM GAS  C:\Users\STUDENT\AppData\Local\Temp\ccMxouBa.s 			page 84


 3445 0128 FB60     		str	r3, [r7, #12]	@ tmp166, tmp
 3446              	.L265:
1231:core/lpc17xx_uart.c **** 	}
1232:core/lpc17xx_uart.c **** 
1233:core/lpc17xx_uart.c **** 	// Auto Address Detect function
1234:core/lpc17xx_uart.c **** 	if (RS485ConfigStruct->AutoAddrDetect_State == ENABLE)
 3447              		.loc 1 1234 0
 3448 012a 3B68     		ldr	r3, [r7]	@ tmp168, RS485ConfigStruct
 3449 012c 9B78     		ldrb	r3, [r3, #2]	@ zero_extendqisi2	@ D.6741, RS485ConfigStruct_21(D)->AutoAddrDetect_State
 3450 012e 012B     		cmp	r3, #1	@ D.6741,
 3451 0130 08D1     		bne	.L266	@,
1235:core/lpc17xx_uart.c **** 	{
1236:core/lpc17xx_uart.c **** 		tmp |= UART1_RS485CTRL_AADEN;
 3452              		.loc 1 1236 0
 3453 0132 FB68     		ldr	r3, [r7, #12]	@ tmp170, tmp
 3454 0134 43F00403 		orr	r3, r3, #4	@ tmp169, tmp170,
 3455 0138 FB60     		str	r3, [r7, #12]	@ tmp169, tmp
1237:core/lpc17xx_uart.c **** 		// Fill Match Address
1238:core/lpc17xx_uart.c **** 		UARTx->ADRMATCH = RS485ConfigStruct->MatchAddrValue & UART1_RS485ADRMATCH_BITMASK;
 3456              		.loc 1 1238 0
 3457 013a 3B68     		ldr	r3, [r7]	@ tmp171, RS485ConfigStruct
 3458 013c 9A79     		ldrb	r2, [r3, #6]	@ zero_extendqisi2	@ D.6742, RS485ConfigStruct_21(D)->MatchAddrValue
 3459 013e 7B68     		ldr	r3, [r7, #4]	@ tmp172, UARTx
 3460 0140 83F85020 		strb	r2, [r3, #80]	@ tmp173, UARTx_18(D)->ADRMATCH
 3461              	.L266:
1239:core/lpc17xx_uart.c **** 	}
1240:core/lpc17xx_uart.c **** 
1241:core/lpc17xx_uart.c **** 
1242:core/lpc17xx_uart.c **** 	// Receiver is disable
1243:core/lpc17xx_uart.c **** 	if (RS485ConfigStruct->Rx_State == DISABLE)
 3462              		.loc 1 1243 0
 3463 0144 3B68     		ldr	r3, [r7]	@ tmp174, RS485ConfigStruct
 3464 0146 5B78     		ldrb	r3, [r3, #1]	@ zero_extendqisi2	@ D.6741, RS485ConfigStruct_21(D)->Rx_State
 3465 0148 002B     		cmp	r3, #0	@ D.6741,
 3466 014a 03D1     		bne	.L267	@,
1244:core/lpc17xx_uart.c **** 	{
1245:core/lpc17xx_uart.c **** 		tmp |= UART1_RS485CTRL_RX_DIS;
 3467              		.loc 1 1245 0
 3468 014c FB68     		ldr	r3, [r7, #12]	@ tmp176, tmp
 3469 014e 43F00203 		orr	r3, r3, #2	@ tmp175, tmp176,
 3470 0152 FB60     		str	r3, [r7, #12]	@ tmp175, tmp
 3471              	.L267:
1246:core/lpc17xx_uart.c **** 	}
1247:core/lpc17xx_uart.c **** 
1248:core/lpc17xx_uart.c **** 	// write back to RS485 control register
1249:core/lpc17xx_uart.c **** 	UARTx->RS485CTRL = tmp & UART1_RS485CTRL_BITMASK;
 3472              		.loc 1 1249 0
 3473 0154 FB68     		ldr	r3, [r7, #12]	@ tmp177, tmp
 3474 0156 DBB2     		uxtb	r3, r3	@ D.6742, tmp177
 3475 0158 03F03F03 		and	r3, r3, #63	@ tmp178, D.6742,
 3476 015c DAB2     		uxtb	r2, r3	@ D.6742, tmp178
 3477 015e 7B68     		ldr	r3, [r7, #4]	@ tmp179, UARTx
 3478 0160 83F84C20 		strb	r2, [r3, #76]	@ tmp180, UARTx_18(D)->RS485CTRL
1250:core/lpc17xx_uart.c **** 
1251:core/lpc17xx_uart.c **** 	// Enable Parity function and leave parity in stick '0' parity as default
1252:core/lpc17xx_uart.c **** 	UARTx->LCR |= (UART_LCR_PARITY_F_0 | UART_LCR_PARITY_EN);
 3479              		.loc 1 1252 0
ARM GAS  C:\Users\STUDENT\AppData\Local\Temp\ccMxouBa.s 			page 85


 3480 0164 7B68     		ldr	r3, [r7, #4]	@ tmp181, UARTx
 3481 0166 1B7B     		ldrb	r3, [r3, #12]	@ tmp183, UARTx_18(D)->LCR
 3482 0168 DBB2     		uxtb	r3, r3	@ D.6742, tmp183
 3483 016a 43F03803 		orr	r3, r3, #56	@ tmp184, D.6742,
 3484 016e DAB2     		uxtb	r2, r3	@ D.6742, tmp184
 3485 0170 7B68     		ldr	r3, [r7, #4]	@ tmp185, UARTx
 3486 0172 1A73     		strb	r2, [r3, #12]	@ tmp186, UARTx_18(D)->LCR
