ARM GAS  C:\Users\STUDENT\AppData\Local\Temp\ccMxouBa.s 			page 1


   1              		.syntax unified
   2              		.cpu cortex-m3
   3              		.fpu softvfp
   4              		.eabi_attribute 20, 1	@ Tag_ABI_FP_denormal
   5              		.eabi_attribute 21, 1	@ Tag_ABI_FP_exceptions
   6              		.eabi_attribute 23, 3	@ Tag_ABI_FP_number_model
   7              		.eabi_attribute 24, 1	@ Tag_ABI_align8_needed
   8              		.eabi_attribute 25, 1	@ Tag_ABI_align8_preserved
   9              		.eabi_attribute 26, 1	@ Tag_ABI_enum_size
  10              		.eabi_attribute 30, 6	@ Tag_ABI_optimization_goals
  11              		.eabi_attribute 34, 1	@ Tag_CPU_unaligned_access
  12              		.eabi_attribute 18, 4	@ Tag_ABI_PCS_wchar_t
  13              		.file	"lpc17xx_uart.c"
  14              	@ GNU C89 (GNU Tools for ARM Embedded Processors) version 5.4.1 20160919 (release) [ARM/embedded-5-
  15              	@	compiled by GNU C version 4.7.4, GMP version 4.3.2, MPFR version 2.4.2, MPC version 0.8.1
  16              	@ GGC heuristics: --param ggc-min-expand=100 --param ggc-min-heapsize=131072
  17              	@ options passed:  -I . -I config -I system -I core -I drivers -I FreeRTOS
  18              	@ -I FreeRTOS/include -I FreeRTOS/portable/GCC/ARM_CM3 -I FreeRTOS/portable
  19              	@ -I tasks/rc_task_leds -I modules/rc_leds -I drivers/rc_system
  20              	@ -I drivers/rc_gpio -I drivers/rc_uart -I drivers/rc_pinsel
  21              	@ -I drivers/rc_timer -I drivers/rc_adc -imultilib armv7-m
  22              	@ -iprefix c:\program files (x86)\gnu tools arm embedded\5.4 2016q3\bin\../lib/gcc/arm-none-eabi/5.
  23              	@ -isysroot c:\program files (x86)\gnu tools arm embedded\5.4 2016q3\bin\../arm-none-eabi
  24              	@ -MD out/lpc17xx_uart.d -MF out/lpc17xx_uart.d -MP -MQ out/lpc17xx_uart.o
  25              	@ -D__USES_INITFINI__ core/lpc17xx_uart.c -mcpu=cortex-m3 -mthumb
  26              	@ -auxbase-strip out/lpc17xx_uart.o -g -ggdb3 -O0 -Wall -Wstrict-prototypes
  27              	@ -Wextra -std=gnu90 -ffunction-sections -fdata-sections -fverbose-asm
  28              	@ options enabled:  -faggressive-loop-optimizations -fauto-inc-dec
  29              	@ -fchkp-check-incomplete-type -fchkp-check-read -fchkp-check-write
  30              	@ -fchkp-instrument-calls -fchkp-narrow-bounds -fchkp-optimize
  31              	@ -fchkp-store-bounds -fchkp-use-static-bounds
  32              	@ -fchkp-use-static-const-bounds -fchkp-use-wrappers -fcommon
  33              	@ -fdata-sections -fdelete-null-pointer-checks -fdwarf2-cfi-asm
  34              	@ -fearly-inlining -feliminate-unused-debug-types -ffunction-cse
  35              	@ -ffunction-sections -fgcse-lm -fgnu-runtime -fgnu-unique -fident
  36              	@ -finline-atomics -fira-hoist-pressure -fira-share-save-slots
  37              	@ -fira-share-spill-slots -fivopts -fkeep-static-consts
  38              	@ -fleading-underscore -flifetime-dse -flto-odr-type-merging -fmath-errno
  39              	@ -fmerge-debug-strings -fpeephole -fprefetch-loop-arrays
  40              	@ -freg-struct-return -fsched-critical-path-heuristic
  41              	@ -fsched-dep-count-heuristic -fsched-group-heuristic -fsched-interblock
  42              	@ -fsched-last-insn-heuristic -fsched-rank-heuristic -fsched-spec
  43              	@ -fsched-spec-insn-heuristic -fsched-stalled-insns-dep
  44              	@ -fsemantic-interposition -fshow-column -fsigned-zeros
  45              	@ -fsplit-ivs-in-unroller -fstdarg-opt -fstrict-volatile-bitfields
  46              	@ -fsync-libcalls -ftrapping-math -ftree-coalesce-vars -ftree-cselim
  47              	@ -ftree-forwprop -ftree-loop-if-convert -ftree-loop-im -ftree-loop-ivcanon
  48              	@ -ftree-loop-optimize -ftree-parallelize-loops= -ftree-phiprop
  49              	@ -ftree-reassoc -ftree-scev-cprop -funit-at-a-time -fverbose-asm
  50              	@ -fzero-initialized-in-bss -masm-syntax-unified -mfix-cortex-m3-ldrd
  51              	@ -mlittle-endian -mpic-data-is-text-relative -msched-prolog -mthumb
  52              	@ -munaligned-access -mvectorize-with-neon-quad
  53              	
  54              		.text
  55              	.Ltext0:
  56              		.cfi_sections	.debug_frame
  57              		.global	uartCbsDat
ARM GAS  C:\Users\STUDENT\AppData\Local\Temp\ccMxouBa.s 			page 2


  58              		.section	.bss.uartCbsDat,"aw",%nobits
  59              		.align	2
  60              		.type	uartCbsDat, %object
  61              		.size	uartCbsDat, 64
  62              	uartCbsDat:
  63 0000 00000000 		.space	64
  63      00000000 
  63      00000000 
  63      00000000 
  63      00000000 
  64              		.global	pfnModemCbs
  65              		.section	.bss.pfnModemCbs,"aw",%nobits
  66              		.align	2
  67              		.type	pfnModemCbs, %object
  68              		.size	pfnModemCbs, 4
  69              	pfnModemCbs:
  70 0000 00000000 		.space	4
  71              		.section	.text.getUartNum,"ax",%progbits
  72              		.align	2
  73              		.global	getUartNum
  74              		.thumb
  75              		.thumb_func
  76              		.type	getUartNum, %function
  77              	getUartNum:
  78              	.LFB55:
  79              		.file 1 "core/lpc17xx_uart.c"
   1:core/lpc17xx_uart.c **** /**
   2:core/lpc17xx_uart.c ****  * @file	: lpc17xx_uart.c
   3:core/lpc17xx_uart.c ****  * @brief	: Contains all functions support for UART firmware library on LPC17xx
   4:core/lpc17xx_uart.c ****  * @version	: 1.0
   5:core/lpc17xx_uart.c ****  * @date	: 18. Mar. 2009
   6:core/lpc17xx_uart.c ****  * @author	: HieuNguyen
   7:core/lpc17xx_uart.c ****  **************************************************************************
   8:core/lpc17xx_uart.c ****  * Software that is described herein is for illustrative purposes only
   9:core/lpc17xx_uart.c ****  * which provides customers with programming information regarding the
  10:core/lpc17xx_uart.c ****  * products. This software is supplied "AS IS" without any warranties.
  11:core/lpc17xx_uart.c ****  * NXP Semiconductors assumes no responsibility or liability for the
  12:core/lpc17xx_uart.c ****  * use of the software, conveys no license or title under any patent,
  13:core/lpc17xx_uart.c ****  * copyright, or mask work right to the product. NXP Semiconductors
  14:core/lpc17xx_uart.c ****  * reserves the right to make changes in the software without
  15:core/lpc17xx_uart.c ****  * notification. NXP Semiconductors also make no representation or
  16:core/lpc17xx_uart.c ****  * warranty that such application will be suitable for the specified
  17:core/lpc17xx_uart.c ****  * use without further testing or modification.
  18:core/lpc17xx_uart.c ****  **********************************************************************/
  19:core/lpc17xx_uart.c **** 
  20:core/lpc17xx_uart.c **** /* Peripheral group ----------------------------------------------------------- */
  21:core/lpc17xx_uart.c **** /** @addtogroup UART
  22:core/lpc17xx_uart.c ****  * @{
  23:core/lpc17xx_uart.c ****  */
  24:core/lpc17xx_uart.c **** 
  25:core/lpc17xx_uart.c **** /* Includes ------------------------------------------------------------------- */
  26:core/lpc17xx_uart.c **** #include "lpc17xx_uart.h"
  27:core/lpc17xx_uart.c **** #include "lpc17xx_clkpwr.h"
  28:core/lpc17xx_uart.c **** 
  29:core/lpc17xx_uart.c **** /* If this source file built with example, the LPC17xx FW library configuration
  30:core/lpc17xx_uart.c ****  * file in each example directory ("lpc17xx_libcfg.h") must be included,
  31:core/lpc17xx_uart.c ****  * otherwise the default FW library configuration file must be included instead
ARM GAS  C:\Users\STUDENT\AppData\Local\Temp\ccMxouBa.s 			page 3


  32:core/lpc17xx_uart.c ****  */
  33:core/lpc17xx_uart.c **** #ifdef __BUILD_WITH_EXAMPLE__
  34:core/lpc17xx_uart.c **** #include "lpc17xx_libcfg.h"
  35:core/lpc17xx_uart.c **** #else
  36:core/lpc17xx_uart.c **** #include "lpc17xx_libcfg_default.h"
  37:core/lpc17xx_uart.c **** #endif /* __BUILD_WITH_EXAMPLE__ */
  38:core/lpc17xx_uart.c **** 
  39:core/lpc17xx_uart.c **** 
  40:core/lpc17xx_uart.c **** #ifdef _UART
  41:core/lpc17xx_uart.c **** 
  42:core/lpc17xx_uart.c **** /* Private Types -------------------------------------------------------------- */
  43:core/lpc17xx_uart.c **** /** @defgroup UART_Private_Types
  44:core/lpc17xx_uart.c ****  * @{
  45:core/lpc17xx_uart.c ****  */
  46:core/lpc17xx_uart.c **** 
  47:core/lpc17xx_uart.c **** /**
  48:core/lpc17xx_uart.c ****  * @brief UART call-back function type definitions
  49:core/lpc17xx_uart.c ****  */
  50:core/lpc17xx_uart.c **** typedef struct {
  51:core/lpc17xx_uart.c **** 	fnTxCbs_Type *pfnTxCbs; 	// Transmit callback
  52:core/lpc17xx_uart.c **** 	fnRxCbs_Type *pfnRxCbs;		// Receive callback
  53:core/lpc17xx_uart.c **** 	fnABCbs_Type *pfnABCbs;		// Auto-Baudrate callback
  54:core/lpc17xx_uart.c **** 	fnErrCbs_Type *pfnErrCbs;	// Error callback
  55:core/lpc17xx_uart.c **** } UART_CBS_Type;
  56:core/lpc17xx_uart.c **** 
  57:core/lpc17xx_uart.c **** /**
  58:core/lpc17xx_uart.c ****  * @}
  59:core/lpc17xx_uart.c ****  */
  60:core/lpc17xx_uart.c **** 
  61:core/lpc17xx_uart.c **** 
  62:core/lpc17xx_uart.c **** /* Private Variables ---------------------------------------------------------- */
  63:core/lpc17xx_uart.c **** /** @defgroup UART_Private_Variables
  64:core/lpc17xx_uart.c ****  * @{
  65:core/lpc17xx_uart.c ****  */
  66:core/lpc17xx_uart.c **** 
  67:core/lpc17xx_uart.c **** 
  68:core/lpc17xx_uart.c **** /** Call-back function pointer data */
  69:core/lpc17xx_uart.c **** UART_CBS_Type uartCbsDat[4] = {
  70:core/lpc17xx_uart.c **** 		{NULL, NULL, NULL, NULL},
  71:core/lpc17xx_uart.c **** 		{NULL, NULL, NULL, NULL},
  72:core/lpc17xx_uart.c **** 		{NULL, NULL, NULL, NULL},
  73:core/lpc17xx_uart.c **** 		{NULL, NULL, NULL, NULL},
  74:core/lpc17xx_uart.c **** };
  75:core/lpc17xx_uart.c **** 
  76:core/lpc17xx_uart.c **** /** UART1 modem status interrupt callback pointer data */
  77:core/lpc17xx_uart.c **** fnModemCbs_Type *pfnModemCbs = NULL;
  78:core/lpc17xx_uart.c **** 
  79:core/lpc17xx_uart.c **** /**
  80:core/lpc17xx_uart.c ****  * @}
  81:core/lpc17xx_uart.c ****  */
  82:core/lpc17xx_uart.c **** 
  83:core/lpc17xx_uart.c **** 
  84:core/lpc17xx_uart.c **** /* Private Functions ---------------------------------------------------------- */
  85:core/lpc17xx_uart.c **** /** @defgroup UART_Private_Functions
  86:core/lpc17xx_uart.c ****  * @{
  87:core/lpc17xx_uart.c ****  */
  88:core/lpc17xx_uart.c **** 
ARM GAS  C:\Users\STUDENT\AppData\Local\Temp\ccMxouBa.s 			page 4


  89:core/lpc17xx_uart.c **** /**
  90:core/lpc17xx_uart.c ****  * @brief		Get UART number due to UART peripheral pointer
  91:core/lpc17xx_uart.c ****  * @param[in]	UARTx	UART pointer
  92:core/lpc17xx_uart.c ****  * @return		UART number
  93:core/lpc17xx_uart.c ****  */
  94:core/lpc17xx_uart.c **** uint8_t getUartNum(LPC_UART_TypeDef *UARTx) {
  80              		.loc 1 94 0
  81              		.cfi_startproc
  82              		@ args = 0, pretend = 0, frame = 8
  83              		@ frame_needed = 1, uses_anonymous_args = 0
  84              		@ link register save eliminated.
  85 0000 80B4     		push	{r7}	@
  86              		.cfi_def_cfa_offset 4
  87              		.cfi_offset 7, -4
  88 0002 83B0     		sub	sp, sp, #12	@,,
  89              		.cfi_def_cfa_offset 16
  90 0004 00AF     		add	r7, sp, #0	@,,
  91              		.cfi_def_cfa_register 7
  92 0006 7860     		str	r0, [r7, #4]	@ UARTx, UARTx
  95:core/lpc17xx_uart.c **** 	if (UARTx == (LPC_UART_TypeDef*)LPC_UART0) return (0);
  93              		.loc 1 95 0
  94 0008 7B68     		ldr	r3, [r7, #4]	@ tmp112, UARTx
  95 000a 0B4A     		ldr	r2, .L6	@ tmp113,
  96 000c 9342     		cmp	r3, r2	@ tmp112, tmp113
  97 000e 01D1     		bne	.L2	@,
  98              		.loc 1 95 0 is_stmt 0 discriminator 1
  99 0010 0023     		movs	r3, #0	@ D.6693,
 100 0012 0CE0     		b	.L3	@
 101              	.L2:
  96:core/lpc17xx_uart.c **** 	else if (UARTx == (LPC_UART_TypeDef *)LPC_UART1) return (1);
 102              		.loc 1 96 0 is_stmt 1
 103 0014 7B68     		ldr	r3, [r7, #4]	@ tmp114, UARTx
 104 0016 094A     		ldr	r2, .L6+4	@ tmp115,
 105 0018 9342     		cmp	r3, r2	@ tmp114, tmp115
 106 001a 01D1     		bne	.L4	@,
 107              		.loc 1 96 0 is_stmt 0 discriminator 1
 108 001c 0123     		movs	r3, #1	@ D.6693,
 109 001e 06E0     		b	.L3	@
 110              	.L4:
  97:core/lpc17xx_uart.c **** 	else if (UARTx == LPC_UART2) return (2);
 111              		.loc 1 97 0 is_stmt 1
 112 0020 7B68     		ldr	r3, [r7, #4]	@ tmp116, UARTx
 113 0022 074A     		ldr	r2, .L6+8	@ tmp117,
 114 0024 9342     		cmp	r3, r2	@ tmp116, tmp117
 115 0026 01D1     		bne	.L5	@,
 116              		.loc 1 97 0 is_stmt 0 discriminator 1
 117 0028 0223     		movs	r3, #2	@ D.6693,
 118 002a 00E0     		b	.L3	@
 119              	.L5:
  98:core/lpc17xx_uart.c **** 	else return (3);
 120              		.loc 1 98 0 is_stmt 1
 121 002c 0323     		movs	r3, #3	@ D.6693,
 122              	.L3:
  99:core/lpc17xx_uart.c **** }
 123              		.loc 1 99 0
 124 002e 1846     		mov	r0, r3	@, <retval>
 125 0030 0C37     		adds	r7, r7, #12	@,,
ARM GAS  C:\Users\STUDENT\AppData\Local\Temp\ccMxouBa.s 			page 5


 126              		.cfi_def_cfa_offset 4
 127 0032 BD46     		mov	sp, r7	@,
 128              		.cfi_def_cfa_register 13
 129              		@ sp needed	@
 130 0034 80BC     		pop	{r7}	@
 131              		.cfi_restore 7
 132              		.cfi_def_cfa_offset 0
 133 0036 7047     		bx	lr	@
 134              	.L7:
 135              		.align	2
 136              	.L6:
 137 0038 00C00040 		.word	1073790976
 138 003c 00000140 		.word	1073807360
 139 0040 00800940 		.word	1074364416
 140              		.cfi_endproc
 141              	.LFE55:
 142              		.size	getUartNum, .-getUartNum
 143              		.section	.text.uart_set_divisors,"ax",%progbits
 144              		.align	2
 145              		.global	uart_set_divisors
 146              		.thumb
 147              		.thumb_func
 148              		.type	uart_set_divisors, %function
 149              	uart_set_divisors:
 150              	.LFB56:
 100:core/lpc17xx_uart.c **** 
 101:core/lpc17xx_uart.c **** /*********************************************************************//**
 102:core/lpc17xx_uart.c ****  * @brief		Determines best dividers to get a target clock rate
 103:core/lpc17xx_uart.c ****  * @param[in]	UARTx	Pointer to selected UART peripheral, should be
 104:core/lpc17xx_uart.c ****  * 						UART0, UART1, UART2 or UART3.
 105:core/lpc17xx_uart.c ****  * @param[in]	baudrate Desired UART baud rate.
 106:core/lpc17xx_uart.c ****  * @return 		Error status.
 107:core/lpc17xx_uart.c ****  **********************************************************************/
 108:core/lpc17xx_uart.c **** 
 109:core/lpc17xx_uart.c **** Status uart_set_divisors(LPC_UART_TypeDef *UARTx, uint32_t baudrate)
 110:core/lpc17xx_uart.c **** {
 151              		.loc 1 110 0
 152              		.cfi_startproc
 153              		@ args = 0, pretend = 0, frame = 56
 154              		@ frame_needed = 1, uses_anonymous_args = 0
 155 0000 80B5     		push	{r7, lr}	@
 156              		.cfi_def_cfa_offset 8
 157              		.cfi_offset 7, -8
 158              		.cfi_offset 14, -4
 159 0002 8EB0     		sub	sp, sp, #56	@,,
 160              		.cfi_def_cfa_offset 64
 161 0004 00AF     		add	r7, sp, #0	@,,
 162              		.cfi_def_cfa_register 7
 163 0006 7860     		str	r0, [r7, #4]	@ UARTx, UARTx
 164 0008 3960     		str	r1, [r7]	@ baudrate, baudrate
 111:core/lpc17xx_uart.c **** 	Status errorStatus = ERROR;
 165              		.loc 1 111 0
 166 000a 0023     		movs	r3, #0	@ tmp142,
 167 000c 87F83730 		strb	r3, [r7, #55]	@ tmp143, errorStatus
 112:core/lpc17xx_uart.c **** 
 113:core/lpc17xx_uart.c **** 	uint32_t uClk;
 114:core/lpc17xx_uart.c **** 	uint32_t calcBaudrate = 0;
ARM GAS  C:\Users\STUDENT\AppData\Local\Temp\ccMxouBa.s 			page 6


 168              		.loc 1 114 0
 169 0010 0023     		movs	r3, #0	@ tmp144,
 170 0012 FB60     		str	r3, [r7, #12]	@ tmp144, calcBaudrate
 115:core/lpc17xx_uart.c **** 	uint32_t temp = 0;
 171              		.loc 1 115 0
 172 0014 0023     		movs	r3, #0	@ tmp145,
 173 0016 BB60     		str	r3, [r7, #8]	@ tmp145, temp
 116:core/lpc17xx_uart.c **** 
 117:core/lpc17xx_uart.c **** 	uint32_t mulFracDiv, dividerAddFracDiv;
 118:core/lpc17xx_uart.c **** 	uint32_t diviser = 0 ;
 174              		.loc 1 118 0
 175 0018 0023     		movs	r3, #0	@ tmp146,
 176 001a 7B62     		str	r3, [r7, #36]	@ tmp146, diviser
 119:core/lpc17xx_uart.c **** 	uint32_t mulFracDivOptimal = 1;
 177              		.loc 1 119 0
 178 001c 0123     		movs	r3, #1	@ tmp147,
 179 001e 3B62     		str	r3, [r7, #32]	@ tmp147, mulFracDivOptimal
 120:core/lpc17xx_uart.c **** 	uint32_t dividerAddOptimal = 0;
 180              		.loc 1 120 0
 181 0020 0023     		movs	r3, #0	@ tmp148,
 182 0022 FB61     		str	r3, [r7, #28]	@ tmp148, dividerAddOptimal
 121:core/lpc17xx_uart.c **** 	uint32_t diviserOptimal = 0;
 183              		.loc 1 121 0
 184 0024 0023     		movs	r3, #0	@ tmp149,
 185 0026 BB61     		str	r3, [r7, #24]	@ tmp149, diviserOptimal
 122:core/lpc17xx_uart.c **** 
 123:core/lpc17xx_uart.c **** 	uint32_t relativeError = 0;
 186              		.loc 1 123 0
 187 0028 0023     		movs	r3, #0	@ tmp150,
 188 002a 7B61     		str	r3, [r7, #20]	@ tmp150, relativeError
 124:core/lpc17xx_uart.c **** 	uint32_t relativeOptimalError = 100000;
 189              		.loc 1 124 0
 190 002c 744B     		ldr	r3, .L30	@ tmp151,
 191 002e 3B61     		str	r3, [r7, #16]	@ tmp151, relativeOptimalError
 125:core/lpc17xx_uart.c **** 
 126:core/lpc17xx_uart.c **** 	/* get UART block clock */
 127:core/lpc17xx_uart.c **** 	if (UARTx == (LPC_UART_TypeDef*) LPC_UART0)
 192              		.loc 1 127 0
 193 0030 7B68     		ldr	r3, [r7, #4]	@ tmp152, UARTx
 194 0032 744A     		ldr	r2, .L30+4	@ tmp153,
 195 0034 9342     		cmp	r3, r2	@ tmp152, tmp153
 196 0036 04D1     		bne	.L9	@,
 128:core/lpc17xx_uart.c **** 	{
 129:core/lpc17xx_uart.c **** 		uClk = CLKPWR_GetPCLK (CLKPWR_PCLKSEL_UART0);
 197              		.loc 1 129 0
 198 0038 0620     		movs	r0, #6	@,
 199 003a FFF7FEFF 		bl	CLKPWR_GetPCLK	@
 200 003e 3863     		str	r0, [r7, #48]	@, uClk
 201 0040 19E0     		b	.L10	@
 202              	.L9:
 130:core/lpc17xx_uart.c **** 	}
 131:core/lpc17xx_uart.c **** 	else if (UARTx == (LPC_UART_TypeDef *)LPC_UART1)
 203              		.loc 1 131 0
 204 0042 7B68     		ldr	r3, [r7, #4]	@ tmp154, UARTx
 205 0044 704A     		ldr	r2, .L30+8	@ tmp155,
 206 0046 9342     		cmp	r3, r2	@ tmp154, tmp155
 207 0048 04D1     		bne	.L11	@,
ARM GAS  C:\Users\STUDENT\AppData\Local\Temp\ccMxouBa.s 			page 7


 132:core/lpc17xx_uart.c **** 	{
 133:core/lpc17xx_uart.c **** 		uClk = CLKPWR_GetPCLK (CLKPWR_PCLKSEL_UART1);
 208              		.loc 1 133 0
 209 004a 0820     		movs	r0, #8	@,
 210 004c FFF7FEFF 		bl	CLKPWR_GetPCLK	@
 211 0050 3863     		str	r0, [r7, #48]	@, uClk
 212 0052 10E0     		b	.L10	@
 213              	.L11:
 134:core/lpc17xx_uart.c **** 	}
 135:core/lpc17xx_uart.c **** 	else if (UARTx == LPC_UART2)
 214              		.loc 1 135 0
 215 0054 7B68     		ldr	r3, [r7, #4]	@ tmp156, UARTx
 216 0056 6D4A     		ldr	r2, .L30+12	@ tmp157,
 217 0058 9342     		cmp	r3, r2	@ tmp156, tmp157
 218 005a 04D1     		bne	.L12	@,
 136:core/lpc17xx_uart.c **** 	{
 137:core/lpc17xx_uart.c **** 		uClk = CLKPWR_GetPCLK (CLKPWR_PCLKSEL_UART2);
 219              		.loc 1 137 0
 220 005c 3020     		movs	r0, #48	@,
 221 005e FFF7FEFF 		bl	CLKPWR_GetPCLK	@
 222 0062 3863     		str	r0, [r7, #48]	@, uClk
 223 0064 07E0     		b	.L10	@
 224              	.L12:
 138:core/lpc17xx_uart.c **** 	}
 139:core/lpc17xx_uart.c **** 	else if (UARTx == LPC_UART3)
 225              		.loc 1 139 0
 226 0066 7B68     		ldr	r3, [r7, #4]	@ tmp158, UARTx
 227 0068 694A     		ldr	r2, .L30+16	@ tmp159,
 228 006a 9342     		cmp	r3, r2	@ tmp158, tmp159
 229 006c 03D1     		bne	.L10	@,
 140:core/lpc17xx_uart.c **** 	{
 141:core/lpc17xx_uart.c **** 		uClk = CLKPWR_GetPCLK (CLKPWR_PCLKSEL_UART3);
 230              		.loc 1 141 0
 231 006e 3220     		movs	r0, #50	@,
 232 0070 FFF7FEFF 		bl	CLKPWR_GetPCLK	@
 233 0074 3863     		str	r0, [r7, #48]	@, uClk
 234              	.L10:
 142:core/lpc17xx_uart.c **** 	}
 143:core/lpc17xx_uart.c **** 
 144:core/lpc17xx_uart.c **** 
 145:core/lpc17xx_uart.c **** 	uClk = uClk >> 4; /* div by 16 */
 235              		.loc 1 145 0
 236 0076 3B6B     		ldr	r3, [r7, #48]	@ tmp161, uClk
 237 0078 1B09     		lsrs	r3, r3, #4	@ tmp160, tmp161,
 238 007a 3B63     		str	r3, [r7, #48]	@ tmp160, uClk
 146:core/lpc17xx_uart.c **** 	/* In the Uart IP block, baud rate is calculated using FDR and DLL-DLM registers
 147:core/lpc17xx_uart.c **** 	* The formula is :
 148:core/lpc17xx_uart.c **** 	* BaudRate= uClk * (mulFracDiv/(mulFracDiv+dividerAddFracDiv) / (16 * (DLL)
 149:core/lpc17xx_uart.c **** 	* It involves floating point calculations. That's the reason the formulae are adjusted with
 150:core/lpc17xx_uart.c **** 	* Multiply and divide method.*/
 151:core/lpc17xx_uart.c **** 	/* The value of mulFracDiv and dividerAddFracDiv should comply to the following expressions:
 152:core/lpc17xx_uart.c **** 	* 0 < mulFracDiv <= 15, 0 <= dividerAddFracDiv <= 15 */
 153:core/lpc17xx_uart.c **** 	for (mulFracDiv = 1 ; mulFracDiv <= 15 ;mulFracDiv++)
 239              		.loc 1 153 0
 240 007c 0123     		movs	r3, #1	@ tmp162,
 241 007e FB62     		str	r3, [r7, #44]	@ tmp162, mulFracDiv
 242 0080 56E0     		b	.L13	@
ARM GAS  C:\Users\STUDENT\AppData\Local\Temp\ccMxouBa.s 			page 8


 243              	.L23:
 154:core/lpc17xx_uart.c **** 	{
 155:core/lpc17xx_uart.c **** 	for (dividerAddFracDiv = 0 ; dividerAddFracDiv <= 15 ;dividerAddFracDiv++)
 244              		.loc 1 155 0
 245 0082 0023     		movs	r3, #0	@ tmp163,
 246 0084 BB62     		str	r3, [r7, #40]	@ tmp163, dividerAddFracDiv
 247 0086 48E0     		b	.L14	@
 248              	.L20:
 156:core/lpc17xx_uart.c **** 	{
 157:core/lpc17xx_uart.c **** 	  temp = (mulFracDiv * uClk) / ((mulFracDiv + dividerAddFracDiv));
 249              		.loc 1 157 0
 250 0088 FB6A     		ldr	r3, [r7, #44]	@ tmp164, mulFracDiv
 251 008a 3A6B     		ldr	r2, [r7, #48]	@ tmp165, uClk
 252 008c 02FB03F2 		mul	r2, r2, r3	@ D.6694, tmp165, tmp164
 253 0090 F96A     		ldr	r1, [r7, #44]	@ tmp166, mulFracDiv
 254 0092 BB6A     		ldr	r3, [r7, #40]	@ tmp167, dividerAddFracDiv
 255 0094 0B44     		add	r3, r3, r1	@ D.6694, tmp166
 256 0096 B2FBF3F3 		udiv	r3, r2, r3	@ tmp168, D.6694, D.6694
 257 009a BB60     		str	r3, [r7, #8]	@ tmp168, temp
 158:core/lpc17xx_uart.c **** 
 159:core/lpc17xx_uart.c **** 	  diviser = temp / baudrate;
 258              		.loc 1 159 0
 259 009c BA68     		ldr	r2, [r7, #8]	@ tmp171, temp
 260 009e 3B68     		ldr	r3, [r7]	@ tmp172, baudrate
 261 00a0 B2FBF3F3 		udiv	r3, r2, r3	@ tmp170, tmp171, tmp172
 262 00a4 7B62     		str	r3, [r7, #36]	@ tmp170, diviser
 160:core/lpc17xx_uart.c **** 	  if ((temp % baudrate) > (baudrate / 2))
 263              		.loc 1 160 0
 264 00a6 BB68     		ldr	r3, [r7, #8]	@ tmp173, temp
 265 00a8 3A68     		ldr	r2, [r7]	@ tmp177, baudrate
 266 00aa B3FBF2F2 		udiv	r2, r3, r2	@ tmp176, tmp173, tmp177
 267 00ae 3968     		ldr	r1, [r7]	@ tmp179, baudrate
 268 00b0 01FB02F2 		mul	r2, r1, r2	@ tmp178, tmp179, tmp176
 269 00b4 9A1A     		subs	r2, r3, r2	@ D.6694, tmp173, tmp178
 270 00b6 3B68     		ldr	r3, [r7]	@ tmp180, baudrate
 271 00b8 5B08     		lsrs	r3, r3, #1	@ D.6694, tmp180,
 272 00ba 9A42     		cmp	r2, r3	@ D.6694, D.6694
 273 00bc 02D9     		bls	.L15	@,
 161:core/lpc17xx_uart.c **** 		diviser++;
 274              		.loc 1 161 0
 275 00be 7B6A     		ldr	r3, [r7, #36]	@ tmp182, diviser
 276 00c0 0133     		adds	r3, r3, #1	@ tmp181, tmp182,
 277 00c2 7B62     		str	r3, [r7, #36]	@ tmp181, diviser
 278              	.L15:
 162:core/lpc17xx_uart.c **** 
 163:core/lpc17xx_uart.c **** 	  if (diviser > 2 && diviser < 65536)
 279              		.loc 1 163 0
 280 00c4 7B6A     		ldr	r3, [r7, #36]	@ tmp183, diviser
 281 00c6 022B     		cmp	r3, #2	@ tmp183,
 282 00c8 24D9     		bls	.L16	@,
 283              		.loc 1 163 0 is_stmt 0 discriminator 1
 284 00ca 7B6A     		ldr	r3, [r7, #36]	@ tmp184, diviser
 285 00cc B3F5803F 		cmp	r3, #65536	@ tmp184,
 286 00d0 20D2     		bcs	.L16	@,
 164:core/lpc17xx_uart.c **** 	  {
 165:core/lpc17xx_uart.c **** 		calcBaudrate = temp / diviser;
 287              		.loc 1 165 0 is_stmt 1
ARM GAS  C:\Users\STUDENT\AppData\Local\Temp\ccMxouBa.s 			page 9


 288 00d2 BA68     		ldr	r2, [r7, #8]	@ tmp187, temp
 289 00d4 7B6A     		ldr	r3, [r7, #36]	@ tmp188, diviser
 290 00d6 B2FBF3F3 		udiv	r3, r2, r3	@ tmp186, tmp187, tmp188
 291 00da FB60     		str	r3, [r7, #12]	@ tmp186, calcBaudrate
 166:core/lpc17xx_uart.c **** 
 167:core/lpc17xx_uart.c **** 		if (calcBaudrate <= baudrate)
 292              		.loc 1 167 0
 293 00dc FA68     		ldr	r2, [r7, #12]	@ tmp189, calcBaudrate
 294 00de 3B68     		ldr	r3, [r7]	@ tmp190, baudrate
 295 00e0 9A42     		cmp	r2, r3	@ tmp189, tmp190
 296 00e2 04D8     		bhi	.L17	@,
 168:core/lpc17xx_uart.c **** 		  relativeError = baudrate - calcBaudrate;
 297              		.loc 1 168 0
 298 00e4 3A68     		ldr	r2, [r7]	@ tmp192, baudrate
 299 00e6 FB68     		ldr	r3, [r7, #12]	@ tmp193, calcBaudrate
 300 00e8 D31A     		subs	r3, r2, r3	@ tmp191, tmp192, tmp193
 301 00ea 7B61     		str	r3, [r7, #20]	@ tmp191, relativeError
 302 00ec 03E0     		b	.L18	@
 303              	.L17:
 169:core/lpc17xx_uart.c **** 		else
 170:core/lpc17xx_uart.c **** 		  relativeError = calcBaudrate - baudrate;
 304              		.loc 1 170 0
 305 00ee FA68     		ldr	r2, [r7, #12]	@ tmp195, calcBaudrate
 306 00f0 3B68     		ldr	r3, [r7]	@ tmp196, baudrate
 307 00f2 D31A     		subs	r3, r2, r3	@ tmp194, tmp195, tmp196
 308 00f4 7B61     		str	r3, [r7, #20]	@ tmp194, relativeError
 309              	.L18:
 171:core/lpc17xx_uart.c **** 
 172:core/lpc17xx_uart.c **** 		if ((relativeError < relativeOptimalError))
 310              		.loc 1 172 0
 311 00f6 7A69     		ldr	r2, [r7, #20]	@ tmp197, relativeError
 312 00f8 3B69     		ldr	r3, [r7, #16]	@ tmp198, relativeOptimalError
 313 00fa 9A42     		cmp	r2, r3	@ tmp197, tmp198
 314 00fc 0AD2     		bcs	.L16	@,
 173:core/lpc17xx_uart.c **** 		{
 174:core/lpc17xx_uart.c **** 		  mulFracDivOptimal = mulFracDiv ;
 315              		.loc 1 174 0
 316 00fe FB6A     		ldr	r3, [r7, #44]	@ tmp199, mulFracDiv
 317 0100 3B62     		str	r3, [r7, #32]	@ tmp199, mulFracDivOptimal
 175:core/lpc17xx_uart.c **** 		  dividerAddOptimal = dividerAddFracDiv;
 318              		.loc 1 175 0
 319 0102 BB6A     		ldr	r3, [r7, #40]	@ tmp200, dividerAddFracDiv
 320 0104 FB61     		str	r3, [r7, #28]	@ tmp200, dividerAddOptimal
 176:core/lpc17xx_uart.c **** 		  diviserOptimal = diviser;
 321              		.loc 1 176 0
 322 0106 7B6A     		ldr	r3, [r7, #36]	@ tmp201, diviser
 323 0108 BB61     		str	r3, [r7, #24]	@ tmp201, diviserOptimal
 177:core/lpc17xx_uart.c **** 		  relativeOptimalError = relativeError;
 324              		.loc 1 177 0
 325 010a 7B69     		ldr	r3, [r7, #20]	@ tmp202, relativeError
 326 010c 3B61     		str	r3, [r7, #16]	@ tmp202, relativeOptimalError
 178:core/lpc17xx_uart.c **** 		  if (relativeError == 0)
 327              		.loc 1 178 0
 328 010e 7B69     		ldr	r3, [r7, #20]	@ tmp203, relativeError
 329 0110 002B     		cmp	r3, #0	@ tmp203,
 330 0112 06D0     		beq	.L28	@,
 331              	.L16:
ARM GAS  C:\Users\STUDENT\AppData\Local\Temp\ccMxouBa.s 			page 10


 155:core/lpc17xx_uart.c **** 	{
 332              		.loc 1 155 0 discriminator 2
 333 0114 BB6A     		ldr	r3, [r7, #40]	@ tmp205, dividerAddFracDiv
 334 0116 0133     		adds	r3, r3, #1	@ tmp204, tmp205,
 335 0118 BB62     		str	r3, [r7, #40]	@ tmp204, dividerAddFracDiv
 336              	.L14:
 155:core/lpc17xx_uart.c **** 	{
 337              		.loc 1 155 0 is_stmt 0 discriminator 1
 338 011a BB6A     		ldr	r3, [r7, #40]	@ tmp206, dividerAddFracDiv
 339 011c 0F2B     		cmp	r3, #15	@ tmp206,
 340 011e B3D9     		bls	.L20	@,
 341 0120 00E0     		b	.L19	@
 342              	.L28:
 179:core/lpc17xx_uart.c **** 			break;
 343              		.loc 1 179 0 is_stmt 1
 344 0122 00BF     		nop
 345              	.L19:
 180:core/lpc17xx_uart.c **** 		}
 181:core/lpc17xx_uart.c **** 	  } /* End of if */
 182:core/lpc17xx_uart.c **** 	} /* end of inner for loop */
 183:core/lpc17xx_uart.c **** 	if (relativeError == 0)
 346              		.loc 1 183 0
 347 0124 7B69     		ldr	r3, [r7, #20]	@ tmp207, relativeError
 348 0126 002B     		cmp	r3, #0	@ tmp207,
 349 0128 06D0     		beq	.L29	@,
 153:core/lpc17xx_uart.c **** 	{
 350              		.loc 1 153 0 discriminator 2
 351 012a FB6A     		ldr	r3, [r7, #44]	@ tmp209, mulFracDiv
 352 012c 0133     		adds	r3, r3, #1	@ tmp208, tmp209,
 353 012e FB62     		str	r3, [r7, #44]	@ tmp208, mulFracDiv
 354              	.L13:
 153:core/lpc17xx_uart.c **** 	{
 355              		.loc 1 153 0 is_stmt 0 discriminator 1
 356 0130 FB6A     		ldr	r3, [r7, #44]	@ tmp210, mulFracDiv
 357 0132 0F2B     		cmp	r3, #15	@ tmp210,
 358 0134 A5D9     		bls	.L23	@,
 359 0136 00E0     		b	.L22	@
 360              	.L29:
 184:core/lpc17xx_uart.c **** 	  break;
 361              		.loc 1 184 0 is_stmt 1
 362 0138 00BF     		nop
 363              	.L22:
 185:core/lpc17xx_uart.c **** 	} /* end of outer for loop  */
 186:core/lpc17xx_uart.c **** 
 187:core/lpc17xx_uart.c **** 	if (relativeOptimalError < ((baudrate * UART_ACCEPTED_BAUDRATE_ERROR)/100))
 364              		.loc 1 187 0
 365 013a 3A68     		ldr	r2, [r7]	@ tmp211, baudrate
 366 013c 1346     		mov	r3, r2	@ tmp212, tmp211
 367 013e 5B00     		lsls	r3, r3, #1	@ tmp212, tmp212,
 368 0140 1344     		add	r3, r3, r2	@ D.6694, tmp211
 369 0142 344A     		ldr	r2, .L30+20	@ tmp214,
 370 0144 A2FB0323 		umull	r2, r3, r2, r3	@ tmp267, tmp213, tmp214, D.6694
 371 0148 5A09     		lsrs	r2, r3, #5	@ D.6694, tmp213,
 372 014a 3B69     		ldr	r3, [r7, #16]	@ tmp215, relativeOptimalError
 373 014c 9A42     		cmp	r2, r3	@ D.6694, tmp215
 374 014e 51D9     		bls	.L24	@,
 188:core/lpc17xx_uart.c **** 	{
ARM GAS  C:\Users\STUDENT\AppData\Local\Temp\ccMxouBa.s 			page 11


 189:core/lpc17xx_uart.c **** 		if (((LPC_UART1_TypeDef *)UARTx) == LPC_UART1)
 375              		.loc 1 189 0
 376 0150 7B68     		ldr	r3, [r7, #4]	@ tmp216, UARTx
 377 0152 2D4A     		ldr	r2, .L30+8	@ tmp217,
 378 0154 9342     		cmp	r3, r2	@ tmp216, tmp217
 379 0156 23D1     		bne	.L25	@,
 190:core/lpc17xx_uart.c **** 		{
 191:core/lpc17xx_uart.c **** 			((LPC_UART1_TypeDef *)UARTx)->LCR |= UART_LCR_DLAB_EN;
 380              		.loc 1 191 0
 381 0158 7B68     		ldr	r3, [r7, #4]	@ tmp218, UARTx
 382 015a 1B7B     		ldrb	r3, [r3, #12]	@ tmp220, MEM[(struct LPC_UART1_TypeDef *)UARTx_43(D)].LCR
 383 015c DBB2     		uxtb	r3, r3	@ D.6695, tmp220
 384 015e 63F07F03 		orn	r3, r3, #127	@ tmp221, D.6695,
 385 0162 DAB2     		uxtb	r2, r3	@ D.6695, tmp221
 386 0164 7B68     		ldr	r3, [r7, #4]	@ tmp222, UARTx
 387 0166 1A73     		strb	r2, [r3, #12]	@ tmp223, MEM[(struct LPC_UART1_TypeDef *)UARTx_43(D)].LCR
 192:core/lpc17xx_uart.c **** 			((LPC_UART1_TypeDef *)UARTx)->/*DLIER.*/DLM = UART_LOAD_DLM(diviserOptimal);
 388              		.loc 1 192 0
 389 0168 BB69     		ldr	r3, [r7, #24]	@ tmp224, diviserOptimal
 390 016a 1B0A     		lsrs	r3, r3, #8	@ D.6694, tmp224,
 391 016c DAB2     		uxtb	r2, r3	@ D.6695, D.6694
 392 016e 7B68     		ldr	r3, [r7, #4]	@ tmp225, UARTx
 393 0170 1A71     		strb	r2, [r3, #4]	@ tmp226, MEM[(struct LPC_UART1_TypeDef *)UARTx_43(D)].D.4875.DLM
 193:core/lpc17xx_uart.c **** 			((LPC_UART1_TypeDef *)UARTx)->/*RBTHDLR.*/DLL = UART_LOAD_DLL(diviserOptimal);
 394              		.loc 1 193 0
 395 0172 BB69     		ldr	r3, [r7, #24]	@ tmp227, diviserOptimal
 396 0174 DAB2     		uxtb	r2, r3	@ D.6695, tmp227
 397 0176 7B68     		ldr	r3, [r7, #4]	@ tmp228, UARTx
 398 0178 1A70     		strb	r2, [r3]	@ tmp229, MEM[(struct LPC_UART1_TypeDef *)UARTx_43(D)].D.4871.DLL
 194:core/lpc17xx_uart.c **** 			/* Then reset DLAB bit */
 195:core/lpc17xx_uart.c **** 			((LPC_UART1_TypeDef *)UARTx)->LCR &= (~UART_LCR_DLAB_EN) & UART_LCR_BITMASK;
 399              		.loc 1 195 0
 400 017a 7B68     		ldr	r3, [r7, #4]	@ tmp230, UARTx
 401 017c 1B7B     		ldrb	r3, [r3, #12]	@ tmp232, MEM[(struct LPC_UART1_TypeDef *)UARTx_43(D)].LCR
 402 017e DBB2     		uxtb	r3, r3	@ D.6695, tmp232
 403 0180 03F07F03 		and	r3, r3, #127	@ tmp233, D.6695,
 404 0184 DAB2     		uxtb	r2, r3	@ D.6695, tmp233
 405 0186 7B68     		ldr	r3, [r7, #4]	@ tmp234, UARTx
 406 0188 1A73     		strb	r2, [r3, #12]	@ tmp235, MEM[(struct LPC_UART1_TypeDef *)UARTx_43(D)].LCR
 196:core/lpc17xx_uart.c **** 			((LPC_UART1_TypeDef *)UARTx)->FDR = (UART_FDR_MULVAL(mulFracDivOptimal) \
 407              		.loc 1 196 0
 408 018a 3B6A     		ldr	r3, [r7, #32]	@ tmp236, mulFracDivOptimal
 409 018c 1B01     		lsls	r3, r3, #4	@ D.6694, tmp236,
 410 018e DAB2     		uxtb	r2, r3	@ D.6694, D.6694
 197:core/lpc17xx_uart.c **** 					| UART_FDR_DIVADDVAL(dividerAddOptimal)) & UART_FDR_BITMASK;
 411              		.loc 1 197 0
 412 0190 FB69     		ldr	r3, [r7, #28]	@ tmp237, dividerAddOptimal
 413 0192 03F00F03 		and	r3, r3, #15	@ D.6694, tmp237,
 414 0196 1343     		orrs	r3, r3, r2	@, D.6694, D.6694, D.6694
 415 0198 DAB2     		uxtb	r2, r3	@ D.6694, D.6694
 196:core/lpc17xx_uart.c **** 			((LPC_UART1_TypeDef *)UARTx)->FDR = (UART_FDR_MULVAL(mulFracDivOptimal) \
 416              		.loc 1 196 0
 417 019a 7B68     		ldr	r3, [r7, #4]	@ tmp238, UARTx
 418 019c 9A62     		str	r2, [r3, #40]	@ D.6694, MEM[(struct LPC_UART1_TypeDef *)UARTx_43(D)].FDR
 419 019e 26E0     		b	.L26	@
 420              	.L25:
 198:core/lpc17xx_uart.c **** 		}
ARM GAS  C:\Users\STUDENT\AppData\Local\Temp\ccMxouBa.s 			page 12


 199:core/lpc17xx_uart.c **** 		else
 200:core/lpc17xx_uart.c **** 		{
 201:core/lpc17xx_uart.c **** 			UARTx->LCR |= UART_LCR_DLAB_EN;
 421              		.loc 1 201 0
 422 01a0 7B68     		ldr	r3, [r7, #4]	@ tmp239, UARTx
 423 01a2 1B7B     		ldrb	r3, [r3, #12]	@ tmp241, UARTx_43(D)->LCR
 424 01a4 DBB2     		uxtb	r3, r3	@ D.6695, tmp241
 425 01a6 63F07F03 		orn	r3, r3, #127	@ tmp242, D.6695,
 426 01aa DAB2     		uxtb	r2, r3	@ D.6695, tmp242
 427 01ac 7B68     		ldr	r3, [r7, #4]	@ tmp243, UARTx
 428 01ae 1A73     		strb	r2, [r3, #12]	@ tmp244, UARTx_43(D)->LCR
 202:core/lpc17xx_uart.c **** 			UARTx->/*DLIER.*/DLM = UART_LOAD_DLM(diviserOptimal);
 429              		.loc 1 202 0
 430 01b0 BB69     		ldr	r3, [r7, #24]	@ tmp245, diviserOptimal
 431 01b2 1B0A     		lsrs	r3, r3, #8	@ D.6694, tmp245,
 432 01b4 DAB2     		uxtb	r2, r3	@ D.6695, D.6694
 433 01b6 7B68     		ldr	r3, [r7, #4]	@ tmp246, UARTx
 434 01b8 1A71     		strb	r2, [r3, #4]	@ tmp247, UARTx_43(D)->D.4815.DLM
 203:core/lpc17xx_uart.c **** 			UARTx->/*RBTHDLR.*/DLL = UART_LOAD_DLL(diviserOptimal);
 435              		.loc 1 203 0
 436 01ba BB69     		ldr	r3, [r7, #24]	@ tmp248, diviserOptimal
 437 01bc DAB2     		uxtb	r2, r3	@ D.6695, tmp248
 438 01be 7B68     		ldr	r3, [r7, #4]	@ tmp249, UARTx
 439 01c0 1A70     		strb	r2, [r3]	@ tmp250, UARTx_43(D)->D.4811.DLL
 204:core/lpc17xx_uart.c **** 			/* Then reset DLAB bit */
 205:core/lpc17xx_uart.c **** 			UARTx->LCR &= (~UART_LCR_DLAB_EN) & UART_LCR_BITMASK;
 440              		.loc 1 205 0
 441 01c2 7B68     		ldr	r3, [r7, #4]	@ tmp251, UARTx
 442 01c4 1B7B     		ldrb	r3, [r3, #12]	@ tmp253, UARTx_43(D)->LCR
 443 01c6 DBB2     		uxtb	r3, r3	@ D.6695, tmp253
 444 01c8 03F07F03 		and	r3, r3, #127	@ tmp254, D.6695,
 445 01cc DAB2     		uxtb	r2, r3	@ D.6695, tmp254
 446 01ce 7B68     		ldr	r3, [r7, #4]	@ tmp255, UARTx
 447 01d0 1A73     		strb	r2, [r3, #12]	@ tmp256, UARTx_43(D)->LCR
 206:core/lpc17xx_uart.c **** 			UARTx->FDR = (UART_FDR_MULVAL(mulFracDivOptimal) \
 448              		.loc 1 206 0
 449 01d2 3B6A     		ldr	r3, [r7, #32]	@ tmp257, mulFracDivOptimal
 450 01d4 DBB2     		uxtb	r3, r3	@ D.6695, tmp257
 451 01d6 1B01     		lsls	r3, r3, #4	@ tmp258, D.6695,
 452 01d8 DAB2     		uxtb	r2, r3	@ D.6695, tmp258
 453 01da FB69     		ldr	r3, [r7, #28]	@ tmp259, dividerAddOptimal
 454 01dc DBB2     		uxtb	r3, r3	@ D.6695, tmp259
 455 01de 03F00F03 		and	r3, r3, #15	@ tmp260, D.6695,
 456 01e2 DBB2     		uxtb	r3, r3	@ D.6695, tmp260
 457 01e4 1343     		orrs	r3, r3, r2	@, tmp261, D.6695, D.6695
 458 01e6 DAB2     		uxtb	r2, r3	@ D.6695, tmp261
 459 01e8 7B68     		ldr	r3, [r7, #4]	@ tmp262, UARTx
 460 01ea 83F82820 		strb	r2, [r3, #40]	@ tmp263, UARTx_43(D)->FDR
 461              	.L26:
 207:core/lpc17xx_uart.c **** 					| UART_FDR_DIVADDVAL(dividerAddOptimal)) & UART_FDR_BITMASK;
 208:core/lpc17xx_uart.c **** 		}
 209:core/lpc17xx_uart.c **** 		errorStatus = SUCCESS;
 462              		.loc 1 209 0
 463 01ee 0123     		movs	r3, #1	@ tmp264,
 464 01f0 87F83730 		strb	r3, [r7, #55]	@ tmp265, errorStatus
 465              	.L24:
 210:core/lpc17xx_uart.c **** 	}
ARM GAS  C:\Users\STUDENT\AppData\Local\Temp\ccMxouBa.s 			page 13


 211:core/lpc17xx_uart.c **** 
 212:core/lpc17xx_uart.c **** 	return errorStatus;
 466              		.loc 1 212 0
 467 01f4 97F83730 		ldrb	r3, [r7, #55]	@ zero_extendqisi2	@ D.6696, errorStatus
 213:core/lpc17xx_uart.c **** }
 468              		.loc 1 213 0
 469 01f8 1846     		mov	r0, r3	@, <retval>
 470 01fa 3837     		adds	r7, r7, #56	@,,
 471              		.cfi_def_cfa_offset 8
 472 01fc BD46     		mov	sp, r7	@,
 473              		.cfi_def_cfa_register 13
 474              		@ sp needed	@
 475 01fe 80BD     		pop	{r7, pc}	@
 476              	.L31:
 477              		.align	2
 478              	.L30:
 479 0200 A0860100 		.word	100000
 480 0204 00C00040 		.word	1073790976
 481 0208 00000140 		.word	1073807360
 482 020c 00800940 		.word	1074364416
 483 0210 00C00940 		.word	1074380800
 484 0214 1F85EB51 		.word	1374389535
 485              		.cfi_endproc
 486              	.LFE56:
 487              		.size	uart_set_divisors, .-uart_set_divisors
 488              		.section	.bss.xx,"aw",%nobits
 489              		.align	2
 490              		.type	xx, %object
 491              		.size	xx, 4
 492              	xx:
 493 0000 00000000 		.space	4
 494              		.section	.text.UART_GenIntHandler,"ax",%progbits
 495              		.align	2
 496              		.global	UART_GenIntHandler
 497              		.thumb
 498              		.thumb_func
 499              		.type	UART_GenIntHandler, %function
 500              	UART_GenIntHandler:
 501              	.LFB57:
 214:core/lpc17xx_uart.c **** static volatile xx=0u;
 215:core/lpc17xx_uart.c **** /*********************************************************************//**
 216:core/lpc17xx_uart.c ****  * @brief		General UART interrupt handler and router
 217:core/lpc17xx_uart.c ****  * @param[in]	UARTx	Selected UART peripheral, should be UART0..3
 218:core/lpc17xx_uart.c ****  * @return		None
 219:core/lpc17xx_uart.c ****  *
 220:core/lpc17xx_uart.c ****  * Note:
 221:core/lpc17xx_uart.c ****  * - Handles transmit, receive, and status interrupts for the UART.
 222:core/lpc17xx_uart.c ****  * Based on the interrupt status, routes the interrupt to the
 223:core/lpc17xx_uart.c ****  * respective call-back to be handled by the user application using
 224:core/lpc17xx_uart.c ****  * this driver.
 225:core/lpc17xx_uart.c ****  * - If callback is not installed, corresponding interrupt will be disabled
 226:core/lpc17xx_uart.c ****  * - All these interrupt source below will be checked:
 227:core/lpc17xx_uart.c ****  *   		- Transmit Holding Register Empty.
 228:core/lpc17xx_uart.c ****  * 			- Received Data Available and Character Time Out.
 229:core/lpc17xx_uart.c ****  * 			- Receive Line Status (not implemented)
 230:core/lpc17xx_uart.c ****  * 			- End of auto-baud interrupt (not implemented)
 231:core/lpc17xx_uart.c ****  * 			- Auto-Baudrate Time-Out interrupt (not implemented)
ARM GAS  C:\Users\STUDENT\AppData\Local\Temp\ccMxouBa.s 			page 14


 232:core/lpc17xx_uart.c ****  * 			- Modem Status interrupt (UART0 Modem functionality)
 233:core/lpc17xx_uart.c ****  * 			- CTS signal transition interrupt (UART0 Modem functionality)
 234:core/lpc17xx_uart.c ****  **********************************************************************/
 235:core/lpc17xx_uart.c **** void UART_GenIntHandler(LPC_UART_TypeDef *UARTx)
 236:core/lpc17xx_uart.c **** {
 502              		.loc 1 236 0
 503              		.cfi_startproc
 504              		@ args = 0, pretend = 0, frame = 32
 505              		@ frame_needed = 1, uses_anonymous_args = 0
 506 0000 80B5     		push	{r7, lr}	@
 507              		.cfi_def_cfa_offset 8
 508              		.cfi_offset 7, -8
 509              		.cfi_offset 14, -4
 510 0002 88B0     		sub	sp, sp, #32	@,,
 511              		.cfi_def_cfa_offset 40
 512 0004 00AF     		add	r7, sp, #0	@,,
 513              		.cfi_def_cfa_register 7
 514 0006 7860     		str	r0, [r7, #4]	@ UARTx, UARTx
 237:core/lpc17xx_uart.c **** 	uint8_t pUart, modemsts;
 238:core/lpc17xx_uart.c **** 	uint32_t intsrc, tmp, tmp1;
 239:core/lpc17xx_uart.c **** 
 240:core/lpc17xx_uart.c **** 	pUart = getUartNum(UARTx);
 515              		.loc 1 240 0
 516 0008 7868     		ldr	r0, [r7, #4]	@, UARTx
 517 000a FFF7FEFF 		bl	getUartNum	@
 518 000e 0346     		mov	r3, r0	@ tmp148,
 519 0010 FB77     		strb	r3, [r7, #31]	@ tmp149, pUart
 241:core/lpc17xx_uart.c **** 
 242:core/lpc17xx_uart.c **** 	/* Determine the interrupt source */
 243:core/lpc17xx_uart.c **** 	intsrc = UARTx->IIR;
 520              		.loc 1 243 0
 521 0012 7B68     		ldr	r3, [r7, #4]	@ tmp150, UARTx
 522 0014 9B68     		ldr	r3, [r3, #8]	@ tmp151, UARTx_7(D)->D.4819.IIR
 523 0016 BB61     		str	r3, [r7, #24]	@ tmp151, intsrc
 244:core/lpc17xx_uart.c **** 	tmp = intsrc & UART_IIR_INTID_MASK;
 524              		.loc 1 244 0
 525 0018 BB69     		ldr	r3, [r7, #24]	@ tmp153, intsrc
 526 001a 03F00E03 		and	r3, r3, #14	@ tmp152, tmp153,
 527 001e 7B61     		str	r3, [r7, #20]	@ tmp152, tmp
 245:core/lpc17xx_uart.c **** 
 246:core/lpc17xx_uart.c **** 	/*
 247:core/lpc17xx_uart.c **** 	 * In case of using UART1 with full modem,
 248:core/lpc17xx_uart.c **** 	 * interrupt ID = 0 that means modem status interrupt has been detected
 249:core/lpc17xx_uart.c **** 	 */
 250:core/lpc17xx_uart.c **** 	if (pUart == 1) {
 528              		.loc 1 250 0
 529 0020 FB7F     		ldrb	r3, [r7, #31]	@ zero_extendqisi2	@ tmp154, pUart
 530 0022 012B     		cmp	r3, #1	@ tmp154,
 531 0024 1AD1     		bne	.L33	@,
 251:core/lpc17xx_uart.c **** 		xx++;
 532              		.loc 1 251 0
 533 0026 4F4B     		ldr	r3, .L45	@ tmp155,
 534 0028 1B68     		ldr	r3, [r3]	@ D.6697, xx
 535 002a 0133     		adds	r3, r3, #1	@ D.6697, D.6697,
 536 002c 4D4A     		ldr	r2, .L45	@ tmp156,
 537 002e 1360     		str	r3, [r2]	@ D.6697, xx
 252:core/lpc17xx_uart.c **** 		if (tmp == 0){
ARM GAS  C:\Users\STUDENT\AppData\Local\Temp\ccMxouBa.s 			page 15


 538              		.loc 1 252 0
 539 0030 7B69     		ldr	r3, [r7, #20]	@ tmp157, tmp
 540 0032 002B     		cmp	r3, #0	@ tmp157,
 541 0034 12D1     		bne	.L33	@,
 253:core/lpc17xx_uart.c **** 			// Check Modem status
 254:core/lpc17xx_uart.c **** 			modemsts = LPC_UART1->MSR & UART1_MSR_BITMASK;
 542              		.loc 1 254 0
 543 0036 4C4B     		ldr	r3, .L45+4	@ D.6698,
 544 0038 1B7E     		ldrb	r3, [r3, #24]	@ tmp158, _15->MSR
 545 003a FB74     		strb	r3, [r7, #19]	@ tmp158, modemsts
 255:core/lpc17xx_uart.c **** 			// Call modem status call-back
 256:core/lpc17xx_uart.c **** 			if (pfnModemCbs != NULL){
 546              		.loc 1 256 0
 547 003c 4B4B     		ldr	r3, .L45+8	@ tmp159,
 548 003e 1B68     		ldr	r3, [r3]	@ D.6699, pfnModemCbs
 549 0040 002B     		cmp	r3, #0	@ D.6699,
 550 0042 05D0     		beq	.L34	@,
 257:core/lpc17xx_uart.c **** 				pfnModemCbs(modemsts);
 551              		.loc 1 257 0
 552 0044 494B     		ldr	r3, .L45+8	@ tmp160,
 553 0046 1B68     		ldr	r3, [r3]	@ D.6699, pfnModemCbs
 554 0048 FA7C     		ldrb	r2, [r7, #19]	@ zero_extendqisi2	@ tmp161, modemsts
 555 004a 1046     		mov	r0, r2	@, tmp161
 556 004c 9847     		blx	r3	@ D.6699
 557 004e 05E0     		b	.L33	@
 558              	.L34:
 258:core/lpc17xx_uart.c **** 			}
 259:core/lpc17xx_uart.c **** 			// disable modem status interrupt and CTS status change interrupt
 260:core/lpc17xx_uart.c **** 			// if its callback is not installed
 261:core/lpc17xx_uart.c **** 			else {
 262:core/lpc17xx_uart.c **** 				LPC_UART1->IER &= ~(UART1_IER_MSINT_EN | UART1_IER_CTSINT_EN);
 559              		.loc 1 262 0
 560 0050 454A     		ldr	r2, .L45+4	@ D.6698,
 561 0052 454B     		ldr	r3, .L45+4	@ D.6698,
 562 0054 5B68     		ldr	r3, [r3, #4]	@ D.6700, _21->D.4875.IER
 563 0056 23F08803 		bic	r3, r3, #136	@ D.6700, D.6700,
 564 005a 5360     		str	r3, [r2, #4]	@ D.6700, _20->D.4875.IER
 565              	.L33:
 263:core/lpc17xx_uart.c **** 			}
 264:core/lpc17xx_uart.c **** 		}
 265:core/lpc17xx_uart.c **** 	}
 266:core/lpc17xx_uart.c **** 
 267:core/lpc17xx_uart.c **** 	// Receive Line Status
 268:core/lpc17xx_uart.c **** 	if (tmp == UART_IIR_INTID_RLS){
 566              		.loc 1 268 0
 567 005c 7B69     		ldr	r3, [r7, #20]	@ tmp162, tmp
 568 005e 062B     		cmp	r3, #6	@ tmp162,
 569 0060 23D1     		bne	.L35	@,
 269:core/lpc17xx_uart.c **** 		// Check line status
 270:core/lpc17xx_uart.c **** 		tmp1 = UARTx->LSR;
 570              		.loc 1 270 0
 571 0062 7B68     		ldr	r3, [r7, #4]	@ tmp163, UARTx
 572 0064 1B7D     		ldrb	r3, [r3, #20]	@ tmp165, UARTx_7(D)->LSR
 573 0066 DBB2     		uxtb	r3, r3	@ D.6701, tmp165
 574 0068 FB60     		str	r3, [r7, #12]	@ D.6701, tmp1
 271:core/lpc17xx_uart.c **** 		// Mask out the Receive Ready and Transmit Holding empty status
 272:core/lpc17xx_uart.c **** 		tmp1 &= (UART_LSR_OE | UART_LSR_PE | UART_LSR_FE \
ARM GAS  C:\Users\STUDENT\AppData\Local\Temp\ccMxouBa.s 			page 16


 575              		.loc 1 272 0
 576 006a FB68     		ldr	r3, [r7, #12]	@ tmp167, tmp1
 577 006c 03F09E03 		and	r3, r3, #158	@ tmp166, tmp167,
 578 0070 FB60     		str	r3, [r7, #12]	@ tmp166, tmp1
 273:core/lpc17xx_uart.c **** 				| UART_LSR_BI | UART_LSR_RXFE);
 274:core/lpc17xx_uart.c **** 		// If any error exist
 275:core/lpc17xx_uart.c **** 		if (tmp1) {
 579              		.loc 1 275 0
 580 0072 FB68     		ldr	r3, [r7, #12]	@ tmp168, tmp1
 581 0074 002B     		cmp	r3, #0	@ tmp168,
 582 0076 18D0     		beq	.L35	@,
 276:core/lpc17xx_uart.c **** 			// Call Call-back function with error input value
 277:core/lpc17xx_uart.c **** 			if (uartCbsDat[pUart].pfnErrCbs != NULL) {
 583              		.loc 1 277 0
 584 0078 FB7F     		ldrb	r3, [r7, #31]	@ zero_extendqisi2	@ D.6697, pUart
 585 007a 3D4A     		ldr	r2, .L45+12	@ tmp169,
 586 007c 1B01     		lsls	r3, r3, #4	@ tmp170, D.6697,
 587 007e 1344     		add	r3, r3, r2	@ tmp171, tmp169
 588 0080 0C33     		adds	r3, r3, #12	@ tmp172, tmp171,
 589 0082 1B68     		ldr	r3, [r3]	@ D.6702, uartCbsDat[_28].pfnErrCbs
 590 0084 002B     		cmp	r3, #0	@ D.6702,
 591 0086 0AD0     		beq	.L36	@,
 278:core/lpc17xx_uart.c **** 				uartCbsDat[pUart].pfnErrCbs(tmp1);
 592              		.loc 1 278 0
 593 0088 FB7F     		ldrb	r3, [r7, #31]	@ zero_extendqisi2	@ D.6697, pUart
 594 008a 394A     		ldr	r2, .L45+12	@ tmp173,
 595 008c 1B01     		lsls	r3, r3, #4	@ tmp174, D.6697,
 596 008e 1344     		add	r3, r3, r2	@ tmp175, tmp173
 597 0090 0C33     		adds	r3, r3, #12	@ tmp176, tmp175,
 598 0092 1B68     		ldr	r3, [r3]	@ D.6702, uartCbsDat[_30].pfnErrCbs
 599 0094 FA68     		ldr	r2, [r7, #12]	@ tmp177, tmp1
 600 0096 D2B2     		uxtb	r2, r2	@ D.6701, tmp177
 601 0098 1046     		mov	r0, r2	@, D.6701
 602 009a 9847     		blx	r3	@ D.6702
 603 009c 05E0     		b	.L35	@
 604              	.L36:
 279:core/lpc17xx_uart.c **** 			}
 280:core/lpc17xx_uart.c **** 			// Disable interrupt if its call-back is not install
 281:core/lpc17xx_uart.c **** 			else {
 282:core/lpc17xx_uart.c **** 				UARTx->IER &= ~(UART_IER_RLSINT_EN);
 605              		.loc 1 282 0
 606 009e 7B68     		ldr	r3, [r7, #4]	@ tmp178, UARTx
 607 00a0 5B68     		ldr	r3, [r3, #4]	@ D.6700, UARTx_7(D)->D.4815.IER
 608 00a2 23F00402 		bic	r2, r3, #4	@ D.6700, D.6700,
 609 00a6 7B68     		ldr	r3, [r7, #4]	@ tmp179, UARTx
 610 00a8 5A60     		str	r2, [r3, #4]	@ D.6700, UARTx_7(D)->D.4815.IER
 611              	.L35:
 283:core/lpc17xx_uart.c **** 			}
 284:core/lpc17xx_uart.c **** 		}
 285:core/lpc17xx_uart.c **** 	}
 286:core/lpc17xx_uart.c **** 
 287:core/lpc17xx_uart.c **** 	// Receive Data Available or Character time-out
 288:core/lpc17xx_uart.c **** 	if ((tmp == UART_IIR_INTID_RDA)||(tmp == UART_IIR_INTID_CTI)){
 612              		.loc 1 288 0
 613 00aa 7B69     		ldr	r3, [r7, #20]	@ tmp180, tmp
 614 00ac 042B     		cmp	r3, #4	@ tmp180,
 615 00ae 02D0     		beq	.L37	@,
ARM GAS  C:\Users\STUDENT\AppData\Local\Temp\ccMxouBa.s 			page 17


 616              		.loc 1 288 0 is_stmt 0 discriminator 1
 617 00b0 7B69     		ldr	r3, [r7, #20]	@ tmp181, tmp
 618 00b2 0C2B     		cmp	r3, #12	@ tmp181,
 619 00b4 15D1     		bne	.L38	@,
 620              	.L37:
 289:core/lpc17xx_uart.c **** 		// Call Rx call back function
 290:core/lpc17xx_uart.c **** 		if (uartCbsDat[pUart].pfnRxCbs != NULL) {
 621              		.loc 1 290 0 is_stmt 1
 622 00b6 FB7F     		ldrb	r3, [r7, #31]	@ zero_extendqisi2	@ D.6697, pUart
 623 00b8 2D4A     		ldr	r2, .L45+12	@ tmp182,
 624 00ba 1B01     		lsls	r3, r3, #4	@ tmp183, D.6697,
 625 00bc 1344     		add	r3, r3, r2	@ tmp184, tmp182
 626 00be 0433     		adds	r3, r3, #4	@ tmp185, tmp184,
 627 00c0 1B68     		ldr	r3, [r3]	@ D.6703, uartCbsDat[_37].pfnRxCbs
 628 00c2 002B     		cmp	r3, #0	@ D.6703,
 629 00c4 07D0     		beq	.L39	@,
 291:core/lpc17xx_uart.c **** 			uartCbsDat[pUart].pfnRxCbs();
 630              		.loc 1 291 0
 631 00c6 FB7F     		ldrb	r3, [r7, #31]	@ zero_extendqisi2	@ D.6697, pUart
 632 00c8 294A     		ldr	r2, .L45+12	@ tmp186,
 633 00ca 1B01     		lsls	r3, r3, #4	@ tmp187, D.6697,
 634 00cc 1344     		add	r3, r3, r2	@ tmp188, tmp186
 635 00ce 0433     		adds	r3, r3, #4	@ tmp189, tmp188,
 636 00d0 1B68     		ldr	r3, [r3]	@ D.6703, uartCbsDat[_39].pfnRxCbs
 637 00d2 9847     		blx	r3	@ D.6703
 638 00d4 05E0     		b	.L38	@
 639              	.L39:
 292:core/lpc17xx_uart.c **** 		}
 293:core/lpc17xx_uart.c **** 		// Disable interrupt if its call-back is not install
 294:core/lpc17xx_uart.c **** 		else {
 295:core/lpc17xx_uart.c **** 			UARTx->IER &= ~(UART_IER_RBRINT_EN);
 640              		.loc 1 295 0
 641 00d6 7B68     		ldr	r3, [r7, #4]	@ tmp190, UARTx
 642 00d8 5B68     		ldr	r3, [r3, #4]	@ D.6700, UARTx_7(D)->D.4815.IER
 643 00da 23F00102 		bic	r2, r3, #1	@ D.6700, D.6700,
 644 00de 7B68     		ldr	r3, [r7, #4]	@ tmp191, UARTx
 645 00e0 5A60     		str	r2, [r3, #4]	@ D.6700, UARTx_7(D)->D.4815.IER
 646              	.L38:
 296:core/lpc17xx_uart.c **** 		}
 297:core/lpc17xx_uart.c **** 	}
 298:core/lpc17xx_uart.c **** 
 299:core/lpc17xx_uart.c **** 	// Transmit Holding Empty
 300:core/lpc17xx_uart.c **** 	if (tmp == UART_IIR_INTID_THRE){
 647              		.loc 1 300 0
 648 00e2 7B69     		ldr	r3, [r7, #20]	@ tmp192, tmp
 649 00e4 022B     		cmp	r3, #2	@ tmp192,
 650 00e6 13D1     		bne	.L40	@,
 301:core/lpc17xx_uart.c **** 		// Call Tx call back function
 302:core/lpc17xx_uart.c **** 		if (uartCbsDat[pUart].pfnTxCbs != NULL) {
 651              		.loc 1 302 0
 652 00e8 FB7F     		ldrb	r3, [r7, #31]	@ zero_extendqisi2	@ D.6697, pUart
 653 00ea 214A     		ldr	r2, .L45+12	@ tmp193,
 654 00ec 1B01     		lsls	r3, r3, #4	@ tmp194, D.6697,
 655 00ee 1344     		add	r3, r3, r2	@ tmp195, tmp193
 656 00f0 1B68     		ldr	r3, [r3]	@ D.6704, uartCbsDat[_45].pfnTxCbs
 657 00f2 002B     		cmp	r3, #0	@ D.6704,
 658 00f4 06D0     		beq	.L41	@,
ARM GAS  C:\Users\STUDENT\AppData\Local\Temp\ccMxouBa.s 			page 18


 303:core/lpc17xx_uart.c **** 			uartCbsDat[pUart].pfnTxCbs();
 659              		.loc 1 303 0
 660 00f6 FB7F     		ldrb	r3, [r7, #31]	@ zero_extendqisi2	@ D.6697, pUart
 661 00f8 1D4A     		ldr	r2, .L45+12	@ tmp196,
 662 00fa 1B01     		lsls	r3, r3, #4	@ tmp197, D.6697,
 663 00fc 1344     		add	r3, r3, r2	@ tmp198, tmp196
 664 00fe 1B68     		ldr	r3, [r3]	@ D.6704, uartCbsDat[_47].pfnTxCbs
 665 0100 9847     		blx	r3	@ D.6704
 666 0102 05E0     		b	.L40	@
 667              	.L41:
 304:core/lpc17xx_uart.c **** 		}
 305:core/lpc17xx_uart.c **** 		// Disable interrupt if its call-back is not install
 306:core/lpc17xx_uart.c **** 		else {
 307:core/lpc17xx_uart.c **** 			UARTx->IER &= ~(UART_IER_THREINT_EN);
 668              		.loc 1 307 0
 669 0104 7B68     		ldr	r3, [r7, #4]	@ tmp199, UARTx
 670 0106 5B68     		ldr	r3, [r3, #4]	@ D.6700, UARTx_7(D)->D.4815.IER
 671 0108 23F00202 		bic	r2, r3, #2	@ D.6700, D.6700,
 672 010c 7B68     		ldr	r3, [r7, #4]	@ tmp200, UARTx
 673 010e 5A60     		str	r2, [r3, #4]	@ D.6700, UARTx_7(D)->D.4815.IER
 674              	.L40:
 308:core/lpc17xx_uart.c **** 		}
 309:core/lpc17xx_uart.c **** 	}
 310:core/lpc17xx_uart.c **** 
 311:core/lpc17xx_uart.c **** 	intsrc &= (UART_IIR_ABEO_INT | UART_IIR_ABTO_INT);
 675              		.loc 1 311 0
 676 0110 BB69     		ldr	r3, [r7, #24]	@ tmp202, intsrc
 677 0112 03F44073 		and	r3, r3, #768	@ tmp201, tmp202,
 678 0116 BB61     		str	r3, [r7, #24]	@ tmp201, intsrc
 312:core/lpc17xx_uart.c **** 	// Check if End of auto-baudrate interrupt or Auto baudrate time out
 313:core/lpc17xx_uart.c **** 	if (intsrc){
 679              		.loc 1 313 0
 680 0118 BB69     		ldr	r3, [r7, #24]	@ tmp203, intsrc
 681 011a 002B     		cmp	r3, #0	@ tmp203,
 682 011c 1ED0     		beq	.L44	@,
 314:core/lpc17xx_uart.c **** 		// Clear interrupt pending
 315:core/lpc17xx_uart.c **** 		UARTx->ACR |= ((intsrc & UART_IIR_ABEO_INT) ? UART_ACR_ABEOINT_CLR : 0) \
 683              		.loc 1 315 0
 684 011e 7B68     		ldr	r3, [r7, #4]	@ tmp204, UARTx
 685 0120 1A6A     		ldr	r2, [r3, #32]	@ D.6700, UARTx_7(D)->ACR
 316:core/lpc17xx_uart.c **** 						| ((intsrc & UART_IIR_ABTO_INT) ? UART_ACR_ABTOINT_CLR : 0);
 686              		.loc 1 316 0
 687 0122 BB69     		ldr	r3, [r7, #24]	@ tmp205, intsrc
 688 0124 03F44073 		and	r3, r3, #768	@ D.6700, tmp205,
 315:core/lpc17xx_uart.c **** 						| ((intsrc & UART_IIR_ABTO_INT) ? UART_ACR_ABTOINT_CLR : 0);
 689              		.loc 1 315 0
 690 0128 1A43     		orrs	r2, r2, r3	@, D.6700, D.6700, D.6700
 691 012a 7B68     		ldr	r3, [r7, #4]	@ tmp206, UARTx
 692 012c 1A62     		str	r2, [r3, #32]	@ D.6700, UARTx_7(D)->ACR
 317:core/lpc17xx_uart.c **** 		if (uartCbsDat[pUart].pfnABCbs != NULL) {
 693              		.loc 1 317 0
 694 012e FB7F     		ldrb	r3, [r7, #31]	@ zero_extendqisi2	@ D.6697, pUart
 695 0130 0F4A     		ldr	r2, .L45+12	@ tmp207,
 696 0132 1B01     		lsls	r3, r3, #4	@ tmp208, D.6697,
 697 0134 1344     		add	r3, r3, r2	@ tmp209, tmp207
 698 0136 0833     		adds	r3, r3, #8	@ tmp210, tmp209,
 699 0138 1B68     		ldr	r3, [r3]	@ D.6705, uartCbsDat[_58].pfnABCbs
ARM GAS  C:\Users\STUDENT\AppData\Local\Temp\ccMxouBa.s 			page 19


 700 013a 002B     		cmp	r3, #0	@ D.6705,
 701 013c 08D0     		beq	.L43	@,
 318:core/lpc17xx_uart.c **** 			uartCbsDat[pUart].pfnABCbs(intsrc);
 702              		.loc 1 318 0
 703 013e FB7F     		ldrb	r3, [r7, #31]	@ zero_extendqisi2	@ D.6697, pUart
 704 0140 0B4A     		ldr	r2, .L45+12	@ tmp211,
 705 0142 1B01     		lsls	r3, r3, #4	@ tmp212, D.6697,
 706 0144 1344     		add	r3, r3, r2	@ tmp213, tmp211
 707 0146 0833     		adds	r3, r3, #8	@ tmp214, tmp213,
 708 0148 1B68     		ldr	r3, [r3]	@ D.6705, uartCbsDat[_60].pfnABCbs
 709 014a B869     		ldr	r0, [r7, #24]	@, intsrc
 710 014c 9847     		blx	r3	@ D.6705
 319:core/lpc17xx_uart.c **** 		} else {
 320:core/lpc17xx_uart.c **** 			// Disable End of AB interrupt
 321:core/lpc17xx_uart.c **** 			UARTx->IER &= ~(UART_IER_ABEOINT_EN | UART_IER_ABTOINT_EN);
 322:core/lpc17xx_uart.c **** 		}
 323:core/lpc17xx_uart.c **** 	}
 324:core/lpc17xx_uart.c **** }
 711              		.loc 1 324 0
 712 014e 05E0     		b	.L44	@
 713              	.L43:
 321:core/lpc17xx_uart.c **** 		}
 714              		.loc 1 321 0
 715 0150 7B68     		ldr	r3, [r7, #4]	@ tmp215, UARTx
 716 0152 5B68     		ldr	r3, [r3, #4]	@ D.6700, UARTx_7(D)->D.4815.IER
 717 0154 23F44072 		bic	r2, r3, #768	@ D.6700, D.6700,
 718 0158 7B68     		ldr	r3, [r7, #4]	@ tmp216, UARTx
 719 015a 5A60     		str	r2, [r3, #4]	@ D.6700, UARTx_7(D)->D.4815.IER
 720              	.L44:
 721              		.loc 1 324 0
 722 015c 00BF     		nop
 723 015e 2037     		adds	r7, r7, #32	@,,
 724              		.cfi_def_cfa_offset 8
 725 0160 BD46     		mov	sp, r7	@,
 726              		.cfi_def_cfa_register 13
 727              		@ sp needed	@
 728 0162 80BD     		pop	{r7, pc}	@
 729              	.L46:
 730              		.align	2
 731              	.L45:
 732 0164 00000000 		.word	xx
 733 0168 00000140 		.word	1073807360
 734 016c 00000000 		.word	pfnModemCbs
 735 0170 00000000 		.word	uartCbsDat
 736              		.cfi_endproc
 737              	.LFE57:
 738              		.size	UART_GenIntHandler, .-UART_GenIntHandler
 739              		.section	.rodata
 740              		.align	2
 741              	.LC0:
 742 0000 636F7265 		.ascii	"core/lpc17xx_uart.c\000"
 742      2F6C7063 
 742      31377878 
 742      5F756172 
 742      742E6300 
 743              		.section	.text.UART_DeInit,"ax",%progbits
 744              		.align	2
ARM GAS  C:\Users\STUDENT\AppData\Local\Temp\ccMxouBa.s 			page 20


 745              		.global	UART_DeInit
 746              		.thumb
 747              		.thumb_func
 748              		.type	UART_DeInit, %function
 749              	UART_DeInit:
 750              	.LFB58:
 325:core/lpc17xx_uart.c **** 
 326:core/lpc17xx_uart.c **** /**
 327:core/lpc17xx_uart.c ****  * @}
 328:core/lpc17xx_uart.c ****  */
 329:core/lpc17xx_uart.c **** 
 330:core/lpc17xx_uart.c **** 
 331:core/lpc17xx_uart.c **** /* Public Functions ----------------------------------------------------------- */
 332:core/lpc17xx_uart.c **** /** @addtogroup UART_Public_Functions
 333:core/lpc17xx_uart.c ****  * @{
 334:core/lpc17xx_uart.c ****  */
 335:core/lpc17xx_uart.c **** 
 336:core/lpc17xx_uart.c **** /*********************************************************************//**
 337:core/lpc17xx_uart.c ****  * @brief		De-initializes the UARTx peripheral registers to their
 338:core/lpc17xx_uart.c **** *                  default reset values.
 339:core/lpc17xx_uart.c ****  * @param[in]	UARTx	UART peripheral selected, should be UART0, UART1,
 340:core/lpc17xx_uart.c ****  * 						UART2 or UART3.
 341:core/lpc17xx_uart.c ****  * @return 		None
 342:core/lpc17xx_uart.c ****  **********************************************************************/
 343:core/lpc17xx_uart.c **** void UART_DeInit(LPC_UART_TypeDef* UARTx)
 344:core/lpc17xx_uart.c **** {
 751              		.loc 1 344 0
 752              		.cfi_startproc
 753              		@ args = 0, pretend = 0, frame = 8
 754              		@ frame_needed = 1, uses_anonymous_args = 0
 755 0000 80B5     		push	{r7, lr}	@
 756              		.cfi_def_cfa_offset 8
 757              		.cfi_offset 7, -8
 758              		.cfi_offset 14, -4
 759 0002 82B0     		sub	sp, sp, #8	@,,
 760              		.cfi_def_cfa_offset 16
 761 0004 00AF     		add	r7, sp, #0	@,,
 762              		.cfi_def_cfa_register 7
 763 0006 7860     		str	r0, [r7, #4]	@ UARTx, UARTx
 345:core/lpc17xx_uart.c **** 	// For debug mode
 346:core/lpc17xx_uart.c **** 	CHECK_PARAM(PARAM_UARTx(UARTx));
 764              		.loc 1 346 0
 765 0008 7B68     		ldr	r3, [r7, #4]	@ tmp110, UARTx
 766 000a 1F4A     		ldr	r2, .L54	@ tmp111,
 767 000c 9342     		cmp	r3, r2	@ tmp110, tmp111
 768 000e 10D0     		beq	.L48	@,
 769              		.loc 1 346 0 is_stmt 0 discriminator 1
 770 0010 7B68     		ldr	r3, [r7, #4]	@ tmp112, UARTx
 771 0012 1E4A     		ldr	r2, .L54+4	@ tmp113,
 772 0014 9342     		cmp	r3, r2	@ tmp112, tmp113
 773 0016 0CD0     		beq	.L48	@,
 774              		.loc 1 346 0 discriminator 2
 775 0018 7B68     		ldr	r3, [r7, #4]	@ tmp114, UARTx
 776 001a 1D4A     		ldr	r2, .L54+8	@ tmp115,
 777 001c 9342     		cmp	r3, r2	@ tmp114, tmp115
 778 001e 08D0     		beq	.L48	@,
 779              		.loc 1 346 0 discriminator 3
ARM GAS  C:\Users\STUDENT\AppData\Local\Temp\ccMxouBa.s 			page 21


 780 0020 7B68     		ldr	r3, [r7, #4]	@ tmp116, UARTx
 781 0022 1C4A     		ldr	r2, .L54+12	@ tmp117,
 782 0024 9342     		cmp	r3, r2	@ tmp116, tmp117
 783 0026 04D0     		beq	.L48	@,
 784              		.loc 1 346 0 discriminator 4
 785 0028 4FF4AD71 		mov	r1, #346	@,
 786 002c 1A48     		ldr	r0, .L54+16	@,
 787 002e FFF7FEFF 		bl	check_failed	@
 788              	.L48:
 347:core/lpc17xx_uart.c **** 
 348:core/lpc17xx_uart.c **** 	UART_TxCmd(UARTx, DISABLE);
 789              		.loc 1 348 0 is_stmt 1
 790 0032 0021     		movs	r1, #0	@,
 791 0034 7868     		ldr	r0, [r7, #4]	@, UARTx
 792 0036 FFF7FEFF 		bl	UART_TxCmd	@
 349:core/lpc17xx_uart.c **** 
 350:core/lpc17xx_uart.c **** #ifdef _UART0
 351:core/lpc17xx_uart.c **** 	if (UARTx == (LPC_UART_TypeDef*)LPC_UART0)
 793              		.loc 1 351 0
 794 003a 7B68     		ldr	r3, [r7, #4]	@ tmp118, UARTx
 795 003c 124A     		ldr	r2, .L54	@ tmp119,
 796 003e 9342     		cmp	r3, r2	@ tmp118, tmp119
 797 0040 03D1     		bne	.L49	@,
 352:core/lpc17xx_uart.c **** 	{
 353:core/lpc17xx_uart.c **** 		/* Set up clock and power for UART module */
 354:core/lpc17xx_uart.c **** 		CLKPWR_ConfigPPWR (CLKPWR_PCONP_PCUART0, DISABLE);
 798              		.loc 1 354 0
 799 0042 0021     		movs	r1, #0	@,
 800 0044 0820     		movs	r0, #8	@,
 801 0046 FFF7FEFF 		bl	CLKPWR_ConfigPPWR	@
 802              	.L49:
 355:core/lpc17xx_uart.c **** 	}
 356:core/lpc17xx_uart.c **** #endif
 357:core/lpc17xx_uart.c **** 
 358:core/lpc17xx_uart.c **** #ifdef _UART1
 359:core/lpc17xx_uart.c **** 	if (((LPC_UART1_TypeDef *)UARTx) == LPC_UART1)
 803              		.loc 1 359 0
 804 004a 7B68     		ldr	r3, [r7, #4]	@ tmp120, UARTx
 805 004c 0F4A     		ldr	r2, .L54+4	@ tmp121,
 806 004e 9342     		cmp	r3, r2	@ tmp120, tmp121
 807 0050 03D1     		bne	.L50	@,
 360:core/lpc17xx_uart.c **** 	{
 361:core/lpc17xx_uart.c **** 		/* Set up clock and power for UART module */
 362:core/lpc17xx_uart.c **** 		CLKPWR_ConfigPPWR (CLKPWR_PCONP_PCUART1, DISABLE);
 808              		.loc 1 362 0
 809 0052 0021     		movs	r1, #0	@,
 810 0054 1020     		movs	r0, #16	@,
 811 0056 FFF7FEFF 		bl	CLKPWR_ConfigPPWR	@
 812              	.L50:
 363:core/lpc17xx_uart.c **** 	}
 364:core/lpc17xx_uart.c **** #endif
 365:core/lpc17xx_uart.c **** 
 366:core/lpc17xx_uart.c **** #ifdef _UART2
 367:core/lpc17xx_uart.c **** 	if (UARTx == LPC_UART2)
 813              		.loc 1 367 0
 814 005a 7B68     		ldr	r3, [r7, #4]	@ tmp122, UARTx
 815 005c 0C4A     		ldr	r2, .L54+8	@ tmp123,
ARM GAS  C:\Users\STUDENT\AppData\Local\Temp\ccMxouBa.s 			page 22


 816 005e 9342     		cmp	r3, r2	@ tmp122, tmp123
 817 0060 04D1     		bne	.L51	@,
 368:core/lpc17xx_uart.c **** 	{
 369:core/lpc17xx_uart.c **** 		/* Set up clock and power for UART module */
 370:core/lpc17xx_uart.c **** 		CLKPWR_ConfigPPWR (CLKPWR_PCONP_PCUART2, DISABLE);
 818              		.loc 1 370 0
 819 0062 0021     		movs	r1, #0	@,
 820 0064 4FF08070 		mov	r0, #16777216	@,
 821 0068 FFF7FEFF 		bl	CLKPWR_ConfigPPWR	@
 822              	.L51:
 371:core/lpc17xx_uart.c **** 	}
 372:core/lpc17xx_uart.c **** #endif
 373:core/lpc17xx_uart.c **** 
 374:core/lpc17xx_uart.c **** #ifdef _UART3
 375:core/lpc17xx_uart.c **** 	if (UARTx == LPC_UART3)
 823              		.loc 1 375 0
 824 006c 7B68     		ldr	r3, [r7, #4]	@ tmp124, UARTx
 825 006e 094A     		ldr	r2, .L54+12	@ tmp125,
 826 0070 9342     		cmp	r3, r2	@ tmp124, tmp125
 827 0072 04D1     		bne	.L53	@,
 376:core/lpc17xx_uart.c **** 	{
 377:core/lpc17xx_uart.c **** 		/* Set up clock and power for UART module */
 378:core/lpc17xx_uart.c **** 		CLKPWR_ConfigPPWR (CLKPWR_PCONP_PCUART3, DISABLE);
 828              		.loc 1 378 0
 829 0074 0021     		movs	r1, #0	@,
 830 0076 4FF00070 		mov	r0, #33554432	@,
 831 007a FFF7FEFF 		bl	CLKPWR_ConfigPPWR	@
 832              	.L53:
 379:core/lpc17xx_uart.c **** 	}
 380:core/lpc17xx_uart.c **** #endif
 381:core/lpc17xx_uart.c **** }
 833              		.loc 1 381 0
 834 007e 00BF     		nop
 835 0080 0837     		adds	r7, r7, #8	@,,
 836              		.cfi_def_cfa_offset 8
 837 0082 BD46     		mov	sp, r7	@,
 838              		.cfi_def_cfa_register 13
 839              		@ sp needed	@
 840 0084 80BD     		pop	{r7, pc}	@
 841              	.L55:
 842 0086 00BF     		.align	2
 843              	.L54:
 844 0088 00C00040 		.word	1073790976
 845 008c 00000140 		.word	1073807360
 846 0090 00800940 		.word	1074364416
 847 0094 00C00940 		.word	1074380800
 848 0098 00000000 		.word	.LC0
 849              		.cfi_endproc
 850              	.LFE58:
 851              		.size	UART_DeInit, .-UART_DeInit
 852              		.section	.text.UART_Init,"ax",%progbits
 853              		.align	2
 854              		.global	UART_Init
 855              		.thumb
 856              		.thumb_func
 857              		.type	UART_Init, %function
 858              	UART_Init:
ARM GAS  C:\Users\STUDENT\AppData\Local\Temp\ccMxouBa.s 			page 23


 859              	.LFB59:
 382:core/lpc17xx_uart.c **** 
 383:core/lpc17xx_uart.c **** /********************************************************************//**
 384:core/lpc17xx_uart.c ****  * @brief		Initializes the UARTx peripheral according to the specified
 385:core/lpc17xx_uart.c **** *               parameters in the UART_ConfigStruct.
 386:core/lpc17xx_uart.c ****  * @param[in]	UARTx	UART peripheral selected, should be UART0, UART1,
 387:core/lpc17xx_uart.c ****  * 						UART2 or UART3.
 388:core/lpc17xx_uart.c ****  * @param[in]	UART_ConfigStruct Pointer to a UART_CFG_Type structure
 389:core/lpc17xx_uart.c **** *                    that contains the configuration information for the
 390:core/lpc17xx_uart.c **** *                    specified UART peripheral.
 391:core/lpc17xx_uart.c ****  * @return 		None
 392:core/lpc17xx_uart.c ****  *********************************************************************/
 393:core/lpc17xx_uart.c **** void UART_Init(LPC_UART_TypeDef *UARTx, UART_CFG_Type *UART_ConfigStruct)
 394:core/lpc17xx_uart.c **** {
 860              		.loc 1 394 0
 861              		.cfi_startproc
 862              		@ args = 0, pretend = 0, frame = 16
 863              		@ frame_needed = 1, uses_anonymous_args = 0
 864 0000 80B5     		push	{r7, lr}	@
 865              		.cfi_def_cfa_offset 8
 866              		.cfi_offset 7, -8
 867              		.cfi_offset 14, -4
 868 0002 84B0     		sub	sp, sp, #16	@,,
 869              		.cfi_def_cfa_offset 24
 870 0004 00AF     		add	r7, sp, #0	@,,
 871              		.cfi_def_cfa_register 7
 872 0006 7860     		str	r0, [r7, #4]	@ UARTx, UARTx
 873 0008 3960     		str	r1, [r7]	@ UART_ConfigStruct, UART_ConfigStruct
 395:core/lpc17xx_uart.c **** 	uint32_t tmp;
 396:core/lpc17xx_uart.c **** 
 397:core/lpc17xx_uart.c **** 	// For debug mode
 398:core/lpc17xx_uart.c **** 	CHECK_PARAM(PARAM_UARTx(UARTx));
 874              		.loc 1 398 0
 875 000a 7B68     		ldr	r3, [r7, #4]	@ tmp152, UARTx
 876 000c A64A     		ldr	r2, .L97	@ tmp153,
 877 000e 9342     		cmp	r3, r2	@ tmp152, tmp153
 878 0010 10D0     		beq	.L57	@,
 879              		.loc 1 398 0 is_stmt 0 discriminator 1
 880 0012 7B68     		ldr	r3, [r7, #4]	@ tmp154, UARTx
 881 0014 A54A     		ldr	r2, .L97+4	@ tmp155,
 882 0016 9342     		cmp	r3, r2	@ tmp154, tmp155
 883 0018 0CD0     		beq	.L57	@,
 884              		.loc 1 398 0 discriminator 2
 885 001a 7B68     		ldr	r3, [r7, #4]	@ tmp156, UARTx
 886 001c A44A     		ldr	r2, .L97+8	@ tmp157,
 887 001e 9342     		cmp	r3, r2	@ tmp156, tmp157
 888 0020 08D0     		beq	.L57	@,
 889              		.loc 1 398 0 discriminator 3
 890 0022 7B68     		ldr	r3, [r7, #4]	@ tmp158, UARTx
 891 0024 A34A     		ldr	r2, .L97+12	@ tmp159,
 892 0026 9342     		cmp	r3, r2	@ tmp158, tmp159
 893 0028 04D0     		beq	.L57	@,
 894              		.loc 1 398 0 discriminator 4
 895 002a 4FF4C771 		mov	r1, #398	@,
 896 002e A248     		ldr	r0, .L97+16	@,
 897 0030 FFF7FEFF 		bl	check_failed	@
 898              	.L57:
ARM GAS  C:\Users\STUDENT\AppData\Local\Temp\ccMxouBa.s 			page 24


 399:core/lpc17xx_uart.c **** 	CHECK_PARAM(PARAM_UART_DATABIT(UART_ConfigStruct->Databits));
 899              		.loc 1 399 0 is_stmt 1
 900 0034 3B68     		ldr	r3, [r7]	@ tmp160, UART_ConfigStruct
 901 0036 5B79     		ldrb	r3, [r3, #5]	@ zero_extendqisi2	@ D.6707, UART_ConfigStruct_19(D)->Databits
 902 0038 002B     		cmp	r3, #0	@ D.6707,
 903 003a 10D0     		beq	.L58	@,
 904              		.loc 1 399 0 is_stmt 0 discriminator 1
 905 003c 3B68     		ldr	r3, [r7]	@ tmp161, UART_ConfigStruct
 906 003e 5B79     		ldrb	r3, [r3, #5]	@ zero_extendqisi2	@ D.6707, UART_ConfigStruct_19(D)->Databits
 907 0040 012B     		cmp	r3, #1	@ D.6707,
 908 0042 0CD0     		beq	.L58	@,
 909              		.loc 1 399 0 discriminator 2
 910 0044 3B68     		ldr	r3, [r7]	@ tmp162, UART_ConfigStruct
 911 0046 5B79     		ldrb	r3, [r3, #5]	@ zero_extendqisi2	@ D.6707, UART_ConfigStruct_19(D)->Databits
 912 0048 022B     		cmp	r3, #2	@ D.6707,
 913 004a 08D0     		beq	.L58	@,
 914              		.loc 1 399 0 discriminator 3
 915 004c 3B68     		ldr	r3, [r7]	@ tmp163, UART_ConfigStruct
 916 004e 5B79     		ldrb	r3, [r3, #5]	@ zero_extendqisi2	@ D.6707, UART_ConfigStruct_19(D)->Databits
 917 0050 032B     		cmp	r3, #3	@ D.6707,
 918 0052 04D0     		beq	.L58	@,
 919              		.loc 1 399 0 discriminator 4
 920 0054 40F28F11 		movw	r1, #399	@,
 921 0058 9748     		ldr	r0, .L97+16	@,
 922 005a FFF7FEFF 		bl	check_failed	@
 923              	.L58:
 400:core/lpc17xx_uart.c **** 	CHECK_PARAM(PARAM_UART_STOPBIT(UART_ConfigStruct->Stopbits));
 924              		.loc 1 400 0 is_stmt 1
 925 005e 3B68     		ldr	r3, [r7]	@ tmp164, UART_ConfigStruct
 926 0060 9B79     		ldrb	r3, [r3, #6]	@ zero_extendqisi2	@ D.6708, UART_ConfigStruct_19(D)->Stopbits
 927 0062 002B     		cmp	r3, #0	@ D.6708,
 928 0064 08D0     		beq	.L59	@,
 929              		.loc 1 400 0 is_stmt 0 discriminator 1
 930 0066 3B68     		ldr	r3, [r7]	@ tmp165, UART_ConfigStruct
 931 0068 9B79     		ldrb	r3, [r3, #6]	@ zero_extendqisi2	@ D.6708, UART_ConfigStruct_19(D)->Stopbits
 932 006a 012B     		cmp	r3, #1	@ D.6708,
 933 006c 04D0     		beq	.L59	@,
 934              		.loc 1 400 0 discriminator 2
 935 006e 4FF4C871 		mov	r1, #400	@,
 936 0072 9148     		ldr	r0, .L97+16	@,
 937 0074 FFF7FEFF 		bl	check_failed	@
 938              	.L59:
 401:core/lpc17xx_uart.c **** 	CHECK_PARAM(PARAM_UART_PARITY(UART_ConfigStruct->Parity));
 939              		.loc 1 401 0 is_stmt 1
 940 0078 3B68     		ldr	r3, [r7]	@ tmp166, UART_ConfigStruct
 941 007a 1B79     		ldrb	r3, [r3, #4]	@ zero_extendqisi2	@ D.6709, UART_ConfigStruct_19(D)->Parity
 942 007c 002B     		cmp	r3, #0	@ D.6709,
 943 007e 14D0     		beq	.L60	@,
 944              		.loc 1 401 0 is_stmt 0 discriminator 1
 945 0080 3B68     		ldr	r3, [r7]	@ tmp167, UART_ConfigStruct
 946 0082 1B79     		ldrb	r3, [r3, #4]	@ zero_extendqisi2	@ D.6709, UART_ConfigStruct_19(D)->Parity
 947 0084 012B     		cmp	r3, #1	@ D.6709,
 948 0086 10D0     		beq	.L60	@,
 949              		.loc 1 401 0 discriminator 2
 950 0088 3B68     		ldr	r3, [r7]	@ tmp168, UART_ConfigStruct
 951 008a 1B79     		ldrb	r3, [r3, #4]	@ zero_extendqisi2	@ D.6709, UART_ConfigStruct_19(D)->Parity
 952 008c 022B     		cmp	r3, #2	@ D.6709,
ARM GAS  C:\Users\STUDENT\AppData\Local\Temp\ccMxouBa.s 			page 25


 953 008e 0CD0     		beq	.L60	@,
 954              		.loc 1 401 0 discriminator 3
 955 0090 3B68     		ldr	r3, [r7]	@ tmp169, UART_ConfigStruct
 956 0092 1B79     		ldrb	r3, [r3, #4]	@ zero_extendqisi2	@ D.6709, UART_ConfigStruct_19(D)->Parity
 957 0094 032B     		cmp	r3, #3	@ D.6709,
 958 0096 08D0     		beq	.L60	@,
 959              		.loc 1 401 0 discriminator 4
 960 0098 3B68     		ldr	r3, [r7]	@ tmp170, UART_ConfigStruct
 961 009a 1B79     		ldrb	r3, [r3, #4]	@ zero_extendqisi2	@ D.6709, UART_ConfigStruct_19(D)->Parity
 962 009c 042B     		cmp	r3, #4	@ D.6709,
 963 009e 04D0     		beq	.L60	@,
 964              		.loc 1 401 0 discriminator 5
 965 00a0 40F29111 		movw	r1, #401	@,
 966 00a4 8448     		ldr	r0, .L97+16	@,
 967 00a6 FFF7FEFF 		bl	check_failed	@
 968              	.L60:
 402:core/lpc17xx_uart.c **** 
 403:core/lpc17xx_uart.c **** #ifdef _UART0
 404:core/lpc17xx_uart.c **** 	if(UARTx == (LPC_UART_TypeDef*)LPC_UART0)
 969              		.loc 1 404 0 is_stmt 1
 970 00aa 7B68     		ldr	r3, [r7, #4]	@ tmp171, UARTx
 971 00ac 7E4A     		ldr	r2, .L97	@ tmp172,
 972 00ae 9342     		cmp	r3, r2	@ tmp171, tmp172
 973 00b0 03D1     		bne	.L61	@,
 405:core/lpc17xx_uart.c **** 	{
 406:core/lpc17xx_uart.c **** 		/* Set up clock and power for UART module */
 407:core/lpc17xx_uart.c **** 		CLKPWR_ConfigPPWR (CLKPWR_PCONP_PCUART0, ENABLE);
 974              		.loc 1 407 0
 975 00b2 0121     		movs	r1, #1	@,
 976 00b4 0820     		movs	r0, #8	@,
 977 00b6 FFF7FEFF 		bl	CLKPWR_ConfigPPWR	@
 978              	.L61:
 408:core/lpc17xx_uart.c **** 	}
 409:core/lpc17xx_uart.c **** #endif
 410:core/lpc17xx_uart.c **** 
 411:core/lpc17xx_uart.c **** #ifdef _UART1
 412:core/lpc17xx_uart.c **** 	if(((LPC_UART1_TypeDef *)UARTx) == LPC_UART1)
 979              		.loc 1 412 0
 980 00ba 7B68     		ldr	r3, [r7, #4]	@ tmp173, UARTx
 981 00bc 7B4A     		ldr	r2, .L97+4	@ tmp174,
 982 00be 9342     		cmp	r3, r2	@ tmp173, tmp174
 983 00c0 03D1     		bne	.L62	@,
 413:core/lpc17xx_uart.c **** 	{
 414:core/lpc17xx_uart.c **** 		/* Set up clock and power for UART module */
 415:core/lpc17xx_uart.c **** 		CLKPWR_ConfigPPWR (CLKPWR_PCONP_PCUART1, ENABLE);
 984              		.loc 1 415 0
 985 00c2 0121     		movs	r1, #1	@,
 986 00c4 1020     		movs	r0, #16	@,
 987 00c6 FFF7FEFF 		bl	CLKPWR_ConfigPPWR	@
 988              	.L62:
 416:core/lpc17xx_uart.c **** 	}
 417:core/lpc17xx_uart.c **** #endif
 418:core/lpc17xx_uart.c **** 
 419:core/lpc17xx_uart.c **** #ifdef _UART2
 420:core/lpc17xx_uart.c **** 	if(UARTx == LPC_UART2)
 989              		.loc 1 420 0
 990 00ca 7B68     		ldr	r3, [r7, #4]	@ tmp175, UARTx
ARM GAS  C:\Users\STUDENT\AppData\Local\Temp\ccMxouBa.s 			page 26


 991 00cc 784A     		ldr	r2, .L97+8	@ tmp176,
 992 00ce 9342     		cmp	r3, r2	@ tmp175, tmp176
 993 00d0 04D1     		bne	.L63	@,
 421:core/lpc17xx_uart.c **** 	{
 422:core/lpc17xx_uart.c **** 		/* Set up clock and power for UART module */
 423:core/lpc17xx_uart.c **** 		CLKPWR_ConfigPPWR (CLKPWR_PCONP_PCUART2, ENABLE);
 994              		.loc 1 423 0
 995 00d2 0121     		movs	r1, #1	@,
 996 00d4 4FF08070 		mov	r0, #16777216	@,
 997 00d8 FFF7FEFF 		bl	CLKPWR_ConfigPPWR	@
 998              	.L63:
 424:core/lpc17xx_uart.c **** 	}
 425:core/lpc17xx_uart.c **** #endif
 426:core/lpc17xx_uart.c **** 
 427:core/lpc17xx_uart.c **** #ifdef _UART3
 428:core/lpc17xx_uart.c **** 	if(UARTx == LPC_UART3)
 999              		.loc 1 428 0
 1000 00dc 7B68     		ldr	r3, [r7, #4]	@ tmp177, UARTx
 1001 00de 754A     		ldr	r2, .L97+12	@ tmp178,
 1002 00e0 9342     		cmp	r3, r2	@ tmp177, tmp178
 1003 00e2 04D1     		bne	.L64	@,
 429:core/lpc17xx_uart.c **** 	{
 430:core/lpc17xx_uart.c **** 		/* Set up clock and power for UART module */
 431:core/lpc17xx_uart.c **** 		CLKPWR_ConfigPPWR (CLKPWR_PCONP_PCUART3, ENABLE);
 1004              		.loc 1 431 0
 1005 00e4 0121     		movs	r1, #1	@,
 1006 00e6 4FF00070 		mov	r0, #33554432	@,
 1007 00ea FFF7FEFF 		bl	CLKPWR_ConfigPPWR	@
 1008              	.L64:
 432:core/lpc17xx_uart.c **** 	}
 433:core/lpc17xx_uart.c **** #endif
 434:core/lpc17xx_uart.c **** 
 435:core/lpc17xx_uart.c **** 	if (((LPC_UART1_TypeDef *)UARTx) == LPC_UART1)
 1009              		.loc 1 435 0
 1010 00ee 7B68     		ldr	r3, [r7, #4]	@ tmp179, UARTx
 1011 00f0 6E4A     		ldr	r2, .L97+4	@ tmp180,
 1012 00f2 9342     		cmp	r3, r2	@ tmp179, tmp180
 1013 00f4 42D1     		bne	.L65	@,
 436:core/lpc17xx_uart.c **** 	{
 437:core/lpc17xx_uart.c **** 		/* FIFOs are empty */
 438:core/lpc17xx_uart.c **** 		((LPC_UART1_TypeDef *)UARTx)->/*IIFCR.*/FCR = ( UART_FCR_FIFO_EN \
 1014              		.loc 1 438 0
 1015 00f6 7B68     		ldr	r3, [r7, #4]	@ tmp181, UARTx
 1016 00f8 0722     		movs	r2, #7	@ tmp182,
 1017 00fa 1A72     		strb	r2, [r3, #8]	@ tmp183, MEM[(struct LPC_UART1_TypeDef *)UARTx_16(D)].D.4879.FCR
 439:core/lpc17xx_uart.c **** 				| UART_FCR_RX_RS | UART_FCR_TX_RS);
 440:core/lpc17xx_uart.c **** 		// Disable FIFO
 441:core/lpc17xx_uart.c **** 		((LPC_UART1_TypeDef *)UARTx)->/*IIFCR.*/FCR = 0;
 1018              		.loc 1 441 0
 1019 00fc 7B68     		ldr	r3, [r7, #4]	@ tmp184, UARTx
 1020 00fe 0022     		movs	r2, #0	@ tmp185,
 1021 0100 1A72     		strb	r2, [r3, #8]	@ tmp186, MEM[(struct LPC_UART1_TypeDef *)UARTx_16(D)].D.4879.FCR
 442:core/lpc17xx_uart.c **** 
 443:core/lpc17xx_uart.c **** 		// Dummy reading
 444:core/lpc17xx_uart.c **** 		while (((LPC_UART1_TypeDef *)UARTx)->LSR & UART_LSR_RDR)
 1022              		.loc 1 444 0
 1023 0102 03E0     		b	.L66	@
ARM GAS  C:\Users\STUDENT\AppData\Local\Temp\ccMxouBa.s 			page 27


 1024              	.L67:
 445:core/lpc17xx_uart.c **** 		{
 446:core/lpc17xx_uart.c **** 			tmp = ((LPC_UART1_TypeDef *)UARTx)->/*RBTHDLR.*/RBR;
 1025              		.loc 1 446 0
 1026 0104 7B68     		ldr	r3, [r7, #4]	@ tmp187, UARTx
 1027 0106 1B78     		ldrb	r3, [r3]	@ tmp188, MEM[(struct LPC_UART1_TypeDef *)UARTx_16(D)].D.4871.RBR
 1028 0108 DBB2     		uxtb	r3, r3	@ D.6710, tmp188
 1029 010a FB60     		str	r3, [r7, #12]	@ D.6710, tmp
 1030              	.L66:
 444:core/lpc17xx_uart.c **** 		{
 1031              		.loc 1 444 0
 1032 010c 7B68     		ldr	r3, [r7, #4]	@ tmp189, UARTx
 1033 010e 1B7D     		ldrb	r3, [r3, #20]	@ tmp191, MEM[(struct LPC_UART1_TypeDef *)UARTx_16(D)].LSR
 1034 0110 DBB2     		uxtb	r3, r3	@ D.6710, tmp191
 1035 0112 03F00103 		and	r3, r3, #1	@ D.6711, D.6711,
 1036 0116 002B     		cmp	r3, #0	@ D.6711,
 1037 0118 F4D1     		bne	.L67	@,
 447:core/lpc17xx_uart.c **** 		}
 448:core/lpc17xx_uart.c **** 
 449:core/lpc17xx_uart.c **** 		((LPC_UART1_TypeDef *)UARTx)->TER = UART_TER_TXEN;
 1038              		.loc 1 449 0
 1039 011a 7B68     		ldr	r3, [r7, #4]	@ tmp192, UARTx
 1040 011c 8022     		movs	r2, #128	@ tmp193,
 1041 011e 83F83020 		strb	r2, [r3, #48]	@ tmp194, MEM[(struct LPC_UART1_TypeDef *)UARTx_16(D)].TER
 450:core/lpc17xx_uart.c **** 		// Wait for current transmit complete
 451:core/lpc17xx_uart.c **** 		while (!(((LPC_UART1_TypeDef *)UARTx)->LSR & UART_LSR_THRE));
 1042              		.loc 1 451 0
 1043 0122 00BF     		nop
 1044              	.L68:
 1045              		.loc 1 451 0 is_stmt 0 discriminator 1
 1046 0124 7B68     		ldr	r3, [r7, #4]	@ tmp195, UARTx
 1047 0126 1B7D     		ldrb	r3, [r3, #20]	@ tmp197, MEM[(struct LPC_UART1_TypeDef *)UARTx_16(D)].LSR
 1048 0128 DBB2     		uxtb	r3, r3	@ D.6710, tmp197
 1049 012a 03F02003 		and	r3, r3, #32	@ D.6711, D.6711,
 1050 012e 002B     		cmp	r3, #0	@ D.6711,
 1051 0130 F8D0     		beq	.L68	@,
 452:core/lpc17xx_uart.c **** 		// Disable Tx
 453:core/lpc17xx_uart.c **** 		((LPC_UART1_TypeDef *)UARTx)->TER = 0;
 1052              		.loc 1 453 0 is_stmt 1
 1053 0132 7B68     		ldr	r3, [r7, #4]	@ tmp198, UARTx
 1054 0134 0022     		movs	r2, #0	@ tmp199,
 1055 0136 83F83020 		strb	r2, [r3, #48]	@ tmp200, MEM[(struct LPC_UART1_TypeDef *)UARTx_16(D)].TER
 454:core/lpc17xx_uart.c **** 
 455:core/lpc17xx_uart.c **** 		// Disable interrupt
 456:core/lpc17xx_uart.c **** 		((LPC_UART1_TypeDef *)UARTx)->/*DLIER.*/IER = 0;
 1056              		.loc 1 456 0
 1057 013a 7B68     		ldr	r3, [r7, #4]	@ tmp201, UARTx
 1058 013c 0022     		movs	r2, #0	@ tmp202,
 1059 013e 5A60     		str	r2, [r3, #4]	@ tmp202, MEM[(struct LPC_UART1_TypeDef *)UARTx_16(D)].D.4875.IER
 457:core/lpc17xx_uart.c **** 		// Set LCR to default state
 458:core/lpc17xx_uart.c **** 		((LPC_UART1_TypeDef *)UARTx)->LCR = 0;
 1060              		.loc 1 458 0
 1061 0140 7B68     		ldr	r3, [r7, #4]	@ tmp203, UARTx
 1062 0142 0022     		movs	r2, #0	@ tmp204,
 1063 0144 1A73     		strb	r2, [r3, #12]	@ tmp205, MEM[(struct LPC_UART1_TypeDef *)UARTx_16(D)].LCR
 459:core/lpc17xx_uart.c **** 		// Set ACR to default state
 460:core/lpc17xx_uart.c **** 		((LPC_UART1_TypeDef *)UARTx)->ACR = 0;
ARM GAS  C:\Users\STUDENT\AppData\Local\Temp\ccMxouBa.s 			page 28


 1064              		.loc 1 460 0
 1065 0146 7B68     		ldr	r3, [r7, #4]	@ tmp206, UARTx
 1066 0148 0022     		movs	r2, #0	@ tmp207,
 1067 014a 1A62     		str	r2, [r3, #32]	@ tmp207, MEM[(struct LPC_UART1_TypeDef *)UARTx_16(D)].ACR
 461:core/lpc17xx_uart.c **** 		// Set Modem Control to default state
 462:core/lpc17xx_uart.c **** 		((LPC_UART1_TypeDef *)UARTx)->MCR = 0;
 1068              		.loc 1 462 0
 1069 014c 7B68     		ldr	r3, [r7, #4]	@ tmp208, UARTx
 1070 014e 0022     		movs	r2, #0	@ tmp209,
 1071 0150 1A74     		strb	r2, [r3, #16]	@ tmp210, MEM[(struct LPC_UART1_TypeDef *)UARTx_16(D)].MCR
 463:core/lpc17xx_uart.c **** 		// Set RS485 control to default state
 464:core/lpc17xx_uart.c **** 		((LPC_UART1_TypeDef *)UARTx)->RS485CTRL = 0;
 1072              		.loc 1 464 0
 1073 0152 7B68     		ldr	r3, [r7, #4]	@ tmp211, UARTx
 1074 0154 0022     		movs	r2, #0	@ tmp212,
 1075 0156 83F84C20 		strb	r2, [r3, #76]	@ tmp213, MEM[(struct LPC_UART1_TypeDef *)UARTx_16(D)].RS485CTRL
 465:core/lpc17xx_uart.c **** 		// Set RS485 delay timer to default state
 466:core/lpc17xx_uart.c **** 		((LPC_UART1_TypeDef *)UARTx)->RS485DLY = 0;
 1076              		.loc 1 466 0
 1077 015a 7B68     		ldr	r3, [r7, #4]	@ tmp214, UARTx
 1078 015c 0022     		movs	r2, #0	@ tmp215,
 1079 015e 83F85420 		strb	r2, [r3, #84]	@ tmp216, MEM[(struct LPC_UART1_TypeDef *)UARTx_16(D)].RS485DLY
 467:core/lpc17xx_uart.c **** 		// Set RS485 addr match to default state
 468:core/lpc17xx_uart.c **** 		((LPC_UART1_TypeDef *)UARTx)->ADRMATCH = 0;
 1080              		.loc 1 468 0
 1081 0162 7B68     		ldr	r3, [r7, #4]	@ tmp217, UARTx
 1082 0164 0022     		movs	r2, #0	@ tmp218,
 1083 0166 83F85020 		strb	r2, [r3, #80]	@ tmp219, MEM[(struct LPC_UART1_TypeDef *)UARTx_16(D)].ADRMATCH
 469:core/lpc17xx_uart.c **** 		//Dummy Reading to Clear Status
 470:core/lpc17xx_uart.c **** 		tmp = ((LPC_UART1_TypeDef *)UARTx)->MSR;
 1084              		.loc 1 470 0
 1085 016a 7B68     		ldr	r3, [r7, #4]	@ tmp220, UARTx
 1086 016c 1B7E     		ldrb	r3, [r3, #24]	@ tmp222, MEM[(struct LPC_UART1_TypeDef *)UARTx_16(D)].MSR
 1087 016e DBB2     		uxtb	r3, r3	@ D.6710, tmp222
 1088 0170 FB60     		str	r3, [r7, #12]	@ D.6710, tmp
 471:core/lpc17xx_uart.c **** 		tmp = ((LPC_UART1_TypeDef *)UARTx)->LSR;
 1089              		.loc 1 471 0
 1090 0172 7B68     		ldr	r3, [r7, #4]	@ tmp223, UARTx
 1091 0174 1B7D     		ldrb	r3, [r3, #20]	@ tmp225, MEM[(struct LPC_UART1_TypeDef *)UARTx_16(D)].LSR
 1092 0176 DBB2     		uxtb	r3, r3	@ D.6710, tmp225
 1093 0178 FB60     		str	r3, [r7, #12]	@ D.6710, tmp
 1094 017a 2EE0     		b	.L69	@
 1095              	.L65:
 472:core/lpc17xx_uart.c **** 	}
 473:core/lpc17xx_uart.c **** 	else
 474:core/lpc17xx_uart.c **** 	{
 475:core/lpc17xx_uart.c **** 		/* FIFOs are empty */
 476:core/lpc17xx_uart.c **** 		UARTx->/*IIFCR.*/FCR = ( UART_FCR_FIFO_EN | UART_FCR_RX_RS | UART_FCR_TX_RS);
 1096              		.loc 1 476 0
 1097 017c 7B68     		ldr	r3, [r7, #4]	@ tmp226, UARTx
 1098 017e 0722     		movs	r2, #7	@ tmp227,
 1099 0180 1A72     		strb	r2, [r3, #8]	@ tmp228, UARTx_16(D)->D.4819.FCR
 477:core/lpc17xx_uart.c **** 		// Disable FIFO
 478:core/lpc17xx_uart.c **** 		UARTx->/*IIFCR.*/FCR = 0;
 1100              		.loc 1 478 0
 1101 0182 7B68     		ldr	r3, [r7, #4]	@ tmp229, UARTx
 1102 0184 0022     		movs	r2, #0	@ tmp230,
ARM GAS  C:\Users\STUDENT\AppData\Local\Temp\ccMxouBa.s 			page 29


 1103 0186 1A72     		strb	r2, [r3, #8]	@ tmp231, UARTx_16(D)->D.4819.FCR
 479:core/lpc17xx_uart.c **** 
 480:core/lpc17xx_uart.c **** 		// Dummy reading
 481:core/lpc17xx_uart.c **** 		while (UARTx->LSR & UART_LSR_RDR)
 1104              		.loc 1 481 0
 1105 0188 03E0     		b	.L70	@
 1106              	.L71:
 482:core/lpc17xx_uart.c **** 		{
 483:core/lpc17xx_uart.c **** 			tmp = UARTx->/*RBTHDLR.*/RBR;
 1107              		.loc 1 483 0
 1108 018a 7B68     		ldr	r3, [r7, #4]	@ tmp232, UARTx
 1109 018c 1B78     		ldrb	r3, [r3]	@ tmp233, UARTx_16(D)->D.4811.RBR
 1110 018e DBB2     		uxtb	r3, r3	@ D.6710, tmp233
 1111 0190 FB60     		str	r3, [r7, #12]	@ D.6710, tmp
 1112              	.L70:
 481:core/lpc17xx_uart.c **** 		{
 1113              		.loc 1 481 0
 1114 0192 7B68     		ldr	r3, [r7, #4]	@ tmp234, UARTx
 1115 0194 1B7D     		ldrb	r3, [r3, #20]	@ tmp236, UARTx_16(D)->LSR
 1116 0196 DBB2     		uxtb	r3, r3	@ D.6710, tmp236
 1117 0198 03F00103 		and	r3, r3, #1	@ D.6711, D.6711,
 1118 019c 002B     		cmp	r3, #0	@ D.6711,
 1119 019e F4D1     		bne	.L71	@,
 484:core/lpc17xx_uart.c **** 		}
 485:core/lpc17xx_uart.c **** 
 486:core/lpc17xx_uart.c **** 		UARTx->TER = UART_TER_TXEN;
 1120              		.loc 1 486 0
 1121 01a0 7B68     		ldr	r3, [r7, #4]	@ tmp237, UARTx
 1122 01a2 8022     		movs	r2, #128	@ tmp238,
 1123 01a4 83F83020 		strb	r2, [r3, #48]	@ tmp239, UARTx_16(D)->TER
 487:core/lpc17xx_uart.c **** 		// Wait for current transmit complete
 488:core/lpc17xx_uart.c **** 		while (!(UARTx->LSR & UART_LSR_THRE));
 1124              		.loc 1 488 0
 1125 01a8 00BF     		nop
 1126              	.L72:
 1127              		.loc 1 488 0 is_stmt 0 discriminator 1
 1128 01aa 7B68     		ldr	r3, [r7, #4]	@ tmp240, UARTx
 1129 01ac 1B7D     		ldrb	r3, [r3, #20]	@ tmp242, UARTx_16(D)->LSR
 1130 01ae DBB2     		uxtb	r3, r3	@ D.6710, tmp242
 1131 01b0 03F02003 		and	r3, r3, #32	@ D.6711, D.6711,
 1132 01b4 002B     		cmp	r3, #0	@ D.6711,
 1133 01b6 F8D0     		beq	.L72	@,
 489:core/lpc17xx_uart.c **** 		// Disable Tx
 490:core/lpc17xx_uart.c **** 		UARTx->TER = 0;
 1134              		.loc 1 490 0 is_stmt 1
 1135 01b8 7B68     		ldr	r3, [r7, #4]	@ tmp243, UARTx
 1136 01ba 0022     		movs	r2, #0	@ tmp244,
 1137 01bc 83F83020 		strb	r2, [r3, #48]	@ tmp245, UARTx_16(D)->TER
 491:core/lpc17xx_uart.c **** 
 492:core/lpc17xx_uart.c **** 		// Disable interrupt
 493:core/lpc17xx_uart.c **** 		UARTx->/*DLIER.*/IER = 0;
 1138              		.loc 1 493 0
 1139 01c0 7B68     		ldr	r3, [r7, #4]	@ tmp246, UARTx
 1140 01c2 0022     		movs	r2, #0	@ tmp247,
 1141 01c4 5A60     		str	r2, [r3, #4]	@ tmp247, UARTx_16(D)->D.4815.IER
 494:core/lpc17xx_uart.c **** 		// Set LCR to default state
 495:core/lpc17xx_uart.c **** 		UARTx->LCR = 0;
ARM GAS  C:\Users\STUDENT\AppData\Local\Temp\ccMxouBa.s 			page 30


 1142              		.loc 1 495 0
 1143 01c6 7B68     		ldr	r3, [r7, #4]	@ tmp248, UARTx
 1144 01c8 0022     		movs	r2, #0	@ tmp249,
 1145 01ca 1A73     		strb	r2, [r3, #12]	@ tmp250, UARTx_16(D)->LCR
 496:core/lpc17xx_uart.c **** 		// Set ACR to default state
 497:core/lpc17xx_uart.c **** 		UARTx->ACR = 0;
 1146              		.loc 1 497 0
 1147 01cc 7B68     		ldr	r3, [r7, #4]	@ tmp251, UARTx
 1148 01ce 0022     		movs	r2, #0	@ tmp252,
 1149 01d0 1A62     		str	r2, [r3, #32]	@ tmp252, UARTx_16(D)->ACR
 498:core/lpc17xx_uart.c **** 		// Dummy reading
 499:core/lpc17xx_uart.c **** 		tmp = UARTx->LSR;
 1150              		.loc 1 499 0
 1151 01d2 7B68     		ldr	r3, [r7, #4]	@ tmp253, UARTx
 1152 01d4 1B7D     		ldrb	r3, [r3, #20]	@ tmp255, UARTx_16(D)->LSR
 1153 01d6 DBB2     		uxtb	r3, r3	@ D.6710, tmp255
 1154 01d8 FB60     		str	r3, [r7, #12]	@ D.6710, tmp
 1155              	.L69:
 500:core/lpc17xx_uart.c **** 	}
 501:core/lpc17xx_uart.c **** 
 502:core/lpc17xx_uart.c **** 	if (UARTx == LPC_UART3)
 1156              		.loc 1 502 0
 1157 01da 7B68     		ldr	r3, [r7, #4]	@ tmp256, UARTx
 1158 01dc 354A     		ldr	r2, .L97+12	@ tmp257,
 1159 01de 9342     		cmp	r3, r2	@ tmp256, tmp257
 1160 01e0 03D1     		bne	.L73	@,
 503:core/lpc17xx_uart.c **** 	{
 504:core/lpc17xx_uart.c **** 		// Set IrDA to default state
 505:core/lpc17xx_uart.c **** 		UARTx->ICR = 0;
 1161              		.loc 1 505 0
 1162 01e2 7B68     		ldr	r3, [r7, #4]	@ tmp258, UARTx
 1163 01e4 0022     		movs	r2, #0	@ tmp259,
 1164 01e6 83F82420 		strb	r2, [r3, #36]	@ tmp260, UARTx_16(D)->ICR
 1165              	.L73:
 506:core/lpc17xx_uart.c **** 	}
 507:core/lpc17xx_uart.c **** 
 508:core/lpc17xx_uart.c **** 	// Set Line Control register ----------------------------
 509:core/lpc17xx_uart.c **** 
 510:core/lpc17xx_uart.c **** 	uart_set_divisors(UARTx, (UART_ConfigStruct->Baud_rate));
 1166              		.loc 1 510 0
 1167 01ea 3B68     		ldr	r3, [r7]	@ tmp261, UART_ConfigStruct
 1168 01ec 1B68     		ldr	r3, [r3]	@ D.6712, UART_ConfigStruct_19(D)->Baud_rate
 1169 01ee 1946     		mov	r1, r3	@, D.6712
 1170 01f0 7868     		ldr	r0, [r7, #4]	@, UARTx
 1171 01f2 FFF7FEFF 		bl	uart_set_divisors	@
 511:core/lpc17xx_uart.c **** 
 512:core/lpc17xx_uart.c **** 	if (((LPC_UART1_TypeDef *)UARTx) == LPC_UART1)
 1172              		.loc 1 512 0
 1173 01f6 7B68     		ldr	r3, [r7, #4]	@ tmp262, UARTx
 1174 01f8 2C4A     		ldr	r2, .L97+4	@ tmp263,
 1175 01fa 9342     		cmp	r3, r2	@ tmp262, tmp263
 1176 01fc 06D1     		bne	.L74	@,
 513:core/lpc17xx_uart.c **** 	{
 514:core/lpc17xx_uart.c **** 		tmp = (((LPC_UART1_TypeDef *)UARTx)->LCR & (UART_LCR_DLAB_EN | UART_LCR_BREAK_EN)) \
 1177              		.loc 1 514 0
 1178 01fe 7B68     		ldr	r3, [r7, #4]	@ tmp264, UARTx
 1179 0200 1B7B     		ldrb	r3, [r3, #12]	@ tmp266, MEM[(struct LPC_UART1_TypeDef *)UARTx_16(D)].LCR
ARM GAS  C:\Users\STUDENT\AppData\Local\Temp\ccMxouBa.s 			page 31


 1180 0202 DBB2     		uxtb	r3, r3	@ D.6710, tmp266
 1181 0204 03F0C003 		and	r3, r3, #192	@ tmp267, D.6712,
 1182 0208 FB60     		str	r3, [r7, #12]	@ tmp267, tmp
 1183 020a 05E0     		b	.L75	@
 1184              	.L74:
 515:core/lpc17xx_uart.c **** 				& UART_LCR_BITMASK;
 516:core/lpc17xx_uart.c **** 	}
 517:core/lpc17xx_uart.c **** 	else
 518:core/lpc17xx_uart.c **** 	{
 519:core/lpc17xx_uart.c **** 		tmp = (UARTx->LCR & (UART_LCR_DLAB_EN | UART_LCR_BREAK_EN)) & UART_LCR_BITMASK;
 1185              		.loc 1 519 0
 1186 020c 7B68     		ldr	r3, [r7, #4]	@ tmp268, UARTx
 1187 020e 1B7B     		ldrb	r3, [r3, #12]	@ tmp270, UARTx_16(D)->LCR
 1188 0210 DBB2     		uxtb	r3, r3	@ D.6710, tmp270
 1189 0212 03F0C003 		and	r3, r3, #192	@ tmp271, D.6712,
 1190 0216 FB60     		str	r3, [r7, #12]	@ tmp271, tmp
 1191              	.L75:
 520:core/lpc17xx_uart.c **** 	}
 521:core/lpc17xx_uart.c **** 
 522:core/lpc17xx_uart.c **** 	switch (UART_ConfigStruct->Databits){
 1192              		.loc 1 522 0
 1193 0218 3B68     		ldr	r3, [r7]	@ tmp272, UART_ConfigStruct
 1194 021a 5B79     		ldrb	r3, [r3, #5]	@ zero_extendqisi2	@ D.6707, UART_ConfigStruct_19(D)->Databits
 1195 021c 012B     		cmp	r3, #1	@ D.6711,
 1196 021e 04D0     		beq	.L77	@,
 1197 0220 022B     		cmp	r3, #2	@ D.6711,
 1198 0222 07D0     		beq	.L78	@,
 1199 0224 002B     		cmp	r3, #0	@ D.6711,
 1200 0226 0FD0     		beq	.L94	@,
 1201 0228 09E0     		b	.L93	@
 1202              	.L77:
 523:core/lpc17xx_uart.c **** 	case UART_DATABIT_5:
 524:core/lpc17xx_uart.c **** 		tmp |= UART_LCR_WLEN5;
 525:core/lpc17xx_uart.c **** 		break;
 526:core/lpc17xx_uart.c **** 	case UART_DATABIT_6:
 527:core/lpc17xx_uart.c **** 		tmp |= UART_LCR_WLEN6;
 1203              		.loc 1 527 0
 1204 022a FB68     		ldr	r3, [r7, #12]	@ tmp274, tmp
 1205 022c 43F00103 		orr	r3, r3, #1	@ tmp273, tmp274,
 1206 0230 FB60     		str	r3, [r7, #12]	@ tmp273, tmp
 528:core/lpc17xx_uart.c **** 		break;
 1207              		.loc 1 528 0
 1208 0232 0AE0     		b	.L80	@
 1209              	.L78:
 529:core/lpc17xx_uart.c **** 	case UART_DATABIT_7:
 530:core/lpc17xx_uart.c **** 		tmp |= UART_LCR_WLEN7;
 1210              		.loc 1 530 0
 1211 0234 FB68     		ldr	r3, [r7, #12]	@ tmp276, tmp
 1212 0236 43F00203 		orr	r3, r3, #2	@ tmp275, tmp276,
 1213 023a FB60     		str	r3, [r7, #12]	@ tmp275, tmp
 531:core/lpc17xx_uart.c **** 		break;
 1214              		.loc 1 531 0
 1215 023c 05E0     		b	.L80	@
 1216              	.L93:
 532:core/lpc17xx_uart.c **** 	case UART_DATABIT_8:
 533:core/lpc17xx_uart.c **** 	default:
 534:core/lpc17xx_uart.c **** 		tmp |= UART_LCR_WLEN8;
ARM GAS  C:\Users\STUDENT\AppData\Local\Temp\ccMxouBa.s 			page 32


 1217              		.loc 1 534 0
 1218 023e FB68     		ldr	r3, [r7, #12]	@ tmp278, tmp
 1219 0240 43F00303 		orr	r3, r3, #3	@ tmp277, tmp278,
 1220 0244 FB60     		str	r3, [r7, #12]	@ tmp277, tmp
 535:core/lpc17xx_uart.c **** 		break;
 1221              		.loc 1 535 0
 1222 0246 00E0     		b	.L80	@
 1223              	.L94:
 525:core/lpc17xx_uart.c **** 	case UART_DATABIT_6:
 1224              		.loc 1 525 0
 1225 0248 00BF     		nop
 1226              	.L80:
 536:core/lpc17xx_uart.c **** 	}
 537:core/lpc17xx_uart.c **** 
 538:core/lpc17xx_uart.c **** 	if (UART_ConfigStruct->Parity == UART_PARITY_NONE)
 1227              		.loc 1 538 0
 1228 024a 3B68     		ldr	r3, [r7]	@ tmp279, UART_ConfigStruct
 1229 024c 1B79     		ldrb	r3, [r3, #4]	@ zero_extendqisi2	@ D.6709, UART_ConfigStruct_19(D)->Parity
 1230 024e 002B     		cmp	r3, #0	@ D.6709,
 1231 0250 24D0     		beq	.L81	@,
 539:core/lpc17xx_uart.c **** 	{
 540:core/lpc17xx_uart.c **** 		// Do nothing...
 541:core/lpc17xx_uart.c **** 	}
 542:core/lpc17xx_uart.c **** 	else
 543:core/lpc17xx_uart.c **** 	{
 544:core/lpc17xx_uart.c **** 		tmp |= UART_LCR_PARITY_EN;
 1232              		.loc 1 544 0
 1233 0252 FB68     		ldr	r3, [r7, #12]	@ tmp281, tmp
 1234 0254 43F00803 		orr	r3, r3, #8	@ tmp280, tmp281,
 1235 0258 FB60     		str	r3, [r7, #12]	@ tmp280, tmp
 545:core/lpc17xx_uart.c **** 		switch (UART_ConfigStruct->Parity)
 1236              		.loc 1 545 0
 1237 025a 3B68     		ldr	r3, [r7]	@ tmp282, UART_ConfigStruct
 1238 025c 1B79     		ldrb	r3, [r3, #4]	@ zero_extendqisi2	@ D.6709, UART_ConfigStruct_19(D)->Parity
 1239 025e 013B     		subs	r3, r3, #1	@ tmp283, D.6711,
 1240 0260 032B     		cmp	r3, #3	@ tmp283,
 1241 0262 1AD8     		bhi	.L95	@
 1242 0264 01A2     		adr	r2, .L84	@ tmp301,
 1243 0266 52F823F0 		ldr	pc, [r2, r3, lsl #2]	@ tmp301, tmp283
 1244 026a 00BF     		.p2align 2
 1245              	.L84:
 1246 026c 9B020000 		.word	.L95+1
 1247 0270 7D020000 		.word	.L85+1
 1248 0274 87020000 		.word	.L86+1
 1249 0278 91020000 		.word	.L87+1
 1250              		.p2align 1
 1251              	.L85:
 546:core/lpc17xx_uart.c **** 		{
 547:core/lpc17xx_uart.c **** 		case UART_PARITY_ODD:
 548:core/lpc17xx_uart.c **** 			tmp |= UART_LCR_PARITY_ODD;
 549:core/lpc17xx_uart.c **** 			break;
 550:core/lpc17xx_uart.c **** 
 551:core/lpc17xx_uart.c **** 		case UART_PARITY_EVEN:
 552:core/lpc17xx_uart.c **** 			tmp |= UART_LCR_PARITY_EVEN;
 1252              		.loc 1 552 0
 1253 027c FB68     		ldr	r3, [r7, #12]	@ tmp285, tmp
 1254 027e 43F01003 		orr	r3, r3, #16	@ tmp284, tmp285,
ARM GAS  C:\Users\STUDENT\AppData\Local\Temp\ccMxouBa.s 			page 33


 1255 0282 FB60     		str	r3, [r7, #12]	@ tmp284, tmp
 553:core/lpc17xx_uart.c **** 			break;
 1256              		.loc 1 553 0
 1257 0284 0AE0     		b	.L81	@
 1258              	.L86:
 554:core/lpc17xx_uart.c **** 
 555:core/lpc17xx_uart.c **** 		case UART_PARITY_SP_1:
 556:core/lpc17xx_uart.c **** 			tmp |= UART_LCR_PARITY_F_1;
 1259              		.loc 1 556 0
 1260 0286 FB68     		ldr	r3, [r7, #12]	@ tmp287, tmp
 1261 0288 43F02003 		orr	r3, r3, #32	@ tmp286, tmp287,
 1262 028c FB60     		str	r3, [r7, #12]	@ tmp286, tmp
 557:core/lpc17xx_uart.c **** 			break;
 1263              		.loc 1 557 0
 1264 028e 05E0     		b	.L81	@
 1265              	.L87:
 558:core/lpc17xx_uart.c **** 
 559:core/lpc17xx_uart.c **** 		case UART_PARITY_SP_0:
 560:core/lpc17xx_uart.c **** 			tmp |= UART_LCR_PARITY_F_0;
 1266              		.loc 1 560 0
 1267 0290 FB68     		ldr	r3, [r7, #12]	@ tmp289, tmp
 1268 0292 43F03003 		orr	r3, r3, #48	@ tmp288, tmp289,
 1269 0296 FB60     		str	r3, [r7, #12]	@ tmp288, tmp
 561:core/lpc17xx_uart.c **** 			break;
 1270              		.loc 1 561 0
 1271 0298 00E0     		b	.L81	@
 1272              	.L95:
 562:core/lpc17xx_uart.c **** 		default:
 563:core/lpc17xx_uart.c **** 			break;
 1273              		.loc 1 563 0
 1274 029a 00BF     		nop
 1275              	.L81:
 564:core/lpc17xx_uart.c **** 		}
 565:core/lpc17xx_uart.c **** 	}
 566:core/lpc17xx_uart.c **** 
 567:core/lpc17xx_uart.c **** 	switch (UART_ConfigStruct->Stopbits){
 1276              		.loc 1 567 0
 1277 029c 3B68     		ldr	r3, [r7]	@ tmp290, UART_ConfigStruct
 1278 029e 9B79     		ldrb	r3, [r3, #6]	@ zero_extendqisi2	@ D.6708, UART_ConfigStruct_19(D)->Stopbits
 1279 02a0 012B     		cmp	r3, #1	@ D.6711,
 1280 02a2 0BD0     		beq	.L89	@,
 568:core/lpc17xx_uart.c **** 	case UART_STOPBIT_2:
 569:core/lpc17xx_uart.c **** 		tmp |= UART_LCR_STOPBIT_SEL;
 570:core/lpc17xx_uart.c **** 		break;
 571:core/lpc17xx_uart.c **** 	case UART_STOPBIT_1:
 572:core/lpc17xx_uart.c **** 	default:
 573:core/lpc17xx_uart.c **** 		// Do no thing
 574:core/lpc17xx_uart.c **** 		break;
 1281              		.loc 1 574 0
 1282 02a4 0FE0     		b	.L90	@
 1283              	.L98:
 1284 02a6 00BF     		.align	2
 1285              	.L97:
 1286 02a8 00C00040 		.word	1073790976
 1287 02ac 00000140 		.word	1073807360
 1288 02b0 00800940 		.word	1074364416
 1289 02b4 00C00940 		.word	1074380800
ARM GAS  C:\Users\STUDENT\AppData\Local\Temp\ccMxouBa.s 			page 34


 1290 02b8 00000000 		.word	.LC0
 1291              	.L89:
 569:core/lpc17xx_uart.c **** 		break;
 1292              		.loc 1 569 0
 1293 02bc FB68     		ldr	r3, [r7, #12]	@ tmp292, tmp
 1294 02be 43F00403 		orr	r3, r3, #4	@ tmp291, tmp292,
 1295 02c2 FB60     		str	r3, [r7, #12]	@ tmp291, tmp
 570:core/lpc17xx_uart.c **** 	case UART_STOPBIT_1:
 1296              		.loc 1 570 0
 1297 02c4 00BF     		nop
 1298              	.L90:
 575:core/lpc17xx_uart.c **** 	}
 576:core/lpc17xx_uart.c **** 
 577:core/lpc17xx_uart.c **** 
 578:core/lpc17xx_uart.c **** 	// Write back to LCR, configure FIFO and Disable Tx
 579:core/lpc17xx_uart.c **** 	if (((LPC_UART1_TypeDef *)UARTx) ==  LPC_UART1)
 1299              		.loc 1 579 0
 1300 02c6 7B68     		ldr	r3, [r7, #4]	@ tmp293, UARTx
 1301 02c8 074A     		ldr	r2, .L99	@ tmp294,
 1302 02ca 9342     		cmp	r3, r2	@ tmp293, tmp294
 1303 02cc 04D1     		bne	.L91	@,
 580:core/lpc17xx_uart.c **** 	{
 581:core/lpc17xx_uart.c **** 		((LPC_UART1_TypeDef *)UARTx)->LCR = (uint8_t)(tmp & UART_LCR_BITMASK);
 1304              		.loc 1 581 0
 1305 02ce FB68     		ldr	r3, [r7, #12]	@ tmp295, tmp
 1306 02d0 DAB2     		uxtb	r2, r3	@ D.6710, tmp295
 1307 02d2 7B68     		ldr	r3, [r7, #4]	@ tmp296, UARTx
 1308 02d4 1A73     		strb	r2, [r3, #12]	@ tmp297, MEM[(struct LPC_UART1_TypeDef *)UARTx_16(D)].LCR
 582:core/lpc17xx_uart.c **** 	}
 583:core/lpc17xx_uart.c **** 	else
 584:core/lpc17xx_uart.c **** 	{
 585:core/lpc17xx_uart.c **** 		UARTx->LCR = (uint8_t)(tmp & UART_LCR_BITMASK);
 586:core/lpc17xx_uart.c **** 	}
 587:core/lpc17xx_uart.c **** }
 1309              		.loc 1 587 0
 1310 02d6 03E0     		b	.L96	@
 1311              	.L91:
 585:core/lpc17xx_uart.c **** 	}
 1312              		.loc 1 585 0
 1313 02d8 FB68     		ldr	r3, [r7, #12]	@ tmp298, tmp
 1314 02da DAB2     		uxtb	r2, r3	@ D.6710, tmp298
 1315 02dc 7B68     		ldr	r3, [r7, #4]	@ tmp299, UARTx
 1316 02de 1A73     		strb	r2, [r3, #12]	@ tmp300, UARTx_16(D)->LCR
 1317              	.L96:
 1318              		.loc 1 587 0
 1319 02e0 00BF     		nop
 1320 02e2 1037     		adds	r7, r7, #16	@,,
 1321              		.cfi_def_cfa_offset 8
 1322 02e4 BD46     		mov	sp, r7	@,
 1323              		.cfi_def_cfa_register 13
 1324              		@ sp needed	@
 1325 02e6 80BD     		pop	{r7, pc}	@
 1326              	.L100:
 1327              		.align	2
 1328              	.L99:
 1329 02e8 00000140 		.word	1073807360
 1330              		.cfi_endproc
ARM GAS  C:\Users\STUDENT\AppData\Local\Temp\ccMxouBa.s 			page 35


 1331              	.LFE59:
 1332              		.size	UART_Init, .-UART_Init
 1333              		.section	.text.UART_ConfigStructInit,"ax",%progbits
 1334              		.align	2
 1335              		.global	UART_ConfigStructInit
 1336              		.thumb
 1337              		.thumb_func
 1338              		.type	UART_ConfigStructInit, %function
 1339              	UART_ConfigStructInit:
 1340              	.LFB60:
 588:core/lpc17xx_uart.c **** 
 589:core/lpc17xx_uart.c **** 
 590:core/lpc17xx_uart.c **** /*****************************************************************************//**
 591:core/lpc17xx_uart.c **** * @brief		Fills each UART_InitStruct member with its default value:
 592:core/lpc17xx_uart.c **** * 				9600 bps
 593:core/lpc17xx_uart.c **** * 				8-bit data
 594:core/lpc17xx_uart.c **** * 				1 Stopbit
 595:core/lpc17xx_uart.c **** * 				None Parity
 596:core/lpc17xx_uart.c **** * @param[in]	UART_InitStruct Pointer to a UART_CFG_Type structure
 597:core/lpc17xx_uart.c **** *                    which will be initialized.
 598:core/lpc17xx_uart.c **** * @return		None
 599:core/lpc17xx_uart.c **** *******************************************************************************/
 600:core/lpc17xx_uart.c **** void UART_ConfigStructInit(UART_CFG_Type *UART_InitStruct)
 601:core/lpc17xx_uart.c **** {
 1341              		.loc 1 601 0
 1342              		.cfi_startproc
 1343              		@ args = 0, pretend = 0, frame = 8
 1344              		@ frame_needed = 1, uses_anonymous_args = 0
 1345              		@ link register save eliminated.
 1346 0000 80B4     		push	{r7}	@
 1347              		.cfi_def_cfa_offset 4
 1348              		.cfi_offset 7, -4
 1349 0002 83B0     		sub	sp, sp, #12	@,,
 1350              		.cfi_def_cfa_offset 16
 1351 0004 00AF     		add	r7, sp, #0	@,,
 1352              		.cfi_def_cfa_register 7
 1353 0006 7860     		str	r0, [r7, #4]	@ UART_InitStruct, UART_InitStruct
 602:core/lpc17xx_uart.c **** 	UART_InitStruct->Baud_rate = 9600;
 1354              		.loc 1 602 0
 1355 0008 7B68     		ldr	r3, [r7, #4]	@ tmp110, UART_InitStruct
 1356 000a 4FF41652 		mov	r2, #9600	@ tmp111,
 1357 000e 1A60     		str	r2, [r3]	@ tmp111, UART_InitStruct_2(D)->Baud_rate
 603:core/lpc17xx_uart.c **** 	UART_InitStruct->Databits = UART_DATABIT_8;
 1358              		.loc 1 603 0
 1359 0010 7B68     		ldr	r3, [r7, #4]	@ tmp112, UART_InitStruct
 1360 0012 0322     		movs	r2, #3	@ tmp113,
 1361 0014 5A71     		strb	r2, [r3, #5]	@ tmp114, UART_InitStruct_2(D)->Databits
 604:core/lpc17xx_uart.c **** 	UART_InitStruct->Parity = UART_PARITY_NONE;
 1362              		.loc 1 604 0
 1363 0016 7B68     		ldr	r3, [r7, #4]	@ tmp115, UART_InitStruct
 1364 0018 0022     		movs	r2, #0	@ tmp116,
 1365 001a 1A71     		strb	r2, [r3, #4]	@ tmp117, UART_InitStruct_2(D)->Parity
 605:core/lpc17xx_uart.c **** 	UART_InitStruct->Stopbits = UART_STOPBIT_1;
 1366              		.loc 1 605 0
 1367 001c 7B68     		ldr	r3, [r7, #4]	@ tmp118, UART_InitStruct
 1368 001e 0022     		movs	r2, #0	@ tmp119,
 1369 0020 9A71     		strb	r2, [r3, #6]	@ tmp120, UART_InitStruct_2(D)->Stopbits
ARM GAS  C:\Users\STUDENT\AppData\Local\Temp\ccMxouBa.s 			page 36


 606:core/lpc17xx_uart.c **** }
 1370              		.loc 1 606 0
 1371 0022 00BF     		nop
 1372 0024 0C37     		adds	r7, r7, #12	@,,
 1373              		.cfi_def_cfa_offset 4
 1374 0026 BD46     		mov	sp, r7	@,
 1375              		.cfi_def_cfa_register 13
 1376              		@ sp needed	@
 1377 0028 80BC     		pop	{r7}	@
 1378              		.cfi_restore 7
 1379              		.cfi_def_cfa_offset 0
 1380 002a 7047     		bx	lr	@
 1381              		.cfi_endproc
 1382              	.LFE60:
 1383              		.size	UART_ConfigStructInit, .-UART_ConfigStructInit
 1384              		.section	.text.UART_SendData,"ax",%progbits
 1385              		.align	2
 1386              		.global	UART_SendData
 1387              		.thumb
 1388              		.thumb_func
 1389              		.type	UART_SendData, %function
 1390              	UART_SendData:
 1391              	.LFB61:
 607:core/lpc17xx_uart.c **** 
 608:core/lpc17xx_uart.c **** 
 609:core/lpc17xx_uart.c **** /*********************************************************************//**
 610:core/lpc17xx_uart.c ****  * @brief		Transmit a single data through UART peripheral
 611:core/lpc17xx_uart.c ****  * @param[in]	UARTx	UART peripheral selected, should be UART0, UART1,
 612:core/lpc17xx_uart.c ****  * 						UART2 or UART3.
 613:core/lpc17xx_uart.c ****  * @param[in]	Data	Data to transmit (must be 8-bit long)
 614:core/lpc17xx_uart.c ****  * @return none
 615:core/lpc17xx_uart.c ****  **********************************************************************/
 616:core/lpc17xx_uart.c **** void UART_SendData(LPC_UART_TypeDef* UARTx, uint8_t Data)
 617:core/lpc17xx_uart.c **** {
 1392              		.loc 1 617 0
 1393              		.cfi_startproc
 1394              		@ args = 0, pretend = 0, frame = 8
 1395              		@ frame_needed = 1, uses_anonymous_args = 0
 1396 0000 80B5     		push	{r7, lr}	@
 1397              		.cfi_def_cfa_offset 8
 1398              		.cfi_offset 7, -8
 1399              		.cfi_offset 14, -4
 1400 0002 82B0     		sub	sp, sp, #8	@,,
 1401              		.cfi_def_cfa_offset 16
 1402 0004 00AF     		add	r7, sp, #0	@,,
 1403              		.cfi_def_cfa_register 7
 1404 0006 7860     		str	r0, [r7, #4]	@ UARTx, UARTx
 1405 0008 0B46     		mov	r3, r1	@ tmp110, Data
 1406 000a FB70     		strb	r3, [r7, #3]	@ tmp111, Data
 618:core/lpc17xx_uart.c **** 	CHECK_PARAM(PARAM_UARTx(UARTx));
 1407              		.loc 1 618 0
 1408 000c 7B68     		ldr	r3, [r7, #4]	@ tmp112, UARTx
 1409 000e 114A     		ldr	r2, .L107	@ tmp113,
 1410 0010 9342     		cmp	r3, r2	@ tmp112, tmp113
 1411 0012 10D0     		beq	.L103	@,
 1412              		.loc 1 618 0 is_stmt 0 discriminator 1
 1413 0014 7B68     		ldr	r3, [r7, #4]	@ tmp114, UARTx
ARM GAS  C:\Users\STUDENT\AppData\Local\Temp\ccMxouBa.s 			page 37


 1414 0016 104A     		ldr	r2, .L107+4	@ tmp115,
 1415 0018 9342     		cmp	r3, r2	@ tmp114, tmp115
 1416 001a 0CD0     		beq	.L103	@,
 1417              		.loc 1 618 0 discriminator 2
 1418 001c 7B68     		ldr	r3, [r7, #4]	@ tmp116, UARTx
 1419 001e 0F4A     		ldr	r2, .L107+8	@ tmp117,
 1420 0020 9342     		cmp	r3, r2	@ tmp116, tmp117
 1421 0022 08D0     		beq	.L103	@,
 1422              		.loc 1 618 0 discriminator 3
 1423 0024 7B68     		ldr	r3, [r7, #4]	@ tmp118, UARTx
 1424 0026 0E4A     		ldr	r2, .L107+12	@ tmp119,
 1425 0028 9342     		cmp	r3, r2	@ tmp118, tmp119
 1426 002a 04D0     		beq	.L103	@,
 1427              		.loc 1 618 0 discriminator 4
 1428 002c 40F26A21 		movw	r1, #618	@,
 1429 0030 0C48     		ldr	r0, .L107+16	@,
 1430 0032 FFF7FEFF 		bl	check_failed	@
 1431              	.L103:
 619:core/lpc17xx_uart.c **** 
 620:core/lpc17xx_uart.c **** 	if (((LPC_UART1_TypeDef *)UARTx) == LPC_UART1)
 1432              		.loc 1 620 0 is_stmt 1
 1433 0036 7B68     		ldr	r3, [r7, #4]	@ tmp120, UARTx
 1434 0038 074A     		ldr	r2, .L107+4	@ tmp121,
 1435 003a 9342     		cmp	r3, r2	@ tmp120, tmp121
 1436 003c 03D1     		bne	.L104	@,
 621:core/lpc17xx_uart.c **** 	{
 622:core/lpc17xx_uart.c **** 		((LPC_UART1_TypeDef *)UARTx)->/*RBTHDLR.*/THR = Data & UART_THR_MASKBIT;
 1437              		.loc 1 622 0
 1438 003e 7B68     		ldr	r3, [r7, #4]	@ tmp122, UARTx
 1439 0040 FA78     		ldrb	r2, [r7, #3]	@ tmp123, Data
 1440 0042 1A70     		strb	r2, [r3]	@ tmp123, MEM[(struct LPC_UART1_TypeDef *)UARTx_3(D)].D.4871.THR
 623:core/lpc17xx_uart.c **** 	}
 624:core/lpc17xx_uart.c **** 	else
 625:core/lpc17xx_uart.c **** 	{
 626:core/lpc17xx_uart.c **** 		UARTx->/*RBTHDLR.*/THR = Data & UART_THR_MASKBIT;
 627:core/lpc17xx_uart.c **** 	}
 628:core/lpc17xx_uart.c **** 
 629:core/lpc17xx_uart.c **** }
 1441              		.loc 1 629 0
 1442 0044 02E0     		b	.L106	@
 1443              	.L104:
 626:core/lpc17xx_uart.c **** 	}
 1444              		.loc 1 626 0
 1445 0046 7B68     		ldr	r3, [r7, #4]	@ tmp124, UARTx
 1446 0048 FA78     		ldrb	r2, [r7, #3]	@ tmp125, Data
 1447 004a 1A70     		strb	r2, [r3]	@ tmp125, UARTx_3(D)->D.4811.THR
 1448              	.L106:
 1449              		.loc 1 629 0
 1450 004c 00BF     		nop
 1451 004e 0837     		adds	r7, r7, #8	@,,
 1452              		.cfi_def_cfa_offset 8
 1453 0050 BD46     		mov	sp, r7	@,
 1454              		.cfi_def_cfa_register 13
 1455              		@ sp needed	@
 1456 0052 80BD     		pop	{r7, pc}	@
 1457              	.L108:
 1458              		.align	2
ARM GAS  C:\Users\STUDENT\AppData\Local\Temp\ccMxouBa.s 			page 38


 1459              	.L107:
 1460 0054 00C00040 		.word	1073790976
 1461 0058 00000140 		.word	1073807360
 1462 005c 00800940 		.word	1074364416
 1463 0060 00C00940 		.word	1074380800
 1464 0064 00000000 		.word	.LC0
 1465              		.cfi_endproc
 1466              	.LFE61:
 1467              		.size	UART_SendData, .-UART_SendData
 1468              		.section	.text.UART_ReceiveData,"ax",%progbits
 1469              		.align	2
 1470              		.global	UART_ReceiveData
 1471              		.thumb
 1472              		.thumb_func
 1473              		.type	UART_ReceiveData, %function
 1474              	UART_ReceiveData:
 1475              	.LFB62:
 630:core/lpc17xx_uart.c **** 
 631:core/lpc17xx_uart.c **** 
 632:core/lpc17xx_uart.c **** /*********************************************************************//**
 633:core/lpc17xx_uart.c ****  * @brief		Receive a single data from UART peripheral
 634:core/lpc17xx_uart.c ****  * @param[in]	UARTx	UART peripheral selected, should be UART0, UART1,
 635:core/lpc17xx_uart.c ****  * 						UART2 or UART3.
 636:core/lpc17xx_uart.c ****  * @return 		Data received
 637:core/lpc17xx_uart.c ****  **********************************************************************/
 638:core/lpc17xx_uart.c **** uint8_t UART_ReceiveData(LPC_UART_TypeDef* UARTx)
 639:core/lpc17xx_uart.c **** {
 1476              		.loc 1 639 0
 1477              		.cfi_startproc
 1478              		@ args = 0, pretend = 0, frame = 8
 1479              		@ frame_needed = 1, uses_anonymous_args = 0
 1480 0000 80B5     		push	{r7, lr}	@
 1481              		.cfi_def_cfa_offset 8
 1482              		.cfi_offset 7, -8
 1483              		.cfi_offset 14, -4
 1484 0002 82B0     		sub	sp, sp, #8	@,,
 1485              		.cfi_def_cfa_offset 16
 1486 0004 00AF     		add	r7, sp, #0	@,,
 1487              		.cfi_def_cfa_register 7
 1488 0006 7860     		str	r0, [r7, #4]	@ UARTx, UARTx
 640:core/lpc17xx_uart.c **** 	CHECK_PARAM(PARAM_UARTx(UARTx));
 1489              		.loc 1 640 0
 1490 0008 7B68     		ldr	r3, [r7, #4]	@ tmp112, UARTx
 1491 000a 114A     		ldr	r2, .L113	@ tmp113,
 1492 000c 9342     		cmp	r3, r2	@ tmp112, tmp113
 1493 000e 10D0     		beq	.L110	@,
 1494              		.loc 1 640 0 is_stmt 0 discriminator 1
 1495 0010 7B68     		ldr	r3, [r7, #4]	@ tmp114, UARTx
 1496 0012 104A     		ldr	r2, .L113+4	@ tmp115,
 1497 0014 9342     		cmp	r3, r2	@ tmp114, tmp115
 1498 0016 0CD0     		beq	.L110	@,
 1499              		.loc 1 640 0 discriminator 2
 1500 0018 7B68     		ldr	r3, [r7, #4]	@ tmp116, UARTx
 1501 001a 0F4A     		ldr	r2, .L113+8	@ tmp117,
 1502 001c 9342     		cmp	r3, r2	@ tmp116, tmp117
 1503 001e 08D0     		beq	.L110	@,
 1504              		.loc 1 640 0 discriminator 3
ARM GAS  C:\Users\STUDENT\AppData\Local\Temp\ccMxouBa.s 			page 39


 1505 0020 7B68     		ldr	r3, [r7, #4]	@ tmp118, UARTx
 1506 0022 0E4A     		ldr	r2, .L113+12	@ tmp119,
 1507 0024 9342     		cmp	r3, r2	@ tmp118, tmp119
 1508 0026 04D0     		beq	.L110	@,
 1509              		.loc 1 640 0 discriminator 4
 1510 0028 4FF42071 		mov	r1, #640	@,
 1511 002c 0C48     		ldr	r0, .L113+16	@,
 1512 002e FFF7FEFF 		bl	check_failed	@
 1513              	.L110:
 641:core/lpc17xx_uart.c **** 
 642:core/lpc17xx_uart.c **** 	if (((LPC_UART1_TypeDef *)UARTx) == LPC_UART1)
 1514              		.loc 1 642 0 is_stmt 1
 1515 0032 7B68     		ldr	r3, [r7, #4]	@ tmp120, UARTx
 1516 0034 074A     		ldr	r2, .L113+4	@ tmp121,
 1517 0036 9342     		cmp	r3, r2	@ tmp120, tmp121
 1518 0038 03D1     		bne	.L111	@,
 643:core/lpc17xx_uart.c **** 	{
 644:core/lpc17xx_uart.c **** 		return (((LPC_UART1_TypeDef *)UARTx)->/*RBTHDLR.*/RBR & UART_RBR_MASKBIT);
 1519              		.loc 1 644 0
 1520 003a 7B68     		ldr	r3, [r7, #4]	@ tmp122, UARTx
 1521 003c 1B78     		ldrb	r3, [r3]	@ tmp123, MEM[(struct LPC_UART1_TypeDef *)UARTx_3(D)].D.4871.RBR
 1522 003e DBB2     		uxtb	r3, r3	@ D.6713, tmp123
 1523 0040 02E0     		b	.L112	@
 1524              	.L111:
 645:core/lpc17xx_uart.c **** 	}
 646:core/lpc17xx_uart.c **** 	else
 647:core/lpc17xx_uart.c **** 	{
 648:core/lpc17xx_uart.c **** 		return (UARTx->/*RBTHDLR.*/RBR & UART_RBR_MASKBIT);
 1525              		.loc 1 648 0
 1526 0042 7B68     		ldr	r3, [r7, #4]	@ tmp124, UARTx
 1527 0044 1B78     		ldrb	r3, [r3]	@ tmp125, UARTx_3(D)->D.4811.RBR
 1528 0046 DBB2     		uxtb	r3, r3	@ D.6713, tmp125
 1529              	.L112:
 649:core/lpc17xx_uart.c **** 	}
 650:core/lpc17xx_uart.c **** }
 1530              		.loc 1 650 0
 1531 0048 1846     		mov	r0, r3	@, <retval>
 1532 004a 0837     		adds	r7, r7, #8	@,,
 1533              		.cfi_def_cfa_offset 8
 1534 004c BD46     		mov	sp, r7	@,
 1535              		.cfi_def_cfa_register 13
 1536              		@ sp needed	@
 1537 004e 80BD     		pop	{r7, pc}	@
 1538              	.L114:
 1539              		.align	2
 1540              	.L113:
 1541 0050 00C00040 		.word	1073790976
 1542 0054 00000140 		.word	1073807360
 1543 0058 00800940 		.word	1074364416
 1544 005c 00C00940 		.word	1074380800
 1545 0060 00000000 		.word	.LC0
 1546              		.cfi_endproc
 1547              	.LFE62:
 1548              		.size	UART_ReceiveData, .-UART_ReceiveData
 1549              		.section	.text.UART_ForceBreak,"ax",%progbits
 1550              		.align	2
 1551              		.global	UART_ForceBreak
ARM GAS  C:\Users\STUDENT\AppData\Local\Temp\ccMxouBa.s 			page 40


 1552              		.thumb
 1553              		.thumb_func
 1554              		.type	UART_ForceBreak, %function
 1555              	UART_ForceBreak:
 1556              	.LFB63:
 651:core/lpc17xx_uart.c **** 
 652:core/lpc17xx_uart.c **** 
 653:core/lpc17xx_uart.c **** /*********************************************************************//**
 654:core/lpc17xx_uart.c ****  * @brief		Force BREAK character on UART line, output pin UARTx TXD is
 655:core/lpc17xx_uart.c **** 				forced to logic 0.
 656:core/lpc17xx_uart.c ****  * @param[in]	UARTx	UART peripheral selected, should be UART0, UART1,
 657:core/lpc17xx_uart.c ****  * 						UART2 or UART3.
 658:core/lpc17xx_uart.c ****  * @return none
 659:core/lpc17xx_uart.c ****  **********************************************************************/
 660:core/lpc17xx_uart.c **** void UART_ForceBreak(LPC_UART_TypeDef* UARTx)
 661:core/lpc17xx_uart.c **** {
 1557              		.loc 1 661 0
 1558              		.cfi_startproc
 1559              		@ args = 0, pretend = 0, frame = 8
 1560              		@ frame_needed = 1, uses_anonymous_args = 0
 1561 0000 80B5     		push	{r7, lr}	@
 1562              		.cfi_def_cfa_offset 8
 1563              		.cfi_offset 7, -8
 1564              		.cfi_offset 14, -4
 1565 0002 82B0     		sub	sp, sp, #8	@,,
 1566              		.cfi_def_cfa_offset 16
 1567 0004 00AF     		add	r7, sp, #0	@,,
 1568              		.cfi_def_cfa_register 7
 1569 0006 7860     		str	r0, [r7, #4]	@ UARTx, UARTx
 662:core/lpc17xx_uart.c **** 	CHECK_PARAM(PARAM_UARTx(UARTx));
 1570              		.loc 1 662 0
 1571 0008 7B68     		ldr	r3, [r7, #4]	@ tmp114, UARTx
 1572 000a 164A     		ldr	r2, .L120	@ tmp115,
 1573 000c 9342     		cmp	r3, r2	@ tmp114, tmp115
 1574 000e 10D0     		beq	.L116	@,
 1575              		.loc 1 662 0 is_stmt 0 discriminator 1
 1576 0010 7B68     		ldr	r3, [r7, #4]	@ tmp116, UARTx
 1577 0012 154A     		ldr	r2, .L120+4	@ tmp117,
 1578 0014 9342     		cmp	r3, r2	@ tmp116, tmp117
 1579 0016 0CD0     		beq	.L116	@,
 1580              		.loc 1 662 0 discriminator 2
 1581 0018 7B68     		ldr	r3, [r7, #4]	@ tmp118, UARTx
 1582 001a 144A     		ldr	r2, .L120+8	@ tmp119,
 1583 001c 9342     		cmp	r3, r2	@ tmp118, tmp119
 1584 001e 08D0     		beq	.L116	@,
 1585              		.loc 1 662 0 discriminator 3
 1586 0020 7B68     		ldr	r3, [r7, #4]	@ tmp120, UARTx
 1587 0022 134A     		ldr	r2, .L120+12	@ tmp121,
 1588 0024 9342     		cmp	r3, r2	@ tmp120, tmp121
 1589 0026 04D0     		beq	.L116	@,
 1590              		.loc 1 662 0 discriminator 4
 1591 0028 40F29621 		movw	r1, #662	@,
 1592 002c 1148     		ldr	r0, .L120+16	@,
 1593 002e FFF7FEFF 		bl	check_failed	@
 1594              	.L116:
 663:core/lpc17xx_uart.c **** 
 664:core/lpc17xx_uart.c **** 	if (((LPC_UART1_TypeDef *)UARTx) == LPC_UART1)
ARM GAS  C:\Users\STUDENT\AppData\Local\Temp\ccMxouBa.s 			page 41


 1595              		.loc 1 664 0 is_stmt 1
 1596 0032 7B68     		ldr	r3, [r7, #4]	@ tmp122, UARTx
 1597 0034 0C4A     		ldr	r2, .L120+4	@ tmp123,
 1598 0036 9342     		cmp	r3, r2	@ tmp122, tmp123
 1599 0038 08D1     		bne	.L117	@,
 665:core/lpc17xx_uart.c **** 	{
 666:core/lpc17xx_uart.c **** 		((LPC_UART1_TypeDef *)UARTx)->LCR |= UART_LCR_BREAK_EN;
 1600              		.loc 1 666 0
 1601 003a 7B68     		ldr	r3, [r7, #4]	@ tmp124, UARTx
 1602 003c 1B7B     		ldrb	r3, [r3, #12]	@ tmp126, MEM[(struct LPC_UART1_TypeDef *)UARTx_3(D)].LCR
 1603 003e DBB2     		uxtb	r3, r3	@ D.6714, tmp126
 1604 0040 43F04003 		orr	r3, r3, #64	@ tmp127, D.6714,
 1605 0044 DAB2     		uxtb	r2, r3	@ D.6714, tmp127
 1606 0046 7B68     		ldr	r3, [r7, #4]	@ tmp128, UARTx
 1607 0048 1A73     		strb	r2, [r3, #12]	@ tmp129, MEM[(struct LPC_UART1_TypeDef *)UARTx_3(D)].LCR
 667:core/lpc17xx_uart.c **** 	}
 668:core/lpc17xx_uart.c **** 	else
 669:core/lpc17xx_uart.c **** 	{
 670:core/lpc17xx_uart.c **** 		UARTx->LCR |= UART_LCR_BREAK_EN;
 671:core/lpc17xx_uart.c **** 	}
 672:core/lpc17xx_uart.c **** }
 1608              		.loc 1 672 0
 1609 004a 07E0     		b	.L119	@
 1610              	.L117:
 670:core/lpc17xx_uart.c **** 	}
 1611              		.loc 1 670 0
 1612 004c 7B68     		ldr	r3, [r7, #4]	@ tmp130, UARTx
 1613 004e 1B7B     		ldrb	r3, [r3, #12]	@ tmp132, UARTx_3(D)->LCR
 1614 0050 DBB2     		uxtb	r3, r3	@ D.6714, tmp132
 1615 0052 43F04003 		orr	r3, r3, #64	@ tmp133, D.6714,
 1616 0056 DAB2     		uxtb	r2, r3	@ D.6714, tmp133
 1617 0058 7B68     		ldr	r3, [r7, #4]	@ tmp134, UARTx
 1618 005a 1A73     		strb	r2, [r3, #12]	@ tmp135, UARTx_3(D)->LCR
 1619              	.L119:
 1620              		.loc 1 672 0
 1621 005c 00BF     		nop
 1622 005e 0837     		adds	r7, r7, #8	@,,
 1623              		.cfi_def_cfa_offset 8
 1624 0060 BD46     		mov	sp, r7	@,
 1625              		.cfi_def_cfa_register 13
 1626              		@ sp needed	@
 1627 0062 80BD     		pop	{r7, pc}	@
 1628              	.L121:
 1629              		.align	2
 1630              	.L120:
 1631 0064 00C00040 		.word	1073790976
 1632 0068 00000140 		.word	1073807360
 1633 006c 00800940 		.word	1074364416
 1634 0070 00C00940 		.word	1074380800
 1635 0074 00000000 		.word	.LC0
 1636              		.cfi_endproc
 1637              	.LFE63:
 1638              		.size	UART_ForceBreak, .-UART_ForceBreak
 1639              		.section	.text.UART_IrDAInvtInputCmd,"ax",%progbits
 1640              		.align	2
 1641              		.global	UART_IrDAInvtInputCmd
 1642              		.thumb
ARM GAS  C:\Users\STUDENT\AppData\Local\Temp\ccMxouBa.s 			page 42


 1643              		.thumb_func
 1644              		.type	UART_IrDAInvtInputCmd, %function
 1645              	UART_IrDAInvtInputCmd:
 1646              	.LFB64:
 673:core/lpc17xx_uart.c **** 
 674:core/lpc17xx_uart.c **** 
 675:core/lpc17xx_uart.c **** #ifdef _UART3
 676:core/lpc17xx_uart.c **** 
 677:core/lpc17xx_uart.c **** /*********************************************************************//**
 678:core/lpc17xx_uart.c ****  * @brief		Enable or disable inverting serial input function of IrDA
 679:core/lpc17xx_uart.c ****  * 				on UART peripheral.
 680:core/lpc17xx_uart.c ****  * @param[in]	UARTx UART peripheral selected, should be UART3 (only)
 681:core/lpc17xx_uart.c ****  * @param[in]	NewState New state of inverting serial input, should be:
 682:core/lpc17xx_uart.c ****  * 				- ENABLE: Enable this function.
 683:core/lpc17xx_uart.c ****  * 				- DISABLE: Disable this function.
 684:core/lpc17xx_uart.c ****  * @return none
 685:core/lpc17xx_uart.c ****  **********************************************************************/
 686:core/lpc17xx_uart.c **** void UART_IrDAInvtInputCmd(LPC_UART_TypeDef* UARTx, FunctionalState NewState)
 687:core/lpc17xx_uart.c **** {
 1647              		.loc 1 687 0
 1648              		.cfi_startproc
 1649              		@ args = 0, pretend = 0, frame = 8
 1650              		@ frame_needed = 1, uses_anonymous_args = 0
 1651 0000 80B5     		push	{r7, lr}	@
 1652              		.cfi_def_cfa_offset 8
 1653              		.cfi_offset 7, -8
 1654              		.cfi_offset 14, -4
 1655 0002 82B0     		sub	sp, sp, #8	@,,
 1656              		.cfi_def_cfa_offset 16
 1657 0004 00AF     		add	r7, sp, #0	@,,
 1658              		.cfi_def_cfa_register 7
 1659 0006 7860     		str	r0, [r7, #4]	@ UARTx, UARTx
 1660 0008 0B46     		mov	r3, r1	@ tmp114, NewState
 1661 000a FB70     		strb	r3, [r7, #3]	@ tmp115, NewState
 688:core/lpc17xx_uart.c **** 	CHECK_PARAM(PARAM_UART_IrDA(UARTx));
 1662              		.loc 1 688 0
 1663 000c 7B68     		ldr	r3, [r7, #4]	@ tmp116, UARTx
 1664 000e 194A     		ldr	r2, .L128	@ tmp117,
 1665 0010 9342     		cmp	r3, r2	@ tmp116, tmp117
 1666 0012 04D0     		beq	.L123	@,
 1667              		.loc 1 688 0 is_stmt 0 discriminator 1
 1668 0014 4FF42C71 		mov	r1, #688	@,
 1669 0018 1748     		ldr	r0, .L128+4	@,
 1670 001a FFF7FEFF 		bl	check_failed	@
 1671              	.L123:
 689:core/lpc17xx_uart.c **** 	CHECK_PARAM(PARAM_FUNCTIONALSTATE(NewState));
 1672              		.loc 1 689 0 is_stmt 1
 1673 001e FB78     		ldrb	r3, [r7, #3]	@ zero_extendqisi2	@ tmp118, NewState
 1674 0020 002B     		cmp	r3, #0	@ tmp118,
 1675 0022 07D0     		beq	.L124	@,
 1676              		.loc 1 689 0 is_stmt 0 discriminator 1
 1677 0024 FB78     		ldrb	r3, [r7, #3]	@ zero_extendqisi2	@ tmp119, NewState
 1678 0026 012B     		cmp	r3, #1	@ tmp119,
 1679 0028 04D0     		beq	.L124	@,
 1680              		.loc 1 689 0 discriminator 2
 1681 002a 40F2B121 		movw	r1, #689	@,
 1682 002e 1248     		ldr	r0, .L128+4	@,
ARM GAS  C:\Users\STUDENT\AppData\Local\Temp\ccMxouBa.s 			page 43


 1683 0030 FFF7FEFF 		bl	check_failed	@
 1684              	.L124:
 690:core/lpc17xx_uart.c **** 
 691:core/lpc17xx_uart.c **** 	if (NewState == ENABLE)
 1685              		.loc 1 691 0 is_stmt 1
 1686 0034 FB78     		ldrb	r3, [r7, #3]	@ zero_extendqisi2	@ tmp120, NewState
 1687 0036 012B     		cmp	r3, #1	@ tmp120,
 1688 0038 0AD1     		bne	.L125	@,
 692:core/lpc17xx_uart.c **** 	{
 693:core/lpc17xx_uart.c **** 		UARTx->ICR |= UART_ICR_IRDAINV;
 1689              		.loc 1 693 0
 1690 003a 7B68     		ldr	r3, [r7, #4]	@ tmp121, UARTx
 1691 003c 93F82430 		ldrb	r3, [r3, #36]	@ tmp123, UARTx_4(D)->ICR
 1692 0040 DBB2     		uxtb	r3, r3	@ D.6715, tmp123
 1693 0042 43F00203 		orr	r3, r3, #2	@ tmp124, D.6715,
 1694 0046 DAB2     		uxtb	r2, r3	@ D.6715, tmp124
 1695 0048 7B68     		ldr	r3, [r7, #4]	@ tmp125, UARTx
 1696 004a 83F82420 		strb	r2, [r3, #36]	@ tmp126, UARTx_4(D)->ICR
 694:core/lpc17xx_uart.c **** 	}
 695:core/lpc17xx_uart.c **** 	else if (NewState == DISABLE)
 696:core/lpc17xx_uart.c **** 	{
 697:core/lpc17xx_uart.c **** 		UARTx->ICR &= (~UART_ICR_IRDAINV) & UART_ICR_BITMASK;
 698:core/lpc17xx_uart.c **** 	}
 699:core/lpc17xx_uart.c **** }
 1697              		.loc 1 699 0
 1698 004e 0CE0     		b	.L127	@
 1699              	.L125:
 695:core/lpc17xx_uart.c **** 	{
 1700              		.loc 1 695 0
 1701 0050 FB78     		ldrb	r3, [r7, #3]	@ zero_extendqisi2	@ tmp127, NewState
 1702 0052 002B     		cmp	r3, #0	@ tmp127,
 1703 0054 09D1     		bne	.L127	@,
 697:core/lpc17xx_uart.c **** 	}
 1704              		.loc 1 697 0
 1705 0056 7B68     		ldr	r3, [r7, #4]	@ tmp128, UARTx
 1706 0058 93F82430 		ldrb	r3, [r3, #36]	@ tmp130, UARTx_4(D)->ICR
 1707 005c DBB2     		uxtb	r3, r3	@ D.6715, tmp130
 1708 005e 03F03D03 		and	r3, r3, #61	@ tmp131, D.6715,
 1709 0062 DAB2     		uxtb	r2, r3	@ D.6715, tmp131
 1710 0064 7B68     		ldr	r3, [r7, #4]	@ tmp132, UARTx
 1711 0066 83F82420 		strb	r2, [r3, #36]	@ tmp133, UARTx_4(D)->ICR
 1712              	.L127:
 1713              		.loc 1 699 0
 1714 006a 00BF     		nop
 1715 006c 0837     		adds	r7, r7, #8	@,,
 1716              		.cfi_def_cfa_offset 8
 1717 006e BD46     		mov	sp, r7	@,
 1718              		.cfi_def_cfa_register 13
 1719              		@ sp needed	@
 1720 0070 80BD     		pop	{r7, pc}	@
 1721              	.L129:
 1722 0072 00BF     		.align	2
 1723              	.L128:
 1724 0074 00C00940 		.word	1074380800
 1725 0078 00000000 		.word	.LC0
 1726              		.cfi_endproc
 1727              	.LFE64:
ARM GAS  C:\Users\STUDENT\AppData\Local\Temp\ccMxouBa.s 			page 44


 1728              		.size	UART_IrDAInvtInputCmd, .-UART_IrDAInvtInputCmd
 1729              		.section	.text.UART_IrDACmd,"ax",%progbits
 1730              		.align	2
 1731              		.global	UART_IrDACmd
 1732              		.thumb
 1733              		.thumb_func
 1734              		.type	UART_IrDACmd, %function
 1735              	UART_IrDACmd:
 1736              	.LFB65:
 700:core/lpc17xx_uart.c **** 
 701:core/lpc17xx_uart.c **** 
 702:core/lpc17xx_uart.c **** /*********************************************************************//**
 703:core/lpc17xx_uart.c ****  * @brief		Enable or disable IrDA function on UART peripheral.
 704:core/lpc17xx_uart.c ****  * @param[in]	UARTx UART peripheral selected, should be UART3 (only)
 705:core/lpc17xx_uart.c ****  * @param[in]	NewState New state of IrDA function, should be:
 706:core/lpc17xx_uart.c ****  * 				- ENABLE: Enable this function.
 707:core/lpc17xx_uart.c ****  * 				- DISABLE: Disable this function.
 708:core/lpc17xx_uart.c ****  * @return none
 709:core/lpc17xx_uart.c ****  **********************************************************************/
 710:core/lpc17xx_uart.c **** void UART_IrDACmd(LPC_UART_TypeDef* UARTx, FunctionalState NewState)
 711:core/lpc17xx_uart.c **** {
 1737              		.loc 1 711 0
 1738              		.cfi_startproc
 1739              		@ args = 0, pretend = 0, frame = 8
 1740              		@ frame_needed = 1, uses_anonymous_args = 0
 1741 0000 80B5     		push	{r7, lr}	@
 1742              		.cfi_def_cfa_offset 8
 1743              		.cfi_offset 7, -8
 1744              		.cfi_offset 14, -4
 1745 0002 82B0     		sub	sp, sp, #8	@,,
 1746              		.cfi_def_cfa_offset 16
 1747 0004 00AF     		add	r7, sp, #0	@,,
 1748              		.cfi_def_cfa_register 7
 1749 0006 7860     		str	r0, [r7, #4]	@ UARTx, UARTx
 1750 0008 0B46     		mov	r3, r1	@ tmp114, NewState
 1751 000a FB70     		strb	r3, [r7, #3]	@ tmp115, NewState
 712:core/lpc17xx_uart.c **** 	CHECK_PARAM(PARAM_UART_IrDA(UARTx));
 1752              		.loc 1 712 0
 1753 000c 7B68     		ldr	r3, [r7, #4]	@ tmp116, UARTx
 1754 000e 174A     		ldr	r2, .L136	@ tmp117,
 1755 0010 9342     		cmp	r3, r2	@ tmp116, tmp117
 1756 0012 04D0     		beq	.L131	@,
 1757              		.loc 1 712 0 is_stmt 0 discriminator 1
 1758 0014 4FF43271 		mov	r1, #712	@,
 1759 0018 1548     		ldr	r0, .L136+4	@,
 1760 001a FFF7FEFF 		bl	check_failed	@
 1761              	.L131:
 713:core/lpc17xx_uart.c **** 	CHECK_PARAM(PARAM_FUNCTIONALSTATE(NewState));
 1762              		.loc 1 713 0 is_stmt 1
 1763 001e FB78     		ldrb	r3, [r7, #3]	@ zero_extendqisi2	@ tmp118, NewState
 1764 0020 002B     		cmp	r3, #0	@ tmp118,
 1765 0022 07D0     		beq	.L132	@,
 1766              		.loc 1 713 0 is_stmt 0 discriminator 1
 1767 0024 FB78     		ldrb	r3, [r7, #3]	@ zero_extendqisi2	@ tmp119, NewState
 1768 0026 012B     		cmp	r3, #1	@ tmp119,
 1769 0028 04D0     		beq	.L132	@,
 1770              		.loc 1 713 0 discriminator 2
ARM GAS  C:\Users\STUDENT\AppData\Local\Temp\ccMxouBa.s 			page 45


 1771 002a 40F2C921 		movw	r1, #713	@,
 1772 002e 1048     		ldr	r0, .L136+4	@,
 1773 0030 FFF7FEFF 		bl	check_failed	@
 1774              	.L132:
 714:core/lpc17xx_uart.c **** 
 715:core/lpc17xx_uart.c **** 	if (NewState == ENABLE)
 1775              		.loc 1 715 0 is_stmt 1
 1776 0034 FB78     		ldrb	r3, [r7, #3]	@ zero_extendqisi2	@ tmp120, NewState
 1777 0036 012B     		cmp	r3, #1	@ tmp120,
 1778 0038 0AD1     		bne	.L133	@,
 716:core/lpc17xx_uart.c **** 	{
 717:core/lpc17xx_uart.c **** 		UARTx->ICR |= UART_ICR_IRDAEN;
 1779              		.loc 1 717 0
 1780 003a 7B68     		ldr	r3, [r7, #4]	@ tmp121, UARTx
 1781 003c 93F82430 		ldrb	r3, [r3, #36]	@ tmp123, UARTx_4(D)->ICR
 1782 0040 DBB2     		uxtb	r3, r3	@ D.6716, tmp123
 1783 0042 43F00103 		orr	r3, r3, #1	@ tmp124, D.6716,
 1784 0046 DAB2     		uxtb	r2, r3	@ D.6716, tmp124
 1785 0048 7B68     		ldr	r3, [r7, #4]	@ tmp125, UARTx
 1786 004a 83F82420 		strb	r2, [r3, #36]	@ tmp126, UARTx_4(D)->ICR
 718:core/lpc17xx_uart.c **** 	}
 719:core/lpc17xx_uart.c **** 	else
 720:core/lpc17xx_uart.c **** 	{
 721:core/lpc17xx_uart.c **** 		UARTx->ICR &= (~UART_ICR_IRDAEN) & UART_ICR_BITMASK;
 722:core/lpc17xx_uart.c **** 	}
 723:core/lpc17xx_uart.c **** }
 1787              		.loc 1 723 0
 1788 004e 09E0     		b	.L135	@
 1789              	.L133:
 721:core/lpc17xx_uart.c **** 	}
 1790              		.loc 1 721 0
 1791 0050 7B68     		ldr	r3, [r7, #4]	@ tmp127, UARTx
 1792 0052 93F82430 		ldrb	r3, [r3, #36]	@ tmp129, UARTx_4(D)->ICR
 1793 0056 DBB2     		uxtb	r3, r3	@ D.6716, tmp129
 1794 0058 03F03E03 		and	r3, r3, #62	@ tmp130, D.6716,
 1795 005c DAB2     		uxtb	r2, r3	@ D.6716, tmp130
 1796 005e 7B68     		ldr	r3, [r7, #4]	@ tmp131, UARTx
 1797 0060 83F82420 		strb	r2, [r3, #36]	@ tmp132, UARTx_4(D)->ICR
 1798              	.L135:
 1799              		.loc 1 723 0
 1800 0064 00BF     		nop
 1801 0066 0837     		adds	r7, r7, #8	@,,
 1802              		.cfi_def_cfa_offset 8
 1803 0068 BD46     		mov	sp, r7	@,
 1804              		.cfi_def_cfa_register 13
 1805              		@ sp needed	@
 1806 006a 80BD     		pop	{r7, pc}	@
 1807              	.L137:
 1808              		.align	2
 1809              	.L136:
 1810 006c 00C00940 		.word	1074380800
 1811 0070 00000000 		.word	.LC0
 1812              		.cfi_endproc
 1813              	.LFE65:
 1814              		.size	UART_IrDACmd, .-UART_IrDACmd
 1815              		.section	.text.UART_IrDAPulseDivConfig,"ax",%progbits
 1816              		.align	2
ARM GAS  C:\Users\STUDENT\AppData\Local\Temp\ccMxouBa.s 			page 46


 1817              		.global	UART_IrDAPulseDivConfig
 1818              		.thumb
 1819              		.thumb_func
 1820              		.type	UART_IrDAPulseDivConfig, %function
 1821              	UART_IrDAPulseDivConfig:
 1822              	.LFB66:
 724:core/lpc17xx_uart.c **** 
 725:core/lpc17xx_uart.c **** 
 726:core/lpc17xx_uart.c **** /*********************************************************************//**
 727:core/lpc17xx_uart.c ****  * @brief		Configure Pulse divider for IrDA function on UART peripheral.
 728:core/lpc17xx_uart.c ****  * @param[in]	UARTx UART peripheral selected, should be UART3 (only)
 729:core/lpc17xx_uart.c ****  * @param[in]	PulseDiv Pulse Divider value from Peripheral clock,
 730:core/lpc17xx_uart.c ****  * 				should be one of the following:
 731:core/lpc17xx_uart.c **** 				- UART_IrDA_PULSEDIV2 	: Pulse width = 2 * Tpclk
 732:core/lpc17xx_uart.c **** 				- UART_IrDA_PULSEDIV4 	: Pulse width = 4 * Tpclk
 733:core/lpc17xx_uart.c **** 				- UART_IrDA_PULSEDIV8 	: Pulse width = 8 * Tpclk
 734:core/lpc17xx_uart.c **** 				- UART_IrDA_PULSEDIV16 	: Pulse width = 16 * Tpclk
 735:core/lpc17xx_uart.c **** 				- UART_IrDA_PULSEDIV32 	: Pulse width = 32 * Tpclk
 736:core/lpc17xx_uart.c **** 				- UART_IrDA_PULSEDIV64 	: Pulse width = 64 * Tpclk
 737:core/lpc17xx_uart.c **** 				- UART_IrDA_PULSEDIV128 : Pulse width = 128 * Tpclk
 738:core/lpc17xx_uart.c **** 				- UART_IrDA_PULSEDIV256 : Pulse width = 256 * Tpclk
 739:core/lpc17xx_uart.c **** 
 740:core/lpc17xx_uart.c ****  * @return none
 741:core/lpc17xx_uart.c ****  **********************************************************************/
 742:core/lpc17xx_uart.c **** void UART_IrDAPulseDivConfig(LPC_UART_TypeDef *UARTx, UART_IrDA_PULSE_Type PulseDiv)
 743:core/lpc17xx_uart.c **** {
 1823              		.loc 1 743 0
 1824              		.cfi_startproc
 1825              		@ args = 0, pretend = 0, frame = 16
 1826              		@ frame_needed = 1, uses_anonymous_args = 0
 1827 0000 80B5     		push	{r7, lr}	@
 1828              		.cfi_def_cfa_offset 8
 1829              		.cfi_offset 7, -8
 1830              		.cfi_offset 14, -4
 1831 0002 84B0     		sub	sp, sp, #16	@,,
 1832              		.cfi_def_cfa_offset 24
 1833 0004 00AF     		add	r7, sp, #0	@,,
 1834              		.cfi_def_cfa_register 7
 1835 0006 7860     		str	r0, [r7, #4]	@ UARTx, UARTx
 1836 0008 0B46     		mov	r3, r1	@ tmp118, PulseDiv
 1837 000a FB70     		strb	r3, [r7, #3]	@ tmp119, PulseDiv
 744:core/lpc17xx_uart.c **** 	uint32_t tmp, tmp1;
 745:core/lpc17xx_uart.c **** 	CHECK_PARAM(PARAM_UART_IrDA(UARTx));
 1838              		.loc 1 745 0
 1839 000c 7B68     		ldr	r3, [r7, #4]	@ tmp120, UARTx
 1840 000e 214A     		ldr	r2, .L141	@ tmp121,
 1841 0010 9342     		cmp	r3, r2	@ tmp120, tmp121
 1842 0012 04D0     		beq	.L139	@,
 1843              		.loc 1 745 0 is_stmt 0 discriminator 1
 1844 0014 40F2E921 		movw	r1, #745	@,
 1845 0018 1F48     		ldr	r0, .L141+4	@,
 1846 001a FFF7FEFF 		bl	check_failed	@
 1847              	.L139:
 746:core/lpc17xx_uart.c **** 	CHECK_PARAM(PARAM_UART_IrDA_PULSEDIV(PulseDiv));
 1848              		.loc 1 746 0 is_stmt 1
 1849 001e FB78     		ldrb	r3, [r7, #3]	@ zero_extendqisi2	@ tmp122, PulseDiv
 1850 0020 002B     		cmp	r3, #0	@ tmp122,
ARM GAS  C:\Users\STUDENT\AppData\Local\Temp\ccMxouBa.s 			page 47


 1851 0022 19D0     		beq	.L140	@,
 1852              		.loc 1 746 0 is_stmt 0 discriminator 1
 1853 0024 FB78     		ldrb	r3, [r7, #3]	@ zero_extendqisi2	@ tmp123, PulseDiv
 1854 0026 012B     		cmp	r3, #1	@ tmp123,
 1855 0028 16D0     		beq	.L140	@,
 1856              		.loc 1 746 0 discriminator 2
 1857 002a FB78     		ldrb	r3, [r7, #3]	@ zero_extendqisi2	@ tmp124, PulseDiv
 1858 002c 022B     		cmp	r3, #2	@ tmp124,
 1859 002e 13D0     		beq	.L140	@,
 1860              		.loc 1 746 0 discriminator 3
 1861 0030 FB78     		ldrb	r3, [r7, #3]	@ zero_extendqisi2	@ tmp125, PulseDiv
 1862 0032 032B     		cmp	r3, #3	@ tmp125,
 1863 0034 10D0     		beq	.L140	@,
 1864              		.loc 1 746 0 discriminator 4
 1865 0036 FB78     		ldrb	r3, [r7, #3]	@ zero_extendqisi2	@ tmp126, PulseDiv
 1866 0038 042B     		cmp	r3, #4	@ tmp126,
 1867 003a 0DD0     		beq	.L140	@,
 1868              		.loc 1 746 0 discriminator 5
 1869 003c FB78     		ldrb	r3, [r7, #3]	@ zero_extendqisi2	@ tmp127, PulseDiv
 1870 003e 052B     		cmp	r3, #5	@ tmp127,
 1871 0040 0AD0     		beq	.L140	@,
 1872              		.loc 1 746 0 discriminator 6
 1873 0042 FB78     		ldrb	r3, [r7, #3]	@ zero_extendqisi2	@ tmp128, PulseDiv
 1874 0044 062B     		cmp	r3, #6	@ tmp128,
 1875 0046 07D0     		beq	.L140	@,
 1876              		.loc 1 746 0 discriminator 7
 1877 0048 FB78     		ldrb	r3, [r7, #3]	@ zero_extendqisi2	@ tmp129, PulseDiv
 1878 004a 072B     		cmp	r3, #7	@ tmp129,
 1879 004c 04D0     		beq	.L140	@,
 1880              		.loc 1 746 0 discriminator 8
 1881 004e 40F2EA21 		movw	r1, #746	@,
 1882 0052 1148     		ldr	r0, .L141+4	@,
 1883 0054 FFF7FEFF 		bl	check_failed	@
 1884              	.L140:
 747:core/lpc17xx_uart.c **** 
 748:core/lpc17xx_uart.c **** 	tmp1 = UART_ICR_PULSEDIV(PulseDiv);
 1885              		.loc 1 748 0 is_stmt 1
 1886 0058 FB78     		ldrb	r3, [r7, #3]	@ zero_extendqisi2	@ D.6717, PulseDiv
 1887 005a DB00     		lsls	r3, r3, #3	@ D.6717, D.6717,
 1888 005c 03F03803 		and	r3, r3, #56	@ tmp130, D.6718,
 1889 0060 FB60     		str	r3, [r7, #12]	@ tmp130, tmp1
 749:core/lpc17xx_uart.c **** 	tmp = UARTx->ICR & (~UART_ICR_PULSEDIV(7));
 1890              		.loc 1 749 0
 1891 0062 7B68     		ldr	r3, [r7, #4]	@ tmp131, UARTx
 1892 0064 93F82430 		ldrb	r3, [r3, #36]	@ tmp133, UARTx_3(D)->ICR
 1893 0068 DBB2     		uxtb	r3, r3	@ D.6719, tmp133
 1894 006a 23F03803 		bic	r3, r3, #56	@ tmp134, D.6718,
 1895 006e BB60     		str	r3, [r7, #8]	@ tmp134, tmp
 750:core/lpc17xx_uart.c **** 	tmp |= tmp1 | UART_ICR_FIXPULSE_EN;
 1896              		.loc 1 750 0
 1897 0070 FA68     		ldr	r2, [r7, #12]	@ tmp135, tmp1
 1898 0072 BB68     		ldr	r3, [r7, #8]	@ tmp136, tmp
 1899 0074 1343     		orrs	r3, r3, r2	@, D.6718, tmp136, tmp135
 1900 0076 43F00403 		orr	r3, r3, #4	@ tmp137, D.6718,
 1901 007a BB60     		str	r3, [r7, #8]	@ tmp137, tmp
 751:core/lpc17xx_uart.c **** 	UARTx->ICR = tmp & UART_ICR_BITMASK;
 1902              		.loc 1 751 0
ARM GAS  C:\Users\STUDENT\AppData\Local\Temp\ccMxouBa.s 			page 48


 1903 007c BB68     		ldr	r3, [r7, #8]	@ tmp138, tmp
 1904 007e DBB2     		uxtb	r3, r3	@ D.6719, tmp138
 1905 0080 03F03F03 		and	r3, r3, #63	@ tmp139, D.6719,
 1906 0084 DAB2     		uxtb	r2, r3	@ D.6719, tmp139
 1907 0086 7B68     		ldr	r3, [r7, #4]	@ tmp140, UARTx
 1908 0088 83F82420 		strb	r2, [r3, #36]	@ tmp141, UARTx_3(D)->ICR
 752:core/lpc17xx_uart.c **** }
 1909              		.loc 1 752 0
 1910 008c 00BF     		nop
 1911 008e 1037     		adds	r7, r7, #16	@,,
 1912              		.cfi_def_cfa_offset 8
 1913 0090 BD46     		mov	sp, r7	@,
 1914              		.cfi_def_cfa_register 13
 1915              		@ sp needed	@
 1916 0092 80BD     		pop	{r7, pc}	@
 1917              	.L142:
 1918              		.align	2
 1919              	.L141:
 1920 0094 00C00940 		.word	1074380800
 1921 0098 00000000 		.word	.LC0
 1922              		.cfi_endproc
 1923              	.LFE66:
 1924              		.size	UART_IrDAPulseDivConfig, .-UART_IrDAPulseDivConfig
 1925              		.section	.text.UART_IntConfig,"ax",%progbits
 1926              		.align	2
 1927              		.global	UART_IntConfig
 1928              		.thumb
 1929              		.thumb_func
 1930              		.type	UART_IntConfig, %function
 1931              	UART_IntConfig:
 1932              	.LFB67:
 753:core/lpc17xx_uart.c **** 
 754:core/lpc17xx_uart.c **** #endif
 755:core/lpc17xx_uart.c **** 
 756:core/lpc17xx_uart.c **** 
 757:core/lpc17xx_uart.c **** /********************************************************************//**
 758:core/lpc17xx_uart.c ****  * @brief 		Enable or disable specified UART interrupt.
 759:core/lpc17xx_uart.c ****  * @param[in]	UARTx	UART peripheral selected, should be UART0, UART1,
 760:core/lpc17xx_uart.c ****  * 						UART2 or UART3.
 761:core/lpc17xx_uart.c ****  * @param[in]	UARTIntCfg	Specifies the interrupt flag,
 762:core/lpc17xx_uart.c ****  * 				should be one of the following:
 763:core/lpc17xx_uart.c **** 				- UART_INTCFG_RBR 	:  RBR Interrupt enable
 764:core/lpc17xx_uart.c **** 				- UART_INTCFG_THRE 	:  THR Interrupt enable
 765:core/lpc17xx_uart.c **** 				- UART_INTCFG_RLS 	:  RX line status interrupt enable
 766:core/lpc17xx_uart.c **** 				- UART1_INTCFG_MS	:  Modem status interrupt enable (UART1 only)
 767:core/lpc17xx_uart.c **** 				- UART1_INTCFG_CTS	:  CTS1 signal transition interrupt enable (UART1 only)
 768:core/lpc17xx_uart.c **** 				- UART_INTCFG_ABEO 	:  Enables the end of auto-baud interrupt
 769:core/lpc17xx_uart.c **** 				- UART_INTCFG_ABTO 	:  Enables the auto-baud time-out interrupt
 770:core/lpc17xx_uart.c ****  * @param[in]	NewState New state of specified UART interrupt type,
 771:core/lpc17xx_uart.c ****  * 				should be:
 772:core/lpc17xx_uart.c ****  * 				- ENALBE: Enable this UART interrupt type.
 773:core/lpc17xx_uart.c **** * 				- DISALBE: Disable this UART interrupt type.
 774:core/lpc17xx_uart.c ****  * @return 		None
 775:core/lpc17xx_uart.c ****  *********************************************************************/
 776:core/lpc17xx_uart.c **** void UART_IntConfig(LPC_UART_TypeDef *UARTx, UART_INT_Type UARTIntCfg, FunctionalState NewState)
 777:core/lpc17xx_uart.c **** {
 1933              		.loc 1 777 0
ARM GAS  C:\Users\STUDENT\AppData\Local\Temp\ccMxouBa.s 			page 49


 1934              		.cfi_startproc
 1935              		@ args = 0, pretend = 0, frame = 16
 1936              		@ frame_needed = 1, uses_anonymous_args = 0
 1937 0000 80B5     		push	{r7, lr}	@
 1938              		.cfi_def_cfa_offset 8
 1939              		.cfi_offset 7, -8
 1940              		.cfi_offset 14, -4
 1941 0002 84B0     		sub	sp, sp, #16	@,,
 1942              		.cfi_def_cfa_offset 24
 1943 0004 00AF     		add	r7, sp, #0	@,,
 1944              		.cfi_def_cfa_register 7
 1945 0006 7860     		str	r0, [r7, #4]	@ UARTx, UARTx
 1946 0008 0B46     		mov	r3, r1	@ tmp123, UARTIntCfg
 1947 000a FB70     		strb	r3, [r7, #3]	@ tmp124, UARTIntCfg
 1948 000c 1346     		mov	r3, r2	@ tmp126, tmp125
 1949 000e BB70     		strb	r3, [r7, #2]	@ tmp126, NewState
 778:core/lpc17xx_uart.c **** 	uint32_t tmp;
 779:core/lpc17xx_uart.c **** 
 780:core/lpc17xx_uart.c **** 	CHECK_PARAM(PARAM_UARTx(UARTx));
 1950              		.loc 1 780 0
 1951 0010 7B68     		ldr	r3, [r7, #4]	@ tmp127, UARTx
 1952 0012 574A     		ldr	r2, .L163	@ tmp128,
 1953 0014 9342     		cmp	r3, r2	@ tmp127, tmp128
 1954 0016 10D0     		beq	.L144	@,
 1955              		.loc 1 780 0 is_stmt 0 discriminator 1
 1956 0018 7B68     		ldr	r3, [r7, #4]	@ tmp129, UARTx
 1957 001a 564A     		ldr	r2, .L163+4	@ tmp130,
 1958 001c 9342     		cmp	r3, r2	@ tmp129, tmp130
 1959 001e 0CD0     		beq	.L144	@,
 1960              		.loc 1 780 0 discriminator 2
 1961 0020 7B68     		ldr	r3, [r7, #4]	@ tmp131, UARTx
 1962 0022 554A     		ldr	r2, .L163+8	@ tmp132,
 1963 0024 9342     		cmp	r3, r2	@ tmp131, tmp132
 1964 0026 08D0     		beq	.L144	@,
 1965              		.loc 1 780 0 discriminator 3
 1966 0028 7B68     		ldr	r3, [r7, #4]	@ tmp133, UARTx
 1967 002a 544A     		ldr	r2, .L163+12	@ tmp134,
 1968 002c 9342     		cmp	r3, r2	@ tmp133, tmp134
 1969 002e 04D0     		beq	.L144	@,
 1970              		.loc 1 780 0 discriminator 4
 1971 0030 4FF44371 		mov	r1, #780	@,
 1972 0034 5248     		ldr	r0, .L163+16	@,
 1973 0036 FFF7FEFF 		bl	check_failed	@
 1974              	.L144:
 781:core/lpc17xx_uart.c **** 	CHECK_PARAM(PARAM_FUNCTIONALSTATE(NewState));
 1975              		.loc 1 781 0 is_stmt 1
 1976 003a BB78     		ldrb	r3, [r7, #2]	@ zero_extendqisi2	@ tmp135, NewState
 1977 003c 002B     		cmp	r3, #0	@ tmp135,
 1978 003e 07D0     		beq	.L145	@,
 1979              		.loc 1 781 0 is_stmt 0 discriminator 1
 1980 0040 BB78     		ldrb	r3, [r7, #2]	@ zero_extendqisi2	@ tmp136, NewState
 1981 0042 012B     		cmp	r3, #1	@ tmp136,
 1982 0044 04D0     		beq	.L145	@,
 1983              		.loc 1 781 0 discriminator 2
 1984 0046 40F20D31 		movw	r1, #781	@,
 1985 004a 4D48     		ldr	r0, .L163+16	@,
 1986 004c FFF7FEFF 		bl	check_failed	@
ARM GAS  C:\Users\STUDENT\AppData\Local\Temp\ccMxouBa.s 			page 50


 1987              	.L145:
 782:core/lpc17xx_uart.c **** 
 783:core/lpc17xx_uart.c **** 	switch(UARTIntCfg){
 1988              		.loc 1 783 0 is_stmt 1
 1989 0050 FB78     		ldrb	r3, [r7, #3]	@ zero_extendqisi2	@ D.6720, UARTIntCfg
 1990 0052 062B     		cmp	r3, #6	@ D.6720,
 1991 0054 27D8     		bhi	.L146	@
 1992 0056 01A2     		adr	r2, .L148	@ tmp175,
 1993 0058 52F823F0 		ldr	pc, [r2, r3, lsl #2]	@ tmp175, D.6720
 1994              		.p2align 2
 1995              	.L148:
 1996 005c 79000000 		.word	.L147+1
 1997 0060 7F000000 		.word	.L149+1
 1998 0064 85000000 		.word	.L150+1
 1999 0068 8B000000 		.word	.L151+1
 2000 006c 91000000 		.word	.L152+1
 2001 0070 97000000 		.word	.L153+1
 2002 0074 9F000000 		.word	.L154+1
 2003              		.p2align 1
 2004              	.L147:
 784:core/lpc17xx_uart.c **** 		case UART_INTCFG_RBR:
 785:core/lpc17xx_uart.c **** 			tmp = UART_IER_RBRINT_EN;
 2005              		.loc 1 785 0
 2006 0078 0123     		movs	r3, #1	@ tmp137,
 2007 007a FB60     		str	r3, [r7, #12]	@ tmp137, tmp
 786:core/lpc17xx_uart.c **** 			break;
 2008              		.loc 1 786 0
 2009 007c 13E0     		b	.L146	@
 2010              	.L149:
 787:core/lpc17xx_uart.c **** 		case UART_INTCFG_THRE:
 788:core/lpc17xx_uart.c **** 			tmp = UART_IER_THREINT_EN;
 2011              		.loc 1 788 0
 2012 007e 0223     		movs	r3, #2	@ tmp138,
 2013 0080 FB60     		str	r3, [r7, #12]	@ tmp138, tmp
 789:core/lpc17xx_uart.c **** 			break;
 2014              		.loc 1 789 0
 2015 0082 10E0     		b	.L146	@
 2016              	.L150:
 790:core/lpc17xx_uart.c **** 		case UART_INTCFG_RLS:
 791:core/lpc17xx_uart.c **** 			tmp = UART_IER_RLSINT_EN;
 2017              		.loc 1 791 0
 2018 0084 0423     		movs	r3, #4	@ tmp139,
 2019 0086 FB60     		str	r3, [r7, #12]	@ tmp139, tmp
 792:core/lpc17xx_uart.c **** 			break;
 2020              		.loc 1 792 0
 2021 0088 0DE0     		b	.L146	@
 2022              	.L151:
 793:core/lpc17xx_uart.c **** 		case UART1_INTCFG_MS:
 794:core/lpc17xx_uart.c **** 			tmp = UART1_IER_MSINT_EN;
 2023              		.loc 1 794 0
 2024 008a 0823     		movs	r3, #8	@ tmp140,
 2025 008c FB60     		str	r3, [r7, #12]	@ tmp140, tmp
 795:core/lpc17xx_uart.c **** 			break;
 2026              		.loc 1 795 0
 2027 008e 0AE0     		b	.L146	@
 2028              	.L152:
 796:core/lpc17xx_uart.c **** 		case UART1_INTCFG_CTS:
ARM GAS  C:\Users\STUDENT\AppData\Local\Temp\ccMxouBa.s 			page 51


 797:core/lpc17xx_uart.c **** 			tmp = UART1_IER_CTSINT_EN;
 2029              		.loc 1 797 0
 2030 0090 8023     		movs	r3, #128	@ tmp141,
 2031 0092 FB60     		str	r3, [r7, #12]	@ tmp141, tmp
 798:core/lpc17xx_uart.c **** 			break;
 2032              		.loc 1 798 0
 2033 0094 07E0     		b	.L146	@
 2034              	.L153:
 799:core/lpc17xx_uart.c **** 		case UART_INTCFG_ABEO:
 800:core/lpc17xx_uart.c **** 			tmp = UART_IER_ABEOINT_EN;
 2035              		.loc 1 800 0
 2036 0096 4FF48073 		mov	r3, #256	@ tmp142,
 2037 009a FB60     		str	r3, [r7, #12]	@ tmp142, tmp
 801:core/lpc17xx_uart.c **** 			break;
 2038              		.loc 1 801 0
 2039 009c 03E0     		b	.L146	@
 2040              	.L154:
 802:core/lpc17xx_uart.c **** 		case UART_INTCFG_ABTO:
 803:core/lpc17xx_uart.c **** 			tmp = UART_IER_ABTOINT_EN;
 2041              		.loc 1 803 0
 2042 009e 4FF40073 		mov	r3, #512	@ tmp143,
 2043 00a2 FB60     		str	r3, [r7, #12]	@ tmp143, tmp
 804:core/lpc17xx_uart.c **** 			break;
 2044              		.loc 1 804 0
 2045 00a4 00BF     		nop
 2046              	.L146:
 805:core/lpc17xx_uart.c **** 	}
 806:core/lpc17xx_uart.c **** 
 807:core/lpc17xx_uart.c **** 	if ((LPC_UART1_TypeDef *) UARTx == LPC_UART1)
 2047              		.loc 1 807 0
 2048 00a6 7B68     		ldr	r3, [r7, #4]	@ tmp144, UARTx
 2049 00a8 324A     		ldr	r2, .L163+4	@ tmp145,
 2050 00aa 9342     		cmp	r3, r2	@ tmp144, tmp145
 2051 00ac 1AD1     		bne	.L155	@,
 808:core/lpc17xx_uart.c **** 	{
 809:core/lpc17xx_uart.c **** 		CHECK_PARAM((PARAM_UART_INTCFG(UARTIntCfg)) || (PARAM_UART1_INTCFG(UARTIntCfg)));
 2052              		.loc 1 809 0
 2053 00ae FB78     		ldrb	r3, [r7, #3]	@ zero_extendqisi2	@ tmp146, UARTIntCfg
 2054 00b0 002B     		cmp	r3, #0	@ tmp146,
 2055 00b2 2BD0     		beq	.L156	@,
 2056              		.loc 1 809 0 is_stmt 0 discriminator 1
 2057 00b4 FB78     		ldrb	r3, [r7, #3]	@ zero_extendqisi2	@ tmp147, UARTIntCfg
 2058 00b6 012B     		cmp	r3, #1	@ tmp147,
 2059 00b8 28D0     		beq	.L156	@,
 2060              		.loc 1 809 0 discriminator 2
 2061 00ba FB78     		ldrb	r3, [r7, #3]	@ zero_extendqisi2	@ tmp148, UARTIntCfg
 2062 00bc 022B     		cmp	r3, #2	@ tmp148,
 2063 00be 25D0     		beq	.L156	@,
 2064              		.loc 1 809 0 discriminator 3
 2065 00c0 FB78     		ldrb	r3, [r7, #3]	@ zero_extendqisi2	@ tmp149, UARTIntCfg
 2066 00c2 052B     		cmp	r3, #5	@ tmp149,
 2067 00c4 22D0     		beq	.L156	@,
 2068              		.loc 1 809 0 discriminator 4
 2069 00c6 FB78     		ldrb	r3, [r7, #3]	@ zero_extendqisi2	@ tmp150, UARTIntCfg
 2070 00c8 062B     		cmp	r3, #6	@ tmp150,
 2071 00ca 1FD0     		beq	.L156	@,
 2072              		.loc 1 809 0 discriminator 5
ARM GAS  C:\Users\STUDENT\AppData\Local\Temp\ccMxouBa.s 			page 52


 2073 00cc FB78     		ldrb	r3, [r7, #3]	@ zero_extendqisi2	@ tmp151, UARTIntCfg
 2074 00ce 032B     		cmp	r3, #3	@ tmp151,
 2075 00d0 1CD0     		beq	.L156	@,
 2076              		.loc 1 809 0 discriminator 6
 2077 00d2 FB78     		ldrb	r3, [r7, #3]	@ zero_extendqisi2	@ tmp152, UARTIntCfg
 2078 00d4 042B     		cmp	r3, #4	@ tmp152,
 2079 00d6 19D0     		beq	.L156	@,
 2080              		.loc 1 809 0 discriminator 7
 2081 00d8 40F22931 		movw	r1, #809	@,
 2082 00dc 2848     		ldr	r0, .L163+16	@,
 2083 00de FFF7FEFF 		bl	check_failed	@
 2084 00e2 13E0     		b	.L156	@
 2085              	.L155:
 810:core/lpc17xx_uart.c **** 	}
 811:core/lpc17xx_uart.c **** 	else
 812:core/lpc17xx_uart.c **** 	{
 813:core/lpc17xx_uart.c **** 		CHECK_PARAM(PARAM_UART_INTCFG(UARTIntCfg));
 2086              		.loc 1 813 0 is_stmt 1
 2087 00e4 FB78     		ldrb	r3, [r7, #3]	@ zero_extendqisi2	@ tmp153, UARTIntCfg
 2088 00e6 002B     		cmp	r3, #0	@ tmp153,
 2089 00e8 10D0     		beq	.L156	@,
 2090              		.loc 1 813 0 is_stmt 0 discriminator 1
 2091 00ea FB78     		ldrb	r3, [r7, #3]	@ zero_extendqisi2	@ tmp154, UARTIntCfg
 2092 00ec 012B     		cmp	r3, #1	@ tmp154,
 2093 00ee 0DD0     		beq	.L156	@,
 2094              		.loc 1 813 0 discriminator 2
 2095 00f0 FB78     		ldrb	r3, [r7, #3]	@ zero_extendqisi2	@ tmp155, UARTIntCfg
 2096 00f2 022B     		cmp	r3, #2	@ tmp155,
 2097 00f4 0AD0     		beq	.L156	@,
 2098              		.loc 1 813 0 discriminator 3
 2099 00f6 FB78     		ldrb	r3, [r7, #3]	@ zero_extendqisi2	@ tmp156, UARTIntCfg
 2100 00f8 052B     		cmp	r3, #5	@ tmp156,
 2101 00fa 07D0     		beq	.L156	@,
 2102              		.loc 1 813 0 discriminator 4
 2103 00fc FB78     		ldrb	r3, [r7, #3]	@ zero_extendqisi2	@ tmp157, UARTIntCfg
 2104 00fe 062B     		cmp	r3, #6	@ tmp157,
 2105 0100 04D0     		beq	.L156	@,
 2106              		.loc 1 813 0 discriminator 5
 2107 0102 40F22D31 		movw	r1, #813	@,
 2108 0106 1E48     		ldr	r0, .L163+16	@,
 2109 0108 FFF7FEFF 		bl	check_failed	@
 2110              	.L156:
 814:core/lpc17xx_uart.c **** 	}
 815:core/lpc17xx_uart.c **** 
 816:core/lpc17xx_uart.c **** 	if (NewState == ENABLE)
 2111              		.loc 1 816 0 is_stmt 1
 2112 010c BB78     		ldrb	r3, [r7, #2]	@ zero_extendqisi2	@ tmp158, NewState
 2113 010e 012B     		cmp	r3, #1	@ tmp158,
 2114 0110 11D1     		bne	.L157	@,
 817:core/lpc17xx_uart.c **** 	{
 818:core/lpc17xx_uart.c **** 		if ((LPC_UART1_TypeDef *) UARTx == LPC_UART1)
 2115              		.loc 1 818 0
 2116 0112 7B68     		ldr	r3, [r7, #4]	@ tmp159, UARTx
 2117 0114 174A     		ldr	r2, .L163+4	@ tmp160,
 2118 0116 9342     		cmp	r3, r2	@ tmp159, tmp160
 2119 0118 06D1     		bne	.L158	@,
 819:core/lpc17xx_uart.c **** 		{
ARM GAS  C:\Users\STUDENT\AppData\Local\Temp\ccMxouBa.s 			page 53


 820:core/lpc17xx_uart.c **** 			((LPC_UART1_TypeDef *)UARTx)->/*DLIER.*/IER |= tmp;
 2120              		.loc 1 820 0
 2121 011a 7B68     		ldr	r3, [r7, #4]	@ tmp161, UARTx
 2122 011c 5A68     		ldr	r2, [r3, #4]	@ D.6721, MEM[(struct LPC_UART1_TypeDef *)UARTx_7(D)].D.4875.IER
 2123 011e FB68     		ldr	r3, [r7, #12]	@ tmp162, tmp
 2124 0120 1A43     		orrs	r2, r2, r3	@, D.6721, D.6721, tmp162
 2125 0122 7B68     		ldr	r3, [r7, #4]	@ tmp163, UARTx
 2126 0124 5A60     		str	r2, [r3, #4]	@ D.6721, MEM[(struct LPC_UART1_TypeDef *)UARTx_7(D)].D.4875.IER
 821:core/lpc17xx_uart.c **** 		}
 822:core/lpc17xx_uart.c **** 		else
 823:core/lpc17xx_uart.c **** 		{
 824:core/lpc17xx_uart.c **** 			UARTx->/*DLIER.*/IER |= tmp;
 825:core/lpc17xx_uart.c **** 		}
 826:core/lpc17xx_uart.c **** 	}
 827:core/lpc17xx_uart.c **** 	else
 828:core/lpc17xx_uart.c **** 	{
 829:core/lpc17xx_uart.c **** 		if ((LPC_UART1_TypeDef *) UARTx == LPC_UART1)
 830:core/lpc17xx_uart.c **** 		{
 831:core/lpc17xx_uart.c **** 			((LPC_UART1_TypeDef *)UARTx)->/*DLIER.*/IER &= (~tmp) & UART1_IER_BITMASK;
 832:core/lpc17xx_uart.c **** 		}
 833:core/lpc17xx_uart.c **** 		else
 834:core/lpc17xx_uart.c **** 		{
 835:core/lpc17xx_uart.c **** 			UARTx->/*DLIER.*/IER &= (~tmp) & UART_IER_BITMASK;
 836:core/lpc17xx_uart.c **** 		}
 837:core/lpc17xx_uart.c **** 	}
 838:core/lpc17xx_uart.c **** }
 2127              		.loc 1 838 0
 2128 0126 1FE0     		b	.L162	@
 2129              	.L158:
 824:core/lpc17xx_uart.c **** 		}
 2130              		.loc 1 824 0
 2131 0128 7B68     		ldr	r3, [r7, #4]	@ tmp164, UARTx
 2132 012a 5A68     		ldr	r2, [r3, #4]	@ D.6721, UARTx_7(D)->D.4815.IER
 2133 012c FB68     		ldr	r3, [r7, #12]	@ tmp165, tmp
 2134 012e 1A43     		orrs	r2, r2, r3	@, D.6721, D.6721, tmp165
 2135 0130 7B68     		ldr	r3, [r7, #4]	@ tmp166, UARTx
 2136 0132 5A60     		str	r2, [r3, #4]	@ D.6721, UARTx_7(D)->D.4815.IER
 2137              		.loc 1 838 0
 2138 0134 18E0     		b	.L162	@
 2139              	.L157:
 829:core/lpc17xx_uart.c **** 		{
 2140              		.loc 1 829 0
 2141 0136 7B68     		ldr	r3, [r7, #4]	@ tmp167, UARTx
 2142 0138 0E4A     		ldr	r2, .L163+4	@ tmp168,
 2143 013a 9342     		cmp	r3, r2	@ tmp167, tmp168
 2144 013c 0AD1     		bne	.L161	@,
 831:core/lpc17xx_uart.c **** 		}
 2145              		.loc 1 831 0
 2146 013e 7B68     		ldr	r3, [r7, #4]	@ tmp169, UARTx
 2147 0140 5A68     		ldr	r2, [r3, #4]	@ D.6721, MEM[(struct LPC_UART1_TypeDef *)UARTx_7(D)].D.4875.IER
 2148 0142 FB68     		ldr	r3, [r7, #12]	@ tmp170, tmp
 2149 0144 DB43     		mvns	r3, r3	@ D.6721, tmp170
 2150 0146 1A40     		ands	r2, r2, r3	@, D.6721, D.6721, D.6721
 2151 0148 40F28F33 		movw	r3, #911	@ D.6721,
 2152 014c 1340     		ands	r3, r3, r2	@, D.6721, D.6721, D.6721
 2153 014e 7A68     		ldr	r2, [r7, #4]	@ tmp171, UARTx
 2154 0150 5360     		str	r3, [r2, #4]	@ D.6721, MEM[(struct LPC_UART1_TypeDef *)UARTx_7(D)].D.4875.IER
ARM GAS  C:\Users\STUDENT\AppData\Local\Temp\ccMxouBa.s 			page 54


 2155              		.loc 1 838 0
 2156 0152 09E0     		b	.L162	@
 2157              	.L161:
 835:core/lpc17xx_uart.c **** 		}
 2158              		.loc 1 835 0
 2159 0154 7B68     		ldr	r3, [r7, #4]	@ tmp172, UARTx
 2160 0156 5A68     		ldr	r2, [r3, #4]	@ D.6721, UARTx_7(D)->D.4815.IER
 2161 0158 FB68     		ldr	r3, [r7, #12]	@ tmp173, tmp
 2162 015a DB43     		mvns	r3, r3	@ D.6721, tmp173
 2163 015c 1A40     		ands	r2, r2, r3	@, D.6721, D.6721, D.6721
 2164 015e 40F20733 		movw	r3, #775	@ D.6721,
 2165 0162 1340     		ands	r3, r3, r2	@, D.6721, D.6721, D.6721
 2166 0164 7A68     		ldr	r2, [r7, #4]	@ tmp174, UARTx
 2167 0166 5360     		str	r3, [r2, #4]	@ D.6721, UARTx_7(D)->D.4815.IER
 2168              	.L162:
 2169              		.loc 1 838 0
 2170 0168 00BF     		nop
 2171 016a 1037     		adds	r7, r7, #16	@,,
 2172              		.cfi_def_cfa_offset 8
 2173 016c BD46     		mov	sp, r7	@,
 2174              		.cfi_def_cfa_register 13
 2175              		@ sp needed	@
 2176 016e 80BD     		pop	{r7, pc}	@
 2177              	.L164:
 2178              		.align	2
 2179              	.L163:
 2180 0170 00C00040 		.word	1073790976
 2181 0174 00000140 		.word	1073807360
 2182 0178 00800940 		.word	1074364416
 2183 017c 00C00940 		.word	1074380800
 2184 0180 00000000 		.word	.LC0
 2185              		.cfi_endproc
 2186              	.LFE67:
 2187              		.size	UART_IntConfig, .-UART_IntConfig
 2188              		.section	.text.UART_GetLineStatus,"ax",%progbits
 2189              		.align	2
 2190              		.global	UART_GetLineStatus
 2191              		.thumb
 2192              		.thumb_func
 2193              		.type	UART_GetLineStatus, %function
 2194              	UART_GetLineStatus:
 2195              	.LFB68:
 839:core/lpc17xx_uart.c **** 
 840:core/lpc17xx_uart.c **** 
 841:core/lpc17xx_uart.c **** /********************************************************************//**
 842:core/lpc17xx_uart.c ****  * @brief 		Get current value of Line Status register in UART peripheral.
 843:core/lpc17xx_uart.c ****  * @param[in]	UARTx	UART peripheral selected, should be UART0, UART1,
 844:core/lpc17xx_uart.c ****  * 						UART2 or UART3.
 845:core/lpc17xx_uart.c ****  * @return		Current value of Line Status register in UART peripheral.
 846:core/lpc17xx_uart.c ****  * Note:	The return value of this function must be ANDed with each member in
 847:core/lpc17xx_uart.c ****  * 			UART_LS_Type enumeration to determine current flag status
 848:core/lpc17xx_uart.c ****  * 			corresponding to each Line status type. Because some flags in
 849:core/lpc17xx_uart.c ****  * 			Line Status register will be cleared after reading, the next reading
 850:core/lpc17xx_uart.c ****  * 			Line Status register could not be correct. So this function used to
 851:core/lpc17xx_uart.c ****  * 			read Line status register in one time only, then the return value
 852:core/lpc17xx_uart.c ****  * 			used to check all flags.
 853:core/lpc17xx_uart.c ****  *********************************************************************/
ARM GAS  C:\Users\STUDENT\AppData\Local\Temp\ccMxouBa.s 			page 55


 854:core/lpc17xx_uart.c **** uint8_t UART_GetLineStatus(LPC_UART_TypeDef* UARTx)
 855:core/lpc17xx_uart.c **** {
 2196              		.loc 1 855 0
 2197              		.cfi_startproc
 2198              		@ args = 0, pretend = 0, frame = 8
 2199              		@ frame_needed = 1, uses_anonymous_args = 0
 2200 0000 80B5     		push	{r7, lr}	@
 2201              		.cfi_def_cfa_offset 8
 2202              		.cfi_offset 7, -8
 2203              		.cfi_offset 14, -4
 2204 0002 82B0     		sub	sp, sp, #8	@,,
 2205              		.cfi_def_cfa_offset 16
 2206 0004 00AF     		add	r7, sp, #0	@,,
 2207              		.cfi_def_cfa_register 7
 2208 0006 7860     		str	r0, [r7, #4]	@ UARTx, UARTx
 856:core/lpc17xx_uart.c **** 	CHECK_PARAM(PARAM_UARTx(UARTx));
 2209              		.loc 1 856 0
 2210 0008 7B68     		ldr	r3, [r7, #4]	@ tmp113, UARTx
 2211 000a 114A     		ldr	r2, .L169	@ tmp114,
 2212 000c 9342     		cmp	r3, r2	@ tmp113, tmp114
 2213 000e 10D0     		beq	.L166	@,
 2214              		.loc 1 856 0 is_stmt 0 discriminator 1
 2215 0010 7B68     		ldr	r3, [r7, #4]	@ tmp115, UARTx
 2216 0012 104A     		ldr	r2, .L169+4	@ tmp116,
 2217 0014 9342     		cmp	r3, r2	@ tmp115, tmp116
 2218 0016 0CD0     		beq	.L166	@,
 2219              		.loc 1 856 0 discriminator 2
 2220 0018 7B68     		ldr	r3, [r7, #4]	@ tmp117, UARTx
 2221 001a 0F4A     		ldr	r2, .L169+8	@ tmp118,
 2222 001c 9342     		cmp	r3, r2	@ tmp117, tmp118
 2223 001e 08D0     		beq	.L166	@,
 2224              		.loc 1 856 0 discriminator 3
 2225 0020 7B68     		ldr	r3, [r7, #4]	@ tmp119, UARTx
 2226 0022 0E4A     		ldr	r2, .L169+12	@ tmp120,
 2227 0024 9342     		cmp	r3, r2	@ tmp119, tmp120
 2228 0026 04D0     		beq	.L166	@,
 2229              		.loc 1 856 0 discriminator 4
 2230 0028 4FF45671 		mov	r1, #856	@,
 2231 002c 0C48     		ldr	r0, .L169+16	@,
 2232 002e FFF7FEFF 		bl	check_failed	@
 2233              	.L166:
 857:core/lpc17xx_uart.c **** 
 858:core/lpc17xx_uart.c **** 	if (((LPC_UART1_TypeDef *)UARTx) == LPC_UART1)
 2234              		.loc 1 858 0 is_stmt 1
 2235 0032 7B68     		ldr	r3, [r7, #4]	@ tmp121, UARTx
 2236 0034 074A     		ldr	r2, .L169+4	@ tmp122,
 2237 0036 9342     		cmp	r3, r2	@ tmp121, tmp122
 2238 0038 03D1     		bne	.L167	@,
 859:core/lpc17xx_uart.c **** 	{
 860:core/lpc17xx_uart.c **** 		return ((((LPC_UART1_TypeDef *)LPC_UART1)->LSR) & UART_LSR_BITMASK);
 2239              		.loc 1 860 0
 2240 003a 064B     		ldr	r3, .L169+4	@ D.6723,
 2241 003c 1B7D     		ldrb	r3, [r3, #20]	@ tmp124, _6->LSR
 2242 003e DBB2     		uxtb	r3, r3	@ D.6722, tmp124
 2243 0040 02E0     		b	.L168	@
 2244              	.L167:
 861:core/lpc17xx_uart.c **** 	}
ARM GAS  C:\Users\STUDENT\AppData\Local\Temp\ccMxouBa.s 			page 56


 862:core/lpc17xx_uart.c **** 	else
 863:core/lpc17xx_uart.c **** 	{
 864:core/lpc17xx_uart.c **** 		return ((UARTx->LSR) & UART_LSR_BITMASK);
 2245              		.loc 1 864 0
 2246 0042 7B68     		ldr	r3, [r7, #4]	@ tmp125, UARTx
 2247 0044 1B7D     		ldrb	r3, [r3, #20]	@ tmp127, UARTx_3(D)->LSR
 2248 0046 DBB2     		uxtb	r3, r3	@ D.6722, tmp127
 2249              	.L168:
 865:core/lpc17xx_uart.c **** 	}
 866:core/lpc17xx_uart.c **** }
 2250              		.loc 1 866 0
 2251 0048 1846     		mov	r0, r3	@, <retval>
 2252 004a 0837     		adds	r7, r7, #8	@,,
 2253              		.cfi_def_cfa_offset 8
 2254 004c BD46     		mov	sp, r7	@,
 2255              		.cfi_def_cfa_register 13
 2256              		@ sp needed	@
 2257 004e 80BD     		pop	{r7, pc}	@
 2258              	.L170:
 2259              		.align	2
 2260              	.L169:
 2261 0050 00C00040 		.word	1073790976
 2262 0054 00000140 		.word	1073807360
 2263 0058 00800940 		.word	1074364416
 2264 005c 00C00940 		.word	1074380800
 2265 0060 00000000 		.word	.LC0
 2266              		.cfi_endproc
 2267              	.LFE68:
 2268              		.size	UART_GetLineStatus, .-UART_GetLineStatus
 2269              		.section	.text.UART_CheckBusy,"ax",%progbits
 2270              		.align	2
 2271              		.global	UART_CheckBusy
 2272              		.thumb
 2273              		.thumb_func
 2274              		.type	UART_CheckBusy, %function
 2275              	UART_CheckBusy:
 2276              	.LFB69:
 867:core/lpc17xx_uart.c **** 
 868:core/lpc17xx_uart.c **** /*********************************************************************//**
 869:core/lpc17xx_uart.c ****  * @brief		Check whether if UART is busy or not
 870:core/lpc17xx_uart.c ****  * @param[in]	UARTx	UART peripheral selected, should be UART0, UART1,
 871:core/lpc17xx_uart.c ****  * 						UART2 or UART3.
 872:core/lpc17xx_uart.c ****  * @return		RESET if UART is not busy, otherwise return SET.
 873:core/lpc17xx_uart.c ****  **********************************************************************/
 874:core/lpc17xx_uart.c **** FlagStatus UART_CheckBusy(LPC_UART_TypeDef *UARTx)
 875:core/lpc17xx_uart.c **** {
 2277              		.loc 1 875 0
 2278              		.cfi_startproc
 2279              		@ args = 0, pretend = 0, frame = 8
 2280              		@ frame_needed = 1, uses_anonymous_args = 0
 2281              		@ link register save eliminated.
 2282 0000 80B4     		push	{r7}	@
 2283              		.cfi_def_cfa_offset 4
 2284              		.cfi_offset 7, -4
 2285 0002 83B0     		sub	sp, sp, #12	@,,
 2286              		.cfi_def_cfa_offset 16
 2287 0004 00AF     		add	r7, sp, #0	@,,
ARM GAS  C:\Users\STUDENT\AppData\Local\Temp\ccMxouBa.s 			page 57


 2288              		.cfi_def_cfa_register 7
 2289 0006 7860     		str	r0, [r7, #4]	@ UARTx, UARTx
 876:core/lpc17xx_uart.c **** 	if (UARTx->LSR & UART_LSR_TEMT){
 2290              		.loc 1 876 0
 2291 0008 7B68     		ldr	r3, [r7, #4]	@ tmp115, UARTx
 2292 000a 1B7D     		ldrb	r3, [r3, #20]	@ tmp117, UARTx_3(D)->LSR
 2293 000c DBB2     		uxtb	r3, r3	@ D.6725, tmp117
 2294 000e 03F04003 		and	r3, r3, #64	@ D.6726, D.6726,
 2295 0012 002B     		cmp	r3, #0	@ D.6726,
 2296 0014 01D0     		beq	.L172	@,
 877:core/lpc17xx_uart.c **** 		return RESET;
 2297              		.loc 1 877 0
 2298 0016 0023     		movs	r3, #0	@ D.6724,
 2299 0018 00E0     		b	.L173	@
 2300              	.L172:
 878:core/lpc17xx_uart.c **** 	} else {
 879:core/lpc17xx_uart.c **** 		return SET;
 2301              		.loc 1 879 0
 2302 001a 0123     		movs	r3, #1	@ D.6724,
 2303              	.L173:
 880:core/lpc17xx_uart.c **** 	}
 881:core/lpc17xx_uart.c **** }
 2304              		.loc 1 881 0
 2305 001c 1846     		mov	r0, r3	@, <retval>
 2306 001e 0C37     		adds	r7, r7, #12	@,,
 2307              		.cfi_def_cfa_offset 4
 2308 0020 BD46     		mov	sp, r7	@,
 2309              		.cfi_def_cfa_register 13
 2310              		@ sp needed	@
 2311 0022 80BC     		pop	{r7}	@
 2312              		.cfi_restore 7
 2313              		.cfi_def_cfa_offset 0
 2314 0024 7047     		bx	lr	@
 2315              		.cfi_endproc
 2316              	.LFE69:
 2317              		.size	UART_CheckBusy, .-UART_CheckBusy
 2318 0026 00BF     		.section	.text.UART_FIFOConfig,"ax",%progbits
 2319              		.align	2
 2320              		.global	UART_FIFOConfig
 2321              		.thumb
 2322              		.thumb_func
 2323              		.type	UART_FIFOConfig, %function
 2324              	UART_FIFOConfig:
 2325              	.LFB70:
 882:core/lpc17xx_uart.c **** 
 883:core/lpc17xx_uart.c **** 
 884:core/lpc17xx_uart.c **** /*********************************************************************//**
 885:core/lpc17xx_uart.c ****  * @brief		Configure FIFO function on selected UART peripheral
 886:core/lpc17xx_uart.c ****  * @param[in]	UARTx	UART peripheral selected, should be UART0, UART1,
 887:core/lpc17xx_uart.c ****  * 						UART2 or UART3.
 888:core/lpc17xx_uart.c ****  * @param[in]	FIFOCfg	Pointer to a UART_FIFO_CFG_Type Structure that
 889:core/lpc17xx_uart.c ****  * 						contains specified information about FIFO configuration
 890:core/lpc17xx_uart.c ****  * @return 		none
 891:core/lpc17xx_uart.c ****  **********************************************************************/
 892:core/lpc17xx_uart.c **** void UART_FIFOConfig(LPC_UART_TypeDef *UARTx, UART_FIFO_CFG_Type *FIFOCfg)
 893:core/lpc17xx_uart.c **** {
 2326              		.loc 1 893 0
ARM GAS  C:\Users\STUDENT\AppData\Local\Temp\ccMxouBa.s 			page 58


 2327              		.cfi_startproc
 2328              		@ args = 0, pretend = 0, frame = 16
 2329              		@ frame_needed = 1, uses_anonymous_args = 0
 2330 0000 80B5     		push	{r7, lr}	@
 2331              		.cfi_def_cfa_offset 8
 2332              		.cfi_offset 7, -8
 2333              		.cfi_offset 14, -4
 2334 0002 84B0     		sub	sp, sp, #16	@,,
 2335              		.cfi_def_cfa_offset 24
 2336 0004 00AF     		add	r7, sp, #0	@,,
 2337              		.cfi_def_cfa_register 7
 2338 0006 7860     		str	r0, [r7, #4]	@ UARTx, UARTx
 2339 0008 3960     		str	r1, [r7]	@ FIFOCfg, FIFOCfg
 894:core/lpc17xx_uart.c **** 	uint8_t tmp = 0;
 2340              		.loc 1 894 0
 2341 000a 0023     		movs	r3, #0	@ tmp127,
 2342 000c FB73     		strb	r3, [r7, #15]	@ tmp128, tmp
 895:core/lpc17xx_uart.c **** 
 896:core/lpc17xx_uart.c **** 	CHECK_PARAM(PARAM_UARTx(UARTx));
 2343              		.loc 1 896 0
 2344 000e 7B68     		ldr	r3, [r7, #4]	@ tmp129, UARTx
 2345 0010 4C4A     		ldr	r2, .L193	@ tmp130,
 2346 0012 9342     		cmp	r3, r2	@ tmp129, tmp130
 2347 0014 10D0     		beq	.L175	@,
 2348              		.loc 1 896 0 is_stmt 0 discriminator 1
 2349 0016 7B68     		ldr	r3, [r7, #4]	@ tmp131, UARTx
 2350 0018 4B4A     		ldr	r2, .L193+4	@ tmp132,
 2351 001a 9342     		cmp	r3, r2	@ tmp131, tmp132
 2352 001c 0CD0     		beq	.L175	@,
 2353              		.loc 1 896 0 discriminator 2
 2354 001e 7B68     		ldr	r3, [r7, #4]	@ tmp133, UARTx
 2355 0020 4A4A     		ldr	r2, .L193+8	@ tmp134,
 2356 0022 9342     		cmp	r3, r2	@ tmp133, tmp134
 2357 0024 08D0     		beq	.L175	@,
 2358              		.loc 1 896 0 discriminator 3
 2359 0026 7B68     		ldr	r3, [r7, #4]	@ tmp135, UARTx
 2360 0028 494A     		ldr	r2, .L193+12	@ tmp136,
 2361 002a 9342     		cmp	r3, r2	@ tmp135, tmp136
 2362 002c 04D0     		beq	.L175	@,
 2363              		.loc 1 896 0 discriminator 4
 2364 002e 4FF46071 		mov	r1, #896	@,
 2365 0032 4848     		ldr	r0, .L193+16	@,
 2366 0034 FFF7FEFF 		bl	check_failed	@
 2367              	.L175:
 897:core/lpc17xx_uart.c **** 	CHECK_PARAM(PARAM_UART_FIFO_LEVEL(FIFOCfg->FIFO_Level));
 2368              		.loc 1 897 0 is_stmt 1
 2369 0038 3B68     		ldr	r3, [r7]	@ tmp137, FIFOCfg
 2370 003a DB78     		ldrb	r3, [r3, #3]	@ zero_extendqisi2	@ D.6727, FIFOCfg_15(D)->FIFO_Level
 2371 003c 002B     		cmp	r3, #0	@ D.6727,
 2372 003e 10D0     		beq	.L176	@,
 2373              		.loc 1 897 0 is_stmt 0 discriminator 1
 2374 0040 3B68     		ldr	r3, [r7]	@ tmp138, FIFOCfg
 2375 0042 DB78     		ldrb	r3, [r3, #3]	@ zero_extendqisi2	@ D.6727, FIFOCfg_15(D)->FIFO_Level
 2376 0044 012B     		cmp	r3, #1	@ D.6727,
 2377 0046 0CD0     		beq	.L176	@,
 2378              		.loc 1 897 0 discriminator 2
 2379 0048 3B68     		ldr	r3, [r7]	@ tmp139, FIFOCfg
ARM GAS  C:\Users\STUDENT\AppData\Local\Temp\ccMxouBa.s 			page 59


 2380 004a DB78     		ldrb	r3, [r3, #3]	@ zero_extendqisi2	@ D.6727, FIFOCfg_15(D)->FIFO_Level
 2381 004c 022B     		cmp	r3, #2	@ D.6727,
 2382 004e 08D0     		beq	.L176	@,
 2383              		.loc 1 897 0 discriminator 3
 2384 0050 3B68     		ldr	r3, [r7]	@ tmp140, FIFOCfg
 2385 0052 DB78     		ldrb	r3, [r3, #3]	@ zero_extendqisi2	@ D.6727, FIFOCfg_15(D)->FIFO_Level
 2386 0054 032B     		cmp	r3, #3	@ D.6727,
 2387 0056 04D0     		beq	.L176	@,
 2388              		.loc 1 897 0 discriminator 4
 2389 0058 40F28131 		movw	r1, #897	@,
 2390 005c 3D48     		ldr	r0, .L193+16	@,
 2391 005e FFF7FEFF 		bl	check_failed	@
 2392              	.L176:
 898:core/lpc17xx_uart.c **** 	CHECK_PARAM(PARAM_FUNCTIONALSTATE(FIFOCfg->FIFO_DMAMode));
 2393              		.loc 1 898 0 is_stmt 1
 2394 0062 3B68     		ldr	r3, [r7]	@ tmp141, FIFOCfg
 2395 0064 9B78     		ldrb	r3, [r3, #2]	@ zero_extendqisi2	@ D.6728, FIFOCfg_15(D)->FIFO_DMAMode
 2396 0066 002B     		cmp	r3, #0	@ D.6728,
 2397 0068 08D0     		beq	.L177	@,
 2398              		.loc 1 898 0 is_stmt 0 discriminator 1
 2399 006a 3B68     		ldr	r3, [r7]	@ tmp142, FIFOCfg
 2400 006c 9B78     		ldrb	r3, [r3, #2]	@ zero_extendqisi2	@ D.6728, FIFOCfg_15(D)->FIFO_DMAMode
 2401 006e 012B     		cmp	r3, #1	@ D.6728,
 2402 0070 04D0     		beq	.L177	@,
 2403              		.loc 1 898 0 discriminator 2
 2404 0072 40F28231 		movw	r1, #898	@,
 2405 0076 3748     		ldr	r0, .L193+16	@,
 2406 0078 FFF7FEFF 		bl	check_failed	@
 2407              	.L177:
 899:core/lpc17xx_uart.c **** 	CHECK_PARAM(PARAM_FUNCTIONALSTATE(FIFOCfg->FIFO_ResetRxBuf));
 2408              		.loc 1 899 0 is_stmt 1
 2409 007c 3B68     		ldr	r3, [r7]	@ tmp143, FIFOCfg
 2410 007e 1B78     		ldrb	r3, [r3]	@ zero_extendqisi2	@ D.6728, FIFOCfg_15(D)->FIFO_ResetRxBuf
 2411 0080 002B     		cmp	r3, #0	@ D.6728,
 2412 0082 08D0     		beq	.L178	@,
 2413              		.loc 1 899 0 is_stmt 0 discriminator 1
 2414 0084 3B68     		ldr	r3, [r7]	@ tmp144, FIFOCfg
 2415 0086 1B78     		ldrb	r3, [r3]	@ zero_extendqisi2	@ D.6728, FIFOCfg_15(D)->FIFO_ResetRxBuf
 2416 0088 012B     		cmp	r3, #1	@ D.6728,
 2417 008a 04D0     		beq	.L178	@,
 2418              		.loc 1 899 0 discriminator 2
 2419 008c 40F28331 		movw	r1, #899	@,
 2420 0090 3048     		ldr	r0, .L193+16	@,
 2421 0092 FFF7FEFF 		bl	check_failed	@
 2422              	.L178:
 900:core/lpc17xx_uart.c **** 	CHECK_PARAM(PARAM_FUNCTIONALSTATE(FIFOCfg->FIFO_ResetTxBuf));
 2423              		.loc 1 900 0 is_stmt 1
 2424 0096 3B68     		ldr	r3, [r7]	@ tmp145, FIFOCfg
 2425 0098 5B78     		ldrb	r3, [r3, #1]	@ zero_extendqisi2	@ D.6728, FIFOCfg_15(D)->FIFO_ResetTxBuf
 2426 009a 002B     		cmp	r3, #0	@ D.6728,
 2427 009c 08D0     		beq	.L179	@,
 2428              		.loc 1 900 0 is_stmt 0 discriminator 1
 2429 009e 3B68     		ldr	r3, [r7]	@ tmp146, FIFOCfg
 2430 00a0 5B78     		ldrb	r3, [r3, #1]	@ zero_extendqisi2	@ D.6728, FIFOCfg_15(D)->FIFO_ResetTxBuf
 2431 00a2 012B     		cmp	r3, #1	@ D.6728,
 2432 00a4 04D0     		beq	.L179	@,
 2433              		.loc 1 900 0 discriminator 2
ARM GAS  C:\Users\STUDENT\AppData\Local\Temp\ccMxouBa.s 			page 60


 2434 00a6 4FF46171 		mov	r1, #900	@,
 2435 00aa 2A48     		ldr	r0, .L193+16	@,
 2436 00ac FFF7FEFF 		bl	check_failed	@
 2437              	.L179:
 901:core/lpc17xx_uart.c **** 
 902:core/lpc17xx_uart.c **** 	tmp |= UART_FCR_FIFO_EN;
 2438              		.loc 1 902 0 is_stmt 1
 2439 00b0 FB7B     		ldrb	r3, [r7, #15]	@ tmp147, tmp
 2440 00b2 43F00103 		orr	r3, r3, #1	@ tmp148, tmp147,
 2441 00b6 FB73     		strb	r3, [r7, #15]	@ tmp149, tmp
 903:core/lpc17xx_uart.c **** 	switch (FIFOCfg->FIFO_Level){
 2442              		.loc 1 903 0
 2443 00b8 3B68     		ldr	r3, [r7]	@ tmp150, FIFOCfg
 2444 00ba DB78     		ldrb	r3, [r3, #3]	@ zero_extendqisi2	@ D.6727, FIFOCfg_15(D)->FIFO_Level
 2445 00bc 012B     		cmp	r3, #1	@ D.6729,
 2446 00be 04D0     		beq	.L181	@,
 2447 00c0 022B     		cmp	r3, #2	@ D.6729,
 2448 00c2 07D0     		beq	.L182	@,
 2449 00c4 002B     		cmp	r3, #0	@ D.6729,
 2450 00c6 0FD0     		beq	.L191	@,
 2451 00c8 09E0     		b	.L190	@
 2452              	.L181:
 904:core/lpc17xx_uart.c **** 	case UART_FIFO_TRGLEV0:
 905:core/lpc17xx_uart.c **** 		tmp |= UART_FCR_TRG_LEV0;
 906:core/lpc17xx_uart.c **** 		break;
 907:core/lpc17xx_uart.c **** 	case UART_FIFO_TRGLEV1:
 908:core/lpc17xx_uart.c **** 		tmp |= UART_FCR_TRG_LEV1;
 2453              		.loc 1 908 0
 2454 00ca FB7B     		ldrb	r3, [r7, #15]	@ tmp151, tmp
 2455 00cc 43F04003 		orr	r3, r3, #64	@ tmp152, tmp151,
 2456 00d0 FB73     		strb	r3, [r7, #15]	@ tmp153, tmp
 909:core/lpc17xx_uart.c **** 		break;
 2457              		.loc 1 909 0
 2458 00d2 0AE0     		b	.L184	@
 2459              	.L182:
 910:core/lpc17xx_uart.c **** 	case UART_FIFO_TRGLEV2:
 911:core/lpc17xx_uart.c **** 		tmp |= UART_FCR_TRG_LEV2;
 2460              		.loc 1 911 0
 2461 00d4 FB7B     		ldrb	r3, [r7, #15]	@ tmp154, tmp
 2462 00d6 63F07F03 		orn	r3, r3, #127	@ tmp155, tmp154,
 2463 00da FB73     		strb	r3, [r7, #15]	@ tmp156, tmp
 912:core/lpc17xx_uart.c **** 		break;
 2464              		.loc 1 912 0
 2465 00dc 05E0     		b	.L184	@
 2466              	.L190:
 913:core/lpc17xx_uart.c **** 	case UART_FIFO_TRGLEV3:
 914:core/lpc17xx_uart.c **** 	default:
 915:core/lpc17xx_uart.c **** 		tmp |= UART_FCR_TRG_LEV3;
 2467              		.loc 1 915 0
 2468 00de FB7B     		ldrb	r3, [r7, #15]	@ tmp157, tmp
 2469 00e0 63F03F03 		orn	r3, r3, #63	@ tmp158, tmp157,
 2470 00e4 FB73     		strb	r3, [r7, #15]	@ tmp159, tmp
 916:core/lpc17xx_uart.c **** 		break;
 2471              		.loc 1 916 0
 2472 00e6 00E0     		b	.L184	@
 2473              	.L191:
 906:core/lpc17xx_uart.c **** 	case UART_FIFO_TRGLEV1:
ARM GAS  C:\Users\STUDENT\AppData\Local\Temp\ccMxouBa.s 			page 61


 2474              		.loc 1 906 0
 2475 00e8 00BF     		nop
 2476              	.L184:
 917:core/lpc17xx_uart.c **** 	}
 918:core/lpc17xx_uart.c **** 
 919:core/lpc17xx_uart.c **** 	if (FIFOCfg->FIFO_ResetTxBuf == ENABLE)
 2477              		.loc 1 919 0
 2478 00ea 3B68     		ldr	r3, [r7]	@ tmp160, FIFOCfg
 2479 00ec 5B78     		ldrb	r3, [r3, #1]	@ zero_extendqisi2	@ D.6728, FIFOCfg_15(D)->FIFO_ResetTxBuf
 2480 00ee 012B     		cmp	r3, #1	@ D.6728,
 2481 00f0 03D1     		bne	.L185	@,
 920:core/lpc17xx_uart.c **** 	{
 921:core/lpc17xx_uart.c **** 		tmp |= UART_FCR_TX_RS;
 2482              		.loc 1 921 0
 2483 00f2 FB7B     		ldrb	r3, [r7, #15]	@ tmp161, tmp
 2484 00f4 43F00403 		orr	r3, r3, #4	@ tmp162, tmp161,
 2485 00f8 FB73     		strb	r3, [r7, #15]	@ tmp163, tmp
 2486              	.L185:
 922:core/lpc17xx_uart.c **** 	}
 923:core/lpc17xx_uart.c **** 	if (FIFOCfg->FIFO_ResetRxBuf == ENABLE)
 2487              		.loc 1 923 0
 2488 00fa 3B68     		ldr	r3, [r7]	@ tmp164, FIFOCfg
 2489 00fc 1B78     		ldrb	r3, [r3]	@ zero_extendqisi2	@ D.6728, FIFOCfg_15(D)->FIFO_ResetRxBuf
 2490 00fe 012B     		cmp	r3, #1	@ D.6728,
 2491 0100 03D1     		bne	.L186	@,
 924:core/lpc17xx_uart.c **** 	{
 925:core/lpc17xx_uart.c **** 		tmp |= UART_FCR_RX_RS;
 2492              		.loc 1 925 0
 2493 0102 FB7B     		ldrb	r3, [r7, #15]	@ tmp165, tmp
 2494 0104 43F00203 		orr	r3, r3, #2	@ tmp166, tmp165,
 2495 0108 FB73     		strb	r3, [r7, #15]	@ tmp167, tmp
 2496              	.L186:
 926:core/lpc17xx_uart.c **** 	}
 927:core/lpc17xx_uart.c **** 	if (FIFOCfg->FIFO_DMAMode == ENABLE)
 2497              		.loc 1 927 0
 2498 010a 3B68     		ldr	r3, [r7]	@ tmp168, FIFOCfg
 2499 010c 9B78     		ldrb	r3, [r3, #2]	@ zero_extendqisi2	@ D.6728, FIFOCfg_15(D)->FIFO_DMAMode
 2500 010e 012B     		cmp	r3, #1	@ D.6728,
 2501 0110 03D1     		bne	.L187	@,
 928:core/lpc17xx_uart.c **** 	{
 929:core/lpc17xx_uart.c **** 		tmp |= UART_FCR_DMAMODE_SEL;
 2502              		.loc 1 929 0
 2503 0112 FB7B     		ldrb	r3, [r7, #15]	@ tmp169, tmp
 2504 0114 43F00803 		orr	r3, r3, #8	@ tmp170, tmp169,
 2505 0118 FB73     		strb	r3, [r7, #15]	@ tmp171, tmp
 2506              	.L187:
 930:core/lpc17xx_uart.c **** 	}
 931:core/lpc17xx_uart.c **** 
 932:core/lpc17xx_uart.c **** 
 933:core/lpc17xx_uart.c **** 	//write to FIFO control register
 934:core/lpc17xx_uart.c **** 	if (((LPC_UART1_TypeDef *)UARTx) == LPC_UART1)
 2507              		.loc 1 934 0
 2508 011a 7B68     		ldr	r3, [r7, #4]	@ tmp172, UARTx
 2509 011c 0A4A     		ldr	r2, .L193+4	@ tmp173,
 2510 011e 9342     		cmp	r3, r2	@ tmp172, tmp173
 2511 0120 06D1     		bne	.L188	@,
 935:core/lpc17xx_uart.c **** 	{
ARM GAS  C:\Users\STUDENT\AppData\Local\Temp\ccMxouBa.s 			page 62


 936:core/lpc17xx_uart.c **** 		((LPC_UART1_TypeDef *)UARTx)->/*IIFCR.*/FCR = tmp & UART_FCR_BITMASK;
 2512              		.loc 1 936 0
 2513 0122 FB7B     		ldrb	r3, [r7, #15]	@ tmp174, tmp
 2514 0124 23F03003 		bic	r3, r3, #48	@ tmp175, tmp174,
 2515 0128 DAB2     		uxtb	r2, r3	@ D.6730, tmp175
 2516 012a 7B68     		ldr	r3, [r7, #4]	@ tmp176, UARTx
 2517 012c 1A72     		strb	r2, [r3, #8]	@ tmp177, MEM[(struct LPC_UART1_TypeDef *)UARTx_12(D)].D.4879.FCR
 937:core/lpc17xx_uart.c **** 	}
 938:core/lpc17xx_uart.c **** 	else
 939:core/lpc17xx_uart.c **** 	{
 940:core/lpc17xx_uart.c **** 		UARTx->/*IIFCR.*/FCR = tmp & UART_FCR_BITMASK;
 941:core/lpc17xx_uart.c **** 	}
 942:core/lpc17xx_uart.c **** 
 943:core/lpc17xx_uart.c **** }
 2518              		.loc 1 943 0
 2519 012e 05E0     		b	.L192	@
 2520              	.L188:
 940:core/lpc17xx_uart.c **** 	}
 2521              		.loc 1 940 0
 2522 0130 FB7B     		ldrb	r3, [r7, #15]	@ tmp178, tmp
 2523 0132 23F03003 		bic	r3, r3, #48	@ tmp179, tmp178,
 2524 0136 DAB2     		uxtb	r2, r3	@ D.6730, tmp179
 2525 0138 7B68     		ldr	r3, [r7, #4]	@ tmp180, UARTx
 2526 013a 1A72     		strb	r2, [r3, #8]	@ tmp181, UARTx_12(D)->D.4819.FCR
 2527              	.L192:
 2528              		.loc 1 943 0
 2529 013c 00BF     		nop
 2530 013e 1037     		adds	r7, r7, #16	@,,
 2531              		.cfi_def_cfa_offset 8
 2532 0140 BD46     		mov	sp, r7	@,
 2533              		.cfi_def_cfa_register 13
 2534              		@ sp needed	@
 2535 0142 80BD     		pop	{r7, pc}	@
 2536              	.L194:
 2537              		.align	2
 2538              	.L193:
 2539 0144 00C00040 		.word	1073790976
 2540 0148 00000140 		.word	1073807360
 2541 014c 00800940 		.word	1074364416
 2542 0150 00C00940 		.word	1074380800
 2543 0154 00000000 		.word	.LC0
 2544              		.cfi_endproc
 2545              	.LFE70:
 2546              		.size	UART_FIFOConfig, .-UART_FIFOConfig
 2547              		.section	.text.UART_FIFOConfigStructInit,"ax",%progbits
 2548              		.align	2
 2549              		.global	UART_FIFOConfigStructInit
 2550              		.thumb
 2551              		.thumb_func
 2552              		.type	UART_FIFOConfigStructInit, %function
 2553              	UART_FIFOConfigStructInit:
 2554              	.LFB71:
 944:core/lpc17xx_uart.c **** 
 945:core/lpc17xx_uart.c **** 
 946:core/lpc17xx_uart.c **** /*****************************************************************************//**
 947:core/lpc17xx_uart.c **** * @brief		Fills each UART_FIFOInitStruct member with its default value:
 948:core/lpc17xx_uart.c **** * 				- FIFO_DMAMode = DISABLE
ARM GAS  C:\Users\STUDENT\AppData\Local\Temp\ccMxouBa.s 			page 63


 949:core/lpc17xx_uart.c **** * 				- FIFO_Level = UART_FIFO_TRGLEV0
 950:core/lpc17xx_uart.c **** * 				- FIFO_ResetRxBuf = ENABLE
 951:core/lpc17xx_uart.c **** * 				- FIFO_ResetTxBuf = ENABLE
 952:core/lpc17xx_uart.c **** * 				- FIFO_State = ENABLE
 953:core/lpc17xx_uart.c **** 
 954:core/lpc17xx_uart.c **** * @param[in]	UART_FIFOInitStruct Pointer to a UART_FIFO_CFG_Type structure
 955:core/lpc17xx_uart.c **** *                    which will be initialized.
 956:core/lpc17xx_uart.c **** * @return		None
 957:core/lpc17xx_uart.c **** *******************************************************************************/
 958:core/lpc17xx_uart.c **** void UART_FIFOConfigStructInit(UART_FIFO_CFG_Type *UART_FIFOInitStruct)
 959:core/lpc17xx_uart.c **** {
 2555              		.loc 1 959 0
 2556              		.cfi_startproc
 2557              		@ args = 0, pretend = 0, frame = 8
 2558              		@ frame_needed = 1, uses_anonymous_args = 0
 2559              		@ link register save eliminated.
 2560 0000 80B4     		push	{r7}	@
 2561              		.cfi_def_cfa_offset 4
 2562              		.cfi_offset 7, -4
 2563 0002 83B0     		sub	sp, sp, #12	@,,
 2564              		.cfi_def_cfa_offset 16
 2565 0004 00AF     		add	r7, sp, #0	@,,
 2566              		.cfi_def_cfa_register 7
 2567 0006 7860     		str	r0, [r7, #4]	@ UART_FIFOInitStruct, UART_FIFOInitStruct
 960:core/lpc17xx_uart.c **** 	UART_FIFOInitStruct->FIFO_DMAMode = DISABLE;
 2568              		.loc 1 960 0
 2569 0008 7B68     		ldr	r3, [r7, #4]	@ tmp110, UART_FIFOInitStruct
 2570 000a 0022     		movs	r2, #0	@ tmp111,
 2571 000c 9A70     		strb	r2, [r3, #2]	@ tmp112, UART_FIFOInitStruct_2(D)->FIFO_DMAMode
 961:core/lpc17xx_uart.c **** 	UART_FIFOInitStruct->FIFO_Level = UART_FIFO_TRGLEV0;
 2572              		.loc 1 961 0
 2573 000e 7B68     		ldr	r3, [r7, #4]	@ tmp113, UART_FIFOInitStruct
 2574 0010 0022     		movs	r2, #0	@ tmp114,
 2575 0012 DA70     		strb	r2, [r3, #3]	@ tmp115, UART_FIFOInitStruct_2(D)->FIFO_Level
 962:core/lpc17xx_uart.c **** 	UART_FIFOInitStruct->FIFO_ResetRxBuf = ENABLE;
 2576              		.loc 1 962 0
 2577 0014 7B68     		ldr	r3, [r7, #4]	@ tmp116, UART_FIFOInitStruct
 2578 0016 0122     		movs	r2, #1	@ tmp117,
 2579 0018 1A70     		strb	r2, [r3]	@ tmp118, UART_FIFOInitStruct_2(D)->FIFO_ResetRxBuf
 963:core/lpc17xx_uart.c **** 	UART_FIFOInitStruct->FIFO_ResetTxBuf = ENABLE;
 2580              		.loc 1 963 0
 2581 001a 7B68     		ldr	r3, [r7, #4]	@ tmp119, UART_FIFOInitStruct
 2582 001c 0122     		movs	r2, #1	@ tmp120,
 2583 001e 5A70     		strb	r2, [r3, #1]	@ tmp121, UART_FIFOInitStruct_2(D)->FIFO_ResetTxBuf
 964:core/lpc17xx_uart.c **** }
 2584              		.loc 1 964 0
 2585 0020 00BF     		nop
 2586 0022 0C37     		adds	r7, r7, #12	@,,
 2587              		.cfi_def_cfa_offset 4
 2588 0024 BD46     		mov	sp, r7	@,
 2589              		.cfi_def_cfa_register 13
 2590              		@ sp needed	@
 2591 0026 80BC     		pop	{r7}	@
 2592              		.cfi_restore 7
 2593              		.cfi_def_cfa_offset 0
 2594 0028 7047     		bx	lr	@
 2595              		.cfi_endproc
ARM GAS  C:\Users\STUDENT\AppData\Local\Temp\ccMxouBa.s 			page 64


 2596              	.LFE71:
 2597              		.size	UART_FIFOConfigStructInit, .-UART_FIFOConfigStructInit
 2598 002a 00BF     		.section	.text.UART_ABCmd,"ax",%progbits
 2599              		.align	2
 2600              		.global	UART_ABCmd
 2601              		.thumb
 2602              		.thumb_func
 2603              		.type	UART_ABCmd, %function
 2604              	UART_ABCmd:
 2605              	.LFB72:
 965:core/lpc17xx_uart.c **** 
 966:core/lpc17xx_uart.c **** 
 967:core/lpc17xx_uart.c **** /*********************************************************************//**
 968:core/lpc17xx_uart.c ****  * @brief		Start/Stop Auto Baudrate activity
 969:core/lpc17xx_uart.c ****  * @param[in]	UARTx	UART peripheral selected, should be UART0, UART1,
 970:core/lpc17xx_uart.c ****  * 						UART2 or UART3.
 971:core/lpc17xx_uart.c ****  * @param[in]	ABConfigStruct	A pointer to UART_AB_CFG_Type structure that
 972:core/lpc17xx_uart.c ****  * 								contains specified information about UART
 973:core/lpc17xx_uart.c ****  * 								auto baudrate configuration
 974:core/lpc17xx_uart.c ****  * @param[in]	NewState New State of Auto baudrate activity, should be:
 975:core/lpc17xx_uart.c ****  * 				- ENABLE: Start this activity
 976:core/lpc17xx_uart.c ****  *				- DISABLE: Stop this activity
 977:core/lpc17xx_uart.c ****  * Note:		Auto-baudrate mode enable bit will be cleared once this mode
 978:core/lpc17xx_uart.c ****  * 				completed.
 979:core/lpc17xx_uart.c ****  * @return 		none
 980:core/lpc17xx_uart.c ****  **********************************************************************/
 981:core/lpc17xx_uart.c **** void UART_ABCmd(LPC_UART_TypeDef *UARTx, UART_AB_CFG_Type *ABConfigStruct, \
 982:core/lpc17xx_uart.c **** 				FunctionalState NewState)
 983:core/lpc17xx_uart.c **** {
 2606              		.loc 1 983 0
 2607              		.cfi_startproc
 2608              		@ args = 0, pretend = 0, frame = 24
 2609              		@ frame_needed = 1, uses_anonymous_args = 0
 2610 0000 80B5     		push	{r7, lr}	@
 2611              		.cfi_def_cfa_offset 8
 2612              		.cfi_offset 7, -8
 2613              		.cfi_offset 14, -4
 2614 0002 86B0     		sub	sp, sp, #24	@,,
 2615              		.cfi_def_cfa_offset 32
 2616 0004 00AF     		add	r7, sp, #0	@,,
 2617              		.cfi_def_cfa_register 7
 2618 0006 F860     		str	r0, [r7, #12]	@ UARTx, UARTx
 2619 0008 B960     		str	r1, [r7, #8]	@ ABConfigStruct, ABConfigStruct
 2620 000a 1346     		mov	r3, r2	@ tmp122, NewState
 2621 000c FB71     		strb	r3, [r7, #7]	@ tmp123, NewState
 984:core/lpc17xx_uart.c **** 	uint32_t tmp;
 985:core/lpc17xx_uart.c **** 
 986:core/lpc17xx_uart.c **** 	CHECK_PARAM(PARAM_UARTx(UARTx));
 2622              		.loc 1 986 0
 2623 000e FB68     		ldr	r3, [r7, #12]	@ tmp124, UARTx
 2624 0010 434A     		ldr	r2, .L207	@ tmp125,
 2625 0012 9342     		cmp	r3, r2	@ tmp124, tmp125
 2626 0014 10D0     		beq	.L197	@,
 2627              		.loc 1 986 0 is_stmt 0 discriminator 1
 2628 0016 FB68     		ldr	r3, [r7, #12]	@ tmp126, UARTx
 2629 0018 424A     		ldr	r2, .L207+4	@ tmp127,
 2630 001a 9342     		cmp	r3, r2	@ tmp126, tmp127
ARM GAS  C:\Users\STUDENT\AppData\Local\Temp\ccMxouBa.s 			page 65


 2631 001c 0CD0     		beq	.L197	@,
 2632              		.loc 1 986 0 discriminator 2
 2633 001e FB68     		ldr	r3, [r7, #12]	@ tmp128, UARTx
 2634 0020 414A     		ldr	r2, .L207+8	@ tmp129,
 2635 0022 9342     		cmp	r3, r2	@ tmp128, tmp129
 2636 0024 08D0     		beq	.L197	@,
 2637              		.loc 1 986 0 discriminator 3
 2638 0026 FB68     		ldr	r3, [r7, #12]	@ tmp130, UARTx
 2639 0028 404A     		ldr	r2, .L207+12	@ tmp131,
 2640 002a 9342     		cmp	r3, r2	@ tmp130, tmp131
 2641 002c 04D0     		beq	.L197	@,
 2642              		.loc 1 986 0 discriminator 4
 2643 002e 40F2DA31 		movw	r1, #986	@,
 2644 0032 3F48     		ldr	r0, .L207+16	@,
 2645 0034 FFF7FEFF 		bl	check_failed	@
 2646              	.L197:
 987:core/lpc17xx_uart.c **** 	CHECK_PARAM(PARAM_FUNCTIONALSTATE(NewState));
 2647              		.loc 1 987 0 is_stmt 1
 2648 0038 FB79     		ldrb	r3, [r7, #7]	@ zero_extendqisi2	@ tmp132, NewState
 2649 003a 002B     		cmp	r3, #0	@ tmp132,
 2650 003c 07D0     		beq	.L198	@,
 2651              		.loc 1 987 0 is_stmt 0 discriminator 1
 2652 003e FB79     		ldrb	r3, [r7, #7]	@ zero_extendqisi2	@ tmp133, NewState
 2653 0040 012B     		cmp	r3, #1	@ tmp133,
 2654 0042 04D0     		beq	.L198	@,
 2655              		.loc 1 987 0 discriminator 2
 2656 0044 40F2DB31 		movw	r1, #987	@,
 2657 0048 3948     		ldr	r0, .L207+16	@,
 2658 004a FFF7FEFF 		bl	check_failed	@
 2659              	.L198:
 988:core/lpc17xx_uart.c **** 
 989:core/lpc17xx_uart.c **** 	tmp = 0;
 2660              		.loc 1 989 0 is_stmt 1
 2661 004e 0023     		movs	r3, #0	@ tmp134,
 2662 0050 7B61     		str	r3, [r7, #20]	@ tmp134, tmp
 990:core/lpc17xx_uart.c **** 	if (NewState == ENABLE) {
 2663              		.loc 1 990 0
 2664 0052 FB79     		ldrb	r3, [r7, #7]	@ zero_extendqisi2	@ tmp135, NewState
 2665 0054 012B     		cmp	r3, #1	@ tmp135,
 2666 0056 0FD1     		bne	.L199	@,
 991:core/lpc17xx_uart.c **** 		if (ABConfigStruct->ABMode == UART_AUTOBAUD_MODE1){
 2667              		.loc 1 991 0
 2668 0058 BB68     		ldr	r3, [r7, #8]	@ tmp136, ABConfigStruct
 2669 005a 1B78     		ldrb	r3, [r3]	@ zero_extendqisi2	@ D.6731, ABConfigStruct_13(D)->ABMode
 2670 005c 012B     		cmp	r3, #1	@ D.6731,
 2671 005e 03D1     		bne	.L200	@,
 992:core/lpc17xx_uart.c **** 			tmp |= UART_ACR_MODE;
 2672              		.loc 1 992 0
 2673 0060 7B69     		ldr	r3, [r7, #20]	@ tmp138, tmp
 2674 0062 43F00203 		orr	r3, r3, #2	@ tmp137, tmp138,
 2675 0066 7B61     		str	r3, [r7, #20]	@ tmp137, tmp
 2676              	.L200:
 993:core/lpc17xx_uart.c **** 		}
 994:core/lpc17xx_uart.c **** 		if (ABConfigStruct->AutoRestart == ENABLE){
 2677              		.loc 1 994 0
 2678 0068 BB68     		ldr	r3, [r7, #8]	@ tmp139, ABConfigStruct
 2679 006a 5B78     		ldrb	r3, [r3, #1]	@ zero_extendqisi2	@ D.6732, ABConfigStruct_13(D)->AutoRestart
ARM GAS  C:\Users\STUDENT\AppData\Local\Temp\ccMxouBa.s 			page 66


 2680 006c 012B     		cmp	r3, #1	@ D.6732,
 2681 006e 03D1     		bne	.L199	@,
 995:core/lpc17xx_uart.c **** 			tmp |= UART_ACR_AUTO_RESTART;
 2682              		.loc 1 995 0
 2683 0070 7B69     		ldr	r3, [r7, #20]	@ tmp141, tmp
 2684 0072 43F00403 		orr	r3, r3, #4	@ tmp140, tmp141,
 2685 0076 7B61     		str	r3, [r7, #20]	@ tmp140, tmp
 2686              	.L199:
 996:core/lpc17xx_uart.c **** 		}
 997:core/lpc17xx_uart.c **** 	}
 998:core/lpc17xx_uart.c **** 
 999:core/lpc17xx_uart.c **** 	if (((LPC_UART1_TypeDef *)UARTx) == LPC_UART1)
 2687              		.loc 1 999 0
 2688 0078 FB68     		ldr	r3, [r7, #12]	@ tmp142, UARTx
 2689 007a 2A4A     		ldr	r2, .L207+4	@ tmp143,
 2690 007c 9342     		cmp	r3, r2	@ tmp142, tmp143
 2691 007e 25D1     		bne	.L201	@,
1000:core/lpc17xx_uart.c **** 	{
1001:core/lpc17xx_uart.c **** 		if (NewState == ENABLE)
 2692              		.loc 1 1001 0
 2693 0080 FB79     		ldrb	r3, [r7, #7]	@ zero_extendqisi2	@ tmp144, NewState
 2694 0082 012B     		cmp	r3, #1	@ tmp144,
 2695 0084 1ED1     		bne	.L202	@,
1002:core/lpc17xx_uart.c **** 		{
1003:core/lpc17xx_uart.c **** 			// Clear DLL and DLM value
1004:core/lpc17xx_uart.c **** 			((LPC_UART1_TypeDef *)UARTx)->LCR |= UART_LCR_DLAB_EN;
 2696              		.loc 1 1004 0
 2697 0086 FB68     		ldr	r3, [r7, #12]	@ tmp145, UARTx
 2698 0088 1B7B     		ldrb	r3, [r3, #12]	@ tmp147, MEM[(struct LPC_UART1_TypeDef *)UARTx_7(D)].LCR
 2699 008a DBB2     		uxtb	r3, r3	@ D.6733, tmp147
 2700 008c 63F07F03 		orn	r3, r3, #127	@ tmp148, D.6733,
 2701 0090 DAB2     		uxtb	r2, r3	@ D.6733, tmp148
 2702 0092 FB68     		ldr	r3, [r7, #12]	@ tmp149, UARTx
 2703 0094 1A73     		strb	r2, [r3, #12]	@ tmp150, MEM[(struct LPC_UART1_TypeDef *)UARTx_7(D)].LCR
1005:core/lpc17xx_uart.c **** 			((LPC_UART1_TypeDef *)UARTx)->DLL = 0;
 2704              		.loc 1 1005 0
 2705 0096 FB68     		ldr	r3, [r7, #12]	@ tmp151, UARTx
 2706 0098 0022     		movs	r2, #0	@ tmp152,
 2707 009a 1A70     		strb	r2, [r3]	@ tmp153, MEM[(struct LPC_UART1_TypeDef *)UARTx_7(D)].D.4871.DLL
1006:core/lpc17xx_uart.c **** 			((LPC_UART1_TypeDef *)UARTx)->DLM = 0;
 2708              		.loc 1 1006 0
 2709 009c FB68     		ldr	r3, [r7, #12]	@ tmp154, UARTx
 2710 009e 0022     		movs	r2, #0	@ tmp155,
 2711 00a0 1A71     		strb	r2, [r3, #4]	@ tmp156, MEM[(struct LPC_UART1_TypeDef *)UARTx_7(D)].D.4875.DLM
1007:core/lpc17xx_uart.c **** 			((LPC_UART1_TypeDef *)UARTx)->LCR &= ~UART_LCR_DLAB_EN;
 2712              		.loc 1 1007 0
 2713 00a2 FB68     		ldr	r3, [r7, #12]	@ tmp157, UARTx
 2714 00a4 1B7B     		ldrb	r3, [r3, #12]	@ tmp159, MEM[(struct LPC_UART1_TypeDef *)UARTx_7(D)].LCR
 2715 00a6 DBB2     		uxtb	r3, r3	@ D.6733, tmp159
 2716 00a8 03F07F03 		and	r3, r3, #127	@ tmp160, D.6733,
 2717 00ac DAB2     		uxtb	r2, r3	@ D.6733, tmp160
 2718 00ae FB68     		ldr	r3, [r7, #12]	@ tmp161, UARTx
 2719 00b0 1A73     		strb	r2, [r3, #12]	@ tmp162, MEM[(struct LPC_UART1_TypeDef *)UARTx_7(D)].LCR
1008:core/lpc17xx_uart.c **** 			// FDR value must be reset to default value
1009:core/lpc17xx_uart.c **** 			((LPC_UART1_TypeDef *)UARTx)->FDR = 0x10;
 2720              		.loc 1 1009 0
 2721 00b2 FB68     		ldr	r3, [r7, #12]	@ tmp163, UARTx
ARM GAS  C:\Users\STUDENT\AppData\Local\Temp\ccMxouBa.s 			page 67


 2722 00b4 1022     		movs	r2, #16	@ tmp164,
 2723 00b6 9A62     		str	r2, [r3, #40]	@ tmp164, MEM[(struct LPC_UART1_TypeDef *)UARTx_7(D)].FDR
1010:core/lpc17xx_uart.c **** 			((LPC_UART1_TypeDef *)UARTx)->ACR = UART_ACR_START | tmp;
 2724              		.loc 1 1010 0
 2725 00b8 7B69     		ldr	r3, [r7, #20]	@ tmp165, tmp
 2726 00ba 43F00102 		orr	r2, r3, #1	@ D.6734, tmp165,
 2727 00be FB68     		ldr	r3, [r7, #12]	@ tmp166, UARTx
 2728 00c0 1A62     		str	r2, [r3, #32]	@ D.6734, MEM[(struct LPC_UART1_TypeDef *)UARTx_7(D)].ACR
1011:core/lpc17xx_uart.c **** 		}
1012:core/lpc17xx_uart.c **** 		else
1013:core/lpc17xx_uart.c **** 		{
1014:core/lpc17xx_uart.c **** 			((LPC_UART1_TypeDef *)UARTx)->ACR = 0;
1015:core/lpc17xx_uart.c **** 		}
1016:core/lpc17xx_uart.c **** 	}
1017:core/lpc17xx_uart.c **** 	else
1018:core/lpc17xx_uart.c **** 	{
1019:core/lpc17xx_uart.c **** 		if (NewState == ENABLE)
1020:core/lpc17xx_uart.c **** 		{
1021:core/lpc17xx_uart.c **** 			// Clear DLL and DLM value
1022:core/lpc17xx_uart.c **** 			UARTx->LCR |= UART_LCR_DLAB_EN;
1023:core/lpc17xx_uart.c **** 			UARTx->DLL = 0;
1024:core/lpc17xx_uart.c **** 			UARTx->DLM = 0;
1025:core/lpc17xx_uart.c **** 			UARTx->LCR &= ~UART_LCR_DLAB_EN;
1026:core/lpc17xx_uart.c **** 			// FDR value must be reset to default value
1027:core/lpc17xx_uart.c **** 			UARTx->FDR = 0x10;
1028:core/lpc17xx_uart.c **** 			UARTx->ACR = UART_ACR_START | tmp;
1029:core/lpc17xx_uart.c **** 		}
1030:core/lpc17xx_uart.c **** 		else
1031:core/lpc17xx_uart.c **** 		{
1032:core/lpc17xx_uart.c **** 			UARTx->ACR = 0;
1033:core/lpc17xx_uart.c **** 		}
1034:core/lpc17xx_uart.c **** 	}
1035:core/lpc17xx_uart.c **** }
 2729              		.loc 1 1035 0
 2730 00c2 29E0     		b	.L206	@
 2731              	.L202:
1014:core/lpc17xx_uart.c **** 		}
 2732              		.loc 1 1014 0
 2733 00c4 FB68     		ldr	r3, [r7, #12]	@ tmp167, UARTx
 2734 00c6 0022     		movs	r2, #0	@ tmp168,
 2735 00c8 1A62     		str	r2, [r3, #32]	@ tmp168, MEM[(struct LPC_UART1_TypeDef *)UARTx_7(D)].ACR
 2736              		.loc 1 1035 0
 2737 00ca 25E0     		b	.L206	@
 2738              	.L201:
1019:core/lpc17xx_uart.c **** 		{
 2739              		.loc 1 1019 0
 2740 00cc FB79     		ldrb	r3, [r7, #7]	@ zero_extendqisi2	@ tmp169, NewState
 2741 00ce 012B     		cmp	r3, #1	@ tmp169,
 2742 00d0 1FD1     		bne	.L205	@,
1022:core/lpc17xx_uart.c **** 			UARTx->DLL = 0;
 2743              		.loc 1 1022 0
 2744 00d2 FB68     		ldr	r3, [r7, #12]	@ tmp170, UARTx
 2745 00d4 1B7B     		ldrb	r3, [r3, #12]	@ tmp172, UARTx_7(D)->LCR
 2746 00d6 DBB2     		uxtb	r3, r3	@ D.6733, tmp172
 2747 00d8 63F07F03 		orn	r3, r3, #127	@ tmp173, D.6733,
 2748 00dc DAB2     		uxtb	r2, r3	@ D.6733, tmp173
 2749 00de FB68     		ldr	r3, [r7, #12]	@ tmp174, UARTx
ARM GAS  C:\Users\STUDENT\AppData\Local\Temp\ccMxouBa.s 			page 68


 2750 00e0 1A73     		strb	r2, [r3, #12]	@ tmp175, UARTx_7(D)->LCR
1023:core/lpc17xx_uart.c **** 			UARTx->DLM = 0;
 2751              		.loc 1 1023 0
 2752 00e2 FB68     		ldr	r3, [r7, #12]	@ tmp176, UARTx
 2753 00e4 0022     		movs	r2, #0	@ tmp177,
 2754 00e6 1A70     		strb	r2, [r3]	@ tmp178, UARTx_7(D)->D.4811.DLL
1024:core/lpc17xx_uart.c **** 			UARTx->LCR &= ~UART_LCR_DLAB_EN;
 2755              		.loc 1 1024 0
 2756 00e8 FB68     		ldr	r3, [r7, #12]	@ tmp179, UARTx
 2757 00ea 0022     		movs	r2, #0	@ tmp180,
 2758 00ec 1A71     		strb	r2, [r3, #4]	@ tmp181, UARTx_7(D)->D.4815.DLM
1025:core/lpc17xx_uart.c **** 			// FDR value must be reset to default value
 2759              		.loc 1 1025 0
 2760 00ee FB68     		ldr	r3, [r7, #12]	@ tmp182, UARTx
 2761 00f0 1B7B     		ldrb	r3, [r3, #12]	@ tmp184, UARTx_7(D)->LCR
 2762 00f2 DBB2     		uxtb	r3, r3	@ D.6733, tmp184
 2763 00f4 03F07F03 		and	r3, r3, #127	@ tmp185, D.6733,
 2764 00f8 DAB2     		uxtb	r2, r3	@ D.6733, tmp185
 2765 00fa FB68     		ldr	r3, [r7, #12]	@ tmp186, UARTx
 2766 00fc 1A73     		strb	r2, [r3, #12]	@ tmp187, UARTx_7(D)->LCR
1027:core/lpc17xx_uart.c **** 			UARTx->ACR = UART_ACR_START | tmp;
 2767              		.loc 1 1027 0
 2768 00fe FB68     		ldr	r3, [r7, #12]	@ tmp188, UARTx
 2769 0100 1022     		movs	r2, #16	@ tmp189,
 2770 0102 83F82820 		strb	r2, [r3, #40]	@ tmp190, UARTx_7(D)->FDR
1028:core/lpc17xx_uart.c **** 		}
 2771              		.loc 1 1028 0
 2772 0106 7B69     		ldr	r3, [r7, #20]	@ tmp191, tmp
 2773 0108 43F00102 		orr	r2, r3, #1	@ D.6734, tmp191,
 2774 010c FB68     		ldr	r3, [r7, #12]	@ tmp192, UARTx
 2775 010e 1A62     		str	r2, [r3, #32]	@ D.6734, UARTx_7(D)->ACR
 2776              		.loc 1 1035 0
 2777 0110 02E0     		b	.L206	@
 2778              	.L205:
1032:core/lpc17xx_uart.c **** 		}
 2779              		.loc 1 1032 0
 2780 0112 FB68     		ldr	r3, [r7, #12]	@ tmp193, UARTx
 2781 0114 0022     		movs	r2, #0	@ tmp194,
 2782 0116 1A62     		str	r2, [r3, #32]	@ tmp194, UARTx_7(D)->ACR
 2783              	.L206:
 2784              		.loc 1 1035 0
 2785 0118 00BF     		nop
 2786 011a 1837     		adds	r7, r7, #24	@,,
 2787              		.cfi_def_cfa_offset 8
 2788 011c BD46     		mov	sp, r7	@,
 2789              		.cfi_def_cfa_register 13
 2790              		@ sp needed	@
 2791 011e 80BD     		pop	{r7, pc}	@
 2792              	.L208:
 2793              		.align	2
 2794              	.L207:
 2795 0120 00C00040 		.word	1073790976
 2796 0124 00000140 		.word	1073807360
 2797 0128 00800940 		.word	1074364416
 2798 012c 00C00940 		.word	1074380800
 2799 0130 00000000 		.word	.LC0
 2800              		.cfi_endproc
ARM GAS  C:\Users\STUDENT\AppData\Local\Temp\ccMxouBa.s 			page 69


 2801              	.LFE72:
 2802              		.size	UART_ABCmd, .-UART_ABCmd
 2803              		.section	.text.UART_TxCmd,"ax",%progbits
 2804              		.align	2
 2805              		.global	UART_TxCmd
 2806              		.thumb
 2807              		.thumb_func
 2808              		.type	UART_TxCmd, %function
 2809              	UART_TxCmd:
 2810              	.LFB73:
1036:core/lpc17xx_uart.c **** 
1037:core/lpc17xx_uart.c **** 
1038:core/lpc17xx_uart.c **** /*********************************************************************//**
1039:core/lpc17xx_uart.c ****  * @brief		Enable/Disable transmission on UART TxD pin
1040:core/lpc17xx_uart.c ****  * @param[in]	UARTx	UART peripheral selected, should be UART0, UART1,
1041:core/lpc17xx_uart.c ****  * 						UART2 or UART3.
1042:core/lpc17xx_uart.c ****  * @param[in]	NewState New State of Tx transmission function, should be:
1043:core/lpc17xx_uart.c ****  * 				- ENABLE: Enable this function
1044:core/lpc17xx_uart.c **** 				- DISABLE: Disable this function
1045:core/lpc17xx_uart.c ****  * @return none
1046:core/lpc17xx_uart.c ****  **********************************************************************/
1047:core/lpc17xx_uart.c **** void UART_TxCmd(LPC_UART_TypeDef *UARTx, FunctionalState NewState)
1048:core/lpc17xx_uart.c **** {
 2811              		.loc 1 1048 0
 2812              		.cfi_startproc
 2813              		@ args = 0, pretend = 0, frame = 8
 2814              		@ frame_needed = 1, uses_anonymous_args = 0
 2815 0000 80B5     		push	{r7, lr}	@
 2816              		.cfi_def_cfa_offset 8
 2817              		.cfi_offset 7, -8
 2818              		.cfi_offset 14, -4
 2819 0002 82B0     		sub	sp, sp, #8	@,,
 2820              		.cfi_def_cfa_offset 16
 2821 0004 00AF     		add	r7, sp, #0	@,,
 2822              		.cfi_def_cfa_register 7
 2823 0006 7860     		str	r0, [r7, #4]	@ UARTx, UARTx
 2824 0008 0B46     		mov	r3, r1	@ tmp116, NewState
 2825 000a FB70     		strb	r3, [r7, #3]	@ tmp117, NewState
1049:core/lpc17xx_uart.c **** 	CHECK_PARAM(PARAM_UARTx(UARTx));
 2826              		.loc 1 1049 0
 2827 000c 7B68     		ldr	r3, [r7, #4]	@ tmp118, UARTx
 2828 000e 294A     		ldr	r2, .L218	@ tmp119,
 2829 0010 9342     		cmp	r3, r2	@ tmp118, tmp119
 2830 0012 10D0     		beq	.L210	@,
 2831              		.loc 1 1049 0 is_stmt 0 discriminator 1
 2832 0014 7B68     		ldr	r3, [r7, #4]	@ tmp120, UARTx
 2833 0016 284A     		ldr	r2, .L218+4	@ tmp121,
 2834 0018 9342     		cmp	r3, r2	@ tmp120, tmp121
 2835 001a 0CD0     		beq	.L210	@,
 2836              		.loc 1 1049 0 discriminator 2
 2837 001c 7B68     		ldr	r3, [r7, #4]	@ tmp122, UARTx
 2838 001e 274A     		ldr	r2, .L218+8	@ tmp123,
 2839 0020 9342     		cmp	r3, r2	@ tmp122, tmp123
 2840 0022 08D0     		beq	.L210	@,
 2841              		.loc 1 1049 0 discriminator 3
 2842 0024 7B68     		ldr	r3, [r7, #4]	@ tmp124, UARTx
 2843 0026 264A     		ldr	r2, .L218+12	@ tmp125,
ARM GAS  C:\Users\STUDENT\AppData\Local\Temp\ccMxouBa.s 			page 70


 2844 0028 9342     		cmp	r3, r2	@ tmp124, tmp125
 2845 002a 04D0     		beq	.L210	@,
 2846              		.loc 1 1049 0 discriminator 4
 2847 002c 40F21941 		movw	r1, #1049	@,
 2848 0030 2448     		ldr	r0, .L218+16	@,
 2849 0032 FFF7FEFF 		bl	check_failed	@
 2850              	.L210:
1050:core/lpc17xx_uart.c **** 	CHECK_PARAM(PARAM_FUNCTIONALSTATE(NewState));
 2851              		.loc 1 1050 0 is_stmt 1
 2852 0036 FB78     		ldrb	r3, [r7, #3]	@ zero_extendqisi2	@ tmp126, NewState
 2853 0038 002B     		cmp	r3, #0	@ tmp126,
 2854 003a 07D0     		beq	.L211	@,
 2855              		.loc 1 1050 0 is_stmt 0 discriminator 1
 2856 003c FB78     		ldrb	r3, [r7, #3]	@ zero_extendqisi2	@ tmp127, NewState
 2857 003e 012B     		cmp	r3, #1	@ tmp127,
 2858 0040 04D0     		beq	.L211	@,
 2859              		.loc 1 1050 0 discriminator 2
 2860 0042 40F21A41 		movw	r1, #1050	@,
 2861 0046 1F48     		ldr	r0, .L218+16	@,
 2862 0048 FFF7FEFF 		bl	check_failed	@
 2863              	.L211:
1051:core/lpc17xx_uart.c **** 
1052:core/lpc17xx_uart.c **** 	if (NewState == ENABLE)
 2864              		.loc 1 1052 0 is_stmt 1
 2865 004c FB78     		ldrb	r3, [r7, #3]	@ zero_extendqisi2	@ tmp128, NewState
 2866 004e 012B     		cmp	r3, #1	@ tmp128,
 2867 0050 19D1     		bne	.L212	@,
1053:core/lpc17xx_uart.c **** 	{
1054:core/lpc17xx_uart.c **** 		if (((LPC_UART1_TypeDef *)UARTx) == LPC_UART1)
 2868              		.loc 1 1054 0
 2869 0052 7B68     		ldr	r3, [r7, #4]	@ tmp129, UARTx
 2870 0054 184A     		ldr	r2, .L218+4	@ tmp130,
 2871 0056 9342     		cmp	r3, r2	@ tmp129, tmp130
 2872 0058 0AD1     		bne	.L213	@,
1055:core/lpc17xx_uart.c **** 		{
1056:core/lpc17xx_uart.c **** 			((LPC_UART1_TypeDef *)UARTx)->TER |= UART_TER_TXEN;
 2873              		.loc 1 1056 0
 2874 005a 7B68     		ldr	r3, [r7, #4]	@ tmp131, UARTx
 2875 005c 93F83030 		ldrb	r3, [r3, #48]	@ tmp133, MEM[(struct LPC_UART1_TypeDef *)UARTx_5(D)].TER
 2876 0060 DBB2     		uxtb	r3, r3	@ D.6735, tmp133
 2877 0062 63F07F03 		orn	r3, r3, #127	@ tmp134, D.6735,
 2878 0066 DAB2     		uxtb	r2, r3	@ D.6735, tmp134
 2879 0068 7B68     		ldr	r3, [r7, #4]	@ tmp135, UARTx
 2880 006a 83F83020 		strb	r2, [r3, #48]	@ tmp136, MEM[(struct LPC_UART1_TypeDef *)UARTx_5(D)].TER
1057:core/lpc17xx_uart.c **** 		}
1058:core/lpc17xx_uart.c **** 		else
1059:core/lpc17xx_uart.c **** 		{
1060:core/lpc17xx_uart.c **** 			UARTx->TER |= UART_TER_TXEN;
1061:core/lpc17xx_uart.c **** 		}
1062:core/lpc17xx_uart.c **** 	}
1063:core/lpc17xx_uart.c **** 	else
1064:core/lpc17xx_uart.c **** 	{
1065:core/lpc17xx_uart.c **** 		if (((LPC_UART1_TypeDef *)UARTx) == LPC_UART1)
1066:core/lpc17xx_uart.c **** 		{
1067:core/lpc17xx_uart.c **** 			((LPC_UART1_TypeDef *)UARTx)->TER &= (~UART_TER_TXEN) & UART_TER_BITMASK;
1068:core/lpc17xx_uart.c **** 		}
1069:core/lpc17xx_uart.c **** 		else
ARM GAS  C:\Users\STUDENT\AppData\Local\Temp\ccMxouBa.s 			page 71


1070:core/lpc17xx_uart.c **** 		{
1071:core/lpc17xx_uart.c **** 			UARTx->TER &= (~UART_TER_TXEN) & UART_TER_BITMASK;
1072:core/lpc17xx_uart.c **** 		}
1073:core/lpc17xx_uart.c **** 	}
1074:core/lpc17xx_uart.c **** }
 2881              		.loc 1 1074 0
 2882 006e 1DE0     		b	.L217	@
 2883              	.L213:
1060:core/lpc17xx_uart.c **** 		}
 2884              		.loc 1 1060 0
 2885 0070 7B68     		ldr	r3, [r7, #4]	@ tmp137, UARTx
 2886 0072 93F83030 		ldrb	r3, [r3, #48]	@ tmp139, UARTx_5(D)->TER
 2887 0076 DBB2     		uxtb	r3, r3	@ D.6735, tmp139
 2888 0078 63F07F03 		orn	r3, r3, #127	@ tmp140, D.6735,
 2889 007c DAB2     		uxtb	r2, r3	@ D.6735, tmp140
 2890 007e 7B68     		ldr	r3, [r7, #4]	@ tmp141, UARTx
 2891 0080 83F83020 		strb	r2, [r3, #48]	@ tmp142, UARTx_5(D)->TER
 2892              		.loc 1 1074 0
 2893 0084 12E0     		b	.L217	@
 2894              	.L212:
1065:core/lpc17xx_uart.c **** 		{
 2895              		.loc 1 1065 0
 2896 0086 7B68     		ldr	r3, [r7, #4]	@ tmp143, UARTx
 2897 0088 0B4A     		ldr	r2, .L218+4	@ tmp144,
 2898 008a 9342     		cmp	r3, r2	@ tmp143, tmp144
 2899 008c 07D1     		bne	.L216	@,
1067:core/lpc17xx_uart.c **** 		}
 2900              		.loc 1 1067 0
 2901 008e 7B68     		ldr	r3, [r7, #4]	@ tmp145, UARTx
 2902 0090 93F83030 		ldrb	r3, [r3, #48]	@ tmp147, MEM[(struct LPC_UART1_TypeDef *)UARTx_5(D)].TER
 2903 0094 7B68     		ldr	r3, [r7, #4]	@ tmp148, UARTx
 2904 0096 0022     		movs	r2, #0	@ tmp149,
 2905 0098 83F83020 		strb	r2, [r3, #48]	@ tmp150, MEM[(struct LPC_UART1_TypeDef *)UARTx_5(D)].TER
 2906              		.loc 1 1074 0
 2907 009c 06E0     		b	.L217	@
 2908              	.L216:
1071:core/lpc17xx_uart.c **** 		}
 2909              		.loc 1 1071 0
 2910 009e 7B68     		ldr	r3, [r7, #4]	@ tmp151, UARTx
 2911 00a0 93F83030 		ldrb	r3, [r3, #48]	@ tmp153, UARTx_5(D)->TER
 2912 00a4 7B68     		ldr	r3, [r7, #4]	@ tmp154, UARTx
 2913 00a6 0022     		movs	r2, #0	@ tmp155,
 2914 00a8 83F83020 		strb	r2, [r3, #48]	@ tmp156, UARTx_5(D)->TER
 2915              	.L217:
 2916              		.loc 1 1074 0
 2917 00ac 00BF     		nop
 2918 00ae 0837     		adds	r7, r7, #8	@,,
 2919              		.cfi_def_cfa_offset 8
 2920 00b0 BD46     		mov	sp, r7	@,
 2921              		.cfi_def_cfa_register 13
 2922              		@ sp needed	@
 2923 00b2 80BD     		pop	{r7, pc}	@
 2924              	.L219:
 2925              		.align	2
 2926              	.L218:
 2927 00b4 00C00040 		.word	1073790976
 2928 00b8 00000140 		.word	1073807360
ARM GAS  C:\Users\STUDENT\AppData\Local\Temp\ccMxouBa.s 			page 72


 2929 00bc 00800940 		.word	1074364416
 2930 00c0 00C00940 		.word	1074380800
 2931 00c4 00000000 		.word	.LC0
 2932              		.cfi_endproc
 2933              	.LFE73:
 2934              		.size	UART_TxCmd, .-UART_TxCmd
 2935              		.section	.text.UART_FullModemForcePinState,"ax",%progbits
 2936              		.align	2
 2937              		.global	UART_FullModemForcePinState
 2938              		.thumb
 2939              		.thumb_func
 2940              		.type	UART_FullModemForcePinState, %function
 2941              	UART_FullModemForcePinState:
 2942              	.LFB74:
1075:core/lpc17xx_uart.c **** 
1076:core/lpc17xx_uart.c **** #ifdef _UART1
1077:core/lpc17xx_uart.c **** 
1078:core/lpc17xx_uart.c **** /*********************************************************************//**
1079:core/lpc17xx_uart.c ****  * @brief		Force pin DTR/RTS corresponding to given state (Full modem mode)
1080:core/lpc17xx_uart.c ****  * @param[in]	UARTx	UART1 (only)
1081:core/lpc17xx_uart.c ****  * @param[in]	Pin	Pin that NewState will be applied to, should be:
1082:core/lpc17xx_uart.c ****  * 				- UART1_MODEM_PIN_DTR: DTR pin.
1083:core/lpc17xx_uart.c ****  * 				- UART1_MODEM_PIN_RTS: RTS pin.
1084:core/lpc17xx_uart.c ****  * @param[in]	NewState New State of DTR/RTS pin, should be:
1085:core/lpc17xx_uart.c ****  * 				- INACTIVE: Force the pin to inactive signal.
1086:core/lpc17xx_uart.c **** 				- ACTIVE: Force the pin to active signal.
1087:core/lpc17xx_uart.c ****  * @return none
1088:core/lpc17xx_uart.c ****  **********************************************************************/
1089:core/lpc17xx_uart.c **** void UART_FullModemForcePinState(LPC_UART1_TypeDef *UARTx, UART_MODEM_PIN_Type Pin, \
1090:core/lpc17xx_uart.c **** 							UART1_SignalState NewState)
1091:core/lpc17xx_uart.c **** {
 2943              		.loc 1 1091 0
 2944              		.cfi_startproc
 2945              		@ args = 0, pretend = 0, frame = 16
 2946              		@ frame_needed = 1, uses_anonymous_args = 0
 2947 0000 80B5     		push	{r7, lr}	@
 2948              		.cfi_def_cfa_offset 8
 2949              		.cfi_offset 7, -8
 2950              		.cfi_offset 14, -4
 2951 0002 84B0     		sub	sp, sp, #16	@,,
 2952              		.cfi_def_cfa_offset 24
 2953 0004 00AF     		add	r7, sp, #0	@,,
 2954              		.cfi_def_cfa_register 7
 2955 0006 7860     		str	r0, [r7, #4]	@ UARTx, UARTx
 2956 0008 0B46     		mov	r3, r1	@ tmp117, Pin
 2957 000a FB70     		strb	r3, [r7, #3]	@ tmp118, Pin
 2958 000c 1346     		mov	r3, r2	@ tmp120, tmp119
 2959 000e BB70     		strb	r3, [r7, #2]	@ tmp120, NewState
1092:core/lpc17xx_uart.c **** 	uint8_t tmp = 0;
 2960              		.loc 1 1092 0
 2961 0010 0023     		movs	r3, #0	@ tmp121,
 2962 0012 FB73     		strb	r3, [r7, #15]	@ tmp122, tmp
1093:core/lpc17xx_uart.c **** 
1094:core/lpc17xx_uart.c **** 	CHECK_PARAM(PARAM_UART1_MODEM(UARTx));
 2963              		.loc 1 1094 0
 2964 0014 7B68     		ldr	r3, [r7, #4]	@ tmp123, UARTx
 2965 0016 234A     		ldr	r2, .L231	@ tmp124,
ARM GAS  C:\Users\STUDENT\AppData\Local\Temp\ccMxouBa.s 			page 73


 2966 0018 9342     		cmp	r3, r2	@ tmp123, tmp124
 2967 001a 04D0     		beq	.L221	@,
 2968              		.loc 1 1094 0 is_stmt 0 discriminator 1
 2969 001c 40F24641 		movw	r1, #1094	@,
 2970 0020 2148     		ldr	r0, .L231+4	@,
 2971 0022 FFF7FEFF 		bl	check_failed	@
 2972              	.L221:
1095:core/lpc17xx_uart.c **** 	CHECK_PARAM(PARAM_UART1_MODEM_PIN(Pin));
 2973              		.loc 1 1095 0 is_stmt 1
 2974 0026 FB78     		ldrb	r3, [r7, #3]	@ zero_extendqisi2	@ tmp125, Pin
 2975 0028 002B     		cmp	r3, #0	@ tmp125,
 2976 002a 07D0     		beq	.L222	@,
 2977              		.loc 1 1095 0 is_stmt 0 discriminator 1
 2978 002c FB78     		ldrb	r3, [r7, #3]	@ zero_extendqisi2	@ tmp126, Pin
 2979 002e 012B     		cmp	r3, #1	@ tmp126,
 2980 0030 04D0     		beq	.L222	@,
 2981              		.loc 1 1095 0 discriminator 2
 2982 0032 40F24741 		movw	r1, #1095	@,
 2983 0036 1C48     		ldr	r0, .L231+4	@,
 2984 0038 FFF7FEFF 		bl	check_failed	@
 2985              	.L222:
1096:core/lpc17xx_uart.c **** 	CHECK_PARAM(PARAM_UART1_SIGNALSTATE(NewState));
 2986              		.loc 1 1096 0 is_stmt 1
 2987 003c BB78     		ldrb	r3, [r7, #2]	@ zero_extendqisi2	@ tmp127, NewState
 2988 003e 002B     		cmp	r3, #0	@ tmp127,
 2989 0040 07D0     		beq	.L223	@,
 2990              		.loc 1 1096 0 is_stmt 0 discriminator 1
 2991 0042 BB78     		ldrb	r3, [r7, #2]	@ zero_extendqisi2	@ tmp128, NewState
 2992 0044 012B     		cmp	r3, #1	@ tmp128,
 2993 0046 04D0     		beq	.L223	@,
 2994              		.loc 1 1096 0 discriminator 2
 2995 0048 4FF48961 		mov	r1, #1096	@,
 2996 004c 1648     		ldr	r0, .L231+4	@,
 2997 004e FFF7FEFF 		bl	check_failed	@
 2998              	.L223:
1097:core/lpc17xx_uart.c **** 
1098:core/lpc17xx_uart.c **** 	switch (Pin){
 2999              		.loc 1 1098 0 is_stmt 1
 3000 0052 FB78     		ldrb	r3, [r7, #3]	@ zero_extendqisi2	@ D.6736, Pin
 3001 0054 002B     		cmp	r3, #0	@ D.6736,
 3002 0056 02D0     		beq	.L225	@,
 3003 0058 012B     		cmp	r3, #1	@ D.6736,
 3004 005a 03D0     		beq	.L226	@,
1099:core/lpc17xx_uart.c **** 	case UART1_MODEM_PIN_DTR:
1100:core/lpc17xx_uart.c **** 		tmp = UART1_MCR_DTR_CTRL;
1101:core/lpc17xx_uart.c **** 		break;
1102:core/lpc17xx_uart.c **** 	case UART1_MODEM_PIN_RTS:
1103:core/lpc17xx_uart.c **** 		tmp = UART1_MCR_RTS_CTRL;
1104:core/lpc17xx_uart.c **** 		break;
1105:core/lpc17xx_uart.c **** 	default:
1106:core/lpc17xx_uart.c **** 		break;
 3005              		.loc 1 1106 0
 3006 005c 05E0     		b	.L227	@
 3007              	.L225:
1100:core/lpc17xx_uart.c **** 		break;
 3008              		.loc 1 1100 0
 3009 005e 0123     		movs	r3, #1	@ tmp129,
ARM GAS  C:\Users\STUDENT\AppData\Local\Temp\ccMxouBa.s 			page 74


 3010 0060 FB73     		strb	r3, [r7, #15]	@ tmp130, tmp
1101:core/lpc17xx_uart.c **** 	case UART1_MODEM_PIN_RTS:
 3011              		.loc 1 1101 0
 3012 0062 02E0     		b	.L227	@
 3013              	.L226:
1103:core/lpc17xx_uart.c **** 		break;
 3014              		.loc 1 1103 0
 3015 0064 0223     		movs	r3, #2	@ tmp131,
 3016 0066 FB73     		strb	r3, [r7, #15]	@ tmp132, tmp
1104:core/lpc17xx_uart.c **** 	default:
 3017              		.loc 1 1104 0
 3018 0068 00BF     		nop
 3019              	.L227:
1107:core/lpc17xx_uart.c **** 	}
1108:core/lpc17xx_uart.c **** 
1109:core/lpc17xx_uart.c **** 	if (NewState == ACTIVE){
 3020              		.loc 1 1109 0
 3021 006a BB78     		ldrb	r3, [r7, #2]	@ zero_extendqisi2	@ tmp133, NewState
 3022 006c 012B     		cmp	r3, #1	@ tmp133,
 3023 006e 08D1     		bne	.L228	@,
1110:core/lpc17xx_uart.c **** 		UARTx->MCR |= tmp;
 3024              		.loc 1 1110 0
 3025 0070 7B68     		ldr	r3, [r7, #4]	@ tmp134, UARTx
 3026 0072 1B7C     		ldrb	r3, [r3, #16]	@ tmp136, UARTx_7(D)->MCR
 3027 0074 DAB2     		uxtb	r2, r3	@ D.6737, tmp136
 3028 0076 FB7B     		ldrb	r3, [r7, #15]	@ tmp137, tmp
 3029 0078 1343     		orrs	r3, r3, r2	@, tmp138, tmp137, D.6737
 3030 007a DAB2     		uxtb	r2, r3	@ D.6737, tmp138
 3031 007c 7B68     		ldr	r3, [r7, #4]	@ tmp139, UARTx
 3032 007e 1A74     		strb	r2, [r3, #16]	@ tmp140, UARTx_7(D)->MCR
1111:core/lpc17xx_uart.c **** 	} else {
1112:core/lpc17xx_uart.c **** 		UARTx->MCR &= (~tmp) & UART1_MCR_BITMASK;
1113:core/lpc17xx_uart.c **** 	}
1114:core/lpc17xx_uart.c **** }
 3033              		.loc 1 1114 0
 3034 0080 0CE0     		b	.L230	@
 3035              	.L228:
1112:core/lpc17xx_uart.c **** 	}
 3036              		.loc 1 1112 0
 3037 0082 7B68     		ldr	r3, [r7, #4]	@ tmp141, UARTx
 3038 0084 1B7C     		ldrb	r3, [r3, #16]	@ tmp143, UARTx_7(D)->MCR
 3039 0086 DAB2     		uxtb	r2, r3	@ D.6737, tmp143
 3040 0088 FB7B     		ldrb	r3, [r7, #15]	@ tmp144, tmp
 3041 008a DB43     		mvns	r3, r3	@ tmp145, tmp144
 3042 008c DBB2     		uxtb	r3, r3	@ D.6737, tmp145
 3043 008e 1340     		ands	r3, r3, r2	@, tmp146, D.6737, D.6737
 3044 0090 DBB2     		uxtb	r3, r3	@ D.6737, tmp146
 3045 0092 23F00C03 		bic	r3, r3, #12	@ tmp147, D.6737,
 3046 0096 DAB2     		uxtb	r2, r3	@ D.6737, tmp147
 3047 0098 7B68     		ldr	r3, [r7, #4]	@ tmp148, UARTx
 3048 009a 1A74     		strb	r2, [r3, #16]	@ tmp149, UARTx_7(D)->MCR
 3049              	.L230:
 3050              		.loc 1 1114 0
 3051 009c 00BF     		nop
 3052 009e 1037     		adds	r7, r7, #16	@,,
 3053              		.cfi_def_cfa_offset 8
 3054 00a0 BD46     		mov	sp, r7	@,
ARM GAS  C:\Users\STUDENT\AppData\Local\Temp\ccMxouBa.s 			page 75


 3055              		.cfi_def_cfa_register 13
 3056              		@ sp needed	@
 3057 00a2 80BD     		pop	{r7, pc}	@
 3058              	.L232:
 3059              		.align	2
 3060              	.L231:
 3061 00a4 00000140 		.word	1073807360
 3062 00a8 00000000 		.word	.LC0
 3063              		.cfi_endproc
 3064              	.LFE74:
 3065              		.size	UART_FullModemForcePinState, .-UART_FullModemForcePinState
 3066              		.section	.text.UART_FullModemConfigMode,"ax",%progbits
 3067              		.align	2
 3068              		.global	UART_FullModemConfigMode
 3069              		.thumb
 3070              		.thumb_func
 3071              		.type	UART_FullModemConfigMode, %function
 3072              	UART_FullModemConfigMode:
 3073              	.LFB75:
1115:core/lpc17xx_uart.c **** 
1116:core/lpc17xx_uart.c **** 
1117:core/lpc17xx_uart.c **** /*********************************************************************//**
1118:core/lpc17xx_uart.c ****  * @brief		Configure Full Modem mode for UART peripheral
1119:core/lpc17xx_uart.c ****  * @param[in]	UARTx	UART1 (only)
1120:core/lpc17xx_uart.c ****  * @param[in]	Mode Full Modem mode, should be:
1121:core/lpc17xx_uart.c ****  * 				- UART1_MODEM_MODE_LOOPBACK: Loop back mode.
1122:core/lpc17xx_uart.c ****  * 				- UART1_MODEM_MODE_AUTO_RTS: Auto-RTS mode.
1123:core/lpc17xx_uart.c ****  * 				- UART1_MODEM_MODE_AUTO_CTS: Auto-CTS mode.
1124:core/lpc17xx_uart.c ****  * @param[in]	NewState New State of this mode, should be:
1125:core/lpc17xx_uart.c ****  * 				- ENABLE: Enable this mode.
1126:core/lpc17xx_uart.c **** 				- DISABLE: Disable this mode.
1127:core/lpc17xx_uart.c ****  * @return none
1128:core/lpc17xx_uart.c ****  **********************************************************************/
1129:core/lpc17xx_uart.c **** void UART_FullModemConfigMode(LPC_UART1_TypeDef *UARTx, UART_MODEM_MODE_Type Mode, \
1130:core/lpc17xx_uart.c **** 							FunctionalState NewState)
1131:core/lpc17xx_uart.c **** {
 3074              		.loc 1 1131 0
 3075              		.cfi_startproc
 3076              		@ args = 0, pretend = 0, frame = 16
 3077              		@ frame_needed = 1, uses_anonymous_args = 0
 3078 0000 80B5     		push	{r7, lr}	@
 3079              		.cfi_def_cfa_offset 8
 3080              		.cfi_offset 7, -8
 3081              		.cfi_offset 14, -4
 3082 0002 84B0     		sub	sp, sp, #16	@,,
 3083              		.cfi_def_cfa_offset 24
 3084 0004 00AF     		add	r7, sp, #0	@,,
 3085              		.cfi_def_cfa_register 7
 3086 0006 7860     		str	r0, [r7, #4]	@ UARTx, UARTx
 3087 0008 0B46     		mov	r3, r1	@ tmp117, Mode
 3088 000a FB70     		strb	r3, [r7, #3]	@ tmp118, Mode
 3089 000c 1346     		mov	r3, r2	@ tmp120, tmp119
 3090 000e BB70     		strb	r3, [r7, #2]	@ tmp120, NewState
1132:core/lpc17xx_uart.c **** 	uint8_t tmp;
1133:core/lpc17xx_uart.c **** 
1134:core/lpc17xx_uart.c **** 	CHECK_PARAM(PARAM_UART1_MODEM(UARTx));
 3091              		.loc 1 1134 0
ARM GAS  C:\Users\STUDENT\AppData\Local\Temp\ccMxouBa.s 			page 76


 3092 0010 7B68     		ldr	r3, [r7, #4]	@ tmp121, UARTx
 3093 0012 274A     		ldr	r2, .L245	@ tmp122,
 3094 0014 9342     		cmp	r3, r2	@ tmp121, tmp122
 3095 0016 04D0     		beq	.L234	@,
 3096              		.loc 1 1134 0 is_stmt 0 discriminator 1
 3097 0018 40F26E41 		movw	r1, #1134	@,
 3098 001c 2548     		ldr	r0, .L245+4	@,
 3099 001e FFF7FEFF 		bl	check_failed	@
 3100              	.L234:
1135:core/lpc17xx_uart.c **** 	CHECK_PARAM(PARAM_UART1_MODEM_MODE(Mode));
 3101              		.loc 1 1135 0 is_stmt 1
 3102 0022 FB78     		ldrb	r3, [r7, #3]	@ zero_extendqisi2	@ tmp123, Mode
 3103 0024 002B     		cmp	r3, #0	@ tmp123,
 3104 0026 0AD0     		beq	.L235	@,
 3105              		.loc 1 1135 0 is_stmt 0 discriminator 1
 3106 0028 FB78     		ldrb	r3, [r7, #3]	@ zero_extendqisi2	@ tmp124, Mode
 3107 002a 012B     		cmp	r3, #1	@ tmp124,
 3108 002c 07D0     		beq	.L235	@,
 3109              		.loc 1 1135 0 discriminator 2
 3110 002e FB78     		ldrb	r3, [r7, #3]	@ zero_extendqisi2	@ tmp125, Mode
 3111 0030 022B     		cmp	r3, #2	@ tmp125,
 3112 0032 04D0     		beq	.L235	@,
 3113              		.loc 1 1135 0 discriminator 3
 3114 0034 40F26F41 		movw	r1, #1135	@,
 3115 0038 1E48     		ldr	r0, .L245+4	@,
 3116 003a FFF7FEFF 		bl	check_failed	@
 3117              	.L235:
1136:core/lpc17xx_uart.c **** 	CHECK_PARAM(PARAM_FUNCTIONALSTATE(NewState));
 3118              		.loc 1 1136 0 is_stmt 1
 3119 003e BB78     		ldrb	r3, [r7, #2]	@ zero_extendqisi2	@ tmp126, NewState
 3120 0040 002B     		cmp	r3, #0	@ tmp126,
 3121 0042 07D0     		beq	.L236	@,
 3122              		.loc 1 1136 0 is_stmt 0 discriminator 1
 3123 0044 BB78     		ldrb	r3, [r7, #2]	@ zero_extendqisi2	@ tmp127, NewState
 3124 0046 012B     		cmp	r3, #1	@ tmp127,
 3125 0048 04D0     		beq	.L236	@,
 3126              		.loc 1 1136 0 discriminator 2
 3127 004a 4FF48E61 		mov	r1, #1136	@,
 3128 004e 1948     		ldr	r0, .L245+4	@,
 3129 0050 FFF7FEFF 		bl	check_failed	@
 3130              	.L236:
1137:core/lpc17xx_uart.c **** 
1138:core/lpc17xx_uart.c **** 	switch(Mode){
 3131              		.loc 1 1138 0 is_stmt 1
 3132 0054 FB78     		ldrb	r3, [r7, #3]	@ zero_extendqisi2	@ D.6738, Mode
 3133 0056 012B     		cmp	r3, #1	@ D.6738,
 3134 0058 07D0     		beq	.L238	@,
 3135 005a 022B     		cmp	r3, #2	@ D.6738,
 3136 005c 08D0     		beq	.L239	@,
 3137 005e 002B     		cmp	r3, #0	@ D.6738,
 3138 0060 00D0     		beq	.L240	@,
1139:core/lpc17xx_uart.c **** 	case UART1_MODEM_MODE_LOOPBACK:
1140:core/lpc17xx_uart.c **** 		tmp = UART1_MCR_LOOPB_EN;
1141:core/lpc17xx_uart.c **** 		break;
1142:core/lpc17xx_uart.c **** 	case UART1_MODEM_MODE_AUTO_RTS:
1143:core/lpc17xx_uart.c **** 		tmp = UART1_MCR_AUTO_RTS_EN;
1144:core/lpc17xx_uart.c **** 		break;
ARM GAS  C:\Users\STUDENT\AppData\Local\Temp\ccMxouBa.s 			page 77


1145:core/lpc17xx_uart.c **** 	case UART1_MODEM_MODE_AUTO_CTS:
1146:core/lpc17xx_uart.c **** 		tmp = UART1_MCR_AUTO_CTS_EN;
1147:core/lpc17xx_uart.c **** 		break;
1148:core/lpc17xx_uart.c **** 	default:
1149:core/lpc17xx_uart.c **** 		break;
 3139              		.loc 1 1149 0
 3140 0062 08E0     		b	.L241	@
 3141              	.L240:
1140:core/lpc17xx_uart.c **** 		break;
 3142              		.loc 1 1140 0
 3143 0064 1023     		movs	r3, #16	@ tmp128,
 3144 0066 FB73     		strb	r3, [r7, #15]	@ tmp129, tmp
1141:core/lpc17xx_uart.c **** 	case UART1_MODEM_MODE_AUTO_RTS:
 3145              		.loc 1 1141 0
 3146 0068 05E0     		b	.L241	@
 3147              	.L238:
1143:core/lpc17xx_uart.c **** 		break;
 3148              		.loc 1 1143 0
 3149 006a 4023     		movs	r3, #64	@ tmp130,
 3150 006c FB73     		strb	r3, [r7, #15]	@ tmp131, tmp
1144:core/lpc17xx_uart.c **** 	case UART1_MODEM_MODE_AUTO_CTS:
 3151              		.loc 1 1144 0
 3152 006e 02E0     		b	.L241	@
 3153              	.L239:
1146:core/lpc17xx_uart.c **** 		break;
 3154              		.loc 1 1146 0
 3155 0070 8023     		movs	r3, #128	@ tmp132,
 3156 0072 FB73     		strb	r3, [r7, #15]	@ tmp133, tmp
1147:core/lpc17xx_uart.c **** 	default:
 3157              		.loc 1 1147 0
 3158 0074 00BF     		nop
 3159              	.L241:
1150:core/lpc17xx_uart.c **** 	}
1151:core/lpc17xx_uart.c **** 
1152:core/lpc17xx_uart.c **** 	if (NewState == ENABLE)
 3160              		.loc 1 1152 0
 3161 0076 BB78     		ldrb	r3, [r7, #2]	@ zero_extendqisi2	@ tmp134, NewState
 3162 0078 012B     		cmp	r3, #1	@ tmp134,
 3163 007a 08D1     		bne	.L242	@,
1153:core/lpc17xx_uart.c **** 	{
1154:core/lpc17xx_uart.c **** 		UARTx->MCR |= tmp;
 3164              		.loc 1 1154 0
 3165 007c 7B68     		ldr	r3, [r7, #4]	@ tmp135, UARTx
 3166 007e 1B7C     		ldrb	r3, [r3, #16]	@ tmp137, UARTx_6(D)->MCR
 3167 0080 DAB2     		uxtb	r2, r3	@ D.6739, tmp137
 3168 0082 FB7B     		ldrb	r3, [r7, #15]	@ tmp138, tmp
 3169 0084 1343     		orrs	r3, r3, r2	@, tmp139, tmp138, D.6739
 3170 0086 DAB2     		uxtb	r2, r3	@ D.6739, tmp139
 3171 0088 7B68     		ldr	r3, [r7, #4]	@ tmp140, UARTx
 3172 008a 1A74     		strb	r2, [r3, #16]	@ tmp141, UARTx_6(D)->MCR
1155:core/lpc17xx_uart.c **** 	}
1156:core/lpc17xx_uart.c **** 	else
1157:core/lpc17xx_uart.c **** 	{
1158:core/lpc17xx_uart.c **** 		UARTx->MCR &= (~tmp) & UART1_MCR_BITMASK;
1159:core/lpc17xx_uart.c **** 	}
1160:core/lpc17xx_uart.c **** }
 3173              		.loc 1 1160 0
ARM GAS  C:\Users\STUDENT\AppData\Local\Temp\ccMxouBa.s 			page 78


 3174 008c 0CE0     		b	.L244	@
 3175              	.L242:
1158:core/lpc17xx_uart.c **** 	}
 3176              		.loc 1 1158 0
 3177 008e 7B68     		ldr	r3, [r7, #4]	@ tmp142, UARTx
 3178 0090 1B7C     		ldrb	r3, [r3, #16]	@ tmp144, UARTx_6(D)->MCR
 3179 0092 DAB2     		uxtb	r2, r3	@ D.6739, tmp144
 3180 0094 FB7B     		ldrb	r3, [r7, #15]	@ tmp145, tmp
 3181 0096 DB43     		mvns	r3, r3	@ tmp146, tmp145
 3182 0098 DBB2     		uxtb	r3, r3	@ D.6739, tmp146
 3183 009a 1340     		ands	r3, r3, r2	@, tmp147, D.6739, D.6739
 3184 009c DBB2     		uxtb	r3, r3	@ D.6739, tmp147
 3185 009e 23F00C03 		bic	r3, r3, #12	@ tmp148, D.6739,
 3186 00a2 DAB2     		uxtb	r2, r3	@ D.6739, tmp148
 3187 00a4 7B68     		ldr	r3, [r7, #4]	@ tmp149, UARTx
 3188 00a6 1A74     		strb	r2, [r3, #16]	@ tmp150, UARTx_6(D)->MCR
 3189              	.L244:
 3190              		.loc 1 1160 0
 3191 00a8 00BF     		nop
 3192 00aa 1037     		adds	r7, r7, #16	@,,
 3193              		.cfi_def_cfa_offset 8
 3194 00ac BD46     		mov	sp, r7	@,
 3195              		.cfi_def_cfa_register 13
 3196              		@ sp needed	@
 3197 00ae 80BD     		pop	{r7, pc}	@
 3198              	.L246:
 3199              		.align	2
 3200              	.L245:
 3201 00b0 00000140 		.word	1073807360
 3202 00b4 00000000 		.word	.LC0
 3203              		.cfi_endproc
 3204              	.LFE75:
 3205              		.size	UART_FullModemConfigMode, .-UART_FullModemConfigMode
 3206              		.section	.text.UART_FullModemGetStatus,"ax",%progbits
 3207              		.align	2
 3208              		.global	UART_FullModemGetStatus
 3209              		.thumb
 3210              		.thumb_func
 3211              		.type	UART_FullModemGetStatus, %function
 3212              	UART_FullModemGetStatus:
 3213              	.LFB76:
1161:core/lpc17xx_uart.c **** 
1162:core/lpc17xx_uart.c **** 
1163:core/lpc17xx_uart.c **** /*********************************************************************//**
1164:core/lpc17xx_uart.c ****  * @brief		Get current status of modem status register
1165:core/lpc17xx_uart.c ****  * @param[in]	UARTx	UART1 (only)
1166:core/lpc17xx_uart.c ****  * @return 		Current value of modem status register
1167:core/lpc17xx_uart.c ****  * Note:	The return value of this function must be ANDed with each member
1168:core/lpc17xx_uart.c ****  * 			UART_MODEM_STAT_type enumeration to determine current flag status
1169:core/lpc17xx_uart.c ****  * 			corresponding to each modem flag status. Because some flags in
1170:core/lpc17xx_uart.c ****  * 			modem status register will be cleared after reading, the next reading
1171:core/lpc17xx_uart.c ****  * 			modem register could not be correct. So this function used to
1172:core/lpc17xx_uart.c ****  * 			read modem status register in one time only, then the return value
1173:core/lpc17xx_uart.c ****  * 			used to check all flags.
1174:core/lpc17xx_uart.c ****  **********************************************************************/
1175:core/lpc17xx_uart.c **** uint8_t UART_FullModemGetStatus(LPC_UART1_TypeDef *UARTx)
1176:core/lpc17xx_uart.c **** {
ARM GAS  C:\Users\STUDENT\AppData\Local\Temp\ccMxouBa.s 			page 79


 3214              		.loc 1 1176 0
 3215              		.cfi_startproc
 3216              		@ args = 0, pretend = 0, frame = 8
 3217              		@ frame_needed = 1, uses_anonymous_args = 0
 3218 0000 80B5     		push	{r7, lr}	@
 3219              		.cfi_def_cfa_offset 8
 3220              		.cfi_offset 7, -8
 3221              		.cfi_offset 14, -4
 3222 0002 82B0     		sub	sp, sp, #8	@,,
 3223              		.cfi_def_cfa_offset 16
 3224 0004 00AF     		add	r7, sp, #0	@,,
 3225              		.cfi_def_cfa_register 7
 3226 0006 7860     		str	r0, [r7, #4]	@ UARTx, UARTx
1177:core/lpc17xx_uart.c **** 	CHECK_PARAM(PARAM_UART1_MODEM(UARTx));
 3227              		.loc 1 1177 0
 3228 0008 7B68     		ldr	r3, [r7, #4]	@ tmp112, UARTx
 3229 000a 074A     		ldr	r2, .L250	@ tmp113,
 3230 000c 9342     		cmp	r3, r2	@ tmp112, tmp113
 3231 000e 04D0     		beq	.L248	@,
 3232              		.loc 1 1177 0 is_stmt 0 discriminator 1
 3233 0010 40F29941 		movw	r1, #1177	@,
 3234 0014 0548     		ldr	r0, .L250+4	@,
 3235 0016 FFF7FEFF 		bl	check_failed	@
 3236              	.L248:
1178:core/lpc17xx_uart.c **** 	return ((UARTx->MSR) & UART1_MSR_BITMASK);
 3237              		.loc 1 1178 0 is_stmt 1
 3238 001a 7B68     		ldr	r3, [r7, #4]	@ tmp114, UARTx
 3239 001c 1B7E     		ldrb	r3, [r3, #24]	@ tmp116, UARTx_2(D)->MSR
 3240 001e DBB2     		uxtb	r3, r3	@ D.6740, tmp116
1179:core/lpc17xx_uart.c **** }
 3241              		.loc 1 1179 0
 3242 0020 1846     		mov	r0, r3	@, <retval>
 3243 0022 0837     		adds	r7, r7, #8	@,,
 3244              		.cfi_def_cfa_offset 8
 3245 0024 BD46     		mov	sp, r7	@,
 3246              		.cfi_def_cfa_register 13
 3247              		@ sp needed	@
 3248 0026 80BD     		pop	{r7, pc}	@
 3249              	.L251:
 3250              		.align	2
 3251              	.L250:
 3252 0028 00000140 		.word	1073807360
 3253 002c 00000000 		.word	.LC0
 3254              		.cfi_endproc
 3255              	.LFE76:
 3256              		.size	UART_FullModemGetStatus, .-UART_FullModemGetStatus
 3257              		.section	.text.UART_RS485Config,"ax",%progbits
 3258              		.align	2
 3259              		.global	UART_RS485Config
 3260              		.thumb
 3261              		.thumb_func
 3262              		.type	UART_RS485Config, %function
 3263              	UART_RS485Config:
 3264              	.LFB77:
1180:core/lpc17xx_uart.c **** 
1181:core/lpc17xx_uart.c **** 
1182:core/lpc17xx_uart.c **** /*********************************************************************//**
ARM GAS  C:\Users\STUDENT\AppData\Local\Temp\ccMxouBa.s 			page 80


1183:core/lpc17xx_uart.c ****  * @brief		Configure UART peripheral in RS485 mode according to the specified
1184:core/lpc17xx_uart.c **** *               parameters in the RS485ConfigStruct.
1185:core/lpc17xx_uart.c ****  * @param[in]	UARTx	UART1 (only)
1186:core/lpc17xx_uart.c ****  * @param[in]	RS485ConfigStruct Pointer to a UART1_RS485_CTRLCFG_Type structure
1187:core/lpc17xx_uart.c **** *                    that contains the configuration information for specified UART
1188:core/lpc17xx_uart.c **** *                    in RS485 mode.
1189:core/lpc17xx_uart.c ****  * @return		None
1190:core/lpc17xx_uart.c ****  **********************************************************************/
1191:core/lpc17xx_uart.c **** void UART_RS485Config(LPC_UART1_TypeDef *UARTx, UART1_RS485_CTRLCFG_Type *RS485ConfigStruct)
1192:core/lpc17xx_uart.c **** {
 3265              		.loc 1 1192 0
 3266              		.cfi_startproc
 3267              		@ args = 0, pretend = 0, frame = 16
 3268              		@ frame_needed = 1, uses_anonymous_args = 0
 3269 0000 80B5     		push	{r7, lr}	@
 3270              		.cfi_def_cfa_offset 8
 3271              		.cfi_offset 7, -8
 3272              		.cfi_offset 14, -4
 3273 0002 84B0     		sub	sp, sp, #16	@,,
 3274              		.cfi_def_cfa_offset 24
 3275 0004 00AF     		add	r7, sp, #0	@,,
 3276              		.cfi_def_cfa_register 7
 3277 0006 7860     		str	r0, [r7, #4]	@ UARTx, UARTx
 3278 0008 3960     		str	r1, [r7]	@ RS485ConfigStruct, RS485ConfigStruct
1193:core/lpc17xx_uart.c **** 	uint32_t tmp;
1194:core/lpc17xx_uart.c **** 
1195:core/lpc17xx_uart.c **** 	CHECK_PARAM(PARAM_UART1_MODEM(UARTx));
 3279              		.loc 1 1195 0
 3280 000a 7B68     		ldr	r3, [r7, #4]	@ tmp136, UARTx
 3281 000c 5B4A     		ldr	r2, .L268	@ tmp137,
 3282 000e 9342     		cmp	r3, r2	@ tmp136, tmp137
 3283 0010 04D0     		beq	.L253	@,
 3284              		.loc 1 1195 0 is_stmt 0 discriminator 1
 3285 0012 40F2AB41 		movw	r1, #1195	@,
 3286 0016 5A48     		ldr	r0, .L268+4	@,
 3287 0018 FFF7FEFF 		bl	check_failed	@
 3288              	.L253:
1196:core/lpc17xx_uart.c **** 	CHECK_PARAM(PARAM_FUNCTIONALSTATE(RS485ConfigStruct->AutoAddrDetect_State));
 3289              		.loc 1 1196 0 is_stmt 1
 3290 001c 3B68     		ldr	r3, [r7]	@ tmp138, RS485ConfigStruct
 3291 001e 9B78     		ldrb	r3, [r3, #2]	@ zero_extendqisi2	@ D.6741, RS485ConfigStruct_21(D)->AutoAddrDetect_State
 3292 0020 002B     		cmp	r3, #0	@ D.6741,
 3293 0022 08D0     		beq	.L254	@,
 3294              		.loc 1 1196 0 is_stmt 0 discriminator 1
 3295 0024 3B68     		ldr	r3, [r7]	@ tmp139, RS485ConfigStruct
 3296 0026 9B78     		ldrb	r3, [r3, #2]	@ zero_extendqisi2	@ D.6741, RS485ConfigStruct_21(D)->AutoAddrDetect_State
 3297 0028 012B     		cmp	r3, #1	@ D.6741,
 3298 002a 04D0     		beq	.L254	@,
 3299              		.loc 1 1196 0 discriminator 2
 3300 002c 40F2AC41 		movw	r1, #1196	@,
 3301 0030 5348     		ldr	r0, .L268+4	@,
 3302 0032 FFF7FEFF 		bl	check_failed	@
 3303              	.L254:
1197:core/lpc17xx_uart.c **** 	CHECK_PARAM(PARAM_FUNCTIONALSTATE(RS485ConfigStruct->AutoDirCtrl_State));
 3304              		.loc 1 1197 0 is_stmt 1
 3305 0036 3B68     		ldr	r3, [r7]	@ tmp140, RS485ConfigStruct
 3306 0038 DB78     		ldrb	r3, [r3, #3]	@ zero_extendqisi2	@ D.6741, RS485ConfigStruct_21(D)->AutoDirCtrl_State
ARM GAS  C:\Users\STUDENT\AppData\Local\Temp\ccMxouBa.s 			page 81


 3307 003a 002B     		cmp	r3, #0	@ D.6741,
 3308 003c 08D0     		beq	.L255	@,
 3309              		.loc 1 1197 0 is_stmt 0 discriminator 1
 3310 003e 3B68     		ldr	r3, [r7]	@ tmp141, RS485ConfigStruct
 3311 0040 DB78     		ldrb	r3, [r3, #3]	@ zero_extendqisi2	@ D.6741, RS485ConfigStruct_21(D)->AutoDirCtrl_State
 3312 0042 012B     		cmp	r3, #1	@ D.6741,
 3313 0044 04D0     		beq	.L255	@,
 3314              		.loc 1 1197 0 discriminator 2
 3315 0046 40F2AD41 		movw	r1, #1197	@,
 3316 004a 4D48     		ldr	r0, .L268+4	@,
 3317 004c FFF7FEFF 		bl	check_failed	@
 3318              	.L255:
1198:core/lpc17xx_uart.c **** 	CHECK_PARAM(PARAM_UART1_RS485_CFG_DELAYVALUE(RS485ConfigStruct->DelayValue));
 3319              		.loc 1 1198 0 is_stmt 1
 3320 0050 3B68     		ldr	r3, [r7]	@ tmp142, RS485ConfigStruct
 3321 0052 DB79     		ldrb	r3, [r3, #7]	@ zero_extendqisi2	@ D.6742, RS485ConfigStruct_21(D)->DelayValue
 3322 0054 FF2B     		cmp	r3, #255	@ D.6742,
 3323 0056 04D1     		bne	.L256	@,
 3324              		.loc 1 1198 0 is_stmt 0 discriminator 1
 3325 0058 40F2AE41 		movw	r1, #1198	@,
 3326 005c 4848     		ldr	r0, .L268+4	@,
 3327 005e FFF7FEFF 		bl	check_failed	@
 3328              	.L256:
1199:core/lpc17xx_uart.c **** 	CHECK_PARAM(PARAM_SETSTATE(RS485ConfigStruct->DirCtrlPol_Level));
 3329              		.loc 1 1199 0 is_stmt 1
 3330 0062 3B68     		ldr	r3, [r7]	@ tmp143, RS485ConfigStruct
 3331 0064 5B79     		ldrb	r3, [r3, #5]	@ zero_extendqisi2	@ D.6743, RS485ConfigStruct_21(D)->DirCtrlPol_Level
 3332 0066 002B     		cmp	r3, #0	@ D.6743,
 3333 0068 08D0     		beq	.L257	@,
 3334              		.loc 1 1199 0 is_stmt 0 discriminator 1
 3335 006a 3B68     		ldr	r3, [r7]	@ tmp144, RS485ConfigStruct
 3336 006c 5B79     		ldrb	r3, [r3, #5]	@ zero_extendqisi2	@ D.6743, RS485ConfigStruct_21(D)->DirCtrlPol_Level
 3337 006e 012B     		cmp	r3, #1	@ D.6743,
 3338 0070 04D0     		beq	.L257	@,
 3339              		.loc 1 1199 0 discriminator 2
 3340 0072 40F2AF41 		movw	r1, #1199	@,
 3341 0076 4248     		ldr	r0, .L268+4	@,
 3342 0078 FFF7FEFF 		bl	check_failed	@
 3343              	.L257:
1200:core/lpc17xx_uart.c **** 	CHECK_PARAM(PARAM_UART_RS485_DIRCTRL_PIN(RS485ConfigStruct->DirCtrlPin));
 3344              		.loc 1 1200 0 is_stmt 1
 3345 007c 3B68     		ldr	r3, [r7]	@ tmp145, RS485ConfigStruct
 3346 007e 1B79     		ldrb	r3, [r3, #4]	@ zero_extendqisi2	@ D.6744, RS485ConfigStruct_21(D)->DirCtrlPin
 3347 0080 002B     		cmp	r3, #0	@ D.6744,
 3348 0082 08D0     		beq	.L258	@,
 3349              		.loc 1 1200 0 is_stmt 0 discriminator 1
 3350 0084 3B68     		ldr	r3, [r7]	@ tmp146, RS485ConfigStruct
 3351 0086 1B79     		ldrb	r3, [r3, #4]	@ zero_extendqisi2	@ D.6744, RS485ConfigStruct_21(D)->DirCtrlPin
 3352 0088 012B     		cmp	r3, #1	@ D.6744,
 3353 008a 04D0     		beq	.L258	@,
 3354              		.loc 1 1200 0 discriminator 2
 3355 008c 4FF49661 		mov	r1, #1200	@,
 3356 0090 3B48     		ldr	r0, .L268+4	@,
 3357 0092 FFF7FEFF 		bl	check_failed	@
 3358              	.L258:
1201:core/lpc17xx_uart.c **** 	CHECK_PARAM(PARAM_UART1_RS485_CFG_MATCHADDRVALUE(RS485ConfigStruct->MatchAddrValue));
 3359              		.loc 1 1201 0 is_stmt 1
ARM GAS  C:\Users\STUDENT\AppData\Local\Temp\ccMxouBa.s 			page 82


 3360 0096 3B68     		ldr	r3, [r7]	@ tmp147, RS485ConfigStruct
 3361 0098 9B79     		ldrb	r3, [r3, #6]	@ zero_extendqisi2	@ D.6742, RS485ConfigStruct_21(D)->MatchAddrValue
 3362 009a FF2B     		cmp	r3, #255	@ D.6742,
 3363 009c 04D1     		bne	.L259	@,
 3364              		.loc 1 1201 0 is_stmt 0 discriminator 1
 3365 009e 40F2B141 		movw	r1, #1201	@,
 3366 00a2 3748     		ldr	r0, .L268+4	@,
 3367 00a4 FFF7FEFF 		bl	check_failed	@
 3368              	.L259:
1202:core/lpc17xx_uart.c **** 	CHECK_PARAM(PARAM_FUNCTIONALSTATE(RS485ConfigStruct->NormalMultiDropMode_State));
 3369              		.loc 1 1202 0 is_stmt 1
 3370 00a8 3B68     		ldr	r3, [r7]	@ tmp148, RS485ConfigStruct
 3371 00aa 1B78     		ldrb	r3, [r3]	@ zero_extendqisi2	@ D.6741, RS485ConfigStruct_21(D)->NormalMultiDropMode_State
 3372 00ac 002B     		cmp	r3, #0	@ D.6741,
 3373 00ae 08D0     		beq	.L260	@,
 3374              		.loc 1 1202 0 is_stmt 0 discriminator 1
 3375 00b0 3B68     		ldr	r3, [r7]	@ tmp149, RS485ConfigStruct
 3376 00b2 1B78     		ldrb	r3, [r3]	@ zero_extendqisi2	@ D.6741, RS485ConfigStruct_21(D)->NormalMultiDropMode_State
 3377 00b4 012B     		cmp	r3, #1	@ D.6741,
 3378 00b6 04D0     		beq	.L260	@,
 3379              		.loc 1 1202 0 discriminator 2
 3380 00b8 40F2B241 		movw	r1, #1202	@,
 3381 00bc 3048     		ldr	r0, .L268+4	@,
 3382 00be FFF7FEFF 		bl	check_failed	@
 3383              	.L260:
1203:core/lpc17xx_uart.c **** 	CHECK_PARAM(PARAM_FUNCTIONALSTATE(RS485ConfigStruct->Rx_State));
 3384              		.loc 1 1203 0 is_stmt 1
 3385 00c2 3B68     		ldr	r3, [r7]	@ tmp150, RS485ConfigStruct
 3386 00c4 5B78     		ldrb	r3, [r3, #1]	@ zero_extendqisi2	@ D.6741, RS485ConfigStruct_21(D)->Rx_State
 3387 00c6 002B     		cmp	r3, #0	@ D.6741,
 3388 00c8 08D0     		beq	.L261	@,
 3389              		.loc 1 1203 0 is_stmt 0 discriminator 1
 3390 00ca 3B68     		ldr	r3, [r7]	@ tmp151, RS485ConfigStruct
 3391 00cc 5B78     		ldrb	r3, [r3, #1]	@ zero_extendqisi2	@ D.6741, RS485ConfigStruct_21(D)->Rx_State
 3392 00ce 012B     		cmp	r3, #1	@ D.6741,
 3393 00d0 04D0     		beq	.L261	@,
 3394              		.loc 1 1203 0 discriminator 2
 3395 00d2 40F2B341 		movw	r1, #1203	@,
 3396 00d6 2A48     		ldr	r0, .L268+4	@,
 3397 00d8 FFF7FEFF 		bl	check_failed	@
 3398              	.L261:
1204:core/lpc17xx_uart.c **** 
1205:core/lpc17xx_uart.c **** 	tmp = 0;
 3399              		.loc 1 1205 0 is_stmt 1
 3400 00dc 0023     		movs	r3, #0	@ tmp152,
 3401 00de FB60     		str	r3, [r7, #12]	@ tmp152, tmp
1206:core/lpc17xx_uart.c **** 	// If Auto Direction Control is enabled -  This function is used in Master mode
1207:core/lpc17xx_uart.c **** 	if (RS485ConfigStruct->AutoDirCtrl_State == ENABLE)
 3402              		.loc 1 1207 0
 3403 00e0 3B68     		ldr	r3, [r7]	@ tmp153, RS485ConfigStruct
 3404 00e2 DB78     		ldrb	r3, [r3, #3]	@ zero_extendqisi2	@ D.6741, RS485ConfigStruct_21(D)->AutoDirCtrl_State
 3405 00e4 012B     		cmp	r3, #1	@ D.6741,
 3406 00e6 18D1     		bne	.L262	@,
1208:core/lpc17xx_uart.c **** 	{
1209:core/lpc17xx_uart.c **** 		tmp |= UART1_RS485CTRL_DCTRL_EN;
 3407              		.loc 1 1209 0
 3408 00e8 FB68     		ldr	r3, [r7, #12]	@ tmp155, tmp
ARM GAS  C:\Users\STUDENT\AppData\Local\Temp\ccMxouBa.s 			page 83


 3409 00ea 43F01003 		orr	r3, r3, #16	@ tmp154, tmp155,
 3410 00ee FB60     		str	r3, [r7, #12]	@ tmp154, tmp
1210:core/lpc17xx_uart.c **** 
1211:core/lpc17xx_uart.c **** 		// Set polar
1212:core/lpc17xx_uart.c **** 		if (RS485ConfigStruct->DirCtrlPol_Level == SET)
 3411              		.loc 1 1212 0
 3412 00f0 3B68     		ldr	r3, [r7]	@ tmp156, RS485ConfigStruct
 3413 00f2 5B79     		ldrb	r3, [r3, #5]	@ zero_extendqisi2	@ D.6743, RS485ConfigStruct_21(D)->DirCtrlPol_Level
 3414 00f4 012B     		cmp	r3, #1	@ D.6743,
 3415 00f6 03D1     		bne	.L263	@,
1213:core/lpc17xx_uart.c **** 		{
1214:core/lpc17xx_uart.c **** 			tmp |= UART1_RS485CTRL_OINV_1;
 3416              		.loc 1 1214 0
 3417 00f8 FB68     		ldr	r3, [r7, #12]	@ tmp158, tmp
 3418 00fa 43F02003 		orr	r3, r3, #32	@ tmp157, tmp158,
 3419 00fe FB60     		str	r3, [r7, #12]	@ tmp157, tmp
 3420              	.L263:
1215:core/lpc17xx_uart.c **** 		}
1216:core/lpc17xx_uart.c **** 
1217:core/lpc17xx_uart.c **** 		// Set pin according to
1218:core/lpc17xx_uart.c **** 		if (RS485ConfigStruct->DirCtrlPin == UART1_RS485_DIRCTRL_DTR)
 3421              		.loc 1 1218 0
 3422 0100 3B68     		ldr	r3, [r7]	@ tmp159, RS485ConfigStruct
 3423 0102 1B79     		ldrb	r3, [r3, #4]	@ zero_extendqisi2	@ D.6744, RS485ConfigStruct_21(D)->DirCtrlPin
 3424 0104 012B     		cmp	r3, #1	@ D.6744,
 3425 0106 03D1     		bne	.L264	@,
1219:core/lpc17xx_uart.c **** 		{
1220:core/lpc17xx_uart.c **** 			tmp |= UART1_RS485CTRL_SEL_DTR;
 3426              		.loc 1 1220 0
 3427 0108 FB68     		ldr	r3, [r7, #12]	@ tmp161, tmp
 3428 010a 43F00803 		orr	r3, r3, #8	@ tmp160, tmp161,
 3429 010e FB60     		str	r3, [r7, #12]	@ tmp160, tmp
 3430              	.L264:
1221:core/lpc17xx_uart.c **** 		}
1222:core/lpc17xx_uart.c **** 
1223:core/lpc17xx_uart.c **** 		// Fill delay time
1224:core/lpc17xx_uart.c **** 		UARTx->RS485DLY = RS485ConfigStruct->DelayValue & UART1_RS485DLY_BITMASK;
 3431              		.loc 1 1224 0
 3432 0110 3B68     		ldr	r3, [r7]	@ tmp162, RS485ConfigStruct
 3433 0112 DA79     		ldrb	r2, [r3, #7]	@ zero_extendqisi2	@ D.6742, RS485ConfigStruct_21(D)->DelayValue
 3434 0114 7B68     		ldr	r3, [r7, #4]	@ tmp163, UARTx
 3435 0116 83F85420 		strb	r2, [r3, #84]	@ tmp164, UARTx_18(D)->RS485DLY
 3436              	.L262:
1225:core/lpc17xx_uart.c **** 	}
1226:core/lpc17xx_uart.c **** 
1227:core/lpc17xx_uart.c **** 	// MultiDrop mode is enable
1228:core/lpc17xx_uart.c **** 	if (RS485ConfigStruct->NormalMultiDropMode_State == ENABLE)
 3437              		.loc 1 1228 0
 3438 011a 3B68     		ldr	r3, [r7]	@ tmp165, RS485ConfigStruct
 3439 011c 1B78     		ldrb	r3, [r3]	@ zero_extendqisi2	@ D.6741, RS485ConfigStruct_21(D)->NormalMultiDropMode_State
 3440 011e 012B     		cmp	r3, #1	@ D.6741,
 3441 0120 03D1     		bne	.L265	@,
1229:core/lpc17xx_uart.c **** 	{
1230:core/lpc17xx_uart.c **** 		tmp |= UART1_RS485CTRL_NMM_EN;
 3442              		.loc 1 1230 0
 3443 0122 FB68     		ldr	r3, [r7, #12]	@ tmp167, tmp
 3444 0124 43F00103 		orr	r3, r3, #1	@ tmp166, tmp167,
ARM GAS  C:\Users\STUDENT\AppData\Local\Temp\ccMxouBa.s 			page 84


 3445 0128 FB60     		str	r3, [r7, #12]	@ tmp166, tmp
 3446              	.L265:
1231:core/lpc17xx_uart.c **** 	}
1232:core/lpc17xx_uart.c **** 
1233:core/lpc17xx_uart.c **** 	// Auto Address Detect function
1234:core/lpc17xx_uart.c **** 	if (RS485ConfigStruct->AutoAddrDetect_State == ENABLE)
 3447              		.loc 1 1234 0
 3448 012a 3B68     		ldr	r3, [r7]	@ tmp168, RS485ConfigStruct
 3449 012c 9B78     		ldrb	r3, [r3, #2]	@ zero_extendqisi2	@ D.6741, RS485ConfigStruct_21(D)->AutoAddrDetect_State
 3450 012e 012B     		cmp	r3, #1	@ D.6741,
 3451 0130 08D1     		bne	.L266	@,
1235:core/lpc17xx_uart.c **** 	{
1236:core/lpc17xx_uart.c **** 		tmp |= UART1_RS485CTRL_AADEN;
 3452              		.loc 1 1236 0
 3453 0132 FB68     		ldr	r3, [r7, #12]	@ tmp170, tmp
 3454 0134 43F00403 		orr	r3, r3, #4	@ tmp169, tmp170,
 3455 0138 FB60     		str	r3, [r7, #12]	@ tmp169, tmp
1237:core/lpc17xx_uart.c **** 		// Fill Match Address
1238:core/lpc17xx_uart.c **** 		UARTx->ADRMATCH = RS485ConfigStruct->MatchAddrValue & UART1_RS485ADRMATCH_BITMASK;
 3456              		.loc 1 1238 0
 3457 013a 3B68     		ldr	r3, [r7]	@ tmp171, RS485ConfigStruct
 3458 013c 9A79     		ldrb	r2, [r3, #6]	@ zero_extendqisi2	@ D.6742, RS485ConfigStruct_21(D)->MatchAddrValue
 3459 013e 7B68     		ldr	r3, [r7, #4]	@ tmp172, UARTx
 3460 0140 83F85020 		strb	r2, [r3, #80]	@ tmp173, UARTx_18(D)->ADRMATCH
 3461              	.L266:
1239:core/lpc17xx_uart.c **** 	}
1240:core/lpc17xx_uart.c **** 
1241:core/lpc17xx_uart.c **** 
1242:core/lpc17xx_uart.c **** 	// Receiver is disable
1243:core/lpc17xx_uart.c **** 	if (RS485ConfigStruct->Rx_State == DISABLE)
 3462              		.loc 1 1243 0
 3463 0144 3B68     		ldr	r3, [r7]	@ tmp174, RS485ConfigStruct
 3464 0146 5B78     		ldrb	r3, [r3, #1]	@ zero_extendqisi2	@ D.6741, RS485ConfigStruct_21(D)->Rx_State
 3465 0148 002B     		cmp	r3, #0	@ D.6741,
 3466 014a 03D1     		bne	.L267	@,
1244:core/lpc17xx_uart.c **** 	{
1245:core/lpc17xx_uart.c **** 		tmp |= UART1_RS485CTRL_RX_DIS;
 3467              		.loc 1 1245 0
 3468 014c FB68     		ldr	r3, [r7, #12]	@ tmp176, tmp
 3469 014e 43F00203 		orr	r3, r3, #2	@ tmp175, tmp176,
 3470 0152 FB60     		str	r3, [r7, #12]	@ tmp175, tmp
 3471              	.L267:
1246:core/lpc17xx_uart.c **** 	}
1247:core/lpc17xx_uart.c **** 
1248:core/lpc17xx_uart.c **** 	// write back to RS485 control register
1249:core/lpc17xx_uart.c **** 	UARTx->RS485CTRL = tmp & UART1_RS485CTRL_BITMASK;
 3472              		.loc 1 1249 0
 3473 0154 FB68     		ldr	r3, [r7, #12]	@ tmp177, tmp
 3474 0156 DBB2     		uxtb	r3, r3	@ D.6742, tmp177
 3475 0158 03F03F03 		and	r3, r3, #63	@ tmp178, D.6742,
 3476 015c DAB2     		uxtb	r2, r3	@ D.6742, tmp178
 3477 015e 7B68     		ldr	r3, [r7, #4]	@ tmp179, UARTx
 3478 0160 83F84C20 		strb	r2, [r3, #76]	@ tmp180, UARTx_18(D)->RS485CTRL
1250:core/lpc17xx_uart.c **** 
1251:core/lpc17xx_uart.c **** 	// Enable Parity function and leave parity in stick '0' parity as default
1252:core/lpc17xx_uart.c **** 	UARTx->LCR |= (UART_LCR_PARITY_F_0 | UART_LCR_PARITY_EN);
 3479              		.loc 1 1252 0
ARM GAS  C:\Users\STUDENT\AppData\Local\Temp\ccMxouBa.s 			page 85


 3480 0164 7B68     		ldr	r3, [r7, #4]	@ tmp181, UARTx
 3481 0166 1B7B     		ldrb	r3, [r3, #12]	@ tmp183, UARTx_18(D)->LCR
 3482 0168 DBB2     		uxtb	r3, r3	@ D.6742, tmp183
 3483 016a 43F03803 		orr	r3, r3, #56	@ tmp184, D.6742,
 3484 016e DAB2     		uxtb	r2, r3	@ D.6742, tmp184
 3485 0170 7B68     		ldr	r3, [r7, #4]	@ tmp185, UARTx
 3486 0172 1A73     		strb	r2, [r3, #12]	@ tmp186, UARTx_18(D)->LCR
1253:core/lpc17xx_uart.c **** }
 3487              		.loc 1 1253 0
 3488 0174 00BF     		nop
 3489 0176 1037     		adds	r7, r7, #16	@,,
 3490              		.cfi_def_cfa_offset 8
 3491 0178 BD46     		mov	sp, r7	@,
 3492              		.cfi_def_cfa_register 13
 3493              		@ sp needed	@
 3494 017a 80BD     		pop	{r7, pc}	@
 3495              	.L269:
 3496              		.align	2
 3497              	.L268:
 3498 017c 00000140 		.word	1073807360
 3499 0180 00000000 		.word	.LC0
 3500              		.cfi_endproc
 3501              	.LFE77:
 3502              		.size	UART_RS485Config, .-UART_RS485Config
 3503              		.section	.text.UART_RS485ReceiverCmd,"ax",%progbits
 3504              		.align	2
 3505              		.global	UART_RS485ReceiverCmd
 3506              		.thumb
 3507              		.thumb_func
 3508              		.type	UART_RS485ReceiverCmd, %function
 3509              	UART_RS485ReceiverCmd:
 3510              	.LFB78:
1254:core/lpc17xx_uart.c **** 
1255:core/lpc17xx_uart.c **** 
1256:core/lpc17xx_uart.c **** /**
1257:core/lpc17xx_uart.c ****  * @brief 		Enable/Disable receiver in RS485 module in UART1
1258:core/lpc17xx_uart.c ****  * @param[in]	UARTx 		UART1 only.
1259:core/lpc17xx_uart.c ****  * @param[in]	NewState	New State of command, should be:
1260:core/lpc17xx_uart.c ****  * 							- ENABLE: Enable this function.
1261:core/lpc17xx_uart.c ****  * 							- DISABLE: Disable this function.
1262:core/lpc17xx_uart.c ****  * @return		None
1263:core/lpc17xx_uart.c ****  */
1264:core/lpc17xx_uart.c **** void UART_RS485ReceiverCmd(LPC_UART1_TypeDef *UARTx, FunctionalState NewState)
1265:core/lpc17xx_uart.c **** {
 3511              		.loc 1 1265 0
 3512              		.cfi_startproc
 3513              		@ args = 0, pretend = 0, frame = 8
 3514              		@ frame_needed = 1, uses_anonymous_args = 0
 3515              		@ link register save eliminated.
 3516 0000 80B4     		push	{r7}	@
 3517              		.cfi_def_cfa_offset 4
 3518              		.cfi_offset 7, -4
 3519 0002 83B0     		sub	sp, sp, #12	@,,
 3520              		.cfi_def_cfa_offset 16
 3521 0004 00AF     		add	r7, sp, #0	@,,
 3522              		.cfi_def_cfa_register 7
 3523 0006 7860     		str	r0, [r7, #4]	@ UARTx, UARTx
ARM GAS  C:\Users\STUDENT\AppData\Local\Temp\ccMxouBa.s 			page 86


 3524 0008 0B46     		mov	r3, r1	@ tmp114, NewState
 3525 000a FB70     		strb	r3, [r7, #3]	@ tmp115, NewState
1266:core/lpc17xx_uart.c **** 	if (NewState == ENABLE){
 3526              		.loc 1 1266 0
 3527 000c FB78     		ldrb	r3, [r7, #3]	@ zero_extendqisi2	@ tmp116, NewState
 3528 000e 012B     		cmp	r3, #1	@ tmp116,
 3529 0010 0AD1     		bne	.L271	@,
1267:core/lpc17xx_uart.c **** 		UARTx->RS485CTRL &= ~UART1_RS485CTRL_RX_DIS;
 3530              		.loc 1 1267 0
 3531 0012 7B68     		ldr	r3, [r7, #4]	@ tmp117, UARTx
 3532 0014 93F84C30 		ldrb	r3, [r3, #76]	@ tmp119, UARTx_4(D)->RS485CTRL
 3533 0018 DBB2     		uxtb	r3, r3	@ D.6745, tmp119
 3534 001a 23F00203 		bic	r3, r3, #2	@ tmp120, D.6745,
 3535 001e DAB2     		uxtb	r2, r3	@ D.6745, tmp120
 3536 0020 7B68     		ldr	r3, [r7, #4]	@ tmp121, UARTx
 3537 0022 83F84C20 		strb	r2, [r3, #76]	@ tmp122, UARTx_4(D)->RS485CTRL
1268:core/lpc17xx_uart.c **** 	} else {
1269:core/lpc17xx_uart.c **** 		UARTx->RS485CTRL |= UART1_RS485CTRL_RX_DIS;
1270:core/lpc17xx_uart.c **** 	}
1271:core/lpc17xx_uart.c **** }
 3538              		.loc 1 1271 0
 3539 0026 09E0     		b	.L273	@
 3540              	.L271:
1269:core/lpc17xx_uart.c **** 	}
 3541              		.loc 1 1269 0
 3542 0028 7B68     		ldr	r3, [r7, #4]	@ tmp123, UARTx
 3543 002a 93F84C30 		ldrb	r3, [r3, #76]	@ tmp125, UARTx_4(D)->RS485CTRL
 3544 002e DBB2     		uxtb	r3, r3	@ D.6745, tmp125
 3545 0030 43F00203 		orr	r3, r3, #2	@ tmp126, D.6745,
 3546 0034 DAB2     		uxtb	r2, r3	@ D.6745, tmp126
 3547 0036 7B68     		ldr	r3, [r7, #4]	@ tmp127, UARTx
 3548 0038 83F84C20 		strb	r2, [r3, #76]	@ tmp128, UARTx_4(D)->RS485CTRL
 3549              	.L273:
 3550              		.loc 1 1271 0
 3551 003c 00BF     		nop
 3552 003e 0C37     		adds	r7, r7, #12	@,,
 3553              		.cfi_def_cfa_offset 4
 3554 0040 BD46     		mov	sp, r7	@,
 3555              		.cfi_def_cfa_register 13
 3556              		@ sp needed	@
 3557 0042 80BC     		pop	{r7}	@
 3558              		.cfi_restore 7
 3559              		.cfi_def_cfa_offset 0
 3560 0044 7047     		bx	lr	@
 3561              		.cfi_endproc
 3562              	.LFE78:
 3563              		.size	UART_RS485ReceiverCmd, .-UART_RS485ReceiverCmd
 3564 0046 00BF     		.section	.text.UART_RS485Send,"ax",%progbits
 3565              		.align	2
 3566              		.global	UART_RS485Send
 3567              		.thumb
 3568              		.thumb_func
 3569              		.type	UART_RS485Send, %function
 3570              	UART_RS485Send:
 3571              	.LFB79:
1272:core/lpc17xx_uart.c **** 
1273:core/lpc17xx_uart.c **** 
ARM GAS  C:\Users\STUDENT\AppData\Local\Temp\ccMxouBa.s 			page 87


1274:core/lpc17xx_uart.c **** /**
1275:core/lpc17xx_uart.c ****  * @brief 		Send data on RS485 bus with specified parity stick value (9-bit mode).
1276:core/lpc17xx_uart.c ****  * @param[in]	UARTx 		UART1 (only).
1277:core/lpc17xx_uart.c ****  * @param[in]	pDatFrm 	Pointer to data frame.
1278:core/lpc17xx_uart.c ****  * @param[in]	size		Size of data.
1279:core/lpc17xx_uart.c ****  * @param[in]	ParityStick	Parity Stick value, should be 0 or 1.
1280:core/lpc17xx_uart.c ****  * @return		None.
1281:core/lpc17xx_uart.c ****  */
1282:core/lpc17xx_uart.c **** uint32_t UART_RS485Send(LPC_UART1_TypeDef *UARTx, uint8_t *pDatFrm, \
1283:core/lpc17xx_uart.c **** 					uint32_t size, uint8_t ParityStick)
1284:core/lpc17xx_uart.c **** {
 3572              		.loc 1 1284 0
 3573              		.cfi_startproc
 3574              		@ args = 0, pretend = 0, frame = 24
 3575              		@ frame_needed = 1, uses_anonymous_args = 0
 3576 0000 80B5     		push	{r7, lr}	@
 3577              		.cfi_def_cfa_offset 8
 3578              		.cfi_offset 7, -8
 3579              		.cfi_offset 14, -4
 3580 0002 86B0     		sub	sp, sp, #24	@,,
 3581              		.cfi_def_cfa_offset 32
 3582 0004 00AF     		add	r7, sp, #0	@,,
 3583              		.cfi_def_cfa_register 7
 3584 0006 F860     		str	r0, [r7, #12]	@ UARTx, UARTx
 3585 0008 B960     		str	r1, [r7, #8]	@ pDatFrm, pDatFrm
 3586 000a 7A60     		str	r2, [r7, #4]	@ size, size
 3587 000c FB70     		strb	r3, [r7, #3]	@ tmp119, ParityStick
1285:core/lpc17xx_uart.c **** 	uint8_t tmp, save;
1286:core/lpc17xx_uart.c **** 	uint32_t cnt;
1287:core/lpc17xx_uart.c **** 
1288:core/lpc17xx_uart.c **** 	if (ParityStick){
 3588              		.loc 1 1288 0
 3589 000e FB78     		ldrb	r3, [r7, #3]	@ zero_extendqisi2	@ tmp120, ParityStick
 3590 0010 002B     		cmp	r3, #0	@ tmp120,
 3591 0012 1ED0     		beq	.L275	@,
1289:core/lpc17xx_uart.c **** 		save = tmp = UARTx->LCR & UART_LCR_BITMASK;
 3592              		.loc 1 1289 0
 3593 0014 FB68     		ldr	r3, [r7, #12]	@ tmp121, UARTx
 3594 0016 1B7B     		ldrb	r3, [r3, #12]	@ tmp122, UARTx_5(D)->LCR
 3595 0018 FB74     		strb	r3, [r7, #19]	@ tmp122, tmp
 3596 001a FB7C     		ldrb	r3, [r7, #19]	@ tmp123, tmp
 3597 001c BB74     		strb	r3, [r7, #18]	@ tmp123, save
1290:core/lpc17xx_uart.c **** 		tmp &= ~(UART_LCR_PARITY_EVEN);
 3598              		.loc 1 1290 0
 3599 001e FB7C     		ldrb	r3, [r7, #19]	@ tmp124, tmp
 3600 0020 23F01003 		bic	r3, r3, #16	@ tmp125, tmp124,
 3601 0024 FB74     		strb	r3, [r7, #19]	@ tmp126, tmp
1291:core/lpc17xx_uart.c **** 		UARTx->LCR = tmp;
 3602              		.loc 1 1291 0
 3603 0026 FB68     		ldr	r3, [r7, #12]	@ tmp127, UARTx
 3604 0028 FA7C     		ldrb	r2, [r7, #19]	@ tmp128, tmp
 3605 002a 1A73     		strb	r2, [r3, #12]	@ tmp128, UARTx_5(D)->LCR
1292:core/lpc17xx_uart.c **** 		cnt = UART_Send((LPC_UART_TypeDef *)UARTx, pDatFrm, size, BLOCKING);
 3606              		.loc 1 1292 0
 3607 002c 0123     		movs	r3, #1	@,
 3608 002e 7A68     		ldr	r2, [r7, #4]	@, size
 3609 0030 B968     		ldr	r1, [r7, #8]	@, pDatFrm
ARM GAS  C:\Users\STUDENT\AppData\Local\Temp\ccMxouBa.s 			page 88


 3610 0032 F868     		ldr	r0, [r7, #12]	@, UARTx
 3611 0034 FFF7FEFF 		bl	UART_Send	@
 3612 0038 7861     		str	r0, [r7, #20]	@, cnt
1293:core/lpc17xx_uart.c **** 		while (!(UARTx->LSR & UART_LSR_TEMT));
 3613              		.loc 1 1293 0
 3614 003a 00BF     		nop
 3615              	.L276:
 3616              		.loc 1 1293 0 is_stmt 0 discriminator 1
 3617 003c FB68     		ldr	r3, [r7, #12]	@ tmp129, UARTx
 3618 003e 1B7D     		ldrb	r3, [r3, #20]	@ tmp131, UARTx_5(D)->LSR
 3619 0040 DBB2     		uxtb	r3, r3	@ D.6746, tmp131
 3620 0042 03F04003 		and	r3, r3, #64	@ D.6747, D.6747,
 3621 0046 002B     		cmp	r3, #0	@ D.6747,
 3622 0048 F8D0     		beq	.L276	@,
1294:core/lpc17xx_uart.c **** 		UARTx->LCR = save;
 3623              		.loc 1 1294 0 is_stmt 1
 3624 004a FB68     		ldr	r3, [r7, #12]	@ tmp132, UARTx
 3625 004c BA7C     		ldrb	r2, [r7, #18]	@ tmp133, save
 3626 004e 1A73     		strb	r2, [r3, #12]	@ tmp133, UARTx_5(D)->LCR
 3627 0050 0EE0     		b	.L277	@
 3628              	.L275:
1295:core/lpc17xx_uart.c **** 	} else {
1296:core/lpc17xx_uart.c **** 		cnt = UART_Send((LPC_UART_TypeDef *)UARTx, pDatFrm, size, BLOCKING);
 3629              		.loc 1 1296 0
 3630 0052 0123     		movs	r3, #1	@,
 3631 0054 7A68     		ldr	r2, [r7, #4]	@, size
 3632 0056 B968     		ldr	r1, [r7, #8]	@, pDatFrm
 3633 0058 F868     		ldr	r0, [r7, #12]	@, UARTx
 3634 005a FFF7FEFF 		bl	UART_Send	@
 3635 005e 7861     		str	r0, [r7, #20]	@, cnt
1297:core/lpc17xx_uart.c **** 		while (!(UARTx->LSR & UART_LSR_TEMT));
 3636              		.loc 1 1297 0
 3637 0060 00BF     		nop
 3638              	.L278:
 3639              		.loc 1 1297 0 is_stmt 0 discriminator 1
 3640 0062 FB68     		ldr	r3, [r7, #12]	@ tmp134, UARTx
 3641 0064 1B7D     		ldrb	r3, [r3, #20]	@ tmp136, UARTx_5(D)->LSR
 3642 0066 DBB2     		uxtb	r3, r3	@ D.6746, tmp136
 3643 0068 03F04003 		and	r3, r3, #64	@ D.6747, D.6747,
 3644 006c 002B     		cmp	r3, #0	@ D.6747,
 3645 006e F8D0     		beq	.L278	@,
 3646              	.L277:
1298:core/lpc17xx_uart.c **** 	}
1299:core/lpc17xx_uart.c **** 	return cnt;
 3647              		.loc 1 1299 0 is_stmt 1
 3648 0070 7B69     		ldr	r3, [r7, #20]	@ D.6748, cnt
1300:core/lpc17xx_uart.c **** }
 3649              		.loc 1 1300 0
 3650 0072 1846     		mov	r0, r3	@, <retval>
 3651 0074 1837     		adds	r7, r7, #24	@,,
 3652              		.cfi_def_cfa_offset 8
 3653 0076 BD46     		mov	sp, r7	@,
 3654              		.cfi_def_cfa_register 13
 3655              		@ sp needed	@
 3656 0078 80BD     		pop	{r7, pc}	@
 3657              		.cfi_endproc
 3658              	.LFE79:
ARM GAS  C:\Users\STUDENT\AppData\Local\Temp\ccMxouBa.s 			page 89


 3659              		.size	UART_RS485Send, .-UART_RS485Send
 3660 007a 00BF     		.section	.text.UART_RS485SendSlvAddr,"ax",%progbits
 3661              		.align	2
 3662              		.global	UART_RS485SendSlvAddr
 3663              		.thumb
 3664              		.thumb_func
 3665              		.type	UART_RS485SendSlvAddr, %function
 3666              	UART_RS485SendSlvAddr:
 3667              	.LFB80:
1301:core/lpc17xx_uart.c **** 
1302:core/lpc17xx_uart.c **** 
1303:core/lpc17xx_uart.c **** /**
1304:core/lpc17xx_uart.c ****  * @brief 		Send Slave address frames on RS485 bus.
1305:core/lpc17xx_uart.c ****  * @param[in]	UARTx UART1 (only).
1306:core/lpc17xx_uart.c ****  * @param[in]	SlvAddr Slave Address.
1307:core/lpc17xx_uart.c ****  * @return		None.
1308:core/lpc17xx_uart.c ****  */
1309:core/lpc17xx_uart.c **** void UART_RS485SendSlvAddr(LPC_UART1_TypeDef *UARTx, uint8_t SlvAddr)
1310:core/lpc17xx_uart.c **** {
 3668              		.loc 1 1310 0
 3669              		.cfi_startproc
 3670              		@ args = 0, pretend = 0, frame = 8
 3671              		@ frame_needed = 1, uses_anonymous_args = 0
 3672 0000 80B5     		push	{r7, lr}	@
 3673              		.cfi_def_cfa_offset 8
 3674              		.cfi_offset 7, -8
 3675              		.cfi_offset 14, -4
 3676 0002 82B0     		sub	sp, sp, #8	@,,
 3677              		.cfi_def_cfa_offset 16
 3678 0004 00AF     		add	r7, sp, #0	@,,
 3679              		.cfi_def_cfa_register 7
 3680 0006 7860     		str	r0, [r7, #4]	@ UARTx, UARTx
 3681 0008 0B46     		mov	r3, r1	@ tmp110, SlvAddr
 3682 000a FB70     		strb	r3, [r7, #3]	@ tmp111, SlvAddr
1311:core/lpc17xx_uart.c **** 	UART_RS485Send(UARTx, &SlvAddr, 1, 1);
 3683              		.loc 1 1311 0
 3684 000c F91C     		adds	r1, r7, #3	@ tmp112,,
 3685 000e 0123     		movs	r3, #1	@,
 3686 0010 0122     		movs	r2, #1	@,
 3687 0012 7868     		ldr	r0, [r7, #4]	@, UARTx
 3688 0014 FFF7FEFF 		bl	UART_RS485Send	@
1312:core/lpc17xx_uart.c **** }
 3689              		.loc 1 1312 0
 3690 0018 00BF     		nop
 3691 001a 0837     		adds	r7, r7, #8	@,,
 3692              		.cfi_def_cfa_offset 8
 3693 001c BD46     		mov	sp, r7	@,
 3694              		.cfi_def_cfa_register 13
 3695              		@ sp needed	@
 3696 001e 80BD     		pop	{r7, pc}	@
 3697              		.cfi_endproc
 3698              	.LFE80:
 3699              		.size	UART_RS485SendSlvAddr, .-UART_RS485SendSlvAddr
 3700              		.section	.text.UART_RS485SendData,"ax",%progbits
 3701              		.align	2
 3702              		.global	UART_RS485SendData
 3703              		.thumb
ARM GAS  C:\Users\STUDENT\AppData\Local\Temp\ccMxouBa.s 			page 90


 3704              		.thumb_func
 3705              		.type	UART_RS485SendData, %function
 3706              	UART_RS485SendData:
 3707              	.LFB81:
1313:core/lpc17xx_uart.c **** 
1314:core/lpc17xx_uart.c **** 
1315:core/lpc17xx_uart.c **** /**
1316:core/lpc17xx_uart.c ****  * @brief 		Send Data frames on RS485 bus.
1317:core/lpc17xx_uart.c ****  * @param[in]	UARTx UART1 (only).
1318:core/lpc17xx_uart.c ****  * @param[in]	pData Pointer to data to be sent.
1319:core/lpc17xx_uart.c ****  * @param[in]	size Size of data frame to be sent.
1320:core/lpc17xx_uart.c ****  * @return		None.
1321:core/lpc17xx_uart.c ****  */
1322:core/lpc17xx_uart.c **** uint32_t UART_RS485SendData(LPC_UART1_TypeDef *UARTx, uint8_t *pData, uint32_t size)
1323:core/lpc17xx_uart.c **** {
 3708              		.loc 1 1323 0
 3709              		.cfi_startproc
 3710              		@ args = 0, pretend = 0, frame = 16
 3711              		@ frame_needed = 1, uses_anonymous_args = 0
 3712 0000 80B5     		push	{r7, lr}	@
 3713              		.cfi_def_cfa_offset 8
 3714              		.cfi_offset 7, -8
 3715              		.cfi_offset 14, -4
 3716 0002 84B0     		sub	sp, sp, #16	@,,
 3717              		.cfi_def_cfa_offset 24
 3718 0004 00AF     		add	r7, sp, #0	@,,
 3719              		.cfi_def_cfa_register 7
 3720 0006 F860     		str	r0, [r7, #12]	@ UARTx, UARTx
 3721 0008 B960     		str	r1, [r7, #8]	@ pData, pData
 3722 000a 7A60     		str	r2, [r7, #4]	@ size, size
1324:core/lpc17xx_uart.c **** 	return (UART_RS485Send(UARTx, pData, size, 0));
 3723              		.loc 1 1324 0
 3724 000c 0023     		movs	r3, #0	@,
 3725 000e 7A68     		ldr	r2, [r7, #4]	@, size
 3726 0010 B968     		ldr	r1, [r7, #8]	@, pData
 3727 0012 F868     		ldr	r0, [r7, #12]	@, UARTx
 3728 0014 FFF7FEFF 		bl	UART_RS485Send	@
 3729 0018 0346     		mov	r3, r0	@ D.6749,
1325:core/lpc17xx_uart.c **** }
 3730              		.loc 1 1325 0
 3731 001a 1846     		mov	r0, r3	@, <retval>
 3732 001c 1037     		adds	r7, r7, #16	@,,
 3733              		.cfi_def_cfa_offset 8
 3734 001e BD46     		mov	sp, r7	@,
 3735              		.cfi_def_cfa_register 13
 3736              		@ sp needed	@
 3737 0020 80BD     		pop	{r7, pc}	@
 3738              		.cfi_endproc
 3739              	.LFE81:
 3740              		.size	UART_RS485SendData, .-UART_RS485SendData
 3741 0022 00BF     		.section	.text.UART_Send,"ax",%progbits
 3742              		.align	2
 3743              		.global	UART_Send
 3744              		.thumb
 3745              		.thumb_func
 3746              		.type	UART_Send, %function
 3747              	UART_Send:
ARM GAS  C:\Users\STUDENT\AppData\Local\Temp\ccMxouBa.s 			page 91


 3748              	.LFB82:
1326:core/lpc17xx_uart.c **** 
1327:core/lpc17xx_uart.c **** #endif /* _UART1 */
1328:core/lpc17xx_uart.c **** 
1329:core/lpc17xx_uart.c **** 
1330:core/lpc17xx_uart.c **** /* Additional driver APIs ----------------------------------------------------------------------- *
1331:core/lpc17xx_uart.c **** 
1332:core/lpc17xx_uart.c **** /*********************************************************************//**
1333:core/lpc17xx_uart.c ****  * @brief		Send a block of data via UART peripheral
1334:core/lpc17xx_uart.c ****  * @param[in]	UARTx	Selected UART peripheral used to send data,
1335:core/lpc17xx_uart.c ****  * 				should be UART0, UART1, UART2 or UART3.
1336:core/lpc17xx_uart.c ****  * @param[in]	txbuf 	Pointer to Transmit buffer
1337:core/lpc17xx_uart.c ****  * @param[in]	buflen 	Length of Transmit buffer
1338:core/lpc17xx_uart.c ****  * @param[in] 	flag 	Flag used in  UART transfer, should be
1339:core/lpc17xx_uart.c ****  * 						NONE_BLOCKING or BLOCKING
1340:core/lpc17xx_uart.c ****  * @return 		Number of bytes sent.
1341:core/lpc17xx_uart.c ****  *
1342:core/lpc17xx_uart.c ****  * Note: when using UART in BLOCKING mode, a time-out condition is used
1343:core/lpc17xx_uart.c ****  * via defined symbol UART_BLOCKING_TIMEOUT.
1344:core/lpc17xx_uart.c ****  **********************************************************************/
1345:core/lpc17xx_uart.c **** uint32_t UART_Send(LPC_UART_TypeDef *UARTx, uint8_t *txbuf,
1346:core/lpc17xx_uart.c **** 		uint32_t buflen, TRANSFER_BLOCK_Type flag)
1347:core/lpc17xx_uart.c **** {
 3749              		.loc 1 1347 0
 3750              		.cfi_startproc
 3751              		@ args = 0, pretend = 0, frame = 40
 3752              		@ frame_needed = 1, uses_anonymous_args = 0
 3753 0000 80B5     		push	{r7, lr}	@
 3754              		.cfi_def_cfa_offset 8
 3755              		.cfi_offset 7, -8
 3756              		.cfi_offset 14, -4
 3757 0002 8AB0     		sub	sp, sp, #40	@,,
 3758              		.cfi_def_cfa_offset 48
 3759 0004 00AF     		add	r7, sp, #0	@,,
 3760              		.cfi_def_cfa_register 7
 3761 0006 F860     		str	r0, [r7, #12]	@ UARTx, UARTx
 3762 0008 B960     		str	r1, [r7, #8]	@ txbuf, txbuf
 3763 000a 7A60     		str	r2, [r7, #4]	@ buflen, buflen
 3764 000c FB70     		strb	r3, [r7, #3]	@ tmp123, flag
1348:core/lpc17xx_uart.c **** 	uint32_t bToSend, bSent, timeOut, fifo_cnt;
1349:core/lpc17xx_uart.c **** 	uint8_t *pChar = txbuf;
 3765              		.loc 1 1349 0
 3766 000e BB68     		ldr	r3, [r7, #8]	@ tmp124, txbuf
 3767 0010 7B61     		str	r3, [r7, #20]	@ tmp124, pChar
1350:core/lpc17xx_uart.c **** 
1351:core/lpc17xx_uart.c **** 	bToSend = buflen;
 3768              		.loc 1 1351 0
 3769 0012 7B68     		ldr	r3, [r7, #4]	@ tmp125, buflen
 3770 0014 7B62     		str	r3, [r7, #36]	@ tmp125, bToSend
1352:core/lpc17xx_uart.c **** 
1353:core/lpc17xx_uart.c **** 	// blocking mode
1354:core/lpc17xx_uart.c **** 	if (flag == BLOCKING) {
 3771              		.loc 1 1354 0
 3772 0016 FB78     		ldrb	r3, [r7, #3]	@ zero_extendqisi2	@ tmp126, flag
 3773 0018 012B     		cmp	r3, #1	@ tmp126,
 3774 001a 36D1     		bne	.L284	@,
1355:core/lpc17xx_uart.c **** 		bSent = 0;
ARM GAS  C:\Users\STUDENT\AppData\Local\Temp\ccMxouBa.s 			page 92


 3775              		.loc 1 1355 0
 3776 001c 0023     		movs	r3, #0	@ tmp127,
 3777 001e 3B62     		str	r3, [r7, #32]	@ tmp127, bSent
1356:core/lpc17xx_uart.c **** 		while (bToSend){
 3778              		.loc 1 1356 0
 3779 0020 2FE0     		b	.L285	@
 3780              	.L294:
1357:core/lpc17xx_uart.c **** 			timeOut = UART_BLOCKING_TIMEOUT;
 3781              		.loc 1 1357 0
 3782 0022 4FF0FF33 		mov	r3, #-1	@ tmp128,
 3783 0026 FB61     		str	r3, [r7, #28]	@ tmp128, timeOut
1358:core/lpc17xx_uart.c **** 			// Wait for THR empty with timeout
1359:core/lpc17xx_uart.c **** 			while (!(UARTx->LSR & UART_LSR_THRE)) {
 3784              		.loc 1 1359 0
 3785 0028 05E0     		b	.L286	@
 3786              	.L289:
1360:core/lpc17xx_uart.c **** 				if (timeOut == 0) break;
 3787              		.loc 1 1360 0
 3788 002a FB69     		ldr	r3, [r7, #28]	@ tmp129, timeOut
 3789 002c 002B     		cmp	r3, #0	@ tmp129,
 3790 002e 0AD0     		beq	.L302	@,
1361:core/lpc17xx_uart.c **** 				timeOut--;
 3791              		.loc 1 1361 0
 3792 0030 FB69     		ldr	r3, [r7, #28]	@ tmp131, timeOut
 3793 0032 013B     		subs	r3, r3, #1	@ tmp130, tmp131,
 3794 0034 FB61     		str	r3, [r7, #28]	@ tmp130, timeOut
 3795              	.L286:
1359:core/lpc17xx_uart.c **** 				if (timeOut == 0) break;
 3796              		.loc 1 1359 0
 3797 0036 FB68     		ldr	r3, [r7, #12]	@ tmp132, UARTx
 3798 0038 1B7D     		ldrb	r3, [r3, #20]	@ tmp134, UARTx_30(D)->LSR
 3799 003a DBB2     		uxtb	r3, r3	@ D.6750, tmp134
 3800 003c 03F02003 		and	r3, r3, #32	@ D.6751, D.6751,
 3801 0040 002B     		cmp	r3, #0	@ D.6751,
 3802 0042 F2D0     		beq	.L289	@,
 3803 0044 00E0     		b	.L288	@
 3804              	.L302:
1360:core/lpc17xx_uart.c **** 				if (timeOut == 0) break;
 3805              		.loc 1 1360 0
 3806 0046 00BF     		nop
 3807              	.L288:
1362:core/lpc17xx_uart.c **** 			}
1363:core/lpc17xx_uart.c **** 			// Time out!
1364:core/lpc17xx_uart.c **** 			if(timeOut == 0) break;
 3808              		.loc 1 1364 0
 3809 0048 FB69     		ldr	r3, [r7, #28]	@ tmp135, timeOut
 3810 004a 002B     		cmp	r3, #0	@ tmp135,
 3811 004c 45D0     		beq	.L303	@,
1365:core/lpc17xx_uart.c **** 			fifo_cnt = UART_TX_FIFO_SIZE;
 3812              		.loc 1 1365 0
 3813 004e 1023     		movs	r3, #16	@ tmp136,
 3814 0050 BB61     		str	r3, [r7, #24]	@ tmp136, fifo_cnt
1366:core/lpc17xx_uart.c **** 			while (fifo_cnt && bToSend){
 3815              		.loc 1 1366 0
 3816 0052 10E0     		b	.L292	@
 3817              	.L293:
1367:core/lpc17xx_uart.c **** 				UART_SendData(UARTx, (*pChar++));
ARM GAS  C:\Users\STUDENT\AppData\Local\Temp\ccMxouBa.s 			page 93


 3818              		.loc 1 1367 0
 3819 0054 7B69     		ldr	r3, [r7, #20]	@ D.6752, pChar
 3820 0056 5A1C     		adds	r2, r3, #1	@ tmp137, D.6752,
 3821 0058 7A61     		str	r2, [r7, #20]	@ tmp137, pChar
 3822 005a 1B78     		ldrb	r3, [r3]	@ zero_extendqisi2	@ D.6750, *_36
 3823 005c 1946     		mov	r1, r3	@, D.6750
 3824 005e F868     		ldr	r0, [r7, #12]	@, UARTx
 3825 0060 FFF7FEFF 		bl	UART_SendData	@
1368:core/lpc17xx_uart.c **** 				fifo_cnt--;
 3826              		.loc 1 1368 0
 3827 0064 BB69     		ldr	r3, [r7, #24]	@ tmp139, fifo_cnt
 3828 0066 013B     		subs	r3, r3, #1	@ tmp138, tmp139,
 3829 0068 BB61     		str	r3, [r7, #24]	@ tmp138, fifo_cnt
1369:core/lpc17xx_uart.c **** 				bToSend--;
 3830              		.loc 1 1369 0
 3831 006a 7B6A     		ldr	r3, [r7, #36]	@ tmp141, bToSend
 3832 006c 013B     		subs	r3, r3, #1	@ tmp140, tmp141,
 3833 006e 7B62     		str	r3, [r7, #36]	@ tmp140, bToSend
1370:core/lpc17xx_uart.c **** 				bSent++;
 3834              		.loc 1 1370 0
 3835 0070 3B6A     		ldr	r3, [r7, #32]	@ tmp143, bSent
 3836 0072 0133     		adds	r3, r3, #1	@ tmp142, tmp143,
 3837 0074 3B62     		str	r3, [r7, #32]	@ tmp142, bSent
 3838              	.L292:
1366:core/lpc17xx_uart.c **** 				UART_SendData(UARTx, (*pChar++));
 3839              		.loc 1 1366 0
 3840 0076 BB69     		ldr	r3, [r7, #24]	@ tmp144, fifo_cnt
 3841 0078 002B     		cmp	r3, #0	@ tmp144,
 3842 007a 02D0     		beq	.L285	@,
1366:core/lpc17xx_uart.c **** 				UART_SendData(UARTx, (*pChar++));
 3843              		.loc 1 1366 0 is_stmt 0 discriminator 1
 3844 007c 7B6A     		ldr	r3, [r7, #36]	@ tmp145, bToSend
 3845 007e 002B     		cmp	r3, #0	@ tmp145,
 3846 0080 E8D1     		bne	.L293	@,
 3847              	.L285:
1356:core/lpc17xx_uart.c **** 			timeOut = UART_BLOCKING_TIMEOUT;
 3848              		.loc 1 1356 0 is_stmt 1
 3849 0082 7B6A     		ldr	r3, [r7, #36]	@ tmp146, bToSend
 3850 0084 002B     		cmp	r3, #0	@ tmp146,
 3851 0086 CCD1     		bne	.L294	@,
 3852 0088 2AE0     		b	.L295	@
 3853              	.L284:
1371:core/lpc17xx_uart.c **** 			}
1372:core/lpc17xx_uart.c **** 		}
1373:core/lpc17xx_uart.c **** 	}
1374:core/lpc17xx_uart.c **** 	// None blocking mode
1375:core/lpc17xx_uart.c **** 	else {
1376:core/lpc17xx_uart.c **** 		bSent = 0;
 3854              		.loc 1 1376 0
 3855 008a 0023     		movs	r3, #0	@ tmp147,
 3856 008c 3B62     		str	r3, [r7, #32]	@ tmp147, bSent
1377:core/lpc17xx_uart.c **** 		while (bToSend) {
 3857              		.loc 1 1377 0
 3858 008e 20E0     		b	.L296	@
 3859              	.L300:
1378:core/lpc17xx_uart.c **** 			if (!(UARTx->LSR & UART_LSR_THRE)){
 3860              		.loc 1 1378 0
ARM GAS  C:\Users\STUDENT\AppData\Local\Temp\ccMxouBa.s 			page 94


 3861 0090 FB68     		ldr	r3, [r7, #12]	@ tmp148, UARTx
 3862 0092 1B7D     		ldrb	r3, [r3, #20]	@ tmp150, UARTx_30(D)->LSR
 3863 0094 DBB2     		uxtb	r3, r3	@ D.6750, tmp150
 3864 0096 03F02003 		and	r3, r3, #32	@ D.6751, D.6751,
 3865 009a 002B     		cmp	r3, #0	@ D.6751,
 3866 009c 1FD0     		beq	.L304	@,
1379:core/lpc17xx_uart.c **** 				break;
1380:core/lpc17xx_uart.c **** 			}
1381:core/lpc17xx_uart.c **** 			fifo_cnt = UART_TX_FIFO_SIZE;
 3867              		.loc 1 1381 0
 3868 009e 1023     		movs	r3, #16	@ tmp151,
 3869 00a0 BB61     		str	r3, [r7, #24]	@ tmp151, fifo_cnt
1382:core/lpc17xx_uart.c **** 			while (fifo_cnt && bToSend) {
 3870              		.loc 1 1382 0
 3871 00a2 10E0     		b	.L298	@
 3872              	.L299:
1383:core/lpc17xx_uart.c **** 				UART_SendData(UARTx, (*pChar++));
 3873              		.loc 1 1383 0
 3874 00a4 7B69     		ldr	r3, [r7, #20]	@ D.6752, pChar
 3875 00a6 5A1C     		adds	r2, r3, #1	@ tmp152, D.6752,
 3876 00a8 7A61     		str	r2, [r7, #20]	@ tmp152, pChar
 3877 00aa 1B78     		ldrb	r3, [r3]	@ zero_extendqisi2	@ D.6750, *_48
 3878 00ac 1946     		mov	r1, r3	@, D.6750
 3879 00ae F868     		ldr	r0, [r7, #12]	@, UARTx
 3880 00b0 FFF7FEFF 		bl	UART_SendData	@
1384:core/lpc17xx_uart.c **** 				bToSend--;
 3881              		.loc 1 1384 0
 3882 00b4 7B6A     		ldr	r3, [r7, #36]	@ tmp154, bToSend
 3883 00b6 013B     		subs	r3, r3, #1	@ tmp153, tmp154,
 3884 00b8 7B62     		str	r3, [r7, #36]	@ tmp153, bToSend
1385:core/lpc17xx_uart.c **** 				fifo_cnt--;
 3885              		.loc 1 1385 0
 3886 00ba BB69     		ldr	r3, [r7, #24]	@ tmp156, fifo_cnt
 3887 00bc 013B     		subs	r3, r3, #1	@ tmp155, tmp156,
 3888 00be BB61     		str	r3, [r7, #24]	@ tmp155, fifo_cnt
1386:core/lpc17xx_uart.c **** 				bSent++;
 3889              		.loc 1 1386 0
 3890 00c0 3B6A     		ldr	r3, [r7, #32]	@ tmp158, bSent
 3891 00c2 0133     		adds	r3, r3, #1	@ tmp157, tmp158,
 3892 00c4 3B62     		str	r3, [r7, #32]	@ tmp157, bSent
 3893              	.L298:
1382:core/lpc17xx_uart.c **** 				UART_SendData(UARTx, (*pChar++));
 3894              		.loc 1 1382 0
 3895 00c6 BB69     		ldr	r3, [r7, #24]	@ tmp159, fifo_cnt
 3896 00c8 002B     		cmp	r3, #0	@ tmp159,
 3897 00ca 02D0     		beq	.L296	@,
1382:core/lpc17xx_uart.c **** 				UART_SendData(UARTx, (*pChar++));
 3898              		.loc 1 1382 0 is_stmt 0 discriminator 1
 3899 00cc 7B6A     		ldr	r3, [r7, #36]	@ tmp160, bToSend
 3900 00ce 002B     		cmp	r3, #0	@ tmp160,
 3901 00d0 E8D1     		bne	.L299	@,
 3902              	.L296:
1377:core/lpc17xx_uart.c **** 			if (!(UARTx->LSR & UART_LSR_THRE)){
 3903              		.loc 1 1377 0 is_stmt 1
 3904 00d2 7B6A     		ldr	r3, [r7, #36]	@ tmp161, bToSend
 3905 00d4 002B     		cmp	r3, #0	@ tmp161,
 3906 00d6 DBD1     		bne	.L300	@,
ARM GAS  C:\Users\STUDENT\AppData\Local\Temp\ccMxouBa.s 			page 95


 3907 00d8 02E0     		b	.L295	@
 3908              	.L303:
1364:core/lpc17xx_uart.c **** 			fifo_cnt = UART_TX_FIFO_SIZE;
 3909              		.loc 1 1364 0
 3910 00da 00BF     		nop
 3911 00dc 00E0     		b	.L295	@
 3912              	.L304:
1379:core/lpc17xx_uart.c **** 			}
 3913              		.loc 1 1379 0
 3914 00de 00BF     		nop
 3915              	.L295:
1387:core/lpc17xx_uart.c **** 			}
1388:core/lpc17xx_uart.c **** 		}
1389:core/lpc17xx_uart.c **** 	}
1390:core/lpc17xx_uart.c **** 	return bSent;
 3916              		.loc 1 1390 0
 3917 00e0 3B6A     		ldr	r3, [r7, #32]	@ D.6753, bSent
1391:core/lpc17xx_uart.c **** }
 3918              		.loc 1 1391 0
 3919 00e2 1846     		mov	r0, r3	@, <retval>
 3920 00e4 2837     		adds	r7, r7, #40	@,,
 3921              		.cfi_def_cfa_offset 8
 3922 00e6 BD46     		mov	sp, r7	@,
 3923              		.cfi_def_cfa_register 13
 3924              		@ sp needed	@
 3925 00e8 80BD     		pop	{r7, pc}	@
 3926              		.cfi_endproc
 3927              	.LFE82:
 3928              		.size	UART_Send, .-UART_Send
 3929 00ea 00BF     		.section	.text.UART_SendString,"ax",%progbits
 3930              		.align	2
 3931              		.global	UART_SendString
 3932              		.thumb
 3933              		.thumb_func
 3934              		.type	UART_SendString, %function
 3935              	UART_SendString:
 3936              	.LFB83:
1392:core/lpc17xx_uart.c **** 
1393:core/lpc17xx_uart.c **** uint32_t UART_SendString(LPC_UART_TypeDef *UARTx, uint8_t *txbuf)
1394:core/lpc17xx_uart.c **** {
 3937              		.loc 1 1394 0
 3938              		.cfi_startproc
 3939              		@ args = 0, pretend = 0, frame = 8
 3940              		@ frame_needed = 1, uses_anonymous_args = 0
 3941 0000 80B5     		push	{r7, lr}	@
 3942              		.cfi_def_cfa_offset 8
 3943              		.cfi_offset 7, -8
 3944              		.cfi_offset 14, -4
 3945 0002 82B0     		sub	sp, sp, #8	@,,
 3946              		.cfi_def_cfa_offset 16
 3947 0004 00AF     		add	r7, sp, #0	@,,
 3948              		.cfi_def_cfa_register 7
 3949 0006 7860     		str	r0, [r7, #4]	@ UARTx, UARTx
 3950 0008 3960     		str	r1, [r7]	@ txbuf, txbuf
1395:core/lpc17xx_uart.c **** 	return UART_Send(UARTx, txbuf, strlen(txbuf), BLOCKING);
 3951              		.loc 1 1395 0
 3952 000a 3868     		ldr	r0, [r7]	@, txbuf
ARM GAS  C:\Users\STUDENT\AppData\Local\Temp\ccMxouBa.s 			page 96


 3953 000c FFF7FEFF 		bl	strlen	@
 3954 0010 0246     		mov	r2, r0	@ D.6754,
 3955 0012 0123     		movs	r3, #1	@,
 3956 0014 3968     		ldr	r1, [r7]	@, txbuf
 3957 0016 7868     		ldr	r0, [r7, #4]	@, UARTx
 3958 0018 FFF7FEFF 		bl	UART_Send	@
 3959 001c 0346     		mov	r3, r0	@ D.6755,
1396:core/lpc17xx_uart.c **** }
 3960              		.loc 1 1396 0
 3961 001e 1846     		mov	r0, r3	@, <retval>
 3962 0020 0837     		adds	r7, r7, #8	@,,
 3963              		.cfi_def_cfa_offset 8
 3964 0022 BD46     		mov	sp, r7	@,
 3965              		.cfi_def_cfa_register 13
 3966              		@ sp needed	@
 3967 0024 80BD     		pop	{r7, pc}	@
 3968              		.cfi_endproc
 3969              	.LFE83:
 3970              		.size	UART_SendString, .-UART_SendString
 3971 0026 00BF     		.section	.text.UART_Receive,"ax",%progbits
 3972              		.align	2
 3973              		.global	UART_Receive
 3974              		.thumb
 3975              		.thumb_func
 3976              		.type	UART_Receive, %function
 3977              	UART_Receive:
 3978              	.LFB84:
1397:core/lpc17xx_uart.c **** 
1398:core/lpc17xx_uart.c **** /*********************************************************************//**
1399:core/lpc17xx_uart.c ****  * @brief		Receive a block of data via UART peripheral
1400:core/lpc17xx_uart.c ****  * @param[in]	UARTx	Selected UART peripheral used to send data,
1401:core/lpc17xx_uart.c ****  * 				should be UART0, UART1, UART2 or UART3.
1402:core/lpc17xx_uart.c ****  * @param[out]	rxbuf 	Pointer to Received buffer
1403:core/lpc17xx_uart.c ****  * @param[in]	buflen 	Length of Received buffer
1404:core/lpc17xx_uart.c ****  * @param[in] 	flag 	Flag mode, should be NONE_BLOCKING or BLOCKING
1405:core/lpc17xx_uart.c **** 
1406:core/lpc17xx_uart.c ****  * @return 		Number of bytes received
1407:core/lpc17xx_uart.c ****  *
1408:core/lpc17xx_uart.c ****  * Note: when using UART in BLOCKING mode, a time-out condition is used
1409:core/lpc17xx_uart.c ****  * via defined symbol UART_BLOCKING_TIMEOUT.
1410:core/lpc17xx_uart.c ****  **********************************************************************/
1411:core/lpc17xx_uart.c **** uint32_t UART_Receive(LPC_UART_TypeDef *UARTx, uint8_t *rxbuf, \
1412:core/lpc17xx_uart.c **** 		uint32_t buflen, TRANSFER_BLOCK_Type flag)
1413:core/lpc17xx_uart.c **** {
 3979              		.loc 1 1413 0
 3980              		.cfi_startproc
 3981              		@ args = 0, pretend = 0, frame = 32
 3982              		@ frame_needed = 1, uses_anonymous_args = 0
 3983 0000 90B5     		push	{r4, r7, lr}	@
 3984              		.cfi_def_cfa_offset 12
 3985              		.cfi_offset 4, -12
 3986              		.cfi_offset 7, -8
 3987              		.cfi_offset 14, -4
 3988 0002 89B0     		sub	sp, sp, #36	@,,
 3989              		.cfi_def_cfa_offset 48
 3990 0004 00AF     		add	r7, sp, #0	@,,
 3991              		.cfi_def_cfa_register 7
ARM GAS  C:\Users\STUDENT\AppData\Local\Temp\ccMxouBa.s 			page 97


 3992 0006 F860     		str	r0, [r7, #12]	@ UARTx, UARTx
 3993 0008 B960     		str	r1, [r7, #8]	@ rxbuf, rxbuf
 3994 000a 7A60     		str	r2, [r7, #4]	@ buflen, buflen
 3995 000c FB70     		strb	r3, [r7, #3]	@ tmp123, flag
1414:core/lpc17xx_uart.c **** 	uint32_t bToRecv, bRecv, timeOut;
1415:core/lpc17xx_uart.c **** 	uint8_t *pChar = rxbuf;
 3996              		.loc 1 1415 0
 3997 000e BB68     		ldr	r3, [r7, #8]	@ tmp124, rxbuf
 3998 0010 3B61     		str	r3, [r7, #16]	@ tmp124, pChar
1416:core/lpc17xx_uart.c **** 
1417:core/lpc17xx_uart.c **** 	bToRecv = buflen;
 3999              		.loc 1 1417 0
 4000 0012 7B68     		ldr	r3, [r7, #4]	@ tmp125, buflen
 4001 0014 FB61     		str	r3, [r7, #28]	@ tmp125, bToRecv
1418:core/lpc17xx_uart.c **** 
1419:core/lpc17xx_uart.c **** 	// Blocking mode
1420:core/lpc17xx_uart.c **** 	if (flag == BLOCKING) {
 4002              		.loc 1 1420 0
 4003 0016 FB78     		ldrb	r3, [r7, #3]	@ zero_extendqisi2	@ tmp126, flag
 4004 0018 012B     		cmp	r3, #1	@ tmp126,
 4005 001a 2AD1     		bne	.L308	@,
1421:core/lpc17xx_uart.c **** 		bRecv = 0;
 4006              		.loc 1 1421 0
 4007 001c 0023     		movs	r3, #0	@ tmp127,
 4008 001e BB61     		str	r3, [r7, #24]	@ tmp127, bRecv
1422:core/lpc17xx_uart.c **** 		while (bToRecv){
 4009              		.loc 1 1422 0
 4010 0020 23E0     		b	.L309	@
 4011              	.L316:
1423:core/lpc17xx_uart.c **** 			timeOut = UART_BLOCKING_TIMEOUT;
 4012              		.loc 1 1423 0
 4013 0022 4FF0FF33 		mov	r3, #-1	@ tmp128,
 4014 0026 7B61     		str	r3, [r7, #20]	@ tmp128, timeOut
1424:core/lpc17xx_uart.c **** 			while (!(UARTx->LSR & UART_LSR_RDR)){
 4015              		.loc 1 1424 0
 4016 0028 05E0     		b	.L310	@
 4017              	.L313:
1425:core/lpc17xx_uart.c **** 				if (timeOut == 0) break;
 4018              		.loc 1 1425 0
 4019 002a 7B69     		ldr	r3, [r7, #20]	@ tmp129, timeOut
 4020 002c 002B     		cmp	r3, #0	@ tmp129,
 4021 002e 0AD0     		beq	.L322	@,
1426:core/lpc17xx_uart.c **** 				timeOut--;
 4022              		.loc 1 1426 0
 4023 0030 7B69     		ldr	r3, [r7, #20]	@ tmp131, timeOut
 4024 0032 013B     		subs	r3, r3, #1	@ tmp130, tmp131,
 4025 0034 7B61     		str	r3, [r7, #20]	@ tmp130, timeOut
 4026              	.L310:
1424:core/lpc17xx_uart.c **** 			while (!(UARTx->LSR & UART_LSR_RDR)){
 4027              		.loc 1 1424 0
 4028 0036 FB68     		ldr	r3, [r7, #12]	@ tmp132, UARTx
 4029 0038 1B7D     		ldrb	r3, [r3, #20]	@ tmp134, UARTx_20(D)->LSR
 4030 003a DBB2     		uxtb	r3, r3	@ D.6756, tmp134
 4031 003c 03F00103 		and	r3, r3, #1	@ D.6757, D.6757,
 4032 0040 002B     		cmp	r3, #0	@ D.6757,
 4033 0042 F2D0     		beq	.L313	@,
 4034 0044 00E0     		b	.L312	@
ARM GAS  C:\Users\STUDENT\AppData\Local\Temp\ccMxouBa.s 			page 98


 4035              	.L322:
1425:core/lpc17xx_uart.c **** 				if (timeOut == 0) break;
 4036              		.loc 1 1425 0
 4037 0046 00BF     		nop
 4038              	.L312:
1427:core/lpc17xx_uart.c **** 			}
1428:core/lpc17xx_uart.c **** 			// Time out!
1429:core/lpc17xx_uart.c **** 			if(timeOut == 0) break;
 4039              		.loc 1 1429 0
 4040 0048 7B69     		ldr	r3, [r7, #20]	@ tmp135, timeOut
 4041 004a 002B     		cmp	r3, #0	@ tmp135,
 4042 004c 2DD0     		beq	.L323	@,
1430:core/lpc17xx_uart.c **** 			// Get data from the buffer
1431:core/lpc17xx_uart.c **** 			(*pChar++) = UART_ReceiveData(UARTx);
 4043              		.loc 1 1431 0
 4044 004e 3C69     		ldr	r4, [r7, #16]	@ D.6758, pChar
 4045 0050 631C     		adds	r3, r4, #1	@ tmp136, D.6758,
 4046 0052 3B61     		str	r3, [r7, #16]	@ tmp136, pChar
 4047 0054 F868     		ldr	r0, [r7, #12]	@, UARTx
 4048 0056 FFF7FEFF 		bl	UART_ReceiveData	@
 4049 005a 0346     		mov	r3, r0	@ tmp137,
 4050 005c 2370     		strb	r3, [r4]	@ tmp138, *_25
1432:core/lpc17xx_uart.c **** 			bToRecv--;
 4051              		.loc 1 1432 0
 4052 005e FB69     		ldr	r3, [r7, #28]	@ tmp140, bToRecv
 4053 0060 013B     		subs	r3, r3, #1	@ tmp139, tmp140,
 4054 0062 FB61     		str	r3, [r7, #28]	@ tmp139, bToRecv
1433:core/lpc17xx_uart.c **** 			bRecv++;
 4055              		.loc 1 1433 0
 4056 0064 BB69     		ldr	r3, [r7, #24]	@ tmp142, bRecv
 4057 0066 0133     		adds	r3, r3, #1	@ tmp141, tmp142,
 4058 0068 BB61     		str	r3, [r7, #24]	@ tmp141, bRecv
 4059              	.L309:
1422:core/lpc17xx_uart.c **** 			timeOut = UART_BLOCKING_TIMEOUT;
 4060              		.loc 1 1422 0
 4061 006a FB69     		ldr	r3, [r7, #28]	@ tmp143, bToRecv
 4062 006c 002B     		cmp	r3, #0	@ tmp143,
 4063 006e D8D1     		bne	.L316	@,
 4064 0070 1EE0     		b	.L317	@
 4065              	.L308:
1434:core/lpc17xx_uart.c **** 		}
1435:core/lpc17xx_uart.c **** 	}
1436:core/lpc17xx_uart.c **** 	// None blocking mode
1437:core/lpc17xx_uart.c **** 	else {
1438:core/lpc17xx_uart.c **** 		bRecv = 0;
 4066              		.loc 1 1438 0
 4067 0072 0023     		movs	r3, #0	@ tmp144,
 4068 0074 BB61     		str	r3, [r7, #24]	@ tmp144, bRecv
1439:core/lpc17xx_uart.c **** 		while (bToRecv) {
 4069              		.loc 1 1439 0
 4070 0076 14E0     		b	.L318	@
 4071              	.L320:
1440:core/lpc17xx_uart.c **** 			if (!(UARTx->LSR & UART_LSR_RDR)) {
 4072              		.loc 1 1440 0
 4073 0078 FB68     		ldr	r3, [r7, #12]	@ tmp145, UARTx
 4074 007a 1B7D     		ldrb	r3, [r3, #20]	@ tmp147, UARTx_20(D)->LSR
 4075 007c DBB2     		uxtb	r3, r3	@ D.6756, tmp147
ARM GAS  C:\Users\STUDENT\AppData\Local\Temp\ccMxouBa.s 			page 99


 4076 007e 03F00103 		and	r3, r3, #1	@ D.6757, D.6757,
 4077 0082 002B     		cmp	r3, #0	@ D.6757,
 4078 0084 13D0     		beq	.L324	@,
1441:core/lpc17xx_uart.c **** 				break;
1442:core/lpc17xx_uart.c **** 			} else {
1443:core/lpc17xx_uart.c **** 				(*pChar++) = UART_ReceiveData(UARTx);
 4079              		.loc 1 1443 0
 4080 0086 3C69     		ldr	r4, [r7, #16]	@ D.6758, pChar
 4081 0088 631C     		adds	r3, r4, #1	@ tmp148, D.6758,
 4082 008a 3B61     		str	r3, [r7, #16]	@ tmp148, pChar
 4083 008c F868     		ldr	r0, [r7, #12]	@, UARTx
 4084 008e FFF7FEFF 		bl	UART_ReceiveData	@
 4085 0092 0346     		mov	r3, r0	@ tmp149,
 4086 0094 2370     		strb	r3, [r4]	@ tmp150, *_36
1444:core/lpc17xx_uart.c **** 				bRecv++;
 4087              		.loc 1 1444 0
 4088 0096 BB69     		ldr	r3, [r7, #24]	@ tmp152, bRecv
 4089 0098 0133     		adds	r3, r3, #1	@ tmp151, tmp152,
 4090 009a BB61     		str	r3, [r7, #24]	@ tmp151, bRecv
1445:core/lpc17xx_uart.c **** 				bToRecv--;
 4091              		.loc 1 1445 0
 4092 009c FB69     		ldr	r3, [r7, #28]	@ tmp154, bToRecv
 4093 009e 013B     		subs	r3, r3, #1	@ tmp153, tmp154,
 4094 00a0 FB61     		str	r3, [r7, #28]	@ tmp153, bToRecv
 4095              	.L318:
1439:core/lpc17xx_uart.c **** 			if (!(UARTx->LSR & UART_LSR_RDR)) {
 4096              		.loc 1 1439 0
 4097 00a2 FB69     		ldr	r3, [r7, #28]	@ tmp155, bToRecv
 4098 00a4 002B     		cmp	r3, #0	@ tmp155,
 4099 00a6 E7D1     		bne	.L320	@,
 4100 00a8 02E0     		b	.L317	@
 4101              	.L323:
1429:core/lpc17xx_uart.c **** 			// Get data from the buffer
 4102              		.loc 1 1429 0
 4103 00aa 00BF     		nop
 4104 00ac 00E0     		b	.L317	@
 4105              	.L324:
1441:core/lpc17xx_uart.c **** 			} else {
 4106              		.loc 1 1441 0
 4107 00ae 00BF     		nop
 4108              	.L317:
1446:core/lpc17xx_uart.c **** 			}
1447:core/lpc17xx_uart.c **** 		}
1448:core/lpc17xx_uart.c **** 	}
1449:core/lpc17xx_uart.c **** 	return bRecv;
 4109              		.loc 1 1449 0
 4110 00b0 BB69     		ldr	r3, [r7, #24]	@ D.6759, bRecv
1450:core/lpc17xx_uart.c **** }
 4111              		.loc 1 1450 0
 4112 00b2 1846     		mov	r0, r3	@, <retval>
 4113 00b4 2437     		adds	r7, r7, #36	@,,
 4114              		.cfi_def_cfa_offset 12
 4115 00b6 BD46     		mov	sp, r7	@,
 4116              		.cfi_def_cfa_register 13
 4117              		@ sp needed	@
 4118 00b8 90BD     		pop	{r4, r7, pc}	@
 4119              		.cfi_endproc
ARM GAS  C:\Users\STUDENT\AppData\Local\Temp\ccMxouBa.s 			page 100


 4120              	.LFE84:
 4121              		.size	UART_Receive, .-UART_Receive
 4122 00ba 00BF     		.section	.text.UART_SetupCbs,"ax",%progbits
 4123              		.align	2
 4124              		.global	UART_SetupCbs
 4125              		.thumb
 4126              		.thumb_func
 4127              		.type	UART_SetupCbs, %function
 4128              	UART_SetupCbs:
 4129              	.LFB85:
1451:core/lpc17xx_uart.c **** 
1452:core/lpc17xx_uart.c **** 
1453:core/lpc17xx_uart.c **** /*********************************************************************//**
1454:core/lpc17xx_uart.c ****  * @brief		Setup call-back function for UART interrupt handler for each
1455:core/lpc17xx_uart.c ****  * 				UART peripheral
1456:core/lpc17xx_uart.c ****  * @param[in]	UARTx	Selected UART peripheral, should be UART0..3
1457:core/lpc17xx_uart.c ****  * @param[in]	CbType	Call-back type, should be:
1458:core/lpc17xx_uart.c ****  * 						0 - Receive Call-back
1459:core/lpc17xx_uart.c ****  * 						1 - Transmit Call-back
1460:core/lpc17xx_uart.c ****  * 						2 - Auto Baudrate Callback
1461:core/lpc17xx_uart.c ****  * 						3 - Error Call-back
1462:core/lpc17xx_uart.c ****  * 						4 - Modem Status Call-back (UART1 only)
1463:core/lpc17xx_uart.c ****  * @param[in]	pfnCbs	Pointer to Call-back function
1464:core/lpc17xx_uart.c ****  * @return		None
1465:core/lpc17xx_uart.c ****  **********************************************************************/
1466:core/lpc17xx_uart.c **** void UART_SetupCbs(LPC_UART_TypeDef *UARTx, uint8_t CbType, void *pfnCbs)
1467:core/lpc17xx_uart.c **** {
 4130              		.loc 1 1467 0
 4131              		.cfi_startproc
 4132              		@ args = 0, pretend = 0, frame = 24
 4133              		@ frame_needed = 1, uses_anonymous_args = 0
 4134 0000 80B5     		push	{r7, lr}	@
 4135              		.cfi_def_cfa_offset 8
 4136              		.cfi_offset 7, -8
 4137              		.cfi_offset 14, -4
 4138 0002 86B0     		sub	sp, sp, #24	@,,
 4139              		.cfi_def_cfa_offset 32
 4140 0004 00AF     		add	r7, sp, #0	@,,
 4141              		.cfi_def_cfa_register 7
 4142 0006 F860     		str	r0, [r7, #12]	@ UARTx, UARTx
 4143 0008 0B46     		mov	r3, r1	@ tmp120, CbType
 4144 000a 7A60     		str	r2, [r7, #4]	@ pfnCbs, pfnCbs
 4145 000c FB72     		strb	r3, [r7, #11]	@ tmp121, CbType
1468:core/lpc17xx_uart.c **** 	uint8_t pUartNum;
1469:core/lpc17xx_uart.c **** 
1470:core/lpc17xx_uart.c **** 	pUartNum = getUartNum(UARTx);
 4146              		.loc 1 1470 0
 4147 000e F868     		ldr	r0, [r7, #12]	@, UARTx
 4148 0010 FFF7FEFF 		bl	getUartNum	@
 4149 0014 0346     		mov	r3, r0	@ tmp122,
 4150 0016 FB75     		strb	r3, [r7, #23]	@ tmp123, pUartNum
1471:core/lpc17xx_uart.c **** 	switch(CbType){
 4151              		.loc 1 1471 0
 4152 0018 FB7A     		ldrb	r3, [r7, #11]	@ zero_extendqisi2	@ D.6760, CbType
 4153 001a 042B     		cmp	r3, #4	@ D.6760,
 4154 001c 2FD8     		bhi	.L334	@
 4155 001e 01A2     		adr	r2, .L328	@ tmp140,
ARM GAS  C:\Users\STUDENT\AppData\Local\Temp\ccMxouBa.s 			page 101


 4156 0020 52F823F0 		ldr	pc, [r2, r3, lsl #2]	@ tmp140, D.6760
 4157              		.p2align 2
 4158              	.L328:
 4159 0024 39000000 		.word	.L327+1
 4160 0028 49000000 		.word	.L329+1
 4161 002c 57000000 		.word	.L330+1
 4162 0030 67000000 		.word	.L331+1
 4163 0034 77000000 		.word	.L332+1
 4164              		.p2align 1
 4165              	.L327:
1472:core/lpc17xx_uart.c **** 	case 0:
1473:core/lpc17xx_uart.c **** 		uartCbsDat[pUartNum].pfnRxCbs = (fnTxCbs_Type *)pfnCbs;
 4166              		.loc 1 1473 0
 4167 0038 FB7D     		ldrb	r3, [r7, #23]	@ zero_extendqisi2	@ D.6760, pUartNum
 4168 003a 7A68     		ldr	r2, [r7, #4]	@ D.6761, pfnCbs
 4169 003c 1249     		ldr	r1, .L335	@ tmp124,
 4170 003e 1B01     		lsls	r3, r3, #4	@ tmp125, D.6760,
 4171 0040 0B44     		add	r3, r3, r1	@ tmp126, tmp124
 4172 0042 0433     		adds	r3, r3, #4	@ tmp127, tmp126,
 4173 0044 1A60     		str	r2, [r3]	@ D.6761, uartCbsDat[_8].pfnRxCbs
1474:core/lpc17xx_uart.c **** 		break;
 4174              		.loc 1 1474 0
 4175 0046 1BE0     		b	.L333	@
 4176              	.L329:
1475:core/lpc17xx_uart.c **** 	case 1:
1476:core/lpc17xx_uart.c **** 		uartCbsDat[pUartNum].pfnTxCbs = (fnRxCbs_Type *)pfnCbs;
 4177              		.loc 1 1476 0
 4178 0048 FB7D     		ldrb	r3, [r7, #23]	@ zero_extendqisi2	@ D.6760, pUartNum
 4179 004a 7A68     		ldr	r2, [r7, #4]	@ D.6762, pfnCbs
 4180 004c 0E49     		ldr	r1, .L335	@ tmp128,
 4181 004e 1B01     		lsls	r3, r3, #4	@ tmp129, D.6760,
 4182 0050 0B44     		add	r3, r3, r1	@ tmp130, tmp128
 4183 0052 1A60     		str	r2, [r3]	@ D.6762, uartCbsDat[_12].pfnTxCbs
1477:core/lpc17xx_uart.c **** 		break;
 4184              		.loc 1 1477 0
 4185 0054 14E0     		b	.L333	@
 4186              	.L330:
1478:core/lpc17xx_uart.c **** 	case 2:
1479:core/lpc17xx_uart.c **** 		uartCbsDat[pUartNum].pfnABCbs = (fnABCbs_Type *)pfnCbs;
 4187              		.loc 1 1479 0
 4188 0056 FB7D     		ldrb	r3, [r7, #23]	@ zero_extendqisi2	@ D.6760, pUartNum
 4189 0058 7A68     		ldr	r2, [r7, #4]	@ D.6763, pfnCbs
 4190 005a 0B49     		ldr	r1, .L335	@ tmp131,
 4191 005c 1B01     		lsls	r3, r3, #4	@ tmp132, D.6760,
 4192 005e 0B44     		add	r3, r3, r1	@ tmp133, tmp131
 4193 0060 0833     		adds	r3, r3, #8	@ tmp134, tmp133,
 4194 0062 1A60     		str	r2, [r3]	@ D.6763, uartCbsDat[_15].pfnABCbs
1480:core/lpc17xx_uart.c **** 		break;
 4195              		.loc 1 1480 0
 4196 0064 0CE0     		b	.L333	@
 4197              	.L331:
1481:core/lpc17xx_uart.c **** 	case 3:
1482:core/lpc17xx_uart.c **** 		uartCbsDat[pUartNum].pfnErrCbs = (fnErrCbs_Type *)pfnCbs;
 4198              		.loc 1 1482 0
 4199 0066 FB7D     		ldrb	r3, [r7, #23]	@ zero_extendqisi2	@ D.6760, pUartNum
 4200 0068 7A68     		ldr	r2, [r7, #4]	@ D.6764, pfnCbs
 4201 006a 0749     		ldr	r1, .L335	@ tmp135,
ARM GAS  C:\Users\STUDENT\AppData\Local\Temp\ccMxouBa.s 			page 102


 4202 006c 1B01     		lsls	r3, r3, #4	@ tmp136, D.6760,
 4203 006e 0B44     		add	r3, r3, r1	@ tmp137, tmp135
 4204 0070 0C33     		adds	r3, r3, #12	@ tmp138, tmp137,
 4205 0072 1A60     		str	r2, [r3]	@ D.6764, uartCbsDat[_18].pfnErrCbs
1483:core/lpc17xx_uart.c **** 		break;
 4206              		.loc 1 1483 0
 4207 0074 04E0     		b	.L333	@
 4208              	.L332:
1484:core/lpc17xx_uart.c **** 	case 4:
1485:core/lpc17xx_uart.c **** 		pfnModemCbs = (fnModemCbs_Type *)pfnCbs;
 4209              		.loc 1 1485 0
 4210 0076 7B68     		ldr	r3, [r7, #4]	@ D.6765, pfnCbs
 4211 0078 044A     		ldr	r2, .L335+4	@ tmp139,
 4212 007a 1360     		str	r3, [r2]	@ D.6765, pfnModemCbs
1486:core/lpc17xx_uart.c **** 		break;
 4213              		.loc 1 1486 0
 4214 007c 00E0     		b	.L333	@
 4215              	.L334:
1487:core/lpc17xx_uart.c **** 	default:
1488:core/lpc17xx_uart.c **** 		break;
 4216              		.loc 1 1488 0
 4217 007e 00BF     		nop
 4218              	.L333:
1489:core/lpc17xx_uart.c **** 	}
1490:core/lpc17xx_uart.c **** }
 4219              		.loc 1 1490 0
 4220 0080 00BF     		nop
 4221 0082 1837     		adds	r7, r7, #24	@,,
 4222              		.cfi_def_cfa_offset 8
 4223 0084 BD46     		mov	sp, r7	@,
 4224              		.cfi_def_cfa_register 13
 4225              		@ sp needed	@
 4226 0086 80BD     		pop	{r7, pc}	@
 4227              	.L336:
 4228              		.align	2
 4229              	.L335:
 4230 0088 00000000 		.word	uartCbsDat
 4231 008c 00000000 		.word	pfnModemCbs
 4232              		.cfi_endproc
 4233              	.LFE85:
 4234              		.size	UART_SetupCbs, .-UART_SetupCbs
 4235              		.section	.text.UART0_StdIntHandler,"ax",%progbits
 4236              		.align	2
 4237              		.global	UART0_StdIntHandler
 4238              		.thumb
 4239              		.thumb_func
 4240              		.type	UART0_StdIntHandler, %function
 4241              	UART0_StdIntHandler:
 4242              	.LFB86:
1491:core/lpc17xx_uart.c **** 
1492:core/lpc17xx_uart.c **** /*********************************************************************//**
1493:core/lpc17xx_uart.c ****  * @brief		Standard UART0 interrupt handler
1494:core/lpc17xx_uart.c ****  * @param[in]	None
1495:core/lpc17xx_uart.c ****  * @return		None
1496:core/lpc17xx_uart.c ****  **********************************************************************/
1497:core/lpc17xx_uart.c **** void UART0_StdIntHandler(void)
1498:core/lpc17xx_uart.c **** {
ARM GAS  C:\Users\STUDENT\AppData\Local\Temp\ccMxouBa.s 			page 103


 4243              		.loc 1 1498 0
 4244              		.cfi_startproc
 4245              		@ args = 0, pretend = 0, frame = 0
 4246              		@ frame_needed = 1, uses_anonymous_args = 0
 4247 0000 80B5     		push	{r7, lr}	@
 4248              		.cfi_def_cfa_offset 8
 4249              		.cfi_offset 7, -8
 4250              		.cfi_offset 14, -4
 4251 0002 00AF     		add	r7, sp, #0	@,,
 4252              		.cfi_def_cfa_register 7
1499:core/lpc17xx_uart.c **** 	UART_GenIntHandler((LPC_UART_TypeDef*)LPC_UART0);
 4253              		.loc 1 1499 0
 4254 0004 0248     		ldr	r0, .L338	@,
 4255 0006 FFF7FEFF 		bl	UART_GenIntHandler	@
1500:core/lpc17xx_uart.c **** }
 4256              		.loc 1 1500 0
 4257 000a 00BF     		nop
 4258 000c 80BD     		pop	{r7, pc}	@
 4259              	.L339:
 4260 000e 00BF     		.align	2
 4261              	.L338:
 4262 0010 00C00040 		.word	1073790976
 4263              		.cfi_endproc
 4264              	.LFE86:
 4265              		.size	UART0_StdIntHandler, .-UART0_StdIntHandler
 4266              		.section	.text.UART1_StdIntHandler,"ax",%progbits
 4267              		.align	2
 4268              		.global	UART1_StdIntHandler
 4269              		.thumb
 4270              		.thumb_func
 4271              		.type	UART1_StdIntHandler, %function
 4272              	UART1_StdIntHandler:
 4273              	.LFB87:
1501:core/lpc17xx_uart.c **** 
1502:core/lpc17xx_uart.c **** /*********************************************************************//**
1503:core/lpc17xx_uart.c ****  * @brief		Standard UART1 interrupt handler
1504:core/lpc17xx_uart.c ****  * @param[in]	None
1505:core/lpc17xx_uart.c ****  * @return		None
1506:core/lpc17xx_uart.c ****  **********************************************************************/
1507:core/lpc17xx_uart.c **** void UART1_StdIntHandler(void)
1508:core/lpc17xx_uart.c **** {
 4274              		.loc 1 1508 0
 4275              		.cfi_startproc
 4276              		@ args = 0, pretend = 0, frame = 0
 4277              		@ frame_needed = 1, uses_anonymous_args = 0
 4278 0000 80B5     		push	{r7, lr}	@
 4279              		.cfi_def_cfa_offset 8
 4280              		.cfi_offset 7, -8
 4281              		.cfi_offset 14, -4
 4282 0002 00AF     		add	r7, sp, #0	@,,
 4283              		.cfi_def_cfa_register 7
1509:core/lpc17xx_uart.c **** 	UART_GenIntHandler((LPC_UART_TypeDef *)LPC_UART1);
 4284              		.loc 1 1509 0
 4285 0004 0248     		ldr	r0, .L341	@,
 4286 0006 FFF7FEFF 		bl	UART_GenIntHandler	@
1510:core/lpc17xx_uart.c **** }
 4287              		.loc 1 1510 0
ARM GAS  C:\Users\STUDENT\AppData\Local\Temp\ccMxouBa.s 			page 104


 4288 000a 00BF     		nop
 4289 000c 80BD     		pop	{r7, pc}	@
 4290              	.L342:
 4291 000e 00BF     		.align	2
 4292              	.L341:
 4293 0010 00000140 		.word	1073807360
 4294              		.cfi_endproc
 4295              	.LFE87:
 4296              		.size	UART1_StdIntHandler, .-UART1_StdIntHandler
 4297              		.section	.text.UART2_StdIntHandler,"ax",%progbits
 4298              		.align	2
 4299              		.global	UART2_StdIntHandler
 4300              		.thumb
 4301              		.thumb_func
 4302              		.type	UART2_StdIntHandler, %function
 4303              	UART2_StdIntHandler:
 4304              	.LFB88:
1511:core/lpc17xx_uart.c **** 
1512:core/lpc17xx_uart.c **** /*********************************************************************//**
1513:core/lpc17xx_uart.c ****  * @brief		Standard UART2 interrupt handler
1514:core/lpc17xx_uart.c ****  * @param[in]	None
1515:core/lpc17xx_uart.c ****  * @return		None
1516:core/lpc17xx_uart.c ****  **********************************************************************/
1517:core/lpc17xx_uart.c **** void UART2_StdIntHandler(void)
1518:core/lpc17xx_uart.c **** {
 4305              		.loc 1 1518 0
 4306              		.cfi_startproc
 4307              		@ args = 0, pretend = 0, frame = 0
 4308              		@ frame_needed = 1, uses_anonymous_args = 0
 4309 0000 80B5     		push	{r7, lr}	@
 4310              		.cfi_def_cfa_offset 8
 4311              		.cfi_offset 7, -8
 4312              		.cfi_offset 14, -4
 4313 0002 00AF     		add	r7, sp, #0	@,,
 4314              		.cfi_def_cfa_register 7
1519:core/lpc17xx_uart.c **** 	UART_GenIntHandler(LPC_UART2);
 4315              		.loc 1 1519 0
 4316 0004 0248     		ldr	r0, .L344	@,
 4317 0006 FFF7FEFF 		bl	UART_GenIntHandler	@
1520:core/lpc17xx_uart.c **** }
 4318              		.loc 1 1520 0
 4319 000a 00BF     		nop
 4320 000c 80BD     		pop	{r7, pc}	@
 4321              	.L345:
 4322 000e 00BF     		.align	2
 4323              	.L344:
 4324 0010 00800940 		.word	1074364416
 4325              		.cfi_endproc
 4326              	.LFE88:
 4327              		.size	UART2_StdIntHandler, .-UART2_StdIntHandler
 4328              		.section	.text.UART3_StdIntHandler,"ax",%progbits
 4329              		.align	2
 4330              		.global	UART3_StdIntHandler
 4331              		.thumb
 4332              		.thumb_func
 4333              		.type	UART3_StdIntHandler, %function
 4334              	UART3_StdIntHandler:
ARM GAS  C:\Users\STUDENT\AppData\Local\Temp\ccMxouBa.s 			page 105


 4335              	.LFB89:
1521:core/lpc17xx_uart.c **** 
1522:core/lpc17xx_uart.c **** /*********************************************************************//**
1523:core/lpc17xx_uart.c ****  * @brief		Standard UART3 interrupt handler
1524:core/lpc17xx_uart.c ****  * @param[in]	None
1525:core/lpc17xx_uart.c ****  * @return
1526:core/lpc17xx_uart.c ****  **********************************************************************/
1527:core/lpc17xx_uart.c **** void UART3_StdIntHandler(void)
1528:core/lpc17xx_uart.c **** {
 4336              		.loc 1 1528 0
 4337              		.cfi_startproc
 4338              		@ args = 0, pretend = 0, frame = 0
 4339              		@ frame_needed = 1, uses_anonymous_args = 0
 4340 0000 80B5     		push	{r7, lr}	@
 4341              		.cfi_def_cfa_offset 8
 4342              		.cfi_offset 7, -8
 4343              		.cfi_offset 14, -4
 4344 0002 00AF     		add	r7, sp, #0	@,,
 4345              		.cfi_def_cfa_register 7
1529:core/lpc17xx_uart.c **** 	UART_GenIntHandler(LPC_UART3);
 4346              		.loc 1 1529 0
 4347 0004 0248     		ldr	r0, .L347	@,
 4348 0006 FFF7FEFF 		bl	UART_GenIntHandler	@
1530:core/lpc17xx_uart.c **** }
 4349              		.loc 1 1530 0
 4350 000a 00BF     		nop
 4351 000c 80BD     		pop	{r7, pc}	@
 4352              	.L348:
 4353 000e 00BF     		.align	2
 4354              	.L347:
 4355 0010 00C00940 		.word	1074380800
 4356              		.cfi_endproc
 4357              	.LFE89:
 4358              		.size	UART3_StdIntHandler, .-UART3_StdIntHandler
 4359              		.text
 4360              	.Letext0:
 4361              		.file 2 "c:\\program files (x86)\\gnu tools arm embedded\\5.4 2016q3\\arm-none-eabi\\include\\mach
 4362              		.file 3 "c:\\program files (x86)\\gnu tools arm embedded\\5.4 2016q3\\arm-none-eabi\\include\\sys\
 4363              		.file 4 "system/LPC17xx.h"
 4364              		.file 5 "core/lpc_types.h"
 4365              		.file 6 "core/lpc17xx_uart.h"
 4366              		.file 7 "system/core_cm3.h"
 4367              		.file 8 "<built-in>"
 4368              		.section	.debug_info,"",%progbits
 4369              	.Ldebug_info0:
 4370 0000 AC120000 		.4byte	0x12ac
 4371 0004 0400     		.2byte	0x4
 4372 0006 00000000 		.4byte	.Ldebug_abbrev0
 4373 000a 04       		.byte	0x4
 4374 000b 01       		.uleb128 0x1
 4375 000c 29160000 		.4byte	.LASF1408
 4376 0010 01       		.byte	0x1
 4377 0011 FC320000 		.4byte	.LASF1409
 4378 0015 8D180000 		.4byte	.LASF1410
 4379 0019 00000000 		.4byte	.Ldebug_ranges0+0
 4380 001d 00000000 		.4byte	0
 4381 0021 00000000 		.4byte	.Ldebug_line0
ARM GAS  C:\Users\STUDENT\AppData\Local\Temp\ccMxouBa.s 			page 106


 4382 0025 00000000 		.4byte	.Ldebug_macro0
 4383 0029 02       		.uleb128 0x2
 4384 002a 01       		.byte	0x1
 4385 002b 06       		.byte	0x6
 4386 002c DF250000 		.4byte	.LASF1191
 4387 0030 03       		.uleb128 0x3
 4388 0031 37150000 		.4byte	.LASF1195
 4389 0035 02       		.byte	0x2
 4390 0036 1D       		.byte	0x1d
 4391 0037 3B000000 		.4byte	0x3b
 4392 003b 02       		.uleb128 0x2
 4393 003c 01       		.byte	0x1
 4394 003d 08       		.byte	0x8
 4395 003e E5280000 		.4byte	.LASF1192
 4396 0042 02       		.uleb128 0x2
 4397 0043 02       		.byte	0x2
 4398 0044 05       		.byte	0x5
 4399 0045 CF8E0000 		.4byte	.LASF1193
 4400 0049 02       		.uleb128 0x2
 4401 004a 02       		.byte	0x2
 4402 004b 07       		.byte	0x7
 4403 004c 949F0000 		.4byte	.LASF1194
 4404 0050 03       		.uleb128 0x3
 4405 0051 26A30000 		.4byte	.LASF1196
 4406 0055 02       		.byte	0x2
 4407 0056 3F       		.byte	0x3f
 4408 0057 5B000000 		.4byte	0x5b
 4409 005b 02       		.uleb128 0x2
 4410 005c 04       		.byte	0x4
 4411 005d 05       		.byte	0x5
 4412 005e 891A0000 		.4byte	.LASF1197
 4413 0062 03       		.uleb128 0x3
 4414 0063 9E580000 		.4byte	.LASF1198
 4415 0067 02       		.byte	0x2
 4416 0068 41       		.byte	0x41
 4417 0069 6D000000 		.4byte	0x6d
 4418 006d 02       		.uleb128 0x2
 4419 006e 04       		.byte	0x4
 4420 006f 07       		.byte	0x7
 4421 0070 DA4A0000 		.4byte	.LASF1199
 4422 0074 02       		.uleb128 0x2
 4423 0075 08       		.byte	0x8
 4424 0076 05       		.byte	0x5
 4425 0077 40590000 		.4byte	.LASF1200
 4426 007b 02       		.uleb128 0x2
 4427 007c 08       		.byte	0x8
 4428 007d 07       		.byte	0x7
 4429 007e A8770000 		.4byte	.LASF1201
 4430 0082 04       		.uleb128 0x4
 4431 0083 04       		.byte	0x4
 4432 0084 05       		.byte	0x5
 4433 0085 696E7400 		.ascii	"int\000"
 4434 0089 02       		.uleb128 0x2
 4435 008a 04       		.byte	0x4
 4436 008b 07       		.byte	0x7
 4437 008c AE630000 		.4byte	.LASF1202
 4438 0090 03       		.uleb128 0x3
ARM GAS  C:\Users\STUDENT\AppData\Local\Temp\ccMxouBa.s 			page 107


 4439 0091 F2250000 		.4byte	.LASF1203
 4440 0095 03       		.byte	0x3
 4441 0096 18       		.byte	0x18
 4442 0097 30000000 		.4byte	0x30
 4443 009b 03       		.uleb128 0x3
 4444 009c C0060000 		.4byte	.LASF1204
 4445 00a0 03       		.byte	0x3
 4446 00a1 2C       		.byte	0x2c
 4447 00a2 50000000 		.4byte	0x50
 4448 00a6 03       		.uleb128 0x3
 4449 00a7 959B0000 		.4byte	.LASF1205
 4450 00ab 03       		.byte	0x3
 4451 00ac 30       		.byte	0x30
 4452 00ad 62000000 		.4byte	0x62
 4453 00b1 02       		.uleb128 0x2
 4454 00b2 04       		.byte	0x4
 4455 00b3 07       		.byte	0x7
 4456 00b4 8D020000 		.4byte	.LASF1206
 4457 00b8 05       		.uleb128 0x5
 4458 00b9 A6000000 		.4byte	0xa6
 4459 00bd 05       		.uleb128 0x5
 4460 00be 90000000 		.4byte	0x90
 4461 00c2 06       		.uleb128 0x6
 4462 00c3 B8000000 		.4byte	0xb8
 4463 00c7 07       		.uleb128 0x7
 4464 00c8 04       		.byte	0x4
 4465 00c9 04       		.byte	0x4
 4466 00ca 5001     		.2byte	0x150
 4467 00cc 01010000 		.4byte	0x101
 4468 00d0 08       		.uleb128 0x8
 4469 00d1 52425200 		.ascii	"RBR\000"
 4470 00d5 04       		.byte	0x4
 4471 00d6 5101     		.2byte	0x151
 4472 00d8 01010000 		.4byte	0x101
 4473 00dc 08       		.uleb128 0x8
 4474 00dd 54485200 		.ascii	"THR\000"
 4475 00e1 04       		.byte	0x4
 4476 00e2 5201     		.2byte	0x152
 4477 00e4 BD000000 		.4byte	0xbd
 4478 00e8 08       		.uleb128 0x8
 4479 00e9 444C4C00 		.ascii	"DLL\000"
 4480 00ed 04       		.byte	0x4
 4481 00ee 5301     		.2byte	0x153
 4482 00f0 BD000000 		.4byte	0xbd
 4483 00f4 09       		.uleb128 0x9
 4484 00f5 D1280000 		.4byte	.LASF1207
 4485 00f9 04       		.byte	0x4
 4486 00fa 5401     		.2byte	0x154
 4487 00fc A6000000 		.4byte	0xa6
 4488 0100 00       		.byte	0
 4489 0101 06       		.uleb128 0x6
 4490 0102 BD000000 		.4byte	0xbd
 4491 0106 07       		.uleb128 0x7
 4492 0107 04       		.byte	0x4
 4493 0108 04       		.byte	0x4
 4494 0109 5601     		.2byte	0x156
 4495 010b 28010000 		.4byte	0x128
ARM GAS  C:\Users\STUDENT\AppData\Local\Temp\ccMxouBa.s 			page 108


 4496 010f 08       		.uleb128 0x8
 4497 0110 444C4D00 		.ascii	"DLM\000"
 4498 0114 04       		.byte	0x4
 4499 0115 5701     		.2byte	0x157
 4500 0117 BD000000 		.4byte	0xbd
 4501 011b 08       		.uleb128 0x8
 4502 011c 49455200 		.ascii	"IER\000"
 4503 0120 04       		.byte	0x4
 4504 0121 5801     		.2byte	0x158
 4505 0123 B8000000 		.4byte	0xb8
 4506 0127 00       		.byte	0
 4507 0128 07       		.uleb128 0x7
 4508 0129 04       		.byte	0x4
 4509 012a 04       		.byte	0x4
 4510 012b 5A01     		.2byte	0x15a
 4511 012d 4A010000 		.4byte	0x14a
 4512 0131 08       		.uleb128 0x8
 4513 0132 49495200 		.ascii	"IIR\000"
 4514 0136 04       		.byte	0x4
 4515 0137 5B01     		.2byte	0x15b
 4516 0139 C2000000 		.4byte	0xc2
 4517 013d 08       		.uleb128 0x8
 4518 013e 46435200 		.ascii	"FCR\000"
 4519 0142 04       		.byte	0x4
 4520 0143 5C01     		.2byte	0x15c
 4521 0145 BD000000 		.4byte	0xbd
 4522 0149 00       		.byte	0
 4523 014a 0A       		.uleb128 0xa
 4524 014b 5C       		.byte	0x5c
 4525 014c 04       		.byte	0x4
 4526 014d 4E01     		.2byte	0x14e
 4527 014f 1C020000 		.4byte	0x21c
 4528 0153 0B       		.uleb128 0xb
 4529 0154 C7000000 		.4byte	0xc7
 4530 0158 00       		.byte	0
 4531 0159 0B       		.uleb128 0xb
 4532 015a 06010000 		.4byte	0x106
 4533 015e 04       		.byte	0x4
 4534 015f 0B       		.uleb128 0xb
 4535 0160 28010000 		.4byte	0x128
 4536 0164 08       		.byte	0x8
 4537 0165 0C       		.uleb128 0xc
 4538 0166 4C435200 		.ascii	"LCR\000"
 4539 016a 04       		.byte	0x4
 4540 016b 5E01     		.2byte	0x15e
 4541 016d BD000000 		.4byte	0xbd
 4542 0171 0C       		.byte	0xc
 4543 0172 0D       		.uleb128 0xd
 4544 0173 DB280000 		.4byte	.LASF1208
 4545 0177 04       		.byte	0x4
 4546 0178 5F01     		.2byte	0x15f
 4547 017a 1C020000 		.4byte	0x21c
 4548 017e 0D       		.byte	0xd
 4549 017f 0C       		.uleb128 0xc
 4550 0180 4C535200 		.ascii	"LSR\000"
 4551 0184 04       		.byte	0x4
 4552 0185 6001     		.2byte	0x160
ARM GAS  C:\Users\STUDENT\AppData\Local\Temp\ccMxouBa.s 			page 109


 4553 0187 01010000 		.4byte	0x101
 4554 018b 14       		.byte	0x14
 4555 018c 0D       		.uleb128 0xd
 4556 018d BC2F0000 		.4byte	.LASF1209
 4557 0191 04       		.byte	0x4
 4558 0192 6101     		.2byte	0x161
 4559 0194 1C020000 		.4byte	0x21c
 4560 0198 15       		.byte	0x15
 4561 0199 0C       		.uleb128 0xc
 4562 019a 53435200 		.ascii	"SCR\000"
 4563 019e 04       		.byte	0x4
 4564 019f 6201     		.2byte	0x162
 4565 01a1 BD000000 		.4byte	0xbd
 4566 01a5 1C       		.byte	0x1c
 4567 01a6 0D       		.uleb128 0xd
 4568 01a7 F3280000 		.4byte	.LASF1210
 4569 01ab 04       		.byte	0x4
 4570 01ac 6301     		.2byte	0x163
 4571 01ae 2C020000 		.4byte	0x22c
 4572 01b2 1D       		.byte	0x1d
 4573 01b3 0C       		.uleb128 0xc
 4574 01b4 41435200 		.ascii	"ACR\000"
 4575 01b8 04       		.byte	0x4
 4576 01b9 6401     		.2byte	0x164
 4577 01bb B8000000 		.4byte	0xb8
 4578 01bf 20       		.byte	0x20
 4579 01c0 0C       		.uleb128 0xc
 4580 01c1 49435200 		.ascii	"ICR\000"
 4581 01c5 04       		.byte	0x4
 4582 01c6 6501     		.2byte	0x165
 4583 01c8 BD000000 		.4byte	0xbd
 4584 01cc 24       		.byte	0x24
 4585 01cd 0D       		.uleb128 0xd
 4586 01ce FD280000 		.4byte	.LASF1211
 4587 01d2 04       		.byte	0x4
 4588 01d3 6601     		.2byte	0x166
 4589 01d5 2C020000 		.4byte	0x22c
 4590 01d9 25       		.byte	0x25
 4591 01da 0C       		.uleb128 0xc
 4592 01db 46445200 		.ascii	"FDR\000"
 4593 01df 04       		.byte	0x4
 4594 01e0 6701     		.2byte	0x167
 4595 01e2 BD000000 		.4byte	0xbd
 4596 01e6 28       		.byte	0x28
 4597 01e7 0D       		.uleb128 0xd
 4598 01e8 07290000 		.4byte	.LASF1212
 4599 01ec 04       		.byte	0x4
 4600 01ed 6801     		.2byte	0x168
 4601 01ef 1C020000 		.4byte	0x21c
 4602 01f3 29       		.byte	0x29
 4603 01f4 0C       		.uleb128 0xc
 4604 01f5 54455200 		.ascii	"TER\000"
 4605 01f9 04       		.byte	0x4
 4606 01fa 6901     		.2byte	0x169
 4607 01fc BD000000 		.4byte	0xbd
 4608 0200 30       		.byte	0x30
 4609 0201 0D       		.uleb128 0xd
ARM GAS  C:\Users\STUDENT\AppData\Local\Temp\ccMxouBa.s 			page 110


 4610 0202 11290000 		.4byte	.LASF1213
 4611 0206 04       		.byte	0x4
 4612 0207 6A01     		.2byte	0x16a
 4613 0209 3C020000 		.4byte	0x23c
 4614 020d 31       		.byte	0x31
 4615 020e 0D       		.uleb128 0xd
 4616 020f E41F0000 		.4byte	.LASF1214
 4617 0213 04       		.byte	0x4
 4618 0214 6B01     		.2byte	0x16b
 4619 0216 01010000 		.4byte	0x101
 4620 021a 58       		.byte	0x58
 4621 021b 00       		.byte	0
 4622 021c 0E       		.uleb128 0xe
 4623 021d 90000000 		.4byte	0x90
 4624 0221 2C020000 		.4byte	0x22c
 4625 0225 0F       		.uleb128 0xf
 4626 0226 B1000000 		.4byte	0xb1
 4627 022a 06       		.byte	0x6
 4628 022b 00       		.byte	0
 4629 022c 0E       		.uleb128 0xe
 4630 022d 90000000 		.4byte	0x90
 4631 0231 3C020000 		.4byte	0x23c
 4632 0235 0F       		.uleb128 0xf
 4633 0236 B1000000 		.4byte	0xb1
 4634 023a 02       		.byte	0x2
 4635 023b 00       		.byte	0
 4636 023c 0E       		.uleb128 0xe
 4637 023d 90000000 		.4byte	0x90
 4638 0241 4C020000 		.4byte	0x24c
 4639 0245 0F       		.uleb128 0xf
 4640 0246 B1000000 		.4byte	0xb1
 4641 024a 26       		.byte	0x26
 4642 024b 00       		.byte	0
 4643 024c 10       		.uleb128 0x10
 4644 024d 061F0000 		.4byte	.LASF1215
 4645 0251 04       		.byte	0x4
 4646 0252 6C01     		.2byte	0x16c
 4647 0254 4A010000 		.4byte	0x14a
 4648 0258 07       		.uleb128 0x7
 4649 0259 04       		.byte	0x4
 4650 025a 04       		.byte	0x4
 4651 025b 9201     		.2byte	0x192
 4652 025d 92020000 		.4byte	0x292
 4653 0261 08       		.uleb128 0x8
 4654 0262 52425200 		.ascii	"RBR\000"
 4655 0266 04       		.byte	0x4
 4656 0267 9301     		.2byte	0x193
 4657 0269 01010000 		.4byte	0x101
 4658 026d 08       		.uleb128 0x8
 4659 026e 54485200 		.ascii	"THR\000"
 4660 0272 04       		.byte	0x4
 4661 0273 9401     		.2byte	0x194
 4662 0275 BD000000 		.4byte	0xbd
 4663 0279 08       		.uleb128 0x8
 4664 027a 444C4C00 		.ascii	"DLL\000"
 4665 027e 04       		.byte	0x4
 4666 027f 9501     		.2byte	0x195
ARM GAS  C:\Users\STUDENT\AppData\Local\Temp\ccMxouBa.s 			page 111


 4667 0281 BD000000 		.4byte	0xbd
 4668 0285 09       		.uleb128 0x9
 4669 0286 D1280000 		.4byte	.LASF1207
 4670 028a 04       		.byte	0x4
 4671 028b 9601     		.2byte	0x196
 4672 028d A6000000 		.4byte	0xa6
 4673 0291 00       		.byte	0
 4674 0292 07       		.uleb128 0x7
 4675 0293 04       		.byte	0x4
 4676 0294 04       		.byte	0x4
 4677 0295 9801     		.2byte	0x198
 4678 0297 B4020000 		.4byte	0x2b4
 4679 029b 08       		.uleb128 0x8
 4680 029c 444C4D00 		.ascii	"DLM\000"
 4681 02a0 04       		.byte	0x4
 4682 02a1 9901     		.2byte	0x199
 4683 02a3 BD000000 		.4byte	0xbd
 4684 02a7 08       		.uleb128 0x8
 4685 02a8 49455200 		.ascii	"IER\000"
 4686 02ac 04       		.byte	0x4
 4687 02ad 9A01     		.2byte	0x19a
 4688 02af B8000000 		.4byte	0xb8
 4689 02b3 00       		.byte	0
 4690 02b4 07       		.uleb128 0x7
 4691 02b5 04       		.byte	0x4
 4692 02b6 04       		.byte	0x4
 4693 02b7 9C01     		.2byte	0x19c
 4694 02b9 D6020000 		.4byte	0x2d6
 4695 02bd 08       		.uleb128 0x8
 4696 02be 49495200 		.ascii	"IIR\000"
 4697 02c2 04       		.byte	0x4
 4698 02c3 9D01     		.2byte	0x19d
 4699 02c5 C2000000 		.4byte	0xc2
 4700 02c9 08       		.uleb128 0x8
 4701 02ca 46435200 		.ascii	"FCR\000"
 4702 02ce 04       		.byte	0x4
 4703 02cf 9E01     		.2byte	0x19e
 4704 02d1 BD000000 		.4byte	0xbd
 4705 02d5 00       		.byte	0
 4706 02d6 0A       		.uleb128 0xa
 4707 02d7 5C       		.byte	0x5c
 4708 02d8 04       		.byte	0x4
 4709 02d9 9001     		.2byte	0x190
 4710 02db 1D040000 		.4byte	0x41d
 4711 02df 0B       		.uleb128 0xb
 4712 02e0 58020000 		.4byte	0x258
 4713 02e4 00       		.byte	0
 4714 02e5 0B       		.uleb128 0xb
 4715 02e6 92020000 		.4byte	0x292
 4716 02ea 04       		.byte	0x4
 4717 02eb 0B       		.uleb128 0xb
 4718 02ec B4020000 		.4byte	0x2b4
 4719 02f0 08       		.byte	0x8
 4720 02f1 0C       		.uleb128 0xc
 4721 02f2 4C435200 		.ascii	"LCR\000"
 4722 02f6 04       		.byte	0x4
 4723 02f7 A001     		.2byte	0x1a0
ARM GAS  C:\Users\STUDENT\AppData\Local\Temp\ccMxouBa.s 			page 112


 4724 02f9 BD000000 		.4byte	0xbd
 4725 02fd 0C       		.byte	0xc
 4726 02fe 0D       		.uleb128 0xd
 4727 02ff DB280000 		.4byte	.LASF1208
 4728 0303 04       		.byte	0x4
 4729 0304 A101     		.2byte	0x1a1
 4730 0306 2C020000 		.4byte	0x22c
 4731 030a 0D       		.byte	0xd
 4732 030b 0C       		.uleb128 0xc
 4733 030c 4D435200 		.ascii	"MCR\000"
 4734 0310 04       		.byte	0x4
 4735 0311 A201     		.2byte	0x1a2
 4736 0313 BD000000 		.4byte	0xbd
 4737 0317 10       		.byte	0x10
 4738 0318 0D       		.uleb128 0xd
 4739 0319 BC2F0000 		.4byte	.LASF1209
 4740 031d 04       		.byte	0x4
 4741 031e A301     		.2byte	0x1a3
 4742 0320 2C020000 		.4byte	0x22c
 4743 0324 11       		.byte	0x11
 4744 0325 0C       		.uleb128 0xc
 4745 0326 4C535200 		.ascii	"LSR\000"
 4746 032a 04       		.byte	0x4
 4747 032b A401     		.2byte	0x1a4
 4748 032d 01010000 		.4byte	0x101
 4749 0331 14       		.byte	0x14
 4750 0332 0D       		.uleb128 0xd
 4751 0333 F3280000 		.4byte	.LASF1210
 4752 0337 04       		.byte	0x4
 4753 0338 A501     		.2byte	0x1a5
 4754 033a 2C020000 		.4byte	0x22c
 4755 033e 15       		.byte	0x15
 4756 033f 0C       		.uleb128 0xc
 4757 0340 4D535200 		.ascii	"MSR\000"
 4758 0344 04       		.byte	0x4
 4759 0345 A601     		.2byte	0x1a6
 4760 0347 01010000 		.4byte	0x101
 4761 034b 18       		.byte	0x18
 4762 034c 0D       		.uleb128 0xd
 4763 034d FD280000 		.4byte	.LASF1211
 4764 0351 04       		.byte	0x4
 4765 0352 A701     		.2byte	0x1a7
 4766 0354 2C020000 		.4byte	0x22c
 4767 0358 19       		.byte	0x19
 4768 0359 0C       		.uleb128 0xc
 4769 035a 53435200 		.ascii	"SCR\000"
 4770 035e 04       		.byte	0x4
 4771 035f A801     		.2byte	0x1a8
 4772 0361 BD000000 		.4byte	0xbd
 4773 0365 1C       		.byte	0x1c
 4774 0366 0D       		.uleb128 0xd
 4775 0367 07290000 		.4byte	.LASF1212
 4776 036b 04       		.byte	0x4
 4777 036c A901     		.2byte	0x1a9
 4778 036e 2C020000 		.4byte	0x22c
 4779 0372 1D       		.byte	0x1d
 4780 0373 0C       		.uleb128 0xc
ARM GAS  C:\Users\STUDENT\AppData\Local\Temp\ccMxouBa.s 			page 113


 4781 0374 41435200 		.ascii	"ACR\000"
 4782 0378 04       		.byte	0x4
 4783 0379 AA01     		.2byte	0x1aa
 4784 037b B8000000 		.4byte	0xb8
 4785 037f 20       		.byte	0x20
 4786 0380 0D       		.uleb128 0xd
 4787 0381 11290000 		.4byte	.LASF1213
 4788 0385 04       		.byte	0x4
 4789 0386 AB01     		.2byte	0x1ab
 4790 0388 A6000000 		.4byte	0xa6
 4791 038c 24       		.byte	0x24
 4792 038d 0C       		.uleb128 0xc
 4793 038e 46445200 		.ascii	"FDR\000"
 4794 0392 04       		.byte	0x4
 4795 0393 AC01     		.2byte	0x1ac
 4796 0395 B8000000 		.4byte	0xb8
 4797 0399 28       		.byte	0x28
 4798 039a 0D       		.uleb128 0xd
 4799 039b 1B290000 		.4byte	.LASF1216
 4800 039f 04       		.byte	0x4
 4801 03a0 AD01     		.2byte	0x1ad
 4802 03a2 A6000000 		.4byte	0xa6
 4803 03a6 2C       		.byte	0x2c
 4804 03a7 0C       		.uleb128 0xc
 4805 03a8 54455200 		.ascii	"TER\000"
 4806 03ac 04       		.byte	0x4
 4807 03ad AE01     		.2byte	0x1ae
 4808 03af BD000000 		.4byte	0xbd
 4809 03b3 30       		.byte	0x30
 4810 03b4 0D       		.uleb128 0xd
 4811 03b5 25290000 		.4byte	.LASF1217
 4812 03b9 04       		.byte	0x4
 4813 03ba AF01     		.2byte	0x1af
 4814 03bc 1D040000 		.4byte	0x41d
 4815 03c0 31       		.byte	0x31
 4816 03c1 0D       		.uleb128 0xd
 4817 03c2 C2760000 		.4byte	.LASF1218
 4818 03c6 04       		.byte	0x4
 4819 03c7 B001     		.2byte	0x1b0
 4820 03c9 BD000000 		.4byte	0xbd
 4821 03cd 4C       		.byte	0x4c
 4822 03ce 0D       		.uleb128 0xd
 4823 03cf 2F290000 		.4byte	.LASF1219
 4824 03d3 04       		.byte	0x4
 4825 03d4 B101     		.2byte	0x1b1
 4826 03d6 2C020000 		.4byte	0x22c
 4827 03da 4D       		.byte	0x4d
 4828 03db 0D       		.uleb128 0xd
 4829 03dc 50A00000 		.4byte	.LASF1220
 4830 03e0 04       		.byte	0x4
 4831 03e1 B201     		.2byte	0x1b2
 4832 03e3 BD000000 		.4byte	0xbd
 4833 03e7 50       		.byte	0x50
 4834 03e8 0D       		.uleb128 0xd
 4835 03e9 047B0000 		.4byte	.LASF1221
 4836 03ed 04       		.byte	0x4
 4837 03ee B301     		.2byte	0x1b3
ARM GAS  C:\Users\STUDENT\AppData\Local\Temp\ccMxouBa.s 			page 114


 4838 03f0 2C020000 		.4byte	0x22c
 4839 03f4 51       		.byte	0x51
 4840 03f5 0D       		.uleb128 0xd
 4841 03f6 24410000 		.4byte	.LASF1222
 4842 03fa 04       		.byte	0x4
 4843 03fb B401     		.2byte	0x1b4
 4844 03fd BD000000 		.4byte	0xbd
 4845 0401 54       		.byte	0x54
 4846 0402 0D       		.uleb128 0xd
 4847 0403 0F7B0000 		.4byte	.LASF1223
 4848 0407 04       		.byte	0x4
 4849 0408 B501     		.2byte	0x1b5
 4850 040a 2C020000 		.4byte	0x22c
 4851 040e 55       		.byte	0x55
 4852 040f 0D       		.uleb128 0xd
 4853 0410 E41F0000 		.4byte	.LASF1214
 4854 0414 04       		.byte	0x4
 4855 0415 B601     		.2byte	0x1b6
 4856 0417 01010000 		.4byte	0x101
 4857 041b 58       		.byte	0x58
 4858 041c 00       		.byte	0
 4859 041d 0E       		.uleb128 0xe
 4860 041e 90000000 		.4byte	0x90
 4861 0422 2D040000 		.4byte	0x42d
 4862 0426 0F       		.uleb128 0xf
 4863 0427 B1000000 		.4byte	0xb1
 4864 042b 1A       		.byte	0x1a
 4865 042c 00       		.byte	0
 4866 042d 10       		.uleb128 0x10
 4867 042e AA8B0000 		.4byte	.LASF1224
 4868 0432 04       		.byte	0x4
 4869 0433 B701     		.2byte	0x1b7
 4870 0435 D6020000 		.4byte	0x2d6
 4871 0439 11       		.uleb128 0x11
 4872 043a 01       		.byte	0x1
 4873 043b 3B000000 		.4byte	0x3b
 4874 043f 05       		.byte	0x5
 4875 0440 32       		.byte	0x32
 4876 0441 52040000 		.4byte	0x452
 4877 0445 12       		.uleb128 0x12
 4878 0446 58830000 		.4byte	.LASF1225
 4879 044a 00       		.byte	0
 4880 044b 13       		.uleb128 0x13
 4881 044c 53455400 		.ascii	"SET\000"
 4882 0450 01       		.byte	0x1
 4883 0451 00       		.byte	0
 4884 0452 03       		.uleb128 0x3
 4885 0453 07870000 		.4byte	.LASF1226
 4886 0457 05       		.byte	0x5
 4887 0458 32       		.byte	0x32
 4888 0459 39040000 		.4byte	0x439
 4889 045d 03       		.uleb128 0x3
 4890 045e 149B0000 		.4byte	.LASF1227
 4891 0462 05       		.byte	0x5
 4892 0463 32       		.byte	0x32
 4893 0464 39040000 		.4byte	0x439
 4894 0468 11       		.uleb128 0x11
ARM GAS  C:\Users\STUDENT\AppData\Local\Temp\ccMxouBa.s 			page 115


 4895 0469 01       		.byte	0x1
 4896 046a 3B000000 		.4byte	0x3b
 4897 046e 05       		.byte	0x5
 4898 046f 38       		.byte	0x38
 4899 0470 81040000 		.4byte	0x481
 4900 0474 12       		.uleb128 0x12
 4901 0475 946F0000 		.4byte	.LASF1228
 4902 0479 00       		.byte	0
 4903 047a 12       		.uleb128 0x12
 4904 047b FC920000 		.4byte	.LASF1229
 4905 047f 01       		.byte	0x1
 4906 0480 00       		.byte	0
 4907 0481 03       		.uleb128 0x3
 4908 0482 F6760000 		.4byte	.LASF1230
 4909 0486 05       		.byte	0x5
 4910 0487 38       		.byte	0x38
 4911 0488 68040000 		.4byte	0x468
 4912 048c 11       		.uleb128 0x11
 4913 048d 01       		.byte	0x1
 4914 048e 3B000000 		.4byte	0x3b
 4915 0492 05       		.byte	0x5
 4916 0493 3E       		.byte	0x3e
 4917 0494 A5040000 		.4byte	0x4a5
 4918 0498 12       		.uleb128 0x12
 4919 0499 96520000 		.4byte	.LASF1231
 4920 049d 00       		.byte	0
 4921 049e 12       		.uleb128 0x12
 4922 049f F77F0000 		.4byte	.LASF1232
 4923 04a3 01       		.byte	0x1
 4924 04a4 00       		.byte	0
 4925 04a5 03       		.uleb128 0x3
 4926 04a6 97570000 		.4byte	.LASF1233
 4927 04aa 05       		.byte	0x5
 4928 04ab 3E       		.byte	0x3e
 4929 04ac 8C040000 		.4byte	0x48c
 4930 04b0 11       		.uleb128 0x11
 4931 04b1 01       		.byte	0x1
 4932 04b2 3B000000 		.4byte	0x3b
 4933 04b6 05       		.byte	0x5
 4934 04b7 45       		.byte	0x45
 4935 04b8 C9040000 		.4byte	0x4c9
 4936 04bc 12       		.uleb128 0x12
 4937 04bd BC000000 		.4byte	.LASF1234
 4938 04c1 00       		.byte	0
 4939 04c2 12       		.uleb128 0x12
 4940 04c3 DF950000 		.4byte	.LASF1235
 4941 04c7 01       		.byte	0x1
 4942 04c8 00       		.byte	0
 4943 04c9 03       		.uleb128 0x3
 4944 04ca 74680000 		.4byte	.LASF1236
 4945 04ce 05       		.byte	0x5
 4946 04cf 48       		.byte	0x48
 4947 04d0 B0040000 		.4byte	0x4b0
 4948 04d4 02       		.uleb128 0x2
 4949 04d5 01       		.byte	0x1
 4950 04d6 08       		.byte	0x8
 4951 04d7 98310000 		.4byte	.LASF410
ARM GAS  C:\Users\STUDENT\AppData\Local\Temp\ccMxouBa.s 			page 116


 4952 04db 11       		.uleb128 0x11
 4953 04dc 01       		.byte	0x1
 4954 04dd 3B000000 		.4byte	0x3b
 4955 04e1 06       		.byte	0x6
 4956 04e2 E4       		.byte	0xe4
 4957 04e3 00050000 		.4byte	0x500
 4958 04e7 12       		.uleb128 0x12
 4959 04e8 D7620000 		.4byte	.LASF1237
 4960 04ec 00       		.byte	0
 4961 04ed 12       		.uleb128 0x12
 4962 04ee 09630000 		.4byte	.LASF1238
 4963 04f2 01       		.byte	0x1
 4964 04f3 12       		.uleb128 0x12
 4965 04f4 28630000 		.4byte	.LASF1239
 4966 04f8 02       		.byte	0x2
 4967 04f9 12       		.uleb128 0x12
 4968 04fa 39290000 		.4byte	.LASF1240
 4969 04fe 03       		.byte	0x3
 4970 04ff 00       		.byte	0
 4971 0500 03       		.uleb128 0x3
 4972 0501 FE650000 		.4byte	.LASF1241
 4973 0505 06       		.byte	0x6
 4974 0506 E9       		.byte	0xe9
 4975 0507 DB040000 		.4byte	0x4db
 4976 050b 11       		.uleb128 0x11
 4977 050c 01       		.byte	0x1
 4978 050d 3B000000 		.4byte	0x3b
 4979 0511 06       		.byte	0x6
 4980 0512 F2       		.byte	0xf2
 4981 0513 24050000 		.4byte	0x524
 4982 0517 12       		.uleb128 0x12
 4983 0518 FA980000 		.4byte	.LASF1242
 4984 051c 00       		.byte	0
 4985 051d 12       		.uleb128 0x12
 4986 051e 09990000 		.4byte	.LASF1243
 4987 0522 01       		.byte	0x1
 4988 0523 00       		.byte	0
 4989 0524 03       		.uleb128 0x3
 4990 0525 A2940000 		.4byte	.LASF1244
 4991 0529 06       		.byte	0x6
 4992 052a F5       		.byte	0xf5
 4993 052b 0B050000 		.4byte	0x50b
 4994 052f 11       		.uleb128 0x11
 4995 0530 01       		.byte	0x1
 4996 0531 3B000000 		.4byte	0x3b
 4997 0535 06       		.byte	0x6
 4998 0536 FD       		.byte	0xfd
 4999 0537 5A050000 		.4byte	0x55a
 5000 053b 12       		.uleb128 0x12
 5001 053c 7A760000 		.4byte	.LASF1245
 5002 0540 00       		.byte	0
 5003 0541 12       		.uleb128 0x12
 5004 0542 E7530000 		.4byte	.LASF1246
 5005 0546 01       		.byte	0x1
 5006 0547 12       		.uleb128 0x12
 5007 0548 412E0000 		.4byte	.LASF1247
 5008 054c 02       		.byte	0x2
ARM GAS  C:\Users\STUDENT\AppData\Local\Temp\ccMxouBa.s 			page 117


 5009 054d 12       		.uleb128 0x12
 5010 054e EBA30000 		.4byte	.LASF1248
 5011 0552 03       		.byte	0x3
 5012 0553 12       		.uleb128 0x12
 5013 0554 DAA30000 		.4byte	.LASF1249
 5014 0558 04       		.byte	0x4
 5015 0559 00       		.byte	0
 5016 055a 10       		.uleb128 0x10
 5017 055b 9A380000 		.4byte	.LASF1250
 5018 055f 06       		.byte	0x6
 5019 0560 0301     		.2byte	0x103
 5020 0562 2F050000 		.4byte	0x52f
 5021 0566 14       		.uleb128 0x14
 5022 0567 01       		.byte	0x1
 5023 0568 3B000000 		.4byte	0x3b
 5024 056c 06       		.byte	0x6
 5025 056d 0D01     		.2byte	0x10d
 5026 056f 8C050000 		.4byte	0x58c
 5027 0573 12       		.uleb128 0x12
 5028 0574 519E0000 		.4byte	.LASF1251
 5029 0578 00       		.byte	0
 5030 0579 12       		.uleb128 0x12
 5031 057a 639E0000 		.4byte	.LASF1252
 5032 057e 01       		.byte	0x1
 5033 057f 12       		.uleb128 0x12
 5034 0580 759E0000 		.4byte	.LASF1253
 5035 0584 02       		.byte	0x2
 5036 0585 12       		.uleb128 0x12
 5037 0586 879E0000 		.4byte	.LASF1254
 5038 058a 03       		.byte	0x3
 5039 058b 00       		.byte	0
 5040 058c 10       		.uleb128 0x10
 5041 058d 630C0000 		.4byte	.LASF1255
 5042 0591 06       		.byte	0x6
 5043 0592 1201     		.2byte	0x112
 5044 0594 66050000 		.4byte	0x566
 5045 0598 14       		.uleb128 0x14
 5046 0599 01       		.byte	0x1
 5047 059a 3B000000 		.4byte	0x3b
 5048 059e 06       		.byte	0x6
 5049 059f 1C01     		.2byte	0x11c
 5050 05a1 D0050000 		.4byte	0x5d0
 5051 05a5 12       		.uleb128 0x12
 5052 05a6 53AA0000 		.4byte	.LASF1256
 5053 05aa 00       		.byte	0
 5054 05ab 12       		.uleb128 0x12
 5055 05ac C7910000 		.4byte	.LASF1257
 5056 05b0 01       		.byte	0x1
 5057 05b1 12       		.uleb128 0x12
 5058 05b2 743B0000 		.4byte	.LASF1258
 5059 05b6 02       		.byte	0x2
 5060 05b7 12       		.uleb128 0x12
 5061 05b8 18630000 		.4byte	.LASF1259
 5062 05bc 03       		.byte	0x3
 5063 05bd 12       		.uleb128 0x12
 5064 05be B4370000 		.4byte	.LASF1260
 5065 05c2 04       		.byte	0x4
ARM GAS  C:\Users\STUDENT\AppData\Local\Temp\ccMxouBa.s 			page 118


 5066 05c3 12       		.uleb128 0x12
 5067 05c4 076A0000 		.4byte	.LASF1261
 5068 05c8 05       		.byte	0x5
 5069 05c9 12       		.uleb128 0x12
 5070 05ca 78120000 		.4byte	.LASF1262
 5071 05ce 06       		.byte	0x6
 5072 05cf 00       		.byte	0
 5073 05d0 10       		.uleb128 0x10
 5074 05d1 A33C0000 		.4byte	.LASF1263
 5075 05d5 06       		.byte	0x6
 5076 05d6 2401     		.2byte	0x124
 5077 05d8 98050000 		.4byte	0x598
 5078 05dc 14       		.uleb128 0x14
 5079 05dd 01       		.byte	0x1
 5080 05de 3B000000 		.4byte	0x3b
 5081 05e2 06       		.byte	0x6
 5082 05e3 4101     		.2byte	0x141
 5083 05e5 F6050000 		.4byte	0x5f6
 5084 05e9 12       		.uleb128 0x12
 5085 05ea 50120000 		.4byte	.LASF1264
 5086 05ee 00       		.byte	0
 5087 05ef 12       		.uleb128 0x12
 5088 05f0 64120000 		.4byte	.LASF1265
 5089 05f4 01       		.byte	0x1
 5090 05f5 00       		.byte	0
 5091 05f6 10       		.uleb128 0x10
 5092 05f7 A04B0000 		.4byte	.LASF1266
 5093 05fb 06       		.byte	0x6
 5094 05fc 4401     		.2byte	0x144
 5095 05fe DC050000 		.4byte	0x5dc
 5096 0602 0A       		.uleb128 0xa
 5097 0603 02       		.byte	0x2
 5098 0604 06       		.byte	0x6
 5099 0605 4C01     		.2byte	0x14c
 5100 0607 26060000 		.4byte	0x626
 5101 060b 0D       		.uleb128 0xd
 5102 060c AB5E0000 		.4byte	.LASF1267
 5103 0610 06       		.byte	0x6
 5104 0611 4D01     		.2byte	0x14d
 5105 0613 F6050000 		.4byte	0x5f6
 5106 0617 00       		.byte	0
 5107 0618 0D       		.uleb128 0xd
 5108 0619 3B6A0000 		.4byte	.LASF1268
 5109 061d 06       		.byte	0x6
 5110 061e 4E01     		.2byte	0x14e
 5111 0620 81040000 		.4byte	0x481
 5112 0624 01       		.byte	0x1
 5113 0625 00       		.byte	0
 5114 0626 10       		.uleb128 0x10
 5115 0627 3D900000 		.4byte	.LASF1269
 5116 062b 06       		.byte	0x6
 5117 062c 4F01     		.2byte	0x14f
 5118 062e 02060000 		.4byte	0x602
 5119 0632 14       		.uleb128 0x14
 5120 0633 01       		.byte	0x1
 5121 0634 3B000000 		.4byte	0x3b
 5122 0638 06       		.byte	0x6
ARM GAS  C:\Users\STUDENT\AppData\Local\Temp\ccMxouBa.s 			page 119


 5123 0639 6001     		.2byte	0x160
 5124 063b 70060000 		.4byte	0x670
 5125 063f 12       		.uleb128 0x12
 5126 0640 53850000 		.4byte	.LASF1270
 5127 0644 00       		.byte	0
 5128 0645 12       		.uleb128 0x12
 5129 0646 7B850000 		.4byte	.LASF1271
 5130 064a 01       		.byte	0x1
 5131 064b 12       		.uleb128 0x12
 5132 064c FC850000 		.4byte	.LASF1272
 5133 0650 02       		.byte	0x2
 5134 0651 12       		.uleb128 0x12
 5135 0652 59720000 		.4byte	.LASF1273
 5136 0656 03       		.byte	0x3
 5137 0657 12       		.uleb128 0x12
 5138 0658 3B7F0000 		.4byte	.LASF1274
 5139 065c 04       		.byte	0x4
 5140 065d 12       		.uleb128 0x12
 5141 065e 898F0000 		.4byte	.LASF1275
 5142 0662 05       		.byte	0x5
 5143 0663 12       		.uleb128 0x12
 5144 0664 EE9E0000 		.4byte	.LASF1276
 5145 0668 06       		.byte	0x6
 5146 0669 12       		.uleb128 0x12
 5147 066a 2C8F0000 		.4byte	.LASF1277
 5148 066e 07       		.byte	0x7
 5149 066f 00       		.byte	0
 5150 0670 10       		.uleb128 0x10
 5151 0671 5B200000 		.4byte	.LASF1278
 5152 0675 06       		.byte	0x6
 5153 0676 7101     		.2byte	0x171
 5154 0678 32060000 		.4byte	0x632
 5155 067c 14       		.uleb128 0x14
 5156 067d 01       		.byte	0x1
 5157 067e 3B000000 		.4byte	0x3b
 5158 0682 06       		.byte	0x6
 5159 0683 7D01     		.2byte	0x17d
 5160 0685 96060000 		.4byte	0x696
 5161 0689 12       		.uleb128 0x12
 5162 068a 8E390000 		.4byte	.LASF1279
 5163 068e 00       		.byte	0
 5164 068f 12       		.uleb128 0x12
 5165 0690 DF870000 		.4byte	.LASF1280
 5166 0694 01       		.byte	0x1
 5167 0695 00       		.byte	0
 5168 0696 10       		.uleb128 0x10
 5169 0697 592F0000 		.4byte	.LASF1281
 5170 069b 06       		.byte	0x6
 5171 069c 8001     		.2byte	0x180
 5172 069e 7C060000 		.4byte	0x67c
 5173 06a2 14       		.uleb128 0x14
 5174 06a3 01       		.byte	0x1
 5175 06a4 3B000000 		.4byte	0x3b
 5176 06a8 06       		.byte	0x6
 5177 06a9 9601     		.2byte	0x196
 5178 06ab BC060000 		.4byte	0x6bc
 5179 06af 12       		.uleb128 0x12
ARM GAS  C:\Users\STUDENT\AppData\Local\Temp\ccMxouBa.s 			page 120


 5180 06b0 3C9C0000 		.4byte	.LASF1282
 5181 06b4 00       		.byte	0
 5182 06b5 12       		.uleb128 0x12
 5183 06b6 12800000 		.4byte	.LASF1283
 5184 06ba 01       		.byte	0x1
 5185 06bb 00       		.byte	0
 5186 06bc 10       		.uleb128 0x10
 5187 06bd CC780000 		.4byte	.LASF1284
 5188 06c1 06       		.byte	0x6
 5189 06c2 9901     		.2byte	0x199
 5190 06c4 A2060000 		.4byte	0x6a2
 5191 06c8 14       		.uleb128 0x14
 5192 06c9 01       		.byte	0x1
 5193 06ca 3B000000 		.4byte	0x3b
 5194 06ce 06       		.byte	0x6
 5195 06cf A201     		.2byte	0x1a2
 5196 06d1 E8060000 		.4byte	0x6e8
 5197 06d5 12       		.uleb128 0x12
 5198 06d6 89120000 		.4byte	.LASF1285
 5199 06da 00       		.byte	0
 5200 06db 12       		.uleb128 0x12
 5201 06dc E2320000 		.4byte	.LASF1286
 5202 06e0 01       		.byte	0x1
 5203 06e1 12       		.uleb128 0x12
 5204 06e2 AA2D0000 		.4byte	.LASF1287
 5205 06e6 02       		.byte	0x2
 5206 06e7 00       		.byte	0
 5207 06e8 10       		.uleb128 0x10
 5208 06e9 E7790000 		.4byte	.LASF1288
 5209 06ed 06       		.byte	0x6
 5210 06ee A601     		.2byte	0x1a6
 5211 06f0 C8060000 		.4byte	0x6c8
 5212 06f4 14       		.uleb128 0x14
 5213 06f5 01       		.byte	0x1
 5214 06f6 3B000000 		.4byte	0x3b
 5215 06fa 06       		.byte	0x6
 5216 06fb B001     		.2byte	0x1b0
 5217 06fd 0E070000 		.4byte	0x70e
 5218 0701 12       		.uleb128 0x12
 5219 0702 E8510000 		.4byte	.LASF1289
 5220 0706 00       		.byte	0
 5221 0707 12       		.uleb128 0x12
 5222 0708 C66D0000 		.4byte	.LASF1290
 5223 070c 01       		.byte	0x1
 5224 070d 00       		.byte	0
 5225 070e 10       		.uleb128 0x10
 5226 070f D9000000 		.4byte	.LASF1291
 5227 0713 06       		.byte	0x6
 5228 0714 B301     		.2byte	0x1b3
 5229 0716 F4060000 		.4byte	0x6f4
 5230 071a 0A       		.uleb128 0xa
 5231 071b 08       		.byte	0x8
 5232 071c 06       		.byte	0x6
 5233 071d BC01     		.2byte	0x1bc
 5234 071f 58070000 		.4byte	0x758
 5235 0723 0D       		.uleb128 0xd
 5236 0724 4A920000 		.4byte	.LASF1292
ARM GAS  C:\Users\STUDENT\AppData\Local\Temp\ccMxouBa.s 			page 121


 5237 0728 06       		.byte	0x6
 5238 0729 BD01     		.2byte	0x1bd
 5239 072b A6000000 		.4byte	0xa6
 5240 072f 00       		.byte	0
 5241 0730 0D       		.uleb128 0xd
 5242 0731 EF680000 		.4byte	.LASF1293
 5243 0735 06       		.byte	0x6
 5244 0736 BE01     		.2byte	0x1be
 5245 0738 5A050000 		.4byte	0x55a
 5246 073c 04       		.byte	0x4
 5247 073d 0D       		.uleb128 0xd
 5248 073e D6950000 		.4byte	.LASF1294
 5249 0742 06       		.byte	0x6
 5250 0743 C501     		.2byte	0x1c5
 5251 0745 00050000 		.4byte	0x500
 5252 0749 05       		.byte	0x5
 5253 074a 0D       		.uleb128 0xd
 5254 074b 55330000 		.4byte	.LASF1295
 5255 074f 06       		.byte	0x6
 5256 0750 CB01     		.2byte	0x1cb
 5257 0752 24050000 		.4byte	0x524
 5258 0756 06       		.byte	0x6
 5259 0757 00       		.byte	0
 5260 0758 10       		.uleb128 0x10
 5261 0759 79580000 		.4byte	.LASF1296
 5262 075d 06       		.byte	0x6
 5263 075e CF01     		.2byte	0x1cf
 5264 0760 1A070000 		.4byte	0x71a
 5265 0764 0A       		.uleb128 0xa
 5266 0765 04       		.byte	0x4
 5267 0766 06       		.byte	0x6
 5268 0767 D501     		.2byte	0x1d5
 5269 0769 A2070000 		.4byte	0x7a2
 5270 076d 0D       		.uleb128 0xd
 5271 076e B73E0000 		.4byte	.LASF1297
 5272 0772 06       		.byte	0x6
 5273 0773 D601     		.2byte	0x1d6
 5274 0775 81040000 		.4byte	0x481
 5275 0779 00       		.byte	0
 5276 077a 0D       		.uleb128 0xd
 5277 077b 4B050000 		.4byte	.LASF1298
 5278 077f 06       		.byte	0x6
 5279 0780 DA01     		.2byte	0x1da
 5280 0782 81040000 		.4byte	0x481
 5281 0786 01       		.byte	0x1
 5282 0787 0D       		.uleb128 0xd
 5283 0788 875C0000 		.4byte	.LASF1299
 5284 078c 06       		.byte	0x6
 5285 078d DE01     		.2byte	0x1de
 5286 078f 81040000 		.4byte	0x481
 5287 0793 02       		.byte	0x2
 5288 0794 0D       		.uleb128 0xd
 5289 0795 5F8E0000 		.4byte	.LASF1300
 5290 0799 06       		.byte	0x6
 5291 079a E201     		.2byte	0x1e2
 5292 079c 8C050000 		.4byte	0x58c
 5293 07a0 03       		.byte	0x3
ARM GAS  C:\Users\STUDENT\AppData\Local\Temp\ccMxouBa.s 			page 122


 5294 07a1 00       		.byte	0
 5295 07a2 10       		.uleb128 0x10
 5296 07a3 BC5B0000 		.4byte	.LASF1301
 5297 07a7 06       		.byte	0x6
 5298 07a8 E801     		.2byte	0x1e8
 5299 07aa 64070000 		.4byte	0x764
 5300 07ae 0A       		.uleb128 0xa
 5301 07af 08       		.byte	0x8
 5302 07b0 06       		.byte	0x6
 5303 07b1 EE01     		.2byte	0x1ee
 5304 07b3 20080000 		.4byte	0x820
 5305 07b7 0D       		.uleb128 0xd
 5306 07b8 CB4C0000 		.4byte	.LASF1302
 5307 07bc 06       		.byte	0x6
 5308 07bd EF01     		.2byte	0x1ef
 5309 07bf 81040000 		.4byte	0x481
 5310 07c3 00       		.byte	0
 5311 07c4 0D       		.uleb128 0xd
 5312 07c5 CF3E0000 		.4byte	.LASF1303
 5313 07c9 06       		.byte	0x6
 5314 07ca F201     		.2byte	0x1f2
 5315 07cc 81040000 		.4byte	0x481
 5316 07d0 01       		.byte	0x1
 5317 07d1 0D       		.uleb128 0xd
 5318 07d2 0F970000 		.4byte	.LASF1304
 5319 07d6 06       		.byte	0x6
 5320 07d7 F501     		.2byte	0x1f5
 5321 07d9 81040000 		.4byte	0x481
 5322 07dd 02       		.byte	0x2
 5323 07de 0D       		.uleb128 0xd
 5324 07df 727B0000 		.4byte	.LASF1305
 5325 07e3 06       		.byte	0x6
 5326 07e4 F801     		.2byte	0x1f8
 5327 07e6 81040000 		.4byte	0x481
 5328 07ea 03       		.byte	0x3
 5329 07eb 0D       		.uleb128 0xd
 5330 07ec 5E670000 		.4byte	.LASF1306
 5331 07f0 06       		.byte	0x6
 5332 07f1 FB01     		.2byte	0x1fb
 5333 07f3 0E070000 		.4byte	0x70e
 5334 07f7 04       		.byte	0x4
 5335 07f8 0D       		.uleb128 0xd
 5336 07f9 07490000 		.4byte	.LASF1307
 5337 07fd 06       		.byte	0x6
 5338 07fe 0002     		.2byte	0x200
 5339 0800 5D040000 		.4byte	0x45d
 5340 0804 05       		.byte	0x5
 5341 0805 0D       		.uleb128 0xd
 5342 0806 95490000 		.4byte	.LASF1308
 5343 080a 06       		.byte	0x6
 5344 080b 0602     		.2byte	0x206
 5345 080d 90000000 		.4byte	0x90
 5346 0811 06       		.byte	0x6
 5347 0812 0D       		.uleb128 0xd
 5348 0813 219E0000 		.4byte	.LASF1309
 5349 0817 06       		.byte	0x6
 5350 0818 0702     		.2byte	0x207
ARM GAS  C:\Users\STUDENT\AppData\Local\Temp\ccMxouBa.s 			page 123


 5351 081a 90000000 		.4byte	0x90
 5352 081e 07       		.byte	0x7
 5353 081f 00       		.byte	0
 5354 0820 10       		.uleb128 0x10
 5355 0821 FE5E0000 		.4byte	.LASF1310
 5356 0825 06       		.byte	0x6
 5357 0826 0802     		.2byte	0x208
 5358 0828 AE070000 		.4byte	0x7ae
 5359 082c 10       		.uleb128 0x10
 5360 082d C07F0000 		.4byte	.LASF1311
 5361 0831 06       		.byte	0x6
 5362 0832 0D02     		.2byte	0x20d
 5363 0834 38080000 		.4byte	0x838
 5364 0838 15       		.uleb128 0x15
 5365 0839 10       		.uleb128 0x10
 5366 083a 12090000 		.4byte	.LASF1312
 5367 083e 06       		.byte	0x6
 5368 083f 0F02     		.2byte	0x20f
 5369 0841 38080000 		.4byte	0x838
 5370 0845 10       		.uleb128 0x10
 5371 0846 DB510000 		.4byte	.LASF1313
 5372 084a 06       		.byte	0x6
 5373 084b 1102     		.2byte	0x211
 5374 084d 51080000 		.4byte	0x851
 5375 0851 16       		.uleb128 0x16
 5376 0852 5C080000 		.4byte	0x85c
 5377 0856 17       		.uleb128 0x17
 5378 0857 A6000000 		.4byte	0xa6
 5379 085b 00       		.byte	0
 5380 085c 10       		.uleb128 0x10
 5381 085d 015E0000 		.4byte	.LASF1314
 5382 0861 06       		.byte	0x6
 5383 0862 1302     		.2byte	0x213
 5384 0864 68080000 		.4byte	0x868
 5385 0868 16       		.uleb128 0x16
 5386 0869 73080000 		.4byte	0x873
 5387 086d 17       		.uleb128 0x17
 5388 086e 90000000 		.4byte	0x90
 5389 0872 00       		.byte	0
 5390 0873 10       		.uleb128 0x10
 5391 0874 48830000 		.4byte	.LASF1315
 5392 0878 06       		.byte	0x6
 5393 0879 1502     		.2byte	0x215
 5394 087b 68080000 		.4byte	0x868
 5395 087f 18       		.uleb128 0x18
 5396 0880 10       		.byte	0x10
 5397 0881 01       		.byte	0x1
 5398 0882 32       		.byte	0x32
 5399 0883 B8080000 		.4byte	0x8b8
 5400 0887 19       		.uleb128 0x19
 5401 0888 D4670000 		.4byte	.LASF1316
 5402 088c 01       		.byte	0x1
 5403 088d 33       		.byte	0x33
 5404 088e B8080000 		.4byte	0x8b8
 5405 0892 00       		.byte	0
 5406 0893 19       		.uleb128 0x19
 5407 0894 D29A0000 		.4byte	.LASF1317
ARM GAS  C:\Users\STUDENT\AppData\Local\Temp\ccMxouBa.s 			page 124


 5408 0898 01       		.byte	0x1
 5409 0899 34       		.byte	0x34
 5410 089a BE080000 		.4byte	0x8be
 5411 089e 04       		.byte	0x4
 5412 089f 19       		.uleb128 0x19
 5413 08a0 EA180000 		.4byte	.LASF1318
 5414 08a4 01       		.byte	0x1
 5415 08a5 35       		.byte	0x35
 5416 08a6 C4080000 		.4byte	0x8c4
 5417 08aa 08       		.byte	0x8
 5418 08ab 19       		.uleb128 0x19
 5419 08ac 7EA20000 		.4byte	.LASF1319
 5420 08b0 01       		.byte	0x1
 5421 08b1 36       		.byte	0x36
 5422 08b2 CA080000 		.4byte	0x8ca
 5423 08b6 0C       		.byte	0xc
 5424 08b7 00       		.byte	0
 5425 08b8 1A       		.uleb128 0x1a
 5426 08b9 04       		.byte	0x4
 5427 08ba 39080000 		.4byte	0x839
 5428 08be 1A       		.uleb128 0x1a
 5429 08bf 04       		.byte	0x4
 5430 08c0 2C080000 		.4byte	0x82c
 5431 08c4 1A       		.uleb128 0x1a
 5432 08c5 04       		.byte	0x4
 5433 08c6 45080000 		.4byte	0x845
 5434 08ca 1A       		.uleb128 0x1a
 5435 08cb 04       		.byte	0x4
 5436 08cc 5C080000 		.4byte	0x85c
 5437 08d0 03       		.uleb128 0x3
 5438 08d1 A1700000 		.4byte	.LASF1320
 5439 08d5 01       		.byte	0x1
 5440 08d6 37       		.byte	0x37
 5441 08d7 7F080000 		.4byte	0x87f
 5442 08db 1B       		.uleb128 0x1b
 5443 08dc 9A370000 		.4byte	.LASF1321
 5444 08e0 01       		.byte	0x1
 5445 08e1 5E       		.byte	0x5e
 5446 08e2 90000000 		.4byte	0x90
 5447 08e6 00000000 		.4byte	.LFB55
 5448 08ea 44000000 		.4byte	.LFE55-.LFB55
 5449 08ee 01       		.uleb128 0x1
 5450 08ef 9C       		.byte	0x9c
 5451 08f0 03090000 		.4byte	0x903
 5452 08f4 1C       		.uleb128 0x1c
 5453 08f5 54660000 		.4byte	.LASF1323
 5454 08f9 01       		.byte	0x1
 5455 08fa 5E       		.byte	0x5e
 5456 08fb 03090000 		.4byte	0x903
 5457 08ff 02       		.uleb128 0x2
 5458 0900 91       		.byte	0x91
 5459 0901 74       		.sleb128 -12
 5460 0902 00       		.byte	0
 5461 0903 1A       		.uleb128 0x1a
 5462 0904 04       		.byte	0x4
 5463 0905 4C020000 		.4byte	0x24c
 5464 0909 1D       		.uleb128 0x1d
ARM GAS  C:\Users\STUDENT\AppData\Local\Temp\ccMxouBa.s 			page 125


 5465 090a 74510000 		.4byte	.LASF1322
 5466 090e 01       		.byte	0x1
 5467 090f 6D       		.byte	0x6d
 5468 0910 A5040000 		.4byte	0x4a5
 5469 0914 00000000 		.4byte	.LFB56
 5470 0918 18020000 		.4byte	.LFE56-.LFB56
 5471 091c 01       		.uleb128 0x1
 5472 091d 9C       		.byte	0x9c
 5473 091e E7090000 		.4byte	0x9e7
 5474 0922 1C       		.uleb128 0x1c
 5475 0923 54660000 		.4byte	.LASF1323
 5476 0927 01       		.byte	0x1
 5477 0928 6D       		.byte	0x6d
 5478 0929 03090000 		.4byte	0x903
 5479 092d 02       		.uleb128 0x2
 5480 092e 91       		.byte	0x91
 5481 092f 44       		.sleb128 -60
 5482 0930 1C       		.uleb128 0x1c
 5483 0931 A8950000 		.4byte	.LASF1324
 5484 0935 01       		.byte	0x1
 5485 0936 6D       		.byte	0x6d
 5486 0937 A6000000 		.4byte	0xa6
 5487 093b 02       		.uleb128 0x2
 5488 093c 91       		.byte	0x91
 5489 093d 40       		.sleb128 -64
 5490 093e 1E       		.uleb128 0x1e
 5491 093f 755A0000 		.4byte	.LASF1325
 5492 0943 01       		.byte	0x1
 5493 0944 6F       		.byte	0x6f
 5494 0945 A5040000 		.4byte	0x4a5
 5495 0949 02       		.uleb128 0x2
 5496 094a 91       		.byte	0x91
 5497 094b 77       		.sleb128 -9
 5498 094c 1E       		.uleb128 0x1e
 5499 094d 4A670000 		.4byte	.LASF1326
 5500 0951 01       		.byte	0x1
 5501 0952 71       		.byte	0x71
 5502 0953 A6000000 		.4byte	0xa6
 5503 0957 02       		.uleb128 0x2
 5504 0958 91       		.byte	0x91
 5505 0959 70       		.sleb128 -16
 5506 095a 1E       		.uleb128 0x1e
 5507 095b 86400000 		.4byte	.LASF1327
 5508 095f 01       		.byte	0x1
 5509 0960 72       		.byte	0x72
 5510 0961 A6000000 		.4byte	0xa6
 5511 0965 02       		.uleb128 0x2
 5512 0966 91       		.byte	0x91
 5513 0967 4C       		.sleb128 -52
 5514 0968 1E       		.uleb128 0x1e
 5515 0969 45A50000 		.4byte	.LASF1328
 5516 096d 01       		.byte	0x1
 5517 096e 73       		.byte	0x73
 5518 096f A6000000 		.4byte	0xa6
 5519 0973 02       		.uleb128 0x2
 5520 0974 91       		.byte	0x91
 5521 0975 48       		.sleb128 -56
ARM GAS  C:\Users\STUDENT\AppData\Local\Temp\ccMxouBa.s 			page 126


 5522 0976 1E       		.uleb128 0x1e
 5523 0977 9E000000 		.4byte	.LASF1329
 5524 097b 01       		.byte	0x1
 5525 097c 75       		.byte	0x75
 5526 097d A6000000 		.4byte	0xa6
 5527 0981 02       		.uleb128 0x2
 5528 0982 91       		.byte	0x91
 5529 0983 6C       		.sleb128 -20
 5530 0984 1E       		.uleb128 0x1e
 5531 0985 61110000 		.4byte	.LASF1330
 5532 0989 01       		.byte	0x1
 5533 098a 75       		.byte	0x75
 5534 098b A6000000 		.4byte	0xa6
 5535 098f 02       		.uleb128 0x2
 5536 0990 91       		.byte	0x91
 5537 0991 68       		.sleb128 -24
 5538 0992 1E       		.uleb128 0x1e
 5539 0993 BE3B0000 		.4byte	.LASF1331
 5540 0997 01       		.byte	0x1
 5541 0998 76       		.byte	0x76
 5542 0999 A6000000 		.4byte	0xa6
 5543 099d 02       		.uleb128 0x2
 5544 099e 91       		.byte	0x91
 5545 099f 64       		.sleb128 -28
 5546 09a0 1E       		.uleb128 0x1e
 5547 09a1 95170000 		.4byte	.LASF1332
 5548 09a5 01       		.byte	0x1
 5549 09a6 77       		.byte	0x77
 5550 09a7 A6000000 		.4byte	0xa6
 5551 09ab 02       		.uleb128 0x2
 5552 09ac 91       		.byte	0x91
 5553 09ad 60       		.sleb128 -32
 5554 09ae 1E       		.uleb128 0x1e
 5555 09af 07470000 		.4byte	.LASF1333
 5556 09b3 01       		.byte	0x1
 5557 09b4 78       		.byte	0x78
 5558 09b5 A6000000 		.4byte	0xa6
 5559 09b9 02       		.uleb128 0x2
 5560 09ba 91       		.byte	0x91
 5561 09bb 5C       		.sleb128 -36
 5562 09bc 1E       		.uleb128 0x1e
 5563 09bd A81B0000 		.4byte	.LASF1334
 5564 09c1 01       		.byte	0x1
 5565 09c2 79       		.byte	0x79
 5566 09c3 A6000000 		.4byte	0xa6
 5567 09c7 02       		.uleb128 0x2
 5568 09c8 91       		.byte	0x91
 5569 09c9 58       		.sleb128 -40
 5570 09ca 1E       		.uleb128 0x1e
 5571 09cb E5190000 		.4byte	.LASF1335
 5572 09cf 01       		.byte	0x1
 5573 09d0 7B       		.byte	0x7b
 5574 09d1 A6000000 		.4byte	0xa6
 5575 09d5 02       		.uleb128 0x2
 5576 09d6 91       		.byte	0x91
 5577 09d7 54       		.sleb128 -44
 5578 09d8 1E       		.uleb128 0x1e
ARM GAS  C:\Users\STUDENT\AppData\Local\Temp\ccMxouBa.s 			page 127


 5579 09d9 45730000 		.4byte	.LASF1336
 5580 09dd 01       		.byte	0x1
 5581 09de 7C       		.byte	0x7c
 5582 09df A6000000 		.4byte	0xa6
 5583 09e3 02       		.uleb128 0x2
 5584 09e4 91       		.byte	0x91
 5585 09e5 50       		.sleb128 -48
 5586 09e6 00       		.byte	0
 5587 09e7 1F       		.uleb128 0x1f
 5588 09e8 5A730000 		.4byte	.LASF1341
 5589 09ec 01       		.byte	0x1
 5590 09ed EB       		.byte	0xeb
 5591 09ee 00000000 		.4byte	.LFB57
 5592 09f2 74010000 		.4byte	.LFE57-.LFB57
 5593 09f6 01       		.uleb128 0x1
 5594 09f7 9C       		.byte	0x9c
 5595 09f8 510A0000 		.4byte	0xa51
 5596 09fc 1C       		.uleb128 0x1c
 5597 09fd 54660000 		.4byte	.LASF1323
 5598 0a01 01       		.byte	0x1
 5599 0a02 EB       		.byte	0xeb
 5600 0a03 03090000 		.4byte	0x903
 5601 0a07 02       		.uleb128 0x2
 5602 0a08 91       		.byte	0x91
 5603 0a09 5C       		.sleb128 -36
 5604 0a0a 1E       		.uleb128 0x1e
 5605 0a0b 78590000 		.4byte	.LASF1337
 5606 0a0f 01       		.byte	0x1
 5607 0a10 ED       		.byte	0xed
 5608 0a11 90000000 		.4byte	0x90
 5609 0a15 02       		.uleb128 0x2
 5610 0a16 91       		.byte	0x91
 5611 0a17 77       		.sleb128 -9
 5612 0a18 1E       		.uleb128 0x1e
 5613 0a19 880E0000 		.4byte	.LASF1338
 5614 0a1d 01       		.byte	0x1
 5615 0a1e ED       		.byte	0xed
 5616 0a1f 90000000 		.4byte	0x90
 5617 0a23 02       		.uleb128 0x2
 5618 0a24 91       		.byte	0x91
 5619 0a25 6B       		.sleb128 -21
 5620 0a26 1E       		.uleb128 0x1e
 5621 0a27 725B0000 		.4byte	.LASF1339
 5622 0a2b 01       		.byte	0x1
 5623 0a2c EE       		.byte	0xee
 5624 0a2d A6000000 		.4byte	0xa6
 5625 0a31 02       		.uleb128 0x2
 5626 0a32 91       		.byte	0x91
 5627 0a33 70       		.sleb128 -16
 5628 0a34 20       		.uleb128 0x20
 5629 0a35 746D7000 		.ascii	"tmp\000"
 5630 0a39 01       		.byte	0x1
 5631 0a3a EE       		.byte	0xee
 5632 0a3b A6000000 		.4byte	0xa6
 5633 0a3f 02       		.uleb128 0x2
 5634 0a40 91       		.byte	0x91
 5635 0a41 6C       		.sleb128 -20
ARM GAS  C:\Users\STUDENT\AppData\Local\Temp\ccMxouBa.s 			page 128


 5636 0a42 1E       		.uleb128 0x1e
 5637 0a43 48700000 		.4byte	.LASF1340
 5638 0a47 01       		.byte	0x1
 5639 0a48 EE       		.byte	0xee
 5640 0a49 A6000000 		.4byte	0xa6
 5641 0a4d 02       		.uleb128 0x2
 5642 0a4e 91       		.byte	0x91
 5643 0a4f 64       		.sleb128 -28
 5644 0a50 00       		.byte	0
 5645 0a51 21       		.uleb128 0x21
 5646 0a52 D73C0000 		.4byte	.LASF1342
 5647 0a56 01       		.byte	0x1
 5648 0a57 5701     		.2byte	0x157
 5649 0a59 00000000 		.4byte	.LFB58
 5650 0a5d 9C000000 		.4byte	.LFE58-.LFB58
 5651 0a61 01       		.uleb128 0x1
 5652 0a62 9C       		.byte	0x9c
 5653 0a63 770A0000 		.4byte	0xa77
 5654 0a67 22       		.uleb128 0x22
 5655 0a68 54660000 		.4byte	.LASF1323
 5656 0a6c 01       		.byte	0x1
 5657 0a6d 5701     		.2byte	0x157
 5658 0a6f 03090000 		.4byte	0x903
 5659 0a73 02       		.uleb128 0x2
 5660 0a74 91       		.byte	0x91
 5661 0a75 74       		.sleb128 -12
 5662 0a76 00       		.byte	0
 5663 0a77 21       		.uleb128 0x21
 5664 0a78 070F0000 		.4byte	.LASF1343
 5665 0a7c 01       		.byte	0x1
 5666 0a7d 8901     		.2byte	0x189
 5667 0a7f 00000000 		.4byte	.LFB59
 5668 0a83 EC020000 		.4byte	.LFE59-.LFB59
 5669 0a87 01       		.uleb128 0x1
 5670 0a88 9C       		.byte	0x9c
 5671 0a89 BB0A0000 		.4byte	0xabb
 5672 0a8d 22       		.uleb128 0x22
 5673 0a8e 54660000 		.4byte	.LASF1323
 5674 0a92 01       		.byte	0x1
 5675 0a93 8901     		.2byte	0x189
 5676 0a95 03090000 		.4byte	0x903
 5677 0a99 02       		.uleb128 0x2
 5678 0a9a 91       		.byte	0x91
 5679 0a9b 6C       		.sleb128 -20
 5680 0a9c 22       		.uleb128 0x22
 5681 0a9d C09A0000 		.4byte	.LASF1344
 5682 0aa1 01       		.byte	0x1
 5683 0aa2 8901     		.2byte	0x189
 5684 0aa4 BB0A0000 		.4byte	0xabb
 5685 0aa8 02       		.uleb128 0x2
 5686 0aa9 91       		.byte	0x91
 5687 0aaa 68       		.sleb128 -24
 5688 0aab 23       		.uleb128 0x23
 5689 0aac 746D7000 		.ascii	"tmp\000"
 5690 0ab0 01       		.byte	0x1
 5691 0ab1 8B01     		.2byte	0x18b
 5692 0ab3 A6000000 		.4byte	0xa6
ARM GAS  C:\Users\STUDENT\AppData\Local\Temp\ccMxouBa.s 			page 129


 5693 0ab7 02       		.uleb128 0x2
 5694 0ab8 91       		.byte	0x91
 5695 0ab9 74       		.sleb128 -12
 5696 0aba 00       		.byte	0
 5697 0abb 1A       		.uleb128 0x1a
 5698 0abc 04       		.byte	0x4
 5699 0abd 58070000 		.4byte	0x758
 5700 0ac1 24       		.uleb128 0x24
 5701 0ac2 13010000 		.4byte	.LASF1345
 5702 0ac6 01       		.byte	0x1
 5703 0ac7 5802     		.2byte	0x258
 5704 0ac9 00000000 		.4byte	.LFB60
 5705 0acd 2C000000 		.4byte	.LFE60-.LFB60
 5706 0ad1 01       		.uleb128 0x1
 5707 0ad2 9C       		.byte	0x9c
 5708 0ad3 E70A0000 		.4byte	0xae7
 5709 0ad7 22       		.uleb128 0x22
 5710 0ad8 BE660000 		.4byte	.LASF1346
 5711 0adc 01       		.byte	0x1
 5712 0add 5802     		.2byte	0x258
 5713 0adf BB0A0000 		.4byte	0xabb
 5714 0ae3 02       		.uleb128 0x2
 5715 0ae4 91       		.byte	0x91
 5716 0ae5 74       		.sleb128 -12
 5717 0ae6 00       		.byte	0
 5718 0ae7 21       		.uleb128 0x21
 5719 0ae8 C5920000 		.4byte	.LASF1347
 5720 0aec 01       		.byte	0x1
 5721 0aed 6802     		.2byte	0x268
 5722 0aef 00000000 		.4byte	.LFB61
 5723 0af3 68000000 		.4byte	.LFE61-.LFB61
 5724 0af7 01       		.uleb128 0x1
 5725 0af8 9C       		.byte	0x9c
 5726 0af9 1C0B0000 		.4byte	0xb1c
 5727 0afd 22       		.uleb128 0x22
 5728 0afe 54660000 		.4byte	.LASF1323
 5729 0b02 01       		.byte	0x1
 5730 0b03 6802     		.2byte	0x268
 5731 0b05 03090000 		.4byte	0x903
 5732 0b09 02       		.uleb128 0x2
 5733 0b0a 91       		.byte	0x91
 5734 0b0b 74       		.sleb128 -12
 5735 0b0c 22       		.uleb128 0x22
 5736 0b0d 5A8E0000 		.4byte	.LASF1348
 5737 0b11 01       		.byte	0x1
 5738 0b12 6802     		.2byte	0x268
 5739 0b14 90000000 		.4byte	0x90
 5740 0b18 02       		.uleb128 0x2
 5741 0b19 91       		.byte	0x91
 5742 0b1a 73       		.sleb128 -13
 5743 0b1b 00       		.byte	0
 5744 0b1c 25       		.uleb128 0x25
 5745 0b1d 52700000 		.4byte	.LASF1349
 5746 0b21 01       		.byte	0x1
 5747 0b22 7E02     		.2byte	0x27e
 5748 0b24 90000000 		.4byte	0x90
 5749 0b28 00000000 		.4byte	.LFB62
ARM GAS  C:\Users\STUDENT\AppData\Local\Temp\ccMxouBa.s 			page 130


 5750 0b2c 64000000 		.4byte	.LFE62-.LFB62
 5751 0b30 01       		.uleb128 0x1
 5752 0b31 9C       		.byte	0x9c
 5753 0b32 460B0000 		.4byte	0xb46
 5754 0b36 22       		.uleb128 0x22
 5755 0b37 54660000 		.4byte	.LASF1323
 5756 0b3b 01       		.byte	0x1
 5757 0b3c 7E02     		.2byte	0x27e
 5758 0b3e 03090000 		.4byte	0x903
 5759 0b42 02       		.uleb128 0x2
 5760 0b43 91       		.byte	0x91
 5761 0b44 74       		.sleb128 -12
 5762 0b45 00       		.byte	0
 5763 0b46 21       		.uleb128 0x21
 5764 0b47 E0780000 		.4byte	.LASF1350
 5765 0b4b 01       		.byte	0x1
 5766 0b4c 9402     		.2byte	0x294
 5767 0b4e 00000000 		.4byte	.LFB63
 5768 0b52 78000000 		.4byte	.LFE63-.LFB63
 5769 0b56 01       		.uleb128 0x1
 5770 0b57 9C       		.byte	0x9c
 5771 0b58 6C0B0000 		.4byte	0xb6c
 5772 0b5c 22       		.uleb128 0x22
 5773 0b5d 54660000 		.4byte	.LASF1323
 5774 0b61 01       		.byte	0x1
 5775 0b62 9402     		.2byte	0x294
 5776 0b64 03090000 		.4byte	0x903
 5777 0b68 02       		.uleb128 0x2
 5778 0b69 91       		.byte	0x91
 5779 0b6a 74       		.sleb128 -12
 5780 0b6b 00       		.byte	0
 5781 0b6c 21       		.uleb128 0x21
 5782 0b6d 738F0000 		.4byte	.LASF1351
 5783 0b71 01       		.byte	0x1
 5784 0b72 AE02     		.2byte	0x2ae
 5785 0b74 00000000 		.4byte	.LFB64
 5786 0b78 7C000000 		.4byte	.LFE64-.LFB64
 5787 0b7c 01       		.uleb128 0x1
 5788 0b7d 9C       		.byte	0x9c
 5789 0b7e A10B0000 		.4byte	0xba1
 5790 0b82 22       		.uleb128 0x22
 5791 0b83 54660000 		.4byte	.LASF1323
 5792 0b87 01       		.byte	0x1
 5793 0b88 AE02     		.2byte	0x2ae
 5794 0b8a 03090000 		.4byte	0x903
 5795 0b8e 02       		.uleb128 0x2
 5796 0b8f 91       		.byte	0x91
 5797 0b90 74       		.sleb128 -12
 5798 0b91 22       		.uleb128 0x22
 5799 0b92 D0640000 		.4byte	.LASF1352
 5800 0b96 01       		.byte	0x1
 5801 0b97 AE02     		.2byte	0x2ae
 5802 0b99 81040000 		.4byte	0x481
 5803 0b9d 02       		.uleb128 0x2
 5804 0b9e 91       		.byte	0x91
 5805 0b9f 73       		.sleb128 -13
 5806 0ba0 00       		.byte	0
ARM GAS  C:\Users\STUDENT\AppData\Local\Temp\ccMxouBa.s 			page 131


 5807 0ba1 21       		.uleb128 0x21
 5808 0ba2 D8710000 		.4byte	.LASF1353
 5809 0ba6 01       		.byte	0x1
 5810 0ba7 C602     		.2byte	0x2c6
 5811 0ba9 00000000 		.4byte	.LFB65
 5812 0bad 74000000 		.4byte	.LFE65-.LFB65
 5813 0bb1 01       		.uleb128 0x1
 5814 0bb2 9C       		.byte	0x9c
 5815 0bb3 D60B0000 		.4byte	0xbd6
 5816 0bb7 22       		.uleb128 0x22
 5817 0bb8 54660000 		.4byte	.LASF1323
 5818 0bbc 01       		.byte	0x1
 5819 0bbd C602     		.2byte	0x2c6
 5820 0bbf 03090000 		.4byte	0x903
 5821 0bc3 02       		.uleb128 0x2
 5822 0bc4 91       		.byte	0x91
 5823 0bc5 74       		.sleb128 -12
 5824 0bc6 22       		.uleb128 0x22
 5825 0bc7 D0640000 		.4byte	.LASF1352
 5826 0bcb 01       		.byte	0x1
 5827 0bcc C602     		.2byte	0x2c6
 5828 0bce 81040000 		.4byte	0x481
 5829 0bd2 02       		.uleb128 0x2
 5830 0bd3 91       		.byte	0x91
 5831 0bd4 73       		.sleb128 -13
 5832 0bd5 00       		.byte	0
 5833 0bd6 21       		.uleb128 0x21
 5834 0bd7 06A30000 		.4byte	.LASF1354
 5835 0bdb 01       		.byte	0x1
 5836 0bdc E602     		.2byte	0x2e6
 5837 0bde 00000000 		.4byte	.LFB66
 5838 0be2 9C000000 		.4byte	.LFE66-.LFB66
 5839 0be6 01       		.uleb128 0x1
 5840 0be7 9C       		.byte	0x9c
 5841 0be8 290C0000 		.4byte	0xc29
 5842 0bec 22       		.uleb128 0x22
 5843 0bed 54660000 		.4byte	.LASF1323
 5844 0bf1 01       		.byte	0x1
 5845 0bf2 E602     		.2byte	0x2e6
 5846 0bf4 03090000 		.4byte	0x903
 5847 0bf8 02       		.uleb128 0x2
 5848 0bf9 91       		.byte	0x91
 5849 0bfa 6C       		.sleb128 -20
 5850 0bfb 22       		.uleb128 0x22
 5851 0bfc 2B570000 		.4byte	.LASF1355
 5852 0c00 01       		.byte	0x1
 5853 0c01 E602     		.2byte	0x2e6
 5854 0c03 70060000 		.4byte	0x670
 5855 0c07 02       		.uleb128 0x2
 5856 0c08 91       		.byte	0x91
 5857 0c09 6B       		.sleb128 -21
 5858 0c0a 23       		.uleb128 0x23
 5859 0c0b 746D7000 		.ascii	"tmp\000"
 5860 0c0f 01       		.byte	0x1
 5861 0c10 E802     		.2byte	0x2e8
 5862 0c12 A6000000 		.4byte	0xa6
 5863 0c16 02       		.uleb128 0x2
ARM GAS  C:\Users\STUDENT\AppData\Local\Temp\ccMxouBa.s 			page 132


 5864 0c17 91       		.byte	0x91
 5865 0c18 70       		.sleb128 -16
 5866 0c19 26       		.uleb128 0x26
 5867 0c1a 48700000 		.4byte	.LASF1340
 5868 0c1e 01       		.byte	0x1
 5869 0c1f E802     		.2byte	0x2e8
 5870 0c21 A6000000 		.4byte	0xa6
 5871 0c25 02       		.uleb128 0x2
 5872 0c26 91       		.byte	0x91
 5873 0c27 74       		.sleb128 -12
 5874 0c28 00       		.byte	0
 5875 0c29 21       		.uleb128 0x21
 5876 0c2a CF0F0000 		.4byte	.LASF1356
 5877 0c2e 01       		.byte	0x1
 5878 0c2f 0803     		.2byte	0x308
 5879 0c31 00000000 		.4byte	.LFB67
 5880 0c35 84010000 		.4byte	.LFE67-.LFB67
 5881 0c39 01       		.uleb128 0x1
 5882 0c3a 9C       		.byte	0x9c
 5883 0c3b 7C0C0000 		.4byte	0xc7c
 5884 0c3f 22       		.uleb128 0x22
 5885 0c40 54660000 		.4byte	.LASF1323
 5886 0c44 01       		.byte	0x1
 5887 0c45 0803     		.2byte	0x308
 5888 0c47 03090000 		.4byte	0x903
 5889 0c4b 02       		.uleb128 0x2
 5890 0c4c 91       		.byte	0x91
 5891 0c4d 6C       		.sleb128 -20
 5892 0c4e 22       		.uleb128 0x22
 5893 0c4f 2F8B0000 		.4byte	.LASF1357
 5894 0c53 01       		.byte	0x1
 5895 0c54 0803     		.2byte	0x308
 5896 0c56 D0050000 		.4byte	0x5d0
 5897 0c5a 02       		.uleb128 0x2
 5898 0c5b 91       		.byte	0x91
 5899 0c5c 6B       		.sleb128 -21
 5900 0c5d 22       		.uleb128 0x22
 5901 0c5e D0640000 		.4byte	.LASF1352
 5902 0c62 01       		.byte	0x1
 5903 0c63 0803     		.2byte	0x308
 5904 0c65 81040000 		.4byte	0x481
 5905 0c69 02       		.uleb128 0x2
 5906 0c6a 91       		.byte	0x91
 5907 0c6b 6A       		.sleb128 -22
 5908 0c6c 23       		.uleb128 0x23
 5909 0c6d 746D7000 		.ascii	"tmp\000"
 5910 0c71 01       		.byte	0x1
 5911 0c72 0A03     		.2byte	0x30a
 5912 0c74 A6000000 		.4byte	0xa6
 5913 0c78 02       		.uleb128 0x2
 5914 0c79 91       		.byte	0x91
 5915 0c7a 74       		.sleb128 -12
 5916 0c7b 00       		.byte	0
 5917 0c7c 25       		.uleb128 0x25
 5918 0c7d F3A20000 		.4byte	.LASF1358
 5919 0c81 01       		.byte	0x1
 5920 0c82 5603     		.2byte	0x356
ARM GAS  C:\Users\STUDENT\AppData\Local\Temp\ccMxouBa.s 			page 133


 5921 0c84 90000000 		.4byte	0x90
 5922 0c88 00000000 		.4byte	.LFB68
 5923 0c8c 64000000 		.4byte	.LFE68-.LFB68
 5924 0c90 01       		.uleb128 0x1
 5925 0c91 9C       		.byte	0x9c
 5926 0c92 A60C0000 		.4byte	0xca6
 5927 0c96 22       		.uleb128 0x22
 5928 0c97 54660000 		.4byte	.LASF1323
 5929 0c9b 01       		.byte	0x1
 5930 0c9c 5603     		.2byte	0x356
 5931 0c9e 03090000 		.4byte	0x903
 5932 0ca2 02       		.uleb128 0x2
 5933 0ca3 91       		.byte	0x91
 5934 0ca4 74       		.sleb128 -12
 5935 0ca5 00       		.byte	0
 5936 0ca6 27       		.uleb128 0x27
 5937 0ca7 653B0000 		.4byte	.LASF1359
 5938 0cab 01       		.byte	0x1
 5939 0cac 6A03     		.2byte	0x36a
 5940 0cae 52040000 		.4byte	0x452
 5941 0cb2 00000000 		.4byte	.LFB69
 5942 0cb6 26000000 		.4byte	.LFE69-.LFB69
 5943 0cba 01       		.uleb128 0x1
 5944 0cbb 9C       		.byte	0x9c
 5945 0cbc D00C0000 		.4byte	0xcd0
 5946 0cc0 22       		.uleb128 0x22
 5947 0cc1 54660000 		.4byte	.LASF1323
 5948 0cc5 01       		.byte	0x1
 5949 0cc6 6A03     		.2byte	0x36a
 5950 0cc8 03090000 		.4byte	0x903
 5951 0ccc 02       		.uleb128 0x2
 5952 0ccd 91       		.byte	0x91
 5953 0cce 74       		.sleb128 -12
 5954 0ccf 00       		.byte	0
 5955 0cd0 21       		.uleb128 0x21
 5956 0cd1 3E3C0000 		.4byte	.LASF1360
 5957 0cd5 01       		.byte	0x1
 5958 0cd6 7C03     		.2byte	0x37c
 5959 0cd8 00000000 		.4byte	.LFB70
 5960 0cdc 58010000 		.4byte	.LFE70-.LFB70
 5961 0ce0 01       		.uleb128 0x1
 5962 0ce1 9C       		.byte	0x9c
 5963 0ce2 140D0000 		.4byte	0xd14
 5964 0ce6 22       		.uleb128 0x22
 5965 0ce7 54660000 		.4byte	.LASF1323
 5966 0ceb 01       		.byte	0x1
 5967 0cec 7C03     		.2byte	0x37c
 5968 0cee 03090000 		.4byte	0x903
 5969 0cf2 02       		.uleb128 0x2
 5970 0cf3 91       		.byte	0x91
 5971 0cf4 6C       		.sleb128 -20
 5972 0cf5 22       		.uleb128 0x22
 5973 0cf6 1D9B0000 		.4byte	.LASF1361
 5974 0cfa 01       		.byte	0x1
 5975 0cfb 7C03     		.2byte	0x37c
 5976 0cfd 140D0000 		.4byte	0xd14
 5977 0d01 02       		.uleb128 0x2
ARM GAS  C:\Users\STUDENT\AppData\Local\Temp\ccMxouBa.s 			page 134


 5978 0d02 91       		.byte	0x91
 5979 0d03 68       		.sleb128 -24
 5980 0d04 23       		.uleb128 0x23
 5981 0d05 746D7000 		.ascii	"tmp\000"
 5982 0d09 01       		.byte	0x1
 5983 0d0a 7E03     		.2byte	0x37e
 5984 0d0c 90000000 		.4byte	0x90
 5985 0d10 02       		.uleb128 0x2
 5986 0d11 91       		.byte	0x91
 5987 0d12 77       		.sleb128 -9
 5988 0d13 00       		.byte	0
 5989 0d14 1A       		.uleb128 0x1a
 5990 0d15 04       		.byte	0x4
 5991 0d16 A2070000 		.4byte	0x7a2
 5992 0d1a 24       		.uleb128 0x24
 5993 0d1b DA0B0000 		.4byte	.LASF1362
 5994 0d1f 01       		.byte	0x1
 5995 0d20 BE03     		.2byte	0x3be
 5996 0d22 00000000 		.4byte	.LFB71
 5997 0d26 2A000000 		.4byte	.LFE71-.LFB71
 5998 0d2a 01       		.uleb128 0x1
 5999 0d2b 9C       		.byte	0x9c
 6000 0d2c 400D0000 		.4byte	0xd40
 6001 0d30 22       		.uleb128 0x22
 6002 0d31 5E5D0000 		.4byte	.LASF1363
 6003 0d35 01       		.byte	0x1
 6004 0d36 BE03     		.2byte	0x3be
 6005 0d38 140D0000 		.4byte	0xd14
 6006 0d3c 02       		.uleb128 0x2
 6007 0d3d 91       		.byte	0x91
 6008 0d3e 74       		.sleb128 -12
 6009 0d3f 00       		.byte	0
 6010 0d40 21       		.uleb128 0x21
 6011 0d41 64620000 		.4byte	.LASF1364
 6012 0d45 01       		.byte	0x1
 6013 0d46 D503     		.2byte	0x3d5
 6014 0d48 00000000 		.4byte	.LFB72
 6015 0d4c 34010000 		.4byte	.LFE72-.LFB72
 6016 0d50 01       		.uleb128 0x1
 6017 0d51 9C       		.byte	0x9c
 6018 0d52 930D0000 		.4byte	0xd93
 6019 0d56 22       		.uleb128 0x22
 6020 0d57 54660000 		.4byte	.LASF1323
 6021 0d5b 01       		.byte	0x1
 6022 0d5c D503     		.2byte	0x3d5
 6023 0d5e 03090000 		.4byte	0x903
 6024 0d62 02       		.uleb128 0x2
 6025 0d63 91       		.byte	0x91
 6026 0d64 6C       		.sleb128 -20
 6027 0d65 22       		.uleb128 0x22
 6028 0d66 76A90000 		.4byte	.LASF1365
 6029 0d6a 01       		.byte	0x1
 6030 0d6b D503     		.2byte	0x3d5
 6031 0d6d 930D0000 		.4byte	0xd93
 6032 0d71 02       		.uleb128 0x2
 6033 0d72 91       		.byte	0x91
 6034 0d73 68       		.sleb128 -24
ARM GAS  C:\Users\STUDENT\AppData\Local\Temp\ccMxouBa.s 			page 135


 6035 0d74 22       		.uleb128 0x22
 6036 0d75 D0640000 		.4byte	.LASF1352
 6037 0d79 01       		.byte	0x1
 6038 0d7a D603     		.2byte	0x3d6
 6039 0d7c 81040000 		.4byte	0x481
 6040 0d80 02       		.uleb128 0x2
 6041 0d81 91       		.byte	0x91
 6042 0d82 67       		.sleb128 -25
 6043 0d83 23       		.uleb128 0x23
 6044 0d84 746D7000 		.ascii	"tmp\000"
 6045 0d88 01       		.byte	0x1
 6046 0d89 D803     		.2byte	0x3d8
 6047 0d8b A6000000 		.4byte	0xa6
 6048 0d8f 02       		.uleb128 0x2
 6049 0d90 91       		.byte	0x91
 6050 0d91 74       		.sleb128 -12
 6051 0d92 00       		.byte	0
 6052 0d93 1A       		.uleb128 0x1a
 6053 0d94 04       		.byte	0x4
 6054 0d95 26060000 		.4byte	0x626
 6055 0d99 21       		.uleb128 0x21
 6056 0d9a C0980000 		.4byte	.LASF1366
 6057 0d9e 01       		.byte	0x1
 6058 0d9f 1704     		.2byte	0x417
 6059 0da1 00000000 		.4byte	.LFB73
 6060 0da5 C8000000 		.4byte	.LFE73-.LFB73
 6061 0da9 01       		.uleb128 0x1
 6062 0daa 9C       		.byte	0x9c
 6063 0dab CE0D0000 		.4byte	0xdce
 6064 0daf 22       		.uleb128 0x22
 6065 0db0 54660000 		.4byte	.LASF1323
 6066 0db4 01       		.byte	0x1
 6067 0db5 1704     		.2byte	0x417
 6068 0db7 03090000 		.4byte	0x903
 6069 0dbb 02       		.uleb128 0x2
 6070 0dbc 91       		.byte	0x91
 6071 0dbd 74       		.sleb128 -12
 6072 0dbe 22       		.uleb128 0x22
 6073 0dbf D0640000 		.4byte	.LASF1352
 6074 0dc3 01       		.byte	0x1
 6075 0dc4 1704     		.2byte	0x417
 6076 0dc6 81040000 		.4byte	0x481
 6077 0dca 02       		.uleb128 0x2
 6078 0dcb 91       		.byte	0x91
 6079 0dcc 73       		.sleb128 -13
 6080 0dcd 00       		.byte	0
 6081 0dce 21       		.uleb128 0x21
 6082 0dcf 41880000 		.4byte	.LASF1367
 6083 0dd3 01       		.byte	0x1
 6084 0dd4 4104     		.2byte	0x441
 6085 0dd6 00000000 		.4byte	.LFB74
 6086 0dda AC000000 		.4byte	.LFE74-.LFB74
 6087 0dde 01       		.uleb128 0x1
 6088 0ddf 9C       		.byte	0x9c
 6089 0de0 210E0000 		.4byte	0xe21
 6090 0de4 22       		.uleb128 0x22
 6091 0de5 54660000 		.4byte	.LASF1323
ARM GAS  C:\Users\STUDENT\AppData\Local\Temp\ccMxouBa.s 			page 136


 6092 0de9 01       		.byte	0x1
 6093 0dea 4104     		.2byte	0x441
 6094 0dec 210E0000 		.4byte	0xe21
 6095 0df0 02       		.uleb128 0x2
 6096 0df1 91       		.byte	0x91
 6097 0df2 6C       		.sleb128 -20
 6098 0df3 28       		.uleb128 0x28
 6099 0df4 50696E00 		.ascii	"Pin\000"
 6100 0df8 01       		.byte	0x1
 6101 0df9 4104     		.2byte	0x441
 6102 0dfb BC060000 		.4byte	0x6bc
 6103 0dff 02       		.uleb128 0x2
 6104 0e00 91       		.byte	0x91
 6105 0e01 6B       		.sleb128 -21
 6106 0e02 22       		.uleb128 0x22
 6107 0e03 D0640000 		.4byte	.LASF1352
 6108 0e07 01       		.byte	0x1
 6109 0e08 4204     		.2byte	0x442
 6110 0e0a 96060000 		.4byte	0x696
 6111 0e0e 02       		.uleb128 0x2
 6112 0e0f 91       		.byte	0x91
 6113 0e10 6A       		.sleb128 -22
 6114 0e11 23       		.uleb128 0x23
 6115 0e12 746D7000 		.ascii	"tmp\000"
 6116 0e16 01       		.byte	0x1
 6117 0e17 4404     		.2byte	0x444
 6118 0e19 90000000 		.4byte	0x90
 6119 0e1d 02       		.uleb128 0x2
 6120 0e1e 91       		.byte	0x91
 6121 0e1f 77       		.sleb128 -9
 6122 0e20 00       		.byte	0
 6123 0e21 1A       		.uleb128 0x1a
 6124 0e22 04       		.byte	0x4
 6125 0e23 2D040000 		.4byte	0x42d
 6126 0e27 21       		.uleb128 0x21
 6127 0e28 BB490000 		.4byte	.LASF1368
 6128 0e2c 01       		.byte	0x1
 6129 0e2d 6904     		.2byte	0x469
 6130 0e2f 00000000 		.4byte	.LFB75
 6131 0e33 B8000000 		.4byte	.LFE75-.LFB75
 6132 0e37 01       		.uleb128 0x1
 6133 0e38 9C       		.byte	0x9c
 6134 0e39 7A0E0000 		.4byte	0xe7a
 6135 0e3d 22       		.uleb128 0x22
 6136 0e3e 54660000 		.4byte	.LASF1323
 6137 0e42 01       		.byte	0x1
 6138 0e43 6904     		.2byte	0x469
 6139 0e45 210E0000 		.4byte	0xe21
 6140 0e49 02       		.uleb128 0x2
 6141 0e4a 91       		.byte	0x91
 6142 0e4b 6C       		.sleb128 -20
 6143 0e4c 22       		.uleb128 0x22
 6144 0e4d E5710000 		.4byte	.LASF1369
 6145 0e51 01       		.byte	0x1
 6146 0e52 6904     		.2byte	0x469
 6147 0e54 E8060000 		.4byte	0x6e8
 6148 0e58 02       		.uleb128 0x2
ARM GAS  C:\Users\STUDENT\AppData\Local\Temp\ccMxouBa.s 			page 137


 6149 0e59 91       		.byte	0x91
 6150 0e5a 6B       		.sleb128 -21
 6151 0e5b 22       		.uleb128 0x22
 6152 0e5c D0640000 		.4byte	.LASF1352
 6153 0e60 01       		.byte	0x1
 6154 0e61 6A04     		.2byte	0x46a
 6155 0e63 81040000 		.4byte	0x481
 6156 0e67 02       		.uleb128 0x2
 6157 0e68 91       		.byte	0x91
 6158 0e69 6A       		.sleb128 -22
 6159 0e6a 23       		.uleb128 0x23
 6160 0e6b 746D7000 		.ascii	"tmp\000"
 6161 0e6f 01       		.byte	0x1
 6162 0e70 6C04     		.2byte	0x46c
 6163 0e72 90000000 		.4byte	0x90
 6164 0e76 02       		.uleb128 0x2
 6165 0e77 91       		.byte	0x91
 6166 0e78 77       		.sleb128 -9
 6167 0e79 00       		.byte	0
 6168 0e7a 25       		.uleb128 0x25
 6169 0e7b FFA70000 		.4byte	.LASF1370
 6170 0e7f 01       		.byte	0x1
 6171 0e80 9704     		.2byte	0x497
 6172 0e82 90000000 		.4byte	0x90
 6173 0e86 00000000 		.4byte	.LFB76
 6174 0e8a 30000000 		.4byte	.LFE76-.LFB76
 6175 0e8e 01       		.uleb128 0x1
 6176 0e8f 9C       		.byte	0x9c
 6177 0e90 A40E0000 		.4byte	0xea4
 6178 0e94 22       		.uleb128 0x22
 6179 0e95 54660000 		.4byte	.LASF1323
 6180 0e99 01       		.byte	0x1
 6181 0e9a 9704     		.2byte	0x497
 6182 0e9c 210E0000 		.4byte	0xe21
 6183 0ea0 02       		.uleb128 0x2
 6184 0ea1 91       		.byte	0x91
 6185 0ea2 74       		.sleb128 -12
 6186 0ea3 00       		.byte	0
 6187 0ea4 21       		.uleb128 0x21
 6188 0ea5 615B0000 		.4byte	.LASF1371
 6189 0ea9 01       		.byte	0x1
 6190 0eaa A704     		.2byte	0x4a7
 6191 0eac 00000000 		.4byte	.LFB77
 6192 0eb0 84010000 		.4byte	.LFE77-.LFB77
 6193 0eb4 01       		.uleb128 0x1
 6194 0eb5 9C       		.byte	0x9c
 6195 0eb6 E80E0000 		.4byte	0xee8
 6196 0eba 22       		.uleb128 0x22
 6197 0ebb 54660000 		.4byte	.LASF1323
 6198 0ebf 01       		.byte	0x1
 6199 0ec0 A704     		.2byte	0x4a7
 6200 0ec2 210E0000 		.4byte	0xe21
 6201 0ec6 02       		.uleb128 0x2
 6202 0ec7 91       		.byte	0x91
 6203 0ec8 6C       		.sleb128 -20
 6204 0ec9 22       		.uleb128 0x22
 6205 0eca 3F9B0000 		.4byte	.LASF1372
ARM GAS  C:\Users\STUDENT\AppData\Local\Temp\ccMxouBa.s 			page 138


 6206 0ece 01       		.byte	0x1
 6207 0ecf A704     		.2byte	0x4a7
 6208 0ed1 E80E0000 		.4byte	0xee8
 6209 0ed5 02       		.uleb128 0x2
 6210 0ed6 91       		.byte	0x91
 6211 0ed7 68       		.sleb128 -24
 6212 0ed8 23       		.uleb128 0x23
 6213 0ed9 746D7000 		.ascii	"tmp\000"
 6214 0edd 01       		.byte	0x1
 6215 0ede A904     		.2byte	0x4a9
 6216 0ee0 A6000000 		.4byte	0xa6
 6217 0ee4 02       		.uleb128 0x2
 6218 0ee5 91       		.byte	0x91
 6219 0ee6 74       		.sleb128 -12
 6220 0ee7 00       		.byte	0
 6221 0ee8 1A       		.uleb128 0x1a
 6222 0ee9 04       		.byte	0x4
 6223 0eea 20080000 		.4byte	0x820
 6224 0eee 24       		.uleb128 0x24
 6225 0eef 953D0000 		.4byte	.LASF1373
 6226 0ef3 01       		.byte	0x1
 6227 0ef4 F004     		.2byte	0x4f0
 6228 0ef6 00000000 		.4byte	.LFB78
 6229 0efa 46000000 		.4byte	.LFE78-.LFB78
 6230 0efe 01       		.uleb128 0x1
 6231 0eff 9C       		.byte	0x9c
 6232 0f00 230F0000 		.4byte	0xf23
 6233 0f04 22       		.uleb128 0x22
 6234 0f05 54660000 		.4byte	.LASF1323
 6235 0f09 01       		.byte	0x1
 6236 0f0a F004     		.2byte	0x4f0
 6237 0f0c 210E0000 		.4byte	0xe21
 6238 0f10 02       		.uleb128 0x2
 6239 0f11 91       		.byte	0x91
 6240 0f12 74       		.sleb128 -12
 6241 0f13 22       		.uleb128 0x22
 6242 0f14 D0640000 		.4byte	.LASF1352
 6243 0f18 01       		.byte	0x1
 6244 0f19 F004     		.2byte	0x4f0
 6245 0f1b 81040000 		.4byte	0x481
 6246 0f1f 02       		.uleb128 0x2
 6247 0f20 91       		.byte	0x91
 6248 0f21 73       		.sleb128 -13
 6249 0f22 00       		.byte	0
 6250 0f23 25       		.uleb128 0x25
 6251 0f24 07780000 		.4byte	.LASF1374
 6252 0f28 01       		.byte	0x1
 6253 0f29 0205     		.2byte	0x502
 6254 0f2b A6000000 		.4byte	0xa6
 6255 0f2f 00000000 		.4byte	.LFB79
 6256 0f33 7A000000 		.4byte	.LFE79-.LFB79
 6257 0f37 01       		.uleb128 0x1
 6258 0f38 9C       		.byte	0x9c
 6259 0f39 A70F0000 		.4byte	0xfa7
 6260 0f3d 22       		.uleb128 0x22
 6261 0f3e 54660000 		.4byte	.LASF1323
 6262 0f42 01       		.byte	0x1
ARM GAS  C:\Users\STUDENT\AppData\Local\Temp\ccMxouBa.s 			page 139


 6263 0f43 0205     		.2byte	0x502
 6264 0f45 210E0000 		.4byte	0xe21
 6265 0f49 02       		.uleb128 0x2
 6266 0f4a 91       		.byte	0x91
 6267 0f4b 6C       		.sleb128 -20
 6268 0f4c 22       		.uleb128 0x22
 6269 0f4d 40830000 		.4byte	.LASF1375
 6270 0f51 01       		.byte	0x1
 6271 0f52 0205     		.2byte	0x502
 6272 0f54 A70F0000 		.4byte	0xfa7
 6273 0f58 02       		.uleb128 0x2
 6274 0f59 91       		.byte	0x91
 6275 0f5a 68       		.sleb128 -24
 6276 0f5b 22       		.uleb128 0x22
 6277 0f5c 6D770000 		.4byte	.LASF1376
 6278 0f60 01       		.byte	0x1
 6279 0f61 0305     		.2byte	0x503
 6280 0f63 A6000000 		.4byte	0xa6
 6281 0f67 02       		.uleb128 0x2
 6282 0f68 91       		.byte	0x91
 6283 0f69 64       		.sleb128 -28
 6284 0f6a 22       		.uleb128 0x22
 6285 0f6b 09310000 		.4byte	.LASF1377
 6286 0f6f 01       		.byte	0x1
 6287 0f70 0305     		.2byte	0x503
 6288 0f72 90000000 		.4byte	0x90
 6289 0f76 02       		.uleb128 0x2
 6290 0f77 91       		.byte	0x91
 6291 0f78 63       		.sleb128 -29
 6292 0f79 23       		.uleb128 0x23
 6293 0f7a 746D7000 		.ascii	"tmp\000"
 6294 0f7e 01       		.byte	0x1
 6295 0f7f 0505     		.2byte	0x505
 6296 0f81 90000000 		.4byte	0x90
 6297 0f85 02       		.uleb128 0x2
 6298 0f86 91       		.byte	0x91
 6299 0f87 73       		.sleb128 -13
 6300 0f88 26       		.uleb128 0x26
 6301 0f89 1DA20000 		.4byte	.LASF1378
 6302 0f8d 01       		.byte	0x1
 6303 0f8e 0505     		.2byte	0x505
 6304 0f90 90000000 		.4byte	0x90
 6305 0f94 02       		.uleb128 0x2
 6306 0f95 91       		.byte	0x91
 6307 0f96 72       		.sleb128 -14
 6308 0f97 23       		.uleb128 0x23
 6309 0f98 636E7400 		.ascii	"cnt\000"
 6310 0f9c 01       		.byte	0x1
 6311 0f9d 0605     		.2byte	0x506
 6312 0f9f A6000000 		.4byte	0xa6
 6313 0fa3 02       		.uleb128 0x2
 6314 0fa4 91       		.byte	0x91
 6315 0fa5 74       		.sleb128 -12
 6316 0fa6 00       		.byte	0
 6317 0fa7 1A       		.uleb128 0x1a
 6318 0fa8 04       		.byte	0x4
 6319 0fa9 90000000 		.4byte	0x90
ARM GAS  C:\Users\STUDENT\AppData\Local\Temp\ccMxouBa.s 			page 140


 6320 0fad 21       		.uleb128 0x21
 6321 0fae 5B5F0000 		.4byte	.LASF1379
 6322 0fb2 01       		.byte	0x1
 6323 0fb3 1D05     		.2byte	0x51d
 6324 0fb5 00000000 		.4byte	.LFB80
 6325 0fb9 20000000 		.4byte	.LFE80-.LFB80
 6326 0fbd 01       		.uleb128 0x1
 6327 0fbe 9C       		.byte	0x9c
 6328 0fbf E20F0000 		.4byte	0xfe2
 6329 0fc3 22       		.uleb128 0x22
 6330 0fc4 54660000 		.4byte	.LASF1323
 6331 0fc8 01       		.byte	0x1
 6332 0fc9 1D05     		.2byte	0x51d
 6333 0fcb 210E0000 		.4byte	0xe21
 6334 0fcf 02       		.uleb128 0x2
 6335 0fd0 91       		.byte	0x91
 6336 0fd1 74       		.sleb128 -12
 6337 0fd2 22       		.uleb128 0x22
 6338 0fd3 0BA10000 		.4byte	.LASF1380
 6339 0fd7 01       		.byte	0x1
 6340 0fd8 1D05     		.2byte	0x51d
 6341 0fda 90000000 		.4byte	0x90
 6342 0fde 02       		.uleb128 0x2
 6343 0fdf 91       		.byte	0x91
 6344 0fe0 73       		.sleb128 -13
 6345 0fe1 00       		.byte	0
 6346 0fe2 25       		.uleb128 0x25
 6347 0fe3 07A50000 		.4byte	.LASF1381
 6348 0fe7 01       		.byte	0x1
 6349 0fe8 2A05     		.2byte	0x52a
 6350 0fea A6000000 		.4byte	0xa6
 6351 0fee 00000000 		.4byte	.LFB81
 6352 0ff2 22000000 		.4byte	.LFE81-.LFB81
 6353 0ff6 01       		.uleb128 0x1
 6354 0ff7 9C       		.byte	0x9c
 6355 0ff8 2A100000 		.4byte	0x102a
 6356 0ffc 22       		.uleb128 0x22
 6357 0ffd 54660000 		.4byte	.LASF1323
 6358 1001 01       		.byte	0x1
 6359 1002 2A05     		.2byte	0x52a
 6360 1004 210E0000 		.4byte	0xe21
 6361 1008 02       		.uleb128 0x2
 6362 1009 91       		.byte	0x91
 6363 100a 74       		.sleb128 -12
 6364 100b 22       		.uleb128 0x22
 6365 100c A8A50000 		.4byte	.LASF1382
 6366 1010 01       		.byte	0x1
 6367 1011 2A05     		.2byte	0x52a
 6368 1013 A70F0000 		.4byte	0xfa7
 6369 1017 02       		.uleb128 0x2
 6370 1018 91       		.byte	0x91
 6371 1019 70       		.sleb128 -16
 6372 101a 22       		.uleb128 0x22
 6373 101b 6D770000 		.4byte	.LASF1376
 6374 101f 01       		.byte	0x1
 6375 1020 2A05     		.2byte	0x52a
 6376 1022 A6000000 		.4byte	0xa6
ARM GAS  C:\Users\STUDENT\AppData\Local\Temp\ccMxouBa.s 			page 141


 6377 1026 02       		.uleb128 0x2
 6378 1027 91       		.byte	0x91
 6379 1028 6C       		.sleb128 -20
 6380 1029 00       		.byte	0
 6381 102a 25       		.uleb128 0x25
 6382 102b AA550000 		.4byte	.LASF1383
 6383 102f 01       		.byte	0x1
 6384 1030 4105     		.2byte	0x541
 6385 1032 A6000000 		.4byte	0xa6
 6386 1036 00000000 		.4byte	.LFB82
 6387 103a EA000000 		.4byte	.LFE82-.LFB82
 6388 103e 01       		.uleb128 0x1
 6389 103f 9C       		.byte	0x9c
 6390 1040 CC100000 		.4byte	0x10cc
 6391 1044 22       		.uleb128 0x22
 6392 1045 54660000 		.4byte	.LASF1323
 6393 1049 01       		.byte	0x1
 6394 104a 4105     		.2byte	0x541
 6395 104c 03090000 		.4byte	0x903
 6396 1050 02       		.uleb128 0x2
 6397 1051 91       		.byte	0x91
 6398 1052 5C       		.sleb128 -36
 6399 1053 22       		.uleb128 0x22
 6400 1054 7B1F0000 		.4byte	.LASF1384
 6401 1058 01       		.byte	0x1
 6402 1059 4105     		.2byte	0x541
 6403 105b A70F0000 		.4byte	0xfa7
 6404 105f 02       		.uleb128 0x2
 6405 1060 91       		.byte	0x91
 6406 1061 58       		.sleb128 -40
 6407 1062 22       		.uleb128 0x22
 6408 1063 EC640000 		.4byte	.LASF1385
 6409 1067 01       		.byte	0x1
 6410 1068 4205     		.2byte	0x542
 6411 106a A6000000 		.4byte	0xa6
 6412 106e 02       		.uleb128 0x2
 6413 106f 91       		.byte	0x91
 6414 1070 54       		.sleb128 -44
 6415 1071 22       		.uleb128 0x22
 6416 1072 94670000 		.4byte	.LASF1386
 6417 1076 01       		.byte	0x1
 6418 1077 4205     		.2byte	0x542
 6419 1079 C9040000 		.4byte	0x4c9
 6420 107d 02       		.uleb128 0x2
 6421 107e 91       		.byte	0x91
 6422 107f 53       		.sleb128 -45
 6423 1080 26       		.uleb128 0x26
 6424 1081 14550000 		.4byte	.LASF1387
 6425 1085 01       		.byte	0x1
 6426 1086 4405     		.2byte	0x544
 6427 1088 A6000000 		.4byte	0xa6
 6428 108c 02       		.uleb128 0x2
 6429 108d 91       		.byte	0x91
 6430 108e 74       		.sleb128 -12
 6431 108f 26       		.uleb128 0x26
 6432 1090 483D0000 		.4byte	.LASF1388
 6433 1094 01       		.byte	0x1
ARM GAS  C:\Users\STUDENT\AppData\Local\Temp\ccMxouBa.s 			page 142


 6434 1095 4405     		.2byte	0x544
 6435 1097 A6000000 		.4byte	0xa6
 6436 109b 02       		.uleb128 0x2
 6437 109c 91       		.byte	0x91
 6438 109d 70       		.sleb128 -16
 6439 109e 26       		.uleb128 0x26
 6440 109f 59110000 		.4byte	.LASF1389
 6441 10a3 01       		.byte	0x1
 6442 10a4 4405     		.2byte	0x544
 6443 10a6 A6000000 		.4byte	0xa6
 6444 10aa 02       		.uleb128 0x2
 6445 10ab 91       		.byte	0x91
 6446 10ac 6C       		.sleb128 -20
 6447 10ad 26       		.uleb128 0x26
 6448 10ae 8D210000 		.4byte	.LASF1390
 6449 10b2 01       		.byte	0x1
 6450 10b3 4405     		.2byte	0x544
 6451 10b5 A6000000 		.4byte	0xa6
 6452 10b9 02       		.uleb128 0x2
 6453 10ba 91       		.byte	0x91
 6454 10bb 68       		.sleb128 -24
 6455 10bc 26       		.uleb128 0x26
 6456 10bd 042F0000 		.4byte	.LASF1391
 6457 10c1 01       		.byte	0x1
 6458 10c2 4505     		.2byte	0x545
 6459 10c4 A70F0000 		.4byte	0xfa7
 6460 10c8 02       		.uleb128 0x2
 6461 10c9 91       		.byte	0x91
 6462 10ca 64       		.sleb128 -28
 6463 10cb 00       		.byte	0
 6464 10cc 25       		.uleb128 0x25
 6465 10cd 815A0000 		.4byte	.LASF1392
 6466 10d1 01       		.byte	0x1
 6467 10d2 7105     		.2byte	0x571
 6468 10d4 A6000000 		.4byte	0xa6
 6469 10d8 00000000 		.4byte	.LFB83
 6470 10dc 26000000 		.4byte	.LFE83-.LFB83
 6471 10e0 01       		.uleb128 0x1
 6472 10e1 9C       		.byte	0x9c
 6473 10e2 16110000 		.4byte	0x1116
 6474 10e6 22       		.uleb128 0x22
 6475 10e7 54660000 		.4byte	.LASF1323
 6476 10eb 01       		.byte	0x1
 6477 10ec 7105     		.2byte	0x571
 6478 10ee 03090000 		.4byte	0x903
 6479 10f2 02       		.uleb128 0x2
 6480 10f3 91       		.byte	0x91
 6481 10f4 74       		.sleb128 -12
 6482 10f5 22       		.uleb128 0x22
 6483 10f6 7B1F0000 		.4byte	.LASF1384
 6484 10fa 01       		.byte	0x1
 6485 10fb 7105     		.2byte	0x571
 6486 10fd A70F0000 		.4byte	0xfa7
 6487 1101 02       		.uleb128 0x2
 6488 1102 91       		.byte	0x91
 6489 1103 70       		.sleb128 -16
 6490 1104 29       		.uleb128 0x29
ARM GAS  C:\Users\STUDENT\AppData\Local\Temp\ccMxouBa.s 			page 143


 6491 1105 E7960000 		.4byte	.LASF1411
 6492 1109 08       		.byte	0x8
 6493 110a 00       		.byte	0
 6494 110b 89000000 		.4byte	0x89
 6495 110f 17       		.uleb128 0x17
 6496 1110 16110000 		.4byte	0x1116
 6497 1114 00       		.byte	0
 6498 1115 00       		.byte	0
 6499 1116 1A       		.uleb128 0x1a
 6500 1117 04       		.byte	0x4
 6501 1118 1C110000 		.4byte	0x111c
 6502 111c 06       		.uleb128 0x6
 6503 111d D4040000 		.4byte	0x4d4
 6504 1121 25       		.uleb128 0x25
 6505 1122 61540000 		.4byte	.LASF1393
 6506 1126 01       		.byte	0x1
 6507 1127 8305     		.2byte	0x583
 6508 1129 A6000000 		.4byte	0xa6
 6509 112d 00000000 		.4byte	.LFB84
 6510 1131 BA000000 		.4byte	.LFE84-.LFB84
 6511 1135 01       		.uleb128 0x1
 6512 1136 9C       		.byte	0x9c
 6513 1137 B4110000 		.4byte	0x11b4
 6514 113b 22       		.uleb128 0x22
 6515 113c 54660000 		.4byte	.LASF1323
 6516 1140 01       		.byte	0x1
 6517 1141 8305     		.2byte	0x583
 6518 1143 03090000 		.4byte	0x903
 6519 1147 02       		.uleb128 0x2
 6520 1148 91       		.byte	0x91
 6521 1149 5C       		.sleb128 -36
 6522 114a 22       		.uleb128 0x22
 6523 114b 9E570000 		.4byte	.LASF1394
 6524 114f 01       		.byte	0x1
 6525 1150 8305     		.2byte	0x583
 6526 1152 A70F0000 		.4byte	0xfa7
 6527 1156 02       		.uleb128 0x2
 6528 1157 91       		.byte	0x91
 6529 1158 58       		.sleb128 -40
 6530 1159 22       		.uleb128 0x22
 6531 115a EC640000 		.4byte	.LASF1385
 6532 115e 01       		.byte	0x1
 6533 115f 8405     		.2byte	0x584
 6534 1161 A6000000 		.4byte	0xa6
 6535 1165 02       		.uleb128 0x2
 6536 1166 91       		.byte	0x91
 6537 1167 54       		.sleb128 -44
 6538 1168 22       		.uleb128 0x22
 6539 1169 94670000 		.4byte	.LASF1386
 6540 116d 01       		.byte	0x1
 6541 116e 8405     		.2byte	0x584
 6542 1170 C9040000 		.4byte	0x4c9
 6543 1174 02       		.uleb128 0x2
 6544 1175 91       		.byte	0x91
 6545 1176 53       		.sleb128 -45
 6546 1177 26       		.uleb128 0x26
 6547 1178 6C6A0000 		.4byte	.LASF1395
ARM GAS  C:\Users\STUDENT\AppData\Local\Temp\ccMxouBa.s 			page 144


 6548 117c 01       		.byte	0x1
 6549 117d 8605     		.2byte	0x586
 6550 117f A6000000 		.4byte	0xa6
 6551 1183 02       		.uleb128 0x2
 6552 1184 91       		.byte	0x91
 6553 1185 6C       		.sleb128 -20
 6554 1186 26       		.uleb128 0x26
 6555 1187 96540000 		.4byte	.LASF1396
 6556 118b 01       		.byte	0x1
 6557 118c 8605     		.2byte	0x586
 6558 118e A6000000 		.4byte	0xa6
 6559 1192 02       		.uleb128 0x2
 6560 1193 91       		.byte	0x91
 6561 1194 68       		.sleb128 -24
 6562 1195 26       		.uleb128 0x26
 6563 1196 59110000 		.4byte	.LASF1389
 6564 119a 01       		.byte	0x1
 6565 119b 8605     		.2byte	0x586
 6566 119d A6000000 		.4byte	0xa6
 6567 11a1 02       		.uleb128 0x2
 6568 11a2 91       		.byte	0x91
 6569 11a3 64       		.sleb128 -28
 6570 11a4 26       		.uleb128 0x26
 6571 11a5 042F0000 		.4byte	.LASF1391
 6572 11a9 01       		.byte	0x1
 6573 11aa 8705     		.2byte	0x587
 6574 11ac A70F0000 		.4byte	0xfa7
 6575 11b0 02       		.uleb128 0x2
 6576 11b1 91       		.byte	0x91
 6577 11b2 60       		.sleb128 -32
 6578 11b3 00       		.byte	0
 6579 11b4 21       		.uleb128 0x21
 6580 11b5 F3190000 		.4byte	.LASF1397
 6581 11b9 01       		.byte	0x1
 6582 11ba BA05     		.2byte	0x5ba
 6583 11bc 00000000 		.4byte	.LFB85
 6584 11c0 90000000 		.4byte	.LFE85-.LFB85
 6585 11c4 01       		.uleb128 0x1
 6586 11c5 9C       		.byte	0x9c
 6587 11c6 07120000 		.4byte	0x1207
 6588 11ca 22       		.uleb128 0x22
 6589 11cb 54660000 		.4byte	.LASF1323
 6590 11cf 01       		.byte	0x1
 6591 11d0 BA05     		.2byte	0x5ba
 6592 11d2 03090000 		.4byte	0x903
 6593 11d6 02       		.uleb128 0x2
 6594 11d7 91       		.byte	0x91
 6595 11d8 6C       		.sleb128 -20
 6596 11d9 22       		.uleb128 0x22
 6597 11da 0A0E0000 		.4byte	.LASF1398
 6598 11de 01       		.byte	0x1
 6599 11df BA05     		.2byte	0x5ba
 6600 11e1 90000000 		.4byte	0x90
 6601 11e5 02       		.uleb128 0x2
 6602 11e6 91       		.byte	0x91
 6603 11e7 6B       		.sleb128 -21
 6604 11e8 22       		.uleb128 0x22
ARM GAS  C:\Users\STUDENT\AppData\Local\Temp\ccMxouBa.s 			page 145


 6605 11e9 45580000 		.4byte	.LASF1399
 6606 11ed 01       		.byte	0x1
 6607 11ee BA05     		.2byte	0x5ba
 6608 11f0 07120000 		.4byte	0x1207
 6609 11f4 02       		.uleb128 0x2
 6610 11f5 91       		.byte	0x91
 6611 11f6 64       		.sleb128 -28
 6612 11f7 26       		.uleb128 0x26
 6613 11f8 10350000 		.4byte	.LASF1400
 6614 11fc 01       		.byte	0x1
 6615 11fd BC05     		.2byte	0x5bc
 6616 11ff 90000000 		.4byte	0x90
 6617 1203 02       		.uleb128 0x2
 6618 1204 91       		.byte	0x91
 6619 1205 77       		.sleb128 -9
 6620 1206 00       		.byte	0
 6621 1207 2A       		.uleb128 0x2a
 6622 1208 04       		.byte	0x4
 6623 1209 2B       		.uleb128 0x2b
 6624 120a 8C350000 		.4byte	.LASF1401
 6625 120e 01       		.byte	0x1
 6626 120f D905     		.2byte	0x5d9
 6627 1211 00000000 		.4byte	.LFB86
 6628 1215 14000000 		.4byte	.LFE86-.LFB86
 6629 1219 01       		.uleb128 0x1
 6630 121a 9C       		.byte	0x9c
 6631 121b 2B       		.uleb128 0x2b
 6632 121c 34570000 		.4byte	.LASF1402
 6633 1220 01       		.byte	0x1
 6634 1221 E305     		.2byte	0x5e3
 6635 1223 00000000 		.4byte	.LFB87
 6636 1227 14000000 		.4byte	.LFE87-.LFB87
 6637 122b 01       		.uleb128 0x1
 6638 122c 9C       		.byte	0x9c
 6639 122d 2B       		.uleb128 0x2b
 6640 122e D9A90000 		.4byte	.LASF1403
 6641 1232 01       		.byte	0x1
 6642 1233 ED05     		.2byte	0x5ed
 6643 1235 00000000 		.4byte	.LFB88
 6644 1239 14000000 		.4byte	.LFE88-.LFB88
 6645 123d 01       		.uleb128 0x1
 6646 123e 9C       		.byte	0x9c
 6647 123f 2B       		.uleb128 0x2b
 6648 1240 DC200000 		.4byte	.LASF1404
 6649 1244 01       		.byte	0x1
 6650 1245 F705     		.2byte	0x5f7
 6651 1247 00000000 		.4byte	.LFB89
 6652 124b 14000000 		.4byte	.LFE89-.LFB89
 6653 124f 01       		.uleb128 0x1
 6654 1250 9C       		.byte	0x9c
 6655 1251 20       		.uleb128 0x20
 6656 1252 787800   		.ascii	"xx\000"
 6657 1255 01       		.byte	0x1
 6658 1256 D6       		.byte	0xd6
 6659 1257 61120000 		.4byte	0x1261
 6660 125b 05       		.uleb128 0x5
 6661 125c 03       		.byte	0x3
ARM GAS  C:\Users\STUDENT\AppData\Local\Temp\ccMxouBa.s 			page 146


 6662 125d 00000000 		.4byte	xx
 6663 1261 05       		.uleb128 0x5
 6664 1262 82000000 		.4byte	0x82
 6665 1266 2C       		.uleb128 0x2c
 6666 1267 175F0000 		.4byte	.LASF1405
 6667 126b 07       		.byte	0x7
 6668 126c 8204     		.2byte	0x482
 6669 126e 72120000 		.4byte	0x1272
 6670 1272 05       		.uleb128 0x5
 6671 1273 9B000000 		.4byte	0x9b
 6672 1277 0E       		.uleb128 0xe
 6673 1278 D0080000 		.4byte	0x8d0
 6674 127c 87120000 		.4byte	0x1287
 6675 1280 0F       		.uleb128 0xf
 6676 1281 B1000000 		.4byte	0xb1
 6677 1285 03       		.byte	0x3
 6678 1286 00       		.byte	0
 6679 1287 2D       		.uleb128 0x2d
 6680 1288 0E200000 		.4byte	.LASF1406
 6681 128c 01       		.byte	0x1
 6682 128d 45       		.byte	0x45
 6683 128e 77120000 		.4byte	0x1277
 6684 1292 05       		.uleb128 0x5
 6685 1293 03       		.byte	0x3
 6686 1294 00000000 		.4byte	uartCbsDat
 6687 1298 2D       		.uleb128 0x2d
 6688 1299 908E0000 		.4byte	.LASF1407
 6689 129d 01       		.byte	0x1
 6690 129e 4D       		.byte	0x4d
 6691 129f A9120000 		.4byte	0x12a9
 6692 12a3 05       		.uleb128 0x5
 6693 12a4 03       		.byte	0x3
 6694 12a5 00000000 		.4byte	pfnModemCbs
 6695 12a9 1A       		.uleb128 0x1a
 6696 12aa 04       		.byte	0x4
 6697 12ab 73080000 		.4byte	0x873
 6698 12af 00       		.byte	0
 6699              		.section	.debug_abbrev,"",%progbits
 6700              	.Ldebug_abbrev0:
 6701 0000 01       		.uleb128 0x1
 6702 0001 11       		.uleb128 0x11
 6703 0002 01       		.byte	0x1
 6704 0003 25       		.uleb128 0x25
 6705 0004 0E       		.uleb128 0xe
 6706 0005 13       		.uleb128 0x13
 6707 0006 0B       		.uleb128 0xb
 6708 0007 03       		.uleb128 0x3
 6709 0008 0E       		.uleb128 0xe
 6710 0009 1B       		.uleb128 0x1b
 6711 000a 0E       		.uleb128 0xe
 6712 000b 55       		.uleb128 0x55
 6713 000c 17       		.uleb128 0x17
 6714 000d 11       		.uleb128 0x11
 6715 000e 01       		.uleb128 0x1
 6716 000f 10       		.uleb128 0x10
 6717 0010 17       		.uleb128 0x17
 6718 0011 9942     		.uleb128 0x2119
ARM GAS  C:\Users\STUDENT\AppData\Local\Temp\ccMxouBa.s 			page 147


 6719 0013 17       		.uleb128 0x17
 6720 0014 00       		.byte	0
 6721 0015 00       		.byte	0
 6722 0016 02       		.uleb128 0x2
 6723 0017 24       		.uleb128 0x24
 6724 0018 00       		.byte	0
 6725 0019 0B       		.uleb128 0xb
 6726 001a 0B       		.uleb128 0xb
 6727 001b 3E       		.uleb128 0x3e
 6728 001c 0B       		.uleb128 0xb
 6729 001d 03       		.uleb128 0x3
 6730 001e 0E       		.uleb128 0xe
 6731 001f 00       		.byte	0
 6732 0020 00       		.byte	0
 6733 0021 03       		.uleb128 0x3
 6734 0022 16       		.uleb128 0x16
 6735 0023 00       		.byte	0
 6736 0024 03       		.uleb128 0x3
 6737 0025 0E       		.uleb128 0xe
 6738 0026 3A       		.uleb128 0x3a
 6739 0027 0B       		.uleb128 0xb
 6740 0028 3B       		.uleb128 0x3b
 6741 0029 0B       		.uleb128 0xb
 6742 002a 49       		.uleb128 0x49
 6743 002b 13       		.uleb128 0x13
 6744 002c 00       		.byte	0
 6745 002d 00       		.byte	0
 6746 002e 04       		.uleb128 0x4
 6747 002f 24       		.uleb128 0x24
 6748 0030 00       		.byte	0
 6749 0031 0B       		.uleb128 0xb
 6750 0032 0B       		.uleb128 0xb
 6751 0033 3E       		.uleb128 0x3e
 6752 0034 0B       		.uleb128 0xb
 6753 0035 03       		.uleb128 0x3
 6754 0036 08       		.uleb128 0x8
 6755 0037 00       		.byte	0
 6756 0038 00       		.byte	0
 6757 0039 05       		.uleb128 0x5
 6758 003a 35       		.uleb128 0x35
 6759 003b 00       		.byte	0
 6760 003c 49       		.uleb128 0x49
 6761 003d 13       		.uleb128 0x13
 6762 003e 00       		.byte	0
 6763 003f 00       		.byte	0
 6764 0040 06       		.uleb128 0x6
 6765 0041 26       		.uleb128 0x26
 6766 0042 00       		.byte	0
 6767 0043 49       		.uleb128 0x49
 6768 0044 13       		.uleb128 0x13
 6769 0045 00       		.byte	0
 6770 0046 00       		.byte	0
 6771 0047 07       		.uleb128 0x7
 6772 0048 17       		.uleb128 0x17
 6773 0049 01       		.byte	0x1
 6774 004a 0B       		.uleb128 0xb
 6775 004b 0B       		.uleb128 0xb
ARM GAS  C:\Users\STUDENT\AppData\Local\Temp\ccMxouBa.s 			page 148


 6776 004c 3A       		.uleb128 0x3a
 6777 004d 0B       		.uleb128 0xb
 6778 004e 3B       		.uleb128 0x3b
 6779 004f 05       		.uleb128 0x5
 6780 0050 01       		.uleb128 0x1
 6781 0051 13       		.uleb128 0x13
 6782 0052 00       		.byte	0
 6783 0053 00       		.byte	0
 6784 0054 08       		.uleb128 0x8
 6785 0055 0D       		.uleb128 0xd
 6786 0056 00       		.byte	0
 6787 0057 03       		.uleb128 0x3
 6788 0058 08       		.uleb128 0x8
 6789 0059 3A       		.uleb128 0x3a
 6790 005a 0B       		.uleb128 0xb
 6791 005b 3B       		.uleb128 0x3b
 6792 005c 05       		.uleb128 0x5
 6793 005d 49       		.uleb128 0x49
 6794 005e 13       		.uleb128 0x13
 6795 005f 00       		.byte	0
 6796 0060 00       		.byte	0
 6797 0061 09       		.uleb128 0x9
 6798 0062 0D       		.uleb128 0xd
 6799 0063 00       		.byte	0
 6800 0064 03       		.uleb128 0x3
 6801 0065 0E       		.uleb128 0xe
 6802 0066 3A       		.uleb128 0x3a
 6803 0067 0B       		.uleb128 0xb
 6804 0068 3B       		.uleb128 0x3b
 6805 0069 05       		.uleb128 0x5
 6806 006a 49       		.uleb128 0x49
 6807 006b 13       		.uleb128 0x13
 6808 006c 00       		.byte	0
 6809 006d 00       		.byte	0
 6810 006e 0A       		.uleb128 0xa
 6811 006f 13       		.uleb128 0x13
 6812 0070 01       		.byte	0x1
 6813 0071 0B       		.uleb128 0xb
 6814 0072 0B       		.uleb128 0xb
 6815 0073 3A       		.uleb128 0x3a
 6816 0074 0B       		.uleb128 0xb
 6817 0075 3B       		.uleb128 0x3b
 6818 0076 05       		.uleb128 0x5
 6819 0077 01       		.uleb128 0x1
 6820 0078 13       		.uleb128 0x13
 6821 0079 00       		.byte	0
 6822 007a 00       		.byte	0
 6823 007b 0B       		.uleb128 0xb
 6824 007c 0D       		.uleb128 0xd
 6825 007d 00       		.byte	0
 6826 007e 49       		.uleb128 0x49
 6827 007f 13       		.uleb128 0x13
 6828 0080 38       		.uleb128 0x38
 6829 0081 0B       		.uleb128 0xb
 6830 0082 00       		.byte	0
 6831 0083 00       		.byte	0
 6832 0084 0C       		.uleb128 0xc
ARM GAS  C:\Users\STUDENT\AppData\Local\Temp\ccMxouBa.s 			page 149


 6833 0085 0D       		.uleb128 0xd
 6834 0086 00       		.byte	0
 6835 0087 03       		.uleb128 0x3
 6836 0088 08       		.uleb128 0x8
 6837 0089 3A       		.uleb128 0x3a
 6838 008a 0B       		.uleb128 0xb
 6839 008b 3B       		.uleb128 0x3b
 6840 008c 05       		.uleb128 0x5
 6841 008d 49       		.uleb128 0x49
 6842 008e 13       		.uleb128 0x13
 6843 008f 38       		.uleb128 0x38
 6844 0090 0B       		.uleb128 0xb
 6845 0091 00       		.byte	0
 6846 0092 00       		.byte	0
 6847 0093 0D       		.uleb128 0xd
 6848 0094 0D       		.uleb128 0xd
 6849 0095 00       		.byte	0
 6850 0096 03       		.uleb128 0x3
 6851 0097 0E       		.uleb128 0xe
 6852 0098 3A       		.uleb128 0x3a
 6853 0099 0B       		.uleb128 0xb
 6854 009a 3B       		.uleb128 0x3b
 6855 009b 05       		.uleb128 0x5
 6856 009c 49       		.uleb128 0x49
 6857 009d 13       		.uleb128 0x13
 6858 009e 38       		.uleb128 0x38
 6859 009f 0B       		.uleb128 0xb
 6860 00a0 00       		.byte	0
 6861 00a1 00       		.byte	0
 6862 00a2 0E       		.uleb128 0xe
 6863 00a3 01       		.uleb128 0x1
 6864 00a4 01       		.byte	0x1
 6865 00a5 49       		.uleb128 0x49
 6866 00a6 13       		.uleb128 0x13
 6867 00a7 01       		.uleb128 0x1
 6868 00a8 13       		.uleb128 0x13
 6869 00a9 00       		.byte	0
 6870 00aa 00       		.byte	0
 6871 00ab 0F       		.uleb128 0xf
 6872 00ac 21       		.uleb128 0x21
 6873 00ad 00       		.byte	0
 6874 00ae 49       		.uleb128 0x49
 6875 00af 13       		.uleb128 0x13
 6876 00b0 2F       		.uleb128 0x2f
 6877 00b1 0B       		.uleb128 0xb
 6878 00b2 00       		.byte	0
 6879 00b3 00       		.byte	0
 6880 00b4 10       		.uleb128 0x10
 6881 00b5 16       		.uleb128 0x16
 6882 00b6 00       		.byte	0
 6883 00b7 03       		.uleb128 0x3
 6884 00b8 0E       		.uleb128 0xe
 6885 00b9 3A       		.uleb128 0x3a
 6886 00ba 0B       		.uleb128 0xb
 6887 00bb 3B       		.uleb128 0x3b
 6888 00bc 05       		.uleb128 0x5
 6889 00bd 49       		.uleb128 0x49
ARM GAS  C:\Users\STUDENT\AppData\Local\Temp\ccMxouBa.s 			page 150


 6890 00be 13       		.uleb128 0x13
 6891 00bf 00       		.byte	0
 6892 00c0 00       		.byte	0
 6893 00c1 11       		.uleb128 0x11
 6894 00c2 04       		.uleb128 0x4
 6895 00c3 01       		.byte	0x1
 6896 00c4 0B       		.uleb128 0xb
 6897 00c5 0B       		.uleb128 0xb
 6898 00c6 49       		.uleb128 0x49
 6899 00c7 13       		.uleb128 0x13
 6900 00c8 3A       		.uleb128 0x3a
 6901 00c9 0B       		.uleb128 0xb
 6902 00ca 3B       		.uleb128 0x3b
 6903 00cb 0B       		.uleb128 0xb
 6904 00cc 01       		.uleb128 0x1
 6905 00cd 13       		.uleb128 0x13
 6906 00ce 00       		.byte	0
 6907 00cf 00       		.byte	0
 6908 00d0 12       		.uleb128 0x12
 6909 00d1 28       		.uleb128 0x28
 6910 00d2 00       		.byte	0
 6911 00d3 03       		.uleb128 0x3
 6912 00d4 0E       		.uleb128 0xe
 6913 00d5 1C       		.uleb128 0x1c
 6914 00d6 0B       		.uleb128 0xb
 6915 00d7 00       		.byte	0
 6916 00d8 00       		.byte	0
 6917 00d9 13       		.uleb128 0x13
 6918 00da 28       		.uleb128 0x28
 6919 00db 00       		.byte	0
 6920 00dc 03       		.uleb128 0x3
 6921 00dd 08       		.uleb128 0x8
 6922 00de 1C       		.uleb128 0x1c
 6923 00df 0B       		.uleb128 0xb
 6924 00e0 00       		.byte	0
 6925 00e1 00       		.byte	0
 6926 00e2 14       		.uleb128 0x14
 6927 00e3 04       		.uleb128 0x4
 6928 00e4 01       		.byte	0x1
 6929 00e5 0B       		.uleb128 0xb
 6930 00e6 0B       		.uleb128 0xb
 6931 00e7 49       		.uleb128 0x49
 6932 00e8 13       		.uleb128 0x13
 6933 00e9 3A       		.uleb128 0x3a
 6934 00ea 0B       		.uleb128 0xb
 6935 00eb 3B       		.uleb128 0x3b
 6936 00ec 05       		.uleb128 0x5
 6937 00ed 01       		.uleb128 0x1
 6938 00ee 13       		.uleb128 0x13
 6939 00ef 00       		.byte	0
 6940 00f0 00       		.byte	0
 6941 00f1 15       		.uleb128 0x15
 6942 00f2 15       		.uleb128 0x15
 6943 00f3 00       		.byte	0
 6944 00f4 27       		.uleb128 0x27
 6945 00f5 19       		.uleb128 0x19
 6946 00f6 00       		.byte	0
ARM GAS  C:\Users\STUDENT\AppData\Local\Temp\ccMxouBa.s 			page 151


 6947 00f7 00       		.byte	0
 6948 00f8 16       		.uleb128 0x16
 6949 00f9 15       		.uleb128 0x15
 6950 00fa 01       		.byte	0x1
 6951 00fb 27       		.uleb128 0x27
 6952 00fc 19       		.uleb128 0x19
 6953 00fd 01       		.uleb128 0x1
 6954 00fe 13       		.uleb128 0x13
 6955 00ff 00       		.byte	0
 6956 0100 00       		.byte	0
 6957 0101 17       		.uleb128 0x17
 6958 0102 05       		.uleb128 0x5
 6959 0103 00       		.byte	0
 6960 0104 49       		.uleb128 0x49
 6961 0105 13       		.uleb128 0x13
 6962 0106 00       		.byte	0
 6963 0107 00       		.byte	0
 6964 0108 18       		.uleb128 0x18
 6965 0109 13       		.uleb128 0x13
 6966 010a 01       		.byte	0x1
 6967 010b 0B       		.uleb128 0xb
 6968 010c 0B       		.uleb128 0xb
 6969 010d 3A       		.uleb128 0x3a
 6970 010e 0B       		.uleb128 0xb
 6971 010f 3B       		.uleb128 0x3b
 6972 0110 0B       		.uleb128 0xb
 6973 0111 01       		.uleb128 0x1
 6974 0112 13       		.uleb128 0x13
 6975 0113 00       		.byte	0
 6976 0114 00       		.byte	0
 6977 0115 19       		.uleb128 0x19
 6978 0116 0D       		.uleb128 0xd
 6979 0117 00       		.byte	0
 6980 0118 03       		.uleb128 0x3
 6981 0119 0E       		.uleb128 0xe
 6982 011a 3A       		.uleb128 0x3a
 6983 011b 0B       		.uleb128 0xb
 6984 011c 3B       		.uleb128 0x3b
 6985 011d 0B       		.uleb128 0xb
 6986 011e 49       		.uleb128 0x49
 6987 011f 13       		.uleb128 0x13
 6988 0120 38       		.uleb128 0x38
 6989 0121 0B       		.uleb128 0xb
 6990 0122 00       		.byte	0
 6991 0123 00       		.byte	0
 6992 0124 1A       		.uleb128 0x1a
 6993 0125 0F       		.uleb128 0xf
 6994 0126 00       		.byte	0
 6995 0127 0B       		.uleb128 0xb
 6996 0128 0B       		.uleb128 0xb
 6997 0129 49       		.uleb128 0x49
 6998 012a 13       		.uleb128 0x13
 6999 012b 00       		.byte	0
 7000 012c 00       		.byte	0
 7001 012d 1B       		.uleb128 0x1b
 7002 012e 2E       		.uleb128 0x2e
 7003 012f 01       		.byte	0x1
ARM GAS  C:\Users\STUDENT\AppData\Local\Temp\ccMxouBa.s 			page 152


 7004 0130 3F       		.uleb128 0x3f
 7005 0131 19       		.uleb128 0x19
 7006 0132 03       		.uleb128 0x3
 7007 0133 0E       		.uleb128 0xe
 7008 0134 3A       		.uleb128 0x3a
 7009 0135 0B       		.uleb128 0xb
 7010 0136 3B       		.uleb128 0x3b
 7011 0137 0B       		.uleb128 0xb
 7012 0138 27       		.uleb128 0x27
 7013 0139 19       		.uleb128 0x19
 7014 013a 49       		.uleb128 0x49
 7015 013b 13       		.uleb128 0x13
 7016 013c 11       		.uleb128 0x11
 7017 013d 01       		.uleb128 0x1
 7018 013e 12       		.uleb128 0x12
 7019 013f 06       		.uleb128 0x6
 7020 0140 40       		.uleb128 0x40
 7021 0141 18       		.uleb128 0x18
 7022 0142 9742     		.uleb128 0x2117
 7023 0144 19       		.uleb128 0x19
 7024 0145 01       		.uleb128 0x1
 7025 0146 13       		.uleb128 0x13
 7026 0147 00       		.byte	0
 7027 0148 00       		.byte	0
 7028 0149 1C       		.uleb128 0x1c
 7029 014a 05       		.uleb128 0x5
 7030 014b 00       		.byte	0
 7031 014c 03       		.uleb128 0x3
 7032 014d 0E       		.uleb128 0xe
 7033 014e 3A       		.uleb128 0x3a
 7034 014f 0B       		.uleb128 0xb
 7035 0150 3B       		.uleb128 0x3b
 7036 0151 0B       		.uleb128 0xb
 7037 0152 49       		.uleb128 0x49
 7038 0153 13       		.uleb128 0x13
 7039 0154 02       		.uleb128 0x2
 7040 0155 18       		.uleb128 0x18
 7041 0156 00       		.byte	0
 7042 0157 00       		.byte	0
 7043 0158 1D       		.uleb128 0x1d
 7044 0159 2E       		.uleb128 0x2e
 7045 015a 01       		.byte	0x1
 7046 015b 3F       		.uleb128 0x3f
 7047 015c 19       		.uleb128 0x19
 7048 015d 03       		.uleb128 0x3
 7049 015e 0E       		.uleb128 0xe
 7050 015f 3A       		.uleb128 0x3a
 7051 0160 0B       		.uleb128 0xb
 7052 0161 3B       		.uleb128 0x3b
 7053 0162 0B       		.uleb128 0xb
 7054 0163 27       		.uleb128 0x27
 7055 0164 19       		.uleb128 0x19
 7056 0165 49       		.uleb128 0x49
 7057 0166 13       		.uleb128 0x13
 7058 0167 11       		.uleb128 0x11
 7059 0168 01       		.uleb128 0x1
 7060 0169 12       		.uleb128 0x12
ARM GAS  C:\Users\STUDENT\AppData\Local\Temp\ccMxouBa.s 			page 153


 7061 016a 06       		.uleb128 0x6
 7062 016b 40       		.uleb128 0x40
 7063 016c 18       		.uleb128 0x18
 7064 016d 9642     		.uleb128 0x2116
 7065 016f 19       		.uleb128 0x19
 7066 0170 01       		.uleb128 0x1
 7067 0171 13       		.uleb128 0x13
 7068 0172 00       		.byte	0
 7069 0173 00       		.byte	0
 7070 0174 1E       		.uleb128 0x1e
 7071 0175 34       		.uleb128 0x34
 7072 0176 00       		.byte	0
 7073 0177 03       		.uleb128 0x3
 7074 0178 0E       		.uleb128 0xe
 7075 0179 3A       		.uleb128 0x3a
 7076 017a 0B       		.uleb128 0xb
 7077 017b 3B       		.uleb128 0x3b
 7078 017c 0B       		.uleb128 0xb
 7079 017d 49       		.uleb128 0x49
 7080 017e 13       		.uleb128 0x13
 7081 017f 02       		.uleb128 0x2
 7082 0180 18       		.uleb128 0x18
 7083 0181 00       		.byte	0
 7084 0182 00       		.byte	0
 7085 0183 1F       		.uleb128 0x1f
 7086 0184 2E       		.uleb128 0x2e
 7087 0185 01       		.byte	0x1
 7088 0186 3F       		.uleb128 0x3f
 7089 0187 19       		.uleb128 0x19
 7090 0188 03       		.uleb128 0x3
 7091 0189 0E       		.uleb128 0xe
 7092 018a 3A       		.uleb128 0x3a
 7093 018b 0B       		.uleb128 0xb
 7094 018c 3B       		.uleb128 0x3b
 7095 018d 0B       		.uleb128 0xb
 7096 018e 27       		.uleb128 0x27
 7097 018f 19       		.uleb128 0x19
 7098 0190 11       		.uleb128 0x11
 7099 0191 01       		.uleb128 0x1
 7100 0192 12       		.uleb128 0x12
 7101 0193 06       		.uleb128 0x6
 7102 0194 40       		.uleb128 0x40
 7103 0195 18       		.uleb128 0x18
 7104 0196 9642     		.uleb128 0x2116
 7105 0198 19       		.uleb128 0x19
 7106 0199 01       		.uleb128 0x1
 7107 019a 13       		.uleb128 0x13
 7108 019b 00       		.byte	0
 7109 019c 00       		.byte	0
 7110 019d 20       		.uleb128 0x20
 7111 019e 34       		.uleb128 0x34
 7112 019f 00       		.byte	0
 7113 01a0 03       		.uleb128 0x3
 7114 01a1 08       		.uleb128 0x8
 7115 01a2 3A       		.uleb128 0x3a
 7116 01a3 0B       		.uleb128 0xb
 7117 01a4 3B       		.uleb128 0x3b
ARM GAS  C:\Users\STUDENT\AppData\Local\Temp\ccMxouBa.s 			page 154


 7118 01a5 0B       		.uleb128 0xb
 7119 01a6 49       		.uleb128 0x49
 7120 01a7 13       		.uleb128 0x13
 7121 01a8 02       		.uleb128 0x2
 7122 01a9 18       		.uleb128 0x18
 7123 01aa 00       		.byte	0
 7124 01ab 00       		.byte	0
 7125 01ac 21       		.uleb128 0x21
 7126 01ad 2E       		.uleb128 0x2e
 7127 01ae 01       		.byte	0x1
 7128 01af 3F       		.uleb128 0x3f
 7129 01b0 19       		.uleb128 0x19
 7130 01b1 03       		.uleb128 0x3
 7131 01b2 0E       		.uleb128 0xe
 7132 01b3 3A       		.uleb128 0x3a
 7133 01b4 0B       		.uleb128 0xb
 7134 01b5 3B       		.uleb128 0x3b
 7135 01b6 05       		.uleb128 0x5
 7136 01b7 27       		.uleb128 0x27
 7137 01b8 19       		.uleb128 0x19
 7138 01b9 11       		.uleb128 0x11
 7139 01ba 01       		.uleb128 0x1
 7140 01bb 12       		.uleb128 0x12
 7141 01bc 06       		.uleb128 0x6
 7142 01bd 40       		.uleb128 0x40
 7143 01be 18       		.uleb128 0x18
 7144 01bf 9642     		.uleb128 0x2116
 7145 01c1 19       		.uleb128 0x19
 7146 01c2 01       		.uleb128 0x1
 7147 01c3 13       		.uleb128 0x13
 7148 01c4 00       		.byte	0
 7149 01c5 00       		.byte	0
 7150 01c6 22       		.uleb128 0x22
 7151 01c7 05       		.uleb128 0x5
 7152 01c8 00       		.byte	0
 7153 01c9 03       		.uleb128 0x3
 7154 01ca 0E       		.uleb128 0xe
 7155 01cb 3A       		.uleb128 0x3a
 7156 01cc 0B       		.uleb128 0xb
 7157 01cd 3B       		.uleb128 0x3b
 7158 01ce 05       		.uleb128 0x5
 7159 01cf 49       		.uleb128 0x49
 7160 01d0 13       		.uleb128 0x13
 7161 01d1 02       		.uleb128 0x2
 7162 01d2 18       		.uleb128 0x18
 7163 01d3 00       		.byte	0
 7164 01d4 00       		.byte	0
 7165 01d5 23       		.uleb128 0x23
 7166 01d6 34       		.uleb128 0x34
 7167 01d7 00       		.byte	0
 7168 01d8 03       		.uleb128 0x3
 7169 01d9 08       		.uleb128 0x8
 7170 01da 3A       		.uleb128 0x3a
 7171 01db 0B       		.uleb128 0xb
 7172 01dc 3B       		.uleb128 0x3b
 7173 01dd 05       		.uleb128 0x5
 7174 01de 49       		.uleb128 0x49
ARM GAS  C:\Users\STUDENT\AppData\Local\Temp\ccMxouBa.s 			page 155


 7175 01df 13       		.uleb128 0x13
 7176 01e0 02       		.uleb128 0x2
 7177 01e1 18       		.uleb128 0x18
 7178 01e2 00       		.byte	0
 7179 01e3 00       		.byte	0
 7180 01e4 24       		.uleb128 0x24
 7181 01e5 2E       		.uleb128 0x2e
 7182 01e6 01       		.byte	0x1
 7183 01e7 3F       		.uleb128 0x3f
 7184 01e8 19       		.uleb128 0x19
 7185 01e9 03       		.uleb128 0x3
 7186 01ea 0E       		.uleb128 0xe
 7187 01eb 3A       		.uleb128 0x3a
 7188 01ec 0B       		.uleb128 0xb
 7189 01ed 3B       		.uleb128 0x3b
 7190 01ee 05       		.uleb128 0x5
 7191 01ef 27       		.uleb128 0x27
 7192 01f0 19       		.uleb128 0x19
 7193 01f1 11       		.uleb128 0x11
 7194 01f2 01       		.uleb128 0x1
 7195 01f3 12       		.uleb128 0x12
 7196 01f4 06       		.uleb128 0x6
 7197 01f5 40       		.uleb128 0x40
 7198 01f6 18       		.uleb128 0x18
 7199 01f7 9742     		.uleb128 0x2117
 7200 01f9 19       		.uleb128 0x19
 7201 01fa 01       		.uleb128 0x1
 7202 01fb 13       		.uleb128 0x13
 7203 01fc 00       		.byte	0
 7204 01fd 00       		.byte	0
 7205 01fe 25       		.uleb128 0x25
 7206 01ff 2E       		.uleb128 0x2e
 7207 0200 01       		.byte	0x1
 7208 0201 3F       		.uleb128 0x3f
 7209 0202 19       		.uleb128 0x19
 7210 0203 03       		.uleb128 0x3
 7211 0204 0E       		.uleb128 0xe
 7212 0205 3A       		.uleb128 0x3a
 7213 0206 0B       		.uleb128 0xb
 7214 0207 3B       		.uleb128 0x3b
 7215 0208 05       		.uleb128 0x5
 7216 0209 27       		.uleb128 0x27
 7217 020a 19       		.uleb128 0x19
 7218 020b 49       		.uleb128 0x49
 7219 020c 13       		.uleb128 0x13
 7220 020d 11       		.uleb128 0x11
 7221 020e 01       		.uleb128 0x1
 7222 020f 12       		.uleb128 0x12
 7223 0210 06       		.uleb128 0x6
 7224 0211 40       		.uleb128 0x40
 7225 0212 18       		.uleb128 0x18
 7226 0213 9642     		.uleb128 0x2116
 7227 0215 19       		.uleb128 0x19
 7228 0216 01       		.uleb128 0x1
 7229 0217 13       		.uleb128 0x13
 7230 0218 00       		.byte	0
 7231 0219 00       		.byte	0
ARM GAS  C:\Users\STUDENT\AppData\Local\Temp\ccMxouBa.s 			page 156


 7232 021a 26       		.uleb128 0x26
 7233 021b 34       		.uleb128 0x34
 7234 021c 00       		.byte	0
 7235 021d 03       		.uleb128 0x3
 7236 021e 0E       		.uleb128 0xe
 7237 021f 3A       		.uleb128 0x3a
 7238 0220 0B       		.uleb128 0xb
 7239 0221 3B       		.uleb128 0x3b
 7240 0222 05       		.uleb128 0x5
 7241 0223 49       		.uleb128 0x49
 7242 0224 13       		.uleb128 0x13
 7243 0225 02       		.uleb128 0x2
 7244 0226 18       		.uleb128 0x18
 7245 0227 00       		.byte	0
 7246 0228 00       		.byte	0
 7247 0229 27       		.uleb128 0x27
 7248 022a 2E       		.uleb128 0x2e
 7249 022b 01       		.byte	0x1
 7250 022c 3F       		.uleb128 0x3f
 7251 022d 19       		.uleb128 0x19
 7252 022e 03       		.uleb128 0x3
 7253 022f 0E       		.uleb128 0xe
 7254 0230 3A       		.uleb128 0x3a
 7255 0231 0B       		.uleb128 0xb
 7256 0232 3B       		.uleb128 0x3b
 7257 0233 05       		.uleb128 0x5
 7258 0234 27       		.uleb128 0x27
 7259 0235 19       		.uleb128 0x19
 7260 0236 49       		.uleb128 0x49
 7261 0237 13       		.uleb128 0x13
 7262 0238 11       		.uleb128 0x11
 7263 0239 01       		.uleb128 0x1
 7264 023a 12       		.uleb128 0x12
 7265 023b 06       		.uleb128 0x6
 7266 023c 40       		.uleb128 0x40
 7267 023d 18       		.uleb128 0x18
 7268 023e 9742     		.uleb128 0x2117
 7269 0240 19       		.uleb128 0x19
 7270 0241 01       		.uleb128 0x1
 7271 0242 13       		.uleb128 0x13
 7272 0243 00       		.byte	0
 7273 0244 00       		.byte	0
 7274 0245 28       		.uleb128 0x28
 7275 0246 05       		.uleb128 0x5
 7276 0247 00       		.byte	0
 7277 0248 03       		.uleb128 0x3
 7278 0249 08       		.uleb128 0x8
 7279 024a 3A       		.uleb128 0x3a
 7280 024b 0B       		.uleb128 0xb
 7281 024c 3B       		.uleb128 0x3b
 7282 024d 05       		.uleb128 0x5
 7283 024e 49       		.uleb128 0x49
 7284 024f 13       		.uleb128 0x13
 7285 0250 02       		.uleb128 0x2
 7286 0251 18       		.uleb128 0x18
 7287 0252 00       		.byte	0
 7288 0253 00       		.byte	0
ARM GAS  C:\Users\STUDENT\AppData\Local\Temp\ccMxouBa.s 			page 157


 7289 0254 29       		.uleb128 0x29
 7290 0255 2E       		.uleb128 0x2e
 7291 0256 01       		.byte	0x1
 7292 0257 3F       		.uleb128 0x3f
 7293 0258 19       		.uleb128 0x19
 7294 0259 03       		.uleb128 0x3
 7295 025a 0E       		.uleb128 0xe
 7296 025b 3A       		.uleb128 0x3a
 7297 025c 0B       		.uleb128 0xb
 7298 025d 3B       		.uleb128 0x3b
 7299 025e 0B       		.uleb128 0xb
 7300 025f 27       		.uleb128 0x27
 7301 0260 19       		.uleb128 0x19
 7302 0261 49       		.uleb128 0x49
 7303 0262 13       		.uleb128 0x13
 7304 0263 3C       		.uleb128 0x3c
 7305 0264 19       		.uleb128 0x19
 7306 0265 00       		.byte	0
 7307 0266 00       		.byte	0
 7308 0267 2A       		.uleb128 0x2a
 7309 0268 0F       		.uleb128 0xf
 7310 0269 00       		.byte	0
 7311 026a 0B       		.uleb128 0xb
 7312 026b 0B       		.uleb128 0xb
 7313 026c 00       		.byte	0
 7314 026d 00       		.byte	0
 7315 026e 2B       		.uleb128 0x2b
 7316 026f 2E       		.uleb128 0x2e
 7317 0270 00       		.byte	0
 7318 0271 3F       		.uleb128 0x3f
 7319 0272 19       		.uleb128 0x19
 7320 0273 03       		.uleb128 0x3
 7321 0274 0E       		.uleb128 0xe
 7322 0275 3A       		.uleb128 0x3a
 7323 0276 0B       		.uleb128 0xb
 7324 0277 3B       		.uleb128 0x3b
 7325 0278 05       		.uleb128 0x5
 7326 0279 27       		.uleb128 0x27
 7327 027a 19       		.uleb128 0x19
 7328 027b 11       		.uleb128 0x11
 7329 027c 01       		.uleb128 0x1
 7330 027d 12       		.uleb128 0x12
 7331 027e 06       		.uleb128 0x6
 7332 027f 40       		.uleb128 0x40
 7333 0280 18       		.uleb128 0x18
 7334 0281 9642     		.uleb128 0x2116
 7335 0283 19       		.uleb128 0x19
 7336 0284 00       		.byte	0
 7337 0285 00       		.byte	0
 7338 0286 2C       		.uleb128 0x2c
 7339 0287 34       		.uleb128 0x34
 7340 0288 00       		.byte	0
 7341 0289 03       		.uleb128 0x3
 7342 028a 0E       		.uleb128 0xe
 7343 028b 3A       		.uleb128 0x3a
 7344 028c 0B       		.uleb128 0xb
 7345 028d 3B       		.uleb128 0x3b
ARM GAS  C:\Users\STUDENT\AppData\Local\Temp\ccMxouBa.s 			page 158


 7346 028e 05       		.uleb128 0x5
 7347 028f 49       		.uleb128 0x49
 7348 0290 13       		.uleb128 0x13
 7349 0291 3F       		.uleb128 0x3f
 7350 0292 19       		.uleb128 0x19
 7351 0293 3C       		.uleb128 0x3c
 7352 0294 19       		.uleb128 0x19
 7353 0295 00       		.byte	0
 7354 0296 00       		.byte	0
 7355 0297 2D       		.uleb128 0x2d
 7356 0298 34       		.uleb128 0x34
 7357 0299 00       		.byte	0
 7358 029a 03       		.uleb128 0x3
 7359 029b 0E       		.uleb128 0xe
 7360 029c 3A       		.uleb128 0x3a
 7361 029d 0B       		.uleb128 0xb
 7362 029e 3B       		.uleb128 0x3b
 7363 029f 0B       		.uleb128 0xb
 7364 02a0 49       		.uleb128 0x49
 7365 02a1 13       		.uleb128 0x13
 7366 02a2 3F       		.uleb128 0x3f
 7367 02a3 19       		.uleb128 0x19
 7368 02a4 02       		.uleb128 0x2
 7369 02a5 18       		.uleb128 0x18
 7370 02a6 00       		.byte	0
 7371 02a7 00       		.byte	0
 7372 02a8 00       		.byte	0
 7373              		.section	.debug_aranges,"",%progbits
 7374 0000 2C010000 		.4byte	0x12c
 7375 0004 0200     		.2byte	0x2
 7376 0006 00000000 		.4byte	.Ldebug_info0
 7377 000a 04       		.byte	0x4
 7378 000b 00       		.byte	0
 7379 000c 0000     		.2byte	0
 7380 000e 0000     		.2byte	0
 7381 0010 00000000 		.4byte	.LFB55
 7382 0014 44000000 		.4byte	.LFE55-.LFB55
 7383 0018 00000000 		.4byte	.LFB56
 7384 001c 18020000 		.4byte	.LFE56-.LFB56
 7385 0020 00000000 		.4byte	.LFB57
 7386 0024 74010000 		.4byte	.LFE57-.LFB57
 7387 0028 00000000 		.4byte	.LFB58
 7388 002c 9C000000 		.4byte	.LFE58-.LFB58
 7389 0030 00000000 		.4byte	.LFB59
 7390 0034 EC020000 		.4byte	.LFE59-.LFB59
 7391 0038 00000000 		.4byte	.LFB60
 7392 003c 2C000000 		.4byte	.LFE60-.LFB60
 7393 0040 00000000 		.4byte	.LFB61
 7394 0044 68000000 		.4byte	.LFE61-.LFB61
 7395 0048 00000000 		.4byte	.LFB62
 7396 004c 64000000 		.4byte	.LFE62-.LFB62
 7397 0050 00000000 		.4byte	.LFB63
 7398 0054 78000000 		.4byte	.LFE63-.LFB63
 7399 0058 00000000 		.4byte	.LFB64
 7400 005c 7C000000 		.4byte	.LFE64-.LFB64
 7401 0060 00000000 		.4byte	.LFB65
 7402 0064 74000000 		.4byte	.LFE65-.LFB65
ARM GAS  C:\Users\STUDENT\AppData\Local\Temp\ccMxouBa.s 			page 159


 7403 0068 00000000 		.4byte	.LFB66
 7404 006c 9C000000 		.4byte	.LFE66-.LFB66
 7405 0070 00000000 		.4byte	.LFB67
 7406 0074 84010000 		.4byte	.LFE67-.LFB67
 7407 0078 00000000 		.4byte	.LFB68
 7408 007c 64000000 		.4byte	.LFE68-.LFB68
 7409 0080 00000000 		.4byte	.LFB69
 7410 0084 26000000 		.4byte	.LFE69-.LFB69
 7411 0088 00000000 		.4byte	.LFB70
 7412 008c 58010000 		.4byte	.LFE70-.LFB70
 7413 0090 00000000 		.4byte	.LFB71
 7414 0094 2A000000 		.4byte	.LFE71-.LFB71
 7415 0098 00000000 		.4byte	.LFB72
 7416 009c 34010000 		.4byte	.LFE72-.LFB72
 7417 00a0 00000000 		.4byte	.LFB73
 7418 00a4 C8000000 		.4byte	.LFE73-.LFB73
 7419 00a8 00000000 		.4byte	.LFB74
 7420 00ac AC000000 		.4byte	.LFE74-.LFB74
 7421 00b0 00000000 		.4byte	.LFB75
 7422 00b4 B8000000 		.4byte	.LFE75-.LFB75
 7423 00b8 00000000 		.4byte	.LFB76
 7424 00bc 30000000 		.4byte	.LFE76-.LFB76
 7425 00c0 00000000 		.4byte	.LFB77
 7426 00c4 84010000 		.4byte	.LFE77-.LFB77
 7427 00c8 00000000 		.4byte	.LFB78
 7428 00cc 46000000 		.4byte	.LFE78-.LFB78
 7429 00d0 00000000 		.4byte	.LFB79
 7430 00d4 7A000000 		.4byte	.LFE79-.LFB79
 7431 00d8 00000000 		.4byte	.LFB80
 7432 00dc 20000000 		.4byte	.LFE80-.LFB80
 7433 00e0 00000000 		.4byte	.LFB81
 7434 00e4 22000000 		.4byte	.LFE81-.LFB81
 7435 00e8 00000000 		.4byte	.LFB82
 7436 00ec EA000000 		.4byte	.LFE82-.LFB82
 7437 00f0 00000000 		.4byte	.LFB83
 7438 00f4 26000000 		.4byte	.LFE83-.LFB83
 7439 00f8 00000000 		.4byte	.LFB84
 7440 00fc BA000000 		.4byte	.LFE84-.LFB84
 7441 0100 00000000 		.4byte	.LFB85
 7442 0104 90000000 		.4byte	.LFE85-.LFB85
 7443 0108 00000000 		.4byte	.LFB86
 7444 010c 14000000 		.4byte	.LFE86-.LFB86
 7445 0110 00000000 		.4byte	.LFB87
 7446 0114 14000000 		.4byte	.LFE87-.LFB87
 7447 0118 00000000 		.4byte	.LFB88
 7448 011c 14000000 		.4byte	.LFE88-.LFB88
 7449 0120 00000000 		.4byte	.LFB89
 7450 0124 14000000 		.4byte	.LFE89-.LFB89
 7451 0128 00000000 		.4byte	0
 7452 012c 00000000 		.4byte	0
 7453              		.section	.debug_ranges,"",%progbits
 7454              	.Ldebug_ranges0:
 7455 0000 00000000 		.4byte	.LFB55
 7456 0004 44000000 		.4byte	.LFE55
 7457 0008 00000000 		.4byte	.LFB56
 7458 000c 18020000 		.4byte	.LFE56
 7459 0010 00000000 		.4byte	.LFB57
ARM GAS  C:\Users\STUDENT\AppData\Local\Temp\ccMxouBa.s 			page 160


 7460 0014 74010000 		.4byte	.LFE57
 7461 0018 00000000 		.4byte	.LFB58
 7462 001c 9C000000 		.4byte	.LFE58
 7463 0020 00000000 		.4byte	.LFB59
 7464 0024 EC020000 		.4byte	.LFE59
 7465 0028 00000000 		.4byte	.LFB60
 7466 002c 2C000000 		.4byte	.LFE60
 7467 0030 00000000 		.4byte	.LFB61
 7468 0034 68000000 		.4byte	.LFE61
 7469 0038 00000000 		.4byte	.LFB62
 7470 003c 64000000 		.4byte	.LFE62
 7471 0040 00000000 		.4byte	.LFB63
 7472 0044 78000000 		.4byte	.LFE63
 7473 0048 00000000 		.4byte	.LFB64
 7474 004c 7C000000 		.4byte	.LFE64
 7475 0050 00000000 		.4byte	.LFB65
 7476 0054 74000000 		.4byte	.LFE65
 7477 0058 00000000 		.4byte	.LFB66
 7478 005c 9C000000 		.4byte	.LFE66
 7479 0060 00000000 		.4byte	.LFB67
 7480 0064 84010000 		.4byte	.LFE67
 7481 0068 00000000 		.4byte	.LFB68
 7482 006c 64000000 		.4byte	.LFE68
 7483 0070 00000000 		.4byte	.LFB69
 7484 0074 26000000 		.4byte	.LFE69
 7485 0078 00000000 		.4byte	.LFB70
 7486 007c 58010000 		.4byte	.LFE70
 7487 0080 00000000 		.4byte	.LFB71
 7488 0084 2A000000 		.4byte	.LFE71
 7489 0088 00000000 		.4byte	.LFB72
 7490 008c 34010000 		.4byte	.LFE72
 7491 0090 00000000 		.4byte	.LFB73
 7492 0094 C8000000 		.4byte	.LFE73
 7493 0098 00000000 		.4byte	.LFB74
 7494 009c AC000000 		.4byte	.LFE74
 7495 00a0 00000000 		.4byte	.LFB75
 7496 00a4 B8000000 		.4byte	.LFE75
 7497 00a8 00000000 		.4byte	.LFB76
 7498 00ac 30000000 		.4byte	.LFE76
 7499 00b0 00000000 		.4byte	.LFB77
 7500 00b4 84010000 		.4byte	.LFE77
 7501 00b8 00000000 		.4byte	.LFB78
 7502 00bc 46000000 		.4byte	.LFE78
 7503 00c0 00000000 		.4byte	.LFB79
 7504 00c4 7A000000 		.4byte	.LFE79
 7505 00c8 00000000 		.4byte	.LFB80
 7506 00cc 20000000 		.4byte	.LFE80
 7507 00d0 00000000 		.4byte	.LFB81
 7508 00d4 22000000 		.4byte	.LFE81
 7509 00d8 00000000 		.4byte	.LFB82
 7510 00dc EA000000 		.4byte	.LFE82
 7511 00e0 00000000 		.4byte	.LFB83
 7512 00e4 26000000 		.4byte	.LFE83
 7513 00e8 00000000 		.4byte	.LFB84
 7514 00ec BA000000 		.4byte	.LFE84
 7515 00f0 00000000 		.4byte	.LFB85
 7516 00f4 90000000 		.4byte	.LFE85
ARM GAS  C:\Users\STUDENT\AppData\Local\Temp\ccMxouBa.s 			page 161


 7517 00f8 00000000 		.4byte	.LFB86
 7518 00fc 14000000 		.4byte	.LFE86
 7519 0100 00000000 		.4byte	.LFB87
 7520 0104 14000000 		.4byte	.LFE87
 7521 0108 00000000 		.4byte	.LFB88
 7522 010c 14000000 		.4byte	.LFE88
 7523 0110 00000000 		.4byte	.LFB89
 7524 0114 14000000 		.4byte	.LFE89
 7525 0118 00000000 		.4byte	0
 7526 011c 00000000 		.4byte	0
 7527              		.section	.debug_macro,"",%progbits
 7528              	.Ldebug_macro0:
 7529 0000 0400     		.2byte	0x4
 7530 0002 02       		.byte	0x2
 7531 0003 00000000 		.4byte	.Ldebug_line0
 7532 0007 07       		.byte	0x7
 7533 0008 00000000 		.4byte	.Ldebug_macro1
 7534 000c 03       		.byte	0x3
 7535 000d 00       		.uleb128 0
 7536 000e 01       		.uleb128 0x1
 7537 000f 03       		.byte	0x3
 7538 0010 1A       		.uleb128 0x1a
 7539 0011 06       		.uleb128 0x6
 7540 0012 05       		.byte	0x5
 7541 0013 1C       		.uleb128 0x1c
 7542 0014 B4510000 		.4byte	.LASF355
 7543 0018 03       		.byte	0x3
 7544 0019 1F       		.uleb128 0x1f
 7545 001a 04       		.uleb128 0x4
 7546 001b 07       		.byte	0x7
 7547 001c 00000000 		.4byte	.Ldebug_macro2
 7548 0020 03       		.byte	0x3
 7549 0021 67       		.uleb128 0x67
 7550 0022 07       		.uleb128 0x7
 7551 0023 07       		.byte	0x7
 7552 0024 00000000 		.4byte	.Ldebug_macro3
 7553              		.file 9 "c:\\program files (x86)\\gnu tools arm embedded\\5.4 2016q3\\lib\\gcc\\arm-none-eabi\\5.4
 7554 0028 03       		.byte	0x3
 7555 0029 50       		.uleb128 0x50
 7556 002a 09       		.uleb128 0x9
 7557              		.file 10 "c:\\program files (x86)\\gnu tools arm embedded\\5.4 2016q3\\arm-none-eabi\\include\\std
 7558 002b 03       		.byte	0x3
 7559 002c 09       		.uleb128 0x9
 7560 002d 0A       		.uleb128 0xa
 7561 002e 05       		.byte	0x5
 7562 002f 0A       		.uleb128 0xa
 7563 0030 6C1E0000 		.4byte	.LASF367
 7564 0034 03       		.byte	0x3
 7565 0035 0C       		.uleb128 0xc
 7566 0036 02       		.uleb128 0x2
 7567 0037 05       		.byte	0x5
 7568 0038 06       		.uleb128 0x6
 7569 0039 726D0000 		.4byte	.LASF368
 7570              		.file 11 "c:\\program files (x86)\\gnu tools arm embedded\\5.4 2016q3\\arm-none-eabi\\include\\sys
 7571 003d 03       		.byte	0x3
 7572 003e 08       		.uleb128 0x8
 7573 003f 0B       		.uleb128 0xb
ARM GAS  C:\Users\STUDENT\AppData\Local\Temp\ccMxouBa.s 			page 162


 7574 0040 05       		.byte	0x5
 7575 0041 16       		.uleb128 0x16
 7576 0042 482F0000 		.4byte	.LASF369
 7577              		.file 12 "c:\\program files (x86)\\gnu tools arm embedded\\5.4 2016q3\\arm-none-eabi\\include\\_ne
 7578 0046 03       		.byte	0x3
 7579 0047 1C       		.uleb128 0x1c
 7580 0048 0C       		.uleb128 0xc
 7581 0049 07       		.byte	0x7
 7582 004a 00000000 		.4byte	.Ldebug_macro4
 7583 004e 04       		.byte	0x4
 7584 004f 07       		.byte	0x7
 7585 0050 00000000 		.4byte	.Ldebug_macro5
 7586 0054 04       		.byte	0x4
 7587 0055 07       		.byte	0x7
 7588 0056 00000000 		.4byte	.Ldebug_macro6
 7589 005a 04       		.byte	0x4
 7590              		.file 13 "c:\\program files (x86)\\gnu tools arm embedded\\5.4 2016q3\\arm-none-eabi\\include\\sys
 7591 005b 03       		.byte	0x3
 7592 005c 0D       		.uleb128 0xd
 7593 005d 0D       		.uleb128 0xd
 7594 005e 07       		.byte	0x7
 7595 005f 00000000 		.4byte	.Ldebug_macro7
 7596 0063 04       		.byte	0x4
 7597 0064 03       		.byte	0x3
 7598 0065 0E       		.uleb128 0xe
 7599 0066 03       		.uleb128 0x3
 7600 0067 07       		.byte	0x7
 7601 0068 00000000 		.4byte	.Ldebug_macro8
 7602 006c 04       		.byte	0x4
 7603 006d 07       		.byte	0x7
 7604 006e 00000000 		.4byte	.Ldebug_macro9
 7605 0072 04       		.byte	0x4
 7606 0073 05       		.byte	0x5
 7607 0074 0D       		.uleb128 0xd
 7608 0075 78090000 		.4byte	.LASF519
 7609 0079 04       		.byte	0x4
 7610              		.file 14 "system/core_cmInstr.h"
 7611 007a 03       		.byte	0x3
 7612 007b 51       		.uleb128 0x51
 7613 007c 0E       		.uleb128 0xe
 7614 007d 07       		.byte	0x7
 7615 007e 00000000 		.4byte	.Ldebug_macro10
 7616 0082 04       		.byte	0x4
 7617              		.file 15 "system/core_cmFunc.h"
 7618 0083 03       		.byte	0x3
 7619 0084 52       		.uleb128 0x52
 7620 0085 0F       		.uleb128 0xf
 7621 0086 05       		.byte	0x5
 7622 0087 19       		.uleb128 0x19
 7623 0088 1A6C0000 		.4byte	.LASF523
 7624 008c 04       		.byte	0x4
 7625 008d 07       		.byte	0x7
 7626 008e 00000000 		.4byte	.Ldebug_macro11
 7627 0092 04       		.byte	0x4
 7628              		.file 16 "system/system_LPC17xx.h"
 7629 0093 03       		.byte	0x3
 7630 0094 68       		.uleb128 0x68
ARM GAS  C:\Users\STUDENT\AppData\Local\Temp\ccMxouBa.s 			page 163


 7631 0095 10       		.uleb128 0x10
 7632 0096 05       		.byte	0x5
 7633 0097 1B       		.uleb128 0x1b
 7634 0098 CB0E0000 		.4byte	.LASF805
 7635 009c 04       		.byte	0x4
 7636 009d 07       		.byte	0x7
 7637 009e 00000000 		.4byte	.Ldebug_macro12
 7638 00a2 04       		.byte	0x4
 7639 00a3 03       		.byte	0x3
 7640 00a4 20       		.uleb128 0x20
 7641 00a5 05       		.uleb128 0x5
 7642 00a6 07       		.byte	0x7
 7643 00a7 00000000 		.4byte	.Ldebug_macro13
 7644 00ab 04       		.byte	0x4
 7645 00ac 07       		.byte	0x7
 7646 00ad 00000000 		.4byte	.Ldebug_macro14
 7647 00b1 04       		.byte	0x4
 7648              		.file 17 "core/lpc17xx_clkpwr.h"
 7649 00b2 03       		.byte	0x3
 7650 00b3 1B       		.uleb128 0x1b
 7651 00b4 11       		.uleb128 0x11
 7652 00b5 07       		.byte	0x7
 7653 00b6 00000000 		.4byte	.Ldebug_macro15
 7654 00ba 04       		.byte	0x4
 7655              		.file 18 "core/lpc17xx_libcfg_default.h"
 7656 00bb 03       		.byte	0x3
 7657 00bc 24       		.uleb128 0x24
 7658 00bd 12       		.uleb128 0x12
 7659 00be 07       		.byte	0x7
 7660 00bf 00000000 		.4byte	.Ldebug_macro16
 7661 00c3 04       		.byte	0x4
 7662 00c4 04       		.byte	0x4
 7663 00c5 00       		.byte	0
 7664              		.section	.debug_macro,"G",%progbits,wm4.0.c0d9c46791312c607b68c96c4ad07fb1,comdat
 7665              	.Ldebug_macro1:
 7666 0000 0400     		.2byte	0x4
 7667 0002 00       		.byte	0
 7668 0003 05       		.byte	0x5
 7669 0004 00       		.uleb128 0
 7670 0005 11680000 		.4byte	.LASF0
 7671 0009 05       		.byte	0x5
 7672 000a 00       		.uleb128 0
 7673 000b 950D0000 		.4byte	.LASF1
 7674 000f 05       		.byte	0x5
 7675 0010 00       		.uleb128 0
 7676 0011 294B0000 		.4byte	.LASF2
 7677 0015 05       		.byte	0x5
 7678 0016 00       		.uleb128 0
 7679 0017 5B860000 		.4byte	.LASF3
 7680 001b 05       		.byte	0x5
 7681 001c 00       		.uleb128 0
 7682 001d E6260000 		.4byte	.LASF4
 7683 0021 05       		.byte	0x5
 7684 0022 00       		.uleb128 0
 7685 0023 773F0000 		.4byte	.LASF5
 7686 0027 05       		.byte	0x5
 7687 0028 00       		.uleb128 0
ARM GAS  C:\Users\STUDENT\AppData\Local\Temp\ccMxouBa.s 			page 164


 7688 0029 05900000 		.4byte	.LASF6
 7689 002d 05       		.byte	0x5
 7690 002e 00       		.uleb128 0
 7691 002f F4290000 		.4byte	.LASF7
 7692 0033 05       		.byte	0x5
 7693 0034 00       		.uleb128 0
 7694 0035 53470000 		.4byte	.LASF8
 7695 0039 05       		.byte	0x5
 7696 003a 00       		.uleb128 0
 7697 003b 11620000 		.4byte	.LASF9
 7698 003f 05       		.byte	0x5
 7699 0040 00       		.uleb128 0
 7700 0041 9AA60000 		.4byte	.LASF10
 7701 0045 05       		.byte	0x5
 7702 0046 00       		.uleb128 0
 7703 0047 82490000 		.4byte	.LASF11
 7704 004b 05       		.byte	0x5
 7705 004c 00       		.uleb128 0
 7706 004d 137E0000 		.4byte	.LASF12
 7707 0051 05       		.byte	0x5
 7708 0052 00       		.uleb128 0
 7709 0053 36330000 		.4byte	.LASF13
 7710 0057 05       		.byte	0x5
 7711 0058 00       		.uleb128 0
 7712 0059 84200000 		.4byte	.LASF14
 7713 005d 05       		.byte	0x5
 7714 005e 00       		.uleb128 0
 7715 005f 65070000 		.4byte	.LASF15
 7716 0063 05       		.byte	0x5
 7717 0064 00       		.uleb128 0
 7718 0065 E02D0000 		.4byte	.LASF16
 7719 0069 05       		.byte	0x5
 7720 006a 00       		.uleb128 0
 7721 006b F1910000 		.4byte	.LASF17
 7722 006f 05       		.byte	0x5
 7723 0070 00       		.uleb128 0
 7724 0071 96210000 		.4byte	.LASF18
 7725 0075 05       		.byte	0x5
 7726 0076 00       		.uleb128 0
 7727 0077 85300000 		.4byte	.LASF19
 7728 007b 05       		.byte	0x5
 7729 007c 00       		.uleb128 0
 7730 007d 958C0000 		.4byte	.LASF20
 7731 0081 05       		.byte	0x5
 7732 0082 00       		.uleb128 0
 7733 0083 265D0000 		.4byte	.LASF21
 7734 0087 05       		.byte	0x5
 7735 0088 00       		.uleb128 0
 7736 0089 8D6D0000 		.4byte	.LASF22
 7737 008d 05       		.byte	0x5
 7738 008e 00       		.uleb128 0
 7739 008f 50770000 		.4byte	.LASF23
 7740 0093 05       		.byte	0x5
 7741 0094 00       		.uleb128 0
 7742 0095 DE970000 		.4byte	.LASF24
 7743 0099 05       		.byte	0x5
 7744 009a 00       		.uleb128 0
ARM GAS  C:\Users\STUDENT\AppData\Local\Temp\ccMxouBa.s 			page 165


 7745 009b 2D090000 		.4byte	.LASF25
 7746 009f 05       		.byte	0x5
 7747 00a0 00       		.uleb128 0
 7748 00a1 FA5F0000 		.4byte	.LASF26
 7749 00a5 05       		.byte	0x5
 7750 00a6 00       		.uleb128 0
 7751 00a7 A3330000 		.4byte	.LASF27
 7752 00ab 05       		.byte	0x5
 7753 00ac 00       		.uleb128 0
 7754 00ad 071D0000 		.4byte	.LASF28
 7755 00b1 05       		.byte	0x5
 7756 00b2 00       		.uleb128 0
 7757 00b3 47090000 		.4byte	.LASF29
 7758 00b7 05       		.byte	0x5
 7759 00b8 00       		.uleb128 0
 7760 00b9 6E780000 		.4byte	.LASF30
 7761 00bd 05       		.byte	0x5
 7762 00be 00       		.uleb128 0
 7763 00bf 15310000 		.4byte	.LASF31
 7764 00c3 05       		.byte	0x5
 7765 00c4 00       		.uleb128 0
 7766 00c5 970B0000 		.4byte	.LASF32
 7767 00c9 05       		.byte	0x5
 7768 00ca 00       		.uleb128 0
 7769 00cb 6AA40000 		.4byte	.LASF33
 7770 00cf 05       		.byte	0x5
 7771 00d0 00       		.uleb128 0
 7772 00d1 A0650000 		.4byte	.LASF34
 7773 00d5 05       		.byte	0x5
 7774 00d6 00       		.uleb128 0
 7775 00d7 1A7B0000 		.4byte	.LASF35
 7776 00db 05       		.byte	0x5
 7777 00dc 00       		.uleb128 0
 7778 00dd EC1F0000 		.4byte	.LASF36
 7779 00e1 05       		.byte	0x5
 7780 00e2 00       		.uleb128 0
 7781 00e3 AE4E0000 		.4byte	.LASF37
 7782 00e7 05       		.byte	0x5
 7783 00e8 00       		.uleb128 0
 7784 00e9 DA090000 		.4byte	.LASF38
 7785 00ed 05       		.byte	0x5
 7786 00ee 00       		.uleb128 0
 7787 00ef 9FA70000 		.4byte	.LASF39
 7788 00f3 05       		.byte	0x5
 7789 00f4 00       		.uleb128 0
 7790 00f5 E0A60000 		.4byte	.LASF40
 7791 00f9 05       		.byte	0x5
 7792 00fa 00       		.uleb128 0
 7793 00fb F65C0000 		.4byte	.LASF41
 7794 00ff 05       		.byte	0x5
 7795 0100 00       		.uleb128 0
 7796 0101 88680000 		.4byte	.LASF42
 7797 0105 05       		.byte	0x5
 7798 0106 00       		.uleb128 0
 7799 0107 7D4B0000 		.4byte	.LASF43
 7800 010b 05       		.byte	0x5
 7801 010c 00       		.uleb128 0
ARM GAS  C:\Users\STUDENT\AppData\Local\Temp\ccMxouBa.s 			page 166


 7802 010d 18990000 		.4byte	.LASF44
 7803 0111 05       		.byte	0x5
 7804 0112 00       		.uleb128 0
 7805 0113 A98C0000 		.4byte	.LASF45
 7806 0117 05       		.byte	0x5
 7807 0118 00       		.uleb128 0
 7808 0119 1C1D0000 		.4byte	.LASF46
 7809 011d 05       		.byte	0x5
 7810 011e 00       		.uleb128 0
 7811 011f CF9E0000 		.4byte	.LASF47
 7812 0123 05       		.byte	0x5
 7813 0124 00       		.uleb128 0
 7814 0125 C6750000 		.4byte	.LASF48
 7815 0129 05       		.byte	0x5
 7816 012a 00       		.uleb128 0
 7817 012b E4140000 		.4byte	.LASF49
 7818 012f 05       		.byte	0x5
 7819 0130 00       		.uleb128 0
 7820 0131 75190000 		.4byte	.LASF50
 7821 0135 05       		.byte	0x5
 7822 0136 00       		.uleb128 0
 7823 0137 C37A0000 		.4byte	.LASF51
 7824 013b 05       		.byte	0x5
 7825 013c 00       		.uleb128 0
 7826 013d 6C860000 		.4byte	.LASF52
 7827 0141 05       		.byte	0x5
 7828 0142 00       		.uleb128 0
 7829 0143 40500000 		.4byte	.LASF53
 7830 0147 05       		.byte	0x5
 7831 0148 00       		.uleb128 0
 7832 0149 931C0000 		.4byte	.LASF54
 7833 014d 05       		.byte	0x5
 7834 014e 00       		.uleb128 0
 7835 014f FC790000 		.4byte	.LASF55
 7836 0153 05       		.byte	0x5
 7837 0154 00       		.uleb128 0
 7838 0155 9C520000 		.4byte	.LASF56
 7839 0159 05       		.byte	0x5
 7840 015a 00       		.uleb128 0
 7841 015b 660E0000 		.4byte	.LASF57
 7842 015f 05       		.byte	0x5
 7843 0160 00       		.uleb128 0
 7844 0161 4E4D0000 		.4byte	.LASF58
 7845 0165 05       		.byte	0x5
 7846 0166 00       		.uleb128 0
 7847 0167 179D0000 		.4byte	.LASF59
 7848 016b 05       		.byte	0x5
 7849 016c 00       		.uleb128 0
 7850 016d 66790000 		.4byte	.LASF60
 7851 0171 05       		.byte	0x5
 7852 0172 00       		.uleb128 0
 7853 0173 62320000 		.4byte	.LASF61
 7854 0177 05       		.byte	0x5
 7855 0178 00       		.uleb128 0
 7856 0179 E38A0000 		.4byte	.LASF62
 7857 017d 05       		.byte	0x5
 7858 017e 00       		.uleb128 0
ARM GAS  C:\Users\STUDENT\AppData\Local\Temp\ccMxouBa.s 			page 167


 7859 017f 118B0000 		.4byte	.LASF63
 7860 0183 05       		.byte	0x5
 7861 0184 00       		.uleb128 0
 7862 0185 50480000 		.4byte	.LASF64
 7863 0189 05       		.byte	0x5
 7864 018a 00       		.uleb128 0
 7865 018b 97390000 		.4byte	.LASF65
 7866 018f 05       		.byte	0x5
 7867 0190 00       		.uleb128 0
 7868 0191 E7010000 		.4byte	.LASF66
 7869 0195 05       		.byte	0x5
 7870 0196 00       		.uleb128 0
 7871 0197 AB660000 		.4byte	.LASF67
 7872 019b 05       		.byte	0x5
 7873 019c 00       		.uleb128 0
 7874 019d 31780000 		.4byte	.LASF68
 7875 01a1 05       		.byte	0x5
 7876 01a2 00       		.uleb128 0
 7877 01a3 3CAA0000 		.4byte	.LASF69
 7878 01a7 05       		.byte	0x5
 7879 01a8 00       		.uleb128 0
 7880 01a9 A2A20000 		.4byte	.LASF70
 7881 01ad 05       		.byte	0x5
 7882 01ae 00       		.uleb128 0
 7883 01af 21700000 		.4byte	.LASF71
 7884 01b3 05       		.byte	0x5
 7885 01b4 00       		.uleb128 0
 7886 01b5 79050000 		.4byte	.LASF72
 7887 01b9 05       		.byte	0x5
 7888 01ba 00       		.uleb128 0
 7889 01bb DD570000 		.4byte	.LASF73
 7890 01bf 05       		.byte	0x5
 7891 01c0 00       		.uleb128 0
 7892 01c1 DF1B0000 		.4byte	.LASF74
 7893 01c5 05       		.byte	0x5
 7894 01c6 00       		.uleb128 0
 7895 01c7 55550000 		.4byte	.LASF75
 7896 01cb 05       		.byte	0x5
 7897 01cc 00       		.uleb128 0
 7898 01cd 8D030000 		.4byte	.LASF76
 7899 01d1 05       		.byte	0x5
 7900 01d2 00       		.uleb128 0
 7901 01d3 D3A10000 		.4byte	.LASF77
 7902 01d7 05       		.byte	0x5
 7903 01d8 00       		.uleb128 0
 7904 01d9 6D040000 		.4byte	.LASF78
 7905 01dd 05       		.byte	0x5
 7906 01de 00       		.uleb128 0
 7907 01df 43040000 		.4byte	.LASF79
 7908 01e3 05       		.byte	0x5
 7909 01e4 00       		.uleb128 0
 7910 01e5 50A90000 		.4byte	.LASF80
 7911 01e9 05       		.byte	0x5
 7912 01ea 00       		.uleb128 0
 7913 01eb EF1C0000 		.4byte	.LASF81
 7914 01ef 05       		.byte	0x5
 7915 01f0 00       		.uleb128 0
ARM GAS  C:\Users\STUDENT\AppData\Local\Temp\ccMxouBa.s 			page 168


 7916 01f1 C6900000 		.4byte	.LASF82
 7917 01f5 05       		.byte	0x5
 7918 01f6 00       		.uleb128 0
 7919 01f7 BD180000 		.4byte	.LASF83
 7920 01fb 05       		.byte	0x5
 7921 01fc 00       		.uleb128 0
 7922 01fd 2B4A0000 		.4byte	.LASF84
 7923 0201 05       		.byte	0x5
 7924 0202 00       		.uleb128 0
 7925 0203 8D930000 		.4byte	.LASF85
 7926 0207 05       		.byte	0x5
 7927 0208 00       		.uleb128 0
 7928 0209 214E0000 		.4byte	.LASF86
 7929 020d 05       		.byte	0x5
 7930 020e 00       		.uleb128 0
 7931 020f DD540000 		.4byte	.LASF87
 7932 0213 05       		.byte	0x5
 7933 0214 00       		.uleb128 0
 7934 0215 B4350000 		.4byte	.LASF88
 7935 0219 05       		.byte	0x5
 7936 021a 00       		.uleb128 0
 7937 021b 2E2C0000 		.4byte	.LASF89
 7938 021f 05       		.byte	0x5
 7939 0220 00       		.uleb128 0
 7940 0221 13460000 		.4byte	.LASF90
 7941 0225 05       		.byte	0x5
 7942 0226 00       		.uleb128 0
 7943 0227 78450000 		.4byte	.LASF91
 7944 022b 05       		.byte	0x5
 7945 022c 00       		.uleb128 0
 7946 022d CE460000 		.4byte	.LASF92
 7947 0231 05       		.byte	0x5
 7948 0232 00       		.uleb128 0
 7949 0233 AF700000 		.4byte	.LASF93
 7950 0237 05       		.byte	0x5
 7951 0238 00       		.uleb128 0
 7952 0239 EB370000 		.4byte	.LASF94
 7953 023d 05       		.byte	0x5
 7954 023e 00       		.uleb128 0
 7955 023f 71A50000 		.4byte	.LASF95
 7956 0243 05       		.byte	0x5
 7957 0244 00       		.uleb128 0
 7958 0245 7E250000 		.4byte	.LASF96
 7959 0249 05       		.byte	0x5
 7960 024a 00       		.uleb128 0
 7961 024b BF120000 		.4byte	.LASF97
 7962 024f 05       		.byte	0x5
 7963 0250 00       		.uleb128 0
 7964 0251 1F5C0000 		.4byte	.LASF98
 7965 0255 05       		.byte	0x5
 7966 0256 00       		.uleb128 0
 7967 0257 E98C0000 		.4byte	.LASF99
 7968 025b 05       		.byte	0x5
 7969 025c 00       		.uleb128 0
 7970 025d 5F410000 		.4byte	.LASF100
 7971 0261 05       		.byte	0x5
 7972 0262 00       		.uleb128 0
ARM GAS  C:\Users\STUDENT\AppData\Local\Temp\ccMxouBa.s 			page 169


 7973 0263 880B0000 		.4byte	.LASF101
 7974 0267 05       		.byte	0x5
 7975 0268 00       		.uleb128 0
 7976 0269 4C270000 		.4byte	.LASF102
 7977 026d 05       		.byte	0x5
 7978 026e 00       		.uleb128 0
 7979 026f F9730000 		.4byte	.LASF103
 7980 0273 05       		.byte	0x5
 7981 0274 00       		.uleb128 0
 7982 0275 18490000 		.4byte	.LASF104
 7983 0279 05       		.byte	0x5
 7984 027a 00       		.uleb128 0
 7985 027b 113A0000 		.4byte	.LASF105
 7986 027f 05       		.byte	0x5
 7987 0280 00       		.uleb128 0
 7988 0281 A7A40000 		.4byte	.LASF106
 7989 0285 05       		.byte	0x5
 7990 0286 00       		.uleb128 0
 7991 0287 F2740000 		.4byte	.LASF107
 7992 028b 05       		.byte	0x5
 7993 028c 00       		.uleb128 0
 7994 028d 60970000 		.4byte	.LASF108
 7995 0291 05       		.byte	0x5
 7996 0292 00       		.uleb128 0
 7997 0293 427E0000 		.4byte	.LASF109
 7998 0297 05       		.byte	0x5
 7999 0298 00       		.uleb128 0
 8000 0299 D6290000 		.4byte	.LASF110
 8001 029d 05       		.byte	0x5
 8002 029e 00       		.uleb128 0
 8003 029f B71B0000 		.4byte	.LASF111
 8004 02a3 05       		.byte	0x5
 8005 02a4 00       		.uleb128 0
 8006 02a5 4E140000 		.4byte	.LASF112
 8007 02a9 05       		.byte	0x5
 8008 02aa 00       		.uleb128 0
 8009 02ab 1A170000 		.4byte	.LASF113
 8010 02af 05       		.byte	0x5
 8011 02b0 00       		.uleb128 0
 8012 02b1 E6870000 		.4byte	.LASF114
 8013 02b5 05       		.byte	0x5
 8014 02b6 00       		.uleb128 0
 8015 02b7 CC760000 		.4byte	.LASF115
 8016 02bb 05       		.byte	0x5
 8017 02bc 00       		.uleb128 0
 8018 02bd 7B170000 		.4byte	.LASF116
 8019 02c1 05       		.byte	0x5
 8020 02c2 00       		.uleb128 0
 8021 02c3 664F0000 		.4byte	.LASF117
 8022 02c7 05       		.byte	0x5
 8023 02c8 00       		.uleb128 0
 8024 02c9 B2670000 		.4byte	.LASF118
 8025 02cd 05       		.byte	0x5
 8026 02ce 00       		.uleb128 0
 8027 02cf 114B0000 		.4byte	.LASF119
 8028 02d3 05       		.byte	0x5
 8029 02d4 00       		.uleb128 0
ARM GAS  C:\Users\STUDENT\AppData\Local\Temp\ccMxouBa.s 			page 170


 8030 02d5 7C660000 		.4byte	.LASF120
 8031 02d9 05       		.byte	0x5
 8032 02da 00       		.uleb128 0
 8033 02db 69640000 		.4byte	.LASF121
 8034 02df 05       		.byte	0x5
 8035 02e0 00       		.uleb128 0
 8036 02e1 30590000 		.4byte	.LASF122
 8037 02e5 05       		.byte	0x5
 8038 02e6 00       		.uleb128 0
 8039 02e7 66520000 		.4byte	.LASF123
 8040 02eb 05       		.byte	0x5
 8041 02ec 00       		.uleb128 0
 8042 02ed 92650000 		.4byte	.LASF124
 8043 02f1 05       		.byte	0x5
 8044 02f2 00       		.uleb128 0
 8045 02f3 52640000 		.4byte	.LASF125
 8046 02f7 05       		.byte	0x5
 8047 02f8 00       		.uleb128 0
 8048 02f9 F8240000 		.4byte	.LASF126
 8049 02fd 05       		.byte	0x5
 8050 02fe 00       		.uleb128 0
 8051 02ff 70200000 		.4byte	.LASF127
 8052 0303 05       		.byte	0x5
 8053 0304 00       		.uleb128 0
 8054 0305 10860000 		.4byte	.LASF128
 8055 0309 05       		.byte	0x5
 8056 030a 00       		.uleb128 0
 8057 030b 26250000 		.4byte	.LASF129
 8058 030f 05       		.byte	0x5
 8059 0310 00       		.uleb128 0
 8060 0311 D0330000 		.4byte	.LASF130
 8061 0315 05       		.byte	0x5
 8062 0316 00       		.uleb128 0
 8063 0317 982A0000 		.4byte	.LASF131
 8064 031b 05       		.byte	0x5
 8065 031c 00       		.uleb128 0
 8066 031d DD3A0000 		.4byte	.LASF132
 8067 0321 05       		.byte	0x5
 8068 0322 00       		.uleb128 0
 8069 0323 58380000 		.4byte	.LASF133
 8070 0327 05       		.byte	0x5
 8071 0328 00       		.uleb128 0
 8072 0329 C5090000 		.4byte	.LASF134
 8073 032d 05       		.byte	0x5
 8074 032e 00       		.uleb128 0
 8075 032f A4490000 		.4byte	.LASF135
 8076 0333 05       		.byte	0x5
 8077 0334 00       		.uleb128 0
 8078 0335 CE260000 		.4byte	.LASF136
 8079 0339 05       		.byte	0x5
 8080 033a 00       		.uleb128 0
 8081 033b 8F130000 		.4byte	.LASF137
 8082 033f 05       		.byte	0x5
 8083 0340 00       		.uleb128 0
 8084 0341 FB4A0000 		.4byte	.LASF138
 8085 0345 05       		.byte	0x5
 8086 0346 00       		.uleb128 0
ARM GAS  C:\Users\STUDENT\AppData\Local\Temp\ccMxouBa.s 			page 171


 8087 0347 8E710000 		.4byte	.LASF139
 8088 034b 05       		.byte	0x5
 8089 034c 00       		.uleb128 0
 8090 034d F8A60000 		.4byte	.LASF140
 8091 0351 05       		.byte	0x5
 8092 0352 00       		.uleb128 0
 8093 0353 C6510000 		.4byte	.LASF141
 8094 0357 05       		.byte	0x5
 8095 0358 00       		.uleb128 0
 8096 0359 B6070000 		.4byte	.LASF142
 8097 035d 05       		.byte	0x5
 8098 035e 00       		.uleb128 0
 8099 035f 77920000 		.4byte	.LASF143
 8100 0363 05       		.byte	0x5
 8101 0364 00       		.uleb128 0
 8102 0365 659F0000 		.4byte	.LASF144
 8103 0369 05       		.byte	0x5
 8104 036a 00       		.uleb128 0
 8105 036b F81B0000 		.4byte	.LASF145
 8106 036f 05       		.byte	0x5
 8107 0370 00       		.uleb128 0
 8108 0371 3A490000 		.4byte	.LASF146
 8109 0375 05       		.byte	0x5
 8110 0376 00       		.uleb128 0
 8111 0377 7D970000 		.4byte	.LASF147
 8112 037b 05       		.byte	0x5
 8113 037c 00       		.uleb128 0
 8114 037d 96360000 		.4byte	.LASF148
 8115 0381 05       		.byte	0x5
 8116 0382 00       		.uleb128 0
 8117 0383 66900000 		.4byte	.LASF149
 8118 0387 05       		.byte	0x5
 8119 0388 00       		.uleb128 0
 8120 0389 1D890000 		.4byte	.LASF150
 8121 038d 05       		.byte	0x5
 8122 038e 00       		.uleb128 0
 8123 038f 000B0000 		.4byte	.LASF151
 8124 0393 05       		.byte	0x5
 8125 0394 00       		.uleb128 0
 8126 0395 F89D0000 		.4byte	.LASF152
 8127 0399 05       		.byte	0x5
 8128 039a 00       		.uleb128 0
 8129 039b DF0A0000 		.4byte	.LASF153
 8130 039f 05       		.byte	0x5
 8131 03a0 00       		.uleb128 0
 8132 03a1 258D0000 		.4byte	.LASF154
 8133 03a5 05       		.byte	0x5
 8134 03a6 00       		.uleb128 0
 8135 03a7 03360000 		.4byte	.LASF155
 8136 03ab 05       		.byte	0x5
 8137 03ac 00       		.uleb128 0
 8138 03ad BF620000 		.4byte	.LASF156
 8139 03b1 05       		.byte	0x5
 8140 03b2 00       		.uleb128 0
 8141 03b3 A9000000 		.4byte	.LASF157
 8142 03b7 05       		.byte	0x5
 8143 03b8 00       		.uleb128 0
ARM GAS  C:\Users\STUDENT\AppData\Local\Temp\ccMxouBa.s 			page 172


 8144 03b9 A9580000 		.4byte	.LASF158
 8145 03bd 05       		.byte	0x5
 8146 03be 00       		.uleb128 0
 8147 03bf DD8D0000 		.4byte	.LASF159
 8148 03c3 05       		.byte	0x5
 8149 03c4 00       		.uleb128 0
 8150 03c5 AF500000 		.4byte	.LASF160
 8151 03c9 05       		.byte	0x5
 8152 03ca 00       		.uleb128 0
 8153 03cb 9C540000 		.4byte	.LASF161
 8154 03cf 05       		.byte	0x5
 8155 03d0 00       		.uleb128 0
 8156 03d1 89740000 		.4byte	.LASF162
 8157 03d5 05       		.byte	0x5
 8158 03d6 00       		.uleb128 0
 8159 03d7 503F0000 		.4byte	.LASF163
 8160 03db 05       		.byte	0x5
 8161 03dc 00       		.uleb128 0
 8162 03dd CC590000 		.4byte	.LASF164
 8163 03e1 05       		.byte	0x5
 8164 03e2 00       		.uleb128 0
 8165 03e3 0D6D0000 		.4byte	.LASF165
 8166 03e7 05       		.byte	0x5
 8167 03e8 00       		.uleb128 0
 8168 03e9 F8340000 		.4byte	.LASF166
 8169 03ed 05       		.byte	0x5
 8170 03ee 00       		.uleb128 0
 8171 03ef 334C0000 		.4byte	.LASF167
 8172 03f3 05       		.byte	0x5
 8173 03f4 00       		.uleb128 0
 8174 03f5 FC080000 		.4byte	.LASF168
 8175 03f9 05       		.byte	0x5
 8176 03fa 00       		.uleb128 0
 8177 03fb A7170000 		.4byte	.LASF169
 8178 03ff 05       		.byte	0x5
 8179 0400 00       		.uleb128 0
 8180 0401 97140000 		.4byte	.LASF170
 8181 0405 05       		.byte	0x5
 8182 0406 00       		.uleb128 0
 8183 0407 BB040000 		.4byte	.LASF171
 8184 040b 05       		.byte	0x5
 8185 040c 00       		.uleb128 0
 8186 040d 92770000 		.4byte	.LASF172
 8187 0411 05       		.byte	0x5
 8188 0412 00       		.uleb128 0
 8189 0413 99670000 		.4byte	.LASF173
 8190 0417 05       		.byte	0x5
 8191 0418 00       		.uleb128 0
 8192 0419 62090000 		.4byte	.LASF174
 8193 041d 05       		.byte	0x5
 8194 041e 00       		.uleb128 0
 8195 041f 4C580000 		.4byte	.LASF175
 8196 0423 05       		.byte	0x5
 8197 0424 00       		.uleb128 0
 8198 0425 73230000 		.4byte	.LASF176
 8199 0429 05       		.byte	0x5
 8200 042a 00       		.uleb128 0
ARM GAS  C:\Users\STUDENT\AppData\Local\Temp\ccMxouBa.s 			page 173


 8201 042b F4070000 		.4byte	.LASF177
 8202 042f 05       		.byte	0x5
 8203 0430 00       		.uleb128 0
 8204 0431 EA430000 		.4byte	.LASF178
 8205 0435 05       		.byte	0x5
 8206 0436 00       		.uleb128 0
 8207 0437 27690000 		.4byte	.LASF179
 8208 043b 05       		.byte	0x5
 8209 043c 00       		.uleb128 0
 8210 043d 611C0000 		.4byte	.LASF180
 8211 0441 05       		.byte	0x5
 8212 0442 00       		.uleb128 0
 8213 0443 D4890000 		.4byte	.LASF181
 8214 0447 05       		.byte	0x5
 8215 0448 00       		.uleb128 0
 8216 0449 D08C0000 		.4byte	.LASF182
 8217 044d 05       		.byte	0x5
 8218 044e 00       		.uleb128 0
 8219 044f 2C4F0000 		.4byte	.LASF183
 8220 0453 05       		.byte	0x5
 8221 0454 00       		.uleb128 0
 8222 0455 29010000 		.4byte	.LASF184
 8223 0459 05       		.byte	0x5
 8224 045a 00       		.uleb128 0
 8225 045b 658B0000 		.4byte	.LASF185
 8226 045f 05       		.byte	0x5
 8227 0460 00       		.uleb128 0
 8228 0461 7B020000 		.4byte	.LASF186
 8229 0465 05       		.byte	0x5
 8230 0466 00       		.uleb128 0
 8231 0467 C8150000 		.4byte	.LASF187
 8232 046b 05       		.byte	0x5
 8233 046c 00       		.uleb128 0
 8234 046d BC4A0000 		.4byte	.LASF188
 8235 0471 05       		.byte	0x5
 8236 0472 00       		.uleb128 0
 8237 0473 EEA40000 		.4byte	.LASF189
 8238 0477 05       		.byte	0x5
 8239 0478 00       		.uleb128 0
 8240 0479 A3120000 		.4byte	.LASF190
 8241 047d 05       		.byte	0x5
 8242 047e 00       		.uleb128 0
 8243 047f 8F440000 		.4byte	.LASF191
 8244 0483 05       		.byte	0x5
 8245 0484 00       		.uleb128 0
 8246 0485 19350000 		.4byte	.LASF192
 8247 0489 05       		.byte	0x5
 8248 048a 00       		.uleb128 0
 8249 048b 75350000 		.4byte	.LASF193
 8250 048f 05       		.byte	0x5
 8251 0490 00       		.uleb128 0
 8252 0491 970F0000 		.4byte	.LASF194
 8253 0495 05       		.byte	0x5
 8254 0496 00       		.uleb128 0
 8255 0497 1B440000 		.4byte	.LASF195
 8256 049b 05       		.byte	0x5
 8257 049c 00       		.uleb128 0
ARM GAS  C:\Users\STUDENT\AppData\Local\Temp\ccMxouBa.s 			page 174


 8258 049d BC260000 		.4byte	.LASF196
 8259 04a1 05       		.byte	0x5
 8260 04a2 00       		.uleb128 0
 8261 04a3 3B2D0000 		.4byte	.LASF197
 8262 04a7 05       		.byte	0x5
 8263 04a8 00       		.uleb128 0
 8264 04a9 0E080000 		.4byte	.LASF198
 8265 04ad 05       		.byte	0x5
 8266 04ae 00       		.uleb128 0
 8267 04af BB630000 		.4byte	.LASF199
 8268 04b3 05       		.byte	0x5
 8269 04b4 00       		.uleb128 0
 8270 04b5 E64D0000 		.4byte	.LASF200
 8271 04b9 05       		.byte	0x5
 8272 04ba 00       		.uleb128 0
 8273 04bb 198F0000 		.4byte	.LASF201
 8274 04bf 05       		.byte	0x5
 8275 04c0 00       		.uleb128 0
 8276 04c1 8F700000 		.4byte	.LASF202
 8277 04c5 05       		.byte	0x5
 8278 04c6 00       		.uleb128 0
 8279 04c7 C3170000 		.4byte	.LASF203
 8280 04cb 05       		.byte	0x5
 8281 04cc 00       		.uleb128 0
 8282 04cd 8F5E0000 		.4byte	.LASF204
 8283 04d1 05       		.byte	0x5
 8284 04d2 00       		.uleb128 0
 8285 04d3 C0570000 		.4byte	.LASF205
 8286 04d7 05       		.byte	0x5
 8287 04d8 00       		.uleb128 0
 8288 04d9 135D0000 		.4byte	.LASF206
 8289 04dd 05       		.byte	0x5
 8290 04de 00       		.uleb128 0
 8291 04df BD700000 		.4byte	.LASF207
 8292 04e3 05       		.byte	0x5
 8293 04e4 00       		.uleb128 0
 8294 04e5 5B050000 		.4byte	.LASF208
 8295 04e9 05       		.byte	0x5
 8296 04ea 00       		.uleb128 0
 8297 04eb A6230000 		.4byte	.LASF209
 8298 04ef 05       		.byte	0x5
 8299 04f0 00       		.uleb128 0
 8300 04f1 F4670000 		.4byte	.LASF210
 8301 04f5 05       		.byte	0x5
 8302 04f6 00       		.uleb128 0
 8303 04f7 73110000 		.4byte	.LASF211
 8304 04fb 05       		.byte	0x5
 8305 04fc 00       		.uleb128 0
 8306 04fd 85A90000 		.4byte	.LASF212
 8307 0501 05       		.byte	0x5
 8308 0502 00       		.uleb128 0
 8309 0503 26800000 		.4byte	.LASF213
 8310 0507 05       		.byte	0x5
 8311 0508 00       		.uleb128 0
 8312 0509 A17A0000 		.4byte	.LASF214
 8313 050d 05       		.byte	0x5
 8314 050e 00       		.uleb128 0
ARM GAS  C:\Users\STUDENT\AppData\Local\Temp\ccMxouBa.s 			page 175


 8315 050f BC8B0000 		.4byte	.LASF215
 8316 0513 05       		.byte	0x5
 8317 0514 00       		.uleb128 0
 8318 0515 A79F0000 		.4byte	.LASF216
 8319 0519 05       		.byte	0x5
 8320 051a 00       		.uleb128 0
 8321 051b AA1C0000 		.4byte	.LASF217
 8322 051f 05       		.byte	0x5
 8323 0520 00       		.uleb128 0
 8324 0521 EE960000 		.4byte	.LASF218
 8325 0525 05       		.byte	0x5
 8326 0526 00       		.uleb128 0
 8327 0527 AA890000 		.4byte	.LASF219
 8328 052b 05       		.byte	0x5
 8329 052c 00       		.uleb128 0
 8330 052d 88A40000 		.4byte	.LASF220
 8331 0531 05       		.byte	0x5
 8332 0532 00       		.uleb128 0
 8333 0533 A70D0000 		.4byte	.LASF221
 8334 0537 05       		.byte	0x5
 8335 0538 00       		.uleb128 0
 8336 0539 C9540000 		.4byte	.LASF222
 8337 053d 05       		.byte	0x5
 8338 053e 00       		.uleb128 0
 8339 053f A79A0000 		.4byte	.LASF223
 8340 0543 05       		.byte	0x5
 8341 0544 00       		.uleb128 0
 8342 0545 8D1E0000 		.4byte	.LASF224
 8343 0549 05       		.byte	0x5
 8344 054a 00       		.uleb128 0
 8345 054b B4940000 		.4byte	.LASF225
 8346 054f 05       		.byte	0x5
 8347 0550 00       		.uleb128 0
 8348 0551 E8AA0000 		.4byte	.LASF226
 8349 0555 05       		.byte	0x5
 8350 0556 00       		.uleb128 0
 8351 0557 27790000 		.4byte	.LASF227
 8352 055b 05       		.byte	0x5
 8353 055c 00       		.uleb128 0
 8354 055d 7F7A0000 		.4byte	.LASF228
 8355 0561 05       		.byte	0x5
 8356 0562 00       		.uleb128 0
 8357 0563 C88A0000 		.4byte	.LASF229
 8358 0567 05       		.byte	0x5
 8359 0568 00       		.uleb128 0
 8360 0569 CCA80000 		.4byte	.LASF230
 8361 056d 05       		.byte	0x5
 8362 056e 00       		.uleb128 0
 8363 056f AB3D0000 		.4byte	.LASF231
 8364 0573 05       		.byte	0x5
 8365 0574 00       		.uleb128 0
 8366 0575 D9640000 		.4byte	.LASF232
 8367 0579 05       		.byte	0x5
 8368 057a 00       		.uleb128 0
 8369 057b 6F0A0000 		.4byte	.LASF233
 8370 057f 05       		.byte	0x5
 8371 0580 00       		.uleb128 0
ARM GAS  C:\Users\STUDENT\AppData\Local\Temp\ccMxouBa.s 			page 176


 8372 0581 DF080000 		.4byte	.LASF234
 8373 0585 05       		.byte	0x5
 8374 0586 00       		.uleb128 0
 8375 0587 FF880000 		.4byte	.LASF235
 8376 058b 05       		.byte	0x5
 8377 058c 00       		.uleb128 0
 8378 058d D5940000 		.4byte	.LASF236
 8379 0591 05       		.byte	0x5
 8380 0592 00       		.uleb128 0
 8381 0593 168E0000 		.4byte	.LASF237
 8382 0597 05       		.byte	0x5
 8383 0598 00       		.uleb128 0
 8384 0599 AB050000 		.4byte	.LASF238
 8385 059d 05       		.byte	0x5
 8386 059e 00       		.uleb128 0
 8387 059f D4490000 		.4byte	.LASF239
 8388 05a3 05       		.byte	0x5
 8389 05a4 00       		.uleb128 0
 8390 05a5 999D0000 		.4byte	.LASF240
 8391 05a9 05       		.byte	0x5
 8392 05aa 00       		.uleb128 0
 8393 05ab A4570000 		.4byte	.LASF241
 8394 05af 05       		.byte	0x5
 8395 05b0 00       		.uleb128 0
 8396 05b1 761A0000 		.4byte	.LASF242
 8397 05b5 05       		.byte	0x5
 8398 05b6 00       		.uleb128 0
 8399 05b7 9C3A0000 		.4byte	.LASF243
 8400 05bb 05       		.byte	0x5
 8401 05bc 00       		.uleb128 0
 8402 05bd B4530000 		.4byte	.LASF244
 8403 05c1 05       		.byte	0x5
 8404 05c2 00       		.uleb128 0
 8405 05c3 863C0000 		.4byte	.LASF245
 8406 05c7 05       		.byte	0x5
 8407 05c8 00       		.uleb128 0
 8408 05c9 8E270000 		.4byte	.LASF246
 8409 05cd 05       		.byte	0x5
 8410 05ce 00       		.uleb128 0
 8411 05cf FE8C0000 		.4byte	.LASF247
 8412 05d3 05       		.byte	0x5
 8413 05d4 00       		.uleb128 0
 8414 05d5 3C970000 		.4byte	.LASF248
 8415 05d9 05       		.byte	0x5
 8416 05da 00       		.uleb128 0
 8417 05db 1D0C0000 		.4byte	.LASF249
 8418 05df 05       		.byte	0x5
 8419 05e0 00       		.uleb128 0
 8420 05e1 70030000 		.4byte	.LASF250
 8421 05e5 05       		.byte	0x5
 8422 05e6 00       		.uleb128 0
 8423 05e7 03930000 		.4byte	.LASF251
 8424 05eb 05       		.byte	0x5
 8425 05ec 00       		.uleb128 0
 8426 05ed 1D780000 		.4byte	.LASF252
 8427 05f1 05       		.byte	0x5
 8428 05f2 00       		.uleb128 0
ARM GAS  C:\Users\STUDENT\AppData\Local\Temp\ccMxouBa.s 			page 177


 8429 05f3 87580000 		.4byte	.LASF253
 8430 05f7 05       		.byte	0x5
 8431 05f8 00       		.uleb128 0
 8432 05f9 CD7F0000 		.4byte	.LASF254
 8433 05fd 05       		.byte	0x5
 8434 05fe 00       		.uleb128 0
 8435 05ff B49D0000 		.4byte	.LASF255
 8436 0603 05       		.byte	0x5
 8437 0604 00       		.uleb128 0
 8438 0605 8F850000 		.4byte	.LASF256
 8439 0609 05       		.byte	0x5
 8440 060a 00       		.uleb128 0
 8441 060b 994D0000 		.4byte	.LASF257
 8442 060f 05       		.byte	0x5
 8443 0610 00       		.uleb128 0
 8444 0611 49030000 		.4byte	.LASF258
 8445 0615 05       		.byte	0x5
 8446 0616 00       		.uleb128 0
 8447 0617 A2440000 		.4byte	.LASF259
 8448 061b 05       		.byte	0x5
 8449 061c 00       		.uleb128 0
 8450 061d F47D0000 		.4byte	.LASF260
 8451 0621 05       		.byte	0x5
 8452 0622 00       		.uleb128 0
 8453 0623 F32D0000 		.4byte	.LASF261
 8454 0627 05       		.byte	0x5
 8455 0628 00       		.uleb128 0
 8456 0629 C1950000 		.4byte	.LASF262
 8457 062d 05       		.byte	0x5
 8458 062e 00       		.uleb128 0
 8459 062f B3970000 		.4byte	.LASF263
 8460 0633 05       		.byte	0x5
 8461 0634 00       		.uleb128 0
 8462 0635 46080000 		.4byte	.LASF264
 8463 0639 05       		.byte	0x5
 8464 063a 00       		.uleb128 0
 8465 063b AB380000 		.4byte	.LASF265
 8466 063f 05       		.byte	0x5
 8467 0640 00       		.uleb128 0
 8468 0641 94940000 		.4byte	.LASF266
 8469 0645 05       		.byte	0x5
 8470 0646 00       		.uleb128 0
 8471 0647 13850000 		.4byte	.LASF267
 8472 064b 05       		.byte	0x5
 8473 064c 00       		.uleb128 0
 8474 064d 27A10000 		.4byte	.LASF268
 8475 0651 05       		.byte	0x5
 8476 0652 00       		.uleb128 0
 8477 0653 873D0000 		.4byte	.LASF269
 8478 0657 05       		.byte	0x5
 8479 0658 00       		.uleb128 0
 8480 0659 14130000 		.4byte	.LASF270
 8481 065d 05       		.byte	0x5
 8482 065e 00       		.uleb128 0
 8483 065f 1F090000 		.4byte	.LASF271
 8484 0663 05       		.byte	0x5
 8485 0664 00       		.uleb128 0
ARM GAS  C:\Users\STUDENT\AppData\Local\Temp\ccMxouBa.s 			page 178


 8486 0665 39790000 		.4byte	.LASF272
 8487 0669 05       		.byte	0x5
 8488 066a 00       		.uleb128 0
 8489 066b 5C800000 		.4byte	.LASF273
 8490 066f 05       		.byte	0x5
 8491 0670 00       		.uleb128 0
 8492 0671 A22C0000 		.4byte	.LASF274
 8493 0675 05       		.byte	0x5
 8494 0676 00       		.uleb128 0
 8495 0677 E2040000 		.4byte	.LASF275
 8496 067b 05       		.byte	0x5
 8497 067c 00       		.uleb128 0
 8498 067d 4F670000 		.4byte	.LASF276
 8499 0681 05       		.byte	0x5
 8500 0682 00       		.uleb128 0
 8501 0683 E4400000 		.4byte	.LASF277
 8502 0687 05       		.byte	0x5
 8503 0688 00       		.uleb128 0
 8504 0689 EF130000 		.4byte	.LASF278
 8505 068d 05       		.byte	0x5
 8506 068e 00       		.uleb128 0
 8507 068f CF860000 		.4byte	.LASF279
 8508 0693 05       		.byte	0x5
 8509 0694 00       		.uleb128 0
 8510 0695 D3120000 		.4byte	.LASF280
 8511 0699 05       		.byte	0x5
 8512 069a 00       		.uleb128 0
 8513 069b 4C860000 		.4byte	.LASF281
 8514 069f 05       		.byte	0x5
 8515 06a0 00       		.uleb128 0
 8516 06a1 44620000 		.4byte	.LASF282
 8517 06a5 05       		.byte	0x5
 8518 06a6 00       		.uleb128 0
 8519 06a7 DB9A0000 		.4byte	.LASF283
 8520 06ab 05       		.byte	0x5
 8521 06ac 00       		.uleb128 0
 8522 06ad 317D0000 		.4byte	.LASF284
 8523 06b1 05       		.byte	0x5
 8524 06b2 00       		.uleb128 0
 8525 06b3 5E830000 		.4byte	.LASF285
 8526 06b7 05       		.byte	0x5
 8527 06b8 00       		.uleb128 0
 8528 06b9 47330000 		.4byte	.LASF286
 8529 06bd 05       		.byte	0x5
 8530 06be 00       		.uleb128 0
 8531 06bf F15A0000 		.4byte	.LASF287
 8532 06c3 05       		.byte	0x5
 8533 06c4 00       		.uleb128 0
 8534 06c5 6D830000 		.4byte	.LASF288
 8535 06c9 05       		.byte	0x5
 8536 06ca 00       		.uleb128 0
 8537 06cb EC4A0000 		.4byte	.LASF289
 8538 06cf 05       		.byte	0x5
 8539 06d0 00       		.uleb128 0
 8540 06d1 A5370000 		.4byte	.LASF290
 8541 06d5 05       		.byte	0x5
 8542 06d6 00       		.uleb128 0
ARM GAS  C:\Users\STUDENT\AppData\Local\Temp\ccMxouBa.s 			page 179


 8543 06d7 F5A50000 		.4byte	.LASF291
 8544 06db 05       		.byte	0x5
 8545 06dc 00       		.uleb128 0
 8546 06dd 683F0000 		.4byte	.LASF292
 8547 06e1 05       		.byte	0x5
 8548 06e2 00       		.uleb128 0
 8549 06e3 26020000 		.4byte	.LASF293
 8550 06e7 05       		.byte	0x5
 8551 06e8 00       		.uleb128 0
 8552 06e9 CA000000 		.4byte	.LASF294
 8553 06ed 05       		.byte	0x5
 8554 06ee 00       		.uleb128 0
 8555 06ef 709D0000 		.4byte	.LASF295
 8556 06f3 05       		.byte	0x5
 8557 06f4 00       		.uleb128 0
 8558 06f5 92690000 		.4byte	.LASF296
 8559 06f9 05       		.byte	0x5
 8560 06fa 00       		.uleb128 0
 8561 06fb 9D310000 		.4byte	.LASF297
 8562 06ff 05       		.byte	0x5
 8563 0700 00       		.uleb128 0
 8564 0701 BD1C0000 		.4byte	.LASF298
 8565 0705 05       		.byte	0x5
 8566 0706 00       		.uleb128 0
 8567 0707 638F0000 		.4byte	.LASF299
 8568 070b 05       		.byte	0x5
 8569 070c 00       		.uleb128 0
 8570 070d 7F130000 		.4byte	.LASF300
 8571 0711 05       		.byte	0x5
 8572 0712 00       		.uleb128 0
 8573 0713 B1950000 		.4byte	.LASF301
 8574 0717 05       		.byte	0x5
 8575 0718 00       		.uleb128 0
 8576 0719 508B0000 		.4byte	.LASF302
 8577 071d 05       		.byte	0x5
 8578 071e 00       		.uleb128 0
 8579 071f 61450000 		.4byte	.LASF303
 8580 0723 05       		.byte	0x5
 8581 0724 00       		.uleb128 0
 8582 0725 180F0000 		.4byte	.LASF304
 8583 0729 05       		.byte	0x5
 8584 072a 00       		.uleb128 0
 8585 072b 6F130000 		.4byte	.LASF305
 8586 072f 05       		.byte	0x5
 8587 0730 00       		.uleb128 0
 8588 0731 2F870000 		.4byte	.LASF306
 8589 0735 05       		.byte	0x5
 8590 0736 00       		.uleb128 0
 8591 0737 090D0000 		.4byte	.LASF307
 8592 073b 05       		.byte	0x5
 8593 073c 00       		.uleb128 0
 8594 073d AD310000 		.4byte	.LASF308
 8595 0741 05       		.byte	0x5
 8596 0742 00       		.uleb128 0
 8597 0743 C8740000 		.4byte	.LASF309
 8598 0747 05       		.byte	0x5
 8599 0748 00       		.uleb128 0
ARM GAS  C:\Users\STUDENT\AppData\Local\Temp\ccMxouBa.s 			page 180


 8600 0749 9F1D0000 		.4byte	.LASF310
 8601 074d 05       		.byte	0x5
 8602 074e 00       		.uleb128 0
 8603 074f 476A0000 		.4byte	.LASF311
 8604 0753 05       		.byte	0x5
 8605 0754 00       		.uleb128 0
 8606 0755 52510000 		.4byte	.LASF312
 8607 0759 05       		.byte	0x5
 8608 075a 00       		.uleb128 0
 8609 075b FC260000 		.4byte	.LASF313
 8610 075f 05       		.byte	0x5
 8611 0760 00       		.uleb128 0
 8612 0761 24980000 		.4byte	.LASF314
 8613 0765 05       		.byte	0x5
 8614 0766 00       		.uleb128 0
 8615 0767 0E3D0000 		.4byte	.LASF315
 8616 076b 05       		.byte	0x5
 8617 076c 00       		.uleb128 0
 8618 076d 12870000 		.4byte	.LASF316
 8619 0771 05       		.byte	0x5
 8620 0772 00       		.uleb128 0
 8621 0773 92410000 		.4byte	.LASF317
 8622 0777 05       		.byte	0x5
 8623 0778 00       		.uleb128 0
 8624 0779 195B0000 		.4byte	.LASF318
 8625 077d 05       		.byte	0x5
 8626 077e 00       		.uleb128 0
 8627 077f E53D0000 		.4byte	.LASF319
 8628 0783 05       		.byte	0x5
 8629 0784 00       		.uleb128 0
 8630 0785 E6460000 		.4byte	.LASF320
 8631 0789 05       		.byte	0x5
 8632 078a 00       		.uleb128 0
 8633 078b 8C4A0000 		.4byte	.LASF321
 8634 078f 05       		.byte	0x5
 8635 0790 00       		.uleb128 0
 8636 0791 3B420000 		.4byte	.LASF322
 8637 0795 05       		.byte	0x5
 8638 0796 00       		.uleb128 0
 8639 0797 A59C0000 		.4byte	.LASF323
 8640 079b 05       		.byte	0x5
 8641 079c 00       		.uleb128 0
 8642 079d 80960000 		.4byte	.LASF324
 8643 07a1 05       		.byte	0x5
 8644 07a2 00       		.uleb128 0
 8645 07a3 DD670000 		.4byte	.LASF325
 8646 07a7 05       		.byte	0x5
 8647 07a8 00       		.uleb128 0
 8648 07a9 B9880000 		.4byte	.LASF326
 8649 07ad 05       		.byte	0x5
 8650 07ae 00       		.uleb128 0
 8651 07af 00550000 		.4byte	.LASF327
 8652 07b3 05       		.byte	0x5
 8653 07b4 00       		.uleb128 0
 8654 07b5 EC890000 		.4byte	.LASF328
 8655 07b9 05       		.byte	0x5
 8656 07ba 00       		.uleb128 0
ARM GAS  C:\Users\STUDENT\AppData\Local\Temp\ccMxouBa.s 			page 181


 8657 07bb 42A60000 		.4byte	.LASF329
 8658 07bf 05       		.byte	0x5
 8659 07c0 00       		.uleb128 0
 8660 07c1 C4A30000 		.4byte	.LASF330
 8661 07c5 05       		.byte	0x5
 8662 07c6 00       		.uleb128 0
 8663 07c7 19470000 		.4byte	.LASF331
 8664 07cb 05       		.byte	0x5
 8665 07cc 00       		.uleb128 0
 8666 07cd 1A6B0000 		.4byte	.LASF332
 8667 07d1 05       		.byte	0x5
 8668 07d2 00       		.uleb128 0
 8669 07d3 1D480000 		.4byte	.LASF333
 8670 07d7 05       		.byte	0x5
 8671 07d8 00       		.uleb128 0
 8672 07d9 F4090000 		.4byte	.LASF334
 8673 07dd 05       		.byte	0x5
 8674 07de 00       		.uleb128 0
 8675 07df C46B0000 		.4byte	.LASF335
 8676 07e3 05       		.byte	0x5
 8677 07e4 00       		.uleb128 0
 8678 07e5 CF580000 		.4byte	.LASF336
 8679 07e9 05       		.byte	0x5
 8680 07ea 00       		.uleb128 0
 8681 07eb C64E0000 		.4byte	.LASF337
 8682 07ef 05       		.byte	0x5
 8683 07f0 00       		.uleb128 0
 8684 07f1 1FA00000 		.4byte	.LASF338
 8685 07f5 05       		.byte	0x5
 8686 07f6 00       		.uleb128 0
 8687 07f7 9E990000 		.4byte	.LASF339
 8688 07fb 05       		.byte	0x5
 8689 07fc 00       		.uleb128 0
 8690 07fd D96F0000 		.4byte	.LASF340
 8691 0801 05       		.byte	0x5
 8692 0802 00       		.uleb128 0
 8693 0803 98A00000 		.4byte	.LASF341
 8694 0807 05       		.byte	0x5
 8695 0808 00       		.uleb128 0
 8696 0809 05840000 		.4byte	.LASF342
 8697 080d 05       		.byte	0x5
 8698 080e 00       		.uleb128 0
 8699 080f B24B0000 		.4byte	.LASF343
 8700 0813 05       		.byte	0x5
 8701 0814 00       		.uleb128 0
 8702 0815 01160000 		.4byte	.LASF344
 8703 0819 05       		.byte	0x5
 8704 081a 00       		.uleb128 0
 8705 081b 771E0000 		.4byte	.LASF345
 8706 081f 05       		.byte	0x5
 8707 0820 00       		.uleb128 0
 8708 0821 4F1C0000 		.4byte	.LASF346
 8709 0825 05       		.byte	0x5
 8710 0826 00       		.uleb128 0
 8711 0827 5C4E0000 		.4byte	.LASF347
 8712 082b 05       		.byte	0x5
 8713 082c 00       		.uleb128 0
ARM GAS  C:\Users\STUDENT\AppData\Local\Temp\ccMxouBa.s 			page 182


 8714 082d CD830000 		.4byte	.LASF348
 8715 0831 05       		.byte	0x5
 8716 0832 00       		.uleb128 0
 8717 0833 6E400000 		.4byte	.LASF349
 8718 0837 05       		.byte	0x5
 8719 0838 00       		.uleb128 0
 8720 0839 5F680000 		.4byte	.LASF350
 8721 083d 05       		.byte	0x5
 8722 083e 00       		.uleb128 0
 8723 083f 0C040000 		.4byte	.LASF351
 8724 0843 05       		.byte	0x5
 8725 0844 00       		.uleb128 0
 8726 0845 3B4E0000 		.4byte	.LASF352
 8727 0849 05       		.byte	0x5
 8728 084a 00       		.uleb128 0
 8729 084b DC830000 		.4byte	.LASF353
 8730 084f 05       		.byte	0x5
 8731 0850 00       		.uleb128 0
 8732 0851 962D0000 		.4byte	.LASF354
 8733 0855 00       		.byte	0
 8734              		.section	.debug_macro,"G",%progbits,wm4.LPC17xx.h.27.964facdaadd4aa3f18ac78c8a78f0013,comdat
 8735              	.Ldebug_macro2:
 8736 0000 0400     		.2byte	0x4
 8737 0002 00       		.byte	0
 8738 0003 05       		.byte	0x5
 8739 0004 1B       		.uleb128 0x1b
 8740 0005 25140000 		.4byte	.LASF356
 8741 0009 05       		.byte	0x5
 8742 000a 62       		.uleb128 0x62
 8743 000b 7F4E0000 		.4byte	.LASF357
 8744 000f 05       		.byte	0x5
 8745 0010 63       		.uleb128 0x63
 8746 0011 0B320000 		.4byte	.LASF358
 8747 0015 05       		.byte	0x5
 8748 0016 64       		.uleb128 0x64
 8749 0017 F4700000 		.4byte	.LASF359
 8750 001b 00       		.byte	0
 8751              		.section	.debug_macro,"G",%progbits,wm4.core_cm3.h.32.ec4df48419563a0d596421d1133ac586,comdat
 8752              	.Ldebug_macro3:
 8753 0000 0400     		.2byte	0x4
 8754 0002 00       		.byte	0
 8755 0003 05       		.byte	0x5
 8756 0004 20       		.uleb128 0x20
 8757 0005 44320000 		.4byte	.LASF360
 8758 0009 05       		.byte	0x5
 8759 000a 37       		.uleb128 0x37
 8760 000b 72770000 		.4byte	.LASF361
 8761 000f 05       		.byte	0x5
 8762 0010 38       		.uleb128 0x38
 8763 0011 1C420000 		.4byte	.LASF362
 8764 0015 05       		.byte	0x5
 8765 0016 39       		.uleb128 0x39
 8766 0017 9F2B0000 		.4byte	.LASF363
 8767 001b 05       		.byte	0x5
 8768 001c 3B       		.uleb128 0x3b
 8769 001d 0F4E0000 		.4byte	.LASF364
 8770 0021 05       		.byte	0x5
ARM GAS  C:\Users\STUDENT\AppData\Local\Temp\ccMxouBa.s 			page 183


 8771 0022 47       		.uleb128 0x47
 8772 0023 2B150000 		.4byte	.LASF365
 8773 0027 05       		.byte	0x5
 8774 0028 48       		.uleb128 0x48
 8775 0029 54620000 		.4byte	.LASF366
 8776 002d 00       		.byte	0
 8777              		.section	.debug_macro,"G",%progbits,wm4._newlib_version.h.4.ad342815780c8db09778091a421b5b5b,comda
 8778              	.Ldebug_macro4:
 8779 0000 0400     		.2byte	0x4
 8780 0002 00       		.byte	0
 8781 0003 05       		.byte	0x5
 8782 0004 04       		.uleb128 0x4
 8783 0005 63580000 		.4byte	.LASF370
 8784 0009 05       		.byte	0x5
 8785 000a 06       		.uleb128 0x6
 8786 000b 6F5C0000 		.4byte	.LASF371
 8787 000f 05       		.byte	0x5
 8788 0010 07       		.uleb128 0x7
 8789 0011 99230000 		.4byte	.LASF372
 8790 0015 05       		.byte	0x5
 8791 0016 08       		.uleb128 0x8
 8792 0017 478E0000 		.4byte	.LASF373
 8793 001b 05       		.byte	0x5
 8794 001c 09       		.uleb128 0x9
 8795 001d 06770000 		.4byte	.LASF374
 8796 0021 00       		.byte	0
 8797              		.section	.debug_macro,"G",%progbits,wm4.features.h.33.863f3be0b2e521e624fcc7d6fa31d2ca,comdat
 8798              	.Ldebug_macro5:
 8799 0000 0400     		.2byte	0x4
 8800 0002 00       		.byte	0
 8801 0003 05       		.byte	0x5
 8802 0004 21       		.uleb128 0x21
 8803 0005 011A0000 		.4byte	.LASF375
 8804 0009 05       		.byte	0x5
 8805 000a 28       		.uleb128 0x28
 8806 000b 7B950000 		.4byte	.LASF376
 8807 000f 06       		.byte	0x6
 8808 0010 8001     		.uleb128 0x80
 8809 0012 DC990000 		.4byte	.LASF377
 8810 0016 05       		.byte	0x5
 8811 0017 8101     		.uleb128 0x81
 8812 0019 EB4E0000 		.4byte	.LASF378
 8813 001d 06       		.byte	0x6
 8814 001e 8501     		.uleb128 0x85
 8815 0020 1C670000 		.4byte	.LASF379
 8816 0024 05       		.byte	0x5
 8817 0025 8601     		.uleb128 0x86
 8818 0027 079D0000 		.4byte	.LASF380
 8819 002b 06       		.byte	0x6
 8820 002c 8701     		.uleb128 0x87
 8821 002e 40A90000 		.4byte	.LASF381
 8822 0032 05       		.byte	0x5
 8823 0033 8801     		.uleb128 0x88
 8824 0035 43200000 		.4byte	.LASF382
 8825 0039 06       		.byte	0x6
 8826 003a 9B01     		.uleb128 0x9b
 8827 003c 47460000 		.4byte	.LASF383
ARM GAS  C:\Users\STUDENT\AppData\Local\Temp\ccMxouBa.s 			page 184


 8828 0040 05       		.byte	0x5
 8829 0041 9C01     		.uleb128 0x9c
 8830 0043 715F0000 		.4byte	.LASF384
 8831 0047 05       		.byte	0x5
 8832 0048 F201     		.uleb128 0xf2
 8833 004a 39440000 		.4byte	.LASF385
 8834 004e 05       		.byte	0x5
 8835 004f F801     		.uleb128 0xf8
 8836 0051 A75D0000 		.4byte	.LASF386
 8837 0055 05       		.byte	0x5
 8838 0056 8002     		.uleb128 0x100
 8839 0058 17790000 		.4byte	.LASF387
 8840 005c 05       		.byte	0x5
 8841 005d 8802     		.uleb128 0x108
 8842 005f 11250000 		.4byte	.LASF388
 8843 0063 05       		.byte	0x5
 8844 0064 9002     		.uleb128 0x110
 8845 0066 5D230000 		.4byte	.LASF389
 8846 006a 05       		.byte	0x5
 8847 006b 9402     		.uleb128 0x114
 8848 006d 25740000 		.4byte	.LASF390
 8849 0071 05       		.byte	0x5
 8850 0072 9A02     		.uleb128 0x11a
 8851 0074 9F610000 		.4byte	.LASF391
 8852 0078 05       		.byte	0x5
 8853 0079 AA02     		.uleb128 0x12a
 8854 007b 72360000 		.4byte	.LASF392
 8855 007f 05       		.byte	0x5
 8856 0080 BA02     		.uleb128 0x13a
 8857 0082 3B940000 		.4byte	.LASF393
 8858 0086 00       		.byte	0
 8859              		.section	.debug_macro,"G",%progbits,wm4._default_types.h.15.933e8edd27a65e0b69af4a865eb623d2,comda
 8860              	.Ldebug_macro6:
 8861 0000 0400     		.2byte	0x4
 8862 0002 00       		.byte	0
 8863 0003 05       		.byte	0x5
 8864 0004 0F       		.uleb128 0xf
 8865 0005 C55F0000 		.4byte	.LASF394
 8866 0009 05       		.byte	0x5
 8867 000a 21       		.uleb128 0x21
 8868 000b A84A0000 		.4byte	.LASF395
 8869 000f 05       		.byte	0x5
 8870 0010 2F       		.uleb128 0x2f
 8871 0011 C7350000 		.4byte	.LASF396
 8872 0015 05       		.byte	0x5
 8873 0016 45       		.uleb128 0x45
 8874 0017 59A00000 		.4byte	.LASF397
 8875 001b 05       		.byte	0x5
 8876 001c 5F       		.uleb128 0x5f
 8877 001d 74740000 		.4byte	.LASF398
 8878 0021 05       		.byte	0x5
 8879 0022 7E       		.uleb128 0x7e
 8880 0023 45680000 		.4byte	.LASF399
 8881 0027 05       		.byte	0x5
 8882 0028 9801     		.uleb128 0x98
 8883 002a 06380000 		.4byte	.LASF400
 8884 002e 05       		.byte	0x5
ARM GAS  C:\Users\STUDENT\AppData\Local\Temp\ccMxouBa.s 			page 185


 8885 002f AE01     		.uleb128 0xae
 8886 0031 9E880000 		.4byte	.LASF401
 8887 0035 05       		.byte	0x5
 8888 0036 C001     		.uleb128 0xc0
 8889 0038 B25E0000 		.4byte	.LASF402
 8890 003c 06       		.byte	0x6
 8891 003d D601     		.uleb128 0xd6
 8892 003f 5B740000 		.4byte	.LASF403
 8893 0043 00       		.byte	0
 8894              		.section	.debug_macro,"G",%progbits,wm4._intsup.h.10.b82bf99f69d6a5c085fc866de0d3eb9b,comdat
 8895              	.Ldebug_macro7:
 8896 0000 0400     		.2byte	0x4
 8897 0002 00       		.byte	0
 8898 0003 05       		.byte	0x5
 8899 0004 0A       		.uleb128 0xa
 8900 0005 129C0000 		.4byte	.LASF404
 8901 0009 05       		.byte	0x5
 8902 000a 10       		.uleb128 0x10
 8903 000b 825F0000 		.4byte	.LASF405
 8904 000f 05       		.byte	0x5
 8905 0010 1A       		.uleb128 0x1a
 8906 0011 607E0000 		.4byte	.LASF406
 8907 0015 05       		.byte	0x5
 8908 0016 21       		.uleb128 0x21
 8909 0017 18900000 		.4byte	.LASF407
 8910 001b 06       		.byte	0x6
 8911 001c 38       		.uleb128 0x38
 8912 001d 0A4B0000 		.4byte	.LASF408
 8913 0021 06       		.byte	0x6
 8914 0022 39       		.uleb128 0x39
 8915 0023 D10B0000 		.4byte	.LASF409
 8916 0027 06       		.byte	0x6
 8917 0028 3A       		.uleb128 0x3a
 8918 0029 98310000 		.4byte	.LASF410
 8919 002d 06       		.byte	0x6
 8920 002e 3B       		.uleb128 0x3b
 8921 002f 63700000 		.4byte	.LASF411
 8922 0033 02       		.byte	0x2
 8923 0034 3C       		.uleb128 0x3c
 8924 0035 696E7400 		.ascii	"int\000"
 8925 0039 06       		.byte	0x6
 8926 003a 3D       		.uleb128 0x3d
 8927 003b F7A70000 		.4byte	.LASF412
 8928 003f 06       		.byte	0x6
 8929 0040 3E       		.uleb128 0x3e
 8930 0041 4D700000 		.4byte	.LASF413
 8931 0045 05       		.byte	0x5
 8932 0046 3F       		.uleb128 0x3f
 8933 0047 DF0E0000 		.4byte	.LASF414
 8934 004b 05       		.byte	0x5
 8935 004c 40       		.uleb128 0x40
 8936 004d 00520000 		.4byte	.LASF415
 8937 0051 05       		.byte	0x5
 8938 0052 41       		.uleb128 0x41
 8939 0053 CC670000 		.4byte	.LASF416
 8940 0057 05       		.byte	0x5
 8941 0058 42       		.uleb128 0x42
ARM GAS  C:\Users\STUDENT\AppData\Local\Temp\ccMxouBa.s 			page 186


 8942 0059 04A60000 		.4byte	.LASF417
 8943 005d 05       		.byte	0x5
 8944 005e 43       		.uleb128 0x43
 8945 005f F5000000 		.4byte	.LASF418
 8946 0063 05       		.byte	0x5
 8947 0064 44       		.uleb128 0x44
 8948 0065 C44C0000 		.4byte	.LASF419
 8949 0069 05       		.byte	0x5
 8950 006a 45       		.uleb128 0x45
 8951 006b 1EA30000 		.4byte	.LASF420
 8952 006f 05       		.byte	0x5
 8953 0070 4E       		.uleb128 0x4e
 8954 0071 0D480000 		.4byte	.LASF421
 8955 0075 05       		.byte	0x5
 8956 0076 55       		.uleb128 0x55
 8957 0077 9DA10000 		.4byte	.LASF422
 8958 007b 05       		.byte	0x5
 8959 007c 5D       		.uleb128 0x5d
 8960 007d E80C0000 		.4byte	.LASF423
 8961 0081 05       		.byte	0x5
 8962 0082 68       		.uleb128 0x68
 8963 0083 ED660000 		.4byte	.LASF424
 8964 0087 05       		.byte	0x5
 8965 0088 73       		.uleb128 0x73
 8966 0089 B4980000 		.4byte	.LASF425
 8967 008d 05       		.byte	0x5
 8968 008e 7C       		.uleb128 0x7c
 8969 008f 1C160000 		.4byte	.LASF426
 8970 0093 05       		.byte	0x5
 8971 0094 8301     		.uleb128 0x83
 8972 0096 32940000 		.4byte	.LASF427
 8973 009a 05       		.byte	0x5
 8974 009b 8C01     		.uleb128 0x8c
 8975 009d ED220000 		.4byte	.LASF428
 8976 00a1 05       		.byte	0x5
 8977 00a2 9301     		.uleb128 0x93
 8978 00a4 32540000 		.4byte	.LASF429
 8979 00a8 05       		.byte	0x5
 8980 00a9 9E01     		.uleb128 0x9e
 8981 00ab A67E0000 		.4byte	.LASF430
 8982 00af 05       		.byte	0x5
 8983 00b0 A201     		.uleb128 0xa2
 8984 00b2 83380000 		.4byte	.LASF431
 8985 00b6 05       		.byte	0x5
 8986 00b7 AD01     		.uleb128 0xad
 8987 00b9 C19E0000 		.4byte	.LASF432
 8988 00bd 05       		.byte	0x5
 8989 00be B801     		.uleb128 0xb8
 8990 00c0 0E160000 		.4byte	.LASF433
 8991 00c4 05       		.byte	0x5
 8992 00c5 C101     		.uleb128 0xc1
 8993 00c7 886E0000 		.4byte	.LASF434
 8994 00cb 06       		.byte	0x6
 8995 00cc C301     		.uleb128 0xc3
 8996 00ce 0A4B0000 		.4byte	.LASF408
 8997 00d2 06       		.byte	0x6
 8998 00d3 C401     		.uleb128 0xc4
ARM GAS  C:\Users\STUDENT\AppData\Local\Temp\ccMxouBa.s 			page 187


 8999 00d5 D10B0000 		.4byte	.LASF409
 9000 00d9 06       		.byte	0x6
 9001 00da C501     		.uleb128 0xc5
 9002 00dc 98310000 		.4byte	.LASF410
 9003 00e0 06       		.byte	0x6
 9004 00e1 C601     		.uleb128 0xc6
 9005 00e3 63700000 		.4byte	.LASF411
 9006 00e7 02       		.byte	0x2
 9007 00e8 C701     		.uleb128 0xc7
 9008 00ea 696E7400 		.ascii	"int\000"
 9009 00ee 06       		.byte	0x6
 9010 00ef C801     		.uleb128 0xc8
 9011 00f1 4D700000 		.4byte	.LASF413
 9012 00f5 06       		.byte	0x6
 9013 00f6 CD01     		.uleb128 0xcd
 9014 00f8 F7A70000 		.4byte	.LASF412
 9015 00fc 00       		.byte	0
 9016              		.section	.debug_macro,"G",%progbits,wm4._stdint.h.10.7a5f60e6741af4a5594a3867d347e1f9,comdat
 9017              	.Ldebug_macro8:
 9018 0000 0400     		.2byte	0x4
 9019 0002 00       		.byte	0
 9020 0003 05       		.byte	0x5
 9021 0004 0A       		.uleb128 0xa
 9022 0005 DB4E0000 		.4byte	.LASF435
 9023 0009 05       		.byte	0x5
 9024 000a 15       		.uleb128 0x15
 9025 000b CC970000 		.4byte	.LASF436
 9026 000f 05       		.byte	0x5
 9027 0010 19       		.uleb128 0x19
 9028 0011 D4530000 		.4byte	.LASF437
 9029 0015 05       		.byte	0x5
 9030 0016 1B       		.uleb128 0x1b
 9031 0017 83360000 		.4byte	.LASF438
 9032 001b 05       		.byte	0x5
 9033 001c 21       		.uleb128 0x21
 9034 001d C6420000 		.4byte	.LASF439
 9035 0021 05       		.byte	0x5
 9036 0022 25       		.uleb128 0x25
 9037 0023 A3130000 		.4byte	.LASF440
 9038 0027 05       		.byte	0x5
 9039 0028 27       		.uleb128 0x27
 9040 0029 BBA20000 		.4byte	.LASF441
 9041 002d 05       		.byte	0x5
 9042 002e 2D       		.uleb128 0x2d
 9043 002f F0040000 		.4byte	.LASF442
 9044 0033 05       		.byte	0x5
 9045 0034 31       		.uleb128 0x31
 9046 0035 59040000 		.4byte	.LASF443
 9047 0039 05       		.byte	0x5
 9048 003a 33       		.uleb128 0x33
 9049 003b EE4B0000 		.4byte	.LASF444
 9050 003f 05       		.byte	0x5
 9051 0040 39       		.uleb128 0x39
 9052 0041 99810000 		.4byte	.LASF445
 9053 0045 05       		.byte	0x5
 9054 0046 3D       		.uleb128 0x3d
 9055 0047 811F0000 		.4byte	.LASF446
ARM GAS  C:\Users\STUDENT\AppData\Local\Temp\ccMxouBa.s 			page 188


 9056 004b 05       		.byte	0x5
 9057 004c 3F       		.uleb128 0x3f
 9058 004d 79930000 		.4byte	.LASF447
 9059 0051 05       		.byte	0x5
 9060 0052 44       		.uleb128 0x44
 9061 0053 C9560000 		.4byte	.LASF448
 9062 0057 05       		.byte	0x5
 9063 0058 49       		.uleb128 0x49
 9064 0059 66950000 		.4byte	.LASF449
 9065 005d 00       		.byte	0
 9066              		.section	.debug_macro,"G",%progbits,wm4.stdint.h.23.373a9d32a9e4c2e88fd347156532d281,comdat
 9067              	.Ldebug_macro9:
 9068 0000 0400     		.2byte	0x4
 9069 0002 00       		.byte	0
 9070 0003 05       		.byte	0x5
 9071 0004 17       		.uleb128 0x17
 9072 0005 089E0000 		.4byte	.LASF450
 9073 0009 05       		.byte	0x5
 9074 000a 1D       		.uleb128 0x1d
 9075 000b 6C3C0000 		.4byte	.LASF451
 9076 000f 05       		.byte	0x5
 9077 0010 23       		.uleb128 0x23
 9078 0011 47450000 		.4byte	.LASF452
 9079 0015 05       		.byte	0x5
 9080 0016 29       		.uleb128 0x29
 9081 0017 75430000 		.4byte	.LASF453
 9082 001b 05       		.byte	0x5
 9083 001c 35       		.uleb128 0x35
 9084 001d D7680000 		.4byte	.LASF454
 9085 0021 05       		.byte	0x5
 9086 0022 3F       		.uleb128 0x3f
 9087 0023 92660000 		.4byte	.LASF455
 9088 0027 05       		.byte	0x5
 9089 0028 49       		.uleb128 0x49
 9090 0029 EC110000 		.4byte	.LASF456
 9091 002d 05       		.byte	0x5
 9092 002e 53       		.uleb128 0x53
 9093 002f 7D2D0000 		.4byte	.LASF457
 9094 0033 05       		.byte	0x5
 9095 0034 9301     		.uleb128 0x93
 9096 0036 F03F0000 		.4byte	.LASF458
 9097 003a 05       		.byte	0x5
 9098 003b 9401     		.uleb128 0x94
 9099 003d 3E690000 		.4byte	.LASF459
 9100 0041 05       		.byte	0x5
 9101 0042 9501     		.uleb128 0x95
 9102 0044 4E1E0000 		.4byte	.LASF460
 9103 0048 05       		.byte	0x5
 9104 0049 AB01     		.uleb128 0xab
 9105 004b 56460000 		.4byte	.LASF461
 9106 004f 05       		.byte	0x5
 9107 0050 AC01     		.uleb128 0xac
 9108 0052 910E0000 		.4byte	.LASF462
 9109 0056 05       		.byte	0x5
 9110 0057 AD01     		.uleb128 0xad
 9111 0059 88A20000 		.4byte	.LASF463
 9112 005d 05       		.byte	0x5
ARM GAS  C:\Users\STUDENT\AppData\Local\Temp\ccMxouBa.s 			page 189


 9113 005e B501     		.uleb128 0xb5
 9114 0060 D3920000 		.4byte	.LASF464
 9115 0064 05       		.byte	0x5
 9116 0065 B601     		.uleb128 0xb6
 9117 0067 07150000 		.4byte	.LASF465
 9118 006b 05       		.byte	0x5
 9119 006c B701     		.uleb128 0xb7
 9120 006e 26860000 		.4byte	.LASF466
 9121 0072 05       		.byte	0x5
 9122 0073 C101     		.uleb128 0xc1
 9123 0075 616C0000 		.4byte	.LASF467
 9124 0079 05       		.byte	0x5
 9125 007a C201     		.uleb128 0xc2
 9126 007c 3F110000 		.4byte	.LASF468
 9127 0080 05       		.byte	0x5
 9128 0081 C301     		.uleb128 0xc3
 9129 0083 34480000 		.4byte	.LASF469
 9130 0087 05       		.byte	0x5
 9131 0088 CB01     		.uleb128 0xcb
 9132 008a B75D0000 		.4byte	.LASF470
 9133 008e 05       		.byte	0x5
 9134 008f CC01     		.uleb128 0xcc
 9135 0091 2E0D0000 		.4byte	.LASF471
 9136 0095 05       		.byte	0x5
 9137 0096 CD01     		.uleb128 0xcd
 9138 0098 E9390000 		.4byte	.LASF472
 9139 009c 05       		.byte	0x5
 9140 009d D701     		.uleb128 0xd7
 9141 009f E6830000 		.4byte	.LASF473
 9142 00a3 05       		.byte	0x5
 9143 00a4 D801     		.uleb128 0xd8
 9144 00a6 80370000 		.4byte	.LASF474
 9145 00aa 05       		.byte	0x5
 9146 00ab D901     		.uleb128 0xd9
 9147 00ad CE430000 		.4byte	.LASF475
 9148 00b1 05       		.byte	0x5
 9149 00b2 E701     		.uleb128 0xe7
 9150 00b4 E33C0000 		.4byte	.LASF476
 9151 00b8 05       		.byte	0x5
 9152 00b9 E801     		.uleb128 0xe8
 9153 00bb B13C0000 		.4byte	.LASF477
 9154 00bf 05       		.byte	0x5
 9155 00c0 E901     		.uleb128 0xe9
 9156 00c2 068A0000 		.4byte	.LASF478
 9157 00c6 05       		.byte	0x5
 9158 00c7 F901     		.uleb128 0xf9
 9159 00c9 BB8F0000 		.4byte	.LASF479
 9160 00cd 05       		.byte	0x5
 9161 00ce FA01     		.uleb128 0xfa
 9162 00d0 4E630000 		.4byte	.LASF480
 9163 00d4 05       		.byte	0x5
 9164 00d5 FB01     		.uleb128 0xfb
 9165 00d7 E4900000 		.4byte	.LASF481
 9166 00db 05       		.byte	0x5
 9167 00dc 8902     		.uleb128 0x109
 9168 00de 3A170000 		.4byte	.LASF482
 9169 00e2 05       		.byte	0x5
ARM GAS  C:\Users\STUDENT\AppData\Local\Temp\ccMxouBa.s 			page 190


 9170 00e3 8A02     		.uleb128 0x10a
 9171 00e5 FF130000 		.4byte	.LASF483
 9172 00e9 05       		.byte	0x5
 9173 00ea 8B02     		.uleb128 0x10b
 9174 00ec BF770000 		.4byte	.LASF484
 9175 00f0 05       		.byte	0x5
 9176 00f1 9902     		.uleb128 0x119
 9177 00f3 F3640000 		.4byte	.LASF485
 9178 00f7 05       		.byte	0x5
 9179 00f8 9A02     		.uleb128 0x11a
 9180 00fa F02B0000 		.4byte	.LASF486
 9181 00fe 05       		.byte	0x5
 9182 00ff 9B02     		.uleb128 0x11b
 9183 0101 CFA20000 		.4byte	.LASF487
 9184 0105 05       		.byte	0x5
 9185 0106 A902     		.uleb128 0x129
 9186 0108 6C280000 		.4byte	.LASF488
 9187 010c 05       		.byte	0x5
 9188 010d AA02     		.uleb128 0x12a
 9189 010f 10660000 		.4byte	.LASF489
 9190 0113 05       		.byte	0x5
 9191 0114 AB02     		.uleb128 0x12b
 9192 0116 84890000 		.4byte	.LASF490
 9193 011a 05       		.byte	0x5
 9194 011b B902     		.uleb128 0x139
 9195 011d 13190000 		.4byte	.LASF491
 9196 0121 05       		.byte	0x5
 9197 0122 BA02     		.uleb128 0x13a
 9198 0124 17A80000 		.4byte	.LASF492
 9199 0128 05       		.byte	0x5
 9200 0129 BB02     		.uleb128 0x13b
 9201 012b D2340000 		.4byte	.LASF493
 9202 012f 05       		.byte	0x5
 9203 0130 C902     		.uleb128 0x149
 9204 0132 496D0000 		.4byte	.LASF494
 9205 0136 05       		.byte	0x5
 9206 0137 CA02     		.uleb128 0x14a
 9207 0139 BA9C0000 		.4byte	.LASF495
 9208 013d 05       		.byte	0x5
 9209 013e CB02     		.uleb128 0x14b
 9210 0140 915A0000 		.4byte	.LASF496
 9211 0144 05       		.byte	0x5
 9212 0145 D902     		.uleb128 0x159
 9213 0147 64370000 		.4byte	.LASF497
 9214 014b 05       		.byte	0x5
 9215 014c DA02     		.uleb128 0x15a
 9216 014e 18260000 		.4byte	.LASF498
 9217 0152 05       		.byte	0x5
 9218 0153 E202     		.uleb128 0x162
 9219 0155 E4520000 		.4byte	.LASF499
 9220 0159 05       		.byte	0x5
 9221 015a EA02     		.uleb128 0x16a
 9222 015c 3D800000 		.4byte	.LASF500
 9223 0160 05       		.byte	0x5
 9224 0161 F002     		.uleb128 0x170
 9225 0163 F8970000 		.4byte	.LASF501
 9226 0167 05       		.byte	0x5
ARM GAS  C:\Users\STUDENT\AppData\Local\Temp\ccMxouBa.s 			page 191


 9227 0168 F102     		.uleb128 0x171
 9228 016a 1F340000 		.4byte	.LASF502
 9229 016e 05       		.byte	0x5
 9230 016f F502     		.uleb128 0x175
 9231 0171 E90E0000 		.4byte	.LASF503
 9232 0175 05       		.byte	0x5
 9233 0176 F902     		.uleb128 0x179
 9234 0178 EC310000 		.4byte	.LASF504
 9235 017c 05       		.byte	0x5
 9236 017d FE02     		.uleb128 0x17e
 9237 017f 77260000 		.4byte	.LASF505
 9238 0183 05       		.byte	0x5
 9239 0184 8903     		.uleb128 0x189
 9240 0186 B0140000 		.4byte	.LASF506
 9241 018a 05       		.byte	0x5
 9242 018b 9303     		.uleb128 0x193
 9243 018d 746A0000 		.4byte	.LASF507
 9244 0191 05       		.byte	0x5
 9245 0192 9803     		.uleb128 0x198
 9246 0194 86000000 		.4byte	.LASF508
 9247 0198 05       		.byte	0x5
 9248 0199 9F03     		.uleb128 0x19f
 9249 019b E54C0000 		.4byte	.LASF509
 9250 019f 05       		.byte	0x5
 9251 01a0 A003     		.uleb128 0x1a0
 9252 01a2 32920000 		.4byte	.LASF510
 9253 01a6 05       		.byte	0x5
 9254 01a7 AB03     		.uleb128 0x1ab
 9255 01a9 018F0000 		.4byte	.LASF511
 9256 01ad 05       		.byte	0x5
 9257 01ae AC03     		.uleb128 0x1ac
 9258 01b0 259B0000 		.4byte	.LASF512
 9259 01b4 05       		.byte	0x5
 9260 01b5 B703     		.uleb128 0x1b7
 9261 01b7 6C890000 		.4byte	.LASF513
 9262 01bb 05       		.byte	0x5
 9263 01bc B803     		.uleb128 0x1b8
 9264 01be 7F640000 		.4byte	.LASF514
 9265 01c2 05       		.byte	0x5
 9266 01c3 C403     		.uleb128 0x1c4
 9267 01c5 2F460000 		.4byte	.LASF515
 9268 01c9 05       		.byte	0x5
 9269 01ca C503     		.uleb128 0x1c5
 9270 01cc 5F930000 		.4byte	.LASF516
 9271 01d0 05       		.byte	0x5
 9272 01d1 D403     		.uleb128 0x1d4
 9273 01d3 D2310000 		.4byte	.LASF517
 9274 01d7 05       		.byte	0x5
 9275 01d8 D503     		.uleb128 0x1d5
 9276 01da 09740000 		.4byte	.LASF518
 9277 01de 00       		.byte	0
 9278              		.section	.debug_macro,"G",%progbits,wm4.core_cmInstr.h.25.367280a3dbe1a27f086157cbbb6352e1,comdat
 9279              	.Ldebug_macro10:
 9280 0000 0400     		.2byte	0x4
 9281 0002 00       		.byte	0
 9282 0003 05       		.byte	0x5
 9283 0004 19       		.uleb128 0x19
ARM GAS  C:\Users\STUDENT\AppData\Local\Temp\ccMxouBa.s 			page 192


 9284 0005 13A10000 		.4byte	.LASF520
 9285 0009 05       		.byte	0x5
 9286 000a CE05     		.uleb128 0x2ce
 9287 000c 78480000 		.4byte	.LASF521
 9288 0010 05       		.byte	0x5
 9289 0011 DE05     		.uleb128 0x2de
 9290 0013 00000000 		.4byte	.LASF522
 9291 0017 00       		.byte	0
 9292              		.section	.debug_macro,"G",%progbits,wm4.core_cm3.h.90.d0c8a7fd6bb95729c958e48b22262446,comdat
 9293              	.Ldebug_macro11:
 9294 0000 0400     		.2byte	0x4
 9295 0002 00       		.byte	0
 9296 0003 05       		.byte	0x5
 9297 0004 5A       		.uleb128 0x5a
 9298 0005 1A540000 		.4byte	.LASF524
 9299 0009 05       		.byte	0x5
 9300 000a 60       		.uleb128 0x60
 9301 000b C2930000 		.4byte	.LASF525
 9302 000f 05       		.byte	0x5
 9303 0010 62       		.uleb128 0x62
 9304 0011 E8410000 		.4byte	.LASF526
 9305 0015 05       		.byte	0x5
 9306 0016 63       		.uleb128 0x63
 9307 0017 70910000 		.4byte	.LASF527
 9308 001b 05       		.byte	0x5
 9309 001c 8702     		.uleb128 0x107
 9310 001e 747E0000 		.4byte	.LASF528
 9311 0022 05       		.byte	0x5
 9312 0023 8802     		.uleb128 0x108
 9313 0025 BB9F0000 		.4byte	.LASF529
 9314 0029 05       		.byte	0x5
 9315 002a 8A02     		.uleb128 0x10a
 9316 002c D7800000 		.4byte	.LASF530
 9317 0030 05       		.byte	0x5
 9318 0031 8B02     		.uleb128 0x10b
 9319 0033 99640000 		.4byte	.LASF531
 9320 0037 05       		.byte	0x5
 9321 0038 8D02     		.uleb128 0x10d
 9322 003a 273A0000 		.4byte	.LASF532
 9323 003e 05       		.byte	0x5
 9324 003f 8E02     		.uleb128 0x10e
 9325 0041 C8060000 		.4byte	.LASF533
 9326 0045 05       		.byte	0x5
 9327 0046 9002     		.uleb128 0x110
 9328 0048 F0200000 		.4byte	.LASF534
 9329 004c 05       		.byte	0x5
 9330 004d 9102     		.uleb128 0x111
 9331 004f 2F710000 		.4byte	.LASF535
 9332 0053 05       		.byte	0x5
 9333 0054 9402     		.uleb128 0x114
 9334 0056 796F0000 		.4byte	.LASF536
 9335 005a 05       		.byte	0x5
 9336 005b 9502     		.uleb128 0x115
 9337 005d 3E3A0000 		.4byte	.LASF537
 9338 0061 05       		.byte	0x5
 9339 0062 9702     		.uleb128 0x117
 9340 0064 78410000 		.4byte	.LASF538
ARM GAS  C:\Users\STUDENT\AppData\Local\Temp\ccMxouBa.s 			page 193


 9341 0068 05       		.byte	0x5
 9342 0069 9802     		.uleb128 0x118
 9343 006b 768A0000 		.4byte	.LASF539
 9344 006f 05       		.byte	0x5
 9345 0070 9A02     		.uleb128 0x11a
 9346 0072 8E920000 		.4byte	.LASF540
 9347 0076 05       		.byte	0x5
 9348 0077 9B02     		.uleb128 0x11b
 9349 0079 21380000 		.4byte	.LASF541
 9350 007d 05       		.byte	0x5
 9351 007e 9D02     		.uleb128 0x11d
 9352 0080 FF5A0000 		.4byte	.LASF542
 9353 0084 05       		.byte	0x5
 9354 0085 9E02     		.uleb128 0x11e
 9355 0087 380A0000 		.4byte	.LASF543
 9356 008b 05       		.byte	0x5
 9357 008c A002     		.uleb128 0x120
 9358 008e 94630000 		.4byte	.LASF544
 9359 0092 05       		.byte	0x5
 9360 0093 A102     		.uleb128 0x121
 9361 0095 35890000 		.4byte	.LASF545
 9362 0099 05       		.byte	0x5
 9363 009a A302     		.uleb128 0x123
 9364 009c 346F0000 		.4byte	.LASF546
 9365 00a0 05       		.byte	0x5
 9366 00a1 A402     		.uleb128 0x124
 9367 00a3 624C0000 		.4byte	.LASF547
 9368 00a7 05       		.byte	0x5
 9369 00a8 A602     		.uleb128 0x126
 9370 00aa 2C350000 		.4byte	.LASF548
 9371 00ae 05       		.byte	0x5
 9372 00af A702     		.uleb128 0x127
 9373 00b1 F2490000 		.4byte	.LASF549
 9374 00b5 05       		.byte	0x5
 9375 00b6 A902     		.uleb128 0x129
 9376 00b8 5B5E0000 		.4byte	.LASF550
 9377 00bc 05       		.byte	0x5
 9378 00bd AA02     		.uleb128 0x12a
 9379 00bf 3B3E0000 		.4byte	.LASF551
 9380 00c3 05       		.byte	0x5
 9381 00c4 AC02     		.uleb128 0x12c
 9382 00c6 34220000 		.4byte	.LASF552
 9383 00ca 05       		.byte	0x5
 9384 00cb AD02     		.uleb128 0x12d
 9385 00cd 245F0000 		.4byte	.LASF553
 9386 00d1 05       		.byte	0x5
 9387 00d2 AF02     		.uleb128 0x12f
 9388 00d4 01110000 		.4byte	.LASF554
 9389 00d8 05       		.byte	0x5
 9390 00d9 B002     		.uleb128 0x130
 9391 00db A1270000 		.4byte	.LASF555
 9392 00df 05       		.byte	0x5
 9393 00e0 B302     		.uleb128 0x133
 9394 00e2 A4A00000 		.4byte	.LASF556
 9395 00e6 05       		.byte	0x5
 9396 00e7 B402     		.uleb128 0x134
 9397 00e9 DB8B0000 		.4byte	.LASF557
ARM GAS  C:\Users\STUDENT\AppData\Local\Temp\ccMxouBa.s 			page 194


 9398 00ed 05       		.byte	0x5
 9399 00ee B602     		.uleb128 0x136
 9400 00f0 C6990000 		.4byte	.LASF558
 9401 00f4 05       		.byte	0x5
 9402 00f5 B702     		.uleb128 0x137
 9403 00f7 96020000 		.4byte	.LASF559
 9404 00fb 05       		.byte	0x5
 9405 00fc BA02     		.uleb128 0x13a
 9406 00fe 39510000 		.4byte	.LASF560
 9407 0102 05       		.byte	0x5
 9408 0103 BB02     		.uleb128 0x13b
 9409 0105 824F0000 		.4byte	.LASF561
 9410 0109 05       		.byte	0x5
 9411 010a BD02     		.uleb128 0x13d
 9412 010c AA100000 		.4byte	.LASF562
 9413 0110 05       		.byte	0x5
 9414 0111 BE02     		.uleb128 0x13e
 9415 0113 5DA70000 		.4byte	.LASF563
 9416 0117 05       		.byte	0x5
 9417 0118 C002     		.uleb128 0x140
 9418 011a 17930000 		.4byte	.LASF564
 9419 011e 05       		.byte	0x5
 9420 011f C102     		.uleb128 0x141
 9421 0121 0E8C0000 		.4byte	.LASF565
 9422 0125 05       		.byte	0x5
 9423 0126 C302     		.uleb128 0x143
 9424 0128 56130000 		.4byte	.LASF566
 9425 012c 05       		.byte	0x5
 9426 012d C402     		.uleb128 0x144
 9427 012f 4E300000 		.4byte	.LASF567
 9428 0133 05       		.byte	0x5
 9429 0134 C602     		.uleb128 0x146
 9430 0136 CC410000 		.4byte	.LASF568
 9431 013a 05       		.byte	0x5
 9432 013b C702     		.uleb128 0x147
 9433 013d 36A10000 		.4byte	.LASF569
 9434 0141 05       		.byte	0x5
 9435 0142 C902     		.uleb128 0x149
 9436 0144 ADA10000 		.4byte	.LASF570
 9437 0148 05       		.byte	0x5
 9438 0149 CA02     		.uleb128 0x14a
 9439 014b 0A050000 		.4byte	.LASF571
 9440 014f 05       		.byte	0x5
 9441 0150 CC02     		.uleb128 0x14c
 9442 0152 F78A0000 		.4byte	.LASF572
 9443 0156 05       		.byte	0x5
 9444 0157 CD02     		.uleb128 0x14d
 9445 0159 97470000 		.4byte	.LASF573
 9446 015d 05       		.byte	0x5
 9447 015e D002     		.uleb128 0x150
 9448 0160 DE6D0000 		.4byte	.LASF574
 9449 0164 05       		.byte	0x5
 9450 0165 D102     		.uleb128 0x151
 9451 0167 A8030000 		.4byte	.LASF575
 9452 016b 05       		.byte	0x5
 9453 016c D302     		.uleb128 0x153
 9454 016e 5A360000 		.4byte	.LASF576
ARM GAS  C:\Users\STUDENT\AppData\Local\Temp\ccMxouBa.s 			page 195


 9455 0172 05       		.byte	0x5
 9456 0173 D402     		.uleb128 0x154
 9457 0175 C6230000 		.4byte	.LASF577
 9458 0179 05       		.byte	0x5
 9459 017a D602     		.uleb128 0x156
 9460 017c 40360000 		.4byte	.LASF578
 9461 0180 05       		.byte	0x5
 9462 0181 D702     		.uleb128 0x157
 9463 0183 382A0000 		.4byte	.LASF579
 9464 0187 05       		.byte	0x5
 9465 0188 DA02     		.uleb128 0x15a
 9466 018a 684E0000 		.4byte	.LASF580
 9467 018e 05       		.byte	0x5
 9468 018f DB02     		.uleb128 0x15b
 9469 0191 171F0000 		.4byte	.LASF581
 9470 0195 05       		.byte	0x5
 9471 0196 DD02     		.uleb128 0x15d
 9472 0198 EC7A0000 		.4byte	.LASF582
 9473 019c 05       		.byte	0x5
 9474 019d DE02     		.uleb128 0x15e
 9475 019f 3D7B0000 		.4byte	.LASF583
 9476 01a3 05       		.byte	0x5
 9477 01a4 E002     		.uleb128 0x160
 9478 01a6 2A7E0000 		.4byte	.LASF584
 9479 01aa 05       		.byte	0x5
 9480 01ab E102     		.uleb128 0x161
 9481 01ad 093C0000 		.4byte	.LASF585
 9482 01b1 05       		.byte	0x5
 9483 01b2 E302     		.uleb128 0x163
 9484 01b4 006B0000 		.4byte	.LASF586
 9485 01b8 05       		.byte	0x5
 9486 01b9 E402     		.uleb128 0x164
 9487 01bb 8C090000 		.4byte	.LASF587
 9488 01bf 05       		.byte	0x5
 9489 01c0 E602     		.uleb128 0x166
 9490 01c2 408D0000 		.4byte	.LASF588
 9491 01c6 05       		.byte	0x5
 9492 01c7 E702     		.uleb128 0x167
 9493 01c9 EF020000 		.4byte	.LASF589
 9494 01cd 05       		.byte	0x5
 9495 01ce E902     		.uleb128 0x169
 9496 01d0 5E020000 		.4byte	.LASF590
 9497 01d4 05       		.byte	0x5
 9498 01d5 EA02     		.uleb128 0x16a
 9499 01d7 D8170000 		.4byte	.LASF591
 9500 01db 05       		.byte	0x5
 9501 01dc ED02     		.uleb128 0x16d
 9502 01de 1B720000 		.4byte	.LASF592
 9503 01e2 05       		.byte	0x5
 9504 01e3 EE02     		.uleb128 0x16e
 9505 01e5 01820000 		.4byte	.LASF593
 9506 01e9 05       		.byte	0x5
 9507 01ea F002     		.uleb128 0x170
 9508 01ec 1A390000 		.4byte	.LASF594
 9509 01f0 05       		.byte	0x5
 9510 01f1 F102     		.uleb128 0x171
 9511 01f3 6B7D0000 		.4byte	.LASF595
ARM GAS  C:\Users\STUDENT\AppData\Local\Temp\ccMxouBa.s 			page 196


 9512 01f7 05       		.byte	0x5
 9513 01f8 F302     		.uleb128 0x173
 9514 01fa 22A20000 		.4byte	.LASF596
 9515 01fe 05       		.byte	0x5
 9516 01ff F402     		.uleb128 0x174
 9517 0201 7A3E0000 		.4byte	.LASF597
 9518 0205 05       		.byte	0x5
 9519 0206 F602     		.uleb128 0x176
 9520 0208 A03B0000 		.4byte	.LASF598
 9521 020c 05       		.byte	0x5
 9522 020d F702     		.uleb128 0x177
 9523 020f 5A6B0000 		.4byte	.LASF599
 9524 0213 05       		.byte	0x5
 9525 0214 F902     		.uleb128 0x179
 9526 0216 13840000 		.4byte	.LASF600
 9527 021a 05       		.byte	0x5
 9528 021b FA02     		.uleb128 0x17a
 9529 021d 6C290000 		.4byte	.LASF601
 9530 0221 05       		.byte	0x5
 9531 0222 FC02     		.uleb128 0x17c
 9532 0224 E7770000 		.4byte	.LASF602
 9533 0228 05       		.byte	0x5
 9534 0229 FD02     		.uleb128 0x17d
 9535 022b FD4F0000 		.4byte	.LASF603
 9536 022f 05       		.byte	0x5
 9537 0230 FF02     		.uleb128 0x17f
 9538 0232 8E800000 		.4byte	.LASF604
 9539 0236 05       		.byte	0x5
 9540 0237 8003     		.uleb128 0x180
 9541 0239 792F0000 		.4byte	.LASF605
 9542 023d 05       		.byte	0x5
 9543 023e 8203     		.uleb128 0x182
 9544 0240 82880000 		.4byte	.LASF606
 9545 0244 05       		.byte	0x5
 9546 0245 8303     		.uleb128 0x183
 9547 0247 C62F0000 		.4byte	.LASF607
 9548 024b 05       		.byte	0x5
 9549 024c 8503     		.uleb128 0x185
 9550 024e AB990000 		.4byte	.LASF608
 9551 0252 05       		.byte	0x5
 9552 0253 8603     		.uleb128 0x186
 9553 0255 082E0000 		.4byte	.LASF609
 9554 0259 05       		.byte	0x5
 9555 025a 8803     		.uleb128 0x188
 9556 025c 94500000 		.4byte	.LASF610
 9557 0260 05       		.byte	0x5
 9558 0261 8903     		.uleb128 0x189
 9559 0263 43870000 		.4byte	.LASF611
 9560 0267 05       		.byte	0x5
 9561 0268 8B03     		.uleb128 0x18b
 9562 026a 797F0000 		.4byte	.LASF612
 9563 026e 05       		.byte	0x5
 9564 026f 8C03     		.uleb128 0x18c
 9565 0271 AD4D0000 		.4byte	.LASF613
 9566 0275 05       		.byte	0x5
 9567 0276 8E03     		.uleb128 0x18e
 9568 0278 843B0000 		.4byte	.LASF614
ARM GAS  C:\Users\STUDENT\AppData\Local\Temp\ccMxouBa.s 			page 197


 9569 027c 05       		.byte	0x5
 9570 027d 8F03     		.uleb128 0x18f
 9571 027f 385A0000 		.4byte	.LASF615
 9572 0283 05       		.byte	0x5
 9573 0284 9103     		.uleb128 0x191
 9574 0286 C42D0000 		.4byte	.LASF616
 9575 028a 05       		.byte	0x5
 9576 028b 9203     		.uleb128 0x192
 9577 028d 5A0F0000 		.4byte	.LASF617
 9578 0291 05       		.byte	0x5
 9579 0292 9403     		.uleb128 0x194
 9580 0294 D2A40000 		.4byte	.LASF618
 9581 0298 05       		.byte	0x5
 9582 0299 9503     		.uleb128 0x195
 9583 029b 427A0000 		.4byte	.LASF619
 9584 029f 05       		.byte	0x5
 9585 02a0 9803     		.uleb128 0x198
 9586 02a2 2D3D0000 		.4byte	.LASF620
 9587 02a6 05       		.byte	0x5
 9588 02a7 9903     		.uleb128 0x199
 9589 02a9 3A990000 		.4byte	.LASF621
 9590 02ad 05       		.byte	0x5
 9591 02ae 9B03     		.uleb128 0x19b
 9592 02b0 CA140000 		.4byte	.LASF622
 9593 02b4 05       		.byte	0x5
 9594 02b5 9C03     		.uleb128 0x19c
 9595 02b7 E7940000 		.4byte	.LASF623
 9596 02bb 05       		.byte	0x5
 9597 02bc 9E03     		.uleb128 0x19e
 9598 02be 29040000 		.4byte	.LASF624
 9599 02c2 05       		.byte	0x5
 9600 02c3 9F03     		.uleb128 0x19f
 9601 02c5 90A80000 		.4byte	.LASF625
 9602 02c9 05       		.byte	0x5
 9603 02ca A203     		.uleb128 0x1a2
 9604 02cc D8910000 		.4byte	.LASF626
 9605 02d0 05       		.byte	0x5
 9606 02d1 A303     		.uleb128 0x1a3
 9607 02d3 53600000 		.4byte	.LASF627
 9608 02d7 05       		.byte	0x5
 9609 02d8 A503     		.uleb128 0x1a5
 9610 02da A2690000 		.4byte	.LASF628
 9611 02de 05       		.byte	0x5
 9612 02df A603     		.uleb128 0x1a6
 9613 02e1 1C060000 		.4byte	.LASF629
 9614 02e5 05       		.byte	0x5
 9615 02e6 A803     		.uleb128 0x1a8
 9616 02e8 7C1C0000 		.4byte	.LASF630
 9617 02ec 05       		.byte	0x5
 9618 02ed A903     		.uleb128 0x1a9
 9619 02ef 44010000 		.4byte	.LASF631
 9620 02f3 05       		.byte	0x5
 9621 02f4 AC03     		.uleb128 0x1ac
 9622 02f6 4E900000 		.4byte	.LASF632
 9623 02fa 05       		.byte	0x5
 9624 02fb AD03     		.uleb128 0x1ad
 9625 02fd 725D0000 		.4byte	.LASF633
ARM GAS  C:\Users\STUDENT\AppData\Local\Temp\ccMxouBa.s 			page 198


 9626 0301 05       		.byte	0x5
 9627 0302 AF03     		.uleb128 0x1af
 9628 0304 6C490000 		.4byte	.LASF634
 9629 0308 05       		.byte	0x5
 9630 0309 B003     		.uleb128 0x1b0
 9631 030b 09750000 		.4byte	.LASF635
 9632 030f 05       		.byte	0x5
 9633 0310 B203     		.uleb128 0x1b2
 9634 0312 95280000 		.4byte	.LASF636
 9635 0316 05       		.byte	0x5
 9636 0317 B303     		.uleb128 0x1b3
 9637 0319 23130000 		.4byte	.LASF637
 9638 031d 05       		.byte	0x5
 9639 031e B503     		.uleb128 0x1b5
 9640 0320 4D6C0000 		.4byte	.LASF638
 9641 0324 05       		.byte	0x5
 9642 0325 B603     		.uleb128 0x1b6
 9643 0327 E4750000 		.4byte	.LASF639
 9644 032b 05       		.byte	0x5
 9645 032c B803     		.uleb128 0x1b8
 9646 032e 65170000 		.4byte	.LASF640
 9647 0332 05       		.byte	0x5
 9648 0333 B903     		.uleb128 0x1b9
 9649 0335 4A1F0000 		.4byte	.LASF641
 9650 0339 05       		.byte	0x5
 9651 033a CF03     		.uleb128 0x1cf
 9652 033c 4E3C0000 		.4byte	.LASF642
 9653 0340 05       		.byte	0x5
 9654 0341 D003     		.uleb128 0x1d0
 9655 0343 1E230000 		.4byte	.LASF643
 9656 0347 05       		.byte	0x5
 9657 0348 D203     		.uleb128 0x1d2
 9658 034a B20F0000 		.4byte	.LASF644
 9659 034e 05       		.byte	0x5
 9660 034f D303     		.uleb128 0x1d3
 9661 0351 72080000 		.4byte	.LASF645
 9662 0355 05       		.byte	0x5
 9663 0356 D503     		.uleb128 0x1d5
 9664 0358 3C190000 		.4byte	.LASF646
 9665 035c 05       		.byte	0x5
 9666 035d D603     		.uleb128 0x1d6
 9667 035f 64820000 		.4byte	.LASF647
 9668 0363 05       		.byte	0x5
 9669 0364 D803     		.uleb128 0x1d8
 9670 0366 4A370000 		.4byte	.LASF648
 9671 036a 05       		.byte	0x5
 9672 036b D903     		.uleb128 0x1d9
 9673 036d 5F310000 		.4byte	.LASF649
 9674 0371 05       		.byte	0x5
 9675 0372 DC03     		.uleb128 0x1dc
 9676 0374 229C0000 		.4byte	.LASF650
 9677 0378 05       		.byte	0x5
 9678 0379 DD03     		.uleb128 0x1dd
 9679 037b 57570000 		.4byte	.LASF651
 9680 037f 05       		.byte	0x5
 9681 0380 E003     		.uleb128 0x1e0
 9682 0382 BD6E0000 		.4byte	.LASF652
ARM GAS  C:\Users\STUDENT\AppData\Local\Temp\ccMxouBa.s 			page 199


 9683 0386 05       		.byte	0x5
 9684 0387 E103     		.uleb128 0x1e1
 9685 0389 A7960000 		.4byte	.LASF653
 9686 038d 05       		.byte	0x5
 9687 038e E403     		.uleb128 0x1e4
 9688 0390 AD8A0000 		.4byte	.LASF654
 9689 0394 05       		.byte	0x5
 9690 0395 E503     		.uleb128 0x1e5
 9691 0397 4E3D0000 		.4byte	.LASF655
 9692 039b 05       		.byte	0x5
 9693 039c E703     		.uleb128 0x1e7
 9694 039e 34140000 		.4byte	.LASF656
 9695 03a2 05       		.byte	0x5
 9696 03a3 E803     		.uleb128 0x1e8
 9697 03a5 399D0000 		.4byte	.LASF657
 9698 03a9 05       		.byte	0x5
 9699 03aa EA03     		.uleb128 0x1ea
 9700 03ac 484C0000 		.4byte	.LASF658
 9701 03b0 05       		.byte	0x5
 9702 03b1 EB03     		.uleb128 0x1eb
 9703 03b3 3A750000 		.4byte	.LASF659
 9704 03b7 05       		.byte	0x5
 9705 03b8 9D04     		.uleb128 0x21d
 9706 03ba 76210000 		.4byte	.LASF660
 9707 03be 05       		.byte	0x5
 9708 03bf 9E04     		.uleb128 0x21e
 9709 03c1 0DA60000 		.4byte	.LASF661
 9710 03c5 05       		.byte	0x5
 9711 03c6 A104     		.uleb128 0x221
 9712 03c8 DC1D0000 		.4byte	.LASF662
 9713 03cc 05       		.byte	0x5
 9714 03cd A204     		.uleb128 0x222
 9715 03cf F4330000 		.4byte	.LASF663
 9716 03d3 05       		.byte	0x5
 9717 03d4 A404     		.uleb128 0x224
 9718 03d6 F40C0000 		.4byte	.LASF664
 9719 03da 05       		.byte	0x5
 9720 03db A504     		.uleb128 0x225
 9721 03dd CC9B0000 		.4byte	.LASF665
 9722 03e1 05       		.byte	0x5
 9723 03e2 A704     		.uleb128 0x227
 9724 03e4 DEA70000 		.4byte	.LASF666
 9725 03e8 05       		.byte	0x5
 9726 03e9 A804     		.uleb128 0x228
 9727 03eb 56180000 		.4byte	.LASF667
 9728 03ef 05       		.byte	0x5
 9729 03f0 AA04     		.uleb128 0x22a
 9730 03f2 F8470000 		.4byte	.LASF668
 9731 03f6 05       		.byte	0x5
 9732 03f7 AB04     		.uleb128 0x22b
 9733 03f9 732C0000 		.4byte	.LASF669
 9734 03fd 05       		.byte	0x5
 9735 03fe AD04     		.uleb128 0x22d
 9736 0400 6D730000 		.4byte	.LASF670
 9737 0404 05       		.byte	0x5
 9738 0405 AE04     		.uleb128 0x22e
 9739 0407 DD030000 		.4byte	.LASF671
ARM GAS  C:\Users\STUDENT\AppData\Local\Temp\ccMxouBa.s 			page 200


 9740 040b 05       		.byte	0x5
 9741 040c B004     		.uleb128 0x230
 9742 040e 3A8B0000 		.4byte	.LASF672
 9743 0412 05       		.byte	0x5
 9744 0413 B104     		.uleb128 0x231
 9745 0415 9B720000 		.4byte	.LASF673
 9746 0419 05       		.byte	0x5
 9747 041a B304     		.uleb128 0x233
 9748 041c A0350000 		.4byte	.LASF674
 9749 0420 05       		.byte	0x5
 9750 0421 B404     		.uleb128 0x234
 9751 0423 390E0000 		.4byte	.LASF675
 9752 0427 05       		.byte	0x5
 9753 0428 B604     		.uleb128 0x236
 9754 042a 3FA20000 		.4byte	.LASF676
 9755 042e 05       		.byte	0x5
 9756 042f B704     		.uleb128 0x237
 9757 0431 F01D0000 		.4byte	.LASF677
 9758 0435 05       		.byte	0x5
 9759 0436 BA04     		.uleb128 0x23a
 9760 0438 8C330000 		.4byte	.LASF678
 9761 043c 05       		.byte	0x5
 9762 043d BB04     		.uleb128 0x23b
 9763 043f E8A80000 		.4byte	.LASF679
 9764 0443 05       		.byte	0x5
 9765 0444 BE04     		.uleb128 0x23e
 9766 0446 37630000 		.4byte	.LASF680
 9767 044a 05       		.byte	0x5
 9768 044b BF04     		.uleb128 0x23f
 9769 044d D5930000 		.4byte	.LASF681
 9770 0451 05       		.byte	0x5
 9771 0452 C204     		.uleb128 0x242
 9772 0454 D1450000 		.4byte	.LASF682
 9773 0458 05       		.byte	0x5
 9774 0459 C304     		.uleb128 0x243
 9775 045b 94860000 		.4byte	.LASF683
 9776 045f 05       		.byte	0x5
 9777 0460 C604     		.uleb128 0x246
 9778 0462 CF5B0000 		.4byte	.LASF684
 9779 0466 05       		.byte	0x5
 9780 0467 C704     		.uleb128 0x247
 9781 0469 CE880000 		.4byte	.LASF685
 9782 046d 05       		.byte	0x5
 9783 046e C904     		.uleb128 0x249
 9784 0470 917E0000 		.4byte	.LASF686
 9785 0474 05       		.byte	0x5
 9786 0475 CA04     		.uleb128 0x24a
 9787 0477 4A9A0000 		.4byte	.LASF687
 9788 047b 05       		.byte	0x5
 9789 047c CC04     		.uleb128 0x24c
 9790 047e FC9B0000 		.4byte	.LASF688
 9791 0482 05       		.byte	0x5
 9792 0483 CD04     		.uleb128 0x24d
 9793 0485 024C0000 		.4byte	.LASF689
 9794 0489 05       		.byte	0x5
 9795 048a E604     		.uleb128 0x266
 9796 048c C42E0000 		.4byte	.LASF690
ARM GAS  C:\Users\STUDENT\AppData\Local\Temp\ccMxouBa.s 			page 201


 9797 0490 05       		.byte	0x5
 9798 0491 E704     		.uleb128 0x267
 9799 0493 96200000 		.4byte	.LASF691
 9800 0497 05       		.byte	0x5
 9801 0498 EA04     		.uleb128 0x26a
 9802 049a D8500000 		.4byte	.LASF692
 9803 049e 05       		.byte	0x5
 9804 049f EB04     		.uleb128 0x26b
 9805 04a1 289F0000 		.4byte	.LASF693
 9806 04a5 05       		.byte	0x5
 9807 04a6 ED04     		.uleb128 0x26d
 9808 04a8 B20B0000 		.4byte	.LASF694
 9809 04ac 05       		.byte	0x5
 9810 04ad EE04     		.uleb128 0x26e
 9811 04af FF060000 		.4byte	.LASF695
 9812 04b3 05       		.byte	0x5
 9813 04b4 F004     		.uleb128 0x270
 9814 04b6 E25D0000 		.4byte	.LASF696
 9815 04ba 05       		.byte	0x5
 9816 04bb F104     		.uleb128 0x271
 9817 04bd 795B0000 		.4byte	.LASF697
 9818 04c1 05       		.byte	0x5
 9819 04c2 8F05     		.uleb128 0x28f
 9820 04c4 3A760000 		.4byte	.LASF698
 9821 04c8 05       		.byte	0x5
 9822 04c9 9005     		.uleb128 0x290
 9823 04cb C8650000 		.4byte	.LASF699
 9824 04cf 05       		.byte	0x5
 9825 04d0 9205     		.uleb128 0x292
 9826 04d2 710B0000 		.4byte	.LASF700
 9827 04d6 05       		.byte	0x5
 9828 04d7 9305     		.uleb128 0x293
 9829 04d9 150B0000 		.4byte	.LASF701
 9830 04dd 05       		.byte	0x5
 9831 04de 9505     		.uleb128 0x295
 9832 04e0 24970000 		.4byte	.LASF702
 9833 04e4 05       		.byte	0x5
 9834 04e5 9605     		.uleb128 0x296
 9835 04e7 A46F0000 		.4byte	.LASF703
 9836 04eb 05       		.byte	0x5
 9837 04ec 9905     		.uleb128 0x299
 9838 04ee 7F9D0000 		.4byte	.LASF704
 9839 04f2 05       		.byte	0x5
 9840 04f3 9A05     		.uleb128 0x29a
 9841 04f5 1C550000 		.4byte	.LASF705
 9842 04f9 05       		.byte	0x5
 9843 04fa 9C05     		.uleb128 0x29c
 9844 04fc B6430000 		.4byte	.LASF706
 9845 0500 05       		.byte	0x5
 9846 0501 9D05     		.uleb128 0x29d
 9847 0503 40810000 		.4byte	.LASF707
 9848 0507 05       		.byte	0x5
 9849 0508 9F05     		.uleb128 0x29f
 9850 050a 98A90000 		.4byte	.LASF708
 9851 050e 05       		.byte	0x5
 9852 050f A005     		.uleb128 0x2a0
 9853 0511 FB4C0000 		.4byte	.LASF709
ARM GAS  C:\Users\STUDENT\AppData\Local\Temp\ccMxouBa.s 			page 202


 9854 0515 05       		.byte	0x5
 9855 0516 A305     		.uleb128 0x2a3
 9856 0518 06880000 		.4byte	.LASF710
 9857 051c 05       		.byte	0x5
 9858 051d A405     		.uleb128 0x2a4
 9859 051f 11400000 		.4byte	.LASF711
 9860 0523 05       		.byte	0x5
 9861 0524 A705     		.uleb128 0x2a7
 9862 0526 3F850000 		.4byte	.LASF712
 9863 052a 05       		.byte	0x5
 9864 052b A805     		.uleb128 0x2a8
 9865 052d CB600000 		.4byte	.LASF713
 9866 0531 05       		.byte	0x5
 9867 0532 AA05     		.uleb128 0x2aa
 9868 0534 28900000 		.4byte	.LASF714
 9869 0538 05       		.byte	0x5
 9870 0539 AB05     		.uleb128 0x2ab
 9871 053b FD4E0000 		.4byte	.LASF715
 9872 053f 05       		.byte	0x5
 9873 0540 AD05     		.uleb128 0x2ad
 9874 0542 016F0000 		.4byte	.LASF716
 9875 0546 05       		.byte	0x5
 9876 0547 AE05     		.uleb128 0x2ae
 9877 0549 91A30000 		.4byte	.LASF717
 9878 054d 05       		.byte	0x5
 9879 054e B105     		.uleb128 0x2b1
 9880 0550 00010000 		.4byte	.LASF718
 9881 0554 05       		.byte	0x5
 9882 0555 B205     		.uleb128 0x2b2
 9883 0557 7F1B0000 		.4byte	.LASF719
 9884 055b 05       		.byte	0x5
 9885 055c B405     		.uleb128 0x2b4
 9886 055e 94960000 		.4byte	.LASF720
 9887 0562 05       		.byte	0x5
 9888 0563 B505     		.uleb128 0x2b5
 9889 0565 427D0000 		.4byte	.LASF721
 9890 0569 05       		.byte	0x5
 9891 056a B705     		.uleb128 0x2b7
 9892 056c 118D0000 		.4byte	.LASF722
 9893 0570 05       		.byte	0x5
 9894 0571 B805     		.uleb128 0x2b8
 9895 0573 951F0000 		.4byte	.LASF723
 9896 0577 05       		.byte	0x5
 9897 0578 BA05     		.uleb128 0x2ba
 9898 057a 540D0000 		.4byte	.LASF724
 9899 057e 05       		.byte	0x5
 9900 057f BB05     		.uleb128 0x2bb
 9901 0581 BC0D0000 		.4byte	.LASF725
 9902 0585 05       		.byte	0x5
 9903 0586 BD05     		.uleb128 0x2bd
 9904 0588 8D2B0000 		.4byte	.LASF726
 9905 058c 05       		.byte	0x5
 9906 058d BE05     		.uleb128 0x2be
 9907 058f EC450000 		.4byte	.LASF727
 9908 0593 05       		.byte	0x5
 9909 0594 C005     		.uleb128 0x2c0
 9910 0596 80690000 		.4byte	.LASF728
ARM GAS  C:\Users\STUDENT\AppData\Local\Temp\ccMxouBa.s 			page 203


 9911 059a 05       		.byte	0x5
 9912 059b C105     		.uleb128 0x2c1
 9913 059d 9F750000 		.4byte	.LASF729
 9914 05a1 05       		.byte	0x5
 9915 05a2 C305     		.uleb128 0x2c3
 9916 05a4 038E0000 		.4byte	.LASF730
 9917 05a8 05       		.byte	0x5
 9918 05a9 C405     		.uleb128 0x2c4
 9919 05ab CC440000 		.4byte	.LASF731
 9920 05af 05       		.byte	0x5
 9921 05b0 C605     		.uleb128 0x2c6
 9922 05b2 67850000 		.4byte	.LASF732
 9923 05b6 05       		.byte	0x5
 9924 05b7 C705     		.uleb128 0x2c7
 9925 05b9 B4520000 		.4byte	.LASF733
 9926 05bd 05       		.byte	0x5
 9927 05be C905     		.uleb128 0x2c9
 9928 05c0 61740000 		.4byte	.LASF734
 9929 05c4 05       		.byte	0x5
 9930 05c5 CA05     		.uleb128 0x2ca
 9931 05c7 6E720000 		.4byte	.LASF735
 9932 05cb 05       		.byte	0x5
 9933 05cc E105     		.uleb128 0x2e1
 9934 05ce FA250000 		.4byte	.LASF736
 9935 05d2 05       		.byte	0x5
 9936 05d3 E205     		.uleb128 0x2e2
 9937 05d5 519B0000 		.4byte	.LASF737
 9938 05d9 05       		.byte	0x5
 9939 05da E405     		.uleb128 0x2e4
 9940 05dc 433B0000 		.4byte	.LASF738
 9941 05e0 05       		.byte	0x5
 9942 05e1 E505     		.uleb128 0x2e5
 9943 05e3 AEA50000 		.4byte	.LASF739
 9944 05e7 05       		.byte	0x5
 9945 05e8 E705     		.uleb128 0x2e7
 9946 05ea 6A980000 		.4byte	.LASF740
 9947 05ee 05       		.byte	0x5
 9948 05ef E805     		.uleb128 0x2e8
 9949 05f1 83780000 		.4byte	.LASF741
 9950 05f5 05       		.byte	0x5
 9951 05f6 EA05     		.uleb128 0x2ea
 9952 05f8 F47E0000 		.4byte	.LASF742
 9953 05fc 05       		.byte	0x5
 9954 05fd EB05     		.uleb128 0x2eb
 9955 05ff 88600000 		.4byte	.LASF743
 9956 0603 05       		.byte	0x5
 9957 0604 ED05     		.uleb128 0x2ed
 9958 0606 288E0000 		.4byte	.LASF744
 9959 060a 05       		.byte	0x5
 9960 060b EE05     		.uleb128 0x2ee
 9961 060d BC4F0000 		.4byte	.LASF745
 9962 0611 05       		.byte	0x5
 9963 0612 F005     		.uleb128 0x2f0
 9964 0614 C1870000 		.4byte	.LASF746
 9965 0618 05       		.byte	0x5
 9966 0619 F105     		.uleb128 0x2f1
 9967 061b 02530000 		.4byte	.LASF747
ARM GAS  C:\Users\STUDENT\AppData\Local\Temp\ccMxouBa.s 			page 204


 9968 061f 05       		.byte	0x5
 9969 0620 F305     		.uleb128 0x2f3
 9970 0622 A2930000 		.4byte	.LASF748
 9971 0626 05       		.byte	0x5
 9972 0627 F405     		.uleb128 0x2f4
 9973 0629 00610000 		.4byte	.LASF749
 9974 062d 05       		.byte	0x5
 9975 062e F605     		.uleb128 0x2f6
 9976 0630 B5800000 		.4byte	.LASF750
 9977 0634 05       		.byte	0x5
 9978 0635 F705     		.uleb128 0x2f7
 9979 0637 7D900000 		.4byte	.LASF751
 9980 063b 05       		.byte	0x5
 9981 063c F905     		.uleb128 0x2f9
 9982 063e CE020000 		.4byte	.LASF752
 9983 0642 05       		.byte	0x5
 9984 0643 FA05     		.uleb128 0x2fa
 9985 0645 ED210000 		.4byte	.LASF753
 9986 0649 05       		.byte	0x5
 9987 064a FC05     		.uleb128 0x2fc
 9988 064c AA910000 		.4byte	.LASF754
 9989 0650 05       		.byte	0x5
 9990 0651 FD05     		.uleb128 0x2fd
 9991 0653 DD360000 		.4byte	.LASF755
 9992 0657 05       		.byte	0x5
 9993 0658 FF05     		.uleb128 0x2ff
 9994 065a A8920000 		.4byte	.LASF756
 9995 065e 05       		.byte	0x5
 9996 065f 8006     		.uleb128 0x300
 9997 0661 B4550000 		.4byte	.LASF757
 9998 0665 05       		.byte	0x5
 9999 0666 8206     		.uleb128 0x302
 10000 0668 24620000 		.4byte	.LASF758
 10001 066c 05       		.byte	0x5
 10002 066d 8306     		.uleb128 0x303
 10003 066f 3B960000 		.4byte	.LASF759
 10004 0673 05       		.byte	0x5
 10005 0674 8606     		.uleb128 0x306
 10006 0676 B27B0000 		.4byte	.LASF760
 10007 067a 05       		.byte	0x5
 10008 067b 8706     		.uleb128 0x307
 10009 067d 043B0000 		.4byte	.LASF761
 10010 0681 05       		.byte	0x5
 10011 0682 8906     		.uleb128 0x309
 10012 0684 9E8F0000 		.4byte	.LASF762
 10013 0688 05       		.byte	0x5
 10014 0689 8A06     		.uleb128 0x30a
 10015 068b 3C250000 		.4byte	.LASF763
 10016 068f 05       		.byte	0x5
 10017 0690 8D06     		.uleb128 0x30d
 10018 0692 25100000 		.4byte	.LASF764
 10019 0696 05       		.byte	0x5
 10020 0697 8E06     		.uleb128 0x30e
 10021 0699 496E0000 		.4byte	.LASF765
 10022 069d 05       		.byte	0x5
 10023 069e 9006     		.uleb128 0x310
 10024 06a0 AA210000 		.4byte	.LASF766
ARM GAS  C:\Users\STUDENT\AppData\Local\Temp\ccMxouBa.s 			page 205


 10025 06a4 05       		.byte	0x5
 10026 06a5 9106     		.uleb128 0x311
 10027 06a7 9E250000 		.4byte	.LASF767
 10028 06ab 05       		.byte	0x5
 10029 06ac 9306     		.uleb128 0x313
 10030 06ae DA5F0000 		.4byte	.LASF768
 10031 06b2 05       		.byte	0x5
 10032 06b3 9406     		.uleb128 0x314
 10033 06b5 3F560000 		.4byte	.LASF769
 10034 06b9 05       		.byte	0x5
 10035 06ba 9606     		.uleb128 0x316
 10036 06bc 37A30000 		.4byte	.LASF770
 10037 06c0 05       		.byte	0x5
 10038 06c1 9706     		.uleb128 0x317
 10039 06c3 0D120000 		.4byte	.LASF771
 10040 06c7 05       		.byte	0x5
 10041 06c8 9906     		.uleb128 0x319
 10042 06ca 71700000 		.4byte	.LASF772
 10043 06ce 05       		.byte	0x5
 10044 06cf 9A06     		.uleb128 0x31a
 10045 06d1 17180000 		.4byte	.LASF773
 10046 06d5 05       		.byte	0x5
 10047 06d6 9C06     		.uleb128 0x31c
 10048 06d8 CD1C0000 		.4byte	.LASF774
 10049 06dc 05       		.byte	0x5
 10050 06dd 9D06     		.uleb128 0x31d
 10051 06df 581D0000 		.4byte	.LASF775
 10052 06e3 05       		.byte	0x5
 10053 06e4 9F06     		.uleb128 0x31f
 10054 06e6 C9390000 		.4byte	.LASF776
 10055 06ea 05       		.byte	0x5
 10056 06eb A006     		.uleb128 0x320
 10057 06ed F4500000 		.4byte	.LASF777
 10058 06f1 05       		.byte	0x5
 10059 06f2 A206     		.uleb128 0x322
 10060 06f4 780C0000 		.4byte	.LASF778
 10061 06f8 05       		.byte	0x5
 10062 06f9 A306     		.uleb128 0x323
 10063 06fb 65550000 		.4byte	.LASF779
 10064 06ff 05       		.byte	0x5
 10065 0700 A506     		.uleb128 0x325
 10066 0702 E32E0000 		.4byte	.LASF780
 10067 0706 05       		.byte	0x5
 10068 0707 A606     		.uleb128 0x326
 10069 0709 57420000 		.4byte	.LASF781
 10070 070d 05       		.byte	0x5
 10071 070e A806     		.uleb128 0x328
 10072 0710 20810000 		.4byte	.LASF782
 10073 0714 05       		.byte	0x5
 10074 0715 A906     		.uleb128 0x329
 10075 0717 A2010000 		.4byte	.LASF783
 10076 071b 05       		.byte	0x5
 10077 071c AB06     		.uleb128 0x32b
 10078 071e A56D0000 		.4byte	.LASF784
 10079 0722 05       		.byte	0x5
 10080 0723 AC06     		.uleb128 0x32c
 10081 0725 7D2E0000 		.4byte	.LASF785
ARM GAS  C:\Users\STUDENT\AppData\Local\Temp\ccMxouBa.s 			page 206


 10082 0729 05       		.byte	0x5
 10083 072a AE06     		.uleb128 0x32e
 10084 072c 2A030000 		.4byte	.LASF786
 10085 0730 05       		.byte	0x5
 10086 0731 AF06     		.uleb128 0x32f
 10087 0733 7E870000 		.4byte	.LASF787
 10088 0737 05       		.byte	0x5
 10089 0738 B106     		.uleb128 0x331
 10090 073a 54920000 		.4byte	.LASF788
 10091 073e 05       		.byte	0x5
 10092 073f B206     		.uleb128 0x332
 10093 0741 12A70000 		.4byte	.LASF789
 10094 0745 05       		.byte	0x5
 10095 0746 BC06     		.uleb128 0x33c
 10096 0748 93050000 		.4byte	.LASF790
 10097 074c 05       		.byte	0x5
 10098 074d BD06     		.uleb128 0x33d
 10099 074f 775E0000 		.4byte	.LASF791
 10100 0753 05       		.byte	0x5
 10101 0754 BE06     		.uleb128 0x33e
 10102 0756 450C0000 		.4byte	.LASF792
 10103 075a 05       		.byte	0x5
 10104 075b BF06     		.uleb128 0x33f
 10105 075d 22A50000 		.4byte	.LASF793
 10106 0761 05       		.byte	0x5
 10107 0762 C006     		.uleb128 0x340
 10108 0764 A26C0000 		.4byte	.LASF794
 10109 0768 05       		.byte	0x5
 10110 0769 C106     		.uleb128 0x341
 10111 076b BD1D0000 		.4byte	.LASF795
 10112 076f 05       		.byte	0x5
 10113 0770 C306     		.uleb128 0x343
 10114 0772 F0800000 		.4byte	.LASF796
 10115 0776 05       		.byte	0x5
 10116 0777 C406     		.uleb128 0x344
 10117 0779 122C0000 		.4byte	.LASF797
 10118 077d 05       		.byte	0x5
 10119 077e C506     		.uleb128 0x345
 10120 0780 6E540000 		.4byte	.LASF798
 10121 0784 05       		.byte	0x5
 10122 0785 C606     		.uleb128 0x346
 10123 0787 4D060000 		.4byte	.LASF799
 10124 078b 05       		.byte	0x5
 10125 078c C706     		.uleb128 0x347
 10126 078e 7A520000 		.4byte	.LASF800
 10127 0792 05       		.byte	0x5
 10128 0793 C806     		.uleb128 0x348
 10129 0795 0C520000 		.4byte	.LASF801
 10130 0799 05       		.byte	0x5
 10131 079a CB06     		.uleb128 0x34b
 10132 079c CE660000 		.4byte	.LASF802
 10133 07a0 05       		.byte	0x5
 10134 07a1 CC06     		.uleb128 0x34c
 10135 07a3 806C0000 		.4byte	.LASF803
 10136 07a7 05       		.byte	0x5
 10137 07a8 8309     		.uleb128 0x483
 10138 07aa 65530000 		.4byte	.LASF804
ARM GAS  C:\Users\STUDENT\AppData\Local\Temp\ccMxouBa.s 			page 207


 10139 07ae 00       		.byte	0
 10140              		.section	.debug_macro,"G",%progbits,wm4.LPC17xx.h.953.77a3a85f2f7c5b921d480655a6f3d5b1,comdat
 10141              	.Ldebug_macro12:
 10142 0000 0400     		.2byte	0x4
 10143 0002 00       		.byte	0
 10144 0003 05       		.byte	0x5
 10145 0004 B907     		.uleb128 0x3b9
 10146 0006 81750000 		.4byte	.LASF806
 10147 000a 05       		.byte	0x5
 10148 000b BA07     		.uleb128 0x3ba
 10149 000d B0410000 		.4byte	.LASF807
 10150 0011 05       		.byte	0x5
 10151 0012 BF07     		.uleb128 0x3bf
 10152 0014 34660000 		.4byte	.LASF808
 10153 0018 05       		.byte	0x5
 10154 0019 C007     		.uleb128 0x3c0
 10155 001b 7AA60000 		.4byte	.LASF809
 10156 001f 05       		.byte	0x5
 10157 0020 C207     		.uleb128 0x3c2
 10158 0022 29080000 		.4byte	.LASF810
 10159 0026 05       		.byte	0x5
 10160 0027 C307     		.uleb128 0x3c3
 10161 0029 176F0000 		.4byte	.LASF811
 10162 002d 05       		.byte	0x5
 10163 002e C407     		.uleb128 0x3c4
 10164 0030 35260000 		.4byte	.LASF812
 10165 0034 05       		.byte	0x5
 10166 0035 C507     		.uleb128 0x3c5
 10167 0037 3C1D0000 		.4byte	.LASF813
 10168 003b 05       		.byte	0x5
 10169 003c C607     		.uleb128 0x3c6
 10170 003e C6320000 		.4byte	.LASF814
 10171 0042 05       		.byte	0x5
 10172 0043 C907     		.uleb128 0x3c9
 10173 0045 147F0000 		.4byte	.LASF815
 10174 0049 05       		.byte	0x5
 10175 004a CA07     		.uleb128 0x3ca
 10176 004c 66390000 		.4byte	.LASF816
 10177 0050 05       		.byte	0x5
 10178 0051 CB07     		.uleb128 0x3cb
 10179 0053 D0470000 		.4byte	.LASF817
 10180 0057 05       		.byte	0x5
 10181 0058 CC07     		.uleb128 0x3cc
 10182 005a DD1E0000 		.4byte	.LASF818
 10183 005e 05       		.byte	0x5
 10184 005f CD07     		.uleb128 0x3cd
 10185 0061 9B4C0000 		.4byte	.LASF819
 10186 0065 05       		.byte	0x5
 10187 0066 CE07     		.uleb128 0x3ce
 10188 0068 CC7D0000 		.4byte	.LASF820
 10189 006c 05       		.byte	0x5
 10190 006d CF07     		.uleb128 0x3cf
 10191 006f 1A650000 		.4byte	.LASF821
 10192 0073 05       		.byte	0x5
 10193 0074 D007     		.uleb128 0x3d0
 10194 0076 BD400000 		.4byte	.LASF822
 10195 007a 05       		.byte	0x5
ARM GAS  C:\Users\STUDENT\AppData\Local\Temp\ccMxouBa.s 			page 208


 10196 007b D107     		.uleb128 0x3d1
 10197 007d 22430000 		.4byte	.LASF823
 10198 0081 05       		.byte	0x5
 10199 0082 D207     		.uleb128 0x3d2
 10200 0084 77010000 		.4byte	.LASF824
 10201 0088 05       		.byte	0x5
 10202 0089 D307     		.uleb128 0x3d3
 10203 008b 6D140000 		.4byte	.LASF825
 10204 008f 05       		.byte	0x5
 10205 0090 D407     		.uleb128 0x3d4
 10206 0092 E56C0000 		.4byte	.LASF826
 10207 0096 05       		.byte	0x5
 10208 0097 D507     		.uleb128 0x3d5
 10209 0099 FE0F0000 		.4byte	.LASF827
 10210 009d 05       		.byte	0x5
 10211 009e D607     		.uleb128 0x3d6
 10212 00a0 73460000 		.4byte	.LASF828
 10213 00a4 05       		.byte	0x5
 10214 00a5 D707     		.uleb128 0x3d7
 10215 00a7 7C830000 		.4byte	.LASF829
 10216 00ab 05       		.byte	0x5
 10217 00ac D807     		.uleb128 0x3d8
 10218 00ae 980C0000 		.4byte	.LASF830
 10219 00b2 05       		.byte	0x5
 10220 00b3 D907     		.uleb128 0x3d9
 10221 00b5 EC990000 		.4byte	.LASF831
 10222 00b9 05       		.byte	0x5
 10223 00ba DA07     		.uleb128 0x3da
 10224 00bc 344B0000 		.4byte	.LASF832
 10225 00c0 05       		.byte	0x5
 10226 00c1 DB07     		.uleb128 0x3db
 10227 00c3 7E590000 		.4byte	.LASF833
 10228 00c7 05       		.byte	0x5
 10229 00c8 DE07     		.uleb128 0x3de
 10230 00ca 9E420000 		.4byte	.LASF834
 10231 00ce 05       		.byte	0x5
 10232 00cf DF07     		.uleb128 0x3df
 10233 00d1 F3160000 		.4byte	.LASF835
 10234 00d5 05       		.byte	0x5
 10235 00d6 E007     		.uleb128 0x3e0
 10236 00d8 52760000 		.4byte	.LASF836
 10237 00dc 05       		.byte	0x5
 10238 00dd E107     		.uleb128 0x3e1
 10239 00df C5220000 		.4byte	.LASF837
 10240 00e3 05       		.byte	0x5
 10241 00e4 E207     		.uleb128 0x3e2
 10242 00e6 11760000 		.4byte	.LASF838
 10243 00ea 05       		.byte	0x5
 10244 00eb E307     		.uleb128 0x3e3
 10245 00ed 858D0000 		.4byte	.LASF839
 10246 00f1 05       		.byte	0x5
 10247 00f2 E407     		.uleb128 0x3e4
 10248 00f4 BF790000 		.4byte	.LASF840
 10249 00f8 05       		.byte	0x5
 10250 00f9 E507     		.uleb128 0x3e5
 10251 00fb CD070000 		.4byte	.LASF841
 10252 00ff 05       		.byte	0x5
ARM GAS  C:\Users\STUDENT\AppData\Local\Temp\ccMxouBa.s 			page 209


 10253 0100 E607     		.uleb128 0x3e6
 10254 0102 712A0000 		.4byte	.LASF842
 10255 0106 05       		.byte	0x5
 10256 0107 E707     		.uleb128 0x3e7
 10257 0109 DE860000 		.4byte	.LASF843
 10258 010d 05       		.byte	0x5
 10259 010e E807     		.uleb128 0x3e8
 10260 0110 6D500000 		.4byte	.LASF844
 10261 0114 05       		.byte	0x5
 10262 0115 E907     		.uleb128 0x3e9
 10263 0117 976E0000 		.4byte	.LASF845
 10264 011b 05       		.byte	0x5
 10265 011c EC07     		.uleb128 0x3ec
 10266 011e 921A0000 		.4byte	.LASF846
 10267 0122 05       		.byte	0x5
 10268 0123 ED07     		.uleb128 0x3ed
 10269 0125 A5830000 		.4byte	.LASF847
 10270 0129 05       		.byte	0x5
 10271 012a EE07     		.uleb128 0x3ee
 10272 012c 43400000 		.4byte	.LASF848
 10273 0130 05       		.byte	0x5
 10274 0131 EF07     		.uleb128 0x3ef
 10275 0133 DA8F0000 		.4byte	.LASF849
 10276 0137 05       		.byte	0x5
 10277 0138 F007     		.uleb128 0x3f0
 10278 013a AEA90000 		.4byte	.LASF850
 10279 013e 05       		.byte	0x5
 10280 013f F107     		.uleb128 0x3f1
 10281 0141 69670000 		.4byte	.LASF851
 10282 0145 05       		.byte	0x5
 10283 0146 F207     		.uleb128 0x3f2
 10284 0148 522E0000 		.4byte	.LASF852
 10285 014c 05       		.byte	0x5
 10286 014d F307     		.uleb128 0x3f3
 10287 014f CC050000 		.4byte	.LASF853
 10288 0153 05       		.byte	0x5
 10289 0154 F407     		.uleb128 0x3f4
 10290 0156 996B0000 		.4byte	.LASF854
 10291 015a 05       		.byte	0x5
 10292 015b F507     		.uleb128 0x3f5
 10293 015d 87110000 		.4byte	.LASF855
 10294 0161 05       		.byte	0x5
 10295 0162 F607     		.uleb128 0x3f6
 10296 0164 05570000 		.4byte	.LASF856
 10297 0168 05       		.byte	0x5
 10298 0169 F907     		.uleb128 0x3f9
 10299 016b C85A0000 		.4byte	.LASF857
 10300 016f 05       		.byte	0x5
 10301 0170 FA07     		.uleb128 0x3fa
 10302 0172 385B0000 		.4byte	.LASF858
 10303 0176 05       		.byte	0x5
 10304 0177 FB07     		.uleb128 0x3fb
 10305 0179 25300000 		.4byte	.LASF859
 10306 017d 05       		.byte	0x5
 10307 017e FC07     		.uleb128 0x3fc
 10308 0180 13AA0000 		.4byte	.LASF860
 10309 0184 05       		.byte	0x5
ARM GAS  C:\Users\STUDENT\AppData\Local\Temp\ccMxouBa.s 			page 210


 10310 0185 FD07     		.uleb128 0x3fd
 10311 0187 EA840000 		.4byte	.LASF861
 10312 018b 05       		.byte	0x5
 10313 018c 8208     		.uleb128 0x402
 10314 018e 507F0000 		.4byte	.LASF862
 10315 0192 05       		.byte	0x5
 10316 0193 8308     		.uleb128 0x403
 10317 0195 CD5E0000 		.4byte	.LASF863
 10318 0199 05       		.byte	0x5
 10319 019a 8408     		.uleb128 0x404
 10320 019c E3120000 		.4byte	.LASF864
 10321 01a0 05       		.byte	0x5
 10322 01a1 8508     		.uleb128 0x405
 10323 01a3 F6680000 		.4byte	.LASF865
 10324 01a7 05       		.byte	0x5
 10325 01a8 8608     		.uleb128 0x406
 10326 01aa 7B340000 		.4byte	.LASF866
 10327 01ae 05       		.byte	0x5
 10328 01af 8708     		.uleb128 0x407
 10329 01b1 D8300000 		.4byte	.LASF867
 10330 01b5 05       		.byte	0x5
 10331 01b6 8808     		.uleb128 0x408
 10332 01b8 B9190000 		.4byte	.LASF868
 10333 01bc 05       		.byte	0x5
 10334 01bd 8908     		.uleb128 0x409
 10335 01bf 1C370000 		.4byte	.LASF869
 10336 01c3 05       		.byte	0x5
 10337 01c4 8A08     		.uleb128 0x40a
 10338 01c6 147A0000 		.4byte	.LASF870
 10339 01ca 05       		.byte	0x5
 10340 01cb 8B08     		.uleb128 0x40b
 10341 01cd CC380000 		.4byte	.LASF871
 10342 01d1 05       		.byte	0x5
 10343 01d2 8C08     		.uleb128 0x40c
 10344 01d4 0A0A0000 		.4byte	.LASF872
 10345 01d8 05       		.byte	0x5
 10346 01d9 8D08     		.uleb128 0x40d
 10347 01db 04590000 		.4byte	.LASF873
 10348 01df 05       		.byte	0x5
 10349 01e0 8E08     		.uleb128 0x40e
 10350 01e2 F06F0000 		.4byte	.LASF874
 10351 01e6 05       		.byte	0x5
 10352 01e7 8F08     		.uleb128 0x40f
 10353 01e9 A6710000 		.4byte	.LASF875
 10354 01ed 05       		.byte	0x5
 10355 01ee 9008     		.uleb128 0x410
 10356 01f0 072A0000 		.4byte	.LASF876
 10357 01f4 05       		.byte	0x5
 10358 01f5 9108     		.uleb128 0x411
 10359 01f7 4C2D0000 		.4byte	.LASF877
 10360 01fb 05       		.byte	0x5
 10361 01fc 9208     		.uleb128 0x412
 10362 01fe B1080000 		.4byte	.LASF878
 10363 0202 05       		.byte	0x5
 10364 0203 9308     		.uleb128 0x413
 10365 0205 847B0000 		.4byte	.LASF879
 10366 0209 05       		.byte	0x5
ARM GAS  C:\Users\STUDENT\AppData\Local\Temp\ccMxouBa.s 			page 211


 10367 020a 9408     		.uleb128 0x414
 10368 020c 1E270000 		.4byte	.LASF880
 10369 0210 05       		.byte	0x5
 10370 0211 9508     		.uleb128 0x415
 10371 0213 799A0000 		.4byte	.LASF881
 10372 0217 05       		.byte	0x5
 10373 0218 9608     		.uleb128 0x416
 10374 021a B6610000 		.4byte	.LASF882
 10375 021e 05       		.byte	0x5
 10376 021f 9708     		.uleb128 0x417
 10377 0221 19730000 		.4byte	.LASF883
 10378 0225 05       		.byte	0x5
 10379 0226 9808     		.uleb128 0x418
 10380 0228 94060000 		.4byte	.LASF884
 10381 022c 05       		.byte	0x5
 10382 022d 9908     		.uleb128 0x419
 10383 022f 8E320000 		.4byte	.LASF885
 10384 0233 05       		.byte	0x5
 10385 0234 9A08     		.uleb128 0x41a
 10386 0236 46340000 		.4byte	.LASF886
 10387 023a 05       		.byte	0x5
 10388 023b 9B08     		.uleb128 0x41b
 10389 023d 9E9B0000 		.4byte	.LASF887
 10390 0241 05       		.byte	0x5
 10391 0242 9C08     		.uleb128 0x41c
 10392 0244 31310000 		.4byte	.LASF888
 10393 0248 05       		.byte	0x5
 10394 0249 9D08     		.uleb128 0x41d
 10395 024b 3A520000 		.4byte	.LASF889
 10396 024f 05       		.byte	0x5
 10397 0250 9E08     		.uleb128 0x41e
 10398 0252 7E910000 		.4byte	.LASF890
 10399 0256 05       		.byte	0x5
 10400 0257 9F08     		.uleb128 0x41f
 10401 0259 C36A0000 		.4byte	.LASF891
 10402 025d 05       		.byte	0x5
 10403 025e A008     		.uleb128 0x420
 10404 0260 860A0000 		.4byte	.LASF892
 10405 0264 05       		.byte	0x5
 10406 0265 A108     		.uleb128 0x421
 10407 0267 093E0000 		.4byte	.LASF893
 10408 026b 05       		.byte	0x5
 10409 026c A208     		.uleb128 0x422
 10410 026e 47350000 		.4byte	.LASF894
 10411 0272 05       		.byte	0x5
 10412 0273 A308     		.uleb128 0x423
 10413 0275 A0460000 		.4byte	.LASF895
 10414 0279 05       		.byte	0x5
 10415 027a A408     		.uleb128 0x424
 10416 027c 13580000 		.4byte	.LASF896
 10417 0280 05       		.byte	0x5
 10418 0281 A508     		.uleb128 0x425
 10419 0283 99220000 		.4byte	.LASF897
 10420 0287 05       		.byte	0x5
 10421 0288 A608     		.uleb128 0x426
 10422 028a 442C0000 		.4byte	.LASF898
 10423 028e 05       		.byte	0x5
ARM GAS  C:\Users\STUDENT\AppData\Local\Temp\ccMxouBa.s 			page 212


 10424 028f A708     		.uleb128 0x427
 10425 0291 44210000 		.4byte	.LASF899
 10426 0295 05       		.byte	0x5
 10427 0296 A808     		.uleb128 0x428
 10428 0298 937F0000 		.4byte	.LASF900
 10429 029c 05       		.byte	0x5
 10430 029d A908     		.uleb128 0x429
 10431 029f E55B0000 		.4byte	.LASF901
 10432 02a3 05       		.byte	0x5
 10433 02a4 AA08     		.uleb128 0x42a
 10434 02a6 88AA0000 		.4byte	.LASF902
 10435 02aa 05       		.byte	0x5
 10436 02ab AB08     		.uleb128 0x42b
 10437 02ad 9E300000 		.4byte	.LASF903
 10438 02b1 05       		.byte	0x5
 10439 02b2 AC08     		.uleb128 0x42c
 10440 02b4 55440000 		.4byte	.LASF904
 10441 02b8 05       		.byte	0x5
 10442 02b9 AD08     		.uleb128 0x42d
 10443 02bb 23A40000 		.4byte	.LASF905
 10444 02bf 05       		.byte	0x5
 10445 02c0 AE08     		.uleb128 0x42e
 10446 02c2 B2110000 		.4byte	.LASF906
 10447 02c6 05       		.byte	0x5
 10448 02c7 AF08     		.uleb128 0x42f
 10449 02c9 57A30000 		.4byte	.LASF907
 10450 02cd 05       		.byte	0x5
 10451 02ce B008     		.uleb128 0x430
 10452 02d0 7C070000 		.4byte	.LASF908
 10453 02d4 05       		.byte	0x5
 10454 02d5 B108     		.uleb128 0x431
 10455 02d7 49430000 		.4byte	.LASF909
 10456 02db 00       		.byte	0
 10457              		.section	.debug_macro,"G",%progbits,wm4.lpc_types.h.31.fe468f0c170b3f2fb639f9a689afb2c4,comdat
 10458              	.Ldebug_macro13:
 10459 0000 0400     		.2byte	0x4
 10460 0002 00       		.byte	0
 10461 0003 05       		.byte	0x5
 10462 0004 1F       		.uleb128 0x1f
 10463 0005 5DA40000 		.4byte	.LASF910
 10464 0009 05       		.byte	0x5
 10465 000a 33       		.uleb128 0x33
 10466 000b 88790000 		.4byte	.LASF911
 10467 000f 05       		.byte	0x5
 10468 0010 39       		.uleb128 0x39
 10469 0011 C63B0000 		.4byte	.LASF912
 10470 0015 06       		.byte	0x6
 10471 0016 5F       		.uleb128 0x5f
 10472 0017 ED740000 		.4byte	.LASF913
 10473 001b 05       		.byte	0x5
 10474 001c 61       		.uleb128 0x61
 10475 001d 48570000 		.4byte	.LASF914
 10476 0021 06       		.byte	0x6
 10477 0022 67       		.uleb128 0x67
 10478 0023 973A0000 		.4byte	.LASF915
 10479 0027 05       		.byte	0x5
 10480 0028 69       		.uleb128 0x69
ARM GAS  C:\Users\STUDENT\AppData\Local\Temp\ccMxouBa.s 			page 213


 10481 0029 B1760000 		.4byte	.LASF916
 10482 002d 06       		.byte	0x6
 10483 002e 78       		.uleb128 0x78
 10484 002f 4C440000 		.4byte	.LASF917
 10485 0033 05       		.byte	0x5
 10486 0034 7A       		.uleb128 0x7a
 10487 0035 CB980000 		.4byte	.LASF918
 10488 0039 05       		.byte	0x5
 10489 003a 7E       		.uleb128 0x7e
 10490 003b B75A0000 		.4byte	.LASF919
 10491 003f 05       		.byte	0x5
 10492 0040 8201     		.uleb128 0x82
 10493 0042 509C0000 		.4byte	.LASF920
 10494 0046 05       		.byte	0x5
 10495 0047 8501     		.uleb128 0x85
 10496 0049 6B2F0000 		.4byte	.LASF921
 10497 004d 05       		.byte	0x5
 10498 004e 8701     		.uleb128 0x87
 10499 0050 014E0000 		.4byte	.LASF922
 10500 0054 00       		.byte	0
 10501              		.section	.debug_macro,"G",%progbits,wm4.lpc17xx_uart.h.52.a1fb1adb001ada5669b2fe52461599d7,comdat
 10502              	.Ldebug_macro14:
 10503 0000 0400     		.2byte	0x4
 10504 0002 00       		.byte	0
 10505 0003 05       		.byte	0x5
 10506 0004 34       		.uleb128 0x34
 10507 0005 428F0000 		.4byte	.LASF923
 10508 0009 05       		.byte	0x5
 10509 000a 37       		.uleb128 0x37
 10510 000b DB850000 		.4byte	.LASF924
 10511 000f 05       		.byte	0x5
 10512 0010 3A       		.uleb128 0x3a
 10513 0011 38720000 		.4byte	.LASF925
 10514 0015 05       		.byte	0x5
 10515 0016 3D       		.uleb128 0x3d
 10516 0017 0D710000 		.4byte	.LASF926
 10517 001b 05       		.byte	0x5
 10518 001c 3E       		.uleb128 0x3e
 10519 001d 98190000 		.4byte	.LASF927
 10520 0021 05       		.byte	0x5
 10521 0022 41       		.uleb128 0x41
 10522 0023 01430000 		.4byte	.LASF928
 10523 0027 05       		.byte	0x5
 10524 0028 42       		.uleb128 0x42
 10525 0029 45780000 		.4byte	.LASF929
 10526 002d 05       		.byte	0x5
 10527 002e 46       		.uleb128 0x46
 10528 002f 68710000 		.4byte	.LASF930
 10529 0033 05       		.byte	0x5
 10530 0034 47       		.uleb128 0x47
 10531 0035 E30D0000 		.4byte	.LASF931
 10532 0039 05       		.byte	0x5
 10533 003a 48       		.uleb128 0x48
 10534 003b C5370000 		.4byte	.LASF932
 10535 003f 05       		.byte	0x5
 10536 0040 49       		.uleb128 0x49
 10537 0041 8B760000 		.4byte	.LASF933
ARM GAS  C:\Users\STUDENT\AppData\Local\Temp\ccMxouBa.s 			page 214


 10538 0045 05       		.byte	0x5
 10539 0046 4A       		.uleb128 0x4a
 10540 0047 D83E0000 		.4byte	.LASF934
 10541 004b 05       		.byte	0x5
 10542 004c 4B       		.uleb128 0x4b
 10543 004d 42650000 		.4byte	.LASF935
 10544 0051 05       		.byte	0x5
 10545 0052 4C       		.uleb128 0x4c
 10546 0053 83100000 		.4byte	.LASF936
 10547 0057 05       		.byte	0x5
 10548 0058 4D       		.uleb128 0x4d
 10549 0059 74220000 		.4byte	.LASF937
 10550 005d 05       		.byte	0x5
 10551 005e 4E       		.uleb128 0x4e
 10552 005f 68270000 		.4byte	.LASF938
 10553 0063 05       		.byte	0x5
 10554 0064 52       		.uleb128 0x52
 10555 0065 41150000 		.4byte	.LASF939
 10556 0069 05       		.byte	0x5
 10557 006a 53       		.uleb128 0x53
 10558 006b 5A690000 		.4byte	.LASF940
 10559 006f 05       		.byte	0x5
 10560 0070 54       		.uleb128 0x54
 10561 0071 664A0000 		.4byte	.LASF941
 10562 0075 05       		.byte	0x5
 10563 0076 55       		.uleb128 0x55
 10564 0077 A6590000 		.4byte	.LASF942
 10565 007b 05       		.byte	0x5
 10566 007c 56       		.uleb128 0x56
 10567 007d C10C0000 		.4byte	.LASF943
 10568 0081 05       		.byte	0x5
 10569 0082 57       		.uleb128 0x57
 10570 0083 D82C0000 		.4byte	.LASF944
 10571 0087 05       		.byte	0x5
 10572 0088 58       		.uleb128 0x58
 10573 0089 4F8A0000 		.4byte	.LASF945
 10574 008d 05       		.byte	0x5
 10575 008e 59       		.uleb128 0x59
 10576 008f C9210000 		.4byte	.LASF946
 10577 0093 05       		.byte	0x5
 10578 0094 5A       		.uleb128 0x5a
 10579 0095 2C9E0000 		.4byte	.LASF947
 10580 0099 05       		.byte	0x5
 10581 009a 5B       		.uleb128 0x5b
 10582 009b 3C540000 		.4byte	.LASF948
 10583 009f 05       		.byte	0x5
 10584 00a0 5C       		.uleb128 0x5c
 10585 00a1 EE570000 		.4byte	.LASF949
 10586 00a5 05       		.byte	0x5
 10587 00a6 60       		.uleb128 0x60
 10588 00a7 71940000 		.4byte	.LASF950
 10589 00ab 05       		.byte	0x5
 10590 00ac 61       		.uleb128 0x61
 10591 00ad 2C910000 		.4byte	.LASF951
 10592 00b1 05       		.byte	0x5
 10593 00b2 62       		.uleb128 0x62
 10594 00b3 2E8A0000 		.4byte	.LASF952
ARM GAS  C:\Users\STUDENT\AppData\Local\Temp\ccMxouBa.s 			page 215


 10595 00b7 05       		.byte	0x5
 10596 00b8 63       		.uleb128 0x63
 10597 00b9 0F5E0000 		.4byte	.LASF953
 10598 00bd 05       		.byte	0x5
 10599 00be 64       		.uleb128 0x64
 10600 00bf B7130000 		.4byte	.LASF954
 10601 00c3 05       		.byte	0x5
 10602 00c4 65       		.uleb128 0x65
 10603 00c5 FB9F0000 		.4byte	.LASF955
 10604 00c9 05       		.byte	0x5
 10605 00ca 66       		.uleb128 0x66
 10606 00cb B91E0000 		.4byte	.LASF956
 10607 00cf 05       		.byte	0x5
 10608 00d0 67       		.uleb128 0x67
 10609 00d1 56A60000 		.4byte	.LASF957
 10610 00d5 05       		.byte	0x5
 10611 00d6 68       		.uleb128 0x68
 10612 00d7 4D910000 		.4byte	.LASF958
 10613 00db 05       		.byte	0x5
 10614 00dc 69       		.uleb128 0x69
 10615 00dd D8130000 		.4byte	.LASF959
 10616 00e1 05       		.byte	0x5
 10617 00e2 6C       		.uleb128 0x6c
 10618 00e3 23950000 		.4byte	.LASF960
 10619 00e7 05       		.byte	0x5
 10620 00e8 6D       		.uleb128 0x6d
 10621 00e9 551A0000 		.4byte	.LASF961
 10622 00ed 05       		.byte	0x5
 10623 00ee 6E       		.uleb128 0x6e
 10624 00ef 5C4B0000 		.4byte	.LASF962
 10625 00f3 05       		.byte	0x5
 10626 00f4 6F       		.uleb128 0x6f
 10627 00f5 D8730000 		.4byte	.LASF963
 10628 00f9 05       		.byte	0x5
 10629 00fa 70       		.uleb128 0x70
 10630 00fb 226D0000 		.4byte	.LASF964
 10631 00ff 05       		.byte	0x5
 10632 0100 71       		.uleb128 0x71
 10633 0101 D39D0000 		.4byte	.LASF965
 10634 0105 05       		.byte	0x5
 10635 0106 72       		.uleb128 0x72
 10636 0107 42070000 		.4byte	.LASF966
 10637 010b 05       		.byte	0x5
 10638 010c 73       		.uleb128 0x73
 10639 010d F7220000 		.4byte	.LASF967
 10640 0111 05       		.byte	0x5
 10641 0112 74       		.uleb128 0x74
 10642 0113 B22C0000 		.4byte	.LASF968
 10643 0117 05       		.byte	0x5
 10644 0118 75       		.uleb128 0x75
 10645 0119 4B0B0000 		.4byte	.LASF969
 10646 011d 05       		.byte	0x5
 10647 011e 76       		.uleb128 0x76
 10648 011f 2C3F0000 		.4byte	.LASF970
 10649 0123 05       		.byte	0x5
 10650 0124 77       		.uleb128 0x77
 10651 0125 B9690000 		.4byte	.LASF971
ARM GAS  C:\Users\STUDENT\AppData\Local\Temp\ccMxouBa.s 			page 216


 10652 0129 05       		.byte	0x5
 10653 012a 78       		.uleb128 0x78
 10654 012b CC720000 		.4byte	.LASF972
 10655 012f 05       		.byte	0x5
 10656 0130 7C       		.uleb128 0x7c
 10657 0131 63AA0000 		.4byte	.LASF973
 10658 0135 05       		.byte	0x5
 10659 0136 7D       		.uleb128 0x7d
 10660 0137 CF7E0000 		.4byte	.LASF974
 10661 013b 05       		.byte	0x5
 10662 013c 7E       		.uleb128 0x7e
 10663 013d 5D880000 		.4byte	.LASF975
 10664 0141 05       		.byte	0x5
 10665 0142 7F       		.uleb128 0x7f
 10666 0143 F3550000 		.4byte	.LASF976
 10667 0147 05       		.byte	0x5
 10668 0148 8001     		.uleb128 0x80
 10669 014a 80A50000 		.4byte	.LASF977
 10670 014e 05       		.byte	0x5
 10671 014f 8101     		.uleb128 0x81
 10672 0151 AC280000 		.4byte	.LASF978
 10673 0155 05       		.byte	0x5
 10674 0156 8501     		.uleb128 0x85
 10675 0158 869C0000 		.4byte	.LASF979
 10676 015c 05       		.byte	0x5
 10677 015d 8601     		.uleb128 0x86
 10678 015f 21850000 		.4byte	.LASF980
 10679 0163 05       		.byte	0x5
 10680 0164 8701     		.uleb128 0x87
 10681 0166 48790000 		.4byte	.LASF981
 10682 016a 05       		.byte	0x5
 10683 016b 8801     		.uleb128 0x88
 10684 016d 34640000 		.4byte	.LASF982
 10685 0171 05       		.byte	0x5
 10686 0172 8901     		.uleb128 0x89
 10687 0174 57190000 		.4byte	.LASF983
 10688 0178 05       		.byte	0x5
 10689 0179 8A01     		.uleb128 0x8a
 10690 017b D07B0000 		.4byte	.LASF984
 10691 017f 05       		.byte	0x5
 10692 0180 8B01     		.uleb128 0x8b
 10693 0182 FAAA0000 		.4byte	.LASF985
 10694 0186 05       		.byte	0x5
 10695 0187 8C01     		.uleb128 0x8c
 10696 0189 DE0F0000 		.4byte	.LASF986
 10697 018d 05       		.byte	0x5
 10698 018e 8D01     		.uleb128 0x8d
 10699 0190 C26C0000 		.4byte	.LASF987
 10700 0194 05       		.byte	0x5
 10701 0195 9101     		.uleb128 0x91
 10702 0197 6A8E0000 		.4byte	.LASF988
 10703 019b 05       		.byte	0x5
 10704 019c 9201     		.uleb128 0x92
 10705 019e 10330000 		.4byte	.LASF989
 10706 01a2 05       		.byte	0x5
 10707 01a3 9301     		.uleb128 0x93
 10708 01a5 CF700000 		.4byte	.LASF990
ARM GAS  C:\Users\STUDENT\AppData\Local\Temp\ccMxouBa.s 			page 217


 10709 01a9 05       		.byte	0x5
 10710 01aa 9401     		.uleb128 0x94
 10711 01ac 1E320000 		.4byte	.LASF991
 10712 01b0 05       		.byte	0x5
 10713 01b1 9501     		.uleb128 0x95
 10714 01b3 2D6C0000 		.4byte	.LASF992
 10715 01b7 05       		.byte	0x5
 10716 01b8 9601     		.uleb128 0x96
 10717 01ba 773A0000 		.4byte	.LASF993
 10718 01be 05       		.byte	0x5
 10719 01bf 9701     		.uleb128 0x97
 10720 01c1 8F4E0000 		.4byte	.LASF994
 10721 01c5 05       		.byte	0x5
 10722 01c6 9801     		.uleb128 0x98
 10723 01c8 2A670000 		.4byte	.LASF995
 10724 01cc 05       		.byte	0x5
 10725 01cd 9901     		.uleb128 0x99
 10726 01cf 366B0000 		.4byte	.LASF996
 10727 01d3 05       		.byte	0x5
 10728 01d4 9D01     		.uleb128 0x9d
 10729 01d6 5A660000 		.4byte	.LASF997
 10730 01da 05       		.byte	0x5
 10731 01db A001     		.uleb128 0xa0
 10732 01dd A90E0000 		.4byte	.LASF998
 10733 01e1 05       		.byte	0x5
 10734 01e2 A101     		.uleb128 0xa1
 10735 01e4 1A960000 		.4byte	.LASF999
 10736 01e8 05       		.byte	0x5
 10737 01e9 A201     		.uleb128 0xa2
 10738 01eb FA440000 		.4byte	.LASF1000
 10739 01ef 05       		.byte	0x5
 10740 01f0 A301     		.uleb128 0xa3
 10741 01f2 110E0000 		.4byte	.LASF1001
 10742 01f6 05       		.byte	0x5
 10743 01f7 A401     		.uleb128 0xa4
 10744 01f9 6C060000 		.4byte	.LASF1002
 10745 01fd 05       		.byte	0x5
 10746 01fe A501     		.uleb128 0xa5
 10747 0200 52260000 		.4byte	.LASF1003
 10748 0204 05       		.byte	0x5
 10749 0205 A801     		.uleb128 0xa8
 10750 0207 186A0000 		.4byte	.LASF1004
 10751 020b 05       		.byte	0x5
 10752 020c A901     		.uleb128 0xa9
 10753 020e 049F0000 		.4byte	.LASF1005
 10754 0212 05       		.byte	0x5
 10755 0213 AA01     		.uleb128 0xaa
 10756 0215 D98E0000 		.4byte	.LASF1006
 10757 0219 05       		.byte	0x5
 10758 021a AB01     		.uleb128 0xab
 10759 021c AE8D0000 		.4byte	.LASF1007
 10760 0220 05       		.byte	0x5
 10761 0221 AC01     		.uleb128 0xac
 10762 0223 41530000 		.4byte	.LASF1008
 10763 0227 05       		.byte	0x5
 10764 0228 AF01     		.uleb128 0xaf
 10765 022a 91260000 		.4byte	.LASF1009
ARM GAS  C:\Users\STUDENT\AppData\Local\Temp\ccMxouBa.s 			page 218


 10766 022e 05       		.byte	0x5
 10767 022f B001     		.uleb128 0xb0
 10768 0231 32930000 		.4byte	.LASF1010
 10769 0235 05       		.byte	0x5
 10770 0236 B101     		.uleb128 0xb1
 10771 0238 01300000 		.4byte	.LASF1011
 10772 023c 05       		.byte	0x5
 10773 023d B401     		.uleb128 0xb4
 10774 023f FA380000 		.4byte	.LASF1012
 10775 0243 05       		.byte	0x5
 10776 0244 B501     		.uleb128 0xb5
 10777 0246 E6620000 		.4byte	.LASF1013
 10778 024a 05       		.byte	0x5
 10779 024b B901     		.uleb128 0xb9
 10780 024d 6EA00000 		.4byte	.LASF1014
 10781 0251 05       		.byte	0x5
 10782 0252 BB01     		.uleb128 0xbb
 10783 0254 4E590000 		.4byte	.LASF1015
 10784 0258 05       		.byte	0x5
 10785 0259 BC01     		.uleb128 0xbc
 10786 025b F40B0000 		.4byte	.LASF1016
 10787 025f 05       		.byte	0x5
 10788 0260 BD01     		.uleb128 0xbd
 10789 0262 DC690000 		.4byte	.LASF1017
 10790 0266 05       		.byte	0x5
 10791 0267 BF01     		.uleb128 0xbf
 10792 0269 68630000 		.4byte	.LASF1018
 10793 026d 05       		.byte	0x5
 10794 026e C001     		.uleb128 0xc0
 10795 0270 6F4D0000 		.4byte	.LASF1019
 10796 0274 05       		.byte	0x5
 10797 0275 C301     		.uleb128 0xc3
 10798 0277 94620000 		.4byte	.LASF1020
 10799 027b 05       		.byte	0x5
 10800 027c C701     		.uleb128 0xc7
 10801 027e 04920000 		.4byte	.LASF1021
 10802 0282 05       		.byte	0x5
 10803 0283 CA01     		.uleb128 0xca
 10804 0285 355D0000 		.4byte	.LASF1022
 10805 0289 05       		.byte	0x5
 10806 028a CE01     		.uleb128 0xce
 10807 028c 70610000 		.4byte	.LASF1023
 10808 0290 05       		.byte	0x5
 10809 0291 CF01     		.uleb128 0xcf
 10810 0293 9D450000 		.4byte	.LASF1024
 10811 0297 05       		.byte	0x5
 10812 0298 D001     		.uleb128 0xd0
 10813 029a 93400000 		.4byte	.LASF1025
 10814 029e 05       		.byte	0x5
 10815 029f EC01     		.uleb128 0xec
 10816 02a1 DE270000 		.4byte	.LASF1026
 10817 02a5 05       		.byte	0x5
 10818 02a6 F801     		.uleb128 0xf8
 10819 02a8 AC810000 		.4byte	.LASF1027
 10820 02ac 05       		.byte	0x5
 10821 02ad 8602     		.uleb128 0x106
 10822 02af DF2A0000 		.4byte	.LASF1028
ARM GAS  C:\Users\STUDENT\AppData\Local\Temp\ccMxouBa.s 			page 219


 10823 02b3 05       		.byte	0x5
 10824 02b4 9502     		.uleb128 0x115
 10825 02b6 33840000 		.4byte	.LASF1029
 10826 02ba 05       		.byte	0x5
 10827 02bb A702     		.uleb128 0x127
 10828 02bd 4B240000 		.4byte	.LASF1030
 10829 02c1 05       		.byte	0x5
 10830 02c2 AC02     		.uleb128 0x12c
 10831 02c4 3BA80000 		.4byte	.LASF1031
 10832 02c8 05       		.byte	0x5
 10833 02c9 C702     		.uleb128 0x147
 10834 02cb 945C0000 		.4byte	.LASF1032
 10835 02cf 05       		.byte	0x5
 10836 02d0 DB02     		.uleb128 0x15b
 10837 02d2 C4820000 		.4byte	.LASF1033
 10838 02d6 05       		.byte	0x5
 10839 02d7 F502     		.uleb128 0x175
 10840 02d9 F07B0000 		.4byte	.LASF1034
 10841 02dd 05       		.byte	0x5
 10842 02de 8303     		.uleb128 0x183
 10843 02e0 012D0000 		.4byte	.LASF1035
 10844 02e4 05       		.byte	0x5
 10845 02e5 9C03     		.uleb128 0x19c
 10846 02e7 FB230000 		.4byte	.LASF1036
 10847 02eb 05       		.byte	0x5
 10848 02ec A903     		.uleb128 0x1a9
 10849 02ee 1AAB0000 		.4byte	.LASF1037
 10850 02f2 05       		.byte	0x5
 10851 02f3 B603     		.uleb128 0x1b6
 10852 02f5 D5630000 		.4byte	.LASF1038
 10853 02f9 05       		.byte	0x5
 10854 02fa A404     		.uleb128 0x224
 10855 02fc B91A0000 		.4byte	.LASF1039
 10856 0300 05       		.byte	0x5
 10857 0301 A804     		.uleb128 0x228
 10858 0303 0A2F0000 		.4byte	.LASF1040
 10859 0307 05       		.byte	0x5
 10860 0308 A904     		.uleb128 0x229
 10861 030a 43100000 		.4byte	.LASF1041
 10862 030e 05       		.byte	0x5
 10863 030f AD04     		.uleb128 0x22d
 10864 0311 ADA60000 		.4byte	.LASF1042
 10865 0315 05       		.byte	0x5
 10866 0316 B004     		.uleb128 0x230
 10867 0318 37390000 		.4byte	.LASF1043
 10868 031c 05       		.byte	0x5
 10869 031d B704     		.uleb128 0x237
 10870 031f 9F820000 		.4byte	.LASF1044
 10871 0323 00       		.byte	0
 10872              		.section	.debug_macro,"G",%progbits,wm4.lpc17xx_clkpwr.h.28.ed653d213cc31b181c2f984ea62223b0,comda
 10873              	.Ldebug_macro15:
 10874 0000 0400     		.2byte	0x4
 10875 0002 00       		.byte	0
 10876 0003 05       		.byte	0x5
 10877 0004 1C       		.uleb128 0x1c
 10878 0005 FF7F0000 		.4byte	.LASF1045
 10879 0009 05       		.byte	0x5
ARM GAS  C:\Users\STUDENT\AppData\Local\Temp\ccMxouBa.s 			page 220


 10880 000a 33       		.uleb128 0x33
 10881 000b 946A0000 		.4byte	.LASF1046
 10882 000f 05       		.byte	0x5
 10883 0010 35       		.uleb128 0x35
 10884 0011 11210000 		.4byte	.LASF1047
 10885 0015 05       		.byte	0x5
 10886 0016 37       		.uleb128 0x37
 10887 0017 E2610000 		.4byte	.LASF1048
 10888 001b 05       		.byte	0x5
 10889 001c 39       		.uleb128 0x39
 10890 001d C7160000 		.4byte	.LASF1049
 10891 0021 05       		.byte	0x5
 10892 0022 3E       		.uleb128 0x3e
 10893 0023 21600000 		.4byte	.LASF1050
 10894 0027 05       		.byte	0x5
 10895 0028 40       		.uleb128 0x40
 10896 0029 149A0000 		.4byte	.LASF1051
 10897 002d 05       		.byte	0x5
 10898 002e 42       		.uleb128 0x42
 10899 002f EA710000 		.4byte	.LASF1052
 10900 0033 05       		.byte	0x5
 10901 0034 44       		.uleb128 0x44
 10902 0035 AB360000 		.4byte	.LASF1053
 10903 0039 05       		.byte	0x5
 10904 003a 46       		.uleb128 0x46
 10905 003b E8950000 		.4byte	.LASF1054
 10906 003f 05       		.byte	0x5
 10907 0040 48       		.uleb128 0x48
 10908 0041 A3850000 		.4byte	.LASF1055
 10909 0045 05       		.byte	0x5
 10910 0046 4A       		.uleb128 0x4a
 10911 0047 86510000 		.4byte	.LASF1056
 10912 004b 05       		.byte	0x5
 10913 004c 4C       		.uleb128 0x4c
 10914 004d 660D0000 		.4byte	.LASF1057
 10915 0051 05       		.byte	0x5
 10916 0052 4E       		.uleb128 0x4e
 10917 0053 43610000 		.4byte	.LASF1058
 10918 0057 05       		.byte	0x5
 10919 0058 53       		.uleb128 0x53
 10920 0059 0F5A0000 		.4byte	.LASF1059
 10921 005d 05       		.byte	0x5
 10922 005e 55       		.uleb128 0x55
 10923 005f E5590000 		.4byte	.LASF1060
 10924 0063 05       		.byte	0x5
 10925 0064 57       		.uleb128 0x57
 10926 0065 73A10000 		.4byte	.LASF1061
 10927 0069 05       		.byte	0x5
 10928 006a 5C       		.uleb128 0x5c
 10929 006b 5E330000 		.4byte	.LASF1062
 10930 006f 05       		.byte	0x5
 10931 0070 5E       		.uleb128 0x5e
 10932 0071 6A150000 		.4byte	.LASF1063
 10933 0075 05       		.byte	0x5
 10934 0076 60       		.uleb128 0x60
 10935 0077 82730000 		.4byte	.LASF1064
 10936 007b 05       		.byte	0x5
ARM GAS  C:\Users\STUDENT\AppData\Local\Temp\ccMxouBa.s 			page 221


 10937 007c 65       		.uleb128 0x65
 10938 007d BF4B0000 		.4byte	.LASF1065
 10939 0081 05       		.byte	0x5
 10940 0082 67       		.uleb128 0x67
 10941 0083 9C8E0000 		.4byte	.LASF1066
 10942 0087 05       		.byte	0x5
 10943 0088 69       		.uleb128 0x69
 10944 0089 1E770000 		.4byte	.LASF1067
 10945 008d 05       		.byte	0x5
 10946 008e 6B       		.uleb128 0x6b
 10947 008f 35020000 		.4byte	.LASF1068
 10948 0093 05       		.byte	0x5
 10949 0094 6D       		.uleb128 0x6d
 10950 0095 4F6F0000 		.4byte	.LASF1069
 10951 0099 05       		.byte	0x5
 10952 009a 72       		.uleb128 0x72
 10953 009b 6C8C0000 		.4byte	.LASF1070
 10954 009f 05       		.byte	0x5
 10955 00a0 77       		.uleb128 0x77
 10956 00a1 69650000 		.4byte	.LASF1071
 10957 00a5 05       		.byte	0x5
 10958 00a6 79       		.uleb128 0x79
 10959 00a7 91040000 		.4byte	.LASF1072
 10960 00ab 05       		.byte	0x5
 10961 00ac 7B       		.uleb128 0x7b
 10962 00ad EF720000 		.4byte	.LASF1073
 10963 00b1 05       		.byte	0x5
 10964 00b2 8001     		.uleb128 0x80
 10965 00b4 B13A0000 		.4byte	.LASF1074
 10966 00b8 05       		.byte	0x5
 10967 00b9 8201     		.uleb128 0x82
 10968 00bb C7100000 		.4byte	.LASF1075
 10969 00bf 05       		.byte	0x5
 10970 00c0 8401     		.uleb128 0x84
 10971 00c2 D76E0000 		.4byte	.LASF1076
 10972 00c6 05       		.byte	0x5
 10973 00c7 8901     		.uleb128 0x89
 10974 00c9 FF3E0000 		.4byte	.LASF1077
 10975 00cd 05       		.byte	0x5
 10976 00ce 8B01     		.uleb128 0x8b
 10977 00d0 2D410000 		.4byte	.LASF1078
 10978 00d4 05       		.byte	0x5
 10979 00d5 8D01     		.uleb128 0x8d
 10980 00d7 DD560000 		.4byte	.LASF1079
 10981 00db 05       		.byte	0x5
 10982 00dc 8F01     		.uleb128 0x8f
 10983 00de 999E0000 		.4byte	.LASF1080
 10984 00e2 05       		.byte	0x5
 10985 00e3 9101     		.uleb128 0x91
 10986 00e5 EA9A0000 		.4byte	.LASF1081
 10987 00e9 05       		.byte	0x5
 10988 00ea 9601     		.uleb128 0x96
 10989 00ec 9F740000 		.4byte	.LASF1082
 10990 00f0 05       		.byte	0x5
 10991 00f1 9B01     		.uleb128 0x9b
 10992 00f3 54A20000 		.4byte	.LASF1083
 10993 00f7 05       		.byte	0x5
ARM GAS  C:\Users\STUDENT\AppData\Local\Temp\ccMxouBa.s 			page 222


 10994 00f8 9F01     		.uleb128 0x9f
 10995 00fa 00910000 		.4byte	.LASF1084
 10996 00fe 05       		.byte	0x5
 10997 00ff A301     		.uleb128 0xa3
 10998 0101 5B8D0000 		.4byte	.LASF1085
 10999 0105 05       		.byte	0x5
 11000 0106 A801     		.uleb128 0xa8
 11001 0108 83530000 		.4byte	.LASF1086
 11002 010c 05       		.byte	0x5
 11003 010d AA01     		.uleb128 0xaa
 11004 010f ECA10000 		.4byte	.LASF1087
 11005 0113 05       		.byte	0x5
 11006 0114 B001     		.uleb128 0xb0
 11007 0116 2C4D0000 		.4byte	.LASF1088
 11008 011a 05       		.byte	0x5
 11009 011b B201     		.uleb128 0xb2
 11010 011d AF290000 		.4byte	.LASF1089
 11011 0121 05       		.byte	0x5
 11012 0122 B401     		.uleb128 0xb4
 11013 0124 A5680000 		.4byte	.LASF1090
 11014 0128 05       		.byte	0x5
 11015 0129 B901     		.uleb128 0xb9
 11016 012b 82560000 		.4byte	.LASF1091
 11017 012f 05       		.byte	0x5
 11018 0130 BB01     		.uleb128 0xbb
 11019 0132 F9660000 		.4byte	.LASF1092
 11020 0136 05       		.byte	0x5
 11021 0137 BD01     		.uleb128 0xbd
 11022 0139 78990000 		.4byte	.LASF1093
 11023 013d 05       		.byte	0x5
 11024 013e BF01     		.uleb128 0xbf
 11025 0140 75810000 		.4byte	.LASF1094
 11026 0144 05       		.byte	0x5
 11027 0145 C101     		.uleb128 0xc1
 11028 0147 A87D0000 		.4byte	.LASF1095
 11029 014b 05       		.byte	0x5
 11030 014c C301     		.uleb128 0xc3
 11031 014e 1B880000 		.4byte	.LASF1096
 11032 0152 05       		.byte	0x5
 11033 0153 C501     		.uleb128 0xc5
 11034 0155 B8A70000 		.4byte	.LASF1097
 11035 0159 05       		.byte	0x5
 11036 015a C701     		.uleb128 0xc7
 11037 015c 8D980000 		.4byte	.LASF1098
 11038 0160 05       		.byte	0x5
 11039 0161 C901     		.uleb128 0xc9
 11040 0163 D9420000 		.4byte	.LASF1099
 11041 0167 05       		.byte	0x5
 11042 0168 CD01     		.uleb128 0xcd
 11043 016a F3180000 		.4byte	.LASF1100
 11044 016e 05       		.byte	0x5
 11045 016f E101     		.uleb128 0xe1
 11046 0171 F7530000 		.4byte	.LASF1101
 11047 0175 05       		.byte	0x5
 11048 0176 E301     		.uleb128 0xe3
 11049 0178 2D470000 		.4byte	.LASF1102
 11050 017c 05       		.byte	0x5
ARM GAS  C:\Users\STUDENT\AppData\Local\Temp\ccMxouBa.s 			page 223


 11051 017d E501     		.uleb128 0xe5
 11052 017f C2AA0000 		.4byte	.LASF1103
 11053 0183 05       		.byte	0x5
 11054 0184 E701     		.uleb128 0xe7
 11055 0186 41950000 		.4byte	.LASF1104
 11056 018a 05       		.byte	0x5
 11057 018b E901     		.uleb128 0xe9
 11058 018d 36740000 		.4byte	.LASF1105
 11059 0191 05       		.byte	0x5
 11060 0192 EB01     		.uleb128 0xeb
 11061 0194 F7050000 		.4byte	.LASF1106
 11062 0198 05       		.byte	0x5
 11063 0199 ED01     		.uleb128 0xed
 11064 019b 6F620000 		.4byte	.LASF1107
 11065 019f 05       		.byte	0x5
 11066 01a0 EF01     		.uleb128 0xef
 11067 01a2 C01F0000 		.4byte	.LASF1108
 11068 01a6 05       		.byte	0x5
 11069 01a7 F101     		.uleb128 0xf1
 11070 01a9 2BA00000 		.4byte	.LASF1109
 11071 01ad 05       		.byte	0x5
 11072 01ae F301     		.uleb128 0xf3
 11073 01b0 1B110000 		.4byte	.LASF1110
 11074 01b4 05       		.byte	0x5
 11075 01b5 F501     		.uleb128 0xf5
 11076 01b7 6A800000 		.4byte	.LASF1111
 11077 01bb 05       		.byte	0x5
 11078 01bc F701     		.uleb128 0xf7
 11079 01be 1BA90000 		.4byte	.LASF1112
 11080 01c2 05       		.byte	0x5
 11081 01c3 F901     		.uleb128 0xf9
 11082 01c5 45980000 		.4byte	.LASF1113
 11083 01c9 05       		.byte	0x5
 11084 01ca FB01     		.uleb128 0xfb
 11085 01cc CE6B0000 		.4byte	.LASF1114
 11086 01d0 05       		.byte	0x5
 11087 01d1 FD01     		.uleb128 0xfd
 11088 01d3 23450000 		.4byte	.LASF1115
 11089 01d7 05       		.byte	0x5
 11090 01d8 FF01     		.uleb128 0xff
 11091 01da A5560000 		.4byte	.LASF1116
 11092 01de 05       		.byte	0x5
 11093 01df 8102     		.uleb128 0x101
 11094 01e1 478C0000 		.4byte	.LASF1117
 11095 01e5 05       		.byte	0x5
 11096 01e6 8302     		.uleb128 0x103
 11097 01e8 2E0F0000 		.4byte	.LASF1118
 11098 01ec 05       		.byte	0x5
 11099 01ed 8502     		.uleb128 0x105
 11100 01ef B80A0000 		.4byte	.LASF1119
 11101 01f3 05       		.byte	0x5
 11102 01f4 8702     		.uleb128 0x107
 11103 01f6 F5410000 		.4byte	.LASF1120
 11104 01fa 05       		.byte	0x5
 11105 01fb 8902     		.uleb128 0x109
 11106 01fd 4B940000 		.4byte	.LASF1121
 11107 0201 05       		.byte	0x5
ARM GAS  C:\Users\STUDENT\AppData\Local\Temp\ccMxouBa.s 			page 224


 11108 0202 8B02     		.uleb128 0x10b
 11109 0204 66470000 		.4byte	.LASF1122
 11110 0208 05       		.byte	0x5
 11111 0209 8D02     		.uleb128 0x10d
 11112 020b 365E0000 		.4byte	.LASF1123
 11113 020f 05       		.byte	0x5
 11114 0210 8F02     		.uleb128 0x10f
 11115 0212 48290000 		.4byte	.LASF1124
 11116 0216 05       		.byte	0x5
 11117 0217 9102     		.uleb128 0x111
 11118 0219 1B560000 		.4byte	.LASF1125
 11119 021d 05       		.byte	0x5
 11120 021e 9302     		.uleb128 0x113
 11121 0220 BCA00000 		.4byte	.LASF1126
 11122 0224 05       		.byte	0x5
 11123 0225 9502     		.uleb128 0x115
 11124 0227 BC2A0000 		.4byte	.LASF1127
 11125 022b 05       		.byte	0x5
 11126 022c 9C02     		.uleb128 0x11c
 11127 022e 19200000 		.4byte	.LASF1128
 11128 0232 05       		.byte	0x5
 11129 0233 9E02     		.uleb128 0x11e
 11130 0235 08940000 		.4byte	.LASF1129
 11131 0239 05       		.byte	0x5
 11132 023a A002     		.uleb128 0x120
 11133 023c C63F0000 		.4byte	.LASF1130
 11134 0240 05       		.byte	0x5
 11135 0241 A702     		.uleb128 0x127
 11136 0243 4AA50000 		.4byte	.LASF1131
 11137 0247 05       		.byte	0x5
 11138 0248 A902     		.uleb128 0x129
 11139 024a 9E5F0000 		.4byte	.LASF1132
 11140 024e 05       		.byte	0x5
 11141 024f AB02     		.uleb128 0x12b
 11142 0251 DC580000 		.4byte	.LASF1133
 11143 0255 05       		.byte	0x5
 11144 0256 AD02     		.uleb128 0x12d
 11145 0258 271C0000 		.4byte	.LASF1134
 11146 025c 05       		.byte	0x5
 11147 025d AF02     		.uleb128 0x12f
 11148 025f 8F430000 		.4byte	.LASF1135
 11149 0263 05       		.byte	0x5
 11150 0264 B102     		.uleb128 0x131
 11151 0266 DA150000 		.4byte	.LASF1136
 11152 026a 05       		.byte	0x5
 11153 026b B302     		.uleb128 0x133
 11154 026d EDA90000 		.4byte	.LASF1137
 11155 0271 05       		.byte	0x5
 11156 0272 B502     		.uleb128 0x135
 11157 0274 AC340000 		.4byte	.LASF1138
 11158 0278 05       		.byte	0x5
 11159 0279 B702     		.uleb128 0x137
 11160 027b 261E0000 		.4byte	.LASF1139
 11161 027f 05       		.byte	0x5
 11162 0280 B902     		.uleb128 0x139
 11163 0282 3E820000 		.4byte	.LASF1140
 11164 0286 05       		.byte	0x5
ARM GAS  C:\Users\STUDENT\AppData\Local\Temp\ccMxouBa.s 			page 225


 11165 0287 BB02     		.uleb128 0x13b
 11166 0289 19360000 		.4byte	.LASF1141
 11167 028d 05       		.byte	0x5
 11168 028e BD02     		.uleb128 0x13d
 11169 0290 F0780000 		.4byte	.LASF1142
 11170 0294 05       		.byte	0x5
 11171 0295 BF02     		.uleb128 0x13f
 11172 0297 B0730000 		.4byte	.LASF1143
 11173 029b 05       		.byte	0x5
 11174 029c C102     		.uleb128 0x141
 11175 029e FCA30000 		.4byte	.LASF1144
 11176 02a2 05       		.byte	0x5
 11177 02a3 C302     		.uleb128 0x143
 11178 02a5 4E220000 		.4byte	.LASF1145
 11179 02a9 05       		.byte	0x5
 11180 02aa C502     		.uleb128 0x145
 11181 02ac BE3D0000 		.4byte	.LASF1146
 11182 02b0 05       		.byte	0x5
 11183 02b1 C702     		.uleb128 0x147
 11184 02b3 F26B0000 		.4byte	.LASF1147
 11185 02b7 05       		.byte	0x5
 11186 02b8 C902     		.uleb128 0x149
 11187 02ba FC400000 		.4byte	.LASF1148
 11188 02be 05       		.byte	0x5
 11189 02bf CB02     		.uleb128 0x14b
 11190 02c1 FE010000 		.4byte	.LASF1149
 11191 02c5 05       		.byte	0x5
 11192 02c6 CD02     		.uleb128 0x14d
 11193 02c8 E3A00000 		.4byte	.LASF1150
 11194 02cc 05       		.byte	0x5
 11195 02cd CF02     		.uleb128 0x14f
 11196 02cf 1C680000 		.4byte	.LASF1151
 11197 02d3 05       		.byte	0x5
 11198 02d4 D102     		.uleb128 0x151
 11199 02d6 3D4A0000 		.4byte	.LASF1152
 11200 02da 05       		.byte	0x5
 11201 02db D302     		.uleb128 0x153
 11202 02dd A0150000 		.4byte	.LASF1153
 11203 02e1 05       		.byte	0x5
 11204 02e2 D502     		.uleb128 0x155
 11205 02e4 DC350000 		.4byte	.LASF1154
 11206 02e8 05       		.byte	0x5
 11207 02e9 D702     		.uleb128 0x157
 11208 02eb DE9C0000 		.4byte	.LASF1155
 11209 02ef 05       		.byte	0x5
 11210 02f0 D902     		.uleb128 0x159
 11211 02f2 C2840000 		.4byte	.LASF1156
 11212 02f6 05       		.byte	0x5
 11213 02f7 DB02     		.uleb128 0x15b
 11214 02f9 485C0000 		.4byte	.LASF1157
 11215 02fd 00       		.byte	0
 11216              		.section	.debug_macro,"G",%progbits,wm4.lpc17xx_libcfg_default.h.27.7c412cdf4245ef94b86bdcf981a232
 11217              	.Ldebug_macro16:
 11218 0000 0400     		.2byte	0x4
 11219 0002 00       		.byte	0
 11220 0003 05       		.byte	0x5
 11221 0004 1B       		.uleb128 0x1b
ARM GAS  C:\Users\STUDENT\AppData\Local\Temp\ccMxouBa.s 			page 226


 11222 0005 B47E0000 		.4byte	.LASF1158
 11223 0009 05       		.byte	0x5
 11224 000a 2A       		.uleb128 0x2a
 11225 000b 05120000 		.4byte	.LASF1159
 11226 000f 05       		.byte	0x5
 11227 0010 32       		.uleb128 0x32
 11228 0011 9C6F0000 		.4byte	.LASF1160
 11229 0015 05       		.byte	0x5
 11230 0016 35       		.uleb128 0x35
 11231 0017 F80A0000 		.4byte	.LASF1161
 11232 001b 05       		.byte	0x5
 11233 001c 36       		.uleb128 0x36
 11234 001d B7570000 		.4byte	.LASF1162
 11235 0021 05       		.byte	0x5
 11236 0022 37       		.uleb128 0x37
 11237 0023 47770000 		.4byte	.LASF1163
 11238 0027 05       		.byte	0x5
 11239 0028 38       		.uleb128 0x38
 11240 0029 FE480000 		.4byte	.LASF1164
 11241 002d 05       		.byte	0x5
 11242 002e 39       		.uleb128 0x39
 11243 002f F8100000 		.4byte	.LASF1165
 11244 0033 05       		.byte	0x5
 11245 0034 3C       		.uleb128 0x3c
 11246 0035 16780000 		.4byte	.LASF1166
 11247 0039 05       		.byte	0x5
 11248 003a 3F       		.uleb128 0x3f
 11249 003b 7A750000 		.4byte	.LASF1167
 11250 003f 05       		.byte	0x5
 11251 0040 40       		.uleb128 0x40
 11252 0041 1AA50000 		.4byte	.LASF1168
 11253 0045 05       		.byte	0x5
 11254 0046 41       		.uleb128 0x41
 11255 0047 5A320000 		.4byte	.LASF1169
 11256 004b 05       		.byte	0x5
 11257 004c 45       		.uleb128 0x45
 11258 004d 110F0000 		.4byte	.LASF1170
 11259 0051 05       		.byte	0x5
 11260 0052 46       		.uleb128 0x46
 11261 0053 09210000 		.4byte	.LASF1171
 11262 0057 05       		.byte	0x5
 11263 0058 47       		.uleb128 0x47
 11264 0059 8C6A0000 		.4byte	.LASF1172
 11265 005d 05       		.byte	0x5
 11266 005e 48       		.uleb128 0x48
 11267 005f 69700000 		.4byte	.LASF1173
 11268 0063 05       		.byte	0x5
 11269 0064 4B       		.uleb128 0x4b
 11270 0065 03050000 		.4byte	.LASF1174
 11271 0069 05       		.byte	0x5
 11272 006a 4E       		.uleb128 0x4e
 11273 006b AE800000 		.4byte	.LASF1175
 11274 006f 05       		.byte	0x5
 11275 0070 52       		.uleb128 0x52
 11276 0071 F3400000 		.4byte	.LASF1176
 11277 0075 05       		.byte	0x5
 11278 0076 56       		.uleb128 0x56
ARM GAS  C:\Users\STUDENT\AppData\Local\Temp\ccMxouBa.s 			page 227


 11279 0077 D44E0000 		.4byte	.LASF1177
 11280 007b 05       		.byte	0x5
 11281 007c 59       		.uleb128 0x59
 11282 007d 55800000 		.4byte	.LASF1178
 11283 0081 05       		.byte	0x5
 11284 0082 5D       		.uleb128 0x5d
 11285 0083 9B6C0000 		.4byte	.LASF1179
 11286 0087 05       		.byte	0x5
 11287 0088 5E       		.uleb128 0x5e
 11288 0089 C73E0000 		.4byte	.LASF1180
 11289 008d 05       		.byte	0x5
 11290 008e 61       		.uleb128 0x61
 11291 008f 1F1E0000 		.4byte	.LASF1181
 11292 0093 05       		.byte	0x5
 11293 0094 64       		.uleb128 0x64
 11294 0095 656A0000 		.4byte	.LASF1182
 11295 0099 05       		.byte	0x5
 11296 009a 67       		.uleb128 0x67
 11297 009b C2670000 		.4byte	.LASF1183
 11298 009f 05       		.byte	0x5
 11299 00a0 68       		.uleb128 0x68
 11300 00a1 8C470000 		.4byte	.LASF1184
 11301 00a5 05       		.byte	0x5
 11302 00a6 6B       		.uleb128 0x6b
 11303 00a7 30A30000 		.4byte	.LASF1185
 11304 00ab 05       		.byte	0x5
 11305 00ac 6E       		.uleb128 0x6e
 11306 00ad 91380000 		.4byte	.LASF1186
 11307 00b1 05       		.byte	0x5
 11308 00b2 71       		.uleb128 0x71
 11309 00b3 530F0000 		.4byte	.LASF1187
 11310 00b7 05       		.byte	0x5
 11311 00b8 74       		.uleb128 0x74
 11312 00b9 EB250000 		.4byte	.LASF1188
 11313 00bd 05       		.byte	0x5
 11314 00be 77       		.uleb128 0x77
 11315 00bf CBA10000 		.4byte	.LASF1189
 11316 00c3 05       		.byte	0x5
 11317 00c4 8601     		.uleb128 0x86
 11318 00c6 F66D0000 		.4byte	.LASF1190
 11319 00ca 00       		.byte	0
 11320              		.section	.debug_line,"",%progbits
 11321              	.Ldebug_line0:
 11322 0000 300A0000 		.section	.debug_str,"MS",%progbits,1
 11322      0200A102 
 11322      00000201 
 11322      FB0E0D00 
 11322      01010101 
 11323              	.LASF522:
 11324 0000 5F5F5553 		.ascii	"__USAT(ARG1,ARG2) ({ uint32_t __RES, __ARG1 = (ARG1"
 11324      41542841 
 11324      5247312C 
 11324      41524732 
 11324      2920287B 
 11325 0033 293B205F 		.ascii	"); __ASM (\"usat %0, %1, %2\" : \"=r\" (__RES) : \""
 11325      5F41534D 
 11325      20282275 
ARM GAS  C:\Users\STUDENT\AppData\Local\Temp\ccMxouBa.s 			page 228


 11325      73617420 
 11325      25302C20 
 11326 0061 49222028 		.ascii	"I\" (ARG2), \"r\" (__ARG1) ); __RES; })\000"
 11326      41524732 
 11326      292C2022 
 11326      72222028 
 11326      5F5F4152 
 11327              	.LASF508:
 11328 0086 57494E54 		.ascii	"WINT_MIN (__WINT_MIN__)\000"
 11328      5F4D494E 
 11328      20285F5F 
 11328      57494E54 
 11328      5F4D494E 
 11329              	.LASF1329:
 11330 009e 6D756C46 		.ascii	"mulFracDiv\000"
 11330      72616344 
 11330      697600
 11331              	.LASF157:
 11332 00a9 5F5F4445 		.ascii	"__DECIMAL_DIG__ 17\000"
 11332      43494D41 
 11332      4C5F4449 
 11332      475F5F20 
 11332      313700
 11333              	.LASF1234:
 11334 00bc 4E4F4E45 		.ascii	"NONE_BLOCKING\000"
 11334      5F424C4F 
 11334      434B494E 
 11334      4700
 11335              	.LASF294:
 11336 00ca 5F5F5548 		.ascii	"__UHA_FBIT__ 8\000"
 11336      415F4642 
 11336      49545F5F 
 11336      203800
 11337              	.LASF1291:
 11338 00d9 55415254 		.ascii	"UART_RS485_DIRCTRL_PIN_Type\000"
 11338      5F525334 
 11338      38355F44 
 11338      49524354 
 11338      524C5F50 
 11339              	.LASF418:
 11340 00f5 5F5F696E 		.ascii	"__int20 +2\000"
 11340      74323020 
 11340      2B3200
 11341              	.LASF718:
 11342 0100 4D50555F 		.ascii	"MPU_RASR_XN_Pos 28\000"
 11342      52415352 
 11342      5F584E5F 
 11342      506F7320 
 11342      323800
 11343              	.LASF1345:
 11344 0113 55415254 		.ascii	"UART_ConfigStructInit\000"
 11344      5F436F6E 
 11344      66696753 
 11344      74727563 
 11344      74496E69 
 11345              	.LASF184:
 11346 0129 5F5F4445 		.ascii	"__DEC128_EPSILON__ 1E-33DL\000"
ARM GAS  C:\Users\STUDENT\AppData\Local\Temp\ccMxouBa.s 			page 229


 11346      43313238 
 11346      5F455053 
 11346      494C4F4E 
 11346      5F5F2031 
 11347              	.LASF631:
 11348 0144 5343425F 		.ascii	"SCB_HFSR_VECTTBL_Msk (1UL << SCB_HFSR_VECTTBL_Pos)\000"
 11348      48465352 
 11348      5F564543 
 11348      5454424C 
 11348      5F4D736B 
 11349              	.LASF824:
 11350 0177 4C50435F 		.ascii	"LPC_GPIOINT_BASE (LPC_APB0_BASE + 0x28080)\000"
 11350      4750494F 
 11350      494E545F 
 11350      42415345 
 11350      20284C50 
 11351              	.LASF783:
 11352 01a2 436F7265 		.ascii	"CoreDebug_DEMCR_VC_CHKERR_Msk (1UL << CoreDebug_DEM"
 11352      44656275 
 11352      675F4445 
 11352      4D43525F 
 11352      56435F43 
 11353 01d5 43525F56 		.ascii	"CR_VC_CHKERR_Pos)\000"
 11353      435F4348 
 11353      4B455252 
 11353      5F506F73 
 11353      2900
 11354              	.LASF66:
 11355 01e7 5F5F4758 		.ascii	"__GXX_ABI_VERSION 1009\000"
 11355      585F4142 
 11355      495F5645 
 11355      5253494F 
 11355      4E203130 
 11356              	.LASF1149:
 11357 01fe 434C4B50 		.ascii	"CLKPWR_PCONP_PCTIM2 ((uint32_t)(1<<22))\000"
 11357      57525F50 
 11357      434F4E50 
 11357      5F504354 
 11357      494D3220 
 11358              	.LASF293:
 11359 0226 5F5F5441 		.ascii	"__TA_IBIT__ 64\000"
 11359      5F494249 
 11359      545F5F20 
 11359      363400
 11360              	.LASF1068:
 11361 0235 434C4B50 		.ascii	"CLKPWR_PLL0STAT_PLLC ((uint32_t)(1<<25))\000"
 11361      57525F50 
 11361      4C4C3053 
 11361      5441545F 
 11361      504C4C43 
 11362              	.LASF590:
 11363 025e 5343425F 		.ascii	"SCB_CCR_NONBASETHRDENA_Pos 0\000"
 11363      4343525F 
 11363      4E4F4E42 
 11363      41534554 
 11363      48524445 
 11364              	.LASF186:
ARM GAS  C:\Users\STUDENT\AppData\Local\Temp\ccMxouBa.s 			page 230


 11365 027b 5F5F5346 		.ascii	"__SFRACT_FBIT__ 7\000"
 11365      52414354 
 11365      5F464249 
 11365      545F5F20 
 11365      3700
 11366              	.LASF1206:
 11367 028d 73697A65 		.ascii	"sizetype\000"
 11367      74797065 
 11367      00
 11368              	.LASF559:
 11369 0296 5343425F 		.ascii	"SCB_VTOR_TBLOFF_Msk (0x3FFFFFUL << SCB_VTOR_TBLOFF_"
 11369      56544F52 
 11369      5F54424C 
 11369      4F46465F 
 11369      4D736B20 
 11370 02c9 506F7329 		.ascii	"Pos)\000"
 11370      00
 11371              	.LASF752:
 11372 02ce 436F7265 		.ascii	"CoreDebug_DHCSR_C_MASKINTS_Pos 3\000"
 11372      44656275 
 11372      675F4448 
 11372      4353525F 
 11372      435F4D41 
 11373              	.LASF589:
 11374 02ef 5343425F 		.ascii	"SCB_CCR_USERSETMPEND_Msk (1UL << SCB_CCR_USERSETMPE"
 11374      4343525F 
 11374      55534552 
 11374      5345544D 
 11374      50454E44 
 11375 0322 4E445F50 		.ascii	"ND_Pos)\000"
 11375      6F732900 
 11376              	.LASF786:
 11377 032a 436F7265 		.ascii	"CoreDebug_DEMCR_VC_MMERR_Pos 4\000"
 11377      44656275 
 11377      675F4445 
 11377      4D43525F 
 11377      56435F4D 
 11378              	.LASF258:
 11379 0349 5F5F4C4C 		.ascii	"__LLACCUM_MIN__ (-0X1P31LLK-0X1P31LLK)\000"
 11379      41434355 
 11379      4D5F4D49 
 11379      4E5F5F20 
 11379      282D3058 
 11380              	.LASF250:
 11381 0370 5F5F4C41 		.ascii	"__LACCUM_EPSILON__ 0x1P-31LK\000"
 11381      4343554D 
 11381      5F455053 
 11381      494C4F4E 
 11381      5F5F2030 
 11382              	.LASF76:
 11383 038d 5F5F5054 		.ascii	"__PTRDIFF_MAX__ 0x7fffffff\000"
 11383      52444946 
 11383      465F4D41 
 11383      585F5F20 
 11383      30783766 
 11384              	.LASF575:
 11385 03a8 5343425F 		.ascii	"SCB_SCR_SEVONPEND_Msk (1UL << SCB_SCR_SEVONPEND_Pos"
ARM GAS  C:\Users\STUDENT\AppData\Local\Temp\ccMxouBa.s 			page 231


 11385      5343525F 
 11385      5345564F 
 11385      4E50454E 
 11385      445F4D73 
 11386 03db 2900     		.ascii	")\000"
 11387              	.LASF671:
 11388 03dd 49544D5F 		.ascii	"ITM_TCR_DWTENA_Msk (1UL << ITM_TCR_DWTENA_Pos)\000"
 11388      5443525F 
 11388      44575445 
 11388      4E415F4D 
 11388      736B2028 
 11389              	.LASF351:
 11390 040c 5F5F4152 		.ascii	"__ARM_ASM_SYNTAX_UNIFIED__ 1\000"
 11390      4D5F4153 
 11390      4D5F5359 
 11390      4E544158 
 11390      5F554E49 
 11391              	.LASF624:
 11392 0429 5343425F 		.ascii	"SCB_CFSR_MEMFAULTSR_Pos 0\000"
 11392      43465352 
 11392      5F4D454D 
 11392      4641554C 
 11392      5453525F 
 11393              	.LASF79:
 11394 0443 5F5F494E 		.ascii	"__INTMAX_C(c) c ## LL\000"
 11394      544D4158 
 11394      5F432863 
 11394      29206320 
 11394      2323204C 
 11395              	.LASF443:
 11396 0459 5F55494E 		.ascii	"_UINT32_T_DECLARED \000"
 11396      5433325F 
 11396      545F4445 
 11396      434C4152 
 11396      45442000 
 11397              	.LASF78:
 11398 046d 5F5F494E 		.ascii	"__INTMAX_MAX__ 0x7fffffffffffffffLL\000"
 11398      544D4158 
 11398      5F4D4158 
 11398      5F5F2030 
 11398      78376666 
 11399              	.LASF1072:
 11400 0491 434C4B50 		.ascii	"CLKPWR_PLL1CON_CONNECT ((uint32_t)(0x02))\000"
 11400      57525F50 
 11400      4C4C3143 
 11400      4F4E5F43 
 11400      4F4E4E45 
 11401              	.LASF171:
 11402 04bb 5F5F4445 		.ascii	"__DEC32_SUBNORMAL_MIN__ 0.000001E-95DF\000"
 11402      4333325F 
 11402      5355424E 
 11402      4F524D41 
 11402      4C5F4D49 
 11403              	.LASF275:
 11404 04e2 5F5F5451 		.ascii	"__TQ_IBIT__ 0\000"
 11404      5F494249 
 11404      545F5F20 
ARM GAS  C:\Users\STUDENT\AppData\Local\Temp\ccMxouBa.s 			page 232


 11404      3000
 11405              	.LASF442:
 11406 04f0 5F494E54 		.ascii	"_INT32_T_DECLARED \000"
 11406      33325F54 
 11406      5F444543 
 11406      4C415245 
 11406      442000
 11407              	.LASF1174:
 11408 0503 5F54494D 		.ascii	"_TIM 1\000"
 11408      203100
 11409              	.LASF571:
 11410 050a 5343425F 		.ascii	"SCB_AIRCR_VECTCLRACTIVE_Msk (1UL << SCB_AIRCR_VECTC"
 11410      41495243 
 11410      525F5645 
 11410      4354434C 
 11410      52414354 
 11411 053d 4C524143 		.ascii	"LRACTIVE_Pos)\000"
 11411      54495645 
 11411      5F506F73 
 11411      2900
 11412              	.LASF1298:
 11413 054b 4649464F 		.ascii	"FIFO_ResetTxBuf\000"
 11413      5F526573 
 11413      65745478 
 11413      42756600 
 11414              	.LASF208:
 11415 055b 5F5F4C46 		.ascii	"__LFRACT_MIN__ (-0.5LR-0.5LR)\000"
 11415      52414354 
 11415      5F4D494E 
 11415      5F5F2028 
 11415      2D302E35 
 11416              	.LASF72:
 11417 0579 5F5F5743 		.ascii	"__WCHAR_MAX__ 0xffffffffU\000"
 11417      4841525F 
 11417      4D41585F 
 11417      5F203078 
 11417      66666666 
 11418              	.LASF790:
 11419 0593 5343535F 		.ascii	"SCS_BASE (0xE000E000UL)\000"
 11419      42415345 
 11419      20283078 
 11419      45303030 
 11419      45303030 
 11420              	.LASF238:
 11421 05ab 5F5F4143 		.ascii	"__ACCUM_MIN__ (-0X1P15K-0X1P15K)\000"
 11421      43554D5F 
 11421      4D494E5F 
 11421      5F20282D 
 11421      30583150 
 11422              	.LASF853:
 11423 05cc 4C50435F 		.ascii	"LPC_GPDMACH5_BASE (LPC_AHB_BASE + 0x041A0)\000"
 11423      4750444D 
 11423      41434835 
 11423      5F424153 
 11423      4520284C 
 11424              	.LASF1106:
 11425 05f7 434C4B50 		.ascii	"CLKPWR_PCLKSEL_PWM1 ((uint32_t)(12))\000"
ARM GAS  C:\Users\STUDENT\AppData\Local\Temp\ccMxouBa.s 			page 233


 11425      57525F50 
 11425      434C4B53 
 11425      454C5F50 
 11425      574D3120 
 11426              	.LASF629:
 11427 061c 5343425F 		.ascii	"SCB_HFSR_FORCED_Msk (1UL << SCB_HFSR_FORCED_Pos)\000"
 11427      48465352 
 11427      5F464F52 
 11427      4345445F 
 11427      4D736B20 
 11428              	.LASF799:
 11429 064d 4E564943 		.ascii	"NVIC ((NVIC_Type *) NVIC_BASE)\000"
 11429      2028284E 
 11429      5649435F 
 11429      54797065 
 11429      202A2920 
 11430              	.LASF1002:
 11431 066c 55415254 		.ascii	"UART_ACR_ABTOINT_CLR ((uint32_t)(1<<9))\000"
 11431      5F414352 
 11431      5F414254 
 11431      4F494E54 
 11431      5F434C52 
 11432              	.LASF884:
 11433 0694 4C50435F 		.ascii	"LPC_RTC ((LPC_RTC_TypeDef *) LPC_RTC_BASE )\000"
 11433      52544320 
 11433      28284C50 
 11433      435F5254 
 11433      435F5479 
 11434              	.LASF1204:
 11435 06c0 696E7433 		.ascii	"int32_t\000"
 11435      325F7400 
 11436              	.LASF533:
 11437 06c8 5343425F 		.ascii	"SCB_CPUID_PARTNO_Msk (0xFFFUL << SCB_CPUID_PARTNO_P"
 11437      43505549 
 11437      445F5041 
 11437      52544E4F 
 11437      5F4D736B 
 11438 06fb 6F732900 		.ascii	"os)\000"
 11439              	.LASF695:
 11440 06ff 496E7454 		.ascii	"IntType_ACTLR_DISDEFWBUF_Msk (1UL << IntType_ACTLR_"
 11440      7970655F 
 11440      4143544C 
 11440      525F4449 
 11440      53444546 
 11441 0732 44495344 		.ascii	"DISDEFWBUF_Pos)\000"
 11441      45465742 
 11441      55465F50 
 11441      6F732900 
 11442              	.LASF966:
 11443 0742 55415254 		.ascii	"UART_LCR_PARITY_ODD ((uint8_t)(0))\000"
 11443      5F4C4352 
 11443      5F504152 
 11443      4954595F 
 11443      4F444420 
 11444              	.LASF15:
 11445 0765 5F5F5349 		.ascii	"__SIZEOF_LONG_LONG__ 8\000"
 11445      5A454F46 
ARM GAS  C:\Users\STUDENT\AppData\Local\Temp\ccMxouBa.s 			page 234


 11445      5F4C4F4E 
 11445      475F4C4F 
 11445      4E475F5F 
 11446              	.LASF908:
 11447 077c 4C50435F 		.ascii	"LPC_GPDMACH7 ((LPC_GPDMACH_TypeDef *) LPC_GPDMACH7_"
 11447      4750444D 
 11447      41434837 
 11447      2028284C 
 11447      50435F47 
 11448 07af 42415345 		.ascii	"BASE )\000"
 11448      202900
 11449              	.LASF142:
 11450 07b6 5F5F4442 		.ascii	"__DBL_MAX_10_EXP__ 308\000"
 11450      4C5F4D41 
 11450      585F3130 
 11450      5F455850 
 11450      5F5F2033 
 11451              	.LASF841:
 11452 07cd 4C50435F 		.ascii	"LPC_I2S_BASE (LPC_APB1_BASE + 0x28000)\000"
 11452      4932535F 
 11452      42415345 
 11452      20284C50 
 11452      435F4150 
 11453              	.LASF177:
 11454 07f4 5F5F4445 		.ascii	"__DEC64_EPSILON__ 1E-15DD\000"
 11454      4336345F 
 11454      45505349 
 11454      4C4F4E5F 
 11454      5F203145 
 11455              	.LASF198:
 11456 080e 5F5F4652 		.ascii	"__FRACT_MIN__ (-0.5R-0.5R)\000"
 11456      4143545F 
 11456      4D494E5F 
 11456      5F20282D 
 11456      302E3552 
 11457              	.LASF810:
 11458 0829 4C50435F 		.ascii	"LPC_GPIO_BASE (0x2009C000UL)\000"
 11458      4750494F 
 11458      5F424153 
 11458      45202830 
 11458      78323030 
 11459              	.LASF264:
 11460 0846 5F5F554C 		.ascii	"__ULLACCUM_MAX__ 0XFFFFFFFFFFFFFFFFP-32ULLK\000"
 11460      4C414343 
 11460      554D5F4D 
 11460      41585F5F 
 11460      20305846 
 11461              	.LASF645:
 11462 0872 53797354 		.ascii	"SysTick_CTRL_CLKSOURCE_Msk (1UL << SysTick_CTRL_CLK"
 11462      69636B5F 
 11462      4354524C 
 11462      5F434C4B 
 11462      534F5552 
 11463 08a5 534F5552 		.ascii	"SOURCE_Pos)\000"
 11463      43455F50 
 11463      6F732900 
 11464              	.LASF878:
ARM GAS  C:\Users\STUDENT\AppData\Local\Temp\ccMxouBa.s 			page 235


 11465 08b1 4C50435F 		.ascii	"LPC_PWM1 ((LPC_PWM_TypeDef *) LPC_PWM1_BASE )\000"
 11465      50574D31 
 11465      2028284C 
 11465      50435F50 
 11465      574D5F54 
 11466              	.LASF234:
 11467 08df 5F5F5553 		.ascii	"__USACCUM_MAX__ 0XFFFFP-8UHK\000"
 11467      41434355 
 11467      4D5F4D41 
 11467      585F5F20 
 11467      30584646 
 11468              	.LASF168:
 11469 08fc 5F5F4445 		.ascii	"__DEC32_MIN__ 1E-95DF\000"
 11469      4333325F 
 11469      4D494E5F 
 11469      5F203145 
 11469      2D393544 
 11470              	.LASF1312:
 11471 0912 666E5478 		.ascii	"fnTxCbs_Type\000"
 11471      4362735F 
 11471      54797065 
 11471      00
 11472              	.LASF271:
 11473 091f 5F5F5351 		.ascii	"__SQ_IBIT__ 0\000"
 11473      5F494249 
 11473      545F5F20 
 11473      3000
 11474              	.LASF25:
 11475 092d 5F5F4F52 		.ascii	"__ORDER_PDP_ENDIAN__ 3412\000"
 11475      4445525F 
 11475      5044505F 
 11475      454E4449 
 11475      414E5F5F 
 11476              	.LASF29:
 11477 0947 5F5F5349 		.ascii	"__SIZE_TYPE__ unsigned int\000"
 11477      5A455F54 
 11477      5950455F 
 11477      5F20756E 
 11477      7369676E 
 11478              	.LASF174:
 11479 0962 5F5F4445 		.ascii	"__DEC64_MAX_EXP__ 385\000"
 11479      4336345F 
 11479      4D41585F 
 11479      4558505F 
 11479      5F203338 
 11480              	.LASF519:
 11481 0978 5F474343 		.ascii	"_GCC_WRAP_STDINT_H \000"
 11481      5F575241 
 11481      505F5354 
 11481      44494E54 
 11481      5F482000 
 11482              	.LASF587:
 11483 098c 5343425F 		.ascii	"SCB_CCR_UNALIGN_TRP_Msk (1UL << SCB_CCR_UNALIGN_TRP"
 11483      4343525F 
 11483      554E414C 
 11483      49474E5F 
 11483      5452505F 
ARM GAS  C:\Users\STUDENT\AppData\Local\Temp\ccMxouBa.s 			page 236


 11484 09bf 5F506F73 		.ascii	"_Pos)\000"
 11484      2900
 11485              	.LASF134:
 11486 09c5 5F5F464C 		.ascii	"__FLT_HAS_DENORM__ 1\000"
 11486      545F4841 
 11486      535F4445 
 11486      4E4F524D 
 11486      5F5F2031 
 11487              	.LASF38:
 11488 09da 5F5F494E 		.ascii	"__INT8_TYPE__ signed char\000"
 11488      54385F54 
 11488      5950455F 
 11488      5F207369 
 11488      676E6564 
 11489              	.LASF334:
 11490 09f4 5F5F4152 		.ascii	"__ARM_ARCH_PROFILE 77\000"
 11490      4D5F4152 
 11490      43485F50 
 11490      524F4649 
 11490      4C452037 
 11491              	.LASF872:
 11492 0a0a 4C50435F 		.ascii	"LPC_TIM3 ((LPC_TIM_TypeDef *) LPC_TIM3_BASE )\000"
 11492      54494D33 
 11492      2028284C 
 11492      50435F54 
 11492      494D5F54 
 11493              	.LASF543:
 11494 0a38 5343425F 		.ascii	"SCB_ICSR_PENDSTSET_Msk (1UL << SCB_ICSR_PENDSTSET_P"
 11494      49435352 
 11494      5F50454E 
 11494      44535453 
 11494      45545F4D 
 11495 0a6b 6F732900 		.ascii	"os)\000"
 11496              	.LASF233:
 11497 0a6f 5F5F5553 		.ascii	"__USACCUM_MIN__ 0.0UHK\000"
 11497      41434355 
 11497      4D5F4D49 
 11497      4E5F5F20 
 11497      302E3055 
 11498              	.LASF892:
 11499 0a86 4C50435F 		.ascii	"LPC_CANAF ((LPC_CANAF_TypeDef *) LPC_CANAF_BASE )\000"
 11499      43414E41 
 11499      46202828 
 11499      4C50435F 
 11499      43414E41 
 11500              	.LASF1119:
 11501 0ab8 434C4B50 		.ascii	"CLKPWR_PCLKSEL_TIMER2 ((uint32_t)(44))\000"
 11501      57525F50 
 11501      434C4B53 
 11501      454C5F54 
 11501      494D4552 
 11502              	.LASF153:
 11503 0adf 5F5F4C44 		.ascii	"__LDBL_MIN_EXP__ (-1021)\000"
 11503      424C5F4D 
 11503      494E5F45 
 11503      58505F5F 
 11503      20282D31 
ARM GAS  C:\Users\STUDENT\AppData\Local\Temp\ccMxouBa.s 			page 237


 11504              	.LASF1161:
 11505 0af8 5F554152 		.ascii	"_UART 1\000"
 11505      54203100 
 11506              	.LASF151:
 11507 0b00 5F5F4C44 		.ascii	"__LDBL_MANT_DIG__ 53\000"
 11507      424C5F4D 
 11507      414E545F 
 11507      4449475F 
 11507      5F203533 
 11508              	.LASF701:
 11509 0b15 4D50555F 		.ascii	"MPU_TYPE_DREGION_Msk (0xFFUL << MPU_TYPE_DREGION_Po"
 11509      54595045 
 11509      5F445245 
 11509      47494F4E 
 11509      5F4D736B 
 11510 0b48 732900   		.ascii	"s)\000"
 11511              	.LASF969:
 11512 0b4b 55415254 		.ascii	"UART_LCR_PARITY_F_0 ((uint8_t)(3<<4))\000"
 11512      5F4C4352 
 11512      5F504152 
 11512      4954595F 
 11512      465F3020 
 11513              	.LASF700:
 11514 0b71 4D50555F 		.ascii	"MPU_TYPE_DREGION_Pos 8\000"
 11514      54595045 
 11514      5F445245 
 11514      47494F4E 
 11514      5F506F73 
 11515              	.LASF101:
 11516 0b88 5F5F5549 		.ascii	"__UINT8_C(c) c\000"
 11516      4E54385F 
 11516      43286329 
 11516      206300
 11517              	.LASF32:
 11518 0b97 5F5F5749 		.ascii	"__WINT_TYPE__ unsigned int\000"
 11518      4E545F54 
 11518      5950455F 
 11518      5F20756E 
 11518      7369676E 
 11519              	.LASF694:
 11520 0bb2 496E7454 		.ascii	"IntType_ACTLR_DISDEFWBUF_Pos 1\000"
 11520      7970655F 
 11520      4143544C 
 11520      525F4449 
 11520      53444546 
 11521              	.LASF409:
 11522 0bd1 756E7369 		.ascii	"unsigned\000"
 11522      676E6564 
 11522      00
 11523              	.LASF1362:
 11524 0bda 55415254 		.ascii	"UART_FIFOConfigStructInit\000"
 11524      5F464946 
 11524      4F436F6E 
 11524      66696753 
 11524      74727563 
 11525              	.LASF1016:
 11526 0bf4 55415254 		.ascii	"UART1_RS485CTRL_AADEN ((uint32_t)(1<<2))\000"
ARM GAS  C:\Users\STUDENT\AppData\Local\Temp\ccMxouBa.s 			page 238


 11526      315F5253 
 11526      34383543 
 11526      54524C5F 
 11526      41414445 
 11527              	.LASF249:
 11528 0c1d 5F5F4C41 		.ascii	"__LACCUM_MAX__ 0X7FFFFFFFFFFFFFFFP-31LK\000"
 11528      4343554D 
 11528      5F4D4158 
 11528      5F5F2030 
 11528      58374646 
 11529              	.LASF792:
 11530 0c45 436F7265 		.ascii	"CoreDebug_BASE (0xE000EDF0UL)\000"
 11530      44656275 
 11530      675F4241 
 11530      53452028 
 11530      30784530 
 11531              	.LASF1255:
 11532 0c63 55415254 		.ascii	"UART_FITO_LEVEL_Type\000"
 11532      5F464954 
 11532      4F5F4C45 
 11532      56454C5F 
 11532      54797065 
 11533              	.LASF778:
 11534 0c78 436F7265 		.ascii	"CoreDebug_DEMCR_VC_BUSERR_Pos 8\000"
 11534      44656275 
 11534      675F4445 
 11534      4D43525F 
 11534      56435F42 
 11535              	.LASF830:
 11536 0c98 4C50435F 		.ascii	"LPC_CANCR_BASE (LPC_APB0_BASE + 0x40000)\000"
 11536      43414E43 
 11536      525F4241 
 11536      53452028 
 11536      4C50435F 
 11537              	.LASF943:
 11538 0cc1 55415254 		.ascii	"UART_IIR_INTID_THRE ((uint32_t)(1<<1))\000"
 11538      5F494952 
 11538      5F494E54 
 11538      49445F54 
 11538      48524520 
 11539              	.LASF423:
 11540 0ce8 5F5F494E 		.ascii	"__INT8 \"hh\"\000"
 11540      54382022 
 11540      68682200 
 11541              	.LASF664:
 11542 0cf4 49544D5F 		.ascii	"ITM_TCR_ATBID_Pos 16\000"
 11542      5443525F 
 11542      41544249 
 11542      445F506F 
 11542      73203136 
 11543              	.LASF307:
 11544 0d09 5F5F4743 		.ascii	"__GCC_HAVE_SYNC_COMPARE_AND_SWAP_1 1\000"
 11544      435F4841 
 11544      56455F53 
 11544      594E435F 
 11544      434F4D50 
 11545              	.LASF471:
ARM GAS  C:\Users\STUDENT\AppData\Local\Temp\ccMxouBa.s 			page 239


 11546 0d2e 494E545F 		.ascii	"INT_LEAST16_MAX (__INT_LEAST16_MAX__)\000"
 11546      4C454153 
 11546      5431365F 
 11546      4D415820 
 11546      285F5F49 
 11547              	.LASF724:
 11548 0d54 4D50555F 		.ascii	"MPU_RASR_S_Pos 18\000"
 11548      52415352 
 11548      5F535F50 
 11548      6F732031 
 11548      3800
 11549              	.LASF1057:
 11550 0d66 434C4B50 		.ascii	"CLKPWR_CLKOUTCFG_CLKOUT_ACT ((uint32_t)(1<<9))\000"
 11550      57525F43 
 11550      4C4B4F55 
 11550      54434647 
 11550      5F434C4B 
 11551              	.LASF1:
 11552 0d95 5F5F5354 		.ascii	"__STDC_HOSTED__ 1\000"
 11552      44435F48 
 11552      4F535445 
 11552      445F5F20 
 11552      3100
 11553              	.LASF221:
 11554 0da7 5F5F554C 		.ascii	"__ULLFRACT_FBIT__ 64\000"
 11554      4C465241 
 11554      43545F46 
 11554      4249545F 
 11554      5F203634 
 11555              	.LASF725:
 11556 0dbc 4D50555F 		.ascii	"MPU_RASR_S_Msk (1UL << MPU_RASR_S_Pos)\000"
 11556      52415352 
 11556      5F535F4D 
 11556      736B2028 
 11556      31554C20 
 11557              	.LASF931:
 11558 0de3 55415254 		.ascii	"UART_IER_THREINT_EN ((uint32_t)(1<<1))\000"
 11558      5F494552 
 11558      5F544852 
 11558      45494E54 
 11558      5F454E20 
 11559              	.LASF1398:
 11560 0e0a 43625479 		.ascii	"CbType\000"
 11560      706500
 11561              	.LASF1001:
 11562 0e11 55415254 		.ascii	"UART_ACR_ABEOINT_CLR ((uint32_t)(1<<8))\000"
 11562      5F414352 
 11562      5F414245 
 11562      4F494E54 
 11562      5F434C52 
 11563              	.LASF675:
 11564 0e39 49544D5F 		.ascii	"ITM_TCR_TSENA_Msk (1UL << ITM_TCR_TSENA_Pos)\000"
 11564      5443525F 
 11564      5453454E 
 11564      415F4D73 
 11564      6B202831 
 11565              	.LASF57:
ARM GAS  C:\Users\STUDENT\AppData\Local\Temp\ccMxouBa.s 			page 240


 11566 0e66 5F5F494E 		.ascii	"__INT_FAST64_TYPE__ long long int\000"
 11566      545F4641 
 11566      53543634 
 11566      5F545950 
 11566      455F5F20 
 11567              	.LASF1338:
 11568 0e88 6D6F6465 		.ascii	"modemsts\000"
 11568      6D737473 
 11568      00
 11569              	.LASF462:
 11570 0e91 494E5438 		.ascii	"INT8_MAX (__INT8_MAX__)\000"
 11570      5F4D4158 
 11570      20285F5F 
 11570      494E5438 
 11570      5F4D4158 
 11571              	.LASF998:
 11572 0ea9 55415254 		.ascii	"UART_ACR_START ((uint32_t)(1<<0))\000"
 11572      5F414352 
 11572      5F535441 
 11572      52542028 
 11572      2875696E 
 11573              	.LASF805:
 11574 0ecb 5F5F5359 		.ascii	"__SYSTEM_LPC17xx_H \000"
 11574      5354454D 
 11574      5F4C5043 
 11574      31377878 
 11574      5F482000 
 11575              	.LASF414:
 11576 0edf 7369676E 		.ascii	"signed +0\000"
 11576      6564202B 
 11576      3000
 11577              	.LASF503:
 11578 0ee9 50545244 		.ascii	"PTRDIFF_MAX (__PTRDIFF_MAX__)\000"
 11578      4946465F 
 11578      4D415820 
 11578      285F5F50 
 11578      54524449 
 11579              	.LASF1343:
 11580 0f07 55415254 		.ascii	"UART_Init\000"
 11580      5F496E69 
 11580      7400
 11581              	.LASF1170:
 11582 0f11 5F493243 		.ascii	"_I2C 1\000"
 11582      203100
 11583              	.LASF304:
 11584 0f18 5F5F474E 		.ascii	"__GNUC_GNU_INLINE__ 1\000"
 11584      55435F47 
 11584      4E555F49 
 11584      4E4C494E 
 11584      455F5F20 
 11585              	.LASF1118:
 11586 0f2e 434C4B50 		.ascii	"CLKPWR_PCLKSEL_SSP0 ((uint32_t)(42))\000"
 11586      57525F50 
 11586      434C4B53 
 11586      454C5F53 
 11586      53503020 
 11587              	.LASF1187:
ARM GAS  C:\Users\STUDENT\AppData\Local\Temp\ccMxouBa.s 			page 241


 11588 0f53 5F43414E 		.ascii	"_CAN 1\000"
 11588      203100
 11589              	.LASF617:
 11590 0f5a 5343425F 		.ascii	"SCB_SHCSR_BUSFAULTACT_Msk (1UL << SCB_SHCSR_BUSFAUL"
 11590      53484353 
 11590      525F4255 
 11590      53464155 
 11590      4C544143 
 11591 0f8d 54414354 		.ascii	"TACT_Pos)\000"
 11591      5F506F73 
 11591      2900
 11592              	.LASF194:
 11593 0f97 5F5F5553 		.ascii	"__USFRACT_MAX__ 0XFFP-8UHR\000"
 11593      46524143 
 11593      545F4D41 
 11593      585F5F20 
 11593      30584646 
 11594              	.LASF644:
 11595 0fb2 53797354 		.ascii	"SysTick_CTRL_CLKSOURCE_Pos 2\000"
 11595      69636B5F 
 11595      4354524C 
 11595      5F434C4B 
 11595      534F5552 
 11596              	.LASF1356:
 11597 0fcf 55415254 		.ascii	"UART_IntConfig\000"
 11597      5F496E74 
 11597      436F6E66 
 11597      696700
 11598              	.LASF986:
 11599 0fde 55415254 		.ascii	"UART_LSR_RXFE ((uint8_t)(1<<7))\000"
 11599      5F4C5352 
 11599      5F525846 
 11599      45202828 
 11599      75696E74 
 11600              	.LASF827:
 11601 0ffe 4C50435F 		.ascii	"LPC_ADC_BASE (LPC_APB0_BASE + 0x34000)\000"
 11601      4144435F 
 11601      42415345 
 11601      20284C50 
 11601      435F4150 
 11602              	.LASF764:
 11603 1025 436F7265 		.ascii	"CoreDebug_DEMCR_TRCENA_Pos 24\000"
 11603      44656275 
 11603      675F4445 
 11603      4D43525F 
 11603      54524345 
 11604              	.LASF1041:
 11605 1043 50415241 		.ascii	"PARAM_UART1_MODEM(x) (((uint32_t *)x)==((uint32_t *"
 11605      4D5F5541 
 11605      5254315F 
 11605      4D4F4445 
 11605      4D287829 
 11606 1076 294C5043 		.ascii	")LPC_UART1))\000"
 11606      5F554152 
 11606      54312929 
 11606      00
 11607              	.LASF936:
ARM GAS  C:\Users\STUDENT\AppData\Local\Temp\ccMxouBa.s 			page 242


 11608 1083 55415254 		.ascii	"UART_IER_ABTOINT_EN ((uint32_t)(1<<9))\000"
 11608      5F494552 
 11608      5F414254 
 11608      4F494E54 
 11608      5F454E20 
 11609              	.LASF562:
 11610 10aa 5343425F 		.ascii	"SCB_AIRCR_VECTKEYSTAT_Pos 16\000"
 11610      41495243 
 11610      525F5645 
 11610      43544B45 
 11610      59535441 
 11611              	.LASF1075:
 11612 10c7 434C4B50 		.ascii	"CLKPWR_PLL1CFG_PSEL(n) ((uint32_t)((n&0x03)<<5))\000"
 11612      57525F50 
 11612      4C4C3143 
 11612      46475F50 
 11612      53454C28 
 11613              	.LASF1165:
 11614 10f8 5F554152 		.ascii	"_UART3 1\000"
 11614      54332031 
 11614      00
 11615              	.LASF554:
 11616 1101 5343425F 		.ascii	"SCB_ICSR_VECTACTIVE_Pos 0\000"
 11616      49435352 
 11616      5F564543 
 11616      54414354 
 11616      4956455F 
 11617              	.LASF1110:
 11618 111b 434C4B50 		.ascii	"CLKPWR_PCLKSEL_DAC ((uint32_t)(22))\000"
 11618      57525F50 
 11618      434C4B53 
 11618      454C5F44 
 11618      41432028 
 11619              	.LASF468:
 11620 113f 494E5431 		.ascii	"INT16_MAX (__INT16_MAX__)\000"
 11620      365F4D41 
 11620      5820285F 
 11620      5F494E54 
 11620      31365F4D 
 11621              	.LASF1389:
 11622 1159 74696D65 		.ascii	"timeOut\000"
 11622      4F757400 
 11623              	.LASF1330:
 11624 1161 64697669 		.ascii	"dividerAddFracDiv\000"
 11624      64657241 
 11624      64644672 
 11624      61634469 
 11624      7600
 11625              	.LASF211:
 11626 1173 5F5F554C 		.ascii	"__ULFRACT_FBIT__ 32\000"
 11626      46524143 
 11626      545F4642 
 11626      49545F5F 
 11626      20333200 
 11627              	.LASF855:
 11628 1187 4C50435F 		.ascii	"LPC_GPDMACH7_BASE (LPC_AHB_BASE + 0x041E0)\000"
 11628      4750444D 
ARM GAS  C:\Users\STUDENT\AppData\Local\Temp\ccMxouBa.s 			page 243


 11628      41434837 
 11628      5F424153 
 11628      4520284C 
 11629              	.LASF906:
 11630 11b2 4C50435F 		.ascii	"LPC_GPDMACH5 ((LPC_GPDMACH_TypeDef *) LPC_GPDMACH5_"
 11630      4750444D 
 11630      41434835 
 11630      2028284C 
 11630      50435F47 
 11631 11e5 42415345 		.ascii	"BASE )\000"
 11631      202900
 11632              	.LASF456:
 11633 11ec 5F5F696E 		.ascii	"__int_fast32_t_defined 1\000"
 11633      745F6661 
 11633      73743332 
 11633      5F745F64 
 11633      6566696E 
 11634              	.LASF1159:
 11635 1205 44454255 		.ascii	"DEBUG 1\000"
 11635      47203100 
 11636              	.LASF771:
 11637 120d 436F7265 		.ascii	"CoreDebug_DEMCR_MON_PEND_Msk (1UL << CoreDebug_DEMC"
 11637      44656275 
 11637      675F4445 
 11637      4D43525F 
 11637      4D4F4E5F 
 11638 1240 525F4D4F 		.ascii	"R_MON_PEND_Pos)\000"
 11638      4E5F5045 
 11638      4E445F50 
 11638      6F732900 
 11639              	.LASF1264:
 11640 1250 55415254 		.ascii	"UART_AUTOBAUD_MODE0\000"
 11640      5F415554 
 11640      4F424155 
 11640      445F4D4F 
 11640      44453000 
 11641              	.LASF1265:
 11642 1264 55415254 		.ascii	"UART_AUTOBAUD_MODE1\000"
 11642      5F415554 
 11642      4F424155 
 11642      445F4D4F 
 11642      44453100 
 11643              	.LASF1262:
 11644 1278 55415254 		.ascii	"UART_INTCFG_ABTO\000"
 11644      5F494E54 
 11644      4346475F 
 11644      4142544F 
 11644      00
 11645              	.LASF1285:
 11646 1289 55415254 		.ascii	"UART1_MODEM_MODE_LOOPBACK\000"
 11646      315F4D4F 
 11646      44454D5F 
 11646      4D4F4445 
 11646      5F4C4F4F 
 11647              	.LASF190:
 11648 12a3 5F5F5346 		.ascii	"__SFRACT_EPSILON__ 0x1P-7HR\000"
 11648      52414354 
ARM GAS  C:\Users\STUDENT\AppData\Local\Temp\ccMxouBa.s 			page 244


 11648      5F455053 
 11648      494C4F4E 
 11648      5F5F2030 
 11649              	.LASF97:
 11650 12bf 5F5F494E 		.ascii	"__INT32_C(c) c ## L\000"
 11650      5433325F 
 11650      43286329 
 11650      20632023 
 11650      23204C00 
 11651              	.LASF280:
 11652 12d3 5F5F5553 		.ascii	"__USQ_FBIT__ 32\000"
 11652      515F4642 
 11652      49545F5F 
 11652      20333200 
 11653              	.LASF864:
 11654 12e3 4C50435F 		.ascii	"LPC_GPIO1 ((LPC_GPIO_TypeDef *) LPC_GPIO1_BASE )\000"
 11654      4750494F 
 11654      31202828 
 11654      4C50435F 
 11654      4750494F 
 11655              	.LASF270:
 11656 1314 5F5F5351 		.ascii	"__SQ_FBIT__ 31\000"
 11656      5F464249 
 11656      545F5F20 
 11656      333100
 11657              	.LASF637:
 11658 1323 5343425F 		.ascii	"SCB_DFSR_DWTTRAP_Msk (1UL << SCB_DFSR_DWTTRAP_Pos)\000"
 11658      44465352 
 11658      5F445754 
 11658      54524150 
 11658      5F4D736B 
 11659              	.LASF566:
 11660 1356 5343425F 		.ascii	"SCB_AIRCR_PRIGROUP_Pos 8\000"
 11660      41495243 
 11660      525F5052 
 11660      4947524F 
 11660      55505F50 
 11661              	.LASF305:
 11662 136f 5F5F4E4F 		.ascii	"__NO_INLINE__ 1\000"
 11662      5F494E4C 
 11662      494E455F 
 11662      5F203100 
 11663              	.LASF300:
 11664 137f 5F5F5554 		.ascii	"__UTA_FBIT__ 64\000"
 11664      415F4642 
 11664      49545F5F 
 11664      20363400 
 11665              	.LASF137:
 11666 138f 5F5F4442 		.ascii	"__DBL_MANT_DIG__ 53\000"
 11666      4C5F4D41 
 11666      4E545F44 
 11666      49475F5F 
 11666      20353300 
 11667              	.LASF440:
 11668 13a3 5F55494E 		.ascii	"_UINT16_T_DECLARED \000"
 11668      5431365F 
 11668      545F4445 
ARM GAS  C:\Users\STUDENT\AppData\Local\Temp\ccMxouBa.s 			page 245


 11668      434C4152 
 11668      45442000 
 11669              	.LASF954:
 11670 13b7 55415254 		.ascii	"UART_FCR_TRG_LEV0 ((uint8_t)(0))\000"
 11670      5F464352 
 11670      5F545247 
 11670      5F4C4556 
 11670      30202828 
 11671              	.LASF959:
 11672 13d8 55415254 		.ascii	"UART_TX_FIFO_SIZE (16)\000"
 11672      5F54585F 
 11672      4649464F 
 11672      5F53495A 
 11672      45202831 
 11673              	.LASF278:
 11674 13ef 5F5F5548 		.ascii	"__UHQ_FBIT__ 16\000"
 11674      515F4642 
 11674      49545F5F 
 11674      20313600 
 11675              	.LASF483:
 11676 13ff 494E545F 		.ascii	"INT_LEAST64_MAX (__INT_LEAST64_MAX__)\000"
 11676      4C454153 
 11676      5436345F 
 11676      4D415820 
 11676      285F5F49 
 11677              	.LASF356:
 11678 1425 5F5F4C50 		.ascii	"__LPC17xx_H__ \000"
 11678      43313778 
 11678      785F485F 
 11678      5F2000
 11679              	.LASF656:
 11680 1434 53797354 		.ascii	"SysTick_CALIB_SKEW_Pos 30\000"
 11680      69636B5F 
 11680      43414C49 
 11680      425F534B 
 11680      45575F50 
 11681              	.LASF112:
 11682 144e 5F5F5549 		.ascii	"__UINT_FAST8_MAX__ 0xffffffffU\000"
 11682      4E545F46 
 11682      41535438 
 11682      5F4D4158 
 11682      5F5F2030 
 11683              	.LASF825:
 11684 146d 4C50435F 		.ascii	"LPC_PINCON_BASE (LPC_APB0_BASE + 0x2C000)\000"
 11684      50494E43 
 11684      4F4E5F42 
 11684      41534520 
 11684      284C5043 
 11685              	.LASF170:
 11686 1497 5F5F4445 		.ascii	"__DEC32_EPSILON__ 1E-6DF\000"
 11686      4333325F 
 11686      45505349 
 11686      4C4F4E5F 
 11686      5F203145 
 11687              	.LASF506:
 11688 14b0 57434841 		.ascii	"WCHAR_MAX (__WCHAR_MAX__)\000"
 11688      525F4D41 
ARM GAS  C:\Users\STUDENT\AppData\Local\Temp\ccMxouBa.s 			page 246


 11688      5820285F 
 11688      5F574348 
 11688      41525F4D 
 11689              	.LASF622:
 11690 14ca 5343425F 		.ascii	"SCB_CFSR_BUSFAULTSR_Pos 8\000"
 11690      43465352 
 11690      5F425553 
 11690      4641554C 
 11690      5453525F 
 11691              	.LASF49:
 11692 14e4 5F5F494E 		.ascii	"__INT_LEAST64_TYPE__ long long int\000"
 11692      545F4C45 
 11692      41535436 
 11692      345F5459 
 11692      50455F5F 
 11693              	.LASF465:
 11694 1507 494E545F 		.ascii	"INT_LEAST8_MAX (__INT_LEAST8_MAX__)\000"
 11694      4C454153 
 11694      54385F4D 
 11694      41582028 
 11694      5F5F494E 
 11695              	.LASF365:
 11696 152b 5F5F4153 		.ascii	"__ASM __asm\000"
 11696      4D205F5F 
 11696      61736D00 
 11697              	.LASF1195:
 11698 1537 5F5F7569 		.ascii	"__uint8_t\000"
 11698      6E74385F 
 11698      7400
 11699              	.LASF939:
 11700 1541 55415254 		.ascii	"UART_IIR_INTSTAT_PEND ((uint32_t)(1<<0))\000"
 11700      5F494952 
 11700      5F494E54 
 11700      53544154 
 11700      5F50454E 
 11701              	.LASF1063:
 11702 156a 434C4B50 		.ascii	"CLKPWR_PLL0CFG_NSEL(n) ((uint32_t)((n<<16)&0xFF0000"
 11702      57525F50 
 11702      4C4C3043 
 11702      46475F4E 
 11702      53454C28 
 11703 159d 292900   		.ascii	"))\000"
 11704              	.LASF1153:
 11705 15a0 434C4B50 		.ascii	"CLKPWR_PCONP_PCI2C2 ((uint32_t)(1<<26))\000"
 11705      57525F50 
 11705      434F4E50 
 11705      5F504349 
 11705      32433220 
 11706              	.LASF187:
 11707 15c8 5F5F5346 		.ascii	"__SFRACT_IBIT__ 0\000"
 11707      52414354 
 11707      5F494249 
 11707      545F5F20 
 11707      3000
 11708              	.LASF1136:
 11709 15da 434C4B50 		.ascii	"CLKPWR_PCONP_PCI2C0 ((uint32_t)(1<<7))\000"
 11709      57525F50 
ARM GAS  C:\Users\STUDENT\AppData\Local\Temp\ccMxouBa.s 			page 247


 11709      434F4E50 
 11709      5F504349 
 11709      32433020 
 11710              	.LASF344:
 11711 1601 5F5F5646 		.ascii	"__VFP_FP__ 1\000"
 11711      505F4650 
 11711      5F5F2031 
 11711      00
 11712              	.LASF433:
 11713 160e 5F5F4C45 		.ascii	"__LEAST32 \"l\"\000"
 11713      41535433 
 11713      3220226C 
 11713      2200
 11714              	.LASF426:
 11715 161c 5F5F494E 		.ascii	"__INT64 \"ll\"\000"
 11715      54363420 
 11715      226C6C22 
 11715      00
 11716              	.LASF1408:
 11717 1629 474E5520 		.ascii	"GNU C89 5.4.1 20160919 (release) [ARM/embedded-5-br"
 11717      43383920 
 11717      352E342E 
 11717      31203230 
 11717      31363039 
 11718 165c 616E6368 		.ascii	"anch revision 240496] -mcpu=cortex-m3 -mthumb -g -g"
 11718      20726576 
 11718      6973696F 
 11718      6E203234 
 11718      30343936 
 11719 168f 67646233 		.ascii	"gdb3 -O0 -std=gnu90 -ffunction-sections -fdata-sect"
 11719      202D4F30 
 11719      202D7374 
 11719      643D676E 
 11719      75393020 
 11720 16c2 696F6E73 		.ascii	"ions\000"
 11720      00
 11721              	.LASF1049:
 11722 16c7 434C4B50 		.ascii	"CLKPWR_CLKSRCSEL_BITMASK ((uint32_t)(0x03))\000"
 11722      57525F43 
 11722      4C4B5352 
 11722      4353454C 
 11722      5F424954 
 11723              	.LASF835:
 11724 16f3 4C50435F 		.ascii	"LPC_DAC_BASE (LPC_APB1_BASE + 0x0C000)\000"
 11724      4441435F 
 11724      42415345 
 11724      20284C50 
 11724      435F4150 
 11725              	.LASF113:
 11726 171a 5F5F5549 		.ascii	"__UINT_FAST16_MAX__ 0xffffffffU\000"
 11726      4E545F46 
 11726      41535431 
 11726      365F4D41 
 11726      585F5F20 
 11727              	.LASF482:
 11728 173a 494E545F 		.ascii	"INT_LEAST64_MIN (-__INT_LEAST64_MAX__ - 1)\000"
 11728      4C454153 
ARM GAS  C:\Users\STUDENT\AppData\Local\Temp\ccMxouBa.s 			page 248


 11728      5436345F 
 11728      4D494E20 
 11728      282D5F5F 
 11729              	.LASF640:
 11730 1765 5343425F 		.ascii	"SCB_DFSR_HALTED_Pos 0\000"
 11730      44465352 
 11730      5F48414C 
 11730      5445445F 
 11730      506F7320 
 11731              	.LASF116:
 11732 177b 5F5F494E 		.ascii	"__INTPTR_MAX__ 0x7fffffff\000"
 11732      54505452 
 11732      5F4D4158 
 11732      5F5F2030 
 11732      78376666 
 11733              	.LASF1332:
 11734 1795 6D756C46 		.ascii	"mulFracDivOptimal\000"
 11734      72616344 
 11734      69764F70 
 11734      74696D61 
 11734      6C00
 11735              	.LASF169:
 11736 17a7 5F5F4445 		.ascii	"__DEC32_MAX__ 9.999999E96DF\000"
 11736      4333325F 
 11736      4D41585F 
 11736      5F20392E 
 11736      39393939 
 11737              	.LASF203:
 11738 17c3 5F5F5546 		.ascii	"__UFRACT_MIN__ 0.0UR\000"
 11738      52414354 
 11738      5F4D494E 
 11738      5F5F2030 
 11738      2E305552 
 11739              	.LASF591:
 11740 17d8 5343425F 		.ascii	"SCB_CCR_NONBASETHRDENA_Msk (1UL << SCB_CCR_NONBASET"
 11740      4343525F 
 11740      4E4F4E42 
 11740      41534554 
 11740      48524445 
 11741 180b 48524445 		.ascii	"HRDENA_Pos)\000"
 11741      4E415F50 
 11741      6F732900 
 11742              	.LASF773:
 11743 1817 436F7265 		.ascii	"CoreDebug_DEMCR_MON_EN_Msk (1UL << CoreDebug_DEMCR_"
 11743      44656275 
 11743      675F4445 
 11743      4D43525F 
 11743      4D4F4E5F 
 11744 184a 4D4F4E5F 		.ascii	"MON_EN_Pos)\000"
 11744      454E5F50 
 11744      6F732900 
 11745              	.LASF667:
 11746 1856 49544D5F 		.ascii	"ITM_TCR_TSPrescale_Msk (3UL << ITM_TCR_TSPrescale_P"
 11746      5443525F 
 11746      54535072 
 11746      65736361 
 11746      6C655F4D 
ARM GAS  C:\Users\STUDENT\AppData\Local\Temp\ccMxouBa.s 			page 249


 11747 1889 6F732900 		.ascii	"os)\000"
 11748              	.LASF1410:
 11749 188d 433A5C55 		.ascii	"C:\\Users\\STUDENT\\Desktop\\RSC\\Embedded\\Interup"
 11749      73657273 
 11749      5C535455 
 11749      44454E54 
 11749      5C446573 
 11750 18ba 747300   		.ascii	"ts\000"
 11751              	.LASF83:
 11752 18bd 5F5F5349 		.ascii	"__SIG_ATOMIC_MIN__ (-__SIG_ATOMIC_MAX__ - 1)\000"
 11752      475F4154 
 11752      4F4D4943 
 11752      5F4D494E 
 11752      5F5F2028 
 11753              	.LASF1318:
 11754 18ea 70666E41 		.ascii	"pfnABCbs\000"
 11754      42436273 
 11754      00
 11755              	.LASF1100:
 11756 18f3 434C4B50 		.ascii	"CLKPWR_PCONP_BITMASK 0xEFEFF7DE\000"
 11756      57525F50 
 11756      434F4E50 
 11756      5F424954 
 11756      4D41534B 
 11757              	.LASF491:
 11758 1913 494E545F 		.ascii	"INT_FAST32_MIN (-__INT_FAST32_MAX__ - 1)\000"
 11758      46415354 
 11758      33325F4D 
 11758      494E2028 
 11758      2D5F5F49 
 11759              	.LASF646:
 11760 193c 53797354 		.ascii	"SysTick_CTRL_TICKINT_Pos 1\000"
 11760      69636B5F 
 11760      4354524C 
 11760      5F544943 
 11760      4B494E54 
 11761              	.LASF983:
 11762 1957 55415254 		.ascii	"UART_LSR_BI ((uint8_t)(1<<4))\000"
 11762      5F4C5352 
 11762      5F424920 
 11762      28287569 
 11762      6E74385F 
 11763              	.LASF50:
 11764 1975 5F5F5549 		.ascii	"__UINT_LEAST8_TYPE__ unsigned char\000"
 11764      4E545F4C 
 11764      45415354 
 11764      385F5459 
 11764      50455F5F 
 11765              	.LASF927:
 11766 1998 55415254 		.ascii	"UART_DLL_MASKBIT ((uint8_t)0xFF)\000"
 11766      5F444C4C 
 11766      5F4D4153 
 11766      4B424954 
 11766      20282875 
 11767              	.LASF868:
 11768 19b9 4C50435F 		.ascii	"LPC_WDT ((LPC_WDT_TypeDef *) LPC_WDT_BASE )\000"
 11768      57445420 
ARM GAS  C:\Users\STUDENT\AppData\Local\Temp\ccMxouBa.s 			page 250


 11768      28284C50 
 11768      435F5744 
 11768      545F5479 
 11769              	.LASF1335:
 11770 19e5 72656C61 		.ascii	"relativeError\000"
 11770      74697665 
 11770      4572726F 
 11770      7200
 11771              	.LASF1397:
 11772 19f3 55415254 		.ascii	"UART_SetupCbs\000"
 11772      5F536574 
 11772      75704362 
 11772      7300
 11773              	.LASF375:
 11774 1a01 5F5F474E 		.ascii	"__GNUC_PREREQ(maj,min) ((__GNUC__ << 16) + __GNUC_M"
 11774      55435F50 
 11774      52455245 
 11774      51286D61 
 11774      6A2C6D69 
 11775 1a34 494E4F52 		.ascii	"INOR__ >= ((maj) << 16) + (min))\000"
 11775      5F5F203E 
 11775      3D202828 
 11775      6D616A29 
 11775      203C3C20 
 11776              	.LASF961:
 11777 1a55 55415254 		.ascii	"UART_LCR_WLEN6 ((uint8_t)(1<<0))\000"
 11777      5F4C4352 
 11777      5F574C45 
 11777      4E362028 
 11777      2875696E 
 11778              	.LASF242:
 11779 1a76 5F5F5541 		.ascii	"__UACCUM_IBIT__ 16\000"
 11779      4343554D 
 11779      5F494249 
 11779      545F5F20 
 11779      313600
 11780              	.LASF1197:
 11781 1a89 6C6F6E67 		.ascii	"long int\000"
 11781      20696E74 
 11781      00
 11782              	.LASF846:
 11783 1a92 4C50435F 		.ascii	"LPC_EMAC_BASE (LPC_AHB_BASE + 0x00000)\000"
 11783      454D4143 
 11783      5F424153 
 11783      4520284C 
 11783      50435F41 
 11784              	.LASF1039:
 11785 1ab9 50415241 		.ascii	"PARAM_UARTx(x) ((((uint32_t *)x)==((uint32_t *)LPC_"
 11785      4D5F5541 
 11785      52547828 
 11785      78292028 
 11785      28282875 
 11786 1aec 55415254 		.ascii	"UART0)) || (((uint32_t *)x)==((uint32_t *)LPC_UART1"
 11786      30292920 
 11786      7C7C2028 
 11786      28287569 
 11786      6E743332 
ARM GAS  C:\Users\STUDENT\AppData\Local\Temp\ccMxouBa.s 			page 251


 11787 1b1f 2929207C 		.ascii	")) || (((uint32_t *)x)==((uint32_t *)LPC_UART2)) ||"
 11787      7C202828 
 11787      2875696E 
 11787      7433325F 
 11787      74202A29 
 11788 1b52 20282828 		.ascii	" (((uint32_t *)x)==((uint32_t *)LPC_UART3)))\000"
 11788      75696E74 
 11788      33325F74 
 11788      202A2978 
 11788      293D3D28 
 11789              	.LASF719:
 11790 1b7f 4D50555F 		.ascii	"MPU_RASR_XN_Msk (1UL << MPU_RASR_XN_Pos)\000"
 11790      52415352 
 11790      5F584E5F 
 11790      4D736B20 
 11790      2831554C 
 11791              	.LASF1334:
 11792 1ba8 64697669 		.ascii	"diviserOptimal\000"
 11792      7365724F 
 11792      7074696D 
 11792      616C00
 11793              	.LASF111:
 11794 1bb7 5F5F494E 		.ascii	"__INT_FAST64_MAX__ 0x7fffffffffffffffLL\000"
 11794      545F4641 
 11794      53543634 
 11794      5F4D4158 
 11794      5F5F2030 
 11795              	.LASF74:
 11796 1bdf 5F5F5749 		.ascii	"__WINT_MAX__ 0xffffffffU\000"
 11796      4E545F4D 
 11796      41585F5F 
 11796      20307866 
 11796      66666666 
 11797              	.LASF145:
 11798 1bf8 5F5F4442 		.ascii	"__DBL_MIN__ ((double)2.2250738585072014e-308L)\000"
 11798      4C5F4D49 
 11798      4E5F5F20 
 11798      2828646F 
 11798      75626C65 
 11799              	.LASF1134:
 11800 1c27 434C4B50 		.ascii	"CLKPWR_PCONP_PCUART1 ((uint32_t)(1<<4))\000"
 11800      57525F50 
 11800      434F4E50 
 11800      5F504355 
 11800      41525431 
 11801              	.LASF346:
 11802 1c4f 5F5F4152 		.ascii	"__ARM_ARCH_7M__ 1\000"
 11802      4D5F4152 
 11802      43485F37 
 11802      4D5F5F20 
 11802      3100
 11803              	.LASF180:
 11804 1c61 5F5F4445 		.ascii	"__DEC128_MIN_EXP__ (-6142)\000"
 11804      43313238 
 11804      5F4D494E 
 11804      5F455850 
 11804      5F5F2028 
ARM GAS  C:\Users\STUDENT\AppData\Local\Temp\ccMxouBa.s 			page 252


 11805              	.LASF630:
 11806 1c7c 5343425F 		.ascii	"SCB_HFSR_VECTTBL_Pos 1\000"
 11806      48465352 
 11806      5F564543 
 11806      5454424C 
 11806      5F506F73 
 11807              	.LASF54:
 11808 1c93 5F5F494E 		.ascii	"__INT_FAST8_TYPE__ int\000"
 11808      545F4641 
 11808      5354385F 
 11808      54595045 
 11808      5F5F2069 
 11809              	.LASF217:
 11810 1caa 5F5F4C4C 		.ascii	"__LLFRACT_IBIT__ 0\000"
 11810      46524143 
 11810      545F4942 
 11810      49545F5F 
 11810      203000
 11811              	.LASF298:
 11812 1cbd 5F5F5544 		.ascii	"__UDA_FBIT__ 32\000"
 11812      415F4642 
 11812      49545F5F 
 11812      20333200 
 11813              	.LASF774:
 11814 1ccd 436F7265 		.ascii	"CoreDebug_DEMCR_VC_HARDERR_Pos 10\000"
 11814      44656275 
 11814      675F4445 
 11814      4D43525F 
 11814      56435F48 
 11815              	.LASF81:
 11816 1cef 5F5F5549 		.ascii	"__UINTMAX_C(c) c ## ULL\000"
 11816      4E544D41 
 11816      585F4328 
 11816      63292063 
 11816      20232320 
 11817              	.LASF28:
 11818 1d07 5F5F5349 		.ascii	"__SIZEOF_POINTER__ 4\000"
 11818      5A454F46 
 11818      5F504F49 
 11818      4E544552 
 11818      5F5F2034 
 11819              	.LASF46:
 11820 1d1c 5F5F494E 		.ascii	"__INT_LEAST8_TYPE__ signed char\000"
 11820      545F4C45 
 11820      41535438 
 11820      5F545950 
 11820      455F5F20 
 11821              	.LASF813:
 11822 1d3c 4C50435F 		.ascii	"LPC_AHB_BASE (0x50000000UL)\000"
 11822      4148425F 
 11822      42415345 
 11822      20283078 
 11822      35303030 
 11823              	.LASF775:
 11824 1d58 436F7265 		.ascii	"CoreDebug_DEMCR_VC_HARDERR_Msk (1UL << CoreDebug_DE"
 11824      44656275 
 11824      675F4445 
ARM GAS  C:\Users\STUDENT\AppData\Local\Temp\ccMxouBa.s 			page 253


 11824      4D43525F 
 11824      56435F48 
 11825 1d8b 4D43525F 		.ascii	"MCR_VC_HARDERR_Pos)\000"
 11825      56435F48 
 11825      41524445 
 11825      52525F50 
 11825      6F732900 
 11826              	.LASF310:
 11827 1d9f 5F5F4743 		.ascii	"__GCC_ATOMIC_BOOL_LOCK_FREE 2\000"
 11827      435F4154 
 11827      4F4D4943 
 11827      5F424F4F 
 11827      4C5F4C4F 
 11828              	.LASF795:
 11829 1dbd 5343425F 		.ascii	"SCB_BASE (SCS_BASE + 0x0D00UL)\000"
 11829      42415345 
 11829      20285343 
 11829      535F4241 
 11829      5345202B 
 11830              	.LASF662:
 11831 1ddc 49544D5F 		.ascii	"ITM_TCR_BUSY_Pos 23\000"
 11831      5443525F 
 11831      42555359 
 11831      5F506F73 
 11831      20323300 
 11832              	.LASF677:
 11833 1df0 49544D5F 		.ascii	"ITM_TCR_ITMENA_Msk (1UL << ITM_TCR_ITMENA_Pos)\000"
 11833      5443525F 
 11833      49544D45 
 11833      4E415F4D 
 11833      736B2028 
 11834              	.LASF1181:
 11835 1e1f 5F525443 		.ascii	"_RTC 1\000"
 11835      203100
 11836              	.LASF1139:
 11837 1e26 434C4B50 		.ascii	"CLKPWR_PCONP_PCSSP1 ((uint32_t)(1<<10))\000"
 11837      57525F50 
 11837      434F4E50 
 11837      5F504353 
 11837      53503120 
 11838              	.LASF460:
 11839 1e4e 55494E54 		.ascii	"UINTPTR_MAX (__UINTPTR_MAX__)\000"
 11839      5054525F 
 11839      4D415820 
 11839      285F5F55 
 11839      494E5450 
 11840              	.LASF367:
 11841 1e6c 5F535444 		.ascii	"_STDINT_H \000"
 11841      494E545F 
 11841      482000
 11842              	.LASF345:
 11843 1e77 5F5F5448 		.ascii	"__THUMB_INTERWORK__ 1\000"
 11843      554D425F 
 11843      494E5445 
 11843      52574F52 
 11843      4B5F5F20 
 11844              	.LASF224:
ARM GAS  C:\Users\STUDENT\AppData\Local\Temp\ccMxouBa.s 			page 254


 11845 1e8d 5F5F554C 		.ascii	"__ULLFRACT_MAX__ 0XFFFFFFFFFFFFFFFFP-64ULLR\000"
 11845      4C465241 
 11845      43545F4D 
 11845      41585F5F 
 11845      20305846 
 11846              	.LASF956:
 11847 1eb9 55415254 		.ascii	"UART_FCR_TRG_LEV2 ((uint8_t)(2<<6))\000"
 11847      5F464352 
 11847      5F545247 
 11847      5F4C4556 
 11847      32202828 
 11848              	.LASF818:
 11849 1edd 4C50435F 		.ascii	"LPC_UART0_BASE (LPC_APB0_BASE + 0x0C000)\000"
 11849      55415254 
 11849      305F4241 
 11849      53452028 
 11849      4C50435F 
 11850              	.LASF1215:
 11851 1f06 4C50435F 		.ascii	"LPC_UART_TypeDef\000"
 11851      55415254 
 11851      5F547970 
 11851      65446566 
 11851      00
 11852              	.LASF581:
 11853 1f17 5343425F 		.ascii	"SCB_CCR_STKALIGN_Msk (1UL << SCB_CCR_STKALIGN_Pos)\000"
 11853      4343525F 
 11853      53544B41 
 11853      4C49474E 
 11853      5F4D736B 
 11854              	.LASF641:
 11855 1f4a 5343425F 		.ascii	"SCB_DFSR_HALTED_Msk (1UL << SCB_DFSR_HALTED_Pos)\000"
 11855      44465352 
 11855      5F48414C 
 11855      5445445F 
 11855      4D736B20 
 11856              	.LASF1384:
 11857 1f7b 74786275 		.ascii	"txbuf\000"
 11857      6600
 11858              	.LASF446:
 11859 1f81 5F55494E 		.ascii	"_UINT64_T_DECLARED \000"
 11859      5436345F 
 11859      545F4445 
 11859      434C4152 
 11859      45442000 
 11860              	.LASF723:
 11861 1f95 4D50555F 		.ascii	"MPU_RASR_TEX_Msk (7UL << MPU_RASR_TEX_Pos)\000"
 11861      52415352 
 11861      5F544558 
 11861      5F4D736B 
 11861      20283755 
 11862              	.LASF1108:
 11863 1fc0 434C4B50 		.ascii	"CLKPWR_PCLKSEL_SPI ((uint32_t)(16))\000"
 11863      57525F50 
 11863      434C4B53 
 11863      454C5F53 
 11863      50492028 
 11864              	.LASF1214:
ARM GAS  C:\Users\STUDENT\AppData\Local\Temp\ccMxouBa.s 			page 255


 11865 1fe4 4649464F 		.ascii	"FIFOLVL\000"
 11865      4C564C00 
 11866              	.LASF36:
 11867 1fec 5F5F4348 		.ascii	"__CHAR32_TYPE__ long unsigned int\000"
 11867      41523332 
 11867      5F545950 
 11867      455F5F20 
 11867      6C6F6E67 
 11868              	.LASF1406:
 11869 200e 75617274 		.ascii	"uartCbsDat\000"
 11869      43627344 
 11869      617400
 11870              	.LASF1128:
 11871 2019 434C4B50 		.ascii	"CLKPWR_PCLKSEL_CCLK_DIV_4 ((uint32_t)(0))\000"
 11871      57525F50 
 11871      434C4B53 
 11871      454C5F43 
 11871      434C4B5F 
 11872              	.LASF382:
 11873 2043 5F504F53 		.ascii	"_POSIX_C_SOURCE 200809L\000"
 11873      49585F43 
 11873      5F534F55 
 11873      52434520 
 11873      32303038 
 11874              	.LASF1278:
 11875 205b 55415254 		.ascii	"UART_IrDA_PULSE_Type\000"
 11875      5F497244 
 11875      415F5055 
 11875      4C53455F 
 11875      54797065 
 11876              	.LASF127:
 11877 2070 5F5F464C 		.ascii	"__FLT_MAX_EXP__ 128\000"
 11877      545F4D41 
 11877      585F4558 
 11877      505F5F20 
 11877      31323800 
 11878              	.LASF14:
 11879 2084 5F5F5349 		.ascii	"__SIZEOF_LONG__ 4\000"
 11879      5A454F46 
 11879      5F4C4F4E 
 11879      475F5F20 
 11879      3400
 11880              	.LASF691:
 11881 2096 496E7454 		.ascii	"IntType_ICTR_INTLINESNUM_Msk (0x1FUL << IntType_ICT"
 11881      7970655F 
 11881      49435452 
 11881      5F494E54 
 11881      4C494E45 
 11882 20c9 525F494E 		.ascii	"R_INTLINESNUM_Pos)\000"
 11882      544C494E 
 11882      45534E55 
 11882      4D5F506F 
 11882      732900
 11883              	.LASF1404:
 11884 20dc 55415254 		.ascii	"UART3_StdIntHandler\000"
 11884      335F5374 
 11884      64496E74 
ARM GAS  C:\Users\STUDENT\AppData\Local\Temp\ccMxouBa.s 			page 256


 11884      48616E64 
 11884      6C657200 
 11885              	.LASF534:
 11886 20f0 5343425F 		.ascii	"SCB_CPUID_REVISION_Pos 0\000"
 11886      43505549 
 11886      445F5245 
 11886      56495349 
 11886      4F4E5F50 
 11887              	.LASF1171:
 11888 2109 5F493243 		.ascii	"_I2C0 1\000"
 11888      30203100 
 11889              	.LASF1047:
 11890 2111 434C4B50 		.ascii	"CLKPWR_CLKSRCSEL_CLKSRC_MAINOSC ((uint32_t)(0x01))\000"
 11890      57525F43 
 11890      4C4B5352 
 11890      4353454C 
 11890      5F434C4B 
 11891              	.LASF899:
 11892 2144 4C50435F 		.ascii	"LPC_GPDMA ((LPC_GPDMA_TypeDef *) LPC_GPDMA_BASE )\000"
 11892      4750444D 
 11892      41202828 
 11892      4C50435F 
 11892      4750444D 
 11893              	.LASF660:
 11894 2176 49544D5F 		.ascii	"ITM_TPR_PRIVMASK_Pos 0\000"
 11894      5450525F 
 11894      50524956 
 11894      4D41534B 
 11894      5F506F73 
 11895              	.LASF1390:
 11896 218d 6669666F 		.ascii	"fifo_cnt\000"
 11896      5F636E74 
 11896      00
 11897              	.LASF18:
 11898 2196 5F5F5349 		.ascii	"__SIZEOF_DOUBLE__ 8\000"
 11898      5A454F46 
 11898      5F444F55 
 11898      424C455F 
 11898      5F203800 
 11899              	.LASF766:
 11900 21aa 436F7265 		.ascii	"CoreDebug_DEMCR_MON_REQ_Pos 19\000"
 11900      44656275 
 11900      675F4445 
 11900      4D43525F 
 11900      4D4F4E5F 
 11901              	.LASF946:
 11902 21c9 55415254 		.ascii	"UART_IIR_FIFO_EN ((uint32_t)(3<<6))\000"
 11902      5F494952 
 11902      5F464946 
 11902      4F5F454E 
 11902      20282875 
 11903              	.LASF753:
 11904 21ed 436F7265 		.ascii	"CoreDebug_DHCSR_C_MASKINTS_Msk (1UL << CoreDebug_DH"
 11904      44656275 
 11904      675F4448 
 11904      4353525F 
 11904      435F4D41 
ARM GAS  C:\Users\STUDENT\AppData\Local\Temp\ccMxouBa.s 			page 257


 11905 2220 4353525F 		.ascii	"CSR_C_MASKINTS_Pos)\000"
 11905      435F4D41 
 11905      534B494E 
 11905      54535F50 
 11905      6F732900 
 11906              	.LASF552:
 11907 2234 5343425F 		.ascii	"SCB_ICSR_RETTOBASE_Pos 11\000"
 11907      49435352 
 11907      5F524554 
 11907      544F4241 
 11907      53455F50 
 11908              	.LASF1145:
 11909 224e 434C4B50 		.ascii	"CLKPWR_PCONP_PCMC ((uint32_t)(1<<17))\000"
 11909      57525F50 
 11909      434F4E50 
 11909      5F50434D 
 11909      43202828 
 11910              	.LASF937:
 11911 2274 55415254 		.ascii	"UART_IER_BITMASK ((uint32_t)(0x307))\000"
 11911      5F494552 
 11911      5F424954 
 11911      4D41534B 
 11911      20282875 
 11912              	.LASF897:
 11913 2299 4C50435F 		.ascii	"LPC_QEI ((LPC_QEI_TypeDef *) LPC_QEI_BASE )\000"
 11913      51454920 
 11913      28284C50 
 11913      435F5145 
 11913      495F5479 
 11914              	.LASF837:
 11915 22c5 4C50435F 		.ascii	"LPC_TIM3_BASE (LPC_APB1_BASE + 0x14000)\000"
 11915      54494D33 
 11915      5F424153 
 11915      4520284C 
 11915      50435F41 
 11916              	.LASF428:
 11917 22ed 5F5F4641 		.ascii	"__FAST16 \000"
 11917      53543136 
 11917      2000
 11918              	.LASF967:
 11919 22f7 55415254 		.ascii	"UART_LCR_PARITY_EVEN ((uint8_t)(1<<4))\000"
 11919      5F4C4352 
 11919      5F504152 
 11919      4954595F 
 11919      4556454E 
 11920              	.LASF643:
 11921 231e 53797354 		.ascii	"SysTick_CTRL_COUNTFLAG_Msk (1UL << SysTick_CTRL_COU"
 11921      69636B5F 
 11921      4354524C 
 11921      5F434F55 
 11921      4E54464C 
 11922 2351 4E54464C 		.ascii	"NTFLAG_Pos)\000"
 11922      41475F50 
 11922      6F732900 
 11923              	.LASF389:
 11924 235d 5F5F4C41 		.ascii	"__LARGEFILE_VISIBLE 0\000"
 11924      52474546 
ARM GAS  C:\Users\STUDENT\AppData\Local\Temp\ccMxouBa.s 			page 258


 11924      494C455F 
 11924      56495349 
 11924      424C4520 
 11925              	.LASF176:
 11926 2373 5F5F4445 		.ascii	"__DEC64_MAX__ 9.999999999999999E384DD\000"
 11926      4336345F 
 11926      4D41585F 
 11926      5F20392E 
 11926      39393939 
 11927              	.LASF372:
 11928 2399 5F5F4E45 		.ascii	"__NEWLIB__ 2\000"
 11928      574C4942 
 11928      5F5F2032 
 11928      00
 11929              	.LASF209:
 11930 23a6 5F5F4C46 		.ascii	"__LFRACT_MAX__ 0X7FFFFFFFP-31LR\000"
 11930      52414354 
 11930      5F4D4158 
 11930      5F5F2030 
 11930      58374646 
 11931              	.LASF577:
 11932 23c6 5343425F 		.ascii	"SCB_SCR_SLEEPDEEP_Msk (1UL << SCB_SCR_SLEEPDEEP_Pos"
 11932      5343525F 
 11932      534C4545 
 11932      50444545 
 11932      505F4D73 
 11933 23f9 2900     		.ascii	")\000"
 11934              	.LASF1036:
 11935 23fb 50415241 		.ascii	"PARAM_UART1_MODEM_PIN(x) ((x==UART1_MODEM_PIN_DTR) "
 11935      4D5F5541 
 11935      5254315F 
 11935      4D4F4445 
 11935      4D5F5049 
 11936 242e 7C7C2028 		.ascii	"|| (x==UART1_MODEM_PIN_RTS))\000"
 11936      783D3D55 
 11936      41525431 
 11936      5F4D4F44 
 11936      454D5F50 
 11937              	.LASF1030:
 11938 244b 50415241 		.ascii	"PARAM_UART_INTCFG(IntCfg) ((IntCfg==UART_INTCFG_RBR"
 11938      4D5F5541 
 11938      52545F49 
 11938      4E544346 
 11938      4728496E 
 11939 247e 29207C7C 		.ascii	") || (IntCfg==UART_INTCFG_THRE) || (IntCfg==UART_IN"
 11939      2028496E 
 11939      74436667 
 11939      3D3D5541 
 11939      52545F49 
 11940 24b1 54434647 		.ascii	"TCFG_RLS) || (IntCfg==UART_INTCFG_ABEO) || (IntCfg="
 11940      5F524C53 
 11940      29207C7C 
 11940      2028496E 
 11940      74436667 
 11941 24e4 3D554152 		.ascii	"=UART_INTCFG_ABTO))\000"
 11941      545F494E 
 11941      54434647 
ARM GAS  C:\Users\STUDENT\AppData\Local\Temp\ccMxouBa.s 			page 259


 11941      5F414254 
 11941      4F292900 
 11942              	.LASF126:
 11943 24f8 5F5F464C 		.ascii	"__FLT_MIN_10_EXP__ (-37)\000"
 11943      545F4D49 
 11943      4E5F3130 
 11943      5F455850 
 11943      5F5F2028 
 11944              	.LASF388:
 11945 2511 5F5F4953 		.ascii	"__ISO_C_VISIBLE 1999\000"
 11945      4F5F435F 
 11945      56495349 
 11945      424C4520 
 11945      31393939 
 11946              	.LASF129:
 11947 2526 5F5F464C 		.ascii	"__FLT_DECIMAL_DIG__ 9\000"
 11947      545F4445 
 11947      43494D41 
 11947      4C5F4449 
 11947      475F5F20 
 11948              	.LASF763:
 11949 253c 436F7265 		.ascii	"CoreDebug_DCRSR_REGSEL_Msk (0x1FUL << CoreDebug_DCR"
 11949      44656275 
 11949      675F4443 
 11949      5253525F 
 11949      52454753 
 11950 256f 53525F52 		.ascii	"SR_REGSEL_Pos)\000"
 11950      45475345 
 11950      4C5F506F 
 11950      732900
 11951              	.LASF96:
 11952 257e 5F5F494E 		.ascii	"__INT_LEAST32_MAX__ 0x7fffffffL\000"
 11952      545F4C45 
 11952      41535433 
 11952      325F4D41 
 11952      585F5F20 
 11953              	.LASF767:
 11954 259e 436F7265 		.ascii	"CoreDebug_DEMCR_MON_REQ_Msk (1UL << CoreDebug_DEMCR"
 11954      44656275 
 11954      675F4445 
 11954      4D43525F 
 11954      4D4F4E5F 
 11955 25d1 5F4D4F4E 		.ascii	"_MON_REQ_Pos)\000"
 11955      5F524551 
 11955      5F506F73 
 11955      2900
 11956              	.LASF1191:
 11957 25df 7369676E 		.ascii	"signed char\000"
 11957      65642063 
 11957      68617200 
 11958              	.LASF1188:
 11959 25eb 5F524954 		.ascii	"_RIT 1\000"
 11959      203100
 11960              	.LASF1203:
 11961 25f2 75696E74 		.ascii	"uint8_t\000"
 11961      385F7400 
 11962              	.LASF736:
ARM GAS  C:\Users\STUDENT\AppData\Local\Temp\ccMxouBa.s 			page 260


 11963 25fa 436F7265 		.ascii	"CoreDebug_DHCSR_DBGKEY_Pos 16\000"
 11963      44656275 
 11963      675F4448 
 11963      4353525F 
 11963      4442474B 
 11964              	.LASF498:
 11965 2618 494E544D 		.ascii	"INTMAX_MIN (-INTMAX_MAX - 1)\000"
 11965      41585F4D 
 11965      494E2028 
 11965      2D494E54 
 11965      4D41585F 
 11966              	.LASF812:
 11967 2635 4C50435F 		.ascii	"LPC_APB1_BASE (0x40080000UL)\000"
 11967      41504231 
 11967      5F424153 
 11967      45202830 
 11967      78343030 
 11968              	.LASF1003:
 11969 2652 55415254 		.ascii	"UART_ACR_BITMASK ((uint32_t)(0x307))\000"
 11969      5F414352 
 11969      5F424954 
 11969      4D41534B 
 11969      20282875 
 11970              	.LASF505:
 11971 2677 57434841 		.ascii	"WCHAR_MIN (__WCHAR_MIN__)\000"
 11971      525F4D49 
 11971      4E20285F 
 11971      5F574348 
 11971      41525F4D 
 11972              	.LASF1009:
 11973 2691 55415254 		.ascii	"UART_FDR_DIVADDVAL(n) ((uint32_t)(n&0x0F))\000"
 11973      5F464452 
 11973      5F444956 
 11973      41444456 
 11973      414C286E 
 11974              	.LASF196:
 11975 26bc 5F5F4652 		.ascii	"__FRACT_FBIT__ 15\000"
 11975      4143545F 
 11975      46424954 
 11975      5F5F2031 
 11975      3500
 11976              	.LASF136:
 11977 26ce 5F5F464C 		.ascii	"__FLT_HAS_QUIET_NAN__ 1\000"
 11977      545F4841 
 11977      535F5155 
 11977      4945545F 
 11977      4E414E5F 
 11978              	.LASF4:
 11979 26e6 5F5F474E 		.ascii	"__GNUC_PATCHLEVEL__ 1\000"
 11979      55435F50 
 11979      41544348 
 11979      4C455645 
 11979      4C5F5F20 
 11980              	.LASF313:
 11981 26fc 5F5F4743 		.ascii	"__GCC_ATOMIC_CHAR32_T_LOCK_FREE 2\000"
 11981      435F4154 
 11981      4F4D4943 
ARM GAS  C:\Users\STUDENT\AppData\Local\Temp\ccMxouBa.s 			page 261


 11981      5F434841 
 11981      5233325F 
 11982              	.LASF880:
 11983 271e 4C50435F 		.ascii	"LPC_I2C1 ((LPC_I2C_TypeDef *) LPC_I2C1_BASE )\000"
 11983      49324331 
 11983      2028284C 
 11983      50435F49 
 11983      32435F54 
 11984              	.LASF102:
 11985 274c 5F5F5549 		.ascii	"__UINT_LEAST16_MAX__ 0xffff\000"
 11985      4E545F4C 
 11985      45415354 
 11985      31365F4D 
 11985      41585F5F 
 11986              	.LASF938:
 11987 2768 55415254 		.ascii	"UART1_IER_BITMASK ((uint32_t)(0x38F))\000"
 11987      315F4945 
 11987      525F4249 
 11987      544D4153 
 11987      4B202828 
 11988              	.LASF246:
 11989 278e 5F5F4C41 		.ascii	"__LACCUM_FBIT__ 31\000"
 11989      4343554D 
 11989      5F464249 
 11989      545F5F20 
 11989      333100
 11990              	.LASF555:
 11991 27a1 5343425F 		.ascii	"SCB_ICSR_VECTACTIVE_Msk (0x1FFUL << SCB_ICSR_VECTAC"
 11991      49435352 
 11991      5F564543 
 11991      54414354 
 11991      4956455F 
 11992 27d4 54495645 		.ascii	"TIVE_Pos)\000"
 11992      5F506F73 
 11992      2900
 11993              	.LASF1026:
 11994 27de 50415241 		.ascii	"PARAM_UART_DATABIT(databit) ((databit==UART_DATABIT"
 11994      4D5F5541 
 11994      52545F44 
 11994      41544142 
 11994      49542864 
 11995 2811 5F352920 		.ascii	"_5) || (databit==UART_DATABIT_6)|| (databit==UART_D"
 11995      7C7C2028 
 11995      64617461 
 11995      6269743D 
 11995      3D554152 
 11996 2844 41544142 		.ascii	"ATABIT_7) || (databit==UART_DATABIT_8))\000"
 11996      49545F37 
 11996      29207C7C 
 11996      20286461 
 11996      74616269 
 11997              	.LASF488:
 11998 286c 494E545F 		.ascii	"INT_FAST16_MIN (-__INT_FAST16_MAX__ - 1)\000"
 11998      46415354 
 11998      31365F4D 
 11998      494E2028 
 11998      2D5F5F49 
ARM GAS  C:\Users\STUDENT\AppData\Local\Temp\ccMxouBa.s 			page 262


 11999              	.LASF636:
 12000 2895 5343425F 		.ascii	"SCB_DFSR_DWTTRAP_Pos 2\000"
 12000      44465352 
 12000      5F445754 
 12000      54524150 
 12000      5F506F73 
 12001              	.LASF978:
 12002 28ac 55415254 		.ascii	"UART1_MCR_BITMASK ((uint8_t)(0x0F3))\000"
 12002      315F4D43 
 12002      525F4249 
 12002      544D4153 
 12002      4B202828 
 12003              	.LASF1207:
 12004 28d1 52455345 		.ascii	"RESERVED0\000"
 12004      52564544 
 12004      3000
 12005              	.LASF1208:
 12006 28db 52455345 		.ascii	"RESERVED1\000"
 12006      52564544 
 12006      3100
 12007              	.LASF1192:
 12008 28e5 756E7369 		.ascii	"unsigned char\000"
 12008      676E6564 
 12008      20636861 
 12008      7200
 12009              	.LASF1210:
 12010 28f3 52455345 		.ascii	"RESERVED3\000"
 12010      52564544 
 12010      3300
 12011              	.LASF1211:
 12012 28fd 52455345 		.ascii	"RESERVED4\000"
 12012      52564544 
 12012      3400
 12013              	.LASF1212:
 12014 2907 52455345 		.ascii	"RESERVED5\000"
 12014      52564544 
 12014      3500
 12015              	.LASF1213:
 12016 2911 52455345 		.ascii	"RESERVED6\000"
 12016      52564544 
 12016      3600
 12017              	.LASF1216:
 12018 291b 52455345 		.ascii	"RESERVED7\000"
 12018      52564544 
 12018      3700
 12019              	.LASF1217:
 12020 2925 52455345 		.ascii	"RESERVED8\000"
 12020      52564544 
 12020      3800
 12021              	.LASF1219:
 12022 292f 52455345 		.ascii	"RESERVED9\000"
 12022      52564544 
 12022      3900
 12023              	.LASF1240:
 12024 2939 55415254 		.ascii	"UART_DATABIT_8\000"
 12024      5F444154 
 12024      41424954 
ARM GAS  C:\Users\STUDENT\AppData\Local\Temp\ccMxouBa.s 			page 263


 12024      5F3800
 12025              	.LASF1124:
 12026 2948 434C4B50 		.ascii	"CLKPWR_PCLKSEL_I2S ((uint32_t)(54))\000"
 12026      57525F50 
 12026      434C4B53 
 12026      454C5F49 
 12026      32532028 
 12027              	.LASF601:
 12028 296c 5343425F 		.ascii	"SCB_SHCSR_BUSFAULTPENDED_Msk (1UL << SCB_SHCSR_BUSF"
 12028      53484353 
 12028      525F4255 
 12028      53464155 
 12028      4C545045 
 12029 299f 41554C54 		.ascii	"AULTPENDED_Pos)\000"
 12029      50454E44 
 12029      45445F50 
 12029      6F732900 
 12030              	.LASF1089:
 12031 29af 434C4B50 		.ascii	"CLKPWR_PCLKSEL_BITMASK(p) _SBF(p,0x03)\000"
 12031      57525F50 
 12031      434C4B53 
 12031      454C5F42 
 12031      49544D41 
 12032              	.LASF110:
 12033 29d6 5F5F494E 		.ascii	"__INT_FAST32_MAX__ 0x7fffffff\000"
 12033      545F4641 
 12033      53543332 
 12033      5F4D4158 
 12033      5F5F2030 
 12034              	.LASF7:
 12035 29f4 5F5F4154 		.ascii	"__ATOMIC_SEQ_CST 5\000"
 12035      4F4D4943 
 12035      5F534551 
 12035      5F435354 
 12035      203500
 12036              	.LASF876:
 12037 2a07 4C50435F 		.ascii	"LPC_UART2 ((LPC_UART_TypeDef *) LPC_UART2_BASE )\000"
 12037      55415254 
 12037      32202828 
 12037      4C50435F 
 12037      55415254 
 12038              	.LASF579:
 12039 2a38 5343425F 		.ascii	"SCB_SCR_SLEEPONEXIT_Msk (1UL << SCB_SCR_SLEEPONEXIT"
 12039      5343525F 
 12039      534C4545 
 12039      504F4E45 
 12039      5849545F 
 12040 2a6b 5F506F73 		.ascii	"_Pos)\000"
 12040      2900
 12041              	.LASF842:
 12042 2a71 4C50435F 		.ascii	"LPC_RIT_BASE (LPC_APB1_BASE + 0x30000)\000"
 12042      5249545F 
 12042      42415345 
 12042      20284C50 
 12042      435F4150 
 12043              	.LASF131:
 12044 2a98 5F5F464C 		.ascii	"__FLT_MIN__ 1.1754943508222875e-38F\000"
ARM GAS  C:\Users\STUDENT\AppData\Local\Temp\ccMxouBa.s 			page 264


 12044      545F4D49 
 12044      4E5F5F20 
 12044      312E3137 
 12044      35343934 
 12045              	.LASF1127:
 12046 2abc 434C4B50 		.ascii	"CLKPWR_PCLKSEL_MC ((uint32_t)(62))\000"
 12046      57525F50 
 12046      434C4B53 
 12046      454C5F4D 
 12046      43202828 
 12047              	.LASF1028:
 12048 2adf 50415241 		.ascii	"PARAM_UART_PARITY(parity) ((parity==UART_PARITY_NON"
 12048      4D5F5541 
 12048      52545F50 
 12048      41524954 
 12048      59287061 
 12049 2b12 4529207C 		.ascii	"E) || (parity==UART_PARITY_ODD) || (parity==UART_PA"
 12049      7C202870 
 12049      61726974 
 12049      793D3D55 
 12049      4152545F 
 12050 2b45 52495459 		.ascii	"RITY_EVEN) || (parity==UART_PARITY_SP_1) || (parity"
 12050      5F455645 
 12050      4E29207C 
 12050      7C202870 
 12050      61726974 
 12051 2b78 3D3D5541 		.ascii	"==UART_PARITY_SP_0))\000"
 12051      52545F50 
 12051      41524954 
 12051      595F5350 
 12051      5F302929 
 12052              	.LASF726:
 12053 2b8d 4D50555F 		.ascii	"MPU_RASR_C_Pos 17\000"
 12053      52415352 
 12053      5F435F50 
 12053      6F732031 
 12053      3700
 12054              	.LASF363:
 12055 2b9f 5F5F434D 		.ascii	"__CM3_CMSIS_VERSION ((__CM3_CMSIS_VERSION_MAIN << 1"
 12055      335F434D 
 12055      5349535F 
 12055      56455253 
 12055      494F4E20 
 12056 2bd2 3629207C 		.ascii	"6) | __CM3_CMSIS_VERSION_SUB)\000"
 12056      205F5F43 
 12056      4D335F43 
 12056      4D534953 
 12056      5F564552 
 12057              	.LASF486:
 12058 2bf0 494E545F 		.ascii	"INT_FAST8_MAX (__INT_FAST8_MAX__)\000"
 12058      46415354 
 12058      385F4D41 
 12058      5820285F 
 12058      5F494E54 
 12059              	.LASF797:
 12060 2c12 53434220 		.ascii	"SCB ((SCB_Type *) SCB_BASE)\000"
 12060      28285343 
ARM GAS  C:\Users\STUDENT\AppData\Local\Temp\ccMxouBa.s 			page 265


 12060      425F5479 
 12060      7065202A 
 12060      29205343 
 12061              	.LASF89:
 12062 2c2e 5F5F5549 		.ascii	"__UINT16_MAX__ 0xffff\000"
 12062      4E543136 
 12062      5F4D4158 
 12062      5F5F2030 
 12062      78666666 
 12063              	.LASF898:
 12064 2c44 4C50435F 		.ascii	"LPC_EMAC ((LPC_EMAC_TypeDef *) LPC_EMAC_BASE )\000"
 12064      454D4143 
 12064      2028284C 
 12064      50435F45 
 12064      4D41435F 
 12065              	.LASF669:
 12066 2c73 49544D5F 		.ascii	"ITM_TCR_SWOENA_Msk (1UL << ITM_TCR_SWOENA_Pos)\000"
 12066      5443525F 
 12066      53574F45 
 12066      4E415F4D 
 12066      736B2028 
 12067              	.LASF274:
 12068 2ca2 5F5F5451 		.ascii	"__TQ_FBIT__ 127\000"
 12068      5F464249 
 12068      545F5F20 
 12068      31323700 
 12069              	.LASF968:
 12070 2cb2 55415254 		.ascii	"UART_LCR_PARITY_F_1 ((uint8_t)(2<<4))\000"
 12070      5F4C4352 
 12070      5F504152 
 12070      4954595F 
 12070      465F3120 
 12071              	.LASF944:
 12072 2cd8 55415254 		.ascii	"UART1_IIR_INTID_MODEM ((uint32_t)(0<<1))\000"
 12072      315F4949 
 12072      525F494E 
 12072      5449445F 
 12072      4D4F4445 
 12073              	.LASF1035:
 12074 2d01 50415241 		.ascii	"PARAM_UART1_SIGNALSTATE(x) ((x==INACTIVE) || (x==AC"
 12074      4D5F5541 
 12074      5254315F 
 12074      5349474E 
 12074      414C5354 
 12075 2d34 54495645 		.ascii	"TIVE))\000"
 12075      292900
 12076              	.LASF197:
 12077 2d3b 5F5F4652 		.ascii	"__FRACT_IBIT__ 0\000"
 12077      4143545F 
 12077      49424954 
 12077      5F5F2030 
 12077      00
 12078              	.LASF877:
 12079 2d4c 4C50435F 		.ascii	"LPC_UART3 ((LPC_UART_TypeDef *) LPC_UART3_BASE )\000"
 12079      55415254 
 12079      33202828 
 12079      4C50435F 
ARM GAS  C:\Users\STUDENT\AppData\Local\Temp\ccMxouBa.s 			page 266


 12079      55415254 
 12080              	.LASF457:
 12081 2d7d 5F5F696E 		.ascii	"__int_fast64_t_defined 1\000"
 12081      745F6661 
 12081      73743634 
 12081      5F745F64 
 12081      6566696E 
 12082              	.LASF354:
 12083 2d96 5F5F5553 		.ascii	"__USES_INITFINI__ 1\000"
 12083      45535F49 
 12083      4E495446 
 12083      494E495F 
 12083      5F203100 
 12084              	.LASF1287:
 12085 2daa 55415254 		.ascii	"UART1_MODEM_MODE_AUTO_CTS\000"
 12085      315F4D4F 
 12085      44454D5F 
 12085      4D4F4445 
 12085      5F415554 
 12086              	.LASF616:
 12087 2dc4 5343425F 		.ascii	"SCB_SHCSR_BUSFAULTACT_Pos 1\000"
 12087      53484353 
 12087      525F4255 
 12087      53464155 
 12087      4C544143 
 12088              	.LASF16:
 12089 2de0 5F5F5349 		.ascii	"__SIZEOF_SHORT__ 2\000"
 12089      5A454F46 
 12089      5F53484F 
 12089      52545F5F 
 12089      203200
 12090              	.LASF261:
 12091 2df3 5F5F554C 		.ascii	"__ULLACCUM_FBIT__ 32\000"
 12091      4C414343 
 12091      554D5F46 
 12091      4249545F 
 12091      5F203332 
 12092              	.LASF609:
 12093 2e08 5343425F 		.ascii	"SCB_SHCSR_PENDSVACT_Msk (1UL << SCB_SHCSR_PENDSVACT"
 12093      53484353 
 12093      525F5045 
 12093      4E445356 
 12093      4143545F 
 12094 2e3b 5F506F73 		.ascii	"_Pos)\000"
 12094      2900
 12095              	.LASF1247:
 12096 2e41 55415254 		.ascii	"UART_PARITY_EVEN\000"
 12096      5F504152 
 12096      4954595F 
 12096      4556454E 
 12096      00
 12097              	.LASF852:
 12098 2e52 4C50435F 		.ascii	"LPC_GPDMACH4_BASE (LPC_AHB_BASE + 0x04180)\000"
 12098      4750444D 
 12098      41434834 
 12098      5F424153 
 12098      4520284C 
ARM GAS  C:\Users\STUDENT\AppData\Local\Temp\ccMxouBa.s 			page 267


 12099              	.LASF785:
 12100 2e7d 436F7265 		.ascii	"CoreDebug_DEMCR_VC_NOCPERR_Msk (1UL << CoreDebug_DE"
 12100      44656275 
 12100      675F4445 
 12100      4D43525F 
 12100      56435F4E 
 12101 2eb0 4D43525F 		.ascii	"MCR_VC_NOCPERR_Pos)\000"
 12101      56435F4E 
 12101      4F435045 
 12101      52525F50 
 12101      6F732900 
 12102              	.LASF690:
 12103 2ec4 496E7454 		.ascii	"IntType_ICTR_INTLINESNUM_Pos 0\000"
 12103      7970655F 
 12103      49435452 
 12103      5F494E54 
 12103      4C494E45 
 12104              	.LASF780:
 12105 2ee3 436F7265 		.ascii	"CoreDebug_DEMCR_VC_STATERR_Pos 7\000"
 12105      44656275 
 12105      675F4445 
 12105      4D43525F 
 12105      56435F53 
 12106              	.LASF1391:
 12107 2f04 70436861 		.ascii	"pChar\000"
 12107      7200
 12108              	.LASF1040:
 12109 2f0a 50415241 		.ascii	"PARAM_UART_IrDA(x) (((uint32_t *)x)==((uint32_t *)L"
 12109      4D5F5541 
 12109      52545F49 
 12109      72444128 
 12109      78292028 
 12110 2f3d 50435F55 		.ascii	"PC_UART3))\000"
 12110      41525433 
 12110      292900
 12111              	.LASF369:
 12112 2f48 5F535953 		.ascii	"_SYS_FEATURES_H \000"
 12112      5F464541 
 12112      54555245 
 12112      535F4820 
 12112      00
 12113              	.LASF1281:
 12114 2f59 55415254 		.ascii	"UART1_SignalState\000"
 12114      315F5369 
 12114      676E616C 
 12114      53746174 
 12114      6500
 12115              	.LASF921:
 12116 2f6b 53544154 		.ascii	"STATIC static\000"
 12116      49432073 
 12116      74617469 
 12116      6300
 12117              	.LASF605:
 12118 2f79 5343425F 		.ascii	"SCB_SHCSR_USGFAULTPENDED_Msk (1UL << SCB_SHCSR_USGF"
 12118      53484353 
 12118      525F5553 
 12118      47464155 
ARM GAS  C:\Users\STUDENT\AppData\Local\Temp\ccMxouBa.s 			page 268


 12118      4C545045 
 12119 2fac 41554C54 		.ascii	"AULTPENDED_Pos)\000"
 12119      50454E44 
 12119      45445F50 
 12119      6F732900 
 12120              	.LASF1209:
 12121 2fbc 52455345 		.ascii	"RESERVED2\000"
 12121      52564544 
 12121      3200
 12122              	.LASF607:
 12123 2fc6 5343425F 		.ascii	"SCB_SHCSR_SYSTICKACT_Msk (1UL << SCB_SHCSR_SYSTICKA"
 12123      53484353 
 12123      525F5359 
 12123      53544943 
 12123      4B414354 
 12124 2ff9 43545F50 		.ascii	"CT_Pos)\000"
 12124      6F732900 
 12125              	.LASF1011:
 12126 3001 55415254 		.ascii	"UART_FDR_BITMASK ((uint32_t)(0xFF))\000"
 12126      5F464452 
 12126      5F424954 
 12126      4D41534B 
 12126      20282875 
 12127              	.LASF859:
 12128 3025 4C50435F 		.ascii	"LPC_GPIO2_BASE (LPC_GPIO_BASE + 0x00040)\000"
 12128      4750494F 
 12128      325F4241 
 12128      53452028 
 12128      4C50435F 
 12129              	.LASF567:
 12130 304e 5343425F 		.ascii	"SCB_AIRCR_PRIGROUP_Msk (7UL << SCB_AIRCR_PRIGROUP_P"
 12130      41495243 
 12130      525F5052 
 12130      4947524F 
 12130      55505F4D 
 12131 3081 6F732900 		.ascii	"os)\000"
 12132              	.LASF19:
 12133 3085 5F5F5349 		.ascii	"__SIZEOF_LONG_DOUBLE__ 8\000"
 12133      5A454F46 
 12133      5F4C4F4E 
 12133      475F444F 
 12133      55424C45 
 12134              	.LASF903:
 12135 309e 4C50435F 		.ascii	"LPC_GPDMACH2 ((LPC_GPDMACH_TypeDef *) LPC_GPDMACH2_"
 12135      4750444D 
 12135      41434832 
 12135      2028284C 
 12135      50435F47 
 12136 30d1 42415345 		.ascii	"BASE )\000"
 12136      202900
 12137              	.LASF867:
 12138 30d8 4C50435F 		.ascii	"LPC_GPIO4 ((LPC_GPIO_TypeDef *) LPC_GPIO4_BASE )\000"
 12138      4750494F 
 12138      34202828 
 12138      4C50435F 
 12138      4750494F 
 12139              	.LASF1377:
ARM GAS  C:\Users\STUDENT\AppData\Local\Temp\ccMxouBa.s 			page 269


 12140 3109 50617269 		.ascii	"ParityStick\000"
 12140      74795374 
 12140      69636B00 
 12141              	.LASF31:
 12142 3115 5F5F5743 		.ascii	"__WCHAR_TYPE__ unsigned int\000"
 12142      4841525F 
 12142      54595045 
 12142      5F5F2075 
 12142      6E736967 
 12143              	.LASF888:
 12144 3131 4C50435F 		.ascii	"LPC_SSP1 ((LPC_SSP_TypeDef *) LPC_SSP1_BASE )\000"
 12144      53535031 
 12144      2028284C 
 12144      50435F53 
 12144      53505F54 
 12145              	.LASF649:
 12146 315f 53797354 		.ascii	"SysTick_CTRL_ENABLE_Msk (1UL << SysTick_CTRL_ENABLE"
 12146      69636B5F 
 12146      4354524C 
 12146      5F454E41 
 12146      424C455F 
 12147 3192 5F506F73 		.ascii	"_Pos)\000"
 12147      2900
 12148              	.LASF410:
 12149 3198 63686172 		.ascii	"char\000"
 12149      00
 12150              	.LASF297:
 12151 319d 5F5F5553 		.ascii	"__USA_IBIT__ 16\000"
 12151      415F4942 
 12151      49545F5F 
 12151      20313600 
 12152              	.LASF308:
 12153 31ad 5F5F4743 		.ascii	"__GCC_HAVE_SYNC_COMPARE_AND_SWAP_2 1\000"
 12153      435F4841 
 12153      56455F53 
 12153      594E435F 
 12153      434F4D50 
 12154              	.LASF517:
 12155 31d2 494E544D 		.ascii	"INTMAX_C(x) __INTMAX_C(x)\000"
 12155      41585F43 
 12155      28782920 
 12155      5F5F494E 
 12155      544D4158 
 12156              	.LASF504:
 12157 31ec 50545244 		.ascii	"PTRDIFF_MIN (-PTRDIFF_MAX - 1)\000"
 12157      4946465F 
 12157      4D494E20 
 12157      282D5054 
 12157      52444946 
 12158              	.LASF358:
 12159 320b 5F5F4E56 		.ascii	"__NVIC_PRIO_BITS 5\000"
 12159      49435F50 
 12159      52494F5F 
 12159      42495453 
 12159      203500
 12160              	.LASF991:
 12161 321e 55415254 		.ascii	"UART1_MSR_DELTA_DCD ((uint8_t)(1<<3))\000"
ARM GAS  C:\Users\STUDENT\AppData\Local\Temp\ccMxouBa.s 			page 270


 12161      315F4D53 
 12161      525F4445 
 12161      4C54415F 
 12161      44434420 
 12162              	.LASF360:
 12163 3244 5F5F434F 		.ascii	"__CORE_CM3_H_GENERIC \000"
 12163      52455F43 
 12163      4D335F48 
 12163      5F47454E 
 12163      45524943 
 12164              	.LASF1169:
 12165 325a 5F535350 		.ascii	"_SSP1 1\000"
 12165      31203100 
 12166              	.LASF61:
 12167 3262 5F5F5549 		.ascii	"__UINT_FAST64_TYPE__ long long unsigned int\000"
 12167      4E545F46 
 12167      41535436 
 12167      345F5459 
 12167      50455F5F 
 12168              	.LASF885:
 12169 328e 4C50435F 		.ascii	"LPC_GPIOINT ((LPC_GPIOINT_TypeDef *) LPC_GPIOINT_BA"
 12169      4750494F 
 12169      494E5420 
 12169      28284C50 
 12169      435F4750 
 12170 32c1 53452029 		.ascii	"SE )\000"
 12170      00
 12171              	.LASF814:
 12172 32c6 4C50435F 		.ascii	"LPC_CM3_BASE (0xE0000000UL)\000"
 12172      434D335F 
 12172      42415345 
 12172      20283078 
 12172      45303030 
 12173              	.LASF1286:
 12174 32e2 55415254 		.ascii	"UART1_MODEM_MODE_AUTO_RTS\000"
 12174      315F4D4F 
 12174      44454D5F 
 12174      4D4F4445 
 12174      5F415554 
 12175              	.LASF1409:
 12176 32fc 636F7265 		.ascii	"core/lpc17xx_uart.c\000"
 12176      2F6C7063 
 12176      31377878 
 12176      5F756172 
 12176      742E6300 
 12177              	.LASF989:
 12178 3310 55415254 		.ascii	"UART1_MSR_DELTA_DSR ((uint8_t)(1<<1))\000"
 12178      315F4D53 
 12178      525F4445 
 12178      4C54415F 
 12178      44535220 
 12179              	.LASF13:
 12180 3336 5F5F5349 		.ascii	"__SIZEOF_INT__ 4\000"
 12180      5A454F46 
 12180      5F494E54 
 12180      5F5F2034 
 12180      00
ARM GAS  C:\Users\STUDENT\AppData\Local\Temp\ccMxouBa.s 			page 271


 12181              	.LASF286:
 12182 3347 5F5F4841 		.ascii	"__HA_FBIT__ 7\000"
 12182      5F464249 
 12182      545F5F20 
 12182      3700
 12183              	.LASF1295:
 12184 3355 53746F70 		.ascii	"Stopbits\000"
 12184      62697473 
 12184      00
 12185              	.LASF1062:
 12186 335e 434C4B50 		.ascii	"CLKPWR_PLL0CFG_MSEL(n) ((uint32_t)(n&0x7FFF))\000"
 12186      57525F50 
 12186      4C4C3043 
 12186      46475F4D 
 12186      53454C28 
 12187              	.LASF678:
 12188 338c 49544D5F 		.ascii	"ITM_IWR_ATVALIDM_Pos 0\000"
 12188      4957525F 
 12188      41545641 
 12188      4C49444D 
 12188      5F506F73 
 12189              	.LASF27:
 12190 33a3 5F5F464C 		.ascii	"__FLOAT_WORD_ORDER__ __ORDER_LITTLE_ENDIAN__\000"
 12190      4F41545F 
 12190      574F5244 
 12190      5F4F5244 
 12190      45525F5F 
 12191              	.LASF130:
 12192 33d0 5F5F464C 		.ascii	"__FLT_MAX__ 3.4028234663852886e+38F\000"
 12192      545F4D41 
 12192      585F5F20 
 12192      332E3430 
 12192      32383233 
 12193              	.LASF663:
 12194 33f4 49544D5F 		.ascii	"ITM_TCR_BUSY_Msk (1UL << ITM_TCR_BUSY_Pos)\000"
 12194      5443525F 
 12194      42555359 
 12194      5F4D736B 
 12194      20283155 
 12195              	.LASF502:
 12196 341f 5349475F 		.ascii	"SIG_ATOMIC_MAX (__STDINT_EXP(INT_MAX))\000"
 12196      41544F4D 
 12196      49435F4D 
 12196      41582028 
 12196      5F5F5354 
 12197              	.LASF886:
 12198 3446 4C50435F 		.ascii	"LPC_PINCON ((LPC_PINCON_TypeDef *) LPC_PINCON_BASE "
 12198      50494E43 
 12198      4F4E2028 
 12198      284C5043 
 12198      5F50494E 
 12199 3479 2900     		.ascii	")\000"
 12200              	.LASF866:
 12201 347b 4C50435F 		.ascii	"LPC_GPIO3 ((LPC_GPIO_TypeDef *) LPC_GPIO3_BASE )\000"
 12201      4750494F 
 12201      33202828 
 12201      4C50435F 
ARM GAS  C:\Users\STUDENT\AppData\Local\Temp\ccMxouBa.s 			page 272


 12201      4750494F 
 12202              	.LASF1138:
 12203 34ac 434C4B50 		.ascii	"CLKPWR_PCONP_PCRTC ((uint32_t)(1<<9))\000"
 12203      57525F50 
 12203      434F4E50 
 12203      5F504352 
 12203      54432028 
 12204              	.LASF493:
 12205 34d2 55494E54 		.ascii	"UINT_FAST32_MAX (__UINT_FAST32_MAX__)\000"
 12205      5F464153 
 12205      5433325F 
 12205      4D415820 
 12205      285F5F55 
 12206              	.LASF166:
 12207 34f8 5F5F4445 		.ascii	"__DEC32_MIN_EXP__ (-94)\000"
 12207      4333325F 
 12207      4D494E5F 
 12207      4558505F 
 12207      5F20282D 
 12208              	.LASF1400:
 12209 3510 70556172 		.ascii	"pUartNum\000"
 12209      744E756D 
 12209      00
 12210              	.LASF192:
 12211 3519 5F5F5553 		.ascii	"__USFRACT_IBIT__ 0\000"
 12211      46524143 
 12211      545F4942 
 12211      49545F5F 
 12211      203000
 12212              	.LASF548:
 12213 352c 5343425F 		.ascii	"SCB_ICSR_ISRPENDING_Pos 22\000"
 12213      49435352 
 12213      5F495352 
 12213      50454E44 
 12213      494E475F 
 12214              	.LASF894:
 12215 3547 4C50435F 		.ascii	"LPC_CAN1 ((LPC_CAN_TypeDef *) LPC_CAN1_BASE )\000"
 12215      43414E31 
 12215      2028284C 
 12215      50435F43 
 12215      414E5F54 
 12216              	.LASF193:
 12217 3575 5F5F5553 		.ascii	"__USFRACT_MIN__ 0.0UHR\000"
 12217      46524143 
 12217      545F4D49 
 12217      4E5F5F20 
 12217      302E3055 
 12218              	.LASF1401:
 12219 358c 55415254 		.ascii	"UART0_StdIntHandler\000"
 12219      305F5374 
 12219      64496E74 
 12219      48616E64 
 12219      6C657200 
 12220              	.LASF674:
 12221 35a0 49544D5F 		.ascii	"ITM_TCR_TSENA_Pos 1\000"
 12221      5443525F 
 12221      5453454E 
ARM GAS  C:\Users\STUDENT\AppData\Local\Temp\ccMxouBa.s 			page 273


 12221      415F506F 
 12221      73203100 
 12222              	.LASF88:
 12223 35b4 5F5F5549 		.ascii	"__UINT8_MAX__ 0xff\000"
 12223      4E54385F 
 12223      4D41585F 
 12223      5F203078 
 12223      666600
 12224              	.LASF396:
 12225 35c7 5F5F5F69 		.ascii	"___int16_t_defined 1\000"
 12225      6E743136 
 12225      5F745F64 
 12225      6566696E 
 12225      65642031 
 12226              	.LASF1154:
 12227 35dc 434C4B50 		.ascii	"CLKPWR_PCONP_PCI2S ((uint32_t)(1<<27))\000"
 12227      57525F50 
 12227      434F4E50 
 12227      5F504349 
 12227      32532028 
 12228              	.LASF155:
 12229 3603 5F5F4C44 		.ascii	"__LDBL_MAX_EXP__ 1024\000"
 12229      424C5F4D 
 12229      41585F45 
 12229      58505F5F 
 12229      20313032 
 12230              	.LASF1141:
 12231 3619 434C4B50 		.ascii	"CLKPWR_PCONP_PCAN1 ((uint32_t)(1<<13))\000"
 12231      57525F50 
 12231      434F4E50 
 12231      5F504341 
 12231      4E312028 
 12232              	.LASF578:
 12233 3640 5343425F 		.ascii	"SCB_SCR_SLEEPONEXIT_Pos 1\000"
 12233      5343525F 
 12233      534C4545 
 12233      504F4E45 
 12233      5849545F 
 12234              	.LASF576:
 12235 365a 5343425F 		.ascii	"SCB_SCR_SLEEPDEEP_Pos 2\000"
 12235      5343525F 
 12235      534C4545 
 12235      50444545 
 12235      505F506F 
 12236              	.LASF392:
 12237 3672 5F5F5356 		.ascii	"__SVID_VISIBLE 1\000"
 12237      49445F56 
 12237      49534942 
 12237      4C452031 
 12237      00
 12238              	.LASF438:
 12239 3683 5F5F696E 		.ascii	"__int8_t_defined 1\000"
 12239      74385F74 
 12239      5F646566 
 12239      696E6564 
 12239      203100
 12240              	.LASF148:
ARM GAS  C:\Users\STUDENT\AppData\Local\Temp\ccMxouBa.s 			page 274


 12241 3696 5F5F4442 		.ascii	"__DBL_HAS_DENORM__ 1\000"
 12241      4C5F4841 
 12241      535F4445 
 12241      4E4F524D 
 12241      5F5F2031 
 12242              	.LASF1053:
 12243 36ab 434C4B50 		.ascii	"CLKPWR_CLKOUTCFG_CLKOUTSEL_USB ((uint32_t)(0x03))\000"
 12243      57525F43 
 12243      4C4B4F55 
 12243      54434647 
 12243      5F434C4B 
 12244              	.LASF755:
 12245 36dd 436F7265 		.ascii	"CoreDebug_DHCSR_C_STEP_Msk (1UL << CoreDebug_DHCSR_"
 12245      44656275 
 12245      675F4448 
 12245      4353525F 
 12245      435F5354 
 12246 3710 435F5354 		.ascii	"C_STEP_Pos)\000"
 12246      45505F50 
 12246      6F732900 
 12247              	.LASF869:
 12248 371c 4C50435F 		.ascii	"LPC_TIM0 ((LPC_TIM_TypeDef *) LPC_TIM0_BASE )\000"
 12248      54494D30 
 12248      2028284C 
 12248      50435F54 
 12248      494D5F54 
 12249              	.LASF648:
 12250 374a 53797354 		.ascii	"SysTick_CTRL_ENABLE_Pos 0\000"
 12250      69636B5F 
 12250      4354524C 
 12250      5F454E41 
 12250      424C455F 
 12251              	.LASF497:
 12252 3764 494E544D 		.ascii	"INTMAX_MAX (__INTMAX_MAX__)\000"
 12252      41585F4D 
 12252      41582028 
 12252      5F5F494E 
 12252      544D4158 
 12253              	.LASF474:
 12254 3780 494E5433 		.ascii	"INT32_MAX (__INT32_MAX__)\000"
 12254      325F4D41 
 12254      5820285F 
 12254      5F494E54 
 12254      33325F4D 
 12255              	.LASF1321:
 12256 379a 67657455 		.ascii	"getUartNum\000"
 12256      6172744E 
 12256      756D00
 12257              	.LASF290:
 12258 37a5 5F5F4441 		.ascii	"__DA_FBIT__ 31\000"
 12258      5F464249 
 12258      545F5F20 
 12258      333100
 12259              	.LASF1260:
 12260 37b4 55415254 		.ascii	"UART1_INTCFG_CTS\000"
 12260      315F494E 
 12260      54434647 
ARM GAS  C:\Users\STUDENT\AppData\Local\Temp\ccMxouBa.s 			page 275


 12260      5F435453 
 12260      00
 12261              	.LASF932:
 12262 37c5 55415254 		.ascii	"UART_IER_RLSINT_EN ((uint32_t)(1<<2))\000"
 12262      5F494552 
 12262      5F524C53 
 12262      494E545F 
 12262      454E2028 
 12263              	.LASF94:
 12264 37eb 5F5F494E 		.ascii	"__INT_LEAST16_MAX__ 0x7fff\000"
 12264      545F4C45 
 12264      41535431 
 12264      365F4D41 
 12264      585F5F20 
 12265              	.LASF400:
 12266 3806 5F5F5F69 		.ascii	"___int_least16_t_defined 1\000"
 12266      6E745F6C 
 12266      65617374 
 12266      31365F74 
 12266      5F646566 
 12267              	.LASF541:
 12268 3821 5343425F 		.ascii	"SCB_ICSR_PENDSVCLR_Msk (1UL << SCB_ICSR_PENDSVCLR_P"
 12268      49435352 
 12268      5F50454E 
 12268      44535643 
 12268      4C525F4D 
 12269 3854 6F732900 		.ascii	"os)\000"
 12270              	.LASF133:
 12271 3858 5F5F464C 		.ascii	"__FLT_DENORM_MIN__ 1.4012984643248171e-45F\000"
 12271      545F4445 
 12271      4E4F524D 
 12271      5F4D494E 
 12271      5F5F2031 
 12272              	.LASF431:
 12273 3883 5F5F4C45 		.ascii	"__LEAST8 \"hh\"\000"
 12273      41535438 
 12273      20226868 
 12273      2200
 12274              	.LASF1186:
 12275 3891 5F4D4350 		.ascii	"_MCPWM 1\000"
 12275      574D2031 
 12275      00
 12276              	.LASF1250:
 12277 389a 55415254 		.ascii	"UART_PARITY_Type\000"
 12277      5F504152 
 12277      4954595F 
 12277      54797065 
 12277      00
 12278              	.LASF265:
 12279 38ab 5F5F554C 		.ascii	"__ULLACCUM_EPSILON__ 0x1P-32ULLK\000"
 12279      4C414343 
 12279      554D5F45 
 12279      5053494C 
 12279      4F4E5F5F 
 12280              	.LASF871:
 12281 38cc 4C50435F 		.ascii	"LPC_TIM2 ((LPC_TIM_TypeDef *) LPC_TIM2_BASE )\000"
 12281      54494D32 
ARM GAS  C:\Users\STUDENT\AppData\Local\Temp\ccMxouBa.s 			page 276


 12281      2028284C 
 12281      50435F54 
 12281      494D5F54 
 12282              	.LASF1012:
 12283 38fa 55415254 		.ascii	"UART_TER_TXEN ((uint8_t)(1<<7))\000"
 12283      5F544552 
 12283      5F545845 
 12283      4E202828 
 12283      75696E74 
 12284              	.LASF594:
 12285 391a 5343425F 		.ascii	"SCB_SHCSR_BUSFAULTENA_Pos 17\000"
 12285      53484353 
 12285      525F4255 
 12285      53464155 
 12285      4C54454E 
 12286              	.LASF1043:
 12287 3937 50415241 		.ascii	"PARAM_UART1_RS485_CFG_DELAYVALUE(x) ((x<0xFF))\000"
 12287      4D5F5541 
 12287      5254315F 
 12287      52533438 
 12287      355F4346 
 12288              	.LASF816:
 12289 3966 4C50435F 		.ascii	"LPC_TIM0_BASE (LPC_APB0_BASE + 0x04000)\000"
 12289      54494D30 
 12289      5F424153 
 12289      4520284C 
 12289      50435F41 
 12290              	.LASF1279:
 12291 398e 494E4143 		.ascii	"INACTIVE\000"
 12291      54495645 
 12291      00
 12292              	.LASF65:
 12293 3997 5F5F6861 		.ascii	"__has_include_next(STR) __has_include_next__(STR)\000"
 12293      735F696E 
 12293      636C7564 
 12293      655F6E65 
 12293      78742853 
 12294              	.LASF776:
 12295 39c9 436F7265 		.ascii	"CoreDebug_DEMCR_VC_INTERR_Pos 9\000"
 12295      44656275 
 12295      675F4445 
 12295      4D43525F 
 12295      56435F49 
 12296              	.LASF472:
 12297 39e9 55494E54 		.ascii	"UINT_LEAST16_MAX (__UINT_LEAST16_MAX__)\000"
 12297      5F4C4541 
 12297      53543136 
 12297      5F4D4158 
 12297      20285F5F 
 12298              	.LASF105:
 12299 3a11 5F5F5549 		.ascii	"__UINT32_C(c) c ## UL\000"
 12299      4E543332 
 12299      5F432863 
 12299      29206320 
 12299      23232055 
 12300              	.LASF532:
 12301 3a27 5343425F 		.ascii	"SCB_CPUID_PARTNO_Pos 4\000"
ARM GAS  C:\Users\STUDENT\AppData\Local\Temp\ccMxouBa.s 			page 277


 12301      43505549 
 12301      445F5041 
 12301      52544E4F 
 12301      5F506F73 
 12302              	.LASF537:
 12303 3a3e 5343425F 		.ascii	"SCB_ICSR_NMIPENDSET_Msk (1UL << SCB_ICSR_NMIPENDSET"
 12303      49435352 
 12303      5F4E4D49 
 12303      50454E44 
 12303      5345545F 
 12304 3a71 5F506F73 		.ascii	"_Pos)\000"
 12304      2900
 12305              	.LASF993:
 12306 3a77 55415254 		.ascii	"UART1_MSR_DSR ((uint8_t)(1<<5))\000"
 12306      315F4D53 
 12306      525F4453 
 12306      52202828 
 12306      75696E74 
 12307              	.LASF915:
 12308 3a97 5F534246 		.ascii	"_SBF\000"
 12308      00
 12309              	.LASF243:
 12310 3a9c 5F5F5541 		.ascii	"__UACCUM_MIN__ 0.0UK\000"
 12310      4343554D 
 12310      5F4D494E 
 12310      5F5F2030 
 12310      2E30554B 
 12311              	.LASF1074:
 12312 3ab1 434C4B50 		.ascii	"CLKPWR_PLL1CFG_MSEL(n) ((uint32_t)(n&0x1F))\000"
 12312      57525F50 
 12312      4C4C3143 
 12312      46475F4D 
 12312      53454C28 
 12313              	.LASF132:
 12314 3add 5F5F464C 		.ascii	"__FLT_EPSILON__ 1.1920928955078125e-7F\000"
 12314      545F4550 
 12314      53494C4F 
 12314      4E5F5F20 
 12314      312E3139 
 12315              	.LASF761:
 12316 3b04 436F7265 		.ascii	"CoreDebug_DCRSR_REGWnR_Msk (1UL << CoreDebug_DCRSR_"
 12316      44656275 
 12316      675F4443 
 12316      5253525F 
 12316      52454757 
 12317 3b37 52454757 		.ascii	"REGWnR_Pos)\000"
 12317      6E525F50 
 12317      6F732900 
 12318              	.LASF738:
 12319 3b43 436F7265 		.ascii	"CoreDebug_DHCSR_S_RESET_ST_Pos 25\000"
 12319      44656275 
 12319      675F4448 
 12319      4353525F 
 12319      535F5245 
 12320              	.LASF1359:
 12321 3b65 55415254 		.ascii	"UART_CheckBusy\000"
 12321      5F436865 
ARM GAS  C:\Users\STUDENT\AppData\Local\Temp\ccMxouBa.s 			page 278


 12321      636B4275 
 12321      737900
 12322              	.LASF1258:
 12323 3b74 55415254 		.ascii	"UART_INTCFG_RLS\000"
 12323      5F494E54 
 12323      4346475F 
 12323      524C5300 
 12324              	.LASF614:
 12325 3b84 5343425F 		.ascii	"SCB_SHCSR_USGFAULTACT_Pos 3\000"
 12325      53484353 
 12325      525F5553 
 12325      47464155 
 12325      4C544143 
 12326              	.LASF598:
 12327 3ba0 5343425F 		.ascii	"SCB_SHCSR_SVCALLPENDED_Pos 15\000"
 12327      53484353 
 12327      525F5356 
 12327      43414C4C 
 12327      50454E44 
 12328              	.LASF1331:
 12329 3bbe 64697669 		.ascii	"diviser\000"
 12329      73657200 
 12330              	.LASF912:
 12331 3bc6 50415241 		.ascii	"PARAM_FUNCTIONALSTATE(State) ((State==DISABLE) || ("
 12331      4D5F4655 
 12331      4E435449 
 12331      4F4E414C 
 12331      53544154 
 12332 3bf9 53746174 		.ascii	"State==ENABLE))\000"
 12332      653D3D45 
 12332      4E41424C 
 12332      45292900 
 12333              	.LASF585:
 12334 3c09 5343425F 		.ascii	"SCB_CCR_DIV_0_TRP_Msk (1UL << SCB_CCR_DIV_0_TRP_Pos"
 12334      4343525F 
 12334      4449565F 
 12334      305F5452 
 12334      505F4D73 
 12335 3c3c 2900     		.ascii	")\000"
 12336              	.LASF1360:
 12337 3c3e 55415254 		.ascii	"UART_FIFOConfig\000"
 12337      5F464946 
 12337      4F436F6E 
 12337      66696700 
 12338              	.LASF642:
 12339 3c4e 53797354 		.ascii	"SysTick_CTRL_COUNTFLAG_Pos 16\000"
 12339      69636B5F 
 12339      4354524C 
 12339      5F434F55 
 12339      4E54464C 
 12340              	.LASF451:
 12341 3c6c 5F5F696E 		.ascii	"__int_least16_t_defined 1\000"
 12341      745F6C65 
 12341      61737431 
 12341      365F745F 
 12341      64656669 
 12342              	.LASF245:
ARM GAS  C:\Users\STUDENT\AppData\Local\Temp\ccMxouBa.s 			page 279


 12343 3c86 5F5F5541 		.ascii	"__UACCUM_EPSILON__ 0x1P-16UK\000"
 12343      4343554D 
 12343      5F455053 
 12343      494C4F4E 
 12343      5F5F2030 
 12344              	.LASF1263:
 12345 3ca3 55415254 		.ascii	"UART_INT_Type\000"
 12345      5F494E54 
 12345      5F547970 
 12345      6500
 12346              	.LASF477:
 12347 3cb1 494E545F 		.ascii	"INT_LEAST32_MAX (__INT_LEAST32_MAX__)\000"
 12347      4C454153 
 12347      5433325F 
 12347      4D415820 
 12347      285F5F49 
 12348              	.LASF1342:
 12349 3cd7 55415254 		.ascii	"UART_DeInit\000"
 12349      5F446549 
 12349      6E697400 
 12350              	.LASF476:
 12351 3ce3 494E545F 		.ascii	"INT_LEAST32_MIN (-__INT_LEAST32_MAX__ - 1)\000"
 12351      4C454153 
 12351      5433325F 
 12351      4D494E20 
 12351      282D5F5F 
 12352              	.LASF315:
 12353 3d0e 5F5F4743 		.ascii	"__GCC_ATOMIC_SHORT_LOCK_FREE 2\000"
 12353      435F4154 
 12353      4F4D4943 
 12353      5F53484F 
 12353      52545F4C 
 12354              	.LASF620:
 12355 3d2d 5343425F 		.ascii	"SCB_CFSR_USGFAULTSR_Pos 16\000"
 12355      43465352 
 12355      5F555347 
 12355      4641554C 
 12355      5453525F 
 12356              	.LASF1388:
 12357 3d48 6253656E 		.ascii	"bSent\000"
 12357      7400
 12358              	.LASF655:
 12359 3d4e 53797354 		.ascii	"SysTick_CALIB_NOREF_Msk (1UL << SysTick_CALIB_NOREF"
 12359      69636B5F 
 12359      43414C49 
 12359      425F4E4F 
 12359      5245465F 
 12360 3d81 5F506F73 		.ascii	"_Pos)\000"
 12360      2900
 12361              	.LASF269:
 12362 3d87 5F5F4851 		.ascii	"__HQ_IBIT__ 0\000"
 12362      5F494249 
 12362      545F5F20 
 12362      3000
 12363              	.LASF1373:
 12364 3d95 55415254 		.ascii	"UART_RS485ReceiverCmd\000"
 12364      5F525334 
ARM GAS  C:\Users\STUDENT\AppData\Local\Temp\ccMxouBa.s 			page 280


 12364      38355265 
 12364      63656976 
 12364      6572436D 
 12365              	.LASF231:
 12366 3dab 5F5F5553 		.ascii	"__USACCUM_FBIT__ 8\000"
 12366      41434355 
 12366      4D5F4642 
 12366      49545F5F 
 12366      203800
 12367              	.LASF1146:
 12368 3dbe 434C4B50 		.ascii	"CLKPWR_PCONP_PCQEI ((uint32_t)(1<<18))\000"
 12368      57525F50 
 12368      434F4E50 
 12368      5F504351 
 12368      45492028 
 12369              	.LASF319:
 12370 3de5 5F5F4743 		.ascii	"__GCC_ATOMIC_TEST_AND_SET_TRUEVAL 1\000"
 12370      435F4154 
 12370      4F4D4943 
 12370      5F544553 
 12370      545F414E 
 12371              	.LASF893:
 12372 3e09 4C50435F 		.ascii	"LPC_CANCR ((LPC_CANCR_TypeDef *) LPC_CANCR_BASE )\000"
 12372      43414E43 
 12372      52202828 
 12372      4C50435F 
 12372      43414E43 
 12373              	.LASF551:
 12374 3e3b 5343425F 		.ascii	"SCB_ICSR_VECTPENDING_Msk (0x1FFUL << SCB_ICSR_VECTP"
 12374      49435352 
 12374      5F564543 
 12374      5450454E 
 12374      44494E47 
 12375 3e6e 454E4449 		.ascii	"ENDING_Pos)\000"
 12375      4E475F50 
 12375      6F732900 
 12376              	.LASF597:
 12377 3e7a 5343425F 		.ascii	"SCB_SHCSR_MEMFAULTENA_Msk (1UL << SCB_SHCSR_MEMFAUL"
 12377      53484353 
 12377      525F4D45 
 12377      4D464155 
 12377      4C54454E 
 12378 3ead 54454E41 		.ascii	"TENA_Pos)\000"
 12378      5F506F73 
 12378      2900
 12379              	.LASF1297:
 12380 3eb7 4649464F 		.ascii	"FIFO_ResetRxBuf\000"
 12380      5F526573 
 12380      65745278 
 12380      42756600 
 12381              	.LASF1180:
 12382 3ec7 5F50574D 		.ascii	"_PWM1 1\000"
 12382      31203100 
 12383              	.LASF1303:
 12384 3ecf 52785F53 		.ascii	"Rx_State\000"
 12384      74617465 
 12384      00
ARM GAS  C:\Users\STUDENT\AppData\Local\Temp\ccMxouBa.s 			page 281


 12385              	.LASF934:
 12386 3ed8 55415254 		.ascii	"UART1_IER_CTSINT_EN ((uint32_t)(1<<7))\000"
 12386      315F4945 
 12386      525F4354 
 12386      53494E54 
 12386      5F454E20 
 12387              	.LASF1077:
 12388 3eff 434C4B50 		.ascii	"CLKPWR_PLL1STAT_MSEL(n) ((uint32_t)(n&0x1F))\000"
 12388      57525F50 
 12388      4C4C3153 
 12388      5441545F 
 12388      4D53454C 
 12389              	.LASF970:
 12390 3f2c 55415254 		.ascii	"UART_LCR_BREAK_EN ((uint8_t)(1<<6))\000"
 12390      5F4C4352 
 12390      5F425245 
 12390      414B5F45 
 12390      4E202828 
 12391              	.LASF163:
 12392 3f50 5F5F4C44 		.ascii	"__LDBL_HAS_INFINITY__ 1\000"
 12392      424C5F48 
 12392      41535F49 
 12392      4E46494E 
 12392      4954595F 
 12393              	.LASF292:
 12394 3f68 5F5F5441 		.ascii	"__TA_FBIT__ 63\000"
 12394      5F464249 
 12394      545F5F20 
 12394      363300
 12395              	.LASF5:
 12396 3f77 5F5F5645 		.ascii	"__VERSION__ \"5.4.1 20160919 (release) [ARM/embedde"
 12396      5253494F 
 12396      4E5F5F20 
 12396      22352E34 
 12396      2E312032 
 12397 3fa9 642D352D 		.ascii	"d-5-branch revision 240496]\"\000"
 12397      6272616E 
 12397      63682072 
 12397      65766973 
 12397      696F6E20 
 12398              	.LASF1130:
 12399 3fc6 434C4B50 		.ascii	"CLKPWR_PCLKSEL_CCLK_DIV_2 ((uint32_t)(2))\000"
 12399      57525F50 
 12399      434C4B53 
 12399      454C5F43 
 12399      434C4B5F 
 12400              	.LASF458:
 12401 3ff0 494E5450 		.ascii	"INTPTR_MIN (-__INTPTR_MAX__ - 1)\000"
 12401      54525F4D 
 12401      494E2028 
 12401      2D5F5F49 
 12401      4E545054 
 12402              	.LASF711:
 12403 4011 4D50555F 		.ascii	"MPU_RNR_REGION_Msk (0xFFUL << MPU_RNR_REGION_Pos)\000"
 12403      524E525F 
 12403      52454749 
 12403      4F4E5F4D 
ARM GAS  C:\Users\STUDENT\AppData\Local\Temp\ccMxouBa.s 			page 282


 12403      736B2028 
 12404              	.LASF848:
 12405 4043 4C50435F 		.ascii	"LPC_GPDMACH0_BASE (LPC_AHB_BASE + 0x04100)\000"
 12405      4750444D 
 12405      41434830 
 12405      5F424153 
 12405      4520284C 
 12406              	.LASF349:
 12407 406e 5F5F4152 		.ascii	"__ARM_ARCH_EXT_IDIV__ 1\000"
 12407      4D5F4152 
 12407      43485F45 
 12407      58545F49 
 12407      4449565F 
 12408              	.LASF1327:
 12409 4086 63616C63 		.ascii	"calcBaudrate\000"
 12409      42617564 
 12409      72617465 
 12409      00
 12410              	.LASF1025:
 12411 4093 55415254 		.ascii	"UART_FIFOLVL_BITMASK ((uint32_t)(0x0F0F))\000"
 12411      5F464946 
 12411      4F4C564C 
 12411      5F424954 
 12411      4D41534B 
 12412              	.LASF822:
 12413 40bd 4C50435F 		.ascii	"LPC_SPI_BASE (LPC_APB0_BASE + 0x20000)\000"
 12413      5350495F 
 12413      42415345 
 12413      20284C50 
 12413      435F4150 
 12414              	.LASF277:
 12415 40e4 5F5F5551 		.ascii	"__UQQ_IBIT__ 0\000"
 12415      515F4942 
 12415      49545F5F 
 12415      203000
 12416              	.LASF1176:
 12417 40f3 5F475044 		.ascii	"_GPDMA 1\000"
 12417      4D412031 
 12417      00
 12418              	.LASF1148:
 12419 40fc 434C4B50 		.ascii	"CLKPWR_PCONP_PCSSP0 ((uint32_t)(1<<21))\000"
 12419      57525F50 
 12419      434F4E50 
 12419      5F504353 
 12419      53503020 
 12420              	.LASF1222:
 12421 4124 52533438 		.ascii	"RS485DLY\000"
 12421      35444C59 
 12421      00
 12422              	.LASF1078:
 12423 412d 434C4B50 		.ascii	"CLKPWR_PLL1STAT_PSEL(n) ((uint32_t)((n>>5)&0x03))\000"
 12423      57525F50 
 12423      4C4C3153 
 12423      5441545F 
 12423      5053454C 
 12424              	.LASF100:
 12425 415f 5F5F5549 		.ascii	"__UINT_LEAST8_MAX__ 0xff\000"
ARM GAS  C:\Users\STUDENT\AppData\Local\Temp\ccMxouBa.s 			page 283


 12425      4E545F4C 
 12425      45415354 
 12425      385F4D41 
 12425      585F5F20 
 12426              	.LASF538:
 12427 4178 5343425F 		.ascii	"SCB_ICSR_PENDSVSET_Pos 28\000"
 12427      49435352 
 12427      5F50454E 
 12427      44535653 
 12427      45545F50 
 12428              	.LASF317:
 12429 4192 5F5F4743 		.ascii	"__GCC_ATOMIC_LONG_LOCK_FREE 2\000"
 12429      435F4154 
 12429      4F4D4943 
 12429      5F4C4F4E 
 12429      475F4C4F 
 12430              	.LASF807:
 12431 41b0 4C50435F 		.ascii	"LPC_RAM_BASE (0x10000000UL)\000"
 12431      52414D5F 
 12431      42415345 
 12431      20283078 
 12431      31303030 
 12432              	.LASF568:
 12433 41cc 5343425F 		.ascii	"SCB_AIRCR_SYSRESETREQ_Pos 2\000"
 12433      41495243 
 12433      525F5359 
 12433      53524553 
 12433      45545245 
 12434              	.LASF526:
 12435 41e8 5F5F4F20 		.ascii	"__O volatile\000"
 12435      766F6C61 
 12435      74696C65 
 12435      00
 12436              	.LASF1120:
 12437 41f5 434C4B50 		.ascii	"CLKPWR_PCLKSEL_TIMER3 ((uint32_t)(46))\000"
 12437      57525F50 
 12437      434C4B53 
 12437      454C5F54 
 12437      494D4552 
 12438              	.LASF362:
 12439 421c 5F5F434D 		.ascii	"__CM3_CMSIS_VERSION_SUB (0x00)\000"
 12439      335F434D 
 12439      5349535F 
 12439      56455253 
 12439      494F4E5F 
 12440              	.LASF322:
 12441 423b 5F5F5052 		.ascii	"__PRAGMA_REDEFINE_EXTNAME 1\000"
 12441      41474D41 
 12441      5F524544 
 12441      4546494E 
 12441      455F4558 
 12442              	.LASF781:
 12443 4257 436F7265 		.ascii	"CoreDebug_DEMCR_VC_STATERR_Msk (1UL << CoreDebug_DE"
 12443      44656275 
 12443      675F4445 
 12443      4D43525F 
 12443      56435F53 
ARM GAS  C:\Users\STUDENT\AppData\Local\Temp\ccMxouBa.s 			page 284


 12444 428a 4D43525F 		.ascii	"MCR_VC_STATERR_Pos)\000"
 12444      56435F53 
 12444      54415445 
 12444      52525F50 
 12444      6F732900 
 12445              	.LASF834:
 12446 429e 4C50435F 		.ascii	"LPC_SSP0_BASE (LPC_APB1_BASE + 0x08000)\000"
 12446      53535030 
 12446      5F424153 
 12446      4520284C 
 12446      50435F41 
 12447              	.LASF439:
 12448 42c6 5F494E54 		.ascii	"_INT16_T_DECLARED \000"
 12448      31365F54 
 12448      5F444543 
 12448      4C415245 
 12448      442000
 12449              	.LASF1099:
 12450 42d9 434C4B50 		.ascii	"CLKPWR_PCON_DPDFLAG ((uint32_t)(1<<11))\000"
 12450      57525F50 
 12450      434F4E5F 
 12450      44504446 
 12450      4C414720 
 12451              	.LASF928:
 12452 4301 55415254 		.ascii	"UART_DLM_MASKBIT ((uint8_t)0xFF)\000"
 12452      5F444C4D 
 12452      5F4D4153 
 12452      4B424954 
 12452      20282875 
 12453              	.LASF823:
 12454 4322 4C50435F 		.ascii	"LPC_RTC_BASE (LPC_APB0_BASE + 0x24000)\000"
 12454      5254435F 
 12454      42415345 
 12454      20284C50 
 12454      435F4150 
 12455              	.LASF909:
 12456 4349 4C50435F 		.ascii	"LPC_USB ((LPC_USB_TypeDef *) LPC_USB_BASE )\000"
 12456      55534220 
 12456      28284C50 
 12456      435F5553 
 12456      425F5479 
 12457              	.LASF453:
 12458 4375 5F5F696E 		.ascii	"__int_least64_t_defined 1\000"
 12458      745F6C65 
 12458      61737436 
 12458      345F745F 
 12458      64656669 
 12459              	.LASF1135:
 12460 438f 434C4B50 		.ascii	"CLKPWR_PCONP_PCPWM1 ((uint32_t)(1<<6))\000"
 12460      57525F50 
 12460      434F4E50 
 12460      5F504350 
 12460      574D3120 
 12461              	.LASF706:
 12462 43b6 4D50555F 		.ascii	"MPU_CTRL_HFNMIENA_Pos 1\000"
 12462      4354524C 
 12462      5F48464E 
ARM GAS  C:\Users\STUDENT\AppData\Local\Temp\ccMxouBa.s 			page 285


 12462      4D49454E 
 12462      415F506F 
 12463              	.LASF475:
 12464 43ce 55494E54 		.ascii	"UINT32_MAX (__UINT32_MAX__)\000"
 12464      33325F4D 
 12464      41582028 
 12464      5F5F5549 
 12464      4E543332 
 12465              	.LASF178:
 12466 43ea 5F5F4445 		.ascii	"__DEC64_SUBNORMAL_MIN__ 0.000000000000001E-383DD\000"
 12466      4336345F 
 12466      5355424E 
 12466      4F524D41 
 12466      4C5F4D49 
 12467              	.LASF195:
 12468 441b 5F5F5553 		.ascii	"__USFRACT_EPSILON__ 0x1P-8UHR\000"
 12468      46524143 
 12468      545F4550 
 12468      53494C4F 
 12468      4E5F5F20 
 12469              	.LASF385:
 12470 4439 5F5F4154 		.ascii	"__ATFILE_VISIBLE 1\000"
 12470      46494C45 
 12470      5F564953 
 12470      49424C45 
 12470      203100
 12471              	.LASF917:
 12472 444c 5F424954 		.ascii	"_BITMASK\000"
 12472      4D41534B 
 12472      00
 12473              	.LASF904:
 12474 4455 4C50435F 		.ascii	"LPC_GPDMACH3 ((LPC_GPDMACH_TypeDef *) LPC_GPDMACH3_"
 12474      4750444D 
 12474      41434833 
 12474      2028284C 
 12474      50435F47 
 12475 4488 42415345 		.ascii	"BASE )\000"
 12475      202900
 12476              	.LASF191:
 12477 448f 5F5F5553 		.ascii	"__USFRACT_FBIT__ 8\000"
 12477      46524143 
 12477      545F4642 
 12477      49545F5F 
 12477      203800
 12478              	.LASF259:
 12479 44a2 5F5F4C4C 		.ascii	"__LLACCUM_MAX__ 0X7FFFFFFFFFFFFFFFP-31LLK\000"
 12479      41434355 
 12479      4D5F4D41 
 12479      585F5F20 
 12479      30583746 
 12480              	.LASF731:
 12481 44cc 4D50555F 		.ascii	"MPU_RASR_SRD_Msk (0xFFUL << MPU_RASR_SRD_Pos)\000"
 12481      52415352 
 12481      5F535244 
 12481      5F4D736B 
 12481      20283078 
 12482              	.LASF1000:
ARM GAS  C:\Users\STUDENT\AppData\Local\Temp\ccMxouBa.s 			page 286


 12483 44fa 55415254 		.ascii	"UART_ACR_AUTO_RESTART ((uint32_t)(1<<2))\000"
 12483      5F414352 
 12483      5F415554 
 12483      4F5F5245 
 12483      53544152 
 12484              	.LASF1115:
 12485 4523 434C4B50 		.ascii	"CLKPWR_PCLKSEL_QEI ((uint32_t)(32))\000"
 12485      57525F50 
 12485      434C4B53 
 12485      454C5F51 
 12485      45492028 
 12486              	.LASF452:
 12487 4547 5F5F696E 		.ascii	"__int_least32_t_defined 1\000"
 12487      745F6C65 
 12487      61737433 
 12487      325F745F 
 12487      64656669 
 12488              	.LASF303:
 12489 4561 5F5F5553 		.ascii	"__USER_LABEL_PREFIX__ \000"
 12489      45525F4C 
 12489      4142454C 
 12489      5F505245 
 12489      4649585F 
 12490              	.LASF91:
 12491 4578 5F5F5549 		.ascii	"__UINT64_MAX__ 0xffffffffffffffffULL\000"
 12491      4E543634 
 12491      5F4D4158 
 12491      5F5F2030 
 12491      78666666 
 12492              	.LASF1024:
 12493 459d 55415254 		.ascii	"UART_FIFOLVL_TXFIFOLVL(n) ((uint32_t)((n>>8)&0x0F))"
 12493      5F464946 
 12493      4F4C564C 
 12493      5F545846 
 12493      49464F4C 
 12494 45d0 00       		.ascii	"\000"
 12495              	.LASF682:
 12496 45d1 49544D5F 		.ascii	"ITM_IMCR_INTEGRATION_Pos 0\000"
 12496      494D4352 
 12496      5F494E54 
 12496      45475241 
 12496      54494F4E 
 12497              	.LASF727:
 12498 45ec 4D50555F 		.ascii	"MPU_RASR_C_Msk (1UL << MPU_RASR_C_Pos)\000"
 12498      52415352 
 12498      5F435F4D 
 12498      736B2028 
 12498      31554C20 
 12499              	.LASF90:
 12500 4613 5F5F5549 		.ascii	"__UINT32_MAX__ 0xffffffffUL\000"
 12500      4E543332 
 12500      5F4D4158 
 12500      5F5F2030 
 12500      78666666 
 12501              	.LASF515:
 12502 462f 494E5436 		.ascii	"INT64_C(x) __INT64_C(x)\000"
 12502      345F4328 
ARM GAS  C:\Users\STUDENT\AppData\Local\Temp\ccMxouBa.s 			page 287


 12502      7829205F 
 12502      5F494E54 
 12502      36345F43 
 12503              	.LASF383:
 12504 4647 5F415446 		.ascii	"_ATFILE_SOURCE\000"
 12504      494C455F 
 12504      534F5552 
 12504      434500
 12505              	.LASF461:
 12506 4656 494E5438 		.ascii	"INT8_MIN (-__INT8_MAX__ - 1)\000"
 12506      5F4D494E 
 12506      20282D5F 
 12506      5F494E54 
 12506      385F4D41 
 12507              	.LASF828:
 12508 4673 4C50435F 		.ascii	"LPC_CANAF_RAM_BASE (LPC_APB0_BASE + 0x38000)\000"
 12508      43414E41 
 12508      465F5241 
 12508      4D5F4241 
 12508      53452028 
 12509              	.LASF895:
 12510 46a0 4C50435F 		.ascii	"LPC_CAN2 ((LPC_CAN_TypeDef *) LPC_CAN2_BASE )\000"
 12510      43414E32 
 12510      2028284C 
 12510      50435F43 
 12510      414E5F54 
 12511              	.LASF92:
 12512 46ce 5F5F494E 		.ascii	"__INT_LEAST8_MAX__ 0x7f\000"
 12512      545F4C45 
 12512      41535438 
 12512      5F4D4158 
 12512      5F5F2030 
 12513              	.LASF320:
 12514 46e6 5F5F4743 		.ascii	"__GCC_ATOMIC_POINTER_LOCK_FREE 2\000"
 12514      435F4154 
 12514      4F4D4943 
 12514      5F504F49 
 12514      4E544552 
 12515              	.LASF1333:
 12516 4707 64697669 		.ascii	"dividerAddOptimal\000"
 12516      64657241 
 12516      64644F70 
 12516      74696D61 
 12516      6C00
 12517              	.LASF331:
 12518 4719 5F5F4152 		.ascii	"__ARM_FEATURE_CLZ 1\000"
 12518      4D5F4645 
 12518      41545552 
 12518      455F434C 
 12518      5A203100 
 12519              	.LASF1102:
 12520 472d 434C4B50 		.ascii	"CLKPWR_PCLKSEL_TIMER0 ((uint32_t)(2))\000"
 12520      57525F50 
 12520      434C4B53 
 12520      454C5F54 
 12520      494D4552 
 12521              	.LASF8:
ARM GAS  C:\Users\STUDENT\AppData\Local\Temp\ccMxouBa.s 			page 288


 12522 4753 5F5F4154 		.ascii	"__ATOMIC_ACQUIRE 2\000"
 12522      4F4D4943 
 12522      5F414351 
 12522      55495245 
 12522      203200
 12523              	.LASF1122:
 12524 4766 434C4B50 		.ascii	"CLKPWR_PCLKSEL_UART3 ((uint32_t)(50))\000"
 12524      57525F50 
 12524      434C4B53 
 12524      454C5F55 
 12524      41525433 
 12525              	.LASF1184:
 12526 478c 5F555342 		.ascii	"_USB_DMA 1\000"
 12526      5F444D41 
 12526      203100
 12527              	.LASF573:
 12528 4797 5343425F 		.ascii	"SCB_AIRCR_VECTRESET_Msk (1UL << SCB_AIRCR_VECTRESET"
 12528      41495243 
 12528      525F5645 
 12528      43545245 
 12528      5345545F 
 12529 47ca 5F506F73 		.ascii	"_Pos)\000"
 12529      2900
 12530              	.LASF817:
 12531 47d0 4C50435F 		.ascii	"LPC_TIM1_BASE (LPC_APB0_BASE + 0x08000)\000"
 12531      54494D31 
 12531      5F424153 
 12531      4520284C 
 12531      50435F41 
 12532              	.LASF668:
 12533 47f8 49544D5F 		.ascii	"ITM_TCR_SWOENA_Pos 4\000"
 12533      5443525F 
 12533      53574F45 
 12533      4E415F50 
 12533      6F732034 
 12534              	.LASF421:
 12535 480d 5F494E54 		.ascii	"_INTPTR_EQ_INT \000"
 12535      5054525F 
 12535      45515F49 
 12535      4E542000 
 12536              	.LASF333:
 12537 481d 5F5F4152 		.ascii	"__ARM_SIZEOF_WCHAR_T 4\000"
 12537      4D5F5349 
 12537      5A454F46 
 12537      5F574348 
 12537      41525F54 
 12538              	.LASF469:
 12539 4834 55494E54 		.ascii	"UINT16_MAX (__UINT16_MAX__)\000"
 12539      31365F4D 
 12539      41582028 
 12539      5F5F5549 
 12539      4E543136 
 12540              	.LASF64:
 12541 4850 5F5F6861 		.ascii	"__has_include(STR) __has_include__(STR)\000"
 12541      735F696E 
 12541      636C7564 
 12541      65285354 
ARM GAS  C:\Users\STUDENT\AppData\Local\Temp\ccMxouBa.s 			page 289


 12541      5229205F 
 12542              	.LASF521:
 12543 4878 5F5F5353 		.ascii	"__SSAT(ARG1,ARG2) ({ uint32_t __RES, __ARG1 = (ARG1"
 12543      41542841 
 12543      5247312C 
 12543      41524732 
 12543      2920287B 
 12544 48ab 293B205F 		.ascii	"); __ASM (\"ssat %0, %1, %2\" : \"=r\" (__RES) : \""
 12544      5F41534D 
 12544      20282273 
 12544      73617420 
 12544      25302C20 
 12545 48d9 49222028 		.ascii	"I\" (ARG2), \"r\" (__ARG1) ); __RES; })\000"
 12545      41524732 
 12545      292C2022 
 12545      72222028 
 12545      5F5F4152 
 12546              	.LASF1164:
 12547 48fe 5F554152 		.ascii	"_UART2 1\000"
 12547      54322031 
 12547      00
 12548              	.LASF1307:
 12549 4907 44697243 		.ascii	"DirCtrlPol_Level\000"
 12549      74726C50 
 12549      6F6C5F4C 
 12549      6576656C 
 12549      00
 12550              	.LASF104:
 12551 4918 5F5F5549 		.ascii	"__UINT_LEAST32_MAX__ 0xffffffffUL\000"
 12551      4E545F4C 
 12551      45415354 
 12551      33325F4D 
 12551      41585F5F 
 12552              	.LASF146:
 12553 493a 5F5F4442 		.ascii	"__DBL_EPSILON__ ((double)2.2204460492503131e-16L)\000"
 12553      4C5F4550 
 12553      53494C4F 
 12553      4E5F5F20 
 12553      2828646F 
 12554              	.LASF634:
 12555 496c 5343425F 		.ascii	"SCB_DFSR_VCATCH_Pos 3\000"
 12555      44465352 
 12555      5F564341 
 12555      5443485F 
 12555      506F7320 
 12556              	.LASF11:
 12557 4982 5F5F4154 		.ascii	"__ATOMIC_CONSUME 1\000"
 12557      4F4D4943 
 12557      5F434F4E 
 12557      53554D45 
 12557      203100
 12558              	.LASF1308:
 12559 4995 4D617463 		.ascii	"MatchAddrValue\000"
 12559      68416464 
 12559      7256616C 
 12559      756500
 12560              	.LASF135:
ARM GAS  C:\Users\STUDENT\AppData\Local\Temp\ccMxouBa.s 			page 290


 12561 49a4 5F5F464C 		.ascii	"__FLT_HAS_INFINITY__ 1\000"
 12561      545F4841 
 12561      535F494E 
 12561      46494E49 
 12561      54595F5F 
 12562              	.LASF1368:
 12563 49bb 55415254 		.ascii	"UART_FullModemConfigMode\000"
 12563      5F46756C 
 12563      6C4D6F64 
 12563      656D436F 
 12563      6E666967 
 12564              	.LASF239:
 12565 49d4 5F5F4143 		.ascii	"__ACCUM_MAX__ 0X7FFFFFFFP-15K\000"
 12565      43554D5F 
 12565      4D41585F 
 12565      5F203058 
 12565      37464646 
 12566              	.LASF549:
 12567 49f2 5343425F 		.ascii	"SCB_ICSR_ISRPENDING_Msk (1UL << SCB_ICSR_ISRPENDING"
 12567      49435352 
 12567      5F495352 
 12567      50454E44 
 12567      494E475F 
 12568 4a25 5F506F73 		.ascii	"_Pos)\000"
 12568      2900
 12569              	.LASF84:
 12570 4a2b 5F5F494E 		.ascii	"__INT8_MAX__ 0x7f\000"
 12570      54385F4D 
 12570      41585F5F 
 12570      20307837 
 12570      6600
 12571              	.LASF1152:
 12572 4a3d 434C4B50 		.ascii	"CLKPWR_PCONP_PCUART3 ((uint32_t)(1<<25))\000"
 12572      57525F50 
 12572      434F4E50 
 12572      5F504355 
 12572      41525433 
 12573              	.LASF941:
 12574 4a66 55415254 		.ascii	"UART_IIR_INTID_RDA ((uint32_t)(2<<1))\000"
 12574      5F494952 
 12574      5F494E54 
 12574      49445F52 
 12574      44412028 
 12575              	.LASF321:
 12576 4a8c 5F5F4743 		.ascii	"__GCC_HAVE_DWARF2_CFI_ASM 1\000"
 12576      435F4841 
 12576      56455F44 
 12576      57415246 
 12576      325F4346 
 12577              	.LASF395:
 12578 4aa8 5F5F5F69 		.ascii	"___int8_t_defined 1\000"
 12578      6E74385F 
 12578      745F6465 
 12578      66696E65 
 12578      64203100 
 12579              	.LASF188:
 12580 4abc 5F5F5346 		.ascii	"__SFRACT_MIN__ (-0.5HR-0.5HR)\000"
ARM GAS  C:\Users\STUDENT\AppData\Local\Temp\ccMxouBa.s 			page 291


 12580      52414354 
 12580      5F4D494E 
 12580      5F5F2028 
 12580      2D302E35 
 12581              	.LASF1199:
 12582 4ada 6C6F6E67 		.ascii	"long unsigned int\000"
 12582      20756E73 
 12582      69676E65 
 12582      6420696E 
 12582      7400
 12583              	.LASF289:
 12584 4aec 5F5F5341 		.ascii	"__SA_IBIT__ 16\000"
 12584      5F494249 
 12584      545F5F20 
 12584      313600
 12585              	.LASF138:
 12586 4afb 5F5F4442 		.ascii	"__DBL_DIG__ 15\000"
 12586      4C5F4449 
 12586      475F5F20 
 12586      313500
 12587              	.LASF408:
 12588 4b0a 7369676E 		.ascii	"signed\000"
 12588      656400
 12589              	.LASF119:
 12590 4b11 5F5F4743 		.ascii	"__GCC_IEC_559_COMPLEX 0\000"
 12590      435F4945 
 12590      435F3535 
 12590      395F434F 
 12590      4D504C45 
 12591              	.LASF2:
 12592 4b29 5F5F474E 		.ascii	"__GNUC__ 5\000"
 12592      55435F5F 
 12592      203500
 12593              	.LASF832:
 12594 4b34 4C50435F 		.ascii	"LPC_CAN2_BASE (LPC_APB0_BASE + 0x48000)\000"
 12594      43414E32 
 12594      5F424153 
 12594      4520284C 
 12594      50435F41 
 12595              	.LASF962:
 12596 4b5c 55415254 		.ascii	"UART_LCR_WLEN7 ((uint8_t)(2<<0))\000"
 12596      5F4C4352 
 12596      5F574C45 
 12596      4E372028 
 12596      2875696E 
 12597              	.LASF43:
 12598 4b7d 5F5F5549 		.ascii	"__UINT16_TYPE__ short unsigned int\000"
 12598      4E543136 
 12598      5F545950 
 12598      455F5F20 
 12598      73686F72 
 12599              	.LASF1266:
 12600 4ba0 55415254 		.ascii	"UART_AB_MODE_Type\000"
 12600      5F41425F 
 12600      4D4F4445 
 12600      5F547970 
 12600      6500
ARM GAS  C:\Users\STUDENT\AppData\Local\Temp\ccMxouBa.s 			page 292


 12601              	.LASF343:
 12602 4bb2 5F5F534F 		.ascii	"__SOFTFP__ 1\000"
 12602      46544650 
 12602      5F5F2031 
 12602      00
 12603              	.LASF1065:
 12604 4bbf 434C4B50 		.ascii	"CLKPWR_PLL0STAT_MSEL(n) ((uint32_t)(n&0x7FFF))\000"
 12604      57525F50 
 12604      4C4C3053 
 12604      5441545F 
 12604      4D53454C 
 12605              	.LASF444:
 12606 4bee 5F5F696E 		.ascii	"__int32_t_defined 1\000"
 12606      7433325F 
 12606      745F6465 
 12606      66696E65 
 12606      64203100 
 12607              	.LASF689:
 12608 4c02 49544D5F 		.ascii	"ITM_LSR_Present_Msk (1UL << ITM_LSR_Present_Pos)\000"
 12608      4C53525F 
 12608      50726573 
 12608      656E745F 
 12608      4D736B20 
 12609              	.LASF167:
 12610 4c33 5F5F4445 		.ascii	"__DEC32_MAX_EXP__ 97\000"
 12610      4333325F 
 12610      4D41585F 
 12610      4558505F 
 12610      5F203937 
 12611              	.LASF658:
 12612 4c48 53797354 		.ascii	"SysTick_CALIB_TENMS_Pos 0\000"
 12612      69636B5F 
 12612      43414C49 
 12612      425F5445 
 12612      4E4D535F 
 12613              	.LASF547:
 12614 4c62 5343425F 		.ascii	"SCB_ICSR_ISRPREEMPT_Msk (1UL << SCB_ICSR_ISRPREEMPT"
 12614      49435352 
 12614      5F495352 
 12614      50524545 
 12614      4D50545F 
 12615 4c95 5F506F73 		.ascii	"_Pos)\000"
 12615      2900
 12616              	.LASF819:
 12617 4c9b 4C50435F 		.ascii	"LPC_UART1_BASE (LPC_APB0_BASE + 0x10000)\000"
 12617      55415254 
 12617      315F4241 
 12617      53452028 
 12617      4C50435F 
 12618              	.LASF419:
 12619 4cc4 696E7420 		.ascii	"int +2\000"
 12619      2B3200
 12620              	.LASF1302:
 12621 4ccb 4E6F726D 		.ascii	"NormalMultiDropMode_State\000"
 12621      616C4D75 
 12621      6C746944 
 12621      726F704D 
ARM GAS  C:\Users\STUDENT\AppData\Local\Temp\ccMxouBa.s 			page 293


 12621      6F64655F 
 12622              	.LASF509:
 12623 4ce5 494E5438 		.ascii	"INT8_C(x) __INT8_C(x)\000"
 12623      5F432878 
 12623      29205F5F 
 12623      494E5438 
 12623      5F432878 
 12624              	.LASF709:
 12625 4cfb 4D50555F 		.ascii	"MPU_CTRL_ENABLE_Msk (1UL << MPU_CTRL_ENABLE_Pos)\000"
 12625      4354524C 
 12625      5F454E41 
 12625      424C455F 
 12625      4D736B20 
 12626              	.LASF1088:
 12627 4d2c 434C4B50 		.ascii	"CLKPWR_PCLKSEL_SET(p,n) _SBF(p,n)\000"
 12627      57525F50 
 12627      434C4B53 
 12627      454C5F53 
 12627      45542870 
 12628              	.LASF58:
 12629 4d4e 5F5F5549 		.ascii	"__UINT_FAST8_TYPE__ unsigned int\000"
 12629      4E545F46 
 12629      41535438 
 12629      5F545950 
 12629      455F5F20 
 12630              	.LASF1019:
 12631 4d6f 55415254 		.ascii	"UART1_RS485CTRL_OINV_1 ((uint32_t)(1<<5))\000"
 12631      315F5253 
 12631      34383543 
 12631      54524C5F 
 12631      4F494E56 
 12632              	.LASF257:
 12633 4d99 5F5F4C4C 		.ascii	"__LLACCUM_IBIT__ 32\000"
 12633      41434355 
 12633      4D5F4942 
 12633      49545F5F 
 12633      20333200 
 12634              	.LASF613:
 12635 4dad 5343425F 		.ascii	"SCB_SHCSR_SVCALLACT_Msk (1UL << SCB_SHCSR_SVCALLACT"
 12635      53484353 
 12635      525F5356 
 12635      43414C4C 
 12635      4143545F 
 12636 4de0 5F506F73 		.ascii	"_Pos)\000"
 12636      2900
 12637              	.LASF200:
 12638 4de6 5F5F4652 		.ascii	"__FRACT_EPSILON__ 0x1P-15R\000"
 12638      4143545F 
 12638      45505349 
 12638      4C4F4E5F 
 12638      5F203078 
 12639              	.LASF922:
 12640 4e01 45585445 		.ascii	"EXTERN extern\000"
 12640      524E2065 
 12640      78746572 
 12640      6E00
 12641              	.LASF364:
ARM GAS  C:\Users\STUDENT\AppData\Local\Temp\ccMxouBa.s 			page 294


 12642 4e0f 5F5F434F 		.ascii	"__CORTEX_M (0x03)\000"
 12642      52544558 
 12642      5F4D2028 
 12642      30783033 
 12642      2900
 12643              	.LASF86:
 12644 4e21 5F5F494E 		.ascii	"__INT32_MAX__ 0x7fffffffL\000"
 12644      5433325F 
 12644      4D41585F 
 12644      5F203078 
 12644      37666666 
 12645              	.LASF352:
 12646 4e3b 5F5F4758 		.ascii	"__GXX_TYPEINFO_EQUALITY_INLINE 0\000"
 12646      585F5459 
 12646      5045494E 
 12646      464F5F45 
 12646      5155414C 
 12647              	.LASF347:
 12648 4e5c 5F5F4152 		.ascii	"__ARM_PCS 1\000"
 12648      4D5F5043 
 12648      53203100 
 12649              	.LASF580:
 12650 4e68 5343425F 		.ascii	"SCB_CCR_STKALIGN_Pos 9\000"
 12650      4343525F 
 12650      53544B41 
 12650      4C49474E 
 12650      5F506F73 
 12651              	.LASF357:
 12652 4e7f 5F5F4D50 		.ascii	"__MPU_PRESENT 1\000"
 12652      555F5052 
 12652      4553454E 
 12652      54203100 
 12653              	.LASF994:
 12654 4e8f 55415254 		.ascii	"UART1_MSR_RI ((uint8_t)(1<<6))\000"
 12654      315F4D53 
 12654      525F5249 
 12654      20282875 
 12654      696E7438 
 12655              	.LASF37:
 12656 4eae 5F5F5349 		.ascii	"__SIG_ATOMIC_TYPE__ int\000"
 12656      475F4154 
 12656      4F4D4943 
 12656      5F545950 
 12656      455F5F20 
 12657              	.LASF337:
 12658 4ec6 5F5F4150 		.ascii	"__APCS_32__ 1\000"
 12658      43535F33 
 12658      325F5F20 
 12658      3100
 12659              	.LASF1177:
 12660 4ed4 5F444143 		.ascii	"_DAC 1\000"
 12660      203100
 12661              	.LASF435:
 12662 4edb 5F535953 		.ascii	"_SYS__STDINT_H \000"
 12662      5F5F5354 
 12662      44494E54 
 12662      5F482000 
ARM GAS  C:\Users\STUDENT\AppData\Local\Temp\ccMxouBa.s 			page 295


 12663              	.LASF378:
 12664 4eeb 5F444546 		.ascii	"_DEFAULT_SOURCE 1\000"
 12664      41554C54 
 12664      5F534F55 
 12664      52434520 
 12664      3100
 12665              	.LASF715:
 12666 4efd 4D50555F 		.ascii	"MPU_RBAR_VALID_Msk (1UL << MPU_RBAR_VALID_Pos)\000"
 12666      52424152 
 12666      5F56414C 
 12666      49445F4D 
 12666      736B2028 
 12667              	.LASF183:
 12668 4f2c 5F5F4445 		.ascii	"__DEC128_MAX__ 9.999999999999999999999999999999999E"
 12668      43313238 
 12668      5F4D4158 
 12668      5F5F2039 
 12668      2E393939 
 12669 4f5f 36313434 		.ascii	"6144DL\000"
 12669      444C00
 12670              	.LASF117:
 12671 4f66 5F5F5549 		.ascii	"__UINTPTR_MAX__ 0xffffffffU\000"
 12671      4E545054 
 12671      525F4D41 
 12671      585F5F20 
 12671      30786666 
 12672              	.LASF561:
 12673 4f82 5343425F 		.ascii	"SCB_AIRCR_VECTKEY_Msk (0xFFFFUL << SCB_AIRCR_VECTKE"
 12673      41495243 
 12673      525F5645 
 12673      43544B45 
 12673      595F4D73 
 12674 4fb5 595F506F 		.ascii	"Y_Pos)\000"
 12674      732900
 12675              	.LASF745:
 12676 4fbc 436F7265 		.ascii	"CoreDebug_DHCSR_S_SLEEP_Msk (1UL << CoreDebug_DHCSR"
 12676      44656275 
 12676      675F4448 
 12676      4353525F 
 12676      535F534C 
 12677 4fef 5F535F53 		.ascii	"_S_SLEEP_Pos)\000"
 12677      4C454550 
 12677      5F506F73 
 12677      2900
 12678              	.LASF603:
 12679 4ffd 5343425F 		.ascii	"SCB_SHCSR_MEMFAULTPENDED_Msk (1UL << SCB_SHCSR_MEMF"
 12679      53484353 
 12679      525F4D45 
 12679      4D464155 
 12679      4C545045 
 12680 5030 41554C54 		.ascii	"AULTPENDED_Pos)\000"
 12680      50454E44 
 12680      45445F50 
 12680      6F732900 
 12681              	.LASF53:
 12682 5040 5F5F5549 		.ascii	"__UINT_LEAST64_TYPE__ long long unsigned int\000"
 12682      4E545F4C 
ARM GAS  C:\Users\STUDENT\AppData\Local\Temp\ccMxouBa.s 			page 296


 12682      45415354 
 12682      36345F54 
 12682      5950455F 
 12683              	.LASF844:
 12684 506d 4C50435F 		.ascii	"LPC_QEI_BASE (LPC_APB1_BASE + 0x3C000)\000"
 12684      5145495F 
 12684      42415345 
 12684      20284C50 
 12684      435F4150 
 12685              	.LASF610:
 12686 5094 5343425F 		.ascii	"SCB_SHCSR_MONITORACT_Pos 8\000"
 12686      53484353 
 12686      525F4D4F 
 12686      4E49544F 
 12686      52414354 
 12687              	.LASF160:
 12688 50af 5F5F4C44 		.ascii	"__LDBL_EPSILON__ 2.2204460492503131e-16L\000"
 12688      424C5F45 
 12688      5053494C 
 12688      4F4E5F5F 
 12688      20322E32 
 12689              	.LASF692:
 12690 50d8 496E7454 		.ascii	"IntType_ACTLR_DISFOLD_Pos 2\000"
 12690      7970655F 
 12690      4143544C 
 12690      525F4449 
 12690      53464F4C 
 12691              	.LASF777:
 12692 50f4 436F7265 		.ascii	"CoreDebug_DEMCR_VC_INTERR_Msk (1UL << CoreDebug_DEM"
 12692      44656275 
 12692      675F4445 
 12692      4D43525F 
 12692      56435F49 
 12693 5127 43525F56 		.ascii	"CR_VC_INTERR_Pos)\000"
 12693      435F494E 
 12693      54455252 
 12693      5F506F73 
 12693      2900
 12694              	.LASF560:
 12695 5139 5343425F 		.ascii	"SCB_AIRCR_VECTKEY_Pos 16\000"
 12695      41495243 
 12695      525F5645 
 12695      43544B45 
 12695      595F506F 
 12696              	.LASF312:
 12697 5152 5F5F4743 		.ascii	"__GCC_ATOMIC_CHAR16_T_LOCK_FREE 2\000"
 12697      435F4154 
 12697      4F4D4943 
 12697      5F434841 
 12697      5231365F 
 12698              	.LASF1322:
 12699 5174 75617274 		.ascii	"uart_set_divisors\000"
 12699      5F736574 
 12699      5F646976 
 12699      69736F72 
 12699      7300
 12700              	.LASF1056:
ARM GAS  C:\Users\STUDENT\AppData\Local\Temp\ccMxouBa.s 			page 297


 12701 5186 434C4B50 		.ascii	"CLKPWR_CLKOUTCFG_CLKOUT_EN ((uint32_t)(1<<8))\000"
 12701      57525F43 
 12701      4C4B4F55 
 12701      54434647 
 12701      5F434C4B 
 12702              	.LASF355:
 12703 51b4 5F5F4C50 		.ascii	"__LPC17XX_UART_H \000"
 12703      43313758 
 12703      585F5541 
 12703      52545F48 
 12703      2000
 12704              	.LASF141:
 12705 51c6 5F5F4442 		.ascii	"__DBL_MAX_EXP__ 1024\000"
 12705      4C5F4D41 
 12705      585F4558 
 12705      505F5F20 
 12705      31303234 
 12706              	.LASF1313:
 12707 51db 666E4142 		.ascii	"fnABCbs_Type\000"
 12707      4362735F 
 12707      54797065 
 12707      00
 12708              	.LASF1289:
 12709 51e8 55415254 		.ascii	"UART1_RS485_DIRCTRL_RTS\000"
 12709      315F5253 
 12709      3438355F 
 12709      44495243 
 12709      54524C5F 
 12710              	.LASF415:
 12711 5200 756E7369 		.ascii	"unsigned +0\000"
 12711      676E6564 
 12711      202B3000 
 12712              	.LASF801:
 12713 520c 436F7265 		.ascii	"CoreDebug ((CoreDebug_Type *) CoreDebug_BASE)\000"
 12713      44656275 
 12713      67202828 
 12713      436F7265 
 12713      44656275 
 12714              	.LASF889:
 12715 523a 4C50435F 		.ascii	"LPC_ADC ((LPC_ADC_TypeDef *) LPC_ADC_BASE )\000"
 12715      41444320 
 12715      28284C50 
 12715      435F4144 
 12715      435F5479 
 12716              	.LASF123:
 12717 5266 5F5F464C 		.ascii	"__FLT_MANT_DIG__ 24\000"
 12717      545F4D41 
 12717      4E545F44 
 12717      49475F5F 
 12717      20323400 
 12718              	.LASF800:
 12719 527a 49544D20 		.ascii	"ITM ((ITM_Type *) ITM_BASE)\000"
 12719      28284954 
 12719      4D5F5479 
 12719      7065202A 
 12719      29204954 
 12720              	.LASF1231:
ARM GAS  C:\Users\STUDENT\AppData\Local\Temp\ccMxouBa.s 			page 298


 12721 5296 4552524F 		.ascii	"ERROR\000"
 12721      5200
 12722              	.LASF56:
 12723 529c 5F5F494E 		.ascii	"__INT_FAST32_TYPE__ int\000"
 12723      545F4641 
 12723      53543332 
 12723      5F545950 
 12723      455F5F20 
 12724              	.LASF733:
 12725 52b4 4D50555F 		.ascii	"MPU_RASR_SIZE_Msk (0x1FUL << MPU_RASR_SIZE_Pos)\000"
 12725      52415352 
 12725      5F53495A 
 12725      455F4D73 
 12725      6B202830 
 12726              	.LASF499:
 12727 52e4 55494E54 		.ascii	"UINTMAX_MAX (__UINTMAX_MAX__)\000"
 12727      4D41585F 
 12727      4D415820 
 12727      285F5F55 
 12727      494E544D 
 12728              	.LASF747:
 12729 5302 436F7265 		.ascii	"CoreDebug_DHCSR_S_HALT_Msk (1UL << CoreDebug_DHCSR_"
 12729      44656275 
 12729      675F4448 
 12729      4353525F 
 12729      535F4841 
 12730 5335 535F4841 		.ascii	"S_HALT_Pos)\000"
 12730      4C545F50 
 12730      6F732900 
 12731              	.LASF1008:
 12732 5341 55415254 		.ascii	"UART_ICR_BITMASK ((uint32_t)(0x3F))\000"
 12732      5F494352 
 12732      5F424954 
 12732      4D41534B 
 12732      20282875 
 12733              	.LASF804:
 12734 5365 49544D5F 		.ascii	"ITM_RXBUFFER_EMPTY 0x5AA55AA5\000"
 12734      52584255 
 12734      46464552 
 12734      5F454D50 
 12734      54592030 
 12735              	.LASF1086:
 12736 5383 434C4B50 		.ascii	"CLKPWR_PCLKSEL0_BITMASK ((uint32_t)(0xFFF3F3FF))\000"
 12736      57525F50 
 12736      434C4B53 
 12736      454C305F 
 12736      4249544D 
 12737              	.LASF244:
 12738 53b4 5F5F5541 		.ascii	"__UACCUM_MAX__ 0XFFFFFFFFP-16UK\000"
 12738      4343554D 
 12738      5F4D4158 
 12738      5F5F2030 
 12738      58464646 
 12739              	.LASF437:
 12740 53d4 5F55494E 		.ascii	"_UINT8_T_DECLARED \000"
 12740      54385F54 
 12740      5F444543 
ARM GAS  C:\Users\STUDENT\AppData\Local\Temp\ccMxouBa.s 			page 299


 12740      4C415245 
 12740      442000
 12741              	.LASF1246:
 12742 53e7 55415254 		.ascii	"UART_PARITY_ODD\000"
 12742      5F504152 
 12742      4954595F 
 12742      4F444400 
 12743              	.LASF1101:
 12744 53f7 434C4B50 		.ascii	"CLKPWR_PCLKSEL_WDT ((uint32_t)(0))\000"
 12744      57525F50 
 12744      434C4B53 
 12744      454C5F57 
 12744      44542028 
 12745              	.LASF524:
 12746 541a 5F5F434F 		.ascii	"__CORE_CM3_H_DEPENDANT \000"
 12746      52455F43 
 12746      4D335F48 
 12746      5F444550 
 12746      454E4441 
 12747              	.LASF429:
 12748 5432 5F5F4641 		.ascii	"__FAST32 \000"
 12748      53543332 
 12748      2000
 12749              	.LASF948:
 12750 543c 55415254 		.ascii	"UART_IIR_ABTO_INT ((uint32_t)(1<<9))\000"
 12750      5F494952 
 12750      5F414254 
 12750      4F5F494E 
 12750      54202828 
 12751              	.LASF1393:
 12752 5461 55415254 		.ascii	"UART_Receive\000"
 12752      5F526563 
 12752      65697665 
 12752      00
 12753              	.LASF798:
 12754 546e 53797354 		.ascii	"SysTick ((SysTick_Type *) SysTick_BASE)\000"
 12754      69636B20 
 12754      28285379 
 12754      73546963 
 12754      6B5F5479 
 12755              	.LASF1396:
 12756 5496 62526563 		.ascii	"bRecv\000"
 12756      7600
 12757              	.LASF161:
 12758 549c 5F5F4C44 		.ascii	"__LDBL_DENORM_MIN__ 4.9406564584124654e-324L\000"
 12758      424C5F44 
 12758      454E4F52 
 12758      4D5F4D49 
 12758      4E5F5F20 
 12759              	.LASF222:
 12760 54c9 5F5F554C 		.ascii	"__ULLFRACT_IBIT__ 0\000"
 12760      4C465241 
 12760      43545F49 
 12760      4249545F 
 12760      5F203000 
 12761              	.LASF87:
 12762 54dd 5F5F494E 		.ascii	"__INT64_MAX__ 0x7fffffffffffffffLL\000"
ARM GAS  C:\Users\STUDENT\AppData\Local\Temp\ccMxouBa.s 			page 300


 12762      5436345F 
 12762      4D41585F 
 12762      5F203078 
 12762      37666666 
 12763              	.LASF327:
 12764 5500 5F5F4152 		.ascii	"__ARM_FEATURE_SAT 1\000"
 12764      4D5F4645 
 12764      41545552 
 12764      455F5341 
 12764      54203100 
 12765              	.LASF1387:
 12766 5514 62546F53 		.ascii	"bToSend\000"
 12766      656E6400 
 12767              	.LASF705:
 12768 551c 4D50555F 		.ascii	"MPU_CTRL_PRIVDEFENA_Msk (1UL << MPU_CTRL_PRIVDEFENA"
 12768      4354524C 
 12768      5F505249 
 12768      56444546 
 12768      454E415F 
 12769 554f 5F506F73 		.ascii	"_Pos)\000"
 12769      2900
 12770              	.LASF75:
 12771 5555 5F5F5749 		.ascii	"__WINT_MIN__ 0U\000"
 12771      4E545F4D 
 12771      494E5F5F 
 12771      20305500 
 12772              	.LASF779:
 12773 5565 436F7265 		.ascii	"CoreDebug_DEMCR_VC_BUSERR_Msk (1UL << CoreDebug_DEM"
 12773      44656275 
 12773      675F4445 
 12773      4D43525F 
 12773      56435F42 
 12774 5598 43525F56 		.ascii	"CR_VC_BUSERR_Pos)\000"
 12774      435F4255 
 12774      53455252 
 12774      5F506F73 
 12774      2900
 12775              	.LASF1383:
 12776 55aa 55415254 		.ascii	"UART_Send\000"
 12776      5F53656E 
 12776      6400
 12777              	.LASF757:
 12778 55b4 436F7265 		.ascii	"CoreDebug_DHCSR_C_HALT_Msk (1UL << CoreDebug_DHCSR_"
 12778      44656275 
 12778      675F4448 
 12778      4353525F 
 12778      435F4841 
 12779 55e7 435F4841 		.ascii	"C_HALT_Pos)\000"
 12779      4C545F50 
 12779      6F732900 
 12780              	.LASF976:
 12781 55f3 55415254 		.ascii	"UART1_MCR_AUTO_RTS_EN ((uint8_t)(1<<6))\000"
 12781      315F4D43 
 12781      525F4155 
 12781      544F5F52 
 12781      54535F45 
 12782              	.LASF1125:
ARM GAS  C:\Users\STUDENT\AppData\Local\Temp\ccMxouBa.s 			page 301


 12783 561b 434C4B50 		.ascii	"CLKPWR_PCLKSEL_RIT ((uint32_t)(58))\000"
 12783      57525F50 
 12783      434C4B53 
 12783      454C5F52 
 12783      49542028 
 12784              	.LASF769:
 12785 563f 436F7265 		.ascii	"CoreDebug_DEMCR_MON_STEP_Msk (1UL << CoreDebug_DEMC"
 12785      44656275 
 12785      675F4445 
 12785      4D43525F 
 12785      4D4F4E5F 
 12786 5672 525F4D4F 		.ascii	"R_MON_STEP_Pos)\000"
 12786      4E5F5354 
 12786      45505F50 
 12786      6F732900 
 12787              	.LASF1091:
 12788 5682 434C4B50 		.ascii	"CLKPWR_PCON_PM0 ((uint32_t)(1<<0))\000"
 12788      57525F50 
 12788      434F4E5F 
 12788      504D3020 
 12788      28287569 
 12789              	.LASF1116:
 12790 56a5 434C4B50 		.ascii	"CLKPWR_PCLKSEL_PCB ((uint32_t)(36))\000"
 12790      57525F50 
 12790      434C4B53 
 12790      454C5F50 
 12790      43422028 
 12791              	.LASF448:
 12792 56c9 5F494E54 		.ascii	"_INTPTR_T_DECLARED \000"
 12792      5054525F 
 12792      545F4445 
 12792      434C4152 
 12792      45442000 
 12793              	.LASF1079:
 12794 56dd 434C4B50 		.ascii	"CLKPWR_PLL1STAT_PLLE ((uint32_t)(1<<8))\000"
 12794      57525F50 
 12794      4C4C3153 
 12794      5441545F 
 12794      504C4C45 
 12795              	.LASF856:
 12796 5705 4C50435F 		.ascii	"LPC_USB_BASE (LPC_AHB_BASE + 0x0C000)\000"
 12796      5553425F 
 12796      42415345 
 12796      20284C50 
 12796      435F4148 
 12797              	.LASF1355:
 12798 572b 50756C73 		.ascii	"PulseDiv\000"
 12798      65446976 
 12798      00
 12799              	.LASF1402:
 12800 5734 55415254 		.ascii	"UART1_StdIntHandler\000"
 12800      315F5374 
 12800      64496E74 
 12800      48616E64 
 12800      6C657200 
 12801              	.LASF914:
 12802 5748 5F424954 		.ascii	"_BIT(n) (1<<n)\000"
ARM GAS  C:\Users\STUDENT\AppData\Local\Temp\ccMxouBa.s 			page 302


 12802      286E2920 
 12802      28313C3C 
 12802      6E2900
 12803              	.LASF651:
 12804 5757 53797354 		.ascii	"SysTick_LOAD_RELOAD_Msk (0xFFFFFFUL << SysTick_LOAD"
 12804      69636B5F 
 12804      4C4F4144 
 12804      5F52454C 
 12804      4F41445F 
 12805 578a 5F52454C 		.ascii	"_RELOAD_Pos)\000"
 12805      4F41445F 
 12805      506F7329 
 12805      00
 12806              	.LASF1233:
 12807 5797 53746174 		.ascii	"Status\000"
 12807      757300
 12808              	.LASF1394:
 12809 579e 72786275 		.ascii	"rxbuf\000"
 12809      6600
 12810              	.LASF241:
 12811 57a4 5F5F5541 		.ascii	"__UACCUM_FBIT__ 16\000"
 12811      4343554D 
 12811      5F464249 
 12811      545F5F20 
 12811      313600
 12812              	.LASF1162:
 12813 57b7 5F554152 		.ascii	"_UART0 1\000"
 12813      54302031 
 12813      00
 12814              	.LASF205:
 12815 57c0 5F5F5546 		.ascii	"__UFRACT_EPSILON__ 0x1P-16UR\000"
 12815      52414354 
 12815      5F455053 
 12815      494C4F4E 
 12815      5F5F2030 
 12816              	.LASF73:
 12817 57dd 5F5F5743 		.ascii	"__WCHAR_MIN__ 0U\000"
 12817      4841525F 
 12817      4D494E5F 
 12817      5F203055 
 12817      00
 12818              	.LASF949:
 12819 57ee 55415254 		.ascii	"UART_IIR_BITMASK ((uint32_t)(0x3CF))\000"
 12819      5F494952 
 12819      5F424954 
 12819      4D41534B 
 12819      20282875 
 12820              	.LASF896:
 12821 5813 4C50435F 		.ascii	"LPC_MCPWM ((LPC_MCPWM_TypeDef *) LPC_MCPWM_BASE )\000"
 12821      4D435057 
 12821      4D202828 
 12821      4C50435F 
 12821      4D435057 
 12822              	.LASF1399:
 12823 5845 70666E43 		.ascii	"pfnCbs\000"
 12823      627300
 12824              	.LASF175:
ARM GAS  C:\Users\STUDENT\AppData\Local\Temp\ccMxouBa.s 			page 303


 12825 584c 5F5F4445 		.ascii	"__DEC64_MIN__ 1E-383DD\000"
 12825      4336345F 
 12825      4D494E5F 
 12825      5F203145 
 12825      2D333833 
 12826              	.LASF370:
 12827 5863 5F4E4557 		.ascii	"_NEWLIB_VERSION_H__ 1\000"
 12827      4C49425F 
 12827      56455253 
 12827      494F4E5F 
 12827      485F5F20 
 12828              	.LASF1296:
 12829 5879 55415254 		.ascii	"UART_CFG_Type\000"
 12829      5F434647 
 12829      5F547970 
 12829      6500
 12830              	.LASF253:
 12831 5887 5F5F554C 		.ascii	"__ULACCUM_MIN__ 0.0ULK\000"
 12831      41434355 
 12831      4D5F4D49 
 12831      4E5F5F20 
 12831      302E3055 
 12832              	.LASF1198:
 12833 589e 5F5F7569 		.ascii	"__uint32_t\000"
 12833      6E743332 
 12833      5F7400
 12834              	.LASF158:
 12835 58a9 5F5F4C44 		.ascii	"__LDBL_MAX__ 1.7976931348623157e+308L\000"
 12835      424C5F4D 
 12835      41585F5F 
 12835      20312E37 
 12835      39373639 
 12836              	.LASF336:
 12837 58cf 5F5F4152 		.ascii	"__ARM_ARCH 7\000"
 12837      4D5F4152 
 12837      43482037 
 12837      00
 12838              	.LASF1133:
 12839 58dc 434C4B50 		.ascii	"CLKPWR_PCONP_PCUART0 ((uint32_t)(1<<3))\000"
 12839      57525F50 
 12839      434F4E50 
 12839      5F504355 
 12839      41525430 
 12840              	.LASF873:
 12841 5904 4C50435F 		.ascii	"LPC_RIT ((LPC_RIT_TypeDef *) LPC_RIT_BASE )\000"
 12841      52495420 
 12841      28284C50 
 12841      435F5249 
 12841      545F5479 
 12842              	.LASF122:
 12843 5930 5F5F464C 		.ascii	"__FLT_RADIX__ 2\000"
 12843      545F5241 
 12843      4449585F 
 12843      5F203200 
 12844              	.LASF1200:
 12845 5940 6C6F6E67 		.ascii	"long long int\000"
 12845      206C6F6E 
ARM GAS  C:\Users\STUDENT\AppData\Local\Temp\ccMxouBa.s 			page 304


 12845      6720696E 
 12845      7400
 12846              	.LASF1015:
 12847 594e 55415254 		.ascii	"UART1_RS485CTRL_RX_DIS ((uint32_t)(1<<1))\000"
 12847      315F5253 
 12847      34383543 
 12847      54524C5F 
 12847      52585F44 
 12848              	.LASF1337:
 12849 5978 70556172 		.ascii	"pUart\000"
 12849      7400
 12850              	.LASF833:
 12851 597e 4C50435F 		.ascii	"LPC_I2C1_BASE (LPC_APB0_BASE + 0x5C000)\000"
 12851      49324331 
 12851      5F424153 
 12851      4520284C 
 12851      50435F41 
 12852              	.LASF942:
 12853 59a6 55415254 		.ascii	"UART_IIR_INTID_CTI ((uint32_t)(6<<1))\000"
 12853      5F494952 
 12853      5F494E54 
 12853      49445F43 
 12853      54492028 
 12854              	.LASF164:
 12855 59cc 5F5F4C44 		.ascii	"__LDBL_HAS_QUIET_NAN__ 1\000"
 12855      424C5F48 
 12855      41535F51 
 12855      55494554 
 12855      5F4E414E 
 12856              	.LASF1060:
 12857 59e5 434C4B50 		.ascii	"CLKPWR_PLL0CON_CONNECT ((uint32_t)(0x02))\000"
 12857      57525F50 
 12857      4C4C3043 
 12857      4F4E5F43 
 12857      4F4E4E45 
 12858              	.LASF1059:
 12859 5a0f 434C4B50 		.ascii	"CLKPWR_PLL0CON_ENABLE ((uint32_t)(0x01))\000"
 12859      57525F50 
 12859      4C4C3043 
 12859      4F4E5F45 
 12859      4E41424C 
 12860              	.LASF615:
 12861 5a38 5343425F 		.ascii	"SCB_SHCSR_USGFAULTACT_Msk (1UL << SCB_SHCSR_USGFAUL"
 12861      53484353 
 12861      525F5553 
 12861      47464155 
 12861      4C544143 
 12862 5a6b 54414354 		.ascii	"TACT_Pos)\000"
 12862      5F506F73 
 12862      2900
 12863              	.LASF1325:
 12864 5a75 6572726F 		.ascii	"errorStatus\000"
 12864      72537461 
 12864      74757300 
 12865              	.LASF1392:
 12866 5a81 55415254 		.ascii	"UART_SendString\000"
 12866      5F53656E 
ARM GAS  C:\Users\STUDENT\AppData\Local\Temp\ccMxouBa.s 			page 305


 12866      64537472 
 12866      696E6700 
 12867              	.LASF496:
 12868 5a91 55494E54 		.ascii	"UINT_FAST64_MAX (__UINT_FAST64_MAX__)\000"
 12868      5F464153 
 12868      5436345F 
 12868      4D415820 
 12868      285F5F55 
 12869              	.LASF919:
 12870 5ab7 4E554C4C 		.ascii	"NULL ((void*) 0)\000"
 12870      20282876 
 12870      6F69642A 
 12870      29203029 
 12870      00
 12871              	.LASF857:
 12872 5ac8 4C50435F 		.ascii	"LPC_GPIO0_BASE (LPC_GPIO_BASE + 0x00000)\000"
 12872      4750494F 
 12872      305F4241 
 12872      53452028 
 12872      4C50435F 
 12873              	.LASF287:
 12874 5af1 5F5F4841 		.ascii	"__HA_IBIT__ 8\000"
 12874      5F494249 
 12874      545F5F20 
 12874      3800
 12875              	.LASF542:
 12876 5aff 5343425F 		.ascii	"SCB_ICSR_PENDSTSET_Pos 26\000"
 12876      49435352 
 12876      5F50454E 
 12876      44535453 
 12876      45545F50 
 12877              	.LASF318:
 12878 5b19 5F5F4743 		.ascii	"__GCC_ATOMIC_LLONG_LOCK_FREE 1\000"
 12878      435F4154 
 12878      4F4D4943 
 12878      5F4C4C4F 
 12878      4E475F4C 
 12879              	.LASF858:
 12880 5b38 4C50435F 		.ascii	"LPC_GPIO1_BASE (LPC_GPIO_BASE + 0x00020)\000"
 12880      4750494F 
 12880      315F4241 
 12880      53452028 
 12880      4C50435F 
 12881              	.LASF1371:
 12882 5b61 55415254 		.ascii	"UART_RS485Config\000"
 12882      5F525334 
 12882      3835436F 
 12882      6E666967 
 12882      00
 12883              	.LASF1339:
 12884 5b72 696E7473 		.ascii	"intsrc\000"
 12884      726300
 12885              	.LASF697:
 12886 5b79 496E7454 		.ascii	"IntType_ACTLR_DISMCYCINT_Msk (1UL << IntType_ACTLR_"
 12886      7970655F 
 12886      4143544C 
 12886      525F4449 
ARM GAS  C:\Users\STUDENT\AppData\Local\Temp\ccMxouBa.s 			page 306


 12886      534D4359 
 12887 5bac 4449534D 		.ascii	"DISMCYCINT_Pos)\000"
 12887      43594349 
 12887      4E545F50 
 12887      6F732900 
 12888              	.LASF1301:
 12889 5bbc 55415254 		.ascii	"UART_FIFO_CFG_Type\000"
 12889      5F464946 
 12889      4F5F4346 
 12889      475F5479 
 12889      706500
 12890              	.LASF684:
 12891 5bcf 49544D5F 		.ascii	"ITM_LSR_ByteAcc_Pos 2\000"
 12891      4C53525F 
 12891      42797465 
 12891      4163635F 
 12891      506F7320 
 12892              	.LASF901:
 12893 5be5 4C50435F 		.ascii	"LPC_GPDMACH0 ((LPC_GPDMACH_TypeDef *) LPC_GPDMACH0_"
 12893      4750444D 
 12893      41434830 
 12893      2028284C 
 12893      50435F47 
 12894 5c18 42415345 		.ascii	"BASE )\000"
 12894      202900
 12895              	.LASF98:
 12896 5c1f 5F5F494E 		.ascii	"__INT_LEAST64_MAX__ 0x7fffffffffffffffLL\000"
 12896      545F4C45 
 12896      41535436 
 12896      345F4D41 
 12896      585F5F20 
 12897              	.LASF1157:
 12898 5c48 434C4B50 		.ascii	"CLKPWR_PCONP_PCUSB ((uint32_t)(1<<31))\000"
 12898      57525F50 
 12898      434F4E50 
 12898      5F504355 
 12898      53422028 
 12899              	.LASF371:
 12900 5c6f 5F4E4557 		.ascii	"_NEWLIB_VERSION \"2.4.0\"\000"
 12900      4C49425F 
 12900      56455253 
 12900      494F4E20 
 12900      22322E34 
 12901              	.LASF1299:
 12902 5c87 4649464F 		.ascii	"FIFO_DMAMode\000"
 12902      5F444D41 
 12902      4D6F6465 
 12902      00
 12903              	.LASF1032:
 12904 5c94 50415241 		.ascii	"PARAM_UART_AUTOBAUD_MODE(ABmode) ((ABmode==UART_AUT"
 12904      4D5F5541 
 12904      52545F41 
 12904      55544F42 
 12904      4155445F 
 12905 5cc7 4F424155 		.ascii	"OBAUD_MODE0) || (ABmode==UART_AUTOBAUD_MODE1))\000"
 12905      445F4D4F 
 12905      44453029 
ARM GAS  C:\Users\STUDENT\AppData\Local\Temp\ccMxouBa.s 			page 307


 12905      207C7C20 
 12905      2841426D 
 12906              	.LASF41:
 12907 5cf6 5F5F494E 		.ascii	"__INT64_TYPE__ long long int\000"
 12907      5436345F 
 12907      54595045 
 12907      5F5F206C 
 12907      6F6E6720 
 12908              	.LASF206:
 12909 5d13 5F5F4C46 		.ascii	"__LFRACT_FBIT__ 31\000"
 12909      52414354 
 12909      5F464249 
 12909      545F5F20 
 12909      333100
 12910              	.LASF21:
 12911 5d26 5F5F4348 		.ascii	"__CHAR_BIT__ 8\000"
 12911      41525F42 
 12911      49545F5F 
 12911      203800
 12912              	.LASF1022:
 12913 5d35 55415254 		.ascii	"UART1_RS485DLY_BITMASK ((uint8_t)(0xFF))\000"
 12913      315F5253 
 12913      34383544 
 12913      4C595F42 
 12913      49544D41 
 12914              	.LASF1363:
 12915 5d5e 55415254 		.ascii	"UART_FIFOInitStruct\000"
 12915      5F464946 
 12915      4F496E69 
 12915      74537472 
 12915      75637400 
 12916              	.LASF633:
 12917 5d72 5343425F 		.ascii	"SCB_DFSR_EXTERNAL_Msk (1UL << SCB_DFSR_EXTERNAL_Pos"
 12917      44465352 
 12917      5F455854 
 12917      45524E41 
 12917      4C5F4D73 
 12918 5da5 2900     		.ascii	")\000"
 12919              	.LASF386:
 12920 5da7 5F5F4253 		.ascii	"__BSD_VISIBLE 1\000"
 12920      445F5649 
 12920      5349424C 
 12920      45203100 
 12921              	.LASF470:
 12922 5db7 494E545F 		.ascii	"INT_LEAST16_MIN (-__INT_LEAST16_MAX__ - 1)\000"
 12922      4C454153 
 12922      5431365F 
 12922      4D494E20 
 12922      282D5F5F 
 12923              	.LASF696:
 12924 5de2 496E7454 		.ascii	"IntType_ACTLR_DISMCYCINT_Pos 0\000"
 12924      7970655F 
 12924      4143544C 
 12924      525F4449 
 12924      534D4359 
 12925              	.LASF1314:
 12926 5e01 666E4572 		.ascii	"fnErrCbs_Type\000"
ARM GAS  C:\Users\STUDENT\AppData\Local\Temp\ccMxouBa.s 			page 308


 12926      72436273 
 12926      5F547970 
 12926      6500
 12927              	.LASF953:
 12928 5e0f 55415254 		.ascii	"UART_FCR_DMAMODE_SEL ((uint8_t)(1<<3))\000"
 12928      5F464352 
 12928      5F444D41 
 12928      4D4F4445 
 12928      5F53454C 
 12929              	.LASF1123:
 12930 5e36 434C4B50 		.ascii	"CLKPWR_PCLKSEL_I2C2 ((uint32_t)(52))\000"
 12930      57525F50 
 12930      434C4B53 
 12930      454C5F49 
 12930      32433220 
 12931              	.LASF550:
 12932 5e5b 5343425F 		.ascii	"SCB_ICSR_VECTPENDING_Pos 12\000"
 12932      49435352 
 12932      5F564543 
 12932      5450454E 
 12932      44494E47 
 12933              	.LASF791:
 12934 5e77 49544D5F 		.ascii	"ITM_BASE (0xE0000000UL)\000"
 12934      42415345 
 12934      20283078 
 12934      45303030 
 12934      30303030 
 12935              	.LASF204:
 12936 5e8f 5F5F5546 		.ascii	"__UFRACT_MAX__ 0XFFFFP-16UR\000"
 12936      52414354 
 12936      5F4D4158 
 12936      5F5F2030 
 12936      58464646 
 12937              	.LASF1267:
 12938 5eab 41424D6F 		.ascii	"ABMode\000"
 12938      646500
 12939              	.LASF402:
 12940 5eb2 5F5F5F69 		.ascii	"___int_least64_t_defined 1\000"
 12940      6E745F6C 
 12940      65617374 
 12940      36345F74 
 12940      5F646566 
 12941              	.LASF863:
 12942 5ecd 4C50435F 		.ascii	"LPC_GPIO0 ((LPC_GPIO_TypeDef *) LPC_GPIO0_BASE )\000"
 12942      4750494F 
 12942      30202828 
 12942      4C50435F 
 12942      4750494F 
 12943              	.LASF1310:
 12944 5efe 55415254 		.ascii	"UART1_RS485_CTRLCFG_Type\000"
 12944      315F5253 
 12944      3438355F 
 12944      4354524C 
 12944      4346475F 
 12945              	.LASF1405:
 12946 5f17 49544D5F 		.ascii	"ITM_RxBuffer\000"
 12946      52784275 
ARM GAS  C:\Users\STUDENT\AppData\Local\Temp\ccMxouBa.s 			page 309


 12946      66666572 
 12946      00
 12947              	.LASF553:
 12948 5f24 5343425F 		.ascii	"SCB_ICSR_RETTOBASE_Msk (1UL << SCB_ICSR_RETTOBASE_P"
 12948      49435352 
 12948      5F524554 
 12948      544F4241 
 12948      53455F4D 
 12949 5f57 6F732900 		.ascii	"os)\000"
 12950              	.LASF1379:
 12951 5f5b 55415254 		.ascii	"UART_RS485SendSlvAddr\000"
 12951      5F525334 
 12951      38355365 
 12951      6E64536C 
 12951      76416464 
 12952              	.LASF384:
 12953 5f71 5F415446 		.ascii	"_ATFILE_SOURCE 1\000"
 12953      494C455F 
 12953      534F5552 
 12953      43452031 
 12953      00
 12954              	.LASF405:
 12955 5f82 5F5F5354 		.ascii	"__STDINT_EXP(x) __ ##x ##__\000"
 12955      44494E54 
 12955      5F455850 
 12955      28782920 
 12955      5F5F2023 
 12956              	.LASF1132:
 12957 5f9e 434C4B50 		.ascii	"CLKPWR_PCONP_PCTIM1 ((uint32_t)(1<<2))\000"
 12957      57525F50 
 12957      434F4E50 
 12957      5F504354 
 12957      494D3120 
 12958              	.LASF394:
 12959 5fc5 5F5F4558 		.ascii	"__EXP(x) __ ##x ##__\000"
 12959      50287829 
 12959      205F5F20 
 12959      23237820 
 12959      23235F5F 
 12960              	.LASF768:
 12961 5fda 436F7265 		.ascii	"CoreDebug_DEMCR_MON_STEP_Pos 18\000"
 12961      44656275 
 12961      675F4445 
 12961      4D43525F 
 12961      4D4F4E5F 
 12962              	.LASF26:
 12963 5ffa 5F5F4259 		.ascii	"__BYTE_ORDER__ __ORDER_LITTLE_ENDIAN__\000"
 12963      54455F4F 
 12963      52444552 
 12963      5F5F205F 
 12963      5F4F5244 
 12964              	.LASF1050:
 12965 6021 434C4B50 		.ascii	"CLKPWR_CLKOUTCFG_CLKOUTSEL_CPU ((uint32_t)(0x00))\000"
 12965      57525F43 
 12965      4C4B4F55 
 12965      54434647 
 12965      5F434C4B 
ARM GAS  C:\Users\STUDENT\AppData\Local\Temp\ccMxouBa.s 			page 310


 12966              	.LASF627:
 12967 6053 5343425F 		.ascii	"SCB_HFSR_DEBUGEVT_Msk (1UL << SCB_HFSR_DEBUGEVT_Pos"
 12967      48465352 
 12967      5F444542 
 12967      55474556 
 12967      545F4D73 
 12968 6086 2900     		.ascii	")\000"
 12969              	.LASF743:
 12970 6088 436F7265 		.ascii	"CoreDebug_DHCSR_S_LOCKUP_Msk (1UL << CoreDebug_DHCS"
 12970      44656275 
 12970      675F4448 
 12970      4353525F 
 12970      535F4C4F 
 12971 60bb 525F535F 		.ascii	"R_S_LOCKUP_Pos)\000"
 12971      4C4F434B 
 12971      55505F50 
 12971      6F732900 
 12972              	.LASF713:
 12973 60cb 4D50555F 		.ascii	"MPU_RBAR_ADDR_Msk (0x7FFFFFFUL << MPU_RBAR_ADDR_Pos"
 12973      52424152 
 12973      5F414444 
 12973      525F4D73 
 12973      6B202830 
 12974 60fe 2900     		.ascii	")\000"
 12975              	.LASF749:
 12976 6100 436F7265 		.ascii	"CoreDebug_DHCSR_S_REGRDY_Msk (1UL << CoreDebug_DHCS"
 12976      44656275 
 12976      675F4448 
 12976      4353525F 
 12976      535F5245 
 12977 6133 525F535F 		.ascii	"R_S_REGRDY_Pos)\000"
 12977      52454752 
 12977      44595F50 
 12977      6F732900 
 12978              	.LASF1058:
 12979 6143 434C4B50 		.ascii	"CLKPWR_CLKOUTCFG_BITMASK ((uint32_t)(0x3FF))\000"
 12979      57525F43 
 12979      4C4B4F55 
 12979      54434647 
 12979      5F424954 
 12980              	.LASF1023:
 12981 6170 55415254 		.ascii	"UART_FIFOLVL_RXFIFOLVL(n) ((uint32_t)(n&0x0F))\000"
 12981      5F464946 
 12981      4F4C564C 
 12981      5F525846 
 12981      49464F4C 
 12982              	.LASF391:
 12983 619f 5F5F504F 		.ascii	"__POSIX_VISIBLE 200809\000"
 12983      5349585F 
 12983      56495349 
 12983      424C4520 
 12983      32303038 
 12984              	.LASF882:
 12985 61b6 4C50435F 		.ascii	"LPC_I2S ((LPC_I2S_TypeDef *) LPC_I2S_BASE )\000"
 12985      49325320 
 12985      28284C50 
 12985      435F4932 
ARM GAS  C:\Users\STUDENT\AppData\Local\Temp\ccMxouBa.s 			page 311


 12985      535F5479 
 12986              	.LASF1048:
 12987 61e2 434C4B50 		.ascii	"CLKPWR_CLKSRCSEL_CLKSRC_RTC ((uint32_t)(0x02))\000"
 12987      57525F43 
 12987      4C4B5352 
 12987      4353454C 
 12987      5F434C4B 
 12988              	.LASF9:
 12989 6211 5F5F4154 		.ascii	"__ATOMIC_RELEASE 3\000"
 12989      4F4D4943 
 12989      5F52454C 
 12989      45415345 
 12989      203300
 12990              	.LASF758:
 12991 6224 436F7265 		.ascii	"CoreDebug_DHCSR_C_DEBUGEN_Pos 0\000"
 12991      44656275 
 12991      675F4448 
 12991      4353525F 
 12991      435F4445 
 12992              	.LASF282:
 12993 6244 5F5F5544 		.ascii	"__UDQ_FBIT__ 64\000"
 12993      515F4642 
 12993      49545F5F 
 12993      20363400 
 12994              	.LASF366:
 12995 6254 5F5F494E 		.ascii	"__INLINE inline\000"
 12995      4C494E45 
 12995      20696E6C 
 12995      696E6500 
 12996              	.LASF1364:
 12997 6264 55415254 		.ascii	"UART_ABCmd\000"
 12997      5F414243 
 12997      6D6400
 12998              	.LASF1107:
 12999 626f 434C4B50 		.ascii	"CLKPWR_PCLKSEL_I2C0 ((uint32_t)(14))\000"
 12999      57525F50 
 12999      434C4B53 
 12999      454C5F49 
 12999      32433020 
 13000              	.LASF1020:
 13001 6294 55415254 		.ascii	"UART1_RS485CTRL_BITMASK ((uint32_t)(0x3F))\000"
 13001      315F5253 
 13001      34383543 
 13001      54524C5F 
 13001      4249544D 
 13002              	.LASF156:
 13003 62bf 5F5F4C44 		.ascii	"__LDBL_MAX_10_EXP__ 308\000"
 13003      424C5F4D 
 13003      41585F31 
 13003      305F4558 
 13003      505F5F20 
 13004              	.LASF1237:
 13005 62d7 55415254 		.ascii	"UART_DATABIT_5\000"
 13005      5F444154 
 13005      41424954 
 13005      5F3500
 13006              	.LASF1013:
ARM GAS  C:\Users\STUDENT\AppData\Local\Temp\ccMxouBa.s 			page 312


 13007 62e6 55415254 		.ascii	"UART_TER_BITMASK ((uint8_t)(0x80))\000"
 13007      5F544552 
 13007      5F424954 
 13007      4D41534B 
 13007      20282875 
 13008              	.LASF1238:
 13009 6309 55415254 		.ascii	"UART_DATABIT_6\000"
 13009      5F444154 
 13009      41424954 
 13009      5F3600
 13010              	.LASF1259:
 13011 6318 55415254 		.ascii	"UART1_INTCFG_MS\000"
 13011      315F494E 
 13011      54434647 
 13011      5F4D5300 
 13012              	.LASF1239:
 13013 6328 55415254 		.ascii	"UART_DATABIT_7\000"
 13013      5F444154 
 13013      41424954 
 13013      5F3700
 13014              	.LASF680:
 13015 6337 49544D5F 		.ascii	"ITM_IRR_ATREADYM_Pos 0\000"
 13015      4952525F 
 13015      41545245 
 13015      4144594D 
 13015      5F506F73 
 13016              	.LASF480:
 13017 634e 494E5436 		.ascii	"INT64_MAX (__INT64_MAX__)\000"
 13017      345F4D41 
 13017      5820285F 
 13017      5F494E54 
 13017      36345F4D 
 13018              	.LASF1018:
 13019 6368 55415254 		.ascii	"UART1_RS485CTRL_DCTRL_EN ((uint32_t)(1<<4))\000"
 13019      315F5253 
 13019      34383543 
 13019      54524C5F 
 13019      44435452 
 13020              	.LASF544:
 13021 6394 5343425F 		.ascii	"SCB_ICSR_PENDSTCLR_Pos 25\000"
 13021      49435352 
 13021      5F50454E 
 13021      44535443 
 13021      4C525F50 
 13022              	.LASF1202:
 13023 63ae 756E7369 		.ascii	"unsigned int\000"
 13023      676E6564 
 13023      20696E74 
 13023      00
 13024              	.LASF199:
 13025 63bb 5F5F4652 		.ascii	"__FRACT_MAX__ 0X7FFFP-15R\000"
 13025      4143545F 
 13025      4D41585F 
 13025      5F203058 
 13025      37464646 
 13026              	.LASF1038:
 13027 63d5 50415241 		.ascii	"PARAM_UART_RS485_DIRCTRL_PIN(x) ((x==UART1_RS485_DI"
ARM GAS  C:\Users\STUDENT\AppData\Local\Temp\ccMxouBa.s 			page 313


 13027      4D5F5541 
 13027      52545F52 
 13027      53343835 
 13027      5F444952 
 13028 6408 52435452 		.ascii	"RCTRL_RTS) || (x==UART1_RS485_DIRCTRL_DTR))\000"
 13028      4C5F5254 
 13028      5329207C 
 13028      7C202878 
 13028      3D3D5541 
 13029              	.LASF982:
 13030 6434 55415254 		.ascii	"UART_LSR_FE ((uint8_t)(1<<3))\000"
 13030      5F4C5352 
 13030      5F464520 
 13030      28287569 
 13030      6E74385F 
 13031              	.LASF125:
 13032 6452 5F5F464C 		.ascii	"__FLT_MIN_EXP__ (-125)\000"
 13032      545F4D49 
 13032      4E5F4558 
 13032      505F5F20 
 13032      282D3132 
 13033              	.LASF121:
 13034 6469 5F5F4445 		.ascii	"__DEC_EVAL_METHOD__ 2\000"
 13034      435F4556 
 13034      414C5F4D 
 13034      4554484F 
 13034      445F5F20 
 13035              	.LASF514:
 13036 647f 55494E54 		.ascii	"UINT32_C(x) __UINT32_C(x)\000"
 13036      33325F43 
 13036      28782920 
 13036      5F5F5549 
 13036      4E543332 
 13037              	.LASF531:
 13038 6499 5343425F 		.ascii	"SCB_CPUID_VARIANT_Msk (0xFUL << SCB_CPUID_VARIANT_P"
 13038      43505549 
 13038      445F5641 
 13038      5249414E 
 13038      545F4D73 
 13039 64cc 6F732900 		.ascii	"os)\000"
 13040              	.LASF1352:
 13041 64d0 4E657753 		.ascii	"NewState\000"
 13041      74617465 
 13041      00
 13042              	.LASF232:
 13043 64d9 5F5F5553 		.ascii	"__USACCUM_IBIT__ 8\000"
 13043      41434355 
 13043      4D5F4942 
 13043      49545F5F 
 13043      203800
 13044              	.LASF1385:
 13045 64ec 6275666C 		.ascii	"buflen\000"
 13045      656E00
 13046              	.LASF485:
 13047 64f3 494E545F 		.ascii	"INT_FAST8_MIN (-__INT_FAST8_MAX__ - 1)\000"
 13047      46415354 
 13047      385F4D49 
ARM GAS  C:\Users\STUDENT\AppData\Local\Temp\ccMxouBa.s 			page 314


 13047      4E20282D 
 13047      5F5F494E 
 13048              	.LASF821:
 13049 651a 4C50435F 		.ascii	"LPC_I2C0_BASE (LPC_APB0_BASE + 0x1C000)\000"
 13049      49324330 
 13049      5F424153 
 13049      4520284C 
 13049      50435F41 
 13050              	.LASF935:
 13051 6542 55415254 		.ascii	"UART_IER_ABEOINT_EN ((uint32_t)(1<<8))\000"
 13051      5F494552 
 13051      5F414245 
 13051      4F494E54 
 13051      5F454E20 
 13052              	.LASF1071:
 13053 6569 434C4B50 		.ascii	"CLKPWR_PLL1CON_ENABLE ((uint32_t)(0x01))\000"
 13053      57525F50 
 13053      4C4C3143 
 13053      4F4E5F45 
 13053      4E41424C 
 13054              	.LASF124:
 13055 6592 5F5F464C 		.ascii	"__FLT_DIG__ 6\000"
 13055      545F4449 
 13055      475F5F20 
 13055      3600
 13056              	.LASF34:
 13057 65a0 5F5F5549 		.ascii	"__UINTMAX_TYPE__ long long unsigned int\000"
 13057      4E544D41 
 13057      585F5459 
 13057      50455F5F 
 13057      206C6F6E 
 13058              	.LASF699:
 13059 65c8 4D50555F 		.ascii	"MPU_TYPE_IREGION_Msk (0xFFUL << MPU_TYPE_IREGION_Po"
 13059      54595045 
 13059      5F495245 
 13059      47494F4E 
 13059      5F4D736B 
 13060 65fb 732900   		.ascii	"s)\000"
 13061              	.LASF1241:
 13062 65fe 55415254 		.ascii	"UART_DATABIT_Type\000"
 13062      5F444154 
 13062      41424954 
 13062      5F547970 
 13062      6500
 13063              	.LASF489:
 13064 6610 494E545F 		.ascii	"INT_FAST16_MAX (__INT_FAST16_MAX__)\000"
 13064      46415354 
 13064      31365F4D 
 13064      41582028 
 13064      5F5F494E 
 13065              	.LASF808:
 13066 6634 4C50435F 		.ascii	"LPC_AHBRAM0_BASE (0x2007C000UL)\000"
 13066      41484252 
 13066      414D305F 
 13066      42415345 
 13066      20283078 
 13067              	.LASF1323:
ARM GAS  C:\Users\STUDENT\AppData\Local\Temp\ccMxouBa.s 			page 315


 13068 6654 55415254 		.ascii	"UARTx\000"
 13068      7800
 13069              	.LASF997:
 13070 665a 55415254 		.ascii	"UART_SCR_BIMASK ((uint8_t)(0xFF))\000"
 13070      5F534352 
 13070      5F42494D 
 13070      41534B20 
 13070      28287569 
 13071              	.LASF120:
 13072 667c 5F5F464C 		.ascii	"__FLT_EVAL_METHOD__ 0\000"
 13072      545F4556 
 13072      414C5F4D 
 13072      4554484F 
 13072      445F5F20 
 13073              	.LASF455:
 13074 6692 5F5F696E 		.ascii	"__int_fast16_t_defined 1\000"
 13074      745F6661 
 13074      73743136 
 13074      5F745F64 
 13074      6566696E 
 13075              	.LASF67:
 13076 66ab 5F5F5343 		.ascii	"__SCHAR_MAX__ 0x7f\000"
 13076      4841525F 
 13076      4D41585F 
 13076      5F203078 
 13076      376600
 13077              	.LASF1346:
 13078 66be 55415254 		.ascii	"UART_InitStruct\000"
 13078      5F496E69 
 13078      74537472 
 13078      75637400 
 13079              	.LASF802:
 13080 66ce 4D50555F 		.ascii	"MPU_BASE (SCS_BASE + 0x0D90UL)\000"
 13080      42415345 
 13080      20285343 
 13080      535F4241 
 13080      5345202B 
 13081              	.LASF424:
 13082 66ed 5F5F494E 		.ascii	"__INT16 \"h\"\000"
 13082      54313620 
 13082      22682200 
 13083              	.LASF1092:
 13084 66f9 434C4B50 		.ascii	"CLKPWR_PCON_PM1 ((uint32_t)(1<<1))\000"
 13084      57525F50 
 13084      434F4E5F 
 13084      504D3120 
 13084      28287569 
 13085              	.LASF379:
 13086 671c 5F504F53 		.ascii	"_POSIX_SOURCE\000"
 13086      49585F53 
 13086      4F555243 
 13086      4500
 13087              	.LASF995:
 13088 672a 55415254 		.ascii	"UART1_MSR_DCD ((uint8_t)(1<<7))\000"
 13088      315F4D53 
 13088      525F4443 
 13088      44202828 
ARM GAS  C:\Users\STUDENT\AppData\Local\Temp\ccMxouBa.s 			page 316


 13088      75696E74 
 13089              	.LASF1326:
 13090 674a 75436C6B 		.ascii	"uClk\000"
 13090      00
 13091              	.LASF276:
 13092 674f 5F5F5551 		.ascii	"__UQQ_FBIT__ 8\000"
 13092      515F4642 
 13092      49545F5F 
 13092      203800
 13093              	.LASF1306:
 13094 675e 44697243 		.ascii	"DirCtrlPin\000"
 13094      74726C50 
 13094      696E00
 13095              	.LASF851:
 13096 6769 4C50435F 		.ascii	"LPC_GPDMACH3_BASE (LPC_AHB_BASE + 0x04160)\000"
 13096      4750444D 
 13096      41434833 
 13096      5F424153 
 13096      4520284C 
 13097              	.LASF1386:
 13098 6794 666C6167 		.ascii	"flag\000"
 13098      00
 13099              	.LASF173:
 13100 6799 5F5F4445 		.ascii	"__DEC64_MIN_EXP__ (-382)\000"
 13100      4336345F 
 13100      4D494E5F 
 13100      4558505F 
 13100      5F20282D 
 13101              	.LASF118:
 13102 67b2 5F5F4743 		.ascii	"__GCC_IEC_559 0\000"
 13102      435F4945 
 13102      435F3535 
 13102      39203000 
 13103              	.LASF1183:
 13104 67c2 5F555342 		.ascii	"_USBDEV 1\000"
 13104      44455620 
 13104      3100
 13105              	.LASF416:
 13106 67cc 63686172 		.ascii	"char +0\000"
 13106      202B3000 
 13107              	.LASF1316:
 13108 67d4 70666E54 		.ascii	"pfnTxCbs\000"
 13108      78436273 
 13108      00
 13109              	.LASF325:
 13110 67dd 5F5F5349 		.ascii	"__SIZEOF_PTRDIFF_T__ 4\000"
 13110      5A454F46 
 13110      5F505452 
 13110      44494646 
 13110      5F545F5F 
 13111              	.LASF210:
 13112 67f4 5F5F4C46 		.ascii	"__LFRACT_EPSILON__ 0x1P-31LR\000"
 13112      52414354 
 13112      5F455053 
 13112      494C4F4E 
 13112      5F5F2030 
 13113              	.LASF0:
ARM GAS  C:\Users\STUDENT\AppData\Local\Temp\ccMxouBa.s 			page 317


 13114 6811 5F5F5354 		.ascii	"__STDC__ 1\000"
 13114      44435F5F 
 13114      203100
 13115              	.LASF1151:
 13116 681c 434C4B50 		.ascii	"CLKPWR_PCONP_PCUART2 ((uint32_t)(1<<24))\000"
 13116      57525F50 
 13116      434F4E50 
 13116      5F504355 
 13116      41525432 
 13117              	.LASF399:
 13118 6845 5F5F5F69 		.ascii	"___int_least8_t_defined 1\000"
 13118      6E745F6C 
 13118      65617374 
 13118      385F745F 
 13118      64656669 
 13119              	.LASF350:
 13120 685f 5F5F4152 		.ascii	"__ARM_FEATURE_IDIV 1\000"
 13120      4D5F4645 
 13120      41545552 
 13120      455F4944 
 13120      49562031 
 13121              	.LASF1236:
 13122 6874 5452414E 		.ascii	"TRANSFER_BLOCK_Type\000"
 13122      53464552 
 13122      5F424C4F 
 13122      434B5F54 
 13122      79706500 
 13123              	.LASF42:
 13124 6888 5F5F5549 		.ascii	"__UINT8_TYPE__ unsigned char\000"
 13124      4E54385F 
 13124      54595045 
 13124      5F5F2075 
 13124      6E736967 
 13125              	.LASF1090:
 13126 68a5 434C4B50 		.ascii	"CLKPWR_PCLKSEL_GET(p,n) ((uint32_t)((n>>p)&0x03))\000"
 13126      57525F50 
 13126      434C4B53 
 13126      454C5F47 
 13126      45542870 
 13127              	.LASF454:
 13128 68d7 5F5F696E 		.ascii	"__int_fast8_t_defined 1\000"
 13128      745F6661 
 13128      7374385F 
 13128      745F6465 
 13128      66696E65 
 13129              	.LASF1293:
 13130 68ef 50617269 		.ascii	"Parity\000"
 13130      747900
 13131              	.LASF865:
 13132 68f6 4C50435F 		.ascii	"LPC_GPIO2 ((LPC_GPIO_TypeDef *) LPC_GPIO2_BASE )\000"
 13132      4750494F 
 13132      32202828 
 13132      4C50435F 
 13132      4750494F 
 13133              	.LASF179:
 13134 6927 5F5F4445 		.ascii	"__DEC128_MANT_DIG__ 34\000"
 13134      43313238 
ARM GAS  C:\Users\STUDENT\AppData\Local\Temp\ccMxouBa.s 			page 318


 13134      5F4D414E 
 13134      545F4449 
 13134      475F5F20 
 13135              	.LASF459:
 13136 693e 494E5450 		.ascii	"INTPTR_MAX (__INTPTR_MAX__)\000"
 13136      54525F4D 
 13136      41582028 
 13136      5F5F494E 
 13136      54505452 
 13137              	.LASF940:
 13138 695a 55415254 		.ascii	"UART_IIR_INTID_RLS ((uint32_t)(3<<1))\000"
 13138      5F494952 
 13138      5F494E54 
 13138      49445F52 
 13138      4C532028 
 13139              	.LASF728:
 13140 6980 4D50555F 		.ascii	"MPU_RASR_B_Pos 16\000"
 13140      52415352 
 13140      5F425F50 
 13140      6F732031 
 13140      3600
 13141              	.LASF296:
 13142 6992 5F5F5553 		.ascii	"__USA_FBIT__ 16\000"
 13142      415F4642 
 13142      49545F5F 
 13142      20313600 
 13143              	.LASF628:
 13144 69a2 5343425F 		.ascii	"SCB_HFSR_FORCED_Pos 30\000"
 13144      48465352 
 13144      5F464F52 
 13144      4345445F 
 13144      506F7320 
 13145              	.LASF971:
 13146 69b9 55415254 		.ascii	"UART_LCR_DLAB_EN ((uint8_t)(1<<7))\000"
 13146      5F4C4352 
 13146      5F444C41 
 13146      425F454E 
 13146      20282875 
 13147              	.LASF1017:
 13148 69dc 55415254 		.ascii	"UART1_RS485CTRL_SEL_DTR ((uint32_t)(1<<3))\000"
 13148      315F5253 
 13148      34383543 
 13148      54524C5F 
 13148      53454C5F 
 13149              	.LASF1261:
 13150 6a07 55415254 		.ascii	"UART_INTCFG_ABEO\000"
 13150      5F494E54 
 13150      4346475F 
 13150      4142454F 
 13150      00
 13151              	.LASF1004:
 13152 6a18 55415254 		.ascii	"UART_ICR_IRDAEN ((uint32_t)(1<<0))\000"
 13152      5F494352 
 13152      5F495244 
 13152      41454E20 
 13152      28287569 
 13153              	.LASF1268:
ARM GAS  C:\Users\STUDENT\AppData\Local\Temp\ccMxouBa.s 			page 319


 13154 6a3b 4175746F 		.ascii	"AutoRestart\000"
 13154      52657374 
 13154      61727400 
 13155              	.LASF311:
 13156 6a47 5F5F4743 		.ascii	"__GCC_ATOMIC_CHAR_LOCK_FREE 2\000"
 13156      435F4154 
 13156      4F4D4943 
 13156      5F434841 
 13156      525F4C4F 
 13157              	.LASF1182:
 13158 6a65 5F493253 		.ascii	"_I2S 1\000"
 13158      203100
 13159              	.LASF1395:
 13160 6a6c 62546F52 		.ascii	"bToRecv\000"
 13160      65637600 
 13161              	.LASF507:
 13162 6a74 57494E54 		.ascii	"WINT_MAX (__WINT_MAX__)\000"
 13162      5F4D4158 
 13162      20285F5F 
 13162      57494E54 
 13162      5F4D4158 
 13163              	.LASF1172:
 13164 6a8c 5F493243 		.ascii	"_I2C1 1\000"
 13164      31203100 
 13165              	.LASF1046:
 13166 6a94 434C4B50 		.ascii	"CLKPWR_CLKSRCSEL_CLKSRC_IRC ((uint32_t)(0x00))\000"
 13166      57525F43 
 13166      4C4B5352 
 13166      4353454C 
 13166      5F434C4B 
 13167              	.LASF891:
 13168 6ac3 4C50435F 		.ascii	"LPC_CANAF_RAM ((LPC_CANAF_RAM_TypeDef *) LPC_CANAF_"
 13168      43414E41 
 13168      465F5241 
 13168      4D202828 
 13168      4C50435F 
 13169 6af6 52414D5F 		.ascii	"RAM_BASE)\000"
 13169      42415345 
 13169      2900
 13170              	.LASF586:
 13171 6b00 5343425F 		.ascii	"SCB_CCR_UNALIGN_TRP_Pos 3\000"
 13171      4343525F 
 13171      554E414C 
 13171      49474E5F 
 13171      5452505F 
 13172              	.LASF332:
 13173 6b1a 5F5F4152 		.ascii	"__ARM_SIZEOF_MINIMAL_ENUM 1\000"
 13173      4D5F5349 
 13173      5A454F46 
 13173      5F4D494E 
 13173      494D414C 
 13174              	.LASF996:
 13175 6b36 55415254 		.ascii	"UART1_MSR_BITMASK ((uint8_t)(0xFF))\000"
 13175      315F4D53 
 13175      525F4249 
 13175      544D4153 
 13175      4B202828 
ARM GAS  C:\Users\STUDENT\AppData\Local\Temp\ccMxouBa.s 			page 320


 13176              	.LASF599:
 13177 6b5a 5343425F 		.ascii	"SCB_SHCSR_SVCALLPENDED_Msk (1UL << SCB_SHCSR_SVCALL"
 13177      53484353 
 13177      525F5356 
 13177      43414C4C 
 13177      50454E44 
 13178 6b8d 50454E44 		.ascii	"PENDED_Pos)\000"
 13178      45445F50 
 13178      6F732900 
 13179              	.LASF854:
 13180 6b99 4C50435F 		.ascii	"LPC_GPDMACH6_BASE (LPC_AHB_BASE + 0x041C0)\000"
 13180      4750444D 
 13180      41434836 
 13180      5F424153 
 13180      4520284C 
 13181              	.LASF335:
 13182 6bc4 5F5F6172 		.ascii	"__arm__ 1\000"
 13182      6D5F5F20 
 13182      3100
 13183              	.LASF1114:
 13184 6bce 434C4B50 		.ascii	"CLKPWR_PCLKSEL_ACF ((uint32_t)(30))\000"
 13184      57525F50 
 13184      434C4B53 
 13184      454C5F41 
 13184      43462028 
 13185              	.LASF1147:
 13186 6bf2 434C4B50 		.ascii	"CLKPWR_PCONP_PCI2C1 ((uint32_t)(1<<19))\000"
 13186      57525F50 
 13186      434F4E50 
 13186      5F504349 
 13186      32433120 
 13187              	.LASF523:
 13188 6c1a 5F5F434F 		.ascii	"__CORE_CMFUNC_H__ \000"
 13188      52455F43 
 13188      4D46554E 
 13188      435F485F 
 13188      5F2000
 13189              	.LASF992:
 13190 6c2d 55415254 		.ascii	"UART1_MSR_CTS ((uint8_t)(1<<4))\000"
 13190      315F4D53 
 13190      525F4354 
 13190      53202828 
 13190      75696E74 
 13191              	.LASF638:
 13192 6c4d 5343425F 		.ascii	"SCB_DFSR_BKPT_Pos 1\000"
 13192      44465352 
 13192      5F424B50 
 13192      545F506F 
 13192      73203100 
 13193              	.LASF467:
 13194 6c61 494E5431 		.ascii	"INT16_MIN (-__INT16_MAX__ - 1)\000"
 13194      365F4D49 
 13194      4E20282D 
 13194      5F5F494E 
 13194      5431365F 
 13195              	.LASF803:
 13196 6c80 4D505520 		.ascii	"MPU ((MPU_Type*) MPU_BASE)\000"
ARM GAS  C:\Users\STUDENT\AppData\Local\Temp\ccMxouBa.s 			page 321


 13196      28284D50 
 13196      555F5479 
 13196      70652A29 
 13196      204D5055 
 13197              	.LASF1179:
 13198 6c9b 5F50574D 		.ascii	"_PWM 1\000"
 13198      203100
 13199              	.LASF794:
 13200 6ca2 4E564943 		.ascii	"NVIC_BASE (SCS_BASE + 0x0100UL)\000"
 13200      5F424153 
 13200      45202853 
 13200      43535F42 
 13200      41534520 
 13201              	.LASF987:
 13202 6cc2 55415254 		.ascii	"UART_LSR_BITMASK ((uint8_t)(0xFF))\000"
 13202      5F4C5352 
 13202      5F424954 
 13202      4D41534B 
 13202      20282875 
 13203              	.LASF826:
 13204 6ce5 4C50435F 		.ascii	"LPC_SSP1_BASE (LPC_APB0_BASE + 0x30000)\000"
 13204      53535031 
 13204      5F424153 
 13204      4520284C 
 13204      50435F41 
 13205              	.LASF165:
 13206 6d0d 5F5F4445 		.ascii	"__DEC32_MANT_DIG__ 7\000"
 13206      4333325F 
 13206      4D414E54 
 13206      5F444947 
 13206      5F5F2037 
 13207              	.LASF964:
 13208 6d22 55415254 		.ascii	"UART_LCR_STOPBIT_SEL ((uint8_t)(1<<2))\000"
 13208      5F4C4352 
 13208      5F53544F 
 13208      50424954 
 13208      5F53454C 
 13209              	.LASF494:
 13210 6d49 494E545F 		.ascii	"INT_FAST64_MIN (-__INT_FAST64_MAX__ - 1)\000"
 13210      46415354 
 13210      36345F4D 
 13210      494E2028 
 13210      2D5F5F49 
 13211              	.LASF368:
 13212 6d72 5F4D4143 		.ascii	"_MACHINE__DEFAULT_TYPES_H \000"
 13212      48494E45 
 13212      5F5F4445 
 13212      4641554C 
 13212      545F5459 
 13213              	.LASF22:
 13214 6d8d 5F5F4249 		.ascii	"__BIGGEST_ALIGNMENT__ 8\000"
 13214      47474553 
 13214      545F414C 
 13214      49474E4D 
 13214      454E545F 
 13215              	.LASF784:
 13216 6da5 436F7265 		.ascii	"CoreDebug_DEMCR_VC_NOCPERR_Pos 5\000"
ARM GAS  C:\Users\STUDENT\AppData\Local\Temp\ccMxouBa.s 			page 322


 13216      44656275 
 13216      675F4445 
 13216      4D43525F 
 13216      56435F4E 
 13217              	.LASF1290:
 13218 6dc6 55415254 		.ascii	"UART1_RS485_DIRCTRL_DTR\000"
 13218      315F5253 
 13218      3438355F 
 13218      44495243 
 13218      54524C5F 
 13219              	.LASF574:
 13220 6dde 5343425F 		.ascii	"SCB_SCR_SEVONPEND_Pos 4\000"
 13220      5343525F 
 13220      5345564F 
 13220      4E50454E 
 13220      445F506F 
 13221              	.LASF1190:
 13222 6df6 43484543 		.ascii	"CHECK_PARAM(expr) ((expr) ? (void)0 : check_failed("
 13222      4B5F5041 
 13222      52414D28 
 13222      65787072 
 13222      29202828 
 13223 6e29 2875696E 		.ascii	"(uint8_t *)__FILE__, __LINE__))\000"
 13223      74385F74 
 13223      202A295F 
 13223      5F46494C 
 13223      455F5F2C 
 13224              	.LASF765:
 13225 6e49 436F7265 		.ascii	"CoreDebug_DEMCR_TRCENA_Msk (1UL << CoreDebug_DEMCR_"
 13225      44656275 
 13225      675F4445 
 13225      4D43525F 
 13225      54524345 
 13226 6e7c 54524345 		.ascii	"TRCENA_Pos)\000"
 13226      4E415F50 
 13226      6F732900 
 13227              	.LASF434:
 13228 6e88 5F5F4C45 		.ascii	"__LEAST64 \"ll\"\000"
 13228      41535436 
 13228      3420226C 
 13228      6C2200
 13229              	.LASF845:
 13230 6e97 4C50435F 		.ascii	"LPC_SC_BASE (LPC_APB1_BASE + 0x7C000)\000"
 13230      53435F42 
 13230      41534520 
 13230      284C5043 
 13230      5F415042 
 13231              	.LASF652:
 13232 6ebd 53797354 		.ascii	"SysTick_VAL_CURRENT_Pos 0\000"
 13232      69636B5F 
 13232      56414C5F 
 13232      43555252 
 13232      454E545F 
 13233              	.LASF1076:
 13234 6ed7 434C4B50 		.ascii	"CLKPWR_PLL1CFG_BITMASK ((uint32_t)(0x7F))\000"
 13234      57525F50 
 13234      4C4C3143 
ARM GAS  C:\Users\STUDENT\AppData\Local\Temp\ccMxouBa.s 			page 323


 13234      46475F42 
 13234      49544D41 
 13235              	.LASF716:
 13236 6f01 4D50555F 		.ascii	"MPU_RBAR_REGION_Pos 0\000"
 13236      52424152 
 13236      5F524547 
 13236      494F4E5F 
 13236      506F7320 
 13237              	.LASF811:
 13238 6f17 4C50435F 		.ascii	"LPC_APB0_BASE (0x40000000UL)\000"
 13238      41504230 
 13238      5F424153 
 13238      45202830 
 13238      78343030 
 13239              	.LASF546:
 13240 6f34 5343425F 		.ascii	"SCB_ICSR_ISRPREEMPT_Pos 23\000"
 13240      49435352 
 13240      5F495352 
 13240      50524545 
 13240      4D50545F 
 13241              	.LASF1069:
 13242 6f4f 434C4B50 		.ascii	"CLKPWR_PLL0STAT_PLOCK ((uint32_t)(1<<26))\000"
 13242      57525F50 
 13242      4C4C3053 
 13242      5441545F 
 13242      504C4F43 
 13243              	.LASF536:
 13244 6f79 5343425F 		.ascii	"SCB_ICSR_NMIPENDSET_Pos 31\000"
 13244      49435352 
 13244      5F4E4D49 
 13244      50454E44 
 13244      5345545F 
 13245              	.LASF1228:
 13246 6f94 44495341 		.ascii	"DISABLE\000"
 13246      424C4500 
 13247              	.LASF1160:
 13248 6f9c 5F475049 		.ascii	"_GPIO 1\000"
 13248      4F203100 
 13249              	.LASF703:
 13250 6fa4 4D50555F 		.ascii	"MPU_TYPE_SEPARATE_Msk (1UL << MPU_TYPE_SEPARATE_Pos"
 13250      54595045 
 13250      5F534550 
 13250      41524154 
 13250      455F4D73 
 13251 6fd7 2900     		.ascii	")\000"
 13252              	.LASF340:
 13253 6fd9 5F5F4152 		.ascii	"__ARM_ARCH_ISA_THUMB 2\000"
 13253      4D5F4152 
 13253      43485F49 
 13253      53415F54 
 13253      48554D42 
 13254              	.LASF874:
 13255 6ff0 4C50435F 		.ascii	"LPC_UART0 ((LPC_UART_TypeDef *) LPC_UART0_BASE )\000"
 13255      55415254 
 13255      30202828 
 13255      4C50435F 
 13255      55415254 
ARM GAS  C:\Users\STUDENT\AppData\Local\Temp\ccMxouBa.s 			page 324


 13256              	.LASF71:
 13257 7021 5F5F4C4F 		.ascii	"__LONG_LONG_MAX__ 0x7fffffffffffffffLL\000"
 13257      4E475F4C 
 13257      4F4E475F 
 13257      4D41585F 
 13257      5F203078 
 13258              	.LASF1340:
 13259 7048 746D7031 		.ascii	"tmp1\000"
 13259      00
 13260              	.LASF413:
 13261 704d 6C6F6E67 		.ascii	"long\000"
 13261      00
 13262              	.LASF1349:
 13263 7052 55415254 		.ascii	"UART_ReceiveData\000"
 13263      5F526563 
 13263      65697665 
 13263      44617461 
 13263      00
 13264              	.LASF411:
 13265 7063 73686F72 		.ascii	"short\000"
 13265      7400
 13266              	.LASF1173:
 13267 7069 5F493243 		.ascii	"_I2C2 1\000"
 13267      32203100 
 13268              	.LASF772:
 13269 7071 436F7265 		.ascii	"CoreDebug_DEMCR_MON_EN_Pos 16\000"
 13269      44656275 
 13269      675F4445 
 13269      4D43525F 
 13269      4D4F4E5F 
 13270              	.LASF202:
 13271 708f 5F5F5546 		.ascii	"__UFRACT_IBIT__ 0\000"
 13271      52414354 
 13271      5F494249 
 13271      545F5F20 
 13271      3000
 13272              	.LASF1320:
 13273 70a1 55415254 		.ascii	"UART_CBS_Type\000"
 13273      5F434253 
 13273      5F547970 
 13273      6500
 13274              	.LASF93:
 13275 70af 5F5F494E 		.ascii	"__INT8_C(c) c\000"
 13275      54385F43 
 13275      28632920 
 13275      6300
 13276              	.LASF207:
 13277 70bd 5F5F4C46 		.ascii	"__LFRACT_IBIT__ 0\000"
 13277      52414354 
 13277      5F494249 
 13277      545F5F20 
 13277      3000
 13278              	.LASF990:
 13279 70cf 55415254 		.ascii	"UART1_MSR_LO2HI_RI ((uint8_t)(1<<2))\000"
 13279      315F4D53 
 13279      525F4C4F 
 13279      3248495F 
ARM GAS  C:\Users\STUDENT\AppData\Local\Temp\ccMxouBa.s 			page 325


 13279      52492028 
 13280              	.LASF359:
 13281 70f4 5F5F5665 		.ascii	"__Vendor_SysTickConfig 0\000"
 13281      6E646F72 
 13281      5F537973 
 13281      5469636B 
 13281      436F6E66 
 13282              	.LASF926:
 13283 710d 55415254 		.ascii	"UART_LOAD_DLL(div) ((div) & 0xFF)\000"
 13283      5F4C4F41 
 13283      445F444C 
 13283      4C286469 
 13283      76292028 
 13284              	.LASF535:
 13285 712f 5343425F 		.ascii	"SCB_CPUID_REVISION_Msk (0xFUL << SCB_CPUID_REVISION"
 13285      43505549 
 13285      445F5245 
 13285      56495349 
 13285      4F4E5F4D 
 13286 7162 5F506F73 		.ascii	"_Pos)\000"
 13286      2900
 13287              	.LASF930:
 13288 7168 55415254 		.ascii	"UART_IER_RBRINT_EN ((uint32_t)(1<<0))\000"
 13288      5F494552 
 13288      5F524252 
 13288      494E545F 
 13288      454E2028 
 13289              	.LASF139:
 13290 718e 5F5F4442 		.ascii	"__DBL_MIN_EXP__ (-1021)\000"
 13290      4C5F4D49 
 13290      4E5F4558 
 13290      505F5F20 
 13290      282D3130 
 13291              	.LASF875:
 13292 71a6 4C50435F 		.ascii	"LPC_UART1 ((LPC_UART1_TypeDef *) LPC_UART1_BASE )\000"
 13292      55415254 
 13292      31202828 
 13292      4C50435F 
 13292      55415254 
 13293              	.LASF1353:
 13294 71d8 55415254 		.ascii	"UART_IrDACmd\000"
 13294      5F497244 
 13294      41436D64 
 13294      00
 13295              	.LASF1369:
 13296 71e5 4D6F6465 		.ascii	"Mode\000"
 13296      00
 13297              	.LASF1052:
 13298 71ea 434C4B50 		.ascii	"CLKPWR_CLKOUTCFG_CLKOUTSEL_RC ((uint32_t)(0x02))\000"
 13298      57525F43 
 13298      4C4B4F55 
 13298      54434647 
 13298      5F434C4B 
 13299              	.LASF592:
 13300 721b 5343425F 		.ascii	"SCB_SHCSR_USGFAULTENA_Pos 18\000"
 13300      53484353 
 13300      525F5553 
ARM GAS  C:\Users\STUDENT\AppData\Local\Temp\ccMxouBa.s 			page 326


 13300      47464155 
 13300      4C54454E 
 13301              	.LASF925:
 13302 7238 55415254 		.ascii	"UART_THR_MASKBIT ((uint8_t)0xFF)\000"
 13302      5F544852 
 13302      5F4D4153 
 13302      4B424954 
 13302      20282875 
 13303              	.LASF1273:
 13304 7259 55415254 		.ascii	"UART_IrDA_PULSEDIV16\000"
 13304      5F497244 
 13304      415F5055 
 13304      4C534544 
 13304      49563136 
 13305              	.LASF735:
 13306 726e 4D50555F 		.ascii	"MPU_RASR_ENA_Msk (0x1UL << MPU_RASR_ENA_Pos)\000"
 13306      52415352 
 13306      5F454E41 
 13306      5F4D736B 
 13306      20283078 
 13307              	.LASF673:
 13308 729b 49544D5F 		.ascii	"ITM_TCR_SYNCENA_Msk (1UL << ITM_TCR_SYNCENA_Pos)\000"
 13308      5443525F 
 13308      53594E43 
 13308      454E415F 
 13308      4D736B20 
 13309              	.LASF972:
 13310 72cc 55415254 		.ascii	"UART_LCR_BITMASK ((uint8_t)(0xFF))\000"
 13310      5F4C4352 
 13310      5F424954 
 13310      4D41534B 
 13310      20282875 
 13311              	.LASF1073:
 13312 72ef 434C4B50 		.ascii	"CLKPWR_PLL1CON_BITMASK ((uint32_t)(0x03))\000"
 13312      57525F50 
 13312      4C4C3143 
 13312      4F4E5F42 
 13312      49544D41 
 13313              	.LASF883:
 13314 7319 4C50435F 		.ascii	"LPC_SPI ((LPC_SPI_TypeDef *) LPC_SPI_BASE )\000"
 13314      53504920 
 13314      28284C50 
 13314      435F5350 
 13314      495F5479 
 13315              	.LASF1336:
 13316 7345 72656C61 		.ascii	"relativeOptimalError\000"
 13316      74697665 
 13316      4F707469 
 13316      6D616C45 
 13316      72726F72 
 13317              	.LASF1341:
 13318 735a 55415254 		.ascii	"UART_GenIntHandler\000"
 13318      5F47656E 
 13318      496E7448 
 13318      616E646C 
 13318      657200
 13319              	.LASF670:
ARM GAS  C:\Users\STUDENT\AppData\Local\Temp\ccMxouBa.s 			page 327


 13320 736d 49544D5F 		.ascii	"ITM_TCR_DWTENA_Pos 3\000"
 13320      5443525F 
 13320      44575445 
 13320      4E415F50 
 13320      6F732033 
 13321              	.LASF1064:
 13322 7382 434C4B50 		.ascii	"CLKPWR_PLL0CFG_BITMASK ((uint32_t)(0xFF7FFF))\000"
 13322      57525F50 
 13322      4C4C3043 
 13322      46475F42 
 13322      49544D41 
 13323              	.LASF1143:
 13324 73b0 434C4B50 		.ascii	"CLKPWR_PCONP_PCGPIO ((uint32_t)(1<<15))\000"
 13324      57525F50 
 13324      434F4E50 
 13324      5F504347 
 13324      50494F20 
 13325              	.LASF963:
 13326 73d8 55415254 		.ascii	"UART_LCR_WLEN8 ((uint8_t)(3<<0))\000"
 13326      5F4C4352 
 13326      5F574C45 
 13326      4E382028 
 13326      2875696E 
 13327              	.LASF103:
 13328 73f9 5F5F5549 		.ascii	"__UINT16_C(c) c\000"
 13328      4E543136 
 13328      5F432863 
 13328      29206300 
 13329              	.LASF518:
 13330 7409 55494E54 		.ascii	"UINTMAX_C(x) __UINTMAX_C(x)\000"
 13330      4D41585F 
 13330      43287829 
 13330      205F5F55 
 13330      494E544D 
 13331              	.LASF390:
 13332 7425 5F5F4D49 		.ascii	"__MISC_VISIBLE 1\000"
 13332      53435F56 
 13332      49534942 
 13332      4C452031 
 13332      00
 13333              	.LASF1105:
 13334 7436 434C4B50 		.ascii	"CLKPWR_PCLKSEL_UART1 ((uint32_t)(8))\000"
 13334      57525F50 
 13334      434C4B53 
 13334      454C5F55 
 13334      41525431 
 13335              	.LASF403:
 13336 745b 5F5F4558 		.ascii	"__EXP\000"
 13336      5000
 13337              	.LASF734:
 13338 7461 4D50555F 		.ascii	"MPU_RASR_ENA_Pos 0\000"
 13338      52415352 
 13338      5F454E41 
 13338      5F506F73 
 13338      203000
 13339              	.LASF398:
 13340 7474 5F5F5F69 		.ascii	"___int64_t_defined 1\000"
ARM GAS  C:\Users\STUDENT\AppData\Local\Temp\ccMxouBa.s 			page 328


 13340      6E743634 
 13340      5F745F64 
 13340      6566696E 
 13340      65642031 
 13341              	.LASF162:
 13342 7489 5F5F4C44 		.ascii	"__LDBL_HAS_DENORM__ 1\000"
 13342      424C5F48 
 13342      41535F44 
 13342      454E4F52 
 13342      4D5F5F20 
 13343              	.LASF1082:
 13344 749f 434C4B50 		.ascii	"CLKPWR_PLL1FEED_BITMASK ((uint32_t)0xFF)\000"
 13344      57525F50 
 13344      4C4C3146 
 13344      4545445F 
 13344      4249544D 
 13345              	.LASF309:
 13346 74c8 5F5F4743 		.ascii	"__GCC_HAVE_SYNC_COMPARE_AND_SWAP_4 1\000"
 13346      435F4841 
 13346      56455F53 
 13346      594E435F 
 13346      434F4D50 
 13347              	.LASF913:
 13348 74ed 5F424954 		.ascii	"_BIT\000"
 13348      00
 13349              	.LASF107:
 13350 74f2 5F5F5549 		.ascii	"__UINT64_C(c) c ## ULL\000"
 13350      4E543634 
 13350      5F432863 
 13350      29206320 
 13350      23232055 
 13351              	.LASF635:
 13352 7509 5343425F 		.ascii	"SCB_DFSR_VCATCH_Msk (1UL << SCB_DFSR_VCATCH_Pos)\000"
 13352      44465352 
 13352      5F564341 
 13352      5443485F 
 13352      4D736B20 
 13353              	.LASF659:
 13354 753a 53797354 		.ascii	"SysTick_CALIB_TENMS_Msk (0xFFFFFFUL << SysTick_VAL_"
 13354      69636B5F 
 13354      43414C49 
 13354      425F5445 
 13354      4E4D535F 
 13355 756d 43555252 		.ascii	"CURRENT_Pos)\000"
 13355      454E545F 
 13355      506F7329 
 13355      00
 13356              	.LASF1167:
 13357 757a 5F535350 		.ascii	"_SSP 1\000"
 13357      203100
 13358              	.LASF806:
 13359 7581 4C50435F 		.ascii	"LPC_FLASH_BASE (0x00000000UL)\000"
 13359      464C4153 
 13359      485F4241 
 13359      53452028 
 13359      30783030 
 13360              	.LASF729:
ARM GAS  C:\Users\STUDENT\AppData\Local\Temp\ccMxouBa.s 			page 329


 13361 759f 4D50555F 		.ascii	"MPU_RASR_B_Msk (1UL << MPU_RASR_B_Pos)\000"
 13361      52415352 
 13361      5F425F4D 
 13361      736B2028 
 13361      31554C20 
 13362              	.LASF48:
 13363 75c6 5F5F494E 		.ascii	"__INT_LEAST32_TYPE__ long int\000"
 13363      545F4C45 
 13363      41535433 
 13363      325F5459 
 13363      50455F5F 
 13364              	.LASF639:
 13365 75e4 5343425F 		.ascii	"SCB_DFSR_BKPT_Msk (1UL << SCB_DFSR_BKPT_Pos)\000"
 13365      44465352 
 13365      5F424B50 
 13365      545F4D73 
 13365      6B202831 
 13366              	.LASF838:
 13367 7611 4C50435F 		.ascii	"LPC_UART2_BASE (LPC_APB1_BASE + 0x18000)\000"
 13367      55415254 
 13367      325F4241 
 13367      53452028 
 13367      4C50435F 
 13368              	.LASF698:
 13369 763a 4D50555F 		.ascii	"MPU_TYPE_IREGION_Pos 16\000"
 13369      54595045 
 13369      5F495245 
 13369      47494F4E 
 13369      5F506F73 
 13370              	.LASF836:
 13371 7652 4C50435F 		.ascii	"LPC_TIM2_BASE (LPC_APB1_BASE + 0x10000)\000"
 13371      54494D32 
 13371      5F424153 
 13371      4520284C 
 13371      50435F41 
 13372              	.LASF1245:
 13373 767a 55415254 		.ascii	"UART_PARITY_NONE\000"
 13373      5F504152 
 13373      4954595F 
 13373      4E4F4E45 
 13373      00
 13374              	.LASF933:
 13375 768b 55415254 		.ascii	"UART1_IER_MSINT_EN ((uint32_t)(1<<3))\000"
 13375      315F4945 
 13375      525F4D53 
 13375      494E545F 
 13375      454E2028 
 13376              	.LASF916:
 13377 76b1 5F534246 		.ascii	"_SBF(f,v) (v<<f)\000"
 13377      28662C76 
 13377      29202876 
 13377      3C3C6629 
 13377      00
 13378              	.LASF1218:
 13379 76c2 52533438 		.ascii	"RS485CTRL\000"
 13379      35435452 
 13379      4C00
ARM GAS  C:\Users\STUDENT\AppData\Local\Temp\ccMxouBa.s 			page 330


 13380              	.LASF115:
 13381 76cc 5F5F5549 		.ascii	"__UINT_FAST64_MAX__ 0xffffffffffffffffULL\000"
 13381      4E545F46 
 13381      41535436 
 13381      345F4D41 
 13381      585F5F20 
 13382              	.LASF1230:
 13383 76f6 46756E63 		.ascii	"FunctionalState\000"
 13383      74696F6E 
 13383      616C5374 
 13383      61746500 
 13384              	.LASF374:
 13385 7706 5F5F4E45 		.ascii	"__NEWLIB_PATCHLEVEL__ 0\000"
 13385      574C4942 
 13385      5F504154 
 13385      43484C45 
 13385      56454C5F 
 13386              	.LASF1067:
 13387 771e 434C4B50 		.ascii	"CLKPWR_PLL0STAT_PLLE ((uint32_t)(1<<24))\000"
 13387      57525F50 
 13387      4C4C3053 
 13387      5441545F 
 13387      504C4C45 
 13388              	.LASF1163:
 13389 7747 5F554152 		.ascii	"_UART1 1\000"
 13389      54312031 
 13389      00
 13390              	.LASF23:
 13391 7750 5F5F4F52 		.ascii	"__ORDER_LITTLE_ENDIAN__ 1234\000"
 13391      4445525F 
 13391      4C495454 
 13391      4C455F45 
 13391      4E444941 
 13392              	.LASF1376:
 13393 776d 73697A65 		.ascii	"size\000"
 13393      00
 13394              	.LASF361:
 13395 7772 5F5F434D 		.ascii	"__CM3_CMSIS_VERSION_MAIN (0x02)\000"
 13395      335F434D 
 13395      5349535F 
 13395      56455253 
 13395      494F4E5F 
 13396              	.LASF172:
 13397 7792 5F5F4445 		.ascii	"__DEC64_MANT_DIG__ 16\000"
 13397      4336345F 
 13397      4D414E54 
 13397      5F444947 
 13397      5F5F2031 
 13398              	.LASF1201:
 13399 77a8 6C6F6E67 		.ascii	"long long unsigned int\000"
 13399      206C6F6E 
 13399      6720756E 
 13399      7369676E 
 13399      65642069 
 13400              	.LASF484:
 13401 77bf 55494E54 		.ascii	"UINT_LEAST64_MAX (__UINT_LEAST64_MAX__)\000"
 13401      5F4C4541 
ARM GAS  C:\Users\STUDENT\AppData\Local\Temp\ccMxouBa.s 			page 331


 13401      53543634 
 13401      5F4D4158 
 13401      20285F5F 
 13402              	.LASF602:
 13403 77e7 5343425F 		.ascii	"SCB_SHCSR_MEMFAULTPENDED_Pos 13\000"
 13403      53484353 
 13403      525F4D45 
 13403      4D464155 
 13403      4C545045 
 13404              	.LASF1374:
 13405 7807 55415254 		.ascii	"UART_RS485Send\000"
 13405      5F525334 
 13405      38355365 
 13405      6E6400
 13406              	.LASF1166:
 13407 7816 5F535049 		.ascii	"_SPI 1\000"
 13407      203100
 13408              	.LASF252:
 13409 781d 5F5F554C 		.ascii	"__ULACCUM_IBIT__ 32\000"
 13409      41434355 
 13409      4D5F4942 
 13409      49545F5F 
 13409      20333200 
 13410              	.LASF68:
 13411 7831 5F5F5348 		.ascii	"__SHRT_MAX__ 0x7fff\000"
 13411      52545F4D 
 13411      41585F5F 
 13411      20307837 
 13411      66666600 
 13412              	.LASF929:
 13413 7845 55415254 		.ascii	"UART_LOAD_DLM(div) (((div) >> 8) & 0xFF)\000"
 13413      5F4C4F41 
 13413      445F444C 
 13413      4D286469 
 13413      76292028 
 13414              	.LASF30:
 13415 786e 5F5F5054 		.ascii	"__PTRDIFF_TYPE__ int\000"
 13415      52444946 
 13415      465F5459 
 13415      50455F5F 
 13415      20696E74 
 13416              	.LASF741:
 13417 7883 436F7265 		.ascii	"CoreDebug_DHCSR_S_RETIRE_ST_Msk (1UL << CoreDebug_D"
 13417      44656275 
 13417      675F4448 
 13417      4353525F 
 13417      535F5245 
 13418 78b6 48435352 		.ascii	"HCSR_S_RETIRE_ST_Pos)\000"
 13418      5F535F52 
 13418      45544952 
 13418      455F5354 
 13418      5F506F73 
 13419              	.LASF1284:
 13420 78cc 55415254 		.ascii	"UART_MODEM_PIN_Type\000"
 13420      5F4D4F44 
 13420      454D5F50 
 13420      494E5F54 
ARM GAS  C:\Users\STUDENT\AppData\Local\Temp\ccMxouBa.s 			page 332


 13420      79706500 
 13421              	.LASF1350:
 13422 78e0 55415254 		.ascii	"UART_ForceBreak\000"
 13422      5F466F72 
 13422      63654272 
 13422      65616B00 
 13423              	.LASF1142:
 13424 78f0 434C4B50 		.ascii	"CLKPWR_PCONP_PCAN2 ((uint32_t)(1<<14))\000"
 13424      57525F50 
 13424      434F4E50 
 13424      5F504341 
 13424      4E322028 
 13425              	.LASF387:
 13426 7917 5F5F474E 		.ascii	"__GNU_VISIBLE 0\000"
 13426      555F5649 
 13426      5349424C 
 13426      45203000 
 13427              	.LASF227:
 13428 7927 5F5F5341 		.ascii	"__SACCUM_IBIT__ 8\000"
 13428      4343554D 
 13428      5F494249 
 13428      545F5F20 
 13428      3800
 13429              	.LASF272:
 13430 7939 5F5F4451 		.ascii	"__DQ_FBIT__ 63\000"
 13430      5F464249 
 13430      545F5F20 
 13430      363300
 13431              	.LASF981:
 13432 7948 55415254 		.ascii	"UART_LSR_PE ((uint8_t)(1<<2))\000"
 13432      5F4C5352 
 13432      5F504520 
 13432      28287569 
 13432      6E74385F 
 13433              	.LASF60:
 13434 7966 5F5F5549 		.ascii	"__UINT_FAST32_TYPE__ unsigned int\000"
 13434      4E545F46 
 13434      41535433 
 13434      325F5459 
 13434      50455F5F 
 13435              	.LASF911:
 13436 7988 50415241 		.ascii	"PARAM_SETSTATE(State) ((State==RESET) || (State==SE"
 13436      4D5F5345 
 13436      54535441 
 13436      54452853 
 13436      74617465 
 13437 79bb 54292900 		.ascii	"T))\000"
 13438              	.LASF840:
 13439 79bf 4C50435F 		.ascii	"LPC_I2C2_BASE (LPC_APB1_BASE + 0x20000)\000"
 13439      49324332 
 13439      5F424153 
 13439      4520284C 
 13439      50435F41 
 13440              	.LASF1288:
 13441 79e7 55415254 		.ascii	"UART_MODEM_MODE_Type\000"
 13441      5F4D4F44 
 13441      454D5F4D 
ARM GAS  C:\Users\STUDENT\AppData\Local\Temp\ccMxouBa.s 			page 333


 13441      4F44455F 
 13441      54797065 
 13442              	.LASF55:
 13443 79fc 5F5F494E 		.ascii	"__INT_FAST16_TYPE__ int\000"
 13443      545F4641 
 13443      53543136 
 13443      5F545950 
 13443      455F5F20 
 13444              	.LASF870:
 13445 7a14 4C50435F 		.ascii	"LPC_TIM1 ((LPC_TIM_TypeDef *) LPC_TIM1_BASE )\000"
 13445      54494D31 
 13445      2028284C 
 13445      50435F54 
 13445      494D5F54 
 13446              	.LASF619:
 13447 7a42 5343425F 		.ascii	"SCB_SHCSR_MEMFAULTACT_Msk (1UL << SCB_SHCSR_MEMFAUL"
 13447      53484353 
 13447      525F4D45 
 13447      4D464155 
 13447      4C544143 
 13448 7a75 54414354 		.ascii	"TACT_Pos)\000"
 13448      5F506F73 
 13448      2900
 13449              	.LASF228:
 13450 7a7f 5F5F5341 		.ascii	"__SACCUM_MIN__ (-0X1P7HK-0X1P7HK)\000"
 13450      4343554D 
 13450      5F4D494E 
 13450      5F5F2028 
 13450      2D305831 
 13451              	.LASF214:
 13452 7aa1 5F5F554C 		.ascii	"__ULFRACT_MAX__ 0XFFFFFFFFP-32ULR\000"
 13452      46524143 
 13452      545F4D41 
 13452      585F5F20 
 13452      30584646 
 13453              	.LASF51:
 13454 7ac3 5F5F5549 		.ascii	"__UINT_LEAST16_TYPE__ short unsigned int\000"
 13454      4E545F4C 
 13454      45415354 
 13454      31365F54 
 13454      5950455F 
 13455              	.LASF582:
 13456 7aec 5343425F 		.ascii	"SCB_CCR_BFHFNMIGN_Pos 8\000"
 13456      4343525F 
 13456      42464846 
 13456      4E4D4947 
 13456      4E5F506F 
 13457              	.LASF1221:
 13458 7b04 52455345 		.ascii	"RESERVED10\000"
 13458      52564544 
 13458      313000
 13459              	.LASF1223:
 13460 7b0f 52455345 		.ascii	"RESERVED11\000"
 13460      52564544 
 13460      313100
 13461              	.LASF35:
 13462 7b1a 5F5F4348 		.ascii	"__CHAR16_TYPE__ short unsigned int\000"
ARM GAS  C:\Users\STUDENT\AppData\Local\Temp\ccMxouBa.s 			page 334


 13462      41523136 
 13462      5F545950 
 13462      455F5F20 
 13462      73686F72 
 13463              	.LASF583:
 13464 7b3d 5343425F 		.ascii	"SCB_CCR_BFHFNMIGN_Msk (1UL << SCB_CCR_BFHFNMIGN_Pos"
 13464      4343525F 
 13464      42464846 
 13464      4E4D4947 
 13464      4E5F4D73 
 13465 7b70 2900     		.ascii	")\000"
 13466              	.LASF1305:
 13467 7b72 4175746F 		.ascii	"AutoDirCtrl_State\000"
 13467      44697243 
 13467      74726C5F 
 13467      53746174 
 13467      6500
 13468              	.LASF879:
 13469 7b84 4C50435F 		.ascii	"LPC_I2C0 ((LPC_I2C_TypeDef *) LPC_I2C0_BASE )\000"
 13469      49324330 
 13469      2028284C 
 13469      50435F49 
 13469      32435F54 
 13470              	.LASF760:
 13471 7bb2 436F7265 		.ascii	"CoreDebug_DCRSR_REGWnR_Pos 16\000"
 13471      44656275 
 13471      675F4443 
 13471      5253525F 
 13471      52454757 
 13472              	.LASF984:
 13473 7bd0 55415254 		.ascii	"UART_LSR_THRE ((uint8_t)(1<<5))\000"
 13473      5F4C5352 
 13473      5F544852 
 13473      45202828 
 13473      75696E74 
 13474              	.LASF1034:
 13475 7bf0 50415241 		.ascii	"PARAM_UART_IrDA_PULSEDIV(PulseDiv) ((PulseDiv==UART"
 13475      4D5F5541 
 13475      52545F49 
 13475      7244415F 
 13475      50554C53 
 13476 7c23 5F497244 		.ascii	"_IrDA_PULSEDIV2) || (PulseDiv==UART_IrDA_PULSEDIV4)"
 13476      415F5055 
 13476      4C534544 
 13476      49563229 
 13476      207C7C20 
 13477 7c56 207C7C20 		.ascii	" || (PulseDiv==UART_IrDA_PULSEDIV8) || (PulseDiv==U"
 13477      2850756C 
 13477      73654469 
 13477      763D3D55 
 13477      4152545F 
 13478 7c89 4152545F 		.ascii	"ART_IrDA_PULSEDIV16) || (PulseDiv==UART_IrDA_PULSED"
 13478      49724441 
 13478      5F50554C 
 13478      53454449 
 13478      56313629 
 13479 7cbc 49563332 		.ascii	"IV32) || (PulseDiv==UART_IrDA_PULSEDIV64) || (Pulse"
ARM GAS  C:\Users\STUDENT\AppData\Local\Temp\ccMxouBa.s 			page 335


 13479      29207C7C 
 13479      20285075 
 13479      6C736544 
 13479      69763D3D 
 13480 7cef 4469763D 		.ascii	"Div==UART_IrDA_PULSEDIV128) || (PulseDiv==UART_IrDA"
 13480      3D554152 
 13480      545F4972 
 13480      44415F50 
 13480      554C5345 
 13481 7d22 5F50554C 		.ascii	"_PULSEDIV256))\000"
 13481      53454449 
 13481      56323536 
 13481      292900
 13482              	.LASF284:
 13483 7d31 5F5F5554 		.ascii	"__UTQ_FBIT__ 128\000"
 13483      515F4642 
 13483      49545F5F 
 13483      20313238 
 13483      00
 13484              	.LASF721:
 13485 7d42 4D50555F 		.ascii	"MPU_RASR_AP_Msk (7UL << MPU_RASR_AP_Pos)\000"
 13485      52415352 
 13485      5F41505F 
 13485      4D736B20 
 13485      2837554C 
 13486              	.LASF595:
 13487 7d6b 5343425F 		.ascii	"SCB_SHCSR_BUSFAULTENA_Msk (1UL << SCB_SHCSR_BUSFAUL"
 13487      53484353 
 13487      525F4255 
 13487      53464155 
 13487      4C54454E 
 13488 7d9e 54454E41 		.ascii	"TENA_Pos)\000"
 13488      5F506F73 
 13488      2900
 13489              	.LASF1095:
 13490 7da8 434C4B50 		.ascii	"CLKPWR_PCON_BORD ((uint32_t)(1<<4))\000"
 13490      57525F50 
 13490      434F4E5F 
 13490      424F5244 
 13490      20282875 
 13491              	.LASF820:
 13492 7dcc 4C50435F 		.ascii	"LPC_PWM1_BASE (LPC_APB0_BASE + 0x18000)\000"
 13492      50574D31 
 13492      5F424153 
 13492      4520284C 
 13492      50435F41 
 13493              	.LASF260:
 13494 7df4 5F5F4C4C 		.ascii	"__LLACCUM_EPSILON__ 0x1P-31LLK\000"
 13494      41434355 
 13494      4D5F4550 
 13494      53494C4F 
 13494      4E5F5F20 
 13495              	.LASF12:
 13496 7e13 5F5F4649 		.ascii	"__FINITE_MATH_ONLY__ 0\000"
 13496      4E495445 
 13496      5F4D4154 
 13496      485F4F4E 
ARM GAS  C:\Users\STUDENT\AppData\Local\Temp\ccMxouBa.s 			page 336


 13496      4C595F5F 
 13497              	.LASF584:
 13498 7e2a 5343425F 		.ascii	"SCB_CCR_DIV_0_TRP_Pos 4\000"
 13498      4343525F 
 13498      4449565F 
 13498      305F5452 
 13498      505F506F 
 13499              	.LASF109:
 13500 7e42 5F5F494E 		.ascii	"__INT_FAST16_MAX__ 0x7fffffff\000"
 13500      545F4641 
 13500      53543136 
 13500      5F4D4158 
 13500      5F5F2030 
 13501              	.LASF406:
 13502 7e60 5F5F6861 		.ascii	"__have_longlong64 1\000"
 13502      76655F6C 
 13502      6F6E676C 
 13502      6F6E6736 
 13502      34203100 
 13503              	.LASF528:
 13504 7e74 5343425F 		.ascii	"SCB_CPUID_IMPLEMENTER_Pos 24\000"
 13504      43505549 
 13504      445F494D 
 13504      504C454D 
 13504      454E5445 
 13505              	.LASF686:
 13506 7e91 49544D5F 		.ascii	"ITM_LSR_Access_Pos 1\000"
 13506      4C53525F 
 13506      41636365 
 13506      73735F50 
 13506      6F732031 
 13507              	.LASF430:
 13508 7ea6 5F5F4641 		.ascii	"__FAST64 \"ll\"\000"
 13508      53543634 
 13508      20226C6C 
 13508      2200
 13509              	.LASF1158:
 13510 7eb4 4C504331 		.ascii	"LPC17XX_LIBCFG_DEFAULT_H_ \000"
 13510      3758585F 
 13510      4C494243 
 13510      46475F44 
 13510      45464155 
 13511              	.LASF974:
 13512 7ecf 55415254 		.ascii	"UART1_MCR_RTS_CTRL ((uint8_t)(1<<1))\000"
 13512      315F4D43 
 13512      525F5254 
 13512      535F4354 
 13512      524C2028 
 13513              	.LASF742:
 13514 7ef4 436F7265 		.ascii	"CoreDebug_DHCSR_S_LOCKUP_Pos 19\000"
 13514      44656275 
 13514      675F4448 
 13514      4353525F 
 13514      535F4C4F 
 13515              	.LASF815:
 13516 7f14 4C50435F 		.ascii	"LPC_WDT_BASE (LPC_APB0_BASE + 0x00000)\000"
 13516      5744545F 
ARM GAS  C:\Users\STUDENT\AppData\Local\Temp\ccMxouBa.s 			page 337


 13516      42415345 
 13516      20284C50 
 13516      435F4150 
 13517              	.LASF1274:
 13518 7f3b 55415254 		.ascii	"UART_IrDA_PULSEDIV32\000"
 13518      5F497244 
 13518      415F5055 
 13518      4C534544 
 13518      49563332 
 13519              	.LASF862:
 13520 7f50 4C50435F 		.ascii	"LPC_SC ((LPC_SC_TypeDef *) LPC_SC_BASE )\000"
 13520      53432028 
 13520      284C5043 
 13520      5F53435F 
 13520      54797065 
 13521              	.LASF612:
 13522 7f79 5343425F 		.ascii	"SCB_SHCSR_SVCALLACT_Pos 7\000"
 13522      53484353 
 13522      525F5356 
 13522      43414C4C 
 13522      4143545F 
 13523              	.LASF900:
 13524 7f93 444D4152 		.ascii	"DMAREQSEL (*(__IO uint32_t *) ( 0x4000C1C4))\000"
 13524      45515345 
 13524      4C20282A 
 13524      285F5F49 
 13524      4F207569 
 13525              	.LASF1311:
 13526 7fc0 666E5278 		.ascii	"fnRxCbs_Type\000"
 13526      4362735F 
 13526      54797065 
 13526      00
 13527              	.LASF254:
 13528 7fcd 5F5F554C 		.ascii	"__ULACCUM_MAX__ 0XFFFFFFFFFFFFFFFFP-32ULK\000"
 13528      41434355 
 13528      4D5F4D41 
 13528      585F5F20 
 13528      30584646 
 13529              	.LASF1232:
 13530 7ff7 53554343 		.ascii	"SUCCESS\000"
 13530      45535300 
 13531              	.LASF1045:
 13532 7fff 4C504331 		.ascii	"LPC17XX_CLKPWR_H_ \000"
 13532      3758585F 
 13532      434C4B50 
 13532      57525F48 
 13532      5F2000
 13533              	.LASF1283:
 13534 8012 55415254 		.ascii	"UART1_MODEM_PIN_RTS\000"
 13534      315F4D4F 
 13534      44454D5F 
 13534      50494E5F 
 13534      52545300 
 13535              	.LASF213:
 13536 8026 5F5F554C 		.ascii	"__ULFRACT_MIN__ 0.0ULR\000"
 13536      46524143 
 13536      545F4D49 
ARM GAS  C:\Users\STUDENT\AppData\Local\Temp\ccMxouBa.s 			page 338


 13536      4E5F5F20 
 13536      302E3055 
 13537              	.LASF500:
 13538 803d 53495A45 		.ascii	"SIZE_MAX (__SIZE_MAX__)\000"
 13538      5F4D4158 
 13538      20285F5F 
 13538      53495A45 
 13538      5F4D4158 
 13539              	.LASF1178:
 13540 8055 5F414443 		.ascii	"_ADC 1\000"
 13540      203100
 13541              	.LASF273:
 13542 805c 5F5F4451 		.ascii	"__DQ_IBIT__ 0\000"
 13542      5F494249 
 13542      545F5F20 
 13542      3000
 13543              	.LASF1111:
 13544 806a 434C4B50 		.ascii	"CLKPWR_PCLKSEL_ADC ((uint32_t)(24))\000"
 13544      57525F50 
 13544      434C4B53 
 13544      454C5F41 
 13544      44432028 
 13545              	.LASF604:
 13546 808e 5343425F 		.ascii	"SCB_SHCSR_USGFAULTPENDED_Pos 12\000"
 13546      53484353 
 13546      525F5553 
 13546      47464155 
 13546      4C545045 
 13547              	.LASF1175:
 13548 80ae 5F574454 		.ascii	"_WDT 1\000"
 13548      203100
 13549              	.LASF750:
 13550 80b5 436F7265 		.ascii	"CoreDebug_DHCSR_C_SNAPSTALL_Pos 5\000"
 13550      44656275 
 13550      675F4448 
 13550      4353525F 
 13550      435F534E 
 13551              	.LASF530:
 13552 80d7 5343425F 		.ascii	"SCB_CPUID_VARIANT_Pos 20\000"
 13552      43505549 
 13552      445F5641 
 13552      5249414E 
 13552      545F506F 
 13553              	.LASF796:
 13554 80f0 496E7465 		.ascii	"InterruptType ((InterruptType_Type *) SCS_BASE)\000"
 13554      72727570 
 13554      74547970 
 13554      65202828 
 13554      496E7465 
 13555              	.LASF782:
 13556 8120 436F7265 		.ascii	"CoreDebug_DEMCR_VC_CHKERR_Pos 6\000"
 13556      44656275 
 13556      675F4445 
 13556      4D43525F 
 13556      56435F43 
 13557              	.LASF707:
 13558 8140 4D50555F 		.ascii	"MPU_CTRL_HFNMIENA_Msk (1UL << MPU_CTRL_HFNMIENA_Pos"
ARM GAS  C:\Users\STUDENT\AppData\Local\Temp\ccMxouBa.s 			page 339


 13558      4354524C 
 13558      5F48464E 
 13558      4D49454E 
 13558      415F4D73 
 13559 8173 2900     		.ascii	")\000"
 13560              	.LASF1094:
 13561 8175 434C4B50 		.ascii	"CLKPWR_PCON_BOGD ((uint32_t)(1<<3))\000"
 13561      57525F50 
 13561      434F4E5F 
 13561      424F4744 
 13561      20282875 
 13562              	.LASF445:
 13563 8199 5F494E54 		.ascii	"_INT64_T_DECLARED \000"
 13563      36345F54 
 13563      5F444543 
 13563      4C415245 
 13563      442000
 13564              	.LASF1027:
 13565 81ac 50415241 		.ascii	"PARAM_UART_STOPBIT(stopbit) ((stopbit==UART_STOPBIT"
 13565      4D5F5541 
 13565      52545F53 
 13565      544F5042 
 13565      49542873 
 13566 81df 5F312920 		.ascii	"_1) || (stopbit==UART_STOPBIT_2))\000"
 13566      7C7C2028 
 13566      73746F70 
 13566      6269743D 
 13566      3D554152 
 13567              	.LASF593:
 13568 8201 5343425F 		.ascii	"SCB_SHCSR_USGFAULTENA_Msk (1UL << SCB_SHCSR_USGFAUL"
 13568      53484353 
 13568      525F5553 
 13568      47464155 
 13568      4C54454E 
 13569 8234 54454E41 		.ascii	"TENA_Pos)\000"
 13569      5F506F73 
 13569      2900
 13570              	.LASF1140:
 13571 823e 434C4B50 		.ascii	"CLKPWR_PCONP_PCAD ((uint32_t)(1<<12))\000"
 13571      57525F50 
 13571      434F4E50 
 13571      5F504341 
 13571      44202828 
 13572              	.LASF647:
 13573 8264 53797354 		.ascii	"SysTick_CTRL_TICKINT_Msk (1UL << SysTick_CTRL_TICKI"
 13573      69636B5F 
 13573      4354524C 
 13573      5F544943 
 13573      4B494E54 
 13574 8297 4E545F50 		.ascii	"NT_Pos)\000"
 13574      6F732900 
 13575              	.LASF1044:
 13576 829f 55415254 		.ascii	"UART_BLOCKING_TIMEOUT (0xFFFFFFFFUL)\000"
 13576      5F424C4F 
 13576      434B494E 
 13576      475F5449 
 13576      4D454F55 
ARM GAS  C:\Users\STUDENT\AppData\Local\Temp\ccMxouBa.s 			page 340


 13577              	.LASF1033:
 13578 82c4 50415241 		.ascii	"PARAM_UART_AUTOBAUD_INTSTAT(ABIntStat) ((ABIntStat="
 13578      4D5F5541 
 13578      52545F41 
 13578      55544F42 
 13578      4155445F 
 13579 82f7 3D554152 		.ascii	"=UART_AUTOBAUD_INTSTAT_ABEO) || (ABIntStat==UART_AU"
 13579      545F4155 
 13579      544F4241 
 13579      55445F49 
 13579      4E545354 
 13580 832a 544F4241 		.ascii	"TOBAUD_INTSTAT_ABTO))\000"
 13580      55445F49 
 13580      4E545354 
 13580      41545F41 
 13580      42544F29 
 13581              	.LASF1375:
 13582 8340 70446174 		.ascii	"pDatFrm\000"
 13582      46726D00 
 13583              	.LASF1315:
 13584 8348 666E4D6F 		.ascii	"fnModemCbs_Type\000"
 13584      64656D43 
 13584      62735F54 
 13584      79706500 
 13585              	.LASF1225:
 13586 8358 52455345 		.ascii	"RESET\000"
 13586      5400
 13587              	.LASF285:
 13588 835e 5F5F5554 		.ascii	"__UTQ_IBIT__ 0\000"
 13588      515F4942 
 13588      49545F5F 
 13588      203000
 13589              	.LASF288:
 13590 836d 5F5F5341 		.ascii	"__SA_FBIT__ 15\000"
 13590      5F464249 
 13590      545F5F20 
 13590      313500
 13591              	.LASF829:
 13592 837c 4C50435F 		.ascii	"LPC_CANAF_BASE (LPC_APB0_BASE + 0x3C000)\000"
 13592      43414E41 
 13592      465F4241 
 13592      53452028 
 13592      4C50435F 
 13593              	.LASF847:
 13594 83a5 4C50435F 		.ascii	"LPC_GPDMA_BASE (LPC_AHB_BASE + 0x04000)\000"
 13594      4750444D 
 13594      415F4241 
 13594      53452028 
 13594      4C50435F 
 13595              	.LASF348:
 13596 83cd 5F5F4152 		.ascii	"__ARM_EABI__ 1\000"
 13596      4D5F4541 
 13596      42495F5F 
 13596      203100
 13597              	.LASF353:
 13598 83dc 5F5F454C 		.ascii	"__ELF__ 1\000"
 13598      465F5F20 
ARM GAS  C:\Users\STUDENT\AppData\Local\Temp\ccMxouBa.s 			page 341


 13598      3100
 13599              	.LASF473:
 13600 83e6 494E5433 		.ascii	"INT32_MIN (-__INT32_MAX__ - 1)\000"
 13600      325F4D49 
 13600      4E20282D 
 13600      5F5F494E 
 13600      5433325F 
 13601              	.LASF342:
 13602 8405 5F5F5448 		.ascii	"__THUMBEL__ 1\000"
 13602      554D4245 
 13602      4C5F5F20 
 13602      3100
 13603              	.LASF600:
 13604 8413 5343425F 		.ascii	"SCB_SHCSR_BUSFAULTPENDED_Pos 14\000"
 13604      53484353 
 13604      525F4255 
 13604      53464155 
 13604      4C545045 
 13605              	.LASF1029:
 13606 8433 50415241 		.ascii	"PARAM_UART_FIFO_LEVEL(fifo) ((fifo==UART_FIFO_TRGLE"
 13606      4D5F5541 
 13606      52545F46 
 13606      49464F5F 
 13606      4C455645 
 13607 8466 56302920 		.ascii	"V0) || (fifo==UART_FIFO_TRGLEV1) || (fifo==UART_FIF"
 13607      7C7C2028 
 13607      6669666F 
 13607      3D3D5541 
 13607      52545F46 
 13608 8499 4F5F5452 		.ascii	"O_TRGLEV2) || (fifo==UART_FIFO_TRGLEV3))\000"
 13608      474C4556 
 13608      3229207C 
 13608      7C202866 
 13608      69666F3D 
 13609              	.LASF1156:
 13610 84c2 434C4B50 		.ascii	"CLKPWR_PCONP_PCENET ((uint32_t)(1<<30))\000"
 13610      57525F50 
 13610      434F4E50 
 13610      5F504345 
 13610      4E455420 
 13611              	.LASF861:
 13612 84ea 4C50435F 		.ascii	"LPC_GPIO4_BASE (LPC_GPIO_BASE + 0x00080)\000"
 13612      4750494F 
 13612      345F4241 
 13612      53452028 
 13612      4C50435F 
 13613              	.LASF267:
 13614 8513 5F5F5151 		.ascii	"__QQ_IBIT__ 0\000"
 13614      5F494249 
 13614      545F5F20 
 13614      3000
 13615              	.LASF980:
 13616 8521 55415254 		.ascii	"UART_LSR_OE ((uint8_t)(1<<1))\000"
 13616      5F4C5352 
 13616      5F4F4520 
 13616      28287569 
 13616      6E74385F 
ARM GAS  C:\Users\STUDENT\AppData\Local\Temp\ccMxouBa.s 			page 342


 13617              	.LASF712:
 13618 853f 4D50555F 		.ascii	"MPU_RBAR_ADDR_Pos 5\000"
 13618      52424152 
 13618      5F414444 
 13618      525F506F 
 13618      73203500 
 13619              	.LASF1270:
 13620 8553 55415254 		.ascii	"UART_IrDA_PULSEDIV2\000"
 13620      5F497244 
 13620      415F5055 
 13620      4C534544 
 13620      49563200 
 13621              	.LASF732:
 13622 8567 4D50555F 		.ascii	"MPU_RASR_SIZE_Pos 1\000"
 13622      52415352 
 13622      5F53495A 
 13622      455F506F 
 13622      73203100 
 13623              	.LASF1271:
 13624 857b 55415254 		.ascii	"UART_IrDA_PULSEDIV4\000"
 13624      5F497244 
 13624      415F5055 
 13624      4C534544 
 13624      49563400 
 13625              	.LASF256:
 13626 858f 5F5F4C4C 		.ascii	"__LLACCUM_FBIT__ 31\000"
 13626      41434355 
 13626      4D5F4642 
 13626      49545F5F 
 13626      20333100 
 13627              	.LASF1055:
 13628 85a3 434C4B50 		.ascii	"CLKPWR_CLKOUTCFG_CLKOUTDIV(n) ((uint32_t)((n&0x0F)<"
 13628      57525F43 
 13628      4C4B4F55 
 13628      54434647 
 13628      5F434C4B 
 13629 85d6 3C342929 		.ascii	"<4))\000"
 13629      00
 13630              	.LASF924:
 13631 85db 55415254 		.ascii	"UART_RBR_MASKBIT ((uint8_t)0xFF)\000"
 13631      5F524252 
 13631      5F4D4153 
 13631      4B424954 
 13631      20282875 
 13632              	.LASF1272:
 13633 85fc 55415254 		.ascii	"UART_IrDA_PULSEDIV8\000"
 13633      5F497244 
 13633      415F5055 
 13633      4C534544 
 13633      49563800 
 13634              	.LASF128:
 13635 8610 5F5F464C 		.ascii	"__FLT_MAX_10_EXP__ 38\000"
 13635      545F4D41 
 13635      585F3130 
 13635      5F455850 
 13635      5F5F2033 
 13636              	.LASF466:
ARM GAS  C:\Users\STUDENT\AppData\Local\Temp\ccMxouBa.s 			page 343


 13637 8626 55494E54 		.ascii	"UINT_LEAST8_MAX (__UINT_LEAST8_MAX__)\000"
 13637      5F4C4541 
 13637      5354385F 
 13637      4D415820 
 13637      285F5F55 
 13638              	.LASF281:
 13639 864c 5F5F5553 		.ascii	"__USQ_IBIT__ 0\000"
 13639      515F4942 
 13639      49545F5F 
 13639      203000
 13640              	.LASF3:
 13641 865b 5F5F474E 		.ascii	"__GNUC_MINOR__ 4\000"
 13641      55435F4D 
 13641      494E4F52 
 13641      5F5F2034 
 13641      00
 13642              	.LASF52:
 13643 866c 5F5F5549 		.ascii	"__UINT_LEAST32_TYPE__ long unsigned int\000"
 13643      4E545F4C 
 13643      45415354 
 13643      33325F54 
 13643      5950455F 
 13644              	.LASF683:
 13645 8694 49544D5F 		.ascii	"ITM_IMCR_INTEGRATION_Msk (1UL << ITM_IMCR_INTEGRATI"
 13645      494D4352 
 13645      5F494E54 
 13645      45475241 
 13645      54494F4E 
 13646 86c7 4F4E5F50 		.ascii	"ON_Pos)\000"
 13646      6F732900 
 13647              	.LASF279:
 13648 86cf 5F5F5548 		.ascii	"__UHQ_IBIT__ 0\000"
 13648      515F4942 
 13648      49545F5F 
 13648      203000
 13649              	.LASF843:
 13650 86de 4C50435F 		.ascii	"LPC_MCPWM_BASE (LPC_APB1_BASE + 0x38000)\000"
 13650      4D435057 
 13650      4D5F4241 
 13650      53452028 
 13650      4C50435F 
 13651              	.LASF1226:
 13652 8707 466C6167 		.ascii	"FlagStatus\000"
 13652      53746174 
 13652      757300
 13653              	.LASF316:
 13654 8712 5F5F4743 		.ascii	"__GCC_ATOMIC_INT_LOCK_FREE 2\000"
 13654      435F4154 
 13654      4F4D4943 
 13654      5F494E54 
 13654      5F4C4F43 
 13655              	.LASF306:
 13656 872f 5F5F4348 		.ascii	"__CHAR_UNSIGNED__ 1\000"
 13656      41525F55 
 13656      4E534947 
 13656      4E45445F 
 13656      5F203100 
ARM GAS  C:\Users\STUDENT\AppData\Local\Temp\ccMxouBa.s 			page 344


 13657              	.LASF611:
 13658 8743 5343425F 		.ascii	"SCB_SHCSR_MONITORACT_Msk (1UL << SCB_SHCSR_MONITORA"
 13658      53484353 
 13658      525F4D4F 
 13658      4E49544F 
 13658      52414354 
 13659 8776 43545F50 		.ascii	"CT_Pos)\000"
 13659      6F732900 
 13660              	.LASF787:
 13661 877e 436F7265 		.ascii	"CoreDebug_DEMCR_VC_MMERR_Msk (1UL << CoreDebug_DEMC"
 13661      44656275 
 13661      675F4445 
 13661      4D43525F 
 13661      56435F4D 
 13662 87b1 525F5643 		.ascii	"R_VC_MMERR_Pos)\000"
 13662      5F4D4D45 
 13662      52525F50 
 13662      6F732900 
 13663              	.LASF746:
 13664 87c1 436F7265 		.ascii	"CoreDebug_DHCSR_S_HALT_Pos 17\000"
 13664      44656275 
 13664      675F4448 
 13664      4353525F 
 13664      535F4841 
 13665              	.LASF1280:
 13666 87df 41435449 		.ascii	"ACTIVE\000"
 13666      564500
 13667              	.LASF114:
 13668 87e6 5F5F5549 		.ascii	"__UINT_FAST32_MAX__ 0xffffffffU\000"
 13668      4E545F46 
 13668      41535433 
 13668      325F4D41 
 13668      585F5F20 
 13669              	.LASF710:
 13670 8806 4D50555F 		.ascii	"MPU_RNR_REGION_Pos 0\000"
 13670      524E525F 
 13670      52454749 
 13670      4F4E5F50 
 13670      6F732030 
 13671              	.LASF1096:
 13672 881b 434C4B50 		.ascii	"CLKPWR_PCON_SMFLAG ((uint32_t)(1<<8))\000"
 13672      57525F50 
 13672      434F4E5F 
 13672      534D464C 
 13672      41472028 
 13673              	.LASF1367:
 13674 8841 55415254 		.ascii	"UART_FullModemForcePinState\000"
 13674      5F46756C 
 13674      6C4D6F64 
 13674      656D466F 
 13674      72636550 
 13675              	.LASF975:
 13676 885d 55415254 		.ascii	"UART1_MCR_LOOPB_EN ((uint8_t)(1<<4))\000"
 13676      315F4D43 
 13676      525F4C4F 
 13676      4F50425F 
 13676      454E2028 
ARM GAS  C:\Users\STUDENT\AppData\Local\Temp\ccMxouBa.s 			page 345


 13677              	.LASF606:
 13678 8882 5343425F 		.ascii	"SCB_SHCSR_SYSTICKACT_Pos 11\000"
 13678      53484353 
 13678      525F5359 
 13678      53544943 
 13678      4B414354 
 13679              	.LASF401:
 13680 889e 5F5F5F69 		.ascii	"___int_least32_t_defined 1\000"
 13680      6E745F6C 
 13680      65617374 
 13680      33325F74 
 13680      5F646566 
 13681              	.LASF326:
 13682 88b9 5F5F4152 		.ascii	"__ARM_FEATURE_QBIT 1\000"
 13682      4D5F4645 
 13682      41545552 
 13682      455F5142 
 13682      49542031 
 13683              	.LASF685:
 13684 88ce 49544D5F 		.ascii	"ITM_LSR_ByteAcc_Msk (1UL << ITM_LSR_ByteAcc_Pos)\000"
 13684      4C53525F 
 13684      42797465 
 13684      4163635F 
 13684      4D736B20 
 13685              	.LASF235:
 13686 88ff 5F5F5553 		.ascii	"__USACCUM_EPSILON__ 0x1P-8UHK\000"
 13686      41434355 
 13686      4D5F4550 
 13686      53494C4F 
 13686      4E5F5F20 
 13687              	.LASF150:
 13688 891d 5F5F4442 		.ascii	"__DBL_HAS_QUIET_NAN__ 1\000"
 13688      4C5F4841 
 13688      535F5155 
 13688      4945545F 
 13688      4E414E5F 
 13689              	.LASF545:
 13690 8935 5343425F 		.ascii	"SCB_ICSR_PENDSTCLR_Msk (1UL << SCB_ICSR_PENDSTCLR_P"
 13690      49435352 
 13690      5F50454E 
 13690      44535443 
 13690      4C525F4D 
 13691 8968 6F732900 		.ascii	"os)\000"
 13692              	.LASF513:
 13693 896c 494E5433 		.ascii	"INT32_C(x) __INT32_C(x)\000"
 13693      325F4328 
 13693      7829205F 
 13693      5F494E54 
 13693      33325F43 
 13694              	.LASF490:
 13695 8984 55494E54 		.ascii	"UINT_FAST16_MAX (__UINT_FAST16_MAX__)\000"
 13695      5F464153 
 13695      5431365F 
 13695      4D415820 
 13695      285F5F55 
 13696              	.LASF219:
 13697 89aa 5F5F4C4C 		.ascii	"__LLFRACT_MAX__ 0X7FFFFFFFFFFFFFFFP-63LLR\000"
ARM GAS  C:\Users\STUDENT\AppData\Local\Temp\ccMxouBa.s 			page 346


 13697      46524143 
 13697      545F4D41 
 13697      585F5F20 
 13697      30583746 
 13698              	.LASF181:
 13699 89d4 5F5F4445 		.ascii	"__DEC128_MAX_EXP__ 6145\000"
 13699      43313238 
 13699      5F4D4158 
 13699      5F455850 
 13699      5F5F2036 
 13700              	.LASF328:
 13701 89ec 5F5F4152 		.ascii	"__ARM_FEATURE_UNALIGNED 1\000"
 13701      4D5F4645 
 13701      41545552 
 13701      455F554E 
 13701      414C4947 
 13702              	.LASF478:
 13703 8a06 55494E54 		.ascii	"UINT_LEAST32_MAX (__UINT_LEAST32_MAX__)\000"
 13703      5F4C4541 
 13703      53543332 
 13703      5F4D4158 
 13703      20285F5F 
 13704              	.LASF952:
 13705 8a2e 55415254 		.ascii	"UART_FCR_TX_RS ((uint8_t)(1<<2))\000"
 13705      5F464352 
 13705      5F54585F 
 13705      52532028 
 13705      2875696E 
 13706              	.LASF945:
 13707 8a4f 55415254 		.ascii	"UART_IIR_INTID_MASK ((uint32_t)(7<<1))\000"
 13707      5F494952 
 13707      5F494E54 
 13707      49445F4D 
 13707      41534B20 
 13708              	.LASF539:
 13709 8a76 5343425F 		.ascii	"SCB_ICSR_PENDSVSET_Msk (1UL << SCB_ICSR_PENDSVSET_P"
 13709      49435352 
 13709      5F50454E 
 13709      44535653 
 13709      45545F4D 
 13710 8aa9 6F732900 		.ascii	"os)\000"
 13711              	.LASF654:
 13712 8aad 53797354 		.ascii	"SysTick_CALIB_NOREF_Pos 31\000"
 13712      69636B5F 
 13712      43414C49 
 13712      425F4E4F 
 13712      5245465F 
 13713              	.LASF229:
 13714 8ac8 5F5F5341 		.ascii	"__SACCUM_MAX__ 0X7FFFP-7HK\000"
 13714      4343554D 
 13714      5F4D4158 
 13714      5F5F2030 
 13714      58374646 
 13715              	.LASF62:
 13716 8ae3 5F5F494E 		.ascii	"__INTPTR_TYPE__ int\000"
 13716      54505452 
 13716      5F545950 
ARM GAS  C:\Users\STUDENT\AppData\Local\Temp\ccMxouBa.s 			page 347


 13716      455F5F20 
 13716      696E7400 
 13717              	.LASF572:
 13718 8af7 5343425F 		.ascii	"SCB_AIRCR_VECTRESET_Pos 0\000"
 13718      41495243 
 13718      525F5645 
 13718      43545245 
 13718      5345545F 
 13719              	.LASF63:
 13720 8b11 5F5F5549 		.ascii	"__UINTPTR_TYPE__ unsigned int\000"
 13720      4E545054 
 13720      525F5459 
 13720      50455F5F 
 13720      20756E73 
 13721              	.LASF1357:
 13722 8b2f 55415254 		.ascii	"UARTIntCfg\000"
 13722      496E7443 
 13722      666700
 13723              	.LASF672:
 13724 8b3a 49544D5F 		.ascii	"ITM_TCR_SYNCENA_Pos 2\000"
 13724      5443525F 
 13724      53594E43 
 13724      454E415F 
 13724      506F7320 
 13725              	.LASF302:
 13726 8b50 5F5F5245 		.ascii	"__REGISTER_PREFIX__ \000"
 13726      47495354 
 13726      45525F50 
 13726      52454649 
 13726      585F5F20 
 13727              	.LASF185:
 13728 8b65 5F5F4445 		.ascii	"__DEC128_SUBNORMAL_MIN__ 0.000000000000000000000000"
 13728      43313238 
 13728      5F535542 
 13728      4E4F524D 
 13728      414C5F4D 
 13729 8b98 30303030 		.ascii	"000000001E-6143DL\000"
 13729      30303030 
 13729      31452D36 
 13729      31343344 
 13729      4C00
 13730              	.LASF1224:
 13731 8baa 4C50435F 		.ascii	"LPC_UART1_TypeDef\000"
 13731      55415254 
 13731      315F5479 
 13731      70654465 
 13731      6600
 13732              	.LASF215:
 13733 8bbc 5F5F554C 		.ascii	"__ULFRACT_EPSILON__ 0x1P-32ULR\000"
 13733      46524143 
 13733      545F4550 
 13733      53494C4F 
 13733      4E5F5F20 
 13734              	.LASF557:
 13735 8bdb 5343425F 		.ascii	"SCB_VTOR_TBLBASE_Msk (1UL << SCB_VTOR_TBLBASE_Pos)\000"
 13735      56544F52 
 13735      5F54424C 
ARM GAS  C:\Users\STUDENT\AppData\Local\Temp\ccMxouBa.s 			page 348


 13735      42415345 
 13735      5F4D736B 
 13736              	.LASF565:
 13737 8c0e 5343425F 		.ascii	"SCB_AIRCR_ENDIANESS_Msk (1UL << SCB_AIRCR_ENDIANESS"
 13737      41495243 
 13737      525F454E 
 13737      4449414E 
 13737      4553535F 
 13738 8c41 5F506F73 		.ascii	"_Pos)\000"
 13738      2900
 13739              	.LASF1117:
 13740 8c47 434C4B50 		.ascii	"CLKPWR_PCLKSEL_I2C1 ((uint32_t)(38))\000"
 13740      57525F50 
 13740      434C4B53 
 13740      454C5F49 
 13740      32433120 
 13741              	.LASF1070:
 13742 8c6c 434C4B50 		.ascii	"CLKPWR_PLL0FEED_BITMASK ((uint32_t)0xFF)\000"
 13742      57525F50 
 13742      4C4C3046 
 13742      4545445F 
 13742      4249544D 
 13743              	.LASF20:
 13744 8c95 5F5F5349 		.ascii	"__SIZEOF_SIZE_T__ 4\000"
 13744      5A454F46 
 13744      5F53495A 
 13744      455F545F 
 13744      5F203400 
 13745              	.LASF45:
 13746 8ca9 5F5F5549 		.ascii	"__UINT64_TYPE__ long long unsigned int\000"
 13746      4E543634 
 13746      5F545950 
 13746      455F5F20 
 13746      6C6F6E67 
 13747              	.LASF182:
 13748 8cd0 5F5F4445 		.ascii	"__DEC128_MIN__ 1E-6143DL\000"
 13748      43313238 
 13748      5F4D494E 
 13748      5F5F2031 
 13748      452D3631 
 13749              	.LASF99:
 13750 8ce9 5F5F494E 		.ascii	"__INT64_C(c) c ## LL\000"
 13750      5436345F 
 13750      43286329 
 13750      20632023 
 13750      23204C4C 
 13751              	.LASF247:
 13752 8cfe 5F5F4C41 		.ascii	"__LACCUM_IBIT__ 32\000"
 13752      4343554D 
 13752      5F494249 
 13752      545F5F20 
 13752      333200
 13753              	.LASF722:
 13754 8d11 4D50555F 		.ascii	"MPU_RASR_TEX_Pos 19\000"
 13754      52415352 
 13754      5F544558 
 13754      5F506F73 
ARM GAS  C:\Users\STUDENT\AppData\Local\Temp\ccMxouBa.s 			page 349


 13754      20313900 
 13755              	.LASF154:
 13756 8d25 5F5F4C44 		.ascii	"__LDBL_MIN_10_EXP__ (-307)\000"
 13756      424C5F4D 
 13756      494E5F31 
 13756      305F4558 
 13756      505F5F20 
 13757              	.LASF588:
 13758 8d40 5343425F 		.ascii	"SCB_CCR_USERSETMPEND_Pos 1\000"
 13758      4343525F 
 13758      55534552 
 13758      5345544D 
 13758      50454E44 
 13759              	.LASF1085:
 13760 8d5b 434C4B50 		.ascii	"CLKPWR_IRCTRIM_BITMASK ((uint32_t)(0x0F))\000"
 13760      57525F49 
 13760      52435452 
 13760      494D5F42 
 13760      49544D41 
 13761              	.LASF839:
 13762 8d85 4C50435F 		.ascii	"LPC_UART3_BASE (LPC_APB1_BASE + 0x1C000)\000"
 13762      55415254 
 13762      335F4241 
 13762      53452028 
 13762      4C50435F 
 13763              	.LASF1007:
 13764 8dae 55415254 		.ascii	"UART_ICR_PULSEDIV(n) ((uint32_t)((n&0x07)<<3))\000"
 13764      5F494352 
 13764      5F50554C 
 13764      53454449 
 13764      56286E29 
 13765              	.LASF159:
 13766 8ddd 5F5F4C44 		.ascii	"__LDBL_MIN__ 2.2250738585072014e-308L\000"
 13766      424C5F4D 
 13766      494E5F5F 
 13766      20322E32 
 13766      32353037 
 13767              	.LASF730:
 13768 8e03 4D50555F 		.ascii	"MPU_RASR_SRD_Pos 8\000"
 13768      52415352 
 13768      5F535244 
 13768      5F506F73 
 13768      203800
 13769              	.LASF237:
 13770 8e16 5F5F4143 		.ascii	"__ACCUM_IBIT__ 16\000"
 13770      43554D5F 
 13770      49424954 
 13770      5F5F2031 
 13770      3600
 13771              	.LASF744:
 13772 8e28 436F7265 		.ascii	"CoreDebug_DHCSR_S_SLEEP_Pos 18\000"
 13772      44656275 
 13772      675F4448 
 13772      4353525F 
 13772      535F534C 
 13773              	.LASF373:
 13774 8e47 5F5F4E45 		.ascii	"__NEWLIB_MINOR__ 4\000"
ARM GAS  C:\Users\STUDENT\AppData\Local\Temp\ccMxouBa.s 			page 350


 13774      574C4942 
 13774      5F4D494E 
 13774      4F525F5F 
 13774      203400
 13775              	.LASF1348:
 13776 8e5a 44617461 		.ascii	"Data\000"
 13776      00
 13777              	.LASF1300:
 13778 8e5f 4649464F 		.ascii	"FIFO_Level\000"
 13778      5F4C6576 
 13778      656C00
 13779              	.LASF988:
 13780 8e6a 55415254 		.ascii	"UART1_MSR_DELTA_CTS ((uint8_t)(1<<0))\000"
 13780      315F4D53 
 13780      525F4445 
 13780      4C54415F 
 13780      43545320 
 13781              	.LASF1407:
 13782 8e90 70666E4D 		.ascii	"pfnModemCbs\000"
 13782      6F64656D 
 13782      43627300 
 13783              	.LASF1066:
 13784 8e9c 434C4B50 		.ascii	"CLKPWR_PLL0STAT_NSEL(n) ((uint32_t)((n>>16)&0xFF))\000"
 13784      57525F50 
 13784      4C4C3053 
 13784      5441545F 
 13784      4E53454C 
 13785              	.LASF1193:
 13786 8ecf 73686F72 		.ascii	"short int\000"
 13786      7420696E 
 13786      7400
 13787              	.LASF1006:
 13788 8ed9 55415254 		.ascii	"UART_ICR_FIXPULSE_EN ((uint32_t)(1<<2))\000"
 13788      5F494352 
 13788      5F464958 
 13788      50554C53 
 13788      455F454E 
 13789              	.LASF511:
 13790 8f01 494E5431 		.ascii	"INT16_C(x) __INT16_C(x)\000"
 13790      365F4328 
 13790      7829205F 
 13790      5F494E54 
 13790      31365F43 
 13791              	.LASF201:
 13792 8f19 5F5F5546 		.ascii	"__UFRACT_FBIT__ 16\000"
 13792      52414354 
 13792      5F464249 
 13792      545F5F20 
 13792      313600
 13793              	.LASF1277:
 13794 8f2c 55415254 		.ascii	"UART_IrDA_PULSEDIV256\000"
 13794      5F497244 
 13794      415F5055 
 13794      4C534544 
 13794      49563235 
 13795              	.LASF923:
 13796 8f42 55415254 		.ascii	"UART_ACCEPTED_BAUDRATE_ERROR (3)\000"
ARM GAS  C:\Users\STUDENT\AppData\Local\Temp\ccMxouBa.s 			page 351


 13796      5F414343 
 13796      45505445 
 13796      445F4241 
 13796      55445241 
 13797              	.LASF299:
 13798 8f63 5F5F5544 		.ascii	"__UDA_IBIT__ 32\000"
 13798      415F4942 
 13798      49545F5F 
 13798      20333200 
 13799              	.LASF1351:
 13800 8f73 55415254 		.ascii	"UART_IrDAInvtInputCmd\000"
 13800      5F497244 
 13800      41496E76 
 13800      74496E70 
 13800      7574436D 
 13801              	.LASF1275:
 13802 8f89 55415254 		.ascii	"UART_IrDA_PULSEDIV64\000"
 13802      5F497244 
 13802      415F5055 
 13802      4C534544 
 13802      49563634 
 13803              	.LASF762:
 13804 8f9e 436F7265 		.ascii	"CoreDebug_DCRSR_REGSEL_Pos 0\000"
 13804      44656275 
 13804      675F4443 
 13804      5253525F 
 13804      52454753 
 13805              	.LASF479:
 13806 8fbb 494E5436 		.ascii	"INT64_MIN (-__INT64_MAX__ - 1)\000"
 13806      345F4D49 
 13806      4E20282D 
 13806      5F5F494E 
 13806      5436345F 
 13807              	.LASF849:
 13808 8fda 4C50435F 		.ascii	"LPC_GPDMACH1_BASE (LPC_AHB_BASE + 0x04120)\000"
 13808      4750444D 
 13808      41434831 
 13808      5F424153 
 13808      4520284C 
 13809              	.LASF6:
 13810 9005 5F5F4154 		.ascii	"__ATOMIC_RELAXED 0\000"
 13810      4F4D4943 
 13810      5F52454C 
 13810      41584544 
 13810      203000
 13811              	.LASF407:
 13812 9018 5F5F6861 		.ascii	"__have_long32 1\000"
 13812      76655F6C 
 13812      6F6E6733 
 13812      32203100 
 13813              	.LASF714:
 13814 9028 4D50555F 		.ascii	"MPU_RBAR_VALID_Pos 4\000"
 13814      52424152 
 13814      5F56414C 
 13814      49445F50 
 13814      6F732034 
 13815              	.LASF1269:
ARM GAS  C:\Users\STUDENT\AppData\Local\Temp\ccMxouBa.s 			page 352


 13816 903d 55415254 		.ascii	"UART_AB_CFG_Type\000"
 13816      5F41425F 
 13816      4346475F 
 13816      54797065 
 13816      00
 13817              	.LASF632:
 13818 904e 5343425F 		.ascii	"SCB_DFSR_EXTERNAL_Pos 4\000"
 13818      44465352 
 13818      5F455854 
 13818      45524E41 
 13818      4C5F506F 
 13819              	.LASF149:
 13820 9066 5F5F4442 		.ascii	"__DBL_HAS_INFINITY__ 1\000"
 13820      4C5F4841 
 13820      535F494E 
 13820      46494E49 
 13820      54595F5F 
 13821              	.LASF751:
 13822 907d 436F7265 		.ascii	"CoreDebug_DHCSR_C_SNAPSTALL_Msk (1UL << CoreDebug_D"
 13822      44656275 
 13822      675F4448 
 13822      4353525F 
 13822      435F534E 
 13823 90b0 48435352 		.ascii	"HCSR_C_SNAPSTALL_Pos)\000"
 13823      5F435F53 
 13823      4E415053 
 13823      54414C4C 
 13823      5F506F73 
 13824              	.LASF82:
 13825 90c6 5F5F5349 		.ascii	"__SIG_ATOMIC_MAX__ 0x7fffffff\000"
 13825      475F4154 
 13825      4F4D4943 
 13825      5F4D4158 
 13825      5F5F2030 
 13826              	.LASF481:
 13827 90e4 55494E54 		.ascii	"UINT64_MAX (__UINT64_MAX__)\000"
 13827      36345F4D 
 13827      41582028 
 13827      5F5F5549 
 13827      4E543634 
 13828              	.LASF1084:
 13829 9100 434C4B50 		.ascii	"CLKPWR_USBCLKCFG_BITMASK ((uint32_t)(0x0F))\000"
 13829      57525F55 
 13829      5342434C 
 13829      4B434647 
 13829      5F424954 
 13830              	.LASF951:
 13831 912c 55415254 		.ascii	"UART_FCR_RX_RS ((uint8_t)(1<<1))\000"
 13831      5F464352 
 13831      5F52585F 
 13831      52532028 
 13831      2875696E 
 13832              	.LASF958:
 13833 914d 55415254 		.ascii	"UART_FCR_BITMASK ((uint8_t)(0xCF))\000"
 13833      5F464352 
 13833      5F424954 
 13833      4D41534B 
ARM GAS  C:\Users\STUDENT\AppData\Local\Temp\ccMxouBa.s 			page 353


 13833      20282875 
 13834              	.LASF527:
 13835 9170 5F5F494F 		.ascii	"__IO volatile\000"
 13835      20766F6C 
 13835      6174696C 
 13835      6500
 13836              	.LASF890:
 13837 917e 4C50435F 		.ascii	"LPC_DAC ((LPC_DAC_TypeDef *) LPC_DAC_BASE )\000"
 13837      44414320 
 13837      28284C50 
 13837      435F4441 
 13837      435F5479 
 13838              	.LASF754:
 13839 91aa 436F7265 		.ascii	"CoreDebug_DHCSR_C_STEP_Pos 2\000"
 13839      44656275 
 13839      675F4448 
 13839      4353525F 
 13839      435F5354 
 13840              	.LASF1257:
 13841 91c7 55415254 		.ascii	"UART_INTCFG_THRE\000"
 13841      5F494E54 
 13841      4346475F 
 13841      54485245 
 13841      00
 13842              	.LASF626:
 13843 91d8 5343425F 		.ascii	"SCB_HFSR_DEBUGEVT_Pos 31\000"
 13843      48465352 
 13843      5F444542 
 13843      55474556 
 13843      545F506F 
 13844              	.LASF17:
 13845 91f1 5F5F5349 		.ascii	"__SIZEOF_FLOAT__ 4\000"
 13845      5A454F46 
 13845      5F464C4F 
 13845      41545F5F 
 13845      203400
 13846              	.LASF1021:
 13847 9204 55415254 		.ascii	"UART1_RS485ADRMATCH_BITMASK ((uint8_t)(0xFF))\000"
 13847      315F5253 
 13847      34383541 
 13847      44524D41 
 13847      5443485F 
 13848              	.LASF510:
 13849 9232 55494E54 		.ascii	"UINT8_C(x) __UINT8_C(x)\000"
 13849      385F4328 
 13849      7829205F 
 13849      5F55494E 
 13849      54385F43 
 13850              	.LASF1292:
 13851 924a 42617564 		.ascii	"Baud_rate\000"
 13851      5F726174 
 13851      6500
 13852              	.LASF788:
 13853 9254 436F7265 		.ascii	"CoreDebug_DEMCR_VC_CORERESET_Pos 0\000"
 13853      44656275 
 13853      675F4445 
 13853      4D43525F 
ARM GAS  C:\Users\STUDENT\AppData\Local\Temp\ccMxouBa.s 			page 354


 13853      56435F43 
 13854              	.LASF143:
 13855 9277 5F5F4442 		.ascii	"__DBL_DECIMAL_DIG__ 17\000"
 13855      4C5F4445 
 13855      43494D41 
 13855      4C5F4449 
 13855      475F5F20 
 13856              	.LASF540:
 13857 928e 5343425F 		.ascii	"SCB_ICSR_PENDSVCLR_Pos 27\000"
 13857      49435352 
 13857      5F50454E 
 13857      44535643 
 13857      4C525F50 
 13858              	.LASF756:
 13859 92a8 436F7265 		.ascii	"CoreDebug_DHCSR_C_HALT_Pos 1\000"
 13859      44656275 
 13859      675F4448 
 13859      4353525F 
 13859      435F4841 
 13860              	.LASF1347:
 13861 92c5 55415254 		.ascii	"UART_SendData\000"
 13861      5F53656E 
 13861      64446174 
 13861      6100
 13862              	.LASF464:
 13863 92d3 494E545F 		.ascii	"INT_LEAST8_MIN (-__INT_LEAST8_MAX__ - 1)\000"
 13863      4C454153 
 13863      54385F4D 
 13863      494E2028 
 13863      2D5F5F49 
 13864              	.LASF1229:
 13865 92fc 454E4142 		.ascii	"ENABLE\000"
 13865      4C4500
 13866              	.LASF251:
 13867 9303 5F5F554C 		.ascii	"__ULACCUM_FBIT__ 32\000"
 13867      41434355 
 13867      4D5F4642 
 13867      49545F5F 
 13867      20333200 
 13868              	.LASF564:
 13869 9317 5343425F 		.ascii	"SCB_AIRCR_ENDIANESS_Pos 15\000"
 13869      41495243 
 13869      525F454E 
 13869      4449414E 
 13869      4553535F 
 13870              	.LASF1010:
 13871 9332 55415254 		.ascii	"UART_FDR_MULVAL(n) ((uint32_t)((n<<4)&0xF0))\000"
 13871      5F464452 
 13871      5F4D554C 
 13871      56414C28 
 13871      6E292028 
 13872              	.LASF516:
 13873 935f 55494E54 		.ascii	"UINT64_C(x) __UINT64_C(x)\000"
 13873      36345F43 
 13873      28782920 
 13873      5F5F5549 
 13873      4E543634 
ARM GAS  C:\Users\STUDENT\AppData\Local\Temp\ccMxouBa.s 			page 355


 13874              	.LASF447:
 13875 9379 5F5F696E 		.ascii	"__int64_t_defined 1\000"
 13875      7436345F 
 13875      745F6465 
 13875      66696E65 
 13875      64203100 
 13876              	.LASF85:
 13877 938d 5F5F494E 		.ascii	"__INT16_MAX__ 0x7fff\000"
 13877      5431365F 
 13877      4D41585F 
 13877      5F203078 
 13877      37666666 
 13878              	.LASF748:
 13879 93a2 436F7265 		.ascii	"CoreDebug_DHCSR_S_REGRDY_Pos 16\000"
 13879      44656275 
 13879      675F4448 
 13879      4353525F 
 13879      535F5245 
 13880              	.LASF525:
 13881 93c2 5F5F4920 		.ascii	"__I volatile const\000"
 13881      766F6C61 
 13881      74696C65 
 13881      20636F6E 
 13881      737400
 13882              	.LASF681:
 13883 93d5 49544D5F 		.ascii	"ITM_IRR_ATREADYM_Msk (1UL << ITM_IRR_ATREADYM_Pos)\000"
 13883      4952525F 
 13883      41545245 
 13883      4144594D 
 13883      5F4D736B 
 13884              	.LASF1129:
 13885 9408 434C4B50 		.ascii	"CLKPWR_PCLKSEL_CCLK_DIV_1 ((uint32_t)(1))\000"
 13885      57525F50 
 13885      434C4B53 
 13885      454C5F43 
 13885      434C4B5F 
 13886              	.LASF427:
 13887 9432 5F5F4641 		.ascii	"__FAST8 \000"
 13887      53543820 
 13887      00
 13888              	.LASF393:
 13889 943b 5F5F5853 		.ascii	"__XSI_VISIBLE 0\000"
 13889      495F5649 
 13889      5349424C 
 13889      45203000 
 13890              	.LASF1121:
 13891 944b 434C4B50 		.ascii	"CLKPWR_PCLKSEL_UART2 ((uint32_t)(48))\000"
 13891      57525F50 
 13891      434C4B53 
 13891      454C5F55 
 13891      41525432 
 13892              	.LASF950:
 13893 9471 55415254 		.ascii	"UART_FCR_FIFO_EN ((uint8_t)(1<<0))\000"
 13893      5F464352 
 13893      5F464946 
 13893      4F5F454E 
 13893      20282875 
ARM GAS  C:\Users\STUDENT\AppData\Local\Temp\ccMxouBa.s 			page 356


 13894              	.LASF266:
 13895 9494 5F5F5151 		.ascii	"__QQ_FBIT__ 7\000"
 13895      5F464249 
 13895      545F5F20 
 13895      3700
 13896              	.LASF1244:
 13897 94a2 55415254 		.ascii	"UART_STOPBIT_Type\000"
 13897      5F53544F 
 13897      50424954 
 13897      5F547970 
 13897      6500
 13898              	.LASF225:
 13899 94b4 5F5F554C 		.ascii	"__ULLFRACT_EPSILON__ 0x1P-64ULLR\000"
 13899      4C465241 
 13899      43545F45 
 13899      5053494C 
 13899      4F4E5F5F 
 13900              	.LASF236:
 13901 94d5 5F5F4143 		.ascii	"__ACCUM_FBIT__ 15\000"
 13901      43554D5F 
 13901      46424954 
 13901      5F5F2031 
 13901      3500
 13902              	.LASF623:
 13903 94e7 5343425F 		.ascii	"SCB_CFSR_BUSFAULTSR_Msk (0xFFUL << SCB_CFSR_BUSFAUL"
 13903      43465352 
 13903      5F425553 
 13903      4641554C 
 13903      5453525F 
 13904 951a 5453525F 		.ascii	"TSR_Pos)\000"
 13904      506F7329 
 13904      00
 13905              	.LASF960:
 13906 9523 55415254 		.ascii	"UART_LCR_WLEN5 ((uint8_t)(0))\000"
 13906      5F4C4352 
 13906      5F574C45 
 13906      4E352028 
 13906      2875696E 
 13907              	.LASF1104:
 13908 9541 434C4B50 		.ascii	"CLKPWR_PCLKSEL_UART0 ((uint32_t)(6))\000"
 13908      57525F50 
 13908      434C4B53 
 13908      454C5F55 
 13908      41525430 
 13909              	.LASF449:
 13910 9566 5F55494E 		.ascii	"_UINTPTR_T_DECLARED \000"
 13910      54505452 
 13910      5F545F44 
 13910      45434C41 
 13910      52454420 
 13911              	.LASF376:
 13912 957b 5F5F474E 		.ascii	"__GNUC_PREREQ__(ma,mi) __GNUC_PREREQ(ma, mi)\000"
 13912      55435F50 
 13912      52455245 
 13912      515F5F28 
 13912      6D612C6D 
 13913              	.LASF1324:
ARM GAS  C:\Users\STUDENT\AppData\Local\Temp\ccMxouBa.s 			page 357


 13914 95a8 62617564 		.ascii	"baudrate\000"
 13914      72617465 
 13914      00
 13915              	.LASF301:
 13916 95b1 5F5F5554 		.ascii	"__UTA_IBIT__ 64\000"
 13916      415F4942 
 13916      49545F5F 
 13916      20363400 
 13917              	.LASF262:
 13918 95c1 5F5F554C 		.ascii	"__ULLACCUM_IBIT__ 32\000"
 13918      4C414343 
 13918      554D5F49 
 13918      4249545F 
 13918      5F203332 
 13919              	.LASF1294:
 13920 95d6 44617461 		.ascii	"Databits\000"
 13920      62697473 
 13920      00
 13921              	.LASF1235:
 13922 95df 424C4F43 		.ascii	"BLOCKING\000"
 13922      4B494E47 
 13922      00
 13923              	.LASF1054:
 13924 95e8 434C4B50 		.ascii	"CLKPWR_CLKOUTCFG_CLKOUTSEL_RTC ((uint32_t)(0x04))\000"
 13924      57525F43 
 13924      4C4B4F55 
 13924      54434647 
 13924      5F434C4B 
 13925              	.LASF999:
 13926 961a 55415254 		.ascii	"UART_ACR_MODE ((uint32_t)(1<<1))\000"
 13926      5F414352 
 13926      5F4D4F44 
 13926      45202828 
 13926      75696E74 
 13927              	.LASF759:
 13928 963b 436F7265 		.ascii	"CoreDebug_DHCSR_C_DEBUGEN_Msk (1UL << CoreDebug_DHC"
 13928      44656275 
 13928      675F4448 
 13928      4353525F 
 13928      435F4445 
 13929 966e 53525F43 		.ascii	"SR_C_DEBUGEN_Pos)\000"
 13929      5F444542 
 13929      5547454E 
 13929      5F506F73 
 13929      2900
 13930              	.LASF324:
 13931 9680 5F5F5349 		.ascii	"__SIZEOF_WINT_T__ 4\000"
 13931      5A454F46 
 13931      5F57494E 
 13931      545F545F 
 13931      5F203400 
 13932              	.LASF720:
 13933 9694 4D50555F 		.ascii	"MPU_RASR_AP_Pos 24\000"
 13933      52415352 
 13933      5F41505F 
 13933      506F7320 
 13933      323400
ARM GAS  C:\Users\STUDENT\AppData\Local\Temp\ccMxouBa.s 			page 358


 13934              	.LASF653:
 13935 96a7 53797354 		.ascii	"SysTick_VAL_CURRENT_Msk (0xFFFFFFUL << SysTick_VAL_"
 13935      69636B5F 
 13935      56414C5F 
 13935      43555252 
 13935      454E545F 
 13936 96da 43555252 		.ascii	"CURRENT_Pos)\000"
 13936      454E545F 
 13936      506F7329 
 13936      00
 13937              	.LASF1411:
 13938 96e7 7374726C 		.ascii	"strlen\000"
 13938      656E00
 13939              	.LASF218:
 13940 96ee 5F5F4C4C 		.ascii	"__LLFRACT_MIN__ (-0.5LLR-0.5LLR)\000"
 13940      46524143 
 13940      545F4D49 
 13940      4E5F5F20 
 13940      282D302E 
 13941              	.LASF1304:
 13942 970f 4175746F 		.ascii	"AutoAddrDetect_State\000"
 13942      41646472 
 13942      44657465 
 13942      63745F53 
 13942      74617465 
 13943              	.LASF702:
 13944 9724 4D50555F 		.ascii	"MPU_TYPE_SEPARATE_Pos 0\000"
 13944      54595045 
 13944      5F534550 
 13944      41524154 
 13944      455F506F 
 13945              	.LASF248:
 13946 973c 5F5F4C41 		.ascii	"__LACCUM_MIN__ (-0X1P31LK-0X1P31LK)\000"
 13946      4343554D 
 13946      5F4D494E 
 13946      5F5F2028 
 13946      2D305831 
 13947              	.LASF108:
 13948 9760 5F5F494E 		.ascii	"__INT_FAST8_MAX__ 0x7fffffff\000"
 13948      545F4641 
 13948      5354385F 
 13948      4D41585F 
 13948      5F203078 
 13949              	.LASF147:
 13950 977d 5F5F4442 		.ascii	"__DBL_DENORM_MIN__ ((double)4.9406564584124654e-324"
 13950      4C5F4445 
 13950      4E4F524D 
 13950      5F4D494E 
 13950      5F5F2028 
 13951 97b0 4C2900   		.ascii	"L)\000"
 13952              	.LASF263:
 13953 97b3 5F5F554C 		.ascii	"__ULLACCUM_MIN__ 0.0ULLK\000"
 13953      4C414343 
 13953      554D5F4D 
 13953      494E5F5F 
 13953      20302E30 
 13954              	.LASF436:
ARM GAS  C:\Users\STUDENT\AppData\Local\Temp\ccMxouBa.s 			page 359


 13955 97cc 5F494E54 		.ascii	"_INT8_T_DECLARED \000"
 13955      385F545F 
 13955      4445434C 
 13955      41524544 
 13955      2000
 13956              	.LASF24:
 13957 97de 5F5F4F52 		.ascii	"__ORDER_BIG_ENDIAN__ 4321\000"
 13957      4445525F 
 13957      4249475F 
 13957      454E4449 
 13957      414E5F5F 
 13958              	.LASF501:
 13959 97f8 5349475F 		.ascii	"SIG_ATOMIC_MIN (-__STDINT_EXP(INT_MAX) - 1)\000"
 13959      41544F4D 
 13959      49435F4D 
 13959      494E2028 
 13959      2D5F5F53 
 13960              	.LASF314:
 13961 9824 5F5F4743 		.ascii	"__GCC_ATOMIC_WCHAR_T_LOCK_FREE 2\000"
 13961      435F4154 
 13961      4F4D4943 
 13961      5F574348 
 13961      41525F54 
 13962              	.LASF1113:
 13963 9845 434C4B50 		.ascii	"CLKPWR_PCLKSEL_CAN2 ((uint32_t)(28))\000"
 13963      57525F50 
 13963      434C4B53 
 13963      454C5F43 
 13963      414E3220 
 13964              	.LASF740:
 13965 986a 436F7265 		.ascii	"CoreDebug_DHCSR_S_RETIRE_ST_Pos 24\000"
 13965      44656275 
 13965      675F4448 
 13965      4353525F 
 13965      535F5245 
 13966              	.LASF1098:
 13967 988d 434C4B50 		.ascii	"CLKPWR_PCON_PDFLAG ((uint32_t)(1<<10))\000"
 13967      57525F50 
 13967      434F4E5F 
 13967      5044464C 
 13967      41472028 
 13968              	.LASF425:
 13969 98b4 5F5F494E 		.ascii	"__INT32 \"l\"\000"
 13969      54333220 
 13969      226C2200 
 13970              	.LASF1366:
 13971 98c0 55415254 		.ascii	"UART_TxCmd\000"
 13971      5F547843 
 13971      6D6400
 13972              	.LASF918:
 13973 98cb 5F424954 		.ascii	"_BITMASK(field_width) ( _BIT(field_width) - 1)\000"
 13973      4D41534B 
 13973      28666965 
 13973      6C645F77 
 13973      69647468 
 13974              	.LASF1242:
 13975 98fa 55415254 		.ascii	"UART_STOPBIT_1\000"
ARM GAS  C:\Users\STUDENT\AppData\Local\Temp\ccMxouBa.s 			page 360


 13975      5F53544F 
 13975      50424954 
 13975      5F3100
 13976              	.LASF1243:
 13977 9909 55415254 		.ascii	"UART_STOPBIT_2\000"
 13977      5F53544F 
 13977      50424954 
 13977      5F3200
 13978              	.LASF44:
 13979 9918 5F5F5549 		.ascii	"__UINT32_TYPE__ long unsigned int\000"
 13979      4E543332 
 13979      5F545950 
 13979      455F5F20 
 13979      6C6F6E67 
 13980              	.LASF621:
 13981 993a 5343425F 		.ascii	"SCB_CFSR_USGFAULTSR_Msk (0xFFFFUL << SCB_CFSR_USGFA"
 13981      43465352 
 13981      5F555347 
 13981      4641554C 
 13981      5453525F 
 13982 996d 554C5453 		.ascii	"ULTSR_Pos)\000"
 13982      525F506F 
 13982      732900
 13983              	.LASF1093:
 13984 9978 434C4B50 		.ascii	"CLKPWR_PCON_BODPDM ((uint32_t)(1<<2))\000"
 13984      57525F50 
 13984      434F4E5F 
 13984      424F4450 
 13984      444D2028 
 13985              	.LASF339:
 13986 999e 5F5F7468 		.ascii	"__thumb2__ 1\000"
 13986      756D6232 
 13986      5F5F2031 
 13986      00
 13987              	.LASF608:
 13988 99ab 5343425F 		.ascii	"SCB_SHCSR_PENDSVACT_Pos 10\000"
 13988      53484353 
 13988      525F5045 
 13988      4E445356 
 13988      4143545F 
 13989              	.LASF558:
 13990 99c6 5343425F 		.ascii	"SCB_VTOR_TBLOFF_Pos 7\000"
 13990      56544F52 
 13990      5F54424C 
 13990      4F46465F 
 13990      506F7320 
 13991              	.LASF377:
 13992 99dc 5F444546 		.ascii	"_DEFAULT_SOURCE\000"
 13992      41554C54 
 13992      5F534F55 
 13992      52434500 
 13993              	.LASF831:
 13994 99ec 4C50435F 		.ascii	"LPC_CAN1_BASE (LPC_APB0_BASE + 0x44000)\000"
 13994      43414E31 
 13994      5F424153 
 13994      4520284C 
 13994      50435F41 
ARM GAS  C:\Users\STUDENT\AppData\Local\Temp\ccMxouBa.s 			page 361


 13995              	.LASF1051:
 13996 9a14 434C4B50 		.ascii	"CLKPWR_CLKOUTCFG_CLKOUTSEL_MAINOSC ((uint32_t)(0x01"
 13996      57525F43 
 13996      4C4B4F55 
 13996      54434647 
 13996      5F434C4B 
 13997 9a47 292900   		.ascii	"))\000"
 13998              	.LASF687:
 13999 9a4a 49544D5F 		.ascii	"ITM_LSR_Access_Msk (1UL << ITM_LSR_Access_Pos)\000"
 13999      4C53525F 
 13999      41636365 
 13999      73735F4D 
 13999      736B2028 
 14000              	.LASF881:
 14001 9a79 4C50435F 		.ascii	"LPC_I2C2 ((LPC_I2C_TypeDef *) LPC_I2C2_BASE )\000"
 14001      49324332 
 14001      2028284C 
 14001      50435F49 
 14001      32435F54 
 14002              	.LASF223:
 14003 9aa7 5F5F554C 		.ascii	"__ULLFRACT_MIN__ 0.0ULLR\000"
 14003      4C465241 
 14003      43545F4D 
 14003      494E5F5F 
 14003      20302E30 
 14004              	.LASF1344:
 14005 9ac0 55415254 		.ascii	"UART_ConfigStruct\000"
 14005      5F436F6E 
 14005      66696753 
 14005      74727563 
 14005      7400
 14006              	.LASF1317:
 14007 9ad2 70666E52 		.ascii	"pfnRxCbs\000"
 14007      78436273 
 14007      00
 14008              	.LASF283:
 14009 9adb 5F5F5544 		.ascii	"__UDQ_IBIT__ 0\000"
 14009      515F4942 
 14009      49545F5F 
 14009      203000
 14010              	.LASF1081:
 14011 9aea 434C4B50 		.ascii	"CLKPWR_PLL1STAT_PLOCK ((uint32_t)(1<<10))\000"
 14011      57525F50 
 14011      4C4C3153 
 14011      5441545F 
 14011      504C4F43 
 14012              	.LASF1227:
 14013 9b14 53657453 		.ascii	"SetState\000"
 14013      74617465 
 14013      00
 14014              	.LASF1361:
 14015 9b1d 4649464F 		.ascii	"FIFOCfg\000"
 14015      43666700 
 14016              	.LASF512:
 14017 9b25 55494E54 		.ascii	"UINT16_C(x) __UINT16_C(x)\000"
 14017      31365F43 
 14017      28782920 
ARM GAS  C:\Users\STUDENT\AppData\Local\Temp\ccMxouBa.s 			page 362


 14017      5F5F5549 
 14017      4E543136 
 14018              	.LASF1372:
 14019 9b3f 52533438 		.ascii	"RS485ConfigStruct\000"
 14019      35436F6E 
 14019      66696753 
 14019      74727563 
 14019      7400
 14020              	.LASF737:
 14021 9b51 436F7265 		.ascii	"CoreDebug_DHCSR_DBGKEY_Msk (0xFFFFUL << CoreDebug_D"
 14021      44656275 
 14021      675F4448 
 14021      4353525F 
 14021      4442474B 
 14022 9b84 48435352 		.ascii	"HCSR_DBGKEY_Pos)\000"
 14022      5F444247 
 14022      4B45595F 
 14022      506F7329 
 14022      00
 14023              	.LASF1205:
 14024 9b95 75696E74 		.ascii	"uint32_t\000"
 14024      33325F74 
 14024      00
 14025              	.LASF887:
 14026 9b9e 4C50435F 		.ascii	"LPC_SSP0 ((LPC_SSP_TypeDef *) LPC_SSP0_BASE )\000"
 14026      53535030 
 14026      2028284C 
 14026      50435F53 
 14026      53505F54 
 14027              	.LASF665:
 14028 9bcc 49544D5F 		.ascii	"ITM_TCR_ATBID_Msk (0x7FUL << ITM_TCR_ATBID_Pos)\000"
 14028      5443525F 
 14028      41544249 
 14028      445F4D73 
 14028      6B202830 
 14029              	.LASF688:
 14030 9bfc 49544D5F 		.ascii	"ITM_LSR_Present_Pos 0\000"
 14030      4C53525F 
 14030      50726573 
 14030      656E745F 
 14030      506F7320 
 14031              	.LASF404:
 14032 9c12 5F535953 		.ascii	"_SYS__INTSUP_H \000"
 14032      5F5F494E 
 14032      54535550 
 14032      5F482000 
 14033              	.LASF650:
 14034 9c22 53797354 		.ascii	"SysTick_LOAD_RELOAD_Pos 0\000"
 14034      69636B5F 
 14034      4C4F4144 
 14034      5F52454C 
 14034      4F41445F 
 14035              	.LASF1282:
 14036 9c3c 55415254 		.ascii	"UART1_MODEM_PIN_DTR\000"
 14036      315F4D4F 
 14036      44454D5F 
 14036      50494E5F 
ARM GAS  C:\Users\STUDENT\AppData\Local\Temp\ccMxouBa.s 			page 363


 14036      44545200 
 14037              	.LASF920:
 14038 9c50 4E454C45 		.ascii	"NELEMENTS(array) (sizeof (array) / sizeof (array[0]"
 14038      4D454E54 
 14038      53286172 
 14038      72617929 
 14038      20287369 
 14039 9c83 292900   		.ascii	"))\000"
 14040              	.LASF979:
 14041 9c86 55415254 		.ascii	"UART_LSR_RDR ((uint8_t)(1<<0))\000"
 14041      5F4C5352 
 14041      5F524452 
 14041      20282875 
 14041      696E7438 
 14042              	.LASF323:
 14043 9ca5 5F5F5349 		.ascii	"__SIZEOF_WCHAR_T__ 4\000"
 14043      5A454F46 
 14043      5F574348 
 14043      41525F54 
 14043      5F5F2034 
 14044              	.LASF495:
 14045 9cba 494E545F 		.ascii	"INT_FAST64_MAX (__INT_FAST64_MAX__)\000"
 14045      46415354 
 14045      36345F4D 
 14045      41582028 
 14045      5F5F494E 
 14046              	.LASF1155:
 14047 9cde 434C4B50 		.ascii	"CLKPWR_PCONP_PCGPDMA ((uint32_t)(1<<29))\000"
 14047      57525F50 
 14047      434F4E50 
 14047      5F504347 
 14047      50444D41 
 14048              	.LASF380:
 14049 9d07 5F504F53 		.ascii	"_POSIX_SOURCE 1\000"
 14049      49585F53 
 14049      4F555243 
 14049      45203100 
 14050              	.LASF59:
 14051 9d17 5F5F5549 		.ascii	"__UINT_FAST16_TYPE__ unsigned int\000"
 14051      4E545F46 
 14051      41535431 
 14051      365F5459 
 14051      50455F5F 
 14052              	.LASF657:
 14053 9d39 53797354 		.ascii	"SysTick_CALIB_SKEW_Msk (1UL << SysTick_CALIB_SKEW_P"
 14053      69636B5F 
 14053      43414C49 
 14053      425F534B 
 14053      45575F4D 
 14054 9d6c 6F732900 		.ascii	"os)\000"
 14055              	.LASF295:
 14056 9d70 5F5F5548 		.ascii	"__UHA_IBIT__ 8\000"
 14056      415F4942 
 14056      49545F5F 
 14056      203800
 14057              	.LASF704:
 14058 9d7f 4D50555F 		.ascii	"MPU_CTRL_PRIVDEFENA_Pos 2\000"
ARM GAS  C:\Users\STUDENT\AppData\Local\Temp\ccMxouBa.s 			page 364


 14058      4354524C 
 14058      5F505249 
 14058      56444546 
 14058      454E415F 
 14059              	.LASF240:
 14060 9d99 5F5F4143 		.ascii	"__ACCUM_EPSILON__ 0x1P-15K\000"
 14060      43554D5F 
 14060      45505349 
 14060      4C4F4E5F 
 14060      5F203078 
 14061              	.LASF255:
 14062 9db4 5F5F554C 		.ascii	"__ULACCUM_EPSILON__ 0x1P-32ULK\000"
 14062      41434355 
 14062      4D5F4550 
 14062      53494C4F 
 14062      4E5F5F20 
 14063              	.LASF965:
 14064 9dd3 55415254 		.ascii	"UART_LCR_PARITY_EN ((uint8_t)(1<<3))\000"
 14064      5F4C4352 
 14064      5F504152 
 14064      4954595F 
 14064      454E2028 
 14065              	.LASF152:
 14066 9df8 5F5F4C44 		.ascii	"__LDBL_DIG__ 15\000"
 14066      424C5F44 
 14066      49475F5F 
 14066      20313500 
 14067              	.LASF450:
 14068 9e08 5F5F696E 		.ascii	"__int_least8_t_defined 1\000"
 14068      745F6C65 
 14068      61737438 
 14068      5F745F64 
 14068      6566696E 
 14069              	.LASF1309:
 14070 9e21 44656C61 		.ascii	"DelayValue\000"
 14070      7956616C 
 14070      756500
 14071              	.LASF947:
 14072 9e2c 55415254 		.ascii	"UART_IIR_ABEO_INT ((uint32_t)(1<<8))\000"
 14072      5F494952 
 14072      5F414245 
 14072      4F5F494E 
 14072      54202828 
 14073              	.LASF1251:
 14074 9e51 55415254 		.ascii	"UART_FIFO_TRGLEV0\000"
 14074      5F464946 
 14074      4F5F5452 
 14074      474C4556 
 14074      3000
 14075              	.LASF1252:
 14076 9e63 55415254 		.ascii	"UART_FIFO_TRGLEV1\000"
 14076      5F464946 
 14076      4F5F5452 
 14076      474C4556 
 14076      3100
 14077              	.LASF1253:
 14078 9e75 55415254 		.ascii	"UART_FIFO_TRGLEV2\000"
ARM GAS  C:\Users\STUDENT\AppData\Local\Temp\ccMxouBa.s 			page 365


 14078      5F464946 
 14078      4F5F5452 
 14078      474C4556 
 14078      3200
 14079              	.LASF1254:
 14080 9e87 55415254 		.ascii	"UART_FIFO_TRGLEV3\000"
 14080      5F464946 
 14080      4F5F5452 
 14080      474C4556 
 14080      3300
 14081              	.LASF1080:
 14082 9e99 434C4B50 		.ascii	"CLKPWR_PLL1STAT_PLLC ((uint32_t)(1<<9))\000"
 14082      57525F50 
 14082      4C4C3153 
 14082      5441545F 
 14082      504C4C43 
 14083              	.LASF432:
 14084 9ec1 5F5F4C45 		.ascii	"__LEAST16 \"h\"\000"
 14084      41535431 
 14084      36202268 
 14084      2200
 14085              	.LASF47:
 14086 9ecf 5F5F494E 		.ascii	"__INT_LEAST16_TYPE__ short int\000"
 14086      545F4C45 
 14086      41535431 
 14086      365F5459 
 14086      50455F5F 
 14087              	.LASF1276:
 14088 9eee 55415254 		.ascii	"UART_IrDA_PULSEDIV128\000"
 14088      5F497244 
 14088      415F5055 
 14088      4C534544 
 14088      49563132 
 14089              	.LASF1005:
 14090 9f04 55415254 		.ascii	"UART_ICR_IRDAINV ((uint32_t)(1<<1))\000"
 14090      5F494352 
 14090      5F495244 
 14090      41494E56 
 14090      20282875 
 14091              	.LASF693:
 14092 9f28 496E7454 		.ascii	"IntType_ACTLR_DISFOLD_Msk (1UL << IntType_ACTLR_DIS"
 14092      7970655F 
 14092      4143544C 
 14092      525F4449 
 14092      53464F4C 
 14093 9f5b 464F4C44 		.ascii	"FOLD_Pos)\000"
 14093      5F506F73 
 14093      2900
 14094              	.LASF144:
 14095 9f65 5F5F4442 		.ascii	"__DBL_MAX__ ((double)1.7976931348623157e+308L)\000"
 14095      4C5F4D41 
 14095      585F5F20 
 14095      2828646F 
 14095      75626C65 
 14096              	.LASF1194:
 14097 9f94 73686F72 		.ascii	"short unsigned int\000"
 14097      7420756E 
ARM GAS  C:\Users\STUDENT\AppData\Local\Temp\ccMxouBa.s 			page 366


 14097      7369676E 
 14097      65642069 
 14097      6E7400
 14098              	.LASF216:
 14099 9fa7 5F5F4C4C 		.ascii	"__LLFRACT_FBIT__ 63\000"
 14099      46524143 
 14099      545F4642 
 14099      49545F5F 
 14099      20363300 
 14100              	.LASF529:
 14101 9fbb 5343425F 		.ascii	"SCB_CPUID_IMPLEMENTER_Msk (0xFFUL << SCB_CPUID_IMPL"
 14101      43505549 
 14101      445F494D 
 14101      504C454D 
 14101      454E5445 
 14102 9fee 454D454E 		.ascii	"EMENTER_Pos)\000"
 14102      5445525F 
 14102      506F7329 
 14102      00
 14103              	.LASF955:
 14104 9ffb 55415254 		.ascii	"UART_FCR_TRG_LEV1 ((uint8_t)(1<<6))\000"
 14104      5F464352 
 14104      5F545247 
 14104      5F4C4556 
 14104      31202828 
 14105              	.LASF338:
 14106 a01f 5F5F7468 		.ascii	"__thumb__ 1\000"
 14106      756D625F 
 14106      5F203100 
 14107              	.LASF1109:
 14108 a02b 434C4B50 		.ascii	"CLKPWR_PCLKSEL_SSP1 ((uint32_t)(20))\000"
 14108      57525F50 
 14108      434C4B53 
 14108      454C5F53 
 14108      53503120 
 14109              	.LASF1220:
 14110 a050 4144524D 		.ascii	"ADRMATCH\000"
 14110      41544348 
 14110      00
 14111              	.LASF397:
 14112 a059 5F5F5F69 		.ascii	"___int32_t_defined 1\000"
 14112      6E743332 
 14112      5F745F64 
 14112      6566696E 
 14112      65642031 
 14113              	.LASF1014:
 14114 a06e 55415254 		.ascii	"UART1_RS485CTRL_NMM_EN ((uint32_t)(1<<0))\000"
 14114      315F5253 
 14114      34383543 
 14114      54524C5F 
 14114      4E4D4D5F 
 14115              	.LASF341:
 14116 a098 5F5F4152 		.ascii	"__ARMEL__ 1\000"
 14116      4D454C5F 
 14116      5F203100 
 14117              	.LASF556:
 14118 a0a4 5343425F 		.ascii	"SCB_VTOR_TBLBASE_Pos 29\000"
ARM GAS  C:\Users\STUDENT\AppData\Local\Temp\ccMxouBa.s 			page 367


 14118      56544F52 
 14118      5F54424C 
 14118      42415345 
 14118      5F506F73 
 14119              	.LASF1126:
 14120 a0bc 434C4B50 		.ascii	"CLKPWR_PCLKSEL_SYSCON ((uint32_t)(60))\000"
 14120      57525F50 
 14120      434C4B53 
 14120      454C5F53 
 14120      5953434F 
 14121              	.LASF1150:
 14122 a0e3 434C4B50 		.ascii	"CLKPWR_PCONP_PCTIM3 ((uint32_t)(1<<23))\000"
 14122      57525F50 
 14122      434F4E50 
 14122      5F504354 
 14122      494D3320 
 14123              	.LASF1380:
 14124 a10b 536C7641 		.ascii	"SlvAddr\000"
 14124      64647200 
 14125              	.LASF520:
 14126 a113 5F5F434F 		.ascii	"__CORE_CMINSTR_H__ \000"
 14126      52455F43 
 14126      4D494E53 
 14126      54525F48 
 14126      5F5F2000 
 14127              	.LASF268:
 14128 a127 5F5F4851 		.ascii	"__HQ_FBIT__ 15\000"
 14128      5F464249 
 14128      545F5F20 
 14128      313500
 14129              	.LASF569:
 14130 a136 5343425F 		.ascii	"SCB_AIRCR_SYSRESETREQ_Msk (1UL << SCB_AIRCR_SYSRESE"
 14130      41495243 
 14130      525F5359 
 14130      53524553 
 14130      45545245 
 14131 a169 54524551 		.ascii	"TREQ_Pos)\000"
 14131      5F506F73 
 14131      2900
 14132              	.LASF1061:
 14133 a173 434C4B50 		.ascii	"CLKPWR_PLL0CON_BITMASK ((uint32_t)(0x03))\000"
 14133      57525F50 
 14133      4C4C3043 
 14133      4F4E5F42 
 14133      49544D41 
 14134              	.LASF422:
 14135 a19d 5F494E54 		.ascii	"_INT32_EQ_LONG \000"
 14135      33325F45 
 14135      515F4C4F 
 14135      4E472000 
 14136              	.LASF570:
 14137 a1ad 5343425F 		.ascii	"SCB_AIRCR_VECTCLRACTIVE_Pos 1\000"
 14137      41495243 
 14137      525F5645 
 14137      4354434C 
 14137      52414354 
 14138              	.LASF1189:
ARM GAS  C:\Users\STUDENT\AppData\Local\Temp\ccMxouBa.s 			page 368


 14139 a1cb 5F454D41 		.ascii	"_EMAC 1\000"
 14139      43203100 
 14140              	.LASF77:
 14141 a1d3 5F5F5349 		.ascii	"__SIZE_MAX__ 0xffffffffU\000"
 14141      5A455F4D 
 14141      41585F5F 
 14141      20307866 
 14141      66666666 
 14142              	.LASF1087:
 14143 a1ec 434C4B50 		.ascii	"CLKPWR_PCLKSEL1_BITMASK ((uint32_t)(0xFCF3F0F3))\000"
 14143      57525F50 
 14143      434C4B53 
 14143      454C315F 
 14143      4249544D 
 14144              	.LASF1378:
 14145 a21d 73617665 		.ascii	"save\000"
 14145      00
 14146              	.LASF596:
 14147 a222 5343425F 		.ascii	"SCB_SHCSR_MEMFAULTENA_Pos 16\000"
 14147      53484353 
 14147      525F4D45 
 14147      4D464155 
 14147      4C54454E 
 14148              	.LASF676:
 14149 a23f 49544D5F 		.ascii	"ITM_TCR_ITMENA_Pos 0\000"
 14149      5443525F 
 14149      49544D45 
 14149      4E415F50 
 14149      6F732030 
 14150              	.LASF1083:
 14151 a254 434C4B50 		.ascii	"CLKPWR_CCLKCFG_BITMASK ((uint32_t)(0xFF))\000"
 14151      57525F43 
 14151      434C4B43 
 14151      46475F42 
 14151      49544D41 
 14152              	.LASF1319:
 14153 a27e 70666E45 		.ascii	"pfnErrCbs\000"
 14153      72724362 
 14153      7300
 14154              	.LASF463:
 14155 a288 55494E54 		.ascii	"UINT8_MAX (__UINT8_MAX__)\000"
 14155      385F4D41 
 14155      5820285F 
 14155      5F55494E 
 14155      54385F4D 
 14156              	.LASF70:
 14157 a2a2 5F5F4C4F 		.ascii	"__LONG_MAX__ 0x7fffffffL\000"
 14157      4E475F4D 
 14157      41585F5F 
 14157      20307837 
 14157      66666666 
 14158              	.LASF441:
 14159 a2bb 5F5F696E 		.ascii	"__int16_t_defined 1\000"
 14159      7431365F 
 14159      745F6465 
 14159      66696E65 
 14159      64203100 
ARM GAS  C:\Users\STUDENT\AppData\Local\Temp\ccMxouBa.s 			page 369


 14160              	.LASF487:
 14161 a2cf 55494E54 		.ascii	"UINT_FAST8_MAX (__UINT_FAST8_MAX__)\000"
 14161      5F464153 
 14161      54385F4D 
 14161      41582028 
 14161      5F5F5549 
 14162              	.LASF1358:
 14163 a2f3 55415254 		.ascii	"UART_GetLineStatus\000"
 14163      5F476574 
 14163      4C696E65 
 14163      53746174 
 14163      757300
 14164              	.LASF1354:
 14165 a306 55415254 		.ascii	"UART_IrDAPulseDivConfig\000"
 14165      5F497244 
 14165      4150756C 
 14165      73654469 
 14165      76436F6E 
 14166              	.LASF420:
 14167 a31e 6C6F6E67 		.ascii	"long +4\000"
 14167      202B3400 
 14168              	.LASF1196:
 14169 a326 5F5F696E 		.ascii	"__int32_t\000"
 14169      7433325F 
 14169      7400
 14170              	.LASF1185:
 14171 a330 5F514549 		.ascii	"_QEI 1\000"
 14171      203100
 14172              	.LASF770:
 14173 a337 436F7265 		.ascii	"CoreDebug_DEMCR_MON_PEND_Pos 17\000"
 14173      44656275 
 14173      675F4445 
 14173      4D43525F 
 14173      4D4F4E5F 
 14174              	.LASF907:
 14175 a357 4C50435F 		.ascii	"LPC_GPDMACH6 ((LPC_GPDMACH_TypeDef *) LPC_GPDMACH6_"
 14175      4750444D 
 14175      41434836 
 14175      2028284C 
 14175      50435F47 
 14176 a38a 42415345 		.ascii	"BASE )\000"
 14176      202900
 14177              	.LASF717:
 14178 a391 4D50555F 		.ascii	"MPU_RBAR_REGION_Msk (0xFUL << MPU_RBAR_REGION_Pos)\000"
 14178      52424152 
 14178      5F524547 
 14178      494F4E5F 
 14178      4D736B20 
 14179              	.LASF330:
 14180 a3c4 5F5F4152 		.ascii	"__ARM_FEATURE_LDREX 7\000"
 14180      4D5F4645 
 14180      41545552 
 14180      455F4C44 
 14180      52455820 
 14181              	.LASF1249:
 14182 a3da 55415254 		.ascii	"UART_PARITY_SP_0\000"
 14182      5F504152 
ARM GAS  C:\Users\STUDENT\AppData\Local\Temp\ccMxouBa.s 			page 370


 14182      4954595F 
 14182      53505F30 
 14182      00
 14183              	.LASF1248:
 14184 a3eb 55415254 		.ascii	"UART_PARITY_SP_1\000"
 14184      5F504152 
 14184      4954595F 
 14184      53505F31 
 14184      00
 14185              	.LASF1144:
 14186 a3fc 434C4B50 		.ascii	"CLKPWR_PCONP_PCRIT ((uint32_t)(1<<16))\000"
 14186      57525F50 
 14186      434F4E50 
 14186      5F504352 
 14186      49542028 
 14187              	.LASF905:
 14188 a423 4C50435F 		.ascii	"LPC_GPDMACH4 ((LPC_GPDMACH_TypeDef *) LPC_GPDMACH4_"
 14188      4750444D 
 14188      41434834 
 14188      2028284C 
 14188      50435F47 
 14189 a456 42415345 		.ascii	"BASE )\000"
 14189      202900
 14190              	.LASF910:
 14191 a45d 4C50435F 		.ascii	"LPC_TYPES_H \000"
 14191      54595045 
 14191      535F4820 
 14191      00
 14192              	.LASF33:
 14193 a46a 5F5F494E 		.ascii	"__INTMAX_TYPE__ long long int\000"
 14193      544D4158 
 14193      5F545950 
 14193      455F5F20 
 14193      6C6F6E67 
 14194              	.LASF220:
 14195 a488 5F5F4C4C 		.ascii	"__LLFRACT_EPSILON__ 0x1P-63LLR\000"
 14195      46524143 
 14195      545F4550 
 14195      53494C4F 
 14195      4E5F5F20 
 14196              	.LASF106:
 14197 a4a7 5F5F5549 		.ascii	"__UINT_LEAST64_MAX__ 0xffffffffffffffffULL\000"
 14197      4E545F4C 
 14197      45415354 
 14197      36345F4D 
 14197      41585F5F 
 14198              	.LASF618:
 14199 a4d2 5343425F 		.ascii	"SCB_SHCSR_MEMFAULTACT_Pos 0\000"
 14199      53484353 
 14199      525F4D45 
 14199      4D464155 
 14199      4C544143 
 14200              	.LASF189:
 14201 a4ee 5F5F5346 		.ascii	"__SFRACT_MAX__ 0X7FP-7HR\000"
 14201      52414354 
 14201      5F4D4158 
 14201      5F5F2030 
ARM GAS  C:\Users\STUDENT\AppData\Local\Temp\ccMxouBa.s 			page 371


 14201      58374650 
 14202              	.LASF1381:
 14203 a507 55415254 		.ascii	"UART_RS485SendData\000"
 14203      5F525334 
 14203      38355365 
 14203      6E644461 
 14203      746100
 14204              	.LASF1168:
 14205 a51a 5F535350 		.ascii	"_SSP0 1\000"
 14205      30203100 
 14206              	.LASF793:
 14207 a522 53797354 		.ascii	"SysTick_BASE (SCS_BASE + 0x0010UL)\000"
 14207      69636B5F 
 14207      42415345 
 14207      20285343 
 14207      535F4241 
 14208              	.LASF1328:
 14209 a545 74656D70 		.ascii	"temp\000"
 14209      00
 14210              	.LASF1131:
 14211 a54a 434C4B50 		.ascii	"CLKPWR_PCONP_PCTIM0 ((uint32_t)(1<<1))\000"
 14211      57525F50 
 14211      434F4E50 
 14211      5F504354 
 14211      494D3020 
 14212              	.LASF95:
 14213 a571 5F5F494E 		.ascii	"__INT16_C(c) c\000"
 14213      5431365F 
 14213      43286329 
 14213      206300
 14214              	.LASF977:
 14215 a580 55415254 		.ascii	"UART1_MCR_AUTO_CTS_EN ((uint8_t)(1<<7))\000"
 14215      315F4D43 
 14215      525F4155 
 14215      544F5F43 
 14215      54535F45 
 14216              	.LASF1382:
 14217 a5a8 70446174 		.ascii	"pData\000"
 14217      6100
 14218              	.LASF739:
 14219 a5ae 436F7265 		.ascii	"CoreDebug_DHCSR_S_RESET_ST_Msk (1UL << CoreDebug_DH"
 14219      44656275 
 14219      675F4448 
 14219      4353525F 
 14219      535F5245 
 14220 a5e1 4353525F 		.ascii	"CSR_S_RESET_ST_Pos)\000"
 14220      535F5245 
 14220      5345545F 
 14220      53545F50 
 14220      6F732900 
 14221              	.LASF291:
 14222 a5f5 5F5F4441 		.ascii	"__DA_IBIT__ 32\000"
 14222      5F494249 
 14222      545F5F20 
 14222      333200
 14223              	.LASF417:
 14224 a604 73686F72 		.ascii	"short +1\000"
ARM GAS  C:\Users\STUDENT\AppData\Local\Temp\ccMxouBa.s 			page 372


 14224      74202B31 
 14224      00
 14225              	.LASF661:
 14226 a60d 49544D5F 		.ascii	"ITM_TPR_PRIVMASK_Msk (0xFUL << ITM_TPR_PRIVMASK_Pos"
 14226      5450525F 
 14226      50524956 
 14226      4D41534B 
 14226      5F4D736B 
 14227 a640 2900     		.ascii	")\000"
 14228              	.LASF329:
 14229 a642 5F5F4152 		.ascii	"__ARM_32BIT_STATE 1\000"
 14229      4D5F3332 
 14229      4249545F 
 14229      53544154 
 14229      45203100 
 14230              	.LASF957:
 14231 a656 55415254 		.ascii	"UART_FCR_TRG_LEV3 ((uint8_t)(3<<6))\000"
 14231      5F464352 
 14231      5F545247 
 14231      5F4C4556 
 14231      33202828 
 14232              	.LASF809:
 14233 a67a 4C50435F 		.ascii	"LPC_AHBRAM1_BASE (0x20080000UL)\000"
 14233      41484252 
 14233      414D315F 
 14233      42415345 
 14233      20283078 
 14234              	.LASF10:
 14235 a69a 5F5F4154 		.ascii	"__ATOMIC_ACQ_REL 4\000"
 14235      4F4D4943 
 14235      5F414351 
 14235      5F52454C 
 14235      203400
 14236              	.LASF1042:
 14237 a6ad 50415241 		.ascii	"PARAM_UART1_RS485_CFG_MATCHADDRVALUE(x) ((x<0xFF))\000"
 14237      4D5F5541 
 14237      5254315F 
 14237      52533438 
 14237      355F4346 
 14238              	.LASF40:
 14239 a6e0 5F5F494E 		.ascii	"__INT32_TYPE__ long int\000"
 14239      5433325F 
 14239      54595045 
 14239      5F5F206C 
 14239      6F6E6720 
 14240              	.LASF140:
 14241 a6f8 5F5F4442 		.ascii	"__DBL_MIN_10_EXP__ (-307)\000"
 14241      4C5F4D49 
 14241      4E5F3130 
 14241      5F455850 
 14241      5F5F2028 
 14242              	.LASF789:
 14243 a712 436F7265 		.ascii	"CoreDebug_DEMCR_VC_CORERESET_Msk (1UL << CoreDebug_"
 14243      44656275 
 14243      675F4445 
 14243      4D43525F 
 14243      56435F43 
ARM GAS  C:\Users\STUDENT\AppData\Local\Temp\ccMxouBa.s 			page 373


 14244 a745 44454D43 		.ascii	"DEMCR_VC_CORERESET_Pos)\000"
 14244      525F5643 
 14244      5F434F52 
 14244      45524553 
 14244      45545F50 
 14245              	.LASF563:
 14246 a75d 5343425F 		.ascii	"SCB_AIRCR_VECTKEYSTAT_Msk (0xFFFFUL << SCB_AIRCR_VE"
 14246      41495243 
 14246      525F5645 
 14246      43544B45 
 14246      59535441 
 14247 a790 43544B45 		.ascii	"CTKEYSTAT_Pos)\000"
 14247      59535441 
 14247      545F506F 
 14247      732900
 14248              	.LASF39:
 14249 a79f 5F5F494E 		.ascii	"__INT16_TYPE__ short int\000"
 14249      5431365F 
 14249      54595045 
 14249      5F5F2073 
 14249      686F7274 
 14250              	.LASF1097:
 14251 a7b8 434C4B50 		.ascii	"CLKPWR_PCON_DSFLAG ((uint32_t)(1<<9))\000"
 14251      57525F50 
 14251      434F4E5F 
 14251      4453464C 
 14251      41472028 
 14252              	.LASF666:
 14253 a7de 49544D5F 		.ascii	"ITM_TCR_TSPrescale_Pos 8\000"
 14253      5443525F 
 14253      54535072 
 14253      65736361 
 14253      6C655F50 
 14254              	.LASF412:
 14255 a7f7 5F5F696E 		.ascii	"__int20\000"
 14255      74323000 
 14256              	.LASF1370:
 14257 a7ff 55415254 		.ascii	"UART_FullModemGetStatus\000"
 14257      5F46756C 
 14257      6C4D6F64 
 14257      656D4765 
 14257      74537461 
 14258              	.LASF492:
 14259 a817 494E545F 		.ascii	"INT_FAST32_MAX (__INT_FAST32_MAX__)\000"
 14259      46415354 
 14259      33325F4D 
 14259      41582028 
 14259      5F5F494E 
 14260              	.LASF1031:
 14261 a83b 50415241 		.ascii	"PARAM_UART1_INTCFG(IntCfg) ((IntCfg==UART1_INTCFG_M"
 14261      4D5F5541 
 14261      5254315F 
 14261      494E5443 
 14261      46472849 
 14262 a86e 5329207C 		.ascii	"S) || (IntCfg==UART1_INTCFG_CTS))\000"
 14262      7C202849 
 14262      6E744366 
ARM GAS  C:\Users\STUDENT\AppData\Local\Temp\ccMxouBa.s 			page 374


 14262      673D3D55 
 14262      41525431 
 14263              	.LASF625:
 14264 a890 5343425F 		.ascii	"SCB_CFSR_MEMFAULTSR_Msk (0xFFUL << SCB_CFSR_MEMFAUL"
 14264      43465352 
 14264      5F4D454D 
 14264      4641554C 
 14264      5453525F 
 14265 a8c3 5453525F 		.ascii	"TSR_Pos)\000"
 14265      506F7329 
 14265      00
 14266              	.LASF230:
 14267 a8cc 5F5F5341 		.ascii	"__SACCUM_EPSILON__ 0x1P-7HK\000"
 14267      4343554D 
 14267      5F455053 
 14267      494C4F4E 
 14267      5F5F2030 
 14268              	.LASF679:
 14269 a8e8 49544D5F 		.ascii	"ITM_IWR_ATVALIDM_Msk (1UL << ITM_IWR_ATVALIDM_Pos)\000"
 14269      4957525F 
 14269      41545641 
 14269      4C49444D 
 14269      5F4D736B 
 14270              	.LASF1112:
 14271 a91b 434C4B50 		.ascii	"CLKPWR_PCLKSEL_CAN1 ((uint32_t)(26))\000"
 14271      57525F50 
 14271      434C4B53 
 14271      454C5F43 
 14271      414E3120 
 14272              	.LASF381:
 14273 a940 5F504F53 		.ascii	"_POSIX_C_SOURCE\000"
 14273      49585F43 
 14273      5F534F55 
 14273      52434500 
 14274              	.LASF80:
 14275 a950 5F5F5549 		.ascii	"__UINTMAX_MAX__ 0xffffffffffffffffULL\000"
 14275      4E544D41 
 14275      585F4D41 
 14275      585F5F20 
 14275      30786666 
 14276              	.LASF1365:
 14277 a976 4142436F 		.ascii	"ABConfigStruct\000"
 14277      6E666967 
 14277      53747275 
 14277      637400
 14278              	.LASF212:
 14279 a985 5F5F554C 		.ascii	"__ULFRACT_IBIT__ 0\000"
 14279      46524143 
 14279      545F4942 
 14279      49545F5F 
 14279      203000
 14280              	.LASF708:
 14281 a998 4D50555F 		.ascii	"MPU_CTRL_ENABLE_Pos 0\000"
 14281      4354524C 
 14281      5F454E41 
 14281      424C455F 
 14281      506F7320 
ARM GAS  C:\Users\STUDENT\AppData\Local\Temp\ccMxouBa.s 			page 375


 14282              	.LASF850:
 14283 a9ae 4C50435F 		.ascii	"LPC_GPDMACH2_BASE (LPC_AHB_BASE + 0x04140)\000"
 14283      4750444D 
 14283      41434832 
 14283      5F424153 
 14283      4520284C 
 14284              	.LASF1403:
 14285 a9d9 55415254 		.ascii	"UART2_StdIntHandler\000"
 14285      325F5374 
 14285      64496E74 
 14285      48616E64 
 14285      6C657200 
 14286              	.LASF1137:
 14287 a9ed 434C4B50 		.ascii	"CLKPWR_PCONP_PCSPI ((uint32_t)(1<<8))\000"
 14287      57525F50 
 14287      434F4E50 
 14287      5F504353 
 14287      50492028 
 14288              	.LASF860:
 14289 aa13 4C50435F 		.ascii	"LPC_GPIO3_BASE (LPC_GPIO_BASE + 0x00060)\000"
 14289      4750494F 
 14289      335F4241 
 14289      53452028 
 14289      4C50435F 
 14290              	.LASF69:
 14291 aa3c 5F5F494E 		.ascii	"__INT_MAX__ 0x7fffffff\000"
 14291      545F4D41 
 14291      585F5F20 
 14291      30783766 
 14291      66666666 
 14292              	.LASF1256:
 14293 aa53 55415254 		.ascii	"UART_INTCFG_RBR\000"
 14293      5F494E54 
 14293      4346475F 
 14293      52425200 
 14294              	.LASF973:
 14295 aa63 55415254 		.ascii	"UART1_MCR_DTR_CTRL ((uint8_t)(1<<0))\000"
 14295      315F4D43 
 14295      525F4454 
 14295      525F4354 
 14295      524C2028 
 14296              	.LASF902:
 14297 aa88 4C50435F 		.ascii	"LPC_GPDMACH1 ((LPC_GPDMACH_TypeDef *) LPC_GPDMACH1_"
 14297      4750444D 
 14297      41434831 
 14297      2028284C 
 14297      50435F47 
 14298 aabb 42415345 		.ascii	"BASE )\000"
 14298      202900
 14299              	.LASF1103:
 14300 aac2 434C4B50 		.ascii	"CLKPWR_PCLKSEL_TIMER1 ((uint32_t)(4))\000"
 14300      57525F50 
 14300      434C4B53 
 14300      454C5F54 
 14300      494D4552 
 14301              	.LASF226:
 14302 aae8 5F5F5341 		.ascii	"__SACCUM_FBIT__ 7\000"
ARM GAS  C:\Users\STUDENT\AppData\Local\Temp\ccMxouBa.s 			page 376


 14302      4343554D 
 14302      5F464249 
 14302      545F5F20 
 14302      3700
 14303              	.LASF985:
 14304 aafa 55415254 		.ascii	"UART_LSR_TEMT ((uint8_t)(1<<6))\000"
 14304      5F4C5352 
 14304      5F54454D 
 14304      54202828 
 14304      75696E74 
 14305              	.LASF1037:
 14306 ab1a 50415241 		.ascii	"PARAM_UART1_MODEM_MODE(x) ((x==UART1_MODEM_MODE_LOO"
 14306      4D5F5541 
 14306      5254315F 
 14306      4D4F4445 
 14306      4D5F4D4F 
 14307 ab4d 50424143 		.ascii	"PBACK) || (x==UART1_MODEM_MODE_AUTO_RTS) || (x==UAR"
 14307      4B29207C 
 14307      7C202878 
 14307      3D3D5541 
 14307      5254315F 
 14308 ab80 54315F4D 		.ascii	"T1_MODEM_MODE_AUTO_CTS))\000"
 14308      4F44454D 
 14308      5F4D4F44 
 14308      455F4155 
 14308      544F5F43 
 14309              		.ident	"GCC: (GNU Tools for ARM Embedded Processors) 5.4.1 20160919 (release) [ARM/embedded-5-bran
ARM GAS  C:\Users\STUDENT\AppData\Local\Temp\ccMxouBa.s 			page 377


DEFINED SYMBOLS
                            *ABS*:00000000 lpc17xx_uart.c
C:\Users\STUDENT\AppData\Local\Temp\ccMxouBa.s:62     .bss.uartCbsDat:00000000 uartCbsDat
C:\Users\STUDENT\AppData\Local\Temp\ccMxouBa.s:59     .bss.uartCbsDat:00000000 $d
C:\Users\STUDENT\AppData\Local\Temp\ccMxouBa.s:69     .bss.pfnModemCbs:00000000 pfnModemCbs
C:\Users\STUDENT\AppData\Local\Temp\ccMxouBa.s:66     .bss.pfnModemCbs:00000000 $d
C:\Users\STUDENT\AppData\Local\Temp\ccMxouBa.s:72     .text.getUartNum:00000000 $t
C:\Users\STUDENT\AppData\Local\Temp\ccMxouBa.s:77     .text.getUartNum:00000000 getUartNum
C:\Users\STUDENT\AppData\Local\Temp\ccMxouBa.s:137    .text.getUartNum:00000038 $d
C:\Users\STUDENT\AppData\Local\Temp\ccMxouBa.s:144    .text.uart_set_divisors:00000000 $t
C:\Users\STUDENT\AppData\Local\Temp\ccMxouBa.s:149    .text.uart_set_divisors:00000000 uart_set_divisors
C:\Users\STUDENT\AppData\Local\Temp\ccMxouBa.s:479    .text.uart_set_divisors:00000200 $d
C:\Users\STUDENT\AppData\Local\Temp\ccMxouBa.s:489    .bss.xx:00000000 $d
C:\Users\STUDENT\AppData\Local\Temp\ccMxouBa.s:492    .bss.xx:00000000 xx
C:\Users\STUDENT\AppData\Local\Temp\ccMxouBa.s:495    .text.UART_GenIntHandler:00000000 $t
C:\Users\STUDENT\AppData\Local\Temp\ccMxouBa.s:500    .text.UART_GenIntHandler:00000000 UART_GenIntHandler
C:\Users\STUDENT\AppData\Local\Temp\ccMxouBa.s:732    .text.UART_GenIntHandler:00000164 $d
C:\Users\STUDENT\AppData\Local\Temp\ccMxouBa.s:740    .rodata:00000000 $d
C:\Users\STUDENT\AppData\Local\Temp\ccMxouBa.s:744    .text.UART_DeInit:00000000 $t
C:\Users\STUDENT\AppData\Local\Temp\ccMxouBa.s:749    .text.UART_DeInit:00000000 UART_DeInit
C:\Users\STUDENT\AppData\Local\Temp\ccMxouBa.s:2809   .text.UART_TxCmd:00000000 UART_TxCmd
C:\Users\STUDENT\AppData\Local\Temp\ccMxouBa.s:844    .text.UART_DeInit:00000088 $d
C:\Users\STUDENT\AppData\Local\Temp\ccMxouBa.s:853    .text.UART_Init:00000000 $t
C:\Users\STUDENT\AppData\Local\Temp\ccMxouBa.s:858    .text.UART_Init:00000000 UART_Init
C:\Users\STUDENT\AppData\Local\Temp\ccMxouBa.s:1246   .text.UART_Init:0000026c $d
C:\Users\STUDENT\AppData\Local\Temp\ccMxouBa.s:1250   .text.UART_Init:0000027c $t
C:\Users\STUDENT\AppData\Local\Temp\ccMxouBa.s:1286   .text.UART_Init:000002a8 $d
C:\Users\STUDENT\AppData\Local\Temp\ccMxouBa.s:1293   .text.UART_Init:000002bc $t
C:\Users\STUDENT\AppData\Local\Temp\ccMxouBa.s:1329   .text.UART_Init:000002e8 $d
C:\Users\STUDENT\AppData\Local\Temp\ccMxouBa.s:1334   .text.UART_ConfigStructInit:00000000 $t
C:\Users\STUDENT\AppData\Local\Temp\ccMxouBa.s:1339   .text.UART_ConfigStructInit:00000000 UART_ConfigStructInit
C:\Users\STUDENT\AppData\Local\Temp\ccMxouBa.s:1385   .text.UART_SendData:00000000 $t
C:\Users\STUDENT\AppData\Local\Temp\ccMxouBa.s:1390   .text.UART_SendData:00000000 UART_SendData
C:\Users\STUDENT\AppData\Local\Temp\ccMxouBa.s:1460   .text.UART_SendData:00000054 $d
C:\Users\STUDENT\AppData\Local\Temp\ccMxouBa.s:1469   .text.UART_ReceiveData:00000000 $t
C:\Users\STUDENT\AppData\Local\Temp\ccMxouBa.s:1474   .text.UART_ReceiveData:00000000 UART_ReceiveData
C:\Users\STUDENT\AppData\Local\Temp\ccMxouBa.s:1541   .text.UART_ReceiveData:00000050 $d
C:\Users\STUDENT\AppData\Local\Temp\ccMxouBa.s:1550   .text.UART_ForceBreak:00000000 $t
C:\Users\STUDENT\AppData\Local\Temp\ccMxouBa.s:1555   .text.UART_ForceBreak:00000000 UART_ForceBreak
C:\Users\STUDENT\AppData\Local\Temp\ccMxouBa.s:1631   .text.UART_ForceBreak:00000064 $d
C:\Users\STUDENT\AppData\Local\Temp\ccMxouBa.s:1640   .text.UART_IrDAInvtInputCmd:00000000 $t
C:\Users\STUDENT\AppData\Local\Temp\ccMxouBa.s:1645   .text.UART_IrDAInvtInputCmd:00000000 UART_IrDAInvtInputCmd
C:\Users\STUDENT\AppData\Local\Temp\ccMxouBa.s:1724   .text.UART_IrDAInvtInputCmd:00000074 $d
C:\Users\STUDENT\AppData\Local\Temp\ccMxouBa.s:1730   .text.UART_IrDACmd:00000000 $t
C:\Users\STUDENT\AppData\Local\Temp\ccMxouBa.s:1735   .text.UART_IrDACmd:00000000 UART_IrDACmd
C:\Users\STUDENT\AppData\Local\Temp\ccMxouBa.s:1810   .text.UART_IrDACmd:0000006c $d
C:\Users\STUDENT\AppData\Local\Temp\ccMxouBa.s:1816   .text.UART_IrDAPulseDivConfig:00000000 $t
C:\Users\STUDENT\AppData\Local\Temp\ccMxouBa.s:1821   .text.UART_IrDAPulseDivConfig:00000000 UART_IrDAPulseDivConfig
C:\Users\STUDENT\AppData\Local\Temp\ccMxouBa.s:1920   .text.UART_IrDAPulseDivConfig:00000094 $d
C:\Users\STUDENT\AppData\Local\Temp\ccMxouBa.s:1926   .text.UART_IntConfig:00000000 $t
C:\Users\STUDENT\AppData\Local\Temp\ccMxouBa.s:1931   .text.UART_IntConfig:00000000 UART_IntConfig
C:\Users\STUDENT\AppData\Local\Temp\ccMxouBa.s:1996   .text.UART_IntConfig:0000005c $d
C:\Users\STUDENT\AppData\Local\Temp\ccMxouBa.s:2003   .text.UART_IntConfig:00000078 $t
C:\Users\STUDENT\AppData\Local\Temp\ccMxouBa.s:2180   .text.UART_IntConfig:00000170 $d
C:\Users\STUDENT\AppData\Local\Temp\ccMxouBa.s:2189   .text.UART_GetLineStatus:00000000 $t
C:\Users\STUDENT\AppData\Local\Temp\ccMxouBa.s:2194   .text.UART_GetLineStatus:00000000 UART_GetLineStatus
C:\Users\STUDENT\AppData\Local\Temp\ccMxouBa.s:2261   .text.UART_GetLineStatus:00000050 $d
ARM GAS  C:\Users\STUDENT\AppData\Local\Temp\ccMxouBa.s 			page 378


C:\Users\STUDENT\AppData\Local\Temp\ccMxouBa.s:2270   .text.UART_CheckBusy:00000000 $t
C:\Users\STUDENT\AppData\Local\Temp\ccMxouBa.s:2275   .text.UART_CheckBusy:00000000 UART_CheckBusy
C:\Users\STUDENT\AppData\Local\Temp\ccMxouBa.s:2319   .text.UART_FIFOConfig:00000000 $t
C:\Users\STUDENT\AppData\Local\Temp\ccMxouBa.s:2324   .text.UART_FIFOConfig:00000000 UART_FIFOConfig
C:\Users\STUDENT\AppData\Local\Temp\ccMxouBa.s:2539   .text.UART_FIFOConfig:00000144 $d
C:\Users\STUDENT\AppData\Local\Temp\ccMxouBa.s:2548   .text.UART_FIFOConfigStructInit:00000000 $t
C:\Users\STUDENT\AppData\Local\Temp\ccMxouBa.s:2553   .text.UART_FIFOConfigStructInit:00000000 UART_FIFOConfigStructInit
C:\Users\STUDENT\AppData\Local\Temp\ccMxouBa.s:2599   .text.UART_ABCmd:00000000 $t
C:\Users\STUDENT\AppData\Local\Temp\ccMxouBa.s:2604   .text.UART_ABCmd:00000000 UART_ABCmd
C:\Users\STUDENT\AppData\Local\Temp\ccMxouBa.s:2795   .text.UART_ABCmd:00000120 $d
C:\Users\STUDENT\AppData\Local\Temp\ccMxouBa.s:2804   .text.UART_TxCmd:00000000 $t
C:\Users\STUDENT\AppData\Local\Temp\ccMxouBa.s:2927   .text.UART_TxCmd:000000b4 $d
C:\Users\STUDENT\AppData\Local\Temp\ccMxouBa.s:2936   .text.UART_FullModemForcePinState:00000000 $t
C:\Users\STUDENT\AppData\Local\Temp\ccMxouBa.s:2941   .text.UART_FullModemForcePinState:00000000 UART_FullModemForcePinState
C:\Users\STUDENT\AppData\Local\Temp\ccMxouBa.s:3061   .text.UART_FullModemForcePinState:000000a4 $d
C:\Users\STUDENT\AppData\Local\Temp\ccMxouBa.s:3067   .text.UART_FullModemConfigMode:00000000 $t
C:\Users\STUDENT\AppData\Local\Temp\ccMxouBa.s:3072   .text.UART_FullModemConfigMode:00000000 UART_FullModemConfigMode
C:\Users\STUDENT\AppData\Local\Temp\ccMxouBa.s:3201   .text.UART_FullModemConfigMode:000000b0 $d
C:\Users\STUDENT\AppData\Local\Temp\ccMxouBa.s:3207   .text.UART_FullModemGetStatus:00000000 $t
C:\Users\STUDENT\AppData\Local\Temp\ccMxouBa.s:3212   .text.UART_FullModemGetStatus:00000000 UART_FullModemGetStatus
C:\Users\STUDENT\AppData\Local\Temp\ccMxouBa.s:3252   .text.UART_FullModemGetStatus:00000028 $d
C:\Users\STUDENT\AppData\Local\Temp\ccMxouBa.s:3258   .text.UART_RS485Config:00000000 $t
C:\Users\STUDENT\AppData\Local\Temp\ccMxouBa.s:3263   .text.UART_RS485Config:00000000 UART_RS485Config
C:\Users\STUDENT\AppData\Local\Temp\ccMxouBa.s:3498   .text.UART_RS485Config:0000017c $d
C:\Users\STUDENT\AppData\Local\Temp\ccMxouBa.s:3504   .text.UART_RS485ReceiverCmd:00000000 $t
C:\Users\STUDENT\AppData\Local\Temp\ccMxouBa.s:3509   .text.UART_RS485ReceiverCmd:00000000 UART_RS485ReceiverCmd
C:\Users\STUDENT\AppData\Local\Temp\ccMxouBa.s:3565   .text.UART_RS485Send:00000000 $t
C:\Users\STUDENT\AppData\Local\Temp\ccMxouBa.s:3570   .text.UART_RS485Send:00000000 UART_RS485Send
C:\Users\STUDENT\AppData\Local\Temp\ccMxouBa.s:3747   .text.UART_Send:00000000 UART_Send
C:\Users\STUDENT\AppData\Local\Temp\ccMxouBa.s:3661   .text.UART_RS485SendSlvAddr:00000000 $t
C:\Users\STUDENT\AppData\Local\Temp\ccMxouBa.s:3666   .text.UART_RS485SendSlvAddr:00000000 UART_RS485SendSlvAddr
C:\Users\STUDENT\AppData\Local\Temp\ccMxouBa.s:3701   .text.UART_RS485SendData:00000000 $t
C:\Users\STUDENT\AppData\Local\Temp\ccMxouBa.s:3706   .text.UART_RS485SendData:00000000 UART_RS485SendData
C:\Users\STUDENT\AppData\Local\Temp\ccMxouBa.s:3742   .text.UART_Send:00000000 $t
C:\Users\STUDENT\AppData\Local\Temp\ccMxouBa.s:3930   .text.UART_SendString:00000000 $t
C:\Users\STUDENT\AppData\Local\Temp\ccMxouBa.s:3935   .text.UART_SendString:00000000 UART_SendString
C:\Users\STUDENT\AppData\Local\Temp\ccMxouBa.s:3972   .text.UART_Receive:00000000 $t
C:\Users\STUDENT\AppData\Local\Temp\ccMxouBa.s:3977   .text.UART_Receive:00000000 UART_Receive
C:\Users\STUDENT\AppData\Local\Temp\ccMxouBa.s:4123   .text.UART_SetupCbs:00000000 $t
C:\Users\STUDENT\AppData\Local\Temp\ccMxouBa.s:4128   .text.UART_SetupCbs:00000000 UART_SetupCbs
C:\Users\STUDENT\AppData\Local\Temp\ccMxouBa.s:4159   .text.UART_SetupCbs:00000024 $d
C:\Users\STUDENT\AppData\Local\Temp\ccMxouBa.s:4164   .text.UART_SetupCbs:00000038 $t
C:\Users\STUDENT\AppData\Local\Temp\ccMxouBa.s:4230   .text.UART_SetupCbs:00000088 $d
C:\Users\STUDENT\AppData\Local\Temp\ccMxouBa.s:4236   .text.UART0_StdIntHandler:00000000 $t
C:\Users\STUDENT\AppData\Local\Temp\ccMxouBa.s:4241   .text.UART0_StdIntHandler:00000000 UART0_StdIntHandler
C:\Users\STUDENT\AppData\Local\Temp\ccMxouBa.s:4262   .text.UART0_StdIntHandler:00000010 $d
C:\Users\STUDENT\AppData\Local\Temp\ccMxouBa.s:4267   .text.UART1_StdIntHandler:00000000 $t
C:\Users\STUDENT\AppData\Local\Temp\ccMxouBa.s:4272   .text.UART1_StdIntHandler:00000000 UART1_StdIntHandler
C:\Users\STUDENT\AppData\Local\Temp\ccMxouBa.s:4293   .text.UART1_StdIntHandler:00000010 $d
C:\Users\STUDENT\AppData\Local\Temp\ccMxouBa.s:4298   .text.UART2_StdIntHandler:00000000 $t
C:\Users\STUDENT\AppData\Local\Temp\ccMxouBa.s:4303   .text.UART2_StdIntHandler:00000000 UART2_StdIntHandler
C:\Users\STUDENT\AppData\Local\Temp\ccMxouBa.s:4324   .text.UART2_StdIntHandler:00000010 $d
C:\Users\STUDENT\AppData\Local\Temp\ccMxouBa.s:4329   .text.UART3_StdIntHandler:00000000 $t
C:\Users\STUDENT\AppData\Local\Temp\ccMxouBa.s:4334   .text.UART3_StdIntHandler:00000000 UART3_StdIntHandler
C:\Users\STUDENT\AppData\Local\Temp\ccMxouBa.s:4355   .text.UART3_StdIntHandler:00000010 $d
                     .debug_frame:00000010 $d
                           .group:00000000 wm4.0.c0d9c46791312c607b68c96c4ad07fb1
ARM GAS  C:\Users\STUDENT\AppData\Local\Temp\ccMxouBa.s 			page 379


                           .group:00000000 wm4.LPC17xx.h.27.964facdaadd4aa3f18ac78c8a78f0013
                           .group:00000000 wm4.core_cm3.h.32.ec4df48419563a0d596421d1133ac586
                           .group:00000000 wm4._newlib_version.h.4.ad342815780c8db09778091a421b5b5b
                           .group:00000000 wm4.features.h.33.863f3be0b2e521e624fcc7d6fa31d2ca
                           .group:00000000 wm4._default_types.h.15.933e8edd27a65e0b69af4a865eb623d2
                           .group:00000000 wm4._intsup.h.10.b82bf99f69d6a5c085fc866de0d3eb9b
                           .group:00000000 wm4._stdint.h.10.7a5f60e6741af4a5594a3867d347e1f9
                           .group:00000000 wm4.stdint.h.23.373a9d32a9e4c2e88fd347156532d281
                           .group:00000000 wm4.core_cmInstr.h.25.367280a3dbe1a27f086157cbbb6352e1
                           .group:00000000 wm4.core_cm3.h.90.d0c8a7fd6bb95729c958e48b22262446
                           .group:00000000 wm4.LPC17xx.h.953.77a3a85f2f7c5b921d480655a6f3d5b1
                           .group:00000000 wm4.lpc_types.h.31.fe468f0c170b3f2fb639f9a689afb2c4
                           .group:00000000 wm4.lpc17xx_uart.h.52.a1fb1adb001ada5669b2fe52461599d7
                           .group:00000000 wm4.lpc17xx_clkpwr.h.28.ed653d213cc31b181c2f984ea62223b0
                           .group:00000000 wm4.lpc17xx_libcfg_default.h.27.7c412cdf4245ef94b86bdcf981a232f0

UNDEFINED SYMBOLS
CLKPWR_GetPCLK
check_failed
CLKPWR_ConfigPPWR
strlen
