ARM GAS  C:\Users\STUDENT\AppData\Local\Temp\cc6DO5vW.s 			page 1


   1              		.syntax unified
   2              		.cpu cortex-m3
   3              		.fpu softvfp
   4              		.eabi_attribute 20, 1	@ Tag_ABI_FP_denormal
   5              		.eabi_attribute 21, 1	@ Tag_ABI_FP_exceptions
   6              		.eabi_attribute 23, 3	@ Tag_ABI_FP_number_model
   7              		.eabi_attribute 24, 1	@ Tag_ABI_align8_needed
   8              		.eabi_attribute 25, 1	@ Tag_ABI_align8_preserved
   9              		.eabi_attribute 26, 1	@ Tag_ABI_enum_size
  10              		.eabi_attribute 30, 6	@ Tag_ABI_optimization_goals
  11              		.eabi_attribute 34, 1	@ Tag_CPU_unaligned_access
  12              		.eabi_attribute 18, 4	@ Tag_ABI_PCS_wchar_t
  13              		.file	"lpc17xx_gpio.c"
  14              	@ GNU C89 (GNU Tools for ARM Embedded Processors) version 5.4.1 20160919 (release) [ARM/embedded-5-
  15              	@	compiled by GNU C version 4.7.4, GMP version 4.3.2, MPFR version 2.4.2, MPC version 0.8.1
  16              	@ GGC heuristics: --param ggc-min-expand=100 --param ggc-min-heapsize=131072
  17              	@ options passed:  -I . -I config -I system -I core -I drivers -I FreeRTOS
  18              	@ -I FreeRTOS/include -I FreeRTOS/portable/GCC/ARM_CM3 -I FreeRTOS/portable
  19              	@ -I tasks/rc_task_leds -I modules/rc_leds -I drivers/rc_system
  20              	@ -I drivers/rc_gpio -I drivers/rc_uart -I drivers/rc_pinsel
  21              	@ -I drivers/rc_timer -I drivers/rc_adc -imultilib armv7-m
  22              	@ -iprefix c:\program files (x86)\gnu tools arm embedded\5.4 2016q3\bin\../lib/gcc/arm-none-eabi/5.
  23              	@ -isysroot c:\program files (x86)\gnu tools arm embedded\5.4 2016q3\bin\../arm-none-eabi
  24              	@ -MD out/lpc17xx_gpio.d -MF out/lpc17xx_gpio.d -MP -MQ out/lpc17xx_gpio.o
  25              	@ -D__USES_INITFINI__ core/lpc17xx_gpio.c -mcpu=cortex-m3 -mthumb
  26              	@ -auxbase-strip out/lpc17xx_gpio.o -g -ggdb3 -O0 -Wall -Wstrict-prototypes
  27              	@ -Wextra -std=gnu90 -ffunction-sections -fdata-sections -fverbose-asm
  28              	@ options enabled:  -faggressive-loop-optimizations -fauto-inc-dec
  29              	@ -fchkp-check-incomplete-type -fchkp-check-read -fchkp-check-write
  30              	@ -fchkp-instrument-calls -fchkp-narrow-bounds -fchkp-optimize
  31              	@ -fchkp-store-bounds -fchkp-use-static-bounds
  32              	@ -fchkp-use-static-const-bounds -fchkp-use-wrappers -fcommon
  33              	@ -fdata-sections -fdelete-null-pointer-checks -fdwarf2-cfi-asm
  34              	@ -fearly-inlining -feliminate-unused-debug-types -ffunction-cse
  35              	@ -ffunction-sections -fgcse-lm -fgnu-runtime -fgnu-unique -fident
  36              	@ -finline-atomics -fira-hoist-pressure -fira-share-save-slots
  37              	@ -fira-share-spill-slots -fivopts -fkeep-static-consts
  38              	@ -fleading-underscore -flifetime-dse -flto-odr-type-merging -fmath-errno
  39              	@ -fmerge-debug-strings -fpeephole -fprefetch-loop-arrays
  40              	@ -freg-struct-return -fsched-critical-path-heuristic
  41              	@ -fsched-dep-count-heuristic -fsched-group-heuristic -fsched-interblock
  42              	@ -fsched-last-insn-heuristic -fsched-rank-heuristic -fsched-spec
  43              	@ -fsched-spec-insn-heuristic -fsched-stalled-insns-dep
  44              	@ -fsemantic-interposition -fshow-column -fsigned-zeros
  45              	@ -fsplit-ivs-in-unroller -fstdarg-opt -fstrict-volatile-bitfields
  46              	@ -fsync-libcalls -ftrapping-math -ftree-coalesce-vars -ftree-cselim
  47              	@ -ftree-forwprop -ftree-loop-if-convert -ftree-loop-im -ftree-loop-ivcanon
  48              	@ -ftree-loop-optimize -ftree-parallelize-loops= -ftree-phiprop
  49              	@ -ftree-reassoc -ftree-scev-cprop -funit-at-a-time -fverbose-asm
  50              	@ -fzero-initialized-in-bss -masm-syntax-unified -mfix-cortex-m3-ldrd
  51              	@ -mlittle-endian -mpic-data-is-text-relative -msched-prolog -mthumb
  52              	@ -munaligned-access -mvectorize-with-neon-quad
  53              	
  54              		.text
  55              	.Ltext0:
  56              		.cfi_sections	.debug_frame
  57              		.section	.text.GPIO_GetPointer,"ax",%progbits
ARM GAS  C:\Users\STUDENT\AppData\Local\Temp\cc6DO5vW.s 			page 2


  58              		.align	2
  59              		.thumb
  60              		.thumb_func
  61              		.type	GPIO_GetPointer, %function
  62              	GPIO_GetPointer:
  63              	.LFB55:
  64              		.file 1 "core/lpc17xx_gpio.c"
   1:core/lpc17xx_gpio.c **** /***********************************************************************//**
   2:core/lpc17xx_gpio.c ****  * @file		lpc17xx_gpio.c
   3:core/lpc17xx_gpio.c ****  * @brief		Contains all functions support for GPIO firmware library on LPC17xx
   4:core/lpc17xx_gpio.c ****  * @version		2.0
   5:core/lpc17xx_gpio.c ****  * @date		21. May. 2010
   6:core/lpc17xx_gpio.c ****  * @author		NXP MCU SW Application Team
   7:core/lpc17xx_gpio.c ****  **************************************************************************
   8:core/lpc17xx_gpio.c ****  * Software that is described herein is for illustrative purposes only
   9:core/lpc17xx_gpio.c ****  * which provides customers with programming information regarding the
  10:core/lpc17xx_gpio.c ****  * products. This software is supplied "AS IS" without any warranties.
  11:core/lpc17xx_gpio.c ****  * NXP Semiconductors assumes no responsibility or liability for the
  12:core/lpc17xx_gpio.c ****  * use of the software, conveys no license or title under any patent,
  13:core/lpc17xx_gpio.c ****  * copyright, or mask work right to the product. NXP Semiconductors
  14:core/lpc17xx_gpio.c ****  * reserves the right to make changes in the software without
  15:core/lpc17xx_gpio.c ****  * notification. NXP Semiconductors also make no representation or
  16:core/lpc17xx_gpio.c ****  * warranty that such application will be suitable for the specified
  17:core/lpc17xx_gpio.c ****  * use without further testing or modification.
  18:core/lpc17xx_gpio.c ****  **********************************************************************/
  19:core/lpc17xx_gpio.c **** 
  20:core/lpc17xx_gpio.c **** /* Peripheral group ----------------------------------------------------------- */
  21:core/lpc17xx_gpio.c **** /** @addtogroup GPIO
  22:core/lpc17xx_gpio.c ****  * @{
  23:core/lpc17xx_gpio.c ****  */
  24:core/lpc17xx_gpio.c **** 
  25:core/lpc17xx_gpio.c **** /* Includes ------------------------------------------------------------------- */
  26:core/lpc17xx_gpio.c **** #include "lpc17xx_gpio.h"
  27:core/lpc17xx_gpio.c **** 
  28:core/lpc17xx_gpio.c **** /* If this source file built with example, the LPC17xx FW library configuration
  29:core/lpc17xx_gpio.c ****  * file in each example directory ("lpc17xx_libcfg.h") must be included,
  30:core/lpc17xx_gpio.c ****  * otherwise the default FW library configuration file must be included instead
  31:core/lpc17xx_gpio.c ****  */
  32:core/lpc17xx_gpio.c **** #ifdef __BUILD_WITH_EXAMPLE__
  33:core/lpc17xx_gpio.c **** #include "lpc17xx_libcfg.h"
  34:core/lpc17xx_gpio.c **** #else
  35:core/lpc17xx_gpio.c **** #include "lpc17xx_libcfg_default.h"
  36:core/lpc17xx_gpio.c **** #endif /* __BUILD_WITH_EXAMPLE__ */
  37:core/lpc17xx_gpio.c **** 
  38:core/lpc17xx_gpio.c **** 
  39:core/lpc17xx_gpio.c **** #ifdef _GPIO
  40:core/lpc17xx_gpio.c **** 
  41:core/lpc17xx_gpio.c **** /* Private Functions ---------------------------------------------------------- */
  42:core/lpc17xx_gpio.c **** 
  43:core/lpc17xx_gpio.c **** static LPC_GPIO_TypeDef *GPIO_GetPointer(uint8_t portNum);
  44:core/lpc17xx_gpio.c **** static GPIO_HalfWord_TypeDef *FIO_HalfWordGetPointer(uint8_t portNum);
  45:core/lpc17xx_gpio.c **** static GPIO_Byte_TypeDef *FIO_ByteGetPointer(uint8_t portNum);
  46:core/lpc17xx_gpio.c **** 
  47:core/lpc17xx_gpio.c **** /*********************************************************************//**
  48:core/lpc17xx_gpio.c ****  * @brief		Get pointer to GPIO peripheral due to GPIO port
  49:core/lpc17xx_gpio.c ****  * @param[in]	portNum		Port Number value, should be in range from 0 to 4.
  50:core/lpc17xx_gpio.c ****  * @return		Pointer to GPIO peripheral
ARM GAS  C:\Users\STUDENT\AppData\Local\Temp\cc6DO5vW.s 			page 3


  51:core/lpc17xx_gpio.c ****  **********************************************************************/
  52:core/lpc17xx_gpio.c **** static LPC_GPIO_TypeDef *GPIO_GetPointer(uint8_t portNum)
  53:core/lpc17xx_gpio.c **** {
  65              		.loc 1 53 0
  66              		.cfi_startproc
  67              		@ args = 0, pretend = 0, frame = 16
  68              		@ frame_needed = 1, uses_anonymous_args = 0
  69              		@ link register save eliminated.
  70 0000 80B4     		push	{r7}	@
  71              		.cfi_def_cfa_offset 4
  72              		.cfi_offset 7, -4
  73 0002 85B0     		sub	sp, sp, #20	@,,
  74              		.cfi_def_cfa_offset 24
  75 0004 00AF     		add	r7, sp, #0	@,,
  76              		.cfi_def_cfa_register 7
  77 0006 0346     		mov	r3, r0	@ tmp113, portNum
  78 0008 FB71     		strb	r3, [r7, #7]	@ tmp114, portNum
  54:core/lpc17xx_gpio.c **** 	LPC_GPIO_TypeDef *pGPIO = NULL;
  79              		.loc 1 54 0
  80 000a 0023     		movs	r3, #0	@ tmp115,
  81 000c FB60     		str	r3, [r7, #12]	@ tmp115, pGPIO
  55:core/lpc17xx_gpio.c **** 
  56:core/lpc17xx_gpio.c **** 	switch (portNum) {
  82              		.loc 1 56 0
  83 000e FB79     		ldrb	r3, [r7, #7]	@ zero_extendqisi2	@ D.5922, portNum
  84 0010 042B     		cmp	r3, #4	@ D.5922,
  85 0012 1CD8     		bhi	.L11	@
  86 0014 01A2     		adr	r2, .L4	@ tmp122,
  87 0016 52F823F0 		ldr	pc, [r2, r3, lsl #2]	@ tmp122, D.5922
  88 001a 00BF     		.p2align 2
  89              	.L4:
  90 001c 31000000 		.word	.L3+1
  91 0020 37000000 		.word	.L5+1
  92 0024 3D000000 		.word	.L6+1
  93 0028 43000000 		.word	.L7+1
  94 002c 49000000 		.word	.L8+1
  95              		.p2align 1
  96              	.L3:
  57:core/lpc17xx_gpio.c **** 	case 0:
  58:core/lpc17xx_gpio.c **** 		pGPIO = LPC_GPIO0;
  97              		.loc 1 58 0
  98 0030 0A4B     		ldr	r3, .L12	@ tmp116,
  99 0032 FB60     		str	r3, [r7, #12]	@ tmp116, pGPIO
  59:core/lpc17xx_gpio.c **** 		break;
 100              		.loc 1 59 0
 101 0034 0CE0     		b	.L9	@
 102              	.L5:
  60:core/lpc17xx_gpio.c **** 	case 1:
  61:core/lpc17xx_gpio.c **** 		pGPIO = LPC_GPIO1;
 103              		.loc 1 61 0
 104 0036 0A4B     		ldr	r3, .L12+4	@ tmp117,
 105 0038 FB60     		str	r3, [r7, #12]	@ tmp117, pGPIO
  62:core/lpc17xx_gpio.c **** 		break;
 106              		.loc 1 62 0
 107 003a 09E0     		b	.L9	@
 108              	.L6:
  63:core/lpc17xx_gpio.c **** 	case 2:
ARM GAS  C:\Users\STUDENT\AppData\Local\Temp\cc6DO5vW.s 			page 4


  64:core/lpc17xx_gpio.c **** 		pGPIO = LPC_GPIO2;
 109              		.loc 1 64 0
 110 003c 094B     		ldr	r3, .L12+8	@ tmp118,
 111 003e FB60     		str	r3, [r7, #12]	@ tmp118, pGPIO
  65:core/lpc17xx_gpio.c **** 		break;
 112              		.loc 1 65 0
 113 0040 06E0     		b	.L9	@
 114              	.L7:
  66:core/lpc17xx_gpio.c **** 	case 3:
  67:core/lpc17xx_gpio.c **** 		pGPIO = LPC_GPIO3;
 115              		.loc 1 67 0
 116 0042 094B     		ldr	r3, .L12+12	@ tmp119,
 117 0044 FB60     		str	r3, [r7, #12]	@ tmp119, pGPIO
  68:core/lpc17xx_gpio.c **** 		break;
 118              		.loc 1 68 0
 119 0046 03E0     		b	.L9	@
 120              	.L8:
  69:core/lpc17xx_gpio.c **** 	case 4:
  70:core/lpc17xx_gpio.c **** 		pGPIO = LPC_GPIO4;
 121              		.loc 1 70 0
 122 0048 084B     		ldr	r3, .L12+16	@ tmp120,
 123 004a FB60     		str	r3, [r7, #12]	@ tmp120, pGPIO
  71:core/lpc17xx_gpio.c **** 		break;
 124              		.loc 1 71 0
 125 004c 00E0     		b	.L9	@
 126              	.L11:
  72:core/lpc17xx_gpio.c **** 	default:
  73:core/lpc17xx_gpio.c **** 		break;
 127              		.loc 1 73 0
 128 004e 00BF     		nop
 129              	.L9:
  74:core/lpc17xx_gpio.c **** 	}
  75:core/lpc17xx_gpio.c **** 
  76:core/lpc17xx_gpio.c **** 	return pGPIO;
 130              		.loc 1 76 0
 131 0050 FB68     		ldr	r3, [r7, #12]	@ D.5923, pGPIO
  77:core/lpc17xx_gpio.c **** }
 132              		.loc 1 77 0
 133 0052 1846     		mov	r0, r3	@, <retval>
 134 0054 1437     		adds	r7, r7, #20	@,,
 135              		.cfi_def_cfa_offset 4
 136 0056 BD46     		mov	sp, r7	@,
 137              		.cfi_def_cfa_register 13
 138              		@ sp needed	@
 139 0058 80BC     		pop	{r7}	@
 140              		.cfi_restore 7
 141              		.cfi_def_cfa_offset 0
 142 005a 7047     		bx	lr	@
 143              	.L13:
 144              		.align	2
 145              	.L12:
 146 005c 00C00920 		.word	537509888
 147 0060 20C00920 		.word	537509920
 148 0064 40C00920 		.word	537509952
 149 0068 60C00920 		.word	537509984
 150 006c 80C00920 		.word	537510016
 151              		.cfi_endproc
ARM GAS  C:\Users\STUDENT\AppData\Local\Temp\cc6DO5vW.s 			page 5


 152              	.LFE55:
 153              		.size	GPIO_GetPointer, .-GPIO_GetPointer
 154              		.section	.text.FIO_HalfWordGetPointer,"ax",%progbits
 155              		.align	2
 156              		.thumb
 157              		.thumb_func
 158              		.type	FIO_HalfWordGetPointer, %function
 159              	FIO_HalfWordGetPointer:
 160              	.LFB56:
  78:core/lpc17xx_gpio.c **** 
  79:core/lpc17xx_gpio.c **** /*********************************************************************//**
  80:core/lpc17xx_gpio.c ****  * @brief		Get pointer to FIO peripheral in halfword accessible style
  81:core/lpc17xx_gpio.c ****  * 				due to FIO port
  82:core/lpc17xx_gpio.c ****  * @param[in]	portNum		Port Number value, should be in range from 0 to 4.
  83:core/lpc17xx_gpio.c ****  * @return		Pointer to FIO peripheral
  84:core/lpc17xx_gpio.c ****  **********************************************************************/
  85:core/lpc17xx_gpio.c **** static GPIO_HalfWord_TypeDef *FIO_HalfWordGetPointer(uint8_t portNum)
  86:core/lpc17xx_gpio.c **** {
 161              		.loc 1 86 0
 162              		.cfi_startproc
 163              		@ args = 0, pretend = 0, frame = 16
 164              		@ frame_needed = 1, uses_anonymous_args = 0
 165              		@ link register save eliminated.
 166 0000 80B4     		push	{r7}	@
 167              		.cfi_def_cfa_offset 4
 168              		.cfi_offset 7, -4
 169 0002 85B0     		sub	sp, sp, #20	@,,
 170              		.cfi_def_cfa_offset 24
 171 0004 00AF     		add	r7, sp, #0	@,,
 172              		.cfi_def_cfa_register 7
 173 0006 0346     		mov	r3, r0	@ tmp113, portNum
 174 0008 FB71     		strb	r3, [r7, #7]	@ tmp114, portNum
  87:core/lpc17xx_gpio.c **** 	GPIO_HalfWord_TypeDef *pFIO = NULL;
 175              		.loc 1 87 0
 176 000a 0023     		movs	r3, #0	@ tmp115,
 177 000c FB60     		str	r3, [r7, #12]	@ tmp115, pFIO
  88:core/lpc17xx_gpio.c **** 
  89:core/lpc17xx_gpio.c **** 	switch (portNum) {
 178              		.loc 1 89 0
 179 000e FB79     		ldrb	r3, [r7, #7]	@ zero_extendqisi2	@ D.5924, portNum
 180 0010 042B     		cmp	r3, #4	@ D.5924,
 181 0012 1CD8     		bhi	.L24	@
 182 0014 01A2     		adr	r2, .L17	@ tmp122,
 183 0016 52F823F0 		ldr	pc, [r2, r3, lsl #2]	@ tmp122, D.5924
 184 001a 00BF     		.p2align 2
 185              	.L17:
 186 001c 31000000 		.word	.L16+1
 187 0020 37000000 		.word	.L18+1
 188 0024 3D000000 		.word	.L19+1
 189 0028 43000000 		.word	.L20+1
 190 002c 49000000 		.word	.L21+1
 191              		.p2align 1
 192              	.L16:
  90:core/lpc17xx_gpio.c **** 	case 0:
  91:core/lpc17xx_gpio.c **** 		pFIO = GPIO0_HalfWord;
 193              		.loc 1 91 0
 194 0030 0A4B     		ldr	r3, .L25	@ tmp116,
ARM GAS  C:\Users\STUDENT\AppData\Local\Temp\cc6DO5vW.s 			page 6


 195 0032 FB60     		str	r3, [r7, #12]	@ tmp116, pFIO
  92:core/lpc17xx_gpio.c **** 		break;
 196              		.loc 1 92 0
 197 0034 0CE0     		b	.L22	@
 198              	.L18:
  93:core/lpc17xx_gpio.c **** 	case 1:
  94:core/lpc17xx_gpio.c **** 		pFIO = GPIO1_HalfWord;
 199              		.loc 1 94 0
 200 0036 0A4B     		ldr	r3, .L25+4	@ tmp117,
 201 0038 FB60     		str	r3, [r7, #12]	@ tmp117, pFIO
  95:core/lpc17xx_gpio.c **** 		break;
 202              		.loc 1 95 0
 203 003a 09E0     		b	.L22	@
 204              	.L19:
  96:core/lpc17xx_gpio.c **** 	case 2:
  97:core/lpc17xx_gpio.c **** 		pFIO = GPIO2_HalfWord;
 205              		.loc 1 97 0
 206 003c 094B     		ldr	r3, .L25+8	@ tmp118,
 207 003e FB60     		str	r3, [r7, #12]	@ tmp118, pFIO
  98:core/lpc17xx_gpio.c **** 		break;
 208              		.loc 1 98 0
 209 0040 06E0     		b	.L22	@
 210              	.L20:
  99:core/lpc17xx_gpio.c **** 	case 3:
 100:core/lpc17xx_gpio.c **** 		pFIO = GPIO3_HalfWord;
 211              		.loc 1 100 0
 212 0042 094B     		ldr	r3, .L25+12	@ tmp119,
 213 0044 FB60     		str	r3, [r7, #12]	@ tmp119, pFIO
 101:core/lpc17xx_gpio.c **** 		break;
 214              		.loc 1 101 0
 215 0046 03E0     		b	.L22	@
 216              	.L21:
 102:core/lpc17xx_gpio.c **** 	case 4:
 103:core/lpc17xx_gpio.c **** 		pFIO = GPIO4_HalfWord;
 217              		.loc 1 103 0
 218 0048 084B     		ldr	r3, .L25+16	@ tmp120,
 219 004a FB60     		str	r3, [r7, #12]	@ tmp120, pFIO
 104:core/lpc17xx_gpio.c **** 		break;
 220              		.loc 1 104 0
 221 004c 00E0     		b	.L22	@
 222              	.L24:
 105:core/lpc17xx_gpio.c **** 	default:
 106:core/lpc17xx_gpio.c **** 		break;
 223              		.loc 1 106 0
 224 004e 00BF     		nop
 225              	.L22:
 107:core/lpc17xx_gpio.c **** 	}
 108:core/lpc17xx_gpio.c **** 
 109:core/lpc17xx_gpio.c **** 	return pFIO;
 226              		.loc 1 109 0
 227 0050 FB68     		ldr	r3, [r7, #12]	@ D.5925, pFIO
 110:core/lpc17xx_gpio.c **** }
 228              		.loc 1 110 0
 229 0052 1846     		mov	r0, r3	@, <retval>
 230 0054 1437     		adds	r7, r7, #20	@,,
 231              		.cfi_def_cfa_offset 4
 232 0056 BD46     		mov	sp, r7	@,
ARM GAS  C:\Users\STUDENT\AppData\Local\Temp\cc6DO5vW.s 			page 7


 233              		.cfi_def_cfa_register 13
 234              		@ sp needed	@
 235 0058 80BC     		pop	{r7}	@
 236              		.cfi_restore 7
 237              		.cfi_def_cfa_offset 0
 238 005a 7047     		bx	lr	@
 239              	.L26:
 240              		.align	2
 241              	.L25:
 242 005c 00C00920 		.word	537509888
 243 0060 20C00920 		.word	537509920
 244 0064 40C00920 		.word	537509952
 245 0068 60C00920 		.word	537509984
 246 006c 80C00920 		.word	537510016
 247              		.cfi_endproc
 248              	.LFE56:
 249              		.size	FIO_HalfWordGetPointer, .-FIO_HalfWordGetPointer
 250              		.section	.text.FIO_ByteGetPointer,"ax",%progbits
 251              		.align	2
 252              		.thumb
 253              		.thumb_func
 254              		.type	FIO_ByteGetPointer, %function
 255              	FIO_ByteGetPointer:
 256              	.LFB57:
 111:core/lpc17xx_gpio.c **** 
 112:core/lpc17xx_gpio.c **** /*********************************************************************//**
 113:core/lpc17xx_gpio.c ****  * @brief		Get pointer to FIO peripheral in byte accessible style
 114:core/lpc17xx_gpio.c ****  * 				due to FIO port
 115:core/lpc17xx_gpio.c ****  * @param[in]	portNum		Port Number value, should be in range from 0 to 4.
 116:core/lpc17xx_gpio.c ****  * @return		Pointer to FIO peripheral
 117:core/lpc17xx_gpio.c ****  **********************************************************************/
 118:core/lpc17xx_gpio.c **** static GPIO_Byte_TypeDef *FIO_ByteGetPointer(uint8_t portNum)
 119:core/lpc17xx_gpio.c **** {
 257              		.loc 1 119 0
 258              		.cfi_startproc
 259              		@ args = 0, pretend = 0, frame = 16
 260              		@ frame_needed = 1, uses_anonymous_args = 0
 261              		@ link register save eliminated.
 262 0000 80B4     		push	{r7}	@
 263              		.cfi_def_cfa_offset 4
 264              		.cfi_offset 7, -4
 265 0002 85B0     		sub	sp, sp, #20	@,,
 266              		.cfi_def_cfa_offset 24
 267 0004 00AF     		add	r7, sp, #0	@,,
 268              		.cfi_def_cfa_register 7
 269 0006 0346     		mov	r3, r0	@ tmp113, portNum
 270 0008 FB71     		strb	r3, [r7, #7]	@ tmp114, portNum
 120:core/lpc17xx_gpio.c **** 	GPIO_Byte_TypeDef *pFIO = NULL;
 271              		.loc 1 120 0
 272 000a 0023     		movs	r3, #0	@ tmp115,
 273 000c FB60     		str	r3, [r7, #12]	@ tmp115, pFIO
 121:core/lpc17xx_gpio.c **** 
 122:core/lpc17xx_gpio.c **** 	switch (portNum) {
 274              		.loc 1 122 0
 275 000e FB79     		ldrb	r3, [r7, #7]	@ zero_extendqisi2	@ D.5926, portNum
 276 0010 042B     		cmp	r3, #4	@ D.5926,
 277 0012 1CD8     		bhi	.L37	@
ARM GAS  C:\Users\STUDENT\AppData\Local\Temp\cc6DO5vW.s 			page 8


 278 0014 01A2     		adr	r2, .L30	@ tmp122,
 279 0016 52F823F0 		ldr	pc, [r2, r3, lsl #2]	@ tmp122, D.5926
 280 001a 00BF     		.p2align 2
 281              	.L30:
 282 001c 31000000 		.word	.L29+1
 283 0020 37000000 		.word	.L31+1
 284 0024 3D000000 		.word	.L32+1
 285 0028 43000000 		.word	.L33+1
 286 002c 49000000 		.word	.L34+1
 287              		.p2align 1
 288              	.L29:
 123:core/lpc17xx_gpio.c **** 	case 0:
 124:core/lpc17xx_gpio.c **** 		pFIO = GPIO0_Byte;
 289              		.loc 1 124 0
 290 0030 0A4B     		ldr	r3, .L38	@ tmp116,
 291 0032 FB60     		str	r3, [r7, #12]	@ tmp116, pFIO
 125:core/lpc17xx_gpio.c **** 		break;
 292              		.loc 1 125 0
 293 0034 0CE0     		b	.L35	@
 294              	.L31:
 126:core/lpc17xx_gpio.c **** 	case 1:
 127:core/lpc17xx_gpio.c **** 		pFIO = GPIO1_Byte;
 295              		.loc 1 127 0
 296 0036 0A4B     		ldr	r3, .L38+4	@ tmp117,
 297 0038 FB60     		str	r3, [r7, #12]	@ tmp117, pFIO
 128:core/lpc17xx_gpio.c **** 		break;
 298              		.loc 1 128 0
 299 003a 09E0     		b	.L35	@
 300              	.L32:
 129:core/lpc17xx_gpio.c **** 	case 2:
 130:core/lpc17xx_gpio.c **** 		pFIO = GPIO2_Byte;
 301              		.loc 1 130 0
 302 003c 094B     		ldr	r3, .L38+8	@ tmp118,
 303 003e FB60     		str	r3, [r7, #12]	@ tmp118, pFIO
 131:core/lpc17xx_gpio.c **** 		break;
 304              		.loc 1 131 0
 305 0040 06E0     		b	.L35	@
 306              	.L33:
 132:core/lpc17xx_gpio.c **** 	case 3:
 133:core/lpc17xx_gpio.c **** 		pFIO = GPIO3_Byte;
 307              		.loc 1 133 0
 308 0042 094B     		ldr	r3, .L38+12	@ tmp119,
 309 0044 FB60     		str	r3, [r7, #12]	@ tmp119, pFIO
 134:core/lpc17xx_gpio.c **** 		break;
 310              		.loc 1 134 0
 311 0046 03E0     		b	.L35	@
 312              	.L34:
 135:core/lpc17xx_gpio.c **** 	case 4:
 136:core/lpc17xx_gpio.c **** 		pFIO = GPIO4_Byte;
 313              		.loc 1 136 0
 314 0048 084B     		ldr	r3, .L38+16	@ tmp120,
 315 004a FB60     		str	r3, [r7, #12]	@ tmp120, pFIO
 137:core/lpc17xx_gpio.c **** 		break;
 316              		.loc 1 137 0
 317 004c 00E0     		b	.L35	@
 318              	.L37:
 138:core/lpc17xx_gpio.c **** 	default:
ARM GAS  C:\Users\STUDENT\AppData\Local\Temp\cc6DO5vW.s 			page 9


 139:core/lpc17xx_gpio.c **** 		break;
 319              		.loc 1 139 0
 320 004e 00BF     		nop
 321              	.L35:
 140:core/lpc17xx_gpio.c **** 	}
 141:core/lpc17xx_gpio.c **** 
 142:core/lpc17xx_gpio.c **** 	return pFIO;
 322              		.loc 1 142 0
 323 0050 FB68     		ldr	r3, [r7, #12]	@ D.5927, pFIO
 143:core/lpc17xx_gpio.c **** }
 324              		.loc 1 143 0
 325 0052 1846     		mov	r0, r3	@, <retval>
 326 0054 1437     		adds	r7, r7, #20	@,,
 327              		.cfi_def_cfa_offset 4
 328 0056 BD46     		mov	sp, r7	@,
 329              		.cfi_def_cfa_register 13
 330              		@ sp needed	@
 331 0058 80BC     		pop	{r7}	@
 332              		.cfi_restore 7
 333              		.cfi_def_cfa_offset 0
 334 005a 7047     		bx	lr	@
 335              	.L39:
 336              		.align	2
 337              	.L38:
 338 005c 00C00920 		.word	537509888
 339 0060 20C00920 		.word	537509920
 340 0064 40C00920 		.word	537509952
 341 0068 60C00920 		.word	537509984
 342 006c 80C00920 		.word	537510016
 343              		.cfi_endproc
 344              	.LFE57:
 345              		.size	FIO_ByteGetPointer, .-FIO_ByteGetPointer
 346              		.section	.text.GPIO_SetDir,"ax",%progbits
 347              		.align	2
 348              		.global	GPIO_SetDir
 349              		.thumb
 350              		.thumb_func
 351              		.type	GPIO_SetDir, %function
 352              	GPIO_SetDir:
 353              	.LFB58:
 144:core/lpc17xx_gpio.c **** 
 145:core/lpc17xx_gpio.c **** /* End of Private Functions --------------------------------------------------- */
 146:core/lpc17xx_gpio.c **** 
 147:core/lpc17xx_gpio.c **** 
 148:core/lpc17xx_gpio.c **** /* Public Functions ----------------------------------------------------------- */
 149:core/lpc17xx_gpio.c **** /** @addtogroup GPIO_Public_Functions
 150:core/lpc17xx_gpio.c ****  * @{
 151:core/lpc17xx_gpio.c ****  */
 152:core/lpc17xx_gpio.c **** 
 153:core/lpc17xx_gpio.c **** 
 154:core/lpc17xx_gpio.c **** /* GPIO ------------------------------------------------------------------------------ */
 155:core/lpc17xx_gpio.c **** 
 156:core/lpc17xx_gpio.c **** /*********************************************************************//**
 157:core/lpc17xx_gpio.c ****  * @brief		Set Direction for GPIO port.
 158:core/lpc17xx_gpio.c ****  * @param[in]	portNum		Port Number value, should be in range from 0 to 4
 159:core/lpc17xx_gpio.c ****  * @param[in]	bitValue	Value that contains all bits to set direction,
 160:core/lpc17xx_gpio.c ****  * 							in range from 0 to 0xFFFFFFFF.
ARM GAS  C:\Users\STUDENT\AppData\Local\Temp\cc6DO5vW.s 			page 10


 161:core/lpc17xx_gpio.c ****  * 							example: value 0x5 to set direction for bit 0 and bit 1.
 162:core/lpc17xx_gpio.c ****  * @param[in]	dir			Direction value, should be:
 163:core/lpc17xx_gpio.c ****  * 							- 0: Input.
 164:core/lpc17xx_gpio.c ****  * 							- 1: Output.
 165:core/lpc17xx_gpio.c ****  * @return		None
 166:core/lpc17xx_gpio.c ****  *
 167:core/lpc17xx_gpio.c ****  * Note: All remaining bits that are not activated in bitValue (value '0')
 168:core/lpc17xx_gpio.c ****  * will not be effected by this function.
 169:core/lpc17xx_gpio.c ****  **********************************************************************/
 170:core/lpc17xx_gpio.c **** void GPIO_SetDir(uint8_t portNum, uint32_t bitValue, uint8_t dir)
 171:core/lpc17xx_gpio.c **** {
 354              		.loc 1 171 0
 355              		.cfi_startproc
 356              		@ args = 0, pretend = 0, frame = 16
 357              		@ frame_needed = 1, uses_anonymous_args = 0
 358 0000 80B5     		push	{r7, lr}	@
 359              		.cfi_def_cfa_offset 8
 360              		.cfi_offset 7, -8
 361              		.cfi_offset 14, -4
 362 0002 84B0     		sub	sp, sp, #16	@,,
 363              		.cfi_def_cfa_offset 24
 364 0004 00AF     		add	r7, sp, #0	@,,
 365              		.cfi_def_cfa_register 7
 366 0006 0346     		mov	r3, r0	@ tmp115, portNum
 367 0008 3960     		str	r1, [r7]	@ bitValue, bitValue
 368 000a FB71     		strb	r3, [r7, #7]	@ tmp116, portNum
 369 000c 1346     		mov	r3, r2	@ tmp118, tmp117
 370 000e BB71     		strb	r3, [r7, #6]	@ tmp118, dir
 172:core/lpc17xx_gpio.c **** 	LPC_GPIO_TypeDef *pGPIO = GPIO_GetPointer(portNum);
 371              		.loc 1 172 0
 372 0010 FB79     		ldrb	r3, [r7, #7]	@ zero_extendqisi2	@ tmp119, portNum
 373 0012 1846     		mov	r0, r3	@, tmp119
 374 0014 FFF7FEFF 		bl	GPIO_GetPointer	@
 375 0018 F860     		str	r0, [r7, #12]	@, pGPIO
 173:core/lpc17xx_gpio.c **** 
 174:core/lpc17xx_gpio.c **** 	if (pGPIO != NULL) {
 376              		.loc 1 174 0
 377 001a FB68     		ldr	r3, [r7, #12]	@ tmp120, pGPIO
 378 001c 002B     		cmp	r3, #0	@ tmp120,
 379 001e 10D0     		beq	.L43	@,
 175:core/lpc17xx_gpio.c **** 		// Enable Output
 176:core/lpc17xx_gpio.c **** 		if (dir) {
 380              		.loc 1 176 0
 381 0020 BB79     		ldrb	r3, [r7, #6]	@ zero_extendqisi2	@ tmp121, dir
 382 0022 002B     		cmp	r3, #0	@ tmp121,
 383 0024 06D0     		beq	.L42	@,
 177:core/lpc17xx_gpio.c **** 			pGPIO->FIODIR |= bitValue;
 384              		.loc 1 177 0
 385 0026 FB68     		ldr	r3, [r7, #12]	@ tmp122, pGPIO
 386 0028 1A68     		ldr	r2, [r3]	@ D.5928, pGPIO_5->D.4692.FIODIR
 387 002a 3B68     		ldr	r3, [r7]	@ tmp123, bitValue
 388 002c 1A43     		orrs	r2, r2, r3	@, D.5928, D.5928, tmp123
 389 002e FB68     		ldr	r3, [r7, #12]	@ tmp124, pGPIO
 390 0030 1A60     		str	r2, [r3]	@ D.5928, pGPIO_5->D.4692.FIODIR
 178:core/lpc17xx_gpio.c **** 		}
 179:core/lpc17xx_gpio.c **** 		// Enable Input
 180:core/lpc17xx_gpio.c **** 		else {
ARM GAS  C:\Users\STUDENT\AppData\Local\Temp\cc6DO5vW.s 			page 11


 181:core/lpc17xx_gpio.c **** 			pGPIO->FIODIR &= ~bitValue;
 182:core/lpc17xx_gpio.c **** 		}
 183:core/lpc17xx_gpio.c **** 	}
 184:core/lpc17xx_gpio.c **** }
 391              		.loc 1 184 0
 392 0032 06E0     		b	.L43	@
 393              	.L42:
 181:core/lpc17xx_gpio.c **** 		}
 394              		.loc 1 181 0
 395 0034 FB68     		ldr	r3, [r7, #12]	@ tmp125, pGPIO
 396 0036 1A68     		ldr	r2, [r3]	@ D.5928, pGPIO_5->D.4692.FIODIR
 397 0038 3B68     		ldr	r3, [r7]	@ tmp126, bitValue
 398 003a DB43     		mvns	r3, r3	@ D.5928, tmp126
 399 003c 1A40     		ands	r2, r2, r3	@, D.5928, D.5928, D.5928
 400 003e FB68     		ldr	r3, [r7, #12]	@ tmp127, pGPIO
 401 0040 1A60     		str	r2, [r3]	@ D.5928, pGPIO_5->D.4692.FIODIR
 402              	.L43:
 403              		.loc 1 184 0
 404 0042 00BF     		nop
 405 0044 1037     		adds	r7, r7, #16	@,,
 406              		.cfi_def_cfa_offset 8
 407 0046 BD46     		mov	sp, r7	@,
 408              		.cfi_def_cfa_register 13
 409              		@ sp needed	@
 410 0048 80BD     		pop	{r7, pc}	@
 411              		.cfi_endproc
 412              	.LFE58:
 413              		.size	GPIO_SetDir, .-GPIO_SetDir
 414 004a 00BF     		.section	.text.GPIO_SetValue,"ax",%progbits
 415              		.align	2
 416              		.global	GPIO_SetValue
 417              		.thumb
 418              		.thumb_func
 419              		.type	GPIO_SetValue, %function
 420              	GPIO_SetValue:
 421              	.LFB59:
 185:core/lpc17xx_gpio.c **** 
 186:core/lpc17xx_gpio.c **** 
 187:core/lpc17xx_gpio.c **** /*********************************************************************//**
 188:core/lpc17xx_gpio.c ****  * @brief		Set Value for bits that have output direction on GPIO port.
 189:core/lpc17xx_gpio.c ****  * @param[in]	portNum		Port number value, should be in range from 0 to 4
 190:core/lpc17xx_gpio.c ****  * @param[in]	bitValue	Value that contains all bits on GPIO to set,
 191:core/lpc17xx_gpio.c ****  * 							in range from 0 to 0xFFFFFFFF.
 192:core/lpc17xx_gpio.c ****  * 							example: value 0x5 to set bit 0 and bit 1.
 193:core/lpc17xx_gpio.c ****  * @return		None
 194:core/lpc17xx_gpio.c ****  *
 195:core/lpc17xx_gpio.c ****  * Note:
 196:core/lpc17xx_gpio.c ****  * - For all bits that has been set as input direction, this function will
 197:core/lpc17xx_gpio.c ****  * not effect.
 198:core/lpc17xx_gpio.c ****  * - For all remaining bits that are not activated in bitValue (value '0')
 199:core/lpc17xx_gpio.c ****  * will not be effected by this function.
 200:core/lpc17xx_gpio.c ****  **********************************************************************/
 201:core/lpc17xx_gpio.c **** void GPIO_SetValue(uint8_t portNum, uint32_t bitValue)
 202:core/lpc17xx_gpio.c **** {
 422              		.loc 1 202 0
 423              		.cfi_startproc
 424              		@ args = 0, pretend = 0, frame = 16
ARM GAS  C:\Users\STUDENT\AppData\Local\Temp\cc6DO5vW.s 			page 12


 425              		@ frame_needed = 1, uses_anonymous_args = 0
 426 0000 80B5     		push	{r7, lr}	@
 427              		.cfi_def_cfa_offset 8
 428              		.cfi_offset 7, -8
 429              		.cfi_offset 14, -4
 430 0002 84B0     		sub	sp, sp, #16	@,,
 431              		.cfi_def_cfa_offset 24
 432 0004 00AF     		add	r7, sp, #0	@,,
 433              		.cfi_def_cfa_register 7
 434 0006 0346     		mov	r3, r0	@ tmp110, portNum
 435 0008 3960     		str	r1, [r7]	@ bitValue, bitValue
 436 000a FB71     		strb	r3, [r7, #7]	@ tmp111, portNum
 203:core/lpc17xx_gpio.c **** 	LPC_GPIO_TypeDef *pGPIO = GPIO_GetPointer(portNum);
 437              		.loc 1 203 0
 438 000c FB79     		ldrb	r3, [r7, #7]	@ zero_extendqisi2	@ tmp112, portNum
 439 000e 1846     		mov	r0, r3	@, tmp112
 440 0010 FFF7FEFF 		bl	GPIO_GetPointer	@
 441 0014 F860     		str	r0, [r7, #12]	@, pGPIO
 204:core/lpc17xx_gpio.c **** 
 205:core/lpc17xx_gpio.c **** 	if (pGPIO != NULL) {
 442              		.loc 1 205 0
 443 0016 FB68     		ldr	r3, [r7, #12]	@ tmp113, pGPIO
 444 0018 002B     		cmp	r3, #0	@ tmp113,
 445 001a 02D0     		beq	.L46	@,
 206:core/lpc17xx_gpio.c **** 		pGPIO->FIOSET = bitValue;
 446              		.loc 1 206 0
 447 001c FB68     		ldr	r3, [r7, #12]	@ tmp114, pGPIO
 448 001e 3A68     		ldr	r2, [r7]	@ tmp115, bitValue
 449 0020 9A61     		str	r2, [r3, #24]	@ tmp115, pGPIO_5->D.4732.FIOSET
 450              	.L46:
 207:core/lpc17xx_gpio.c **** 	}
 208:core/lpc17xx_gpio.c **** }
 451              		.loc 1 208 0
 452 0022 00BF     		nop
 453 0024 1037     		adds	r7, r7, #16	@,,
 454              		.cfi_def_cfa_offset 8
 455 0026 BD46     		mov	sp, r7	@,
 456              		.cfi_def_cfa_register 13
 457              		@ sp needed	@
 458 0028 80BD     		pop	{r7, pc}	@
 459              		.cfi_endproc
 460              	.LFE59:
 461              		.size	GPIO_SetValue, .-GPIO_SetValue
 462 002a 00BF     		.section	.text.GPIO_ClearValue,"ax",%progbits
 463              		.align	2
 464              		.global	GPIO_ClearValue
 465              		.thumb
 466              		.thumb_func
 467              		.type	GPIO_ClearValue, %function
 468              	GPIO_ClearValue:
 469              	.LFB60:
 209:core/lpc17xx_gpio.c **** 
 210:core/lpc17xx_gpio.c **** /*********************************************************************//**
 211:core/lpc17xx_gpio.c ****  * @brief		Clear Value for bits that have output direction on GPIO port.
 212:core/lpc17xx_gpio.c ****  * @param[in]	portNum		Port number value, should be in range from 0 to 4
 213:core/lpc17xx_gpio.c ****  * @param[in]	bitValue	Value that contains all bits on GPIO to clear,
 214:core/lpc17xx_gpio.c ****  * 							in range from 0 to 0xFFFFFFFF.
ARM GAS  C:\Users\STUDENT\AppData\Local\Temp\cc6DO5vW.s 			page 13


 215:core/lpc17xx_gpio.c ****  * 							example: value 0x5 to clear bit 0 and bit 1.
 216:core/lpc17xx_gpio.c ****  * @return		None
 217:core/lpc17xx_gpio.c ****  *
 218:core/lpc17xx_gpio.c ****  * Note:
 219:core/lpc17xx_gpio.c ****  * - For all bits that has been set as input direction, this function will
 220:core/lpc17xx_gpio.c ****  * not effect.
 221:core/lpc17xx_gpio.c ****  * - For all remaining bits that are not activated in bitValue (value '0')
 222:core/lpc17xx_gpio.c ****  * will not be effected by this function.
 223:core/lpc17xx_gpio.c ****  **********************************************************************/
 224:core/lpc17xx_gpio.c **** void GPIO_ClearValue(uint8_t portNum, uint32_t bitValue)
 225:core/lpc17xx_gpio.c **** {
 470              		.loc 1 225 0
 471              		.cfi_startproc
 472              		@ args = 0, pretend = 0, frame = 16
 473              		@ frame_needed = 1, uses_anonymous_args = 0
 474 0000 80B5     		push	{r7, lr}	@
 475              		.cfi_def_cfa_offset 8
 476              		.cfi_offset 7, -8
 477              		.cfi_offset 14, -4
 478 0002 84B0     		sub	sp, sp, #16	@,,
 479              		.cfi_def_cfa_offset 24
 480 0004 00AF     		add	r7, sp, #0	@,,
 481              		.cfi_def_cfa_register 7
 482 0006 0346     		mov	r3, r0	@ tmp110, portNum
 483 0008 3960     		str	r1, [r7]	@ bitValue, bitValue
 484 000a FB71     		strb	r3, [r7, #7]	@ tmp111, portNum
 226:core/lpc17xx_gpio.c **** 	LPC_GPIO_TypeDef *pGPIO = GPIO_GetPointer(portNum);
 485              		.loc 1 226 0
 486 000c FB79     		ldrb	r3, [r7, #7]	@ zero_extendqisi2	@ tmp112, portNum
 487 000e 1846     		mov	r0, r3	@, tmp112
 488 0010 FFF7FEFF 		bl	GPIO_GetPointer	@
 489 0014 F860     		str	r0, [r7, #12]	@, pGPIO
 227:core/lpc17xx_gpio.c **** 
 228:core/lpc17xx_gpio.c **** 	if (pGPIO != NULL) {
 490              		.loc 1 228 0
 491 0016 FB68     		ldr	r3, [r7, #12]	@ tmp113, pGPIO
 492 0018 002B     		cmp	r3, #0	@ tmp113,
 493 001a 02D0     		beq	.L49	@,
 229:core/lpc17xx_gpio.c **** 		pGPIO->FIOCLR = bitValue;
 494              		.loc 1 229 0
 495 001c FB68     		ldr	r3, [r7, #12]	@ tmp114, pGPIO
 496 001e 3A68     		ldr	r2, [r7]	@ tmp115, bitValue
 497 0020 DA61     		str	r2, [r3, #28]	@ tmp115, pGPIO_5->D.4745.FIOCLR
 498              	.L49:
 230:core/lpc17xx_gpio.c **** 	}
 231:core/lpc17xx_gpio.c **** }
 499              		.loc 1 231 0
 500 0022 00BF     		nop
 501 0024 1037     		adds	r7, r7, #16	@,,
 502              		.cfi_def_cfa_offset 8
 503 0026 BD46     		mov	sp, r7	@,
 504              		.cfi_def_cfa_register 13
 505              		@ sp needed	@
 506 0028 80BD     		pop	{r7, pc}	@
 507              		.cfi_endproc
 508              	.LFE60:
 509              		.size	GPIO_ClearValue, .-GPIO_ClearValue
ARM GAS  C:\Users\STUDENT\AppData\Local\Temp\cc6DO5vW.s 			page 14


 510 002a 00BF     		.section	.text.GPIO_ReadValue,"ax",%progbits
 511              		.align	2
 512              		.global	GPIO_ReadValue
 513              		.thumb
 514              		.thumb_func
 515              		.type	GPIO_ReadValue, %function
 516              	GPIO_ReadValue:
 517              	.LFB61:
 232:core/lpc17xx_gpio.c **** 
 233:core/lpc17xx_gpio.c **** /*********************************************************************//**
 234:core/lpc17xx_gpio.c ****  * @brief		Read Current state on port pin that have input direction of GPIO
 235:core/lpc17xx_gpio.c ****  * @param[in]	portNum		Port number to read value, in range from 0 to 4
 236:core/lpc17xx_gpio.c ****  * @return		Current value of GPIO port.
 237:core/lpc17xx_gpio.c ****  *
 238:core/lpc17xx_gpio.c ****  * Note: Return value contain state of each port pin (bit) on that GPIO regardless
 239:core/lpc17xx_gpio.c ****  * its direction is input or output.
 240:core/lpc17xx_gpio.c ****  **********************************************************************/
 241:core/lpc17xx_gpio.c **** uint32_t GPIO_ReadValue(uint8_t portNum)
 242:core/lpc17xx_gpio.c **** {
 518              		.loc 1 242 0
 519              		.cfi_startproc
 520              		@ args = 0, pretend = 0, frame = 16
 521              		@ frame_needed = 1, uses_anonymous_args = 0
 522 0000 80B5     		push	{r7, lr}	@
 523              		.cfi_def_cfa_offset 8
 524              		.cfi_offset 7, -8
 525              		.cfi_offset 14, -4
 526 0002 84B0     		sub	sp, sp, #16	@,,
 527              		.cfi_def_cfa_offset 24
 528 0004 00AF     		add	r7, sp, #0	@,,
 529              		.cfi_def_cfa_register 7
 530 0006 0346     		mov	r3, r0	@ tmp112, portNum
 531 0008 FB71     		strb	r3, [r7, #7]	@ tmp113, portNum
 243:core/lpc17xx_gpio.c **** 	LPC_GPIO_TypeDef *pGPIO = GPIO_GetPointer(portNum);
 532              		.loc 1 243 0
 533 000a FB79     		ldrb	r3, [r7, #7]	@ zero_extendqisi2	@ tmp114, portNum
 534 000c 1846     		mov	r0, r3	@, tmp114
 535 000e FFF7FEFF 		bl	GPIO_GetPointer	@
 536 0012 F860     		str	r0, [r7, #12]	@, pGPIO
 244:core/lpc17xx_gpio.c **** 
 245:core/lpc17xx_gpio.c **** 	if (pGPIO != NULL) {
 537              		.loc 1 245 0
 538 0014 FB68     		ldr	r3, [r7, #12]	@ tmp115, pGPIO
 539 0016 002B     		cmp	r3, #0	@ tmp115,
 540 0018 02D0     		beq	.L51	@,
 246:core/lpc17xx_gpio.c **** 		return pGPIO->FIOPIN;
 541              		.loc 1 246 0
 542 001a FB68     		ldr	r3, [r7, #12]	@ tmp116, pGPIO
 543 001c 5B69     		ldr	r3, [r3, #20]	@ D.5929, pGPIO_5->D.4719.FIOPIN
 544 001e 00E0     		b	.L52	@
 545              	.L51:
 247:core/lpc17xx_gpio.c **** 	}
 248:core/lpc17xx_gpio.c **** 
 249:core/lpc17xx_gpio.c **** 	return (0);
 546              		.loc 1 249 0
 547 0020 0023     		movs	r3, #0	@ D.5929,
 548              	.L52:
ARM GAS  C:\Users\STUDENT\AppData\Local\Temp\cc6DO5vW.s 			page 15


 250:core/lpc17xx_gpio.c **** }
 549              		.loc 1 250 0
 550 0022 1846     		mov	r0, r3	@, <retval>
 551 0024 1037     		adds	r7, r7, #16	@,,
 552              		.cfi_def_cfa_offset 8
 553 0026 BD46     		mov	sp, r7	@,
 554              		.cfi_def_cfa_register 13
 555              		@ sp needed	@
 556 0028 80BD     		pop	{r7, pc}	@
 557              		.cfi_endproc
 558              	.LFE61:
 559              		.size	GPIO_ReadValue, .-GPIO_ReadValue
 560 002a 00BF     		.section	.text.GPIO_IntCmd,"ax",%progbits
 561              		.align	2
 562              		.global	GPIO_IntCmd
 563              		.thumb
 564              		.thumb_func
 565              		.type	GPIO_IntCmd, %function
 566              	GPIO_IntCmd:
 567              	.LFB62:
 251:core/lpc17xx_gpio.c **** 
 252:core/lpc17xx_gpio.c **** /*********************************************************************//**
 253:core/lpc17xx_gpio.c ****  * @brief		Enable GPIO interrupt (just used for P0.0-P0.30, P2.0-P2.13)
 254:core/lpc17xx_gpio.c ****  * @param[in]	portNum		Port number to read value, should be: 0 or 2
 255:core/lpc17xx_gpio.c ****  * @param[in]	bitValue	Value that contains all bits on GPIO to enable,
 256:core/lpc17xx_gpio.c ****  * 							in range from 0 to 0xFFFFFFFF.
 257:core/lpc17xx_gpio.c ****  * @param[in]	edgeState	state of edge, should be:
 258:core/lpc17xx_gpio.c ****  * 							- 0: Rising edge
 259:core/lpc17xx_gpio.c ****  * 							- 1: Falling edge
 260:core/lpc17xx_gpio.c ****  * @return		None
 261:core/lpc17xx_gpio.c ****  **********************************************************************/
 262:core/lpc17xx_gpio.c **** void GPIO_IntCmd(uint8_t portNum, uint32_t bitValue, uint8_t edgeState)
 263:core/lpc17xx_gpio.c **** {
 568              		.loc 1 263 0
 569              		.cfi_startproc
 570              		@ args = 0, pretend = 0, frame = 8
 571              		@ frame_needed = 1, uses_anonymous_args = 0
 572              		@ link register save eliminated.
 573 0000 80B4     		push	{r7}	@
 574              		.cfi_def_cfa_offset 4
 575              		.cfi_offset 7, -4
 576 0002 83B0     		sub	sp, sp, #12	@,,
 577              		.cfi_def_cfa_offset 16
 578 0004 00AF     		add	r7, sp, #0	@,,
 579              		.cfi_def_cfa_register 7
 580 0006 0346     		mov	r3, r0	@ tmp126, portNum
 581 0008 3960     		str	r1, [r7]	@ bitValue, bitValue
 582 000a FB71     		strb	r3, [r7, #7]	@ tmp127, portNum
 583 000c 1346     		mov	r3, r2	@ tmp129, tmp128
 584 000e BB71     		strb	r3, [r7, #6]	@ tmp129, edgeState
 264:core/lpc17xx_gpio.c **** 	if((portNum == 0)&&(edgeState == 0))
 585              		.loc 1 264 0
 586 0010 FB79     		ldrb	r3, [r7, #7]	@ zero_extendqisi2	@ tmp130, portNum
 587 0012 002B     		cmp	r3, #0	@ tmp130,
 588 0014 09D1     		bne	.L54	@,
 589              		.loc 1 264 0 is_stmt 0 discriminator 1
 590 0016 BB79     		ldrb	r3, [r7, #6]	@ zero_extendqisi2	@ tmp131, edgeState
ARM GAS  C:\Users\STUDENT\AppData\Local\Temp\cc6DO5vW.s 			page 16


 591 0018 002B     		cmp	r3, #0	@ tmp131,
 592 001a 06D1     		bne	.L54	@,
 265:core/lpc17xx_gpio.c **** 		LPC_GPIOINT->IO0IntEnR |= bitValue;
 593              		.loc 1 265 0 is_stmt 1
 594 001c 1949     		ldr	r1, .L59	@ D.5930,
 595 001e 194B     		ldr	r3, .L59	@ D.5930,
 596 0020 1A69     		ldr	r2, [r3, #16]	@ D.5931, _5->IO0IntEnR
 597 0022 3B68     		ldr	r3, [r7]	@ tmp132, bitValue
 598 0024 1343     		orrs	r3, r3, r2	@, D.5931, tmp132, D.5931
 599 0026 0B61     		str	r3, [r1, #16]	@ D.5931, _4->IO0IntEnR
 600 0028 27E0     		b	.L55	@
 601              	.L54:
 266:core/lpc17xx_gpio.c **** 	else if ((portNum == 2)&&(edgeState == 0))
 602              		.loc 1 266 0
 603 002a FB79     		ldrb	r3, [r7, #7]	@ zero_extendqisi2	@ tmp133, portNum
 604 002c 022B     		cmp	r3, #2	@ tmp133,
 605 002e 09D1     		bne	.L56	@,
 606              		.loc 1 266 0 is_stmt 0 discriminator 1
 607 0030 BB79     		ldrb	r3, [r7, #6]	@ zero_extendqisi2	@ tmp134, edgeState
 608 0032 002B     		cmp	r3, #0	@ tmp134,
 609 0034 06D1     		bne	.L56	@,
 267:core/lpc17xx_gpio.c **** 		LPC_GPIOINT->IO2IntEnR |= bitValue;
 610              		.loc 1 267 0 is_stmt 1
 611 0036 1349     		ldr	r1, .L59	@ D.5930,
 612 0038 124B     		ldr	r3, .L59	@ D.5930,
 613 003a 1A6B     		ldr	r2, [r3, #48]	@ D.5931, _12->IO2IntEnR
 614 003c 3B68     		ldr	r3, [r7]	@ tmp135, bitValue
 615 003e 1343     		orrs	r3, r3, r2	@, D.5931, tmp135, D.5931
 616 0040 0B63     		str	r3, [r1, #48]	@ D.5931, _11->IO2IntEnR
 617 0042 1AE0     		b	.L55	@
 618              	.L56:
 268:core/lpc17xx_gpio.c **** 	else if ((portNum == 0)&&(edgeState == 1))
 619              		.loc 1 268 0
 620 0044 FB79     		ldrb	r3, [r7, #7]	@ zero_extendqisi2	@ tmp136, portNum
 621 0046 002B     		cmp	r3, #0	@ tmp136,
 622 0048 09D1     		bne	.L57	@,
 623              		.loc 1 268 0 is_stmt 0 discriminator 1
 624 004a BB79     		ldrb	r3, [r7, #6]	@ zero_extendqisi2	@ tmp137, edgeState
 625 004c 012B     		cmp	r3, #1	@ tmp137,
 626 004e 06D1     		bne	.L57	@,
 269:core/lpc17xx_gpio.c **** 		LPC_GPIOINT->IO0IntEnF |= bitValue;
 627              		.loc 1 269 0 is_stmt 1
 628 0050 0C49     		ldr	r1, .L59	@ D.5930,
 629 0052 0C4B     		ldr	r3, .L59	@ D.5930,
 630 0054 5A69     		ldr	r2, [r3, #20]	@ D.5931, _17->IO0IntEnF
 631 0056 3B68     		ldr	r3, [r7]	@ tmp138, bitValue
 632 0058 1343     		orrs	r3, r3, r2	@, D.5931, tmp138, D.5931
 633 005a 4B61     		str	r3, [r1, #20]	@ D.5931, _16->IO0IntEnF
 634 005c 0DE0     		b	.L55	@
 635              	.L57:
 270:core/lpc17xx_gpio.c **** 	else if ((portNum == 2)&&(edgeState == 1))
 636              		.loc 1 270 0
 637 005e FB79     		ldrb	r3, [r7, #7]	@ zero_extendqisi2	@ tmp139, portNum
 638 0060 022B     		cmp	r3, #2	@ tmp139,
 639 0062 09D1     		bne	.L58	@,
 640              		.loc 1 270 0 is_stmt 0 discriminator 1
 641 0064 BB79     		ldrb	r3, [r7, #6]	@ zero_extendqisi2	@ tmp140, edgeState
ARM GAS  C:\Users\STUDENT\AppData\Local\Temp\cc6DO5vW.s 			page 17


 642 0066 012B     		cmp	r3, #1	@ tmp140,
 643 0068 06D1     		bne	.L58	@,
 271:core/lpc17xx_gpio.c **** 		LPC_GPIOINT->IO2IntEnF |= bitValue;
 644              		.loc 1 271 0 is_stmt 1
 645 006a 0649     		ldr	r1, .L59	@ D.5930,
 646 006c 054B     		ldr	r3, .L59	@ D.5930,
 647 006e 5A6B     		ldr	r2, [r3, #52]	@ D.5931, _22->IO2IntEnF
 648 0070 3B68     		ldr	r3, [r7]	@ tmp141, bitValue
 649 0072 1343     		orrs	r3, r3, r2	@, D.5931, tmp141, D.5931
 650 0074 4B63     		str	r3, [r1, #52]	@ D.5931, _21->IO2IntEnF
 651 0076 00E0     		b	.L55	@
 652              	.L58:
 272:core/lpc17xx_gpio.c **** 	else
 273:core/lpc17xx_gpio.c **** 		//Error
 274:core/lpc17xx_gpio.c **** 		while(1);
 653              		.loc 1 274 0 discriminator 1
 654 0078 FEE7     		b	.L58	@
 655              	.L55:
 275:core/lpc17xx_gpio.c **** }
 656              		.loc 1 275 0
 657 007a 00BF     		nop
 658 007c 0C37     		adds	r7, r7, #12	@,,
 659              		.cfi_def_cfa_offset 4
 660 007e BD46     		mov	sp, r7	@,
 661              		.cfi_def_cfa_register 13
 662              		@ sp needed	@
 663 0080 80BC     		pop	{r7}	@
 664              		.cfi_restore 7
 665              		.cfi_def_cfa_offset 0
 666 0082 7047     		bx	lr	@
 667              	.L60:
 668              		.align	2
 669              	.L59:
 670 0084 80800240 		.word	1073905792
 671              		.cfi_endproc
 672              	.LFE62:
 673              		.size	GPIO_IntCmd, .-GPIO_IntCmd
 674              		.section	.text.GPIO_GetIntStatus,"ax",%progbits
 675              		.align	2
 676              		.global	GPIO_GetIntStatus
 677              		.thumb
 678              		.thumb_func
 679              		.type	GPIO_GetIntStatus, %function
 680              	GPIO_GetIntStatus:
 681              	.LFB63:
 276:core/lpc17xx_gpio.c **** 
 277:core/lpc17xx_gpio.c **** /*********************************************************************//**
 278:core/lpc17xx_gpio.c ****  * @brief		Get GPIO Interrupt Status (just used for P0.0-P0.30, P2.0-P2.13)
 279:core/lpc17xx_gpio.c ****  * @param[in]	portNum		Port number to read value, should be: 0 or 2
 280:core/lpc17xx_gpio.c ****  * @param[in]	pinNum		Pin number, should be: 0..30(with port 0) and 0..13
 281:core/lpc17xx_gpio.c ****  * 							(with port 2)
 282:core/lpc17xx_gpio.c ****  * @param[in]	edgeState	state of edge, should be:
 283:core/lpc17xx_gpio.c ****  * 							- 0: Rising edge
 284:core/lpc17xx_gpio.c ****  * 							- 1: Falling edge
 285:core/lpc17xx_gpio.c ****  * @return		Bool	could be:
 286:core/lpc17xx_gpio.c ****  * 						- ENABLE: Interrupt has been generated due to a rising
 287:core/lpc17xx_gpio.c ****  * 								edge on P0.0
ARM GAS  C:\Users\STUDENT\AppData\Local\Temp\cc6DO5vW.s 			page 18


 288:core/lpc17xx_gpio.c ****  * 						- DISABLE: A rising edge has not been detected on P0.0
 289:core/lpc17xx_gpio.c ****  **********************************************************************/
 290:core/lpc17xx_gpio.c **** FunctionalState GPIO_GetIntStatus(uint8_t portNum, uint32_t pinNum, uint8_t edgeState)
 291:core/lpc17xx_gpio.c **** {
 682              		.loc 1 291 0
 683              		.cfi_startproc
 684              		@ args = 0, pretend = 0, frame = 8
 685              		@ frame_needed = 1, uses_anonymous_args = 0
 686              		@ link register save eliminated.
 687 0000 80B4     		push	{r7}	@
 688              		.cfi_def_cfa_offset 4
 689              		.cfi_offset 7, -4
 690 0002 83B0     		sub	sp, sp, #12	@,,
 691              		.cfi_def_cfa_offset 16
 692 0004 00AF     		add	r7, sp, #0	@,,
 693              		.cfi_def_cfa_register 7
 694 0006 0346     		mov	r3, r0	@ tmp128, portNum
 695 0008 3960     		str	r1, [r7]	@ pinNum, pinNum
 696 000a FB71     		strb	r3, [r7, #7]	@ tmp129, portNum
 697 000c 1346     		mov	r3, r2	@ tmp131, tmp130
 698 000e BB71     		strb	r3, [r7, #6]	@ tmp131, edgeState
 292:core/lpc17xx_gpio.c **** 	if((portNum == 0) && (edgeState == 0))//Rising Edge
 699              		.loc 1 292 0
 700 0010 FB79     		ldrb	r3, [r7, #7]	@ zero_extendqisi2	@ tmp132, portNum
 701 0012 002B     		cmp	r3, #0	@ tmp132,
 702 0014 0CD1     		bne	.L62	@,
 703              		.loc 1 292 0 is_stmt 0 discriminator 1
 704 0016 BB79     		ldrb	r3, [r7, #6]	@ zero_extendqisi2	@ tmp133, edgeState
 705 0018 002B     		cmp	r3, #0	@ tmp133,
 706 001a 09D1     		bne	.L62	@,
 293:core/lpc17xx_gpio.c **** 		return (((LPC_GPIOINT->IO0IntStatR)>>pinNum)& 0x1);
 707              		.loc 1 293 0 is_stmt 1
 708 001c 1F4B     		ldr	r3, .L67	@ D.5933,
 709 001e 5A68     		ldr	r2, [r3, #4]	@ D.5934, _4->IO0IntStatR
 710 0020 3B68     		ldr	r3, [r7]	@ tmp134, pinNum
 711 0022 22FA03F3 		lsr	r3, r2, r3	@ D.5934, D.5934, tmp134
 712 0026 DBB2     		uxtb	r3, r3	@ D.5935, D.5934
 713 0028 03F00103 		and	r3, r3, #1	@ tmp135, D.5935,
 714 002c DBB2     		uxtb	r3, r3	@ D.5932, tmp135
 715 002e 30E0     		b	.L63	@
 716              	.L62:
 294:core/lpc17xx_gpio.c **** 	else if ((portNum == 2) && (edgeState == 0))
 717              		.loc 1 294 0
 718 0030 FB79     		ldrb	r3, [r7, #7]	@ zero_extendqisi2	@ tmp136, portNum
 719 0032 022B     		cmp	r3, #2	@ tmp136,
 720 0034 0CD1     		bne	.L64	@,
 721              		.loc 1 294 0 is_stmt 0 discriminator 1
 722 0036 BB79     		ldrb	r3, [r7, #6]	@ zero_extendqisi2	@ tmp137, edgeState
 723 0038 002B     		cmp	r3, #0	@ tmp137,
 724 003a 09D1     		bne	.L64	@,
 295:core/lpc17xx_gpio.c **** 		return (((LPC_GPIOINT->IO2IntStatR)>>pinNum)& 0x1);
 725              		.loc 1 295 0 is_stmt 1
 726 003c 174B     		ldr	r3, .L67	@ D.5933,
 727 003e 5A6A     		ldr	r2, [r3, #36]	@ D.5934, _11->IO2IntStatR
 728 0040 3B68     		ldr	r3, [r7]	@ tmp138, pinNum
 729 0042 22FA03F3 		lsr	r3, r2, r3	@ D.5934, D.5934, tmp138
 730 0046 DBB2     		uxtb	r3, r3	@ D.5935, D.5934
ARM GAS  C:\Users\STUDENT\AppData\Local\Temp\cc6DO5vW.s 			page 19


 731 0048 03F00103 		and	r3, r3, #1	@ tmp139, D.5935,
 732 004c DBB2     		uxtb	r3, r3	@ D.5932, tmp139
 733 004e 20E0     		b	.L63	@
 734              	.L64:
 296:core/lpc17xx_gpio.c **** 	else if ((portNum == 0) && (edgeState == 1))//Falling Edge
 735              		.loc 1 296 0
 736 0050 FB79     		ldrb	r3, [r7, #7]	@ zero_extendqisi2	@ tmp140, portNum
 737 0052 002B     		cmp	r3, #0	@ tmp140,
 738 0054 0CD1     		bne	.L65	@,
 739              		.loc 1 296 0 is_stmt 0 discriminator 1
 740 0056 BB79     		ldrb	r3, [r7, #6]	@ zero_extendqisi2	@ tmp141, edgeState
 741 0058 012B     		cmp	r3, #1	@ tmp141,
 742 005a 09D1     		bne	.L65	@,
 297:core/lpc17xx_gpio.c **** 		return (((LPC_GPIOINT->IO0IntStatF)>>pinNum)& 0x1);
 743              		.loc 1 297 0 is_stmt 1
 744 005c 0F4B     		ldr	r3, .L67	@ D.5933,
 745 005e 9A68     		ldr	r2, [r3, #8]	@ D.5934, _16->IO0IntStatF
 746 0060 3B68     		ldr	r3, [r7]	@ tmp142, pinNum
 747 0062 22FA03F3 		lsr	r3, r2, r3	@ D.5934, D.5934, tmp142
 748 0066 DBB2     		uxtb	r3, r3	@ D.5935, D.5934
 749 0068 03F00103 		and	r3, r3, #1	@ tmp143, D.5935,
 750 006c DBB2     		uxtb	r3, r3	@ D.5932, tmp143
 751 006e 10E0     		b	.L63	@
 752              	.L65:
 298:core/lpc17xx_gpio.c **** 	else if ((portNum == 2) && (edgeState == 1))
 753              		.loc 1 298 0
 754 0070 FB79     		ldrb	r3, [r7, #7]	@ zero_extendqisi2	@ tmp144, portNum
 755 0072 022B     		cmp	r3, #2	@ tmp144,
 756 0074 0CD1     		bne	.L66	@,
 757              		.loc 1 298 0 is_stmt 0 discriminator 1
 758 0076 BB79     		ldrb	r3, [r7, #6]	@ zero_extendqisi2	@ tmp145, edgeState
 759 0078 012B     		cmp	r3, #1	@ tmp145,
 760 007a 09D1     		bne	.L66	@,
 299:core/lpc17xx_gpio.c **** 		return (((LPC_GPIOINT->IO2IntStatF)>>pinNum)& 0x1);
 761              		.loc 1 299 0 is_stmt 1
 762 007c 074B     		ldr	r3, .L67	@ D.5933,
 763 007e 9A6A     		ldr	r2, [r3, #40]	@ D.5934, _21->IO2IntStatF
 764 0080 3B68     		ldr	r3, [r7]	@ tmp146, pinNum
 765 0082 22FA03F3 		lsr	r3, r2, r3	@ D.5934, D.5934, tmp146
 766 0086 DBB2     		uxtb	r3, r3	@ D.5935, D.5934
 767 0088 03F00103 		and	r3, r3, #1	@ tmp147, D.5935,
 768 008c DBB2     		uxtb	r3, r3	@ D.5932, tmp147
 769 008e 00E0     		b	.L63	@
 770              	.L66:
 300:core/lpc17xx_gpio.c **** 	else
 301:core/lpc17xx_gpio.c **** 		//Error
 302:core/lpc17xx_gpio.c **** 		while(1);
 771              		.loc 1 302 0 discriminator 1
 772 0090 FEE7     		b	.L66	@
 773              	.L63:
 303:core/lpc17xx_gpio.c **** }
 774              		.loc 1 303 0
 775 0092 1846     		mov	r0, r3	@, <retval>
 776 0094 0C37     		adds	r7, r7, #12	@,,
 777              		.cfi_def_cfa_offset 4
 778 0096 BD46     		mov	sp, r7	@,
 779              		.cfi_def_cfa_register 13
ARM GAS  C:\Users\STUDENT\AppData\Local\Temp\cc6DO5vW.s 			page 20


 780              		@ sp needed	@
 781 0098 80BC     		pop	{r7}	@
 782              		.cfi_restore 7
 783              		.cfi_def_cfa_offset 0
 784 009a 7047     		bx	lr	@
 785              	.L68:
 786              		.align	2
 787              	.L67:
 788 009c 80800240 		.word	1073905792
 789              		.cfi_endproc
 790              	.LFE63:
 791              		.size	GPIO_GetIntStatus, .-GPIO_GetIntStatus
 792              		.section	.text.GPIO_ClearInt,"ax",%progbits
 793              		.align	2
 794              		.global	GPIO_ClearInt
 795              		.thumb
 796              		.thumb_func
 797              		.type	GPIO_ClearInt, %function
 798              	GPIO_ClearInt:
 799              	.LFB64:
 304:core/lpc17xx_gpio.c **** /*********************************************************************//**
 305:core/lpc17xx_gpio.c ****  * @brief		Clear GPIO interrupt (just used for P0.0-P0.30, P2.0-P2.13)
 306:core/lpc17xx_gpio.c ****  * @param[in]	portNum		Port number to read value, should be: 0 or 2
 307:core/lpc17xx_gpio.c ****  * @param[in]	bitValue	Value that contains all bits on GPIO to enable,
 308:core/lpc17xx_gpio.c ****  * 							in range from 0 to 0xFFFFFFFF.
 309:core/lpc17xx_gpio.c ****  * @return		None
 310:core/lpc17xx_gpio.c ****  **********************************************************************/
 311:core/lpc17xx_gpio.c **** void GPIO_ClearInt(uint8_t portNum, uint32_t bitValue)
 312:core/lpc17xx_gpio.c **** {
 800              		.loc 1 312 0
 801              		.cfi_startproc
 802              		@ args = 0, pretend = 0, frame = 8
 803              		@ frame_needed = 1, uses_anonymous_args = 0
 804              		@ link register save eliminated.
 805 0000 80B4     		push	{r7}	@
 806              		.cfi_def_cfa_offset 4
 807              		.cfi_offset 7, -4
 808 0002 83B0     		sub	sp, sp, #12	@,,
 809              		.cfi_def_cfa_offset 16
 810 0004 00AF     		add	r7, sp, #0	@,,
 811              		.cfi_def_cfa_register 7
 812 0006 0346     		mov	r3, r0	@ tmp112, portNum
 813 0008 3960     		str	r1, [r7]	@ bitValue, bitValue
 814 000a FB71     		strb	r3, [r7, #7]	@ tmp113, portNum
 313:core/lpc17xx_gpio.c **** 	if(portNum == 0)
 815              		.loc 1 313 0
 816 000c FB79     		ldrb	r3, [r7, #7]	@ zero_extendqisi2	@ tmp114, portNum
 817 000e 002B     		cmp	r3, #0	@ tmp114,
 818 0010 03D1     		bne	.L70	@,
 314:core/lpc17xx_gpio.c **** 		LPC_GPIOINT->IO0IntClr = bitValue;
 819              		.loc 1 314 0
 820 0012 084A     		ldr	r2, .L73	@ D.5936,
 821 0014 3B68     		ldr	r3, [r7]	@ tmp115, bitValue
 822 0016 D360     		str	r3, [r2, #12]	@ tmp115, _3->IO0IntClr
 315:core/lpc17xx_gpio.c **** 	else if (portNum == 2)
 316:core/lpc17xx_gpio.c **** 		LPC_GPIOINT->IO2IntClr = bitValue;
 317:core/lpc17xx_gpio.c **** 	else
ARM GAS  C:\Users\STUDENT\AppData\Local\Temp\cc6DO5vW.s 			page 21


 318:core/lpc17xx_gpio.c **** 		//Invalid portNum
 319:core/lpc17xx_gpio.c **** 		while(1);
 320:core/lpc17xx_gpio.c **** }
 823              		.loc 1 320 0
 824 0018 07E0     		b	.L69	@
 825              	.L70:
 315:core/lpc17xx_gpio.c **** 	else if (portNum == 2)
 826              		.loc 1 315 0
 827 001a FB79     		ldrb	r3, [r7, #7]	@ zero_extendqisi2	@ tmp116, portNum
 828 001c 022B     		cmp	r3, #2	@ tmp116,
 829 001e 03D1     		bne	.L72	@,
 316:core/lpc17xx_gpio.c **** 	else
 830              		.loc 1 316 0
 831 0020 044A     		ldr	r2, .L73	@ D.5936,
 832 0022 3B68     		ldr	r3, [r7]	@ tmp117, bitValue
 833 0024 D362     		str	r3, [r2, #44]	@ tmp117, _7->IO2IntClr
 834              		.loc 1 320 0
 835 0026 00E0     		b	.L69	@
 836              	.L72:
 319:core/lpc17xx_gpio.c **** }
 837              		.loc 1 319 0 discriminator 1
 838 0028 FEE7     		b	.L72	@
 839              	.L69:
 840              		.loc 1 320 0
 841 002a 0C37     		adds	r7, r7, #12	@,,
 842              		.cfi_def_cfa_offset 4
 843 002c BD46     		mov	sp, r7	@,
 844              		.cfi_def_cfa_register 13
 845              		@ sp needed	@
 846 002e 80BC     		pop	{r7}	@
 847              		.cfi_restore 7
 848              		.cfi_def_cfa_offset 0
 849 0030 7047     		bx	lr	@
 850              	.L74:
 851 0032 00BF     		.align	2
 852              	.L73:
 853 0034 80800240 		.word	1073905792
 854              		.cfi_endproc
 855              	.LFE64:
 856              		.size	GPIO_ClearInt, .-GPIO_ClearInt
 857              		.section	.text.FIO_SetDir,"ax",%progbits
 858              		.align	2
 859              		.global	FIO_SetDir
 860              		.thumb
 861              		.thumb_func
 862              		.type	FIO_SetDir, %function
 863              	FIO_SetDir:
 864              	.LFB65:
 321:core/lpc17xx_gpio.c **** 
 322:core/lpc17xx_gpio.c **** /* FIO word accessible ----------------------------------------------------------------- */
 323:core/lpc17xx_gpio.c **** /* Stub function for FIO (word-accessible) style */
 324:core/lpc17xx_gpio.c **** 
 325:core/lpc17xx_gpio.c **** /**
 326:core/lpc17xx_gpio.c ****  * @brief The same with GPIO_SetDir()
 327:core/lpc17xx_gpio.c ****  */
 328:core/lpc17xx_gpio.c **** void FIO_SetDir(uint8_t portNum, uint32_t bitValue, uint8_t dir)
 329:core/lpc17xx_gpio.c **** {
ARM GAS  C:\Users\STUDENT\AppData\Local\Temp\cc6DO5vW.s 			page 22


 865              		.loc 1 329 0
 866              		.cfi_startproc
 867              		@ args = 0, pretend = 0, frame = 8
 868              		@ frame_needed = 1, uses_anonymous_args = 0
 869 0000 80B5     		push	{r7, lr}	@
 870              		.cfi_def_cfa_offset 8
 871              		.cfi_offset 7, -8
 872              		.cfi_offset 14, -4
 873 0002 82B0     		sub	sp, sp, #8	@,,
 874              		.cfi_def_cfa_offset 16
 875 0004 00AF     		add	r7, sp, #0	@,,
 876              		.cfi_def_cfa_register 7
 877 0006 0346     		mov	r3, r0	@ tmp110, portNum
 878 0008 3960     		str	r1, [r7]	@ bitValue, bitValue
 879 000a FB71     		strb	r3, [r7, #7]	@ tmp111, portNum
 880 000c 1346     		mov	r3, r2	@ tmp113, tmp112
 881 000e BB71     		strb	r3, [r7, #6]	@ tmp113, dir
 330:core/lpc17xx_gpio.c **** 	GPIO_SetDir(portNum, bitValue, dir);
 882              		.loc 1 330 0
 883 0010 BA79     		ldrb	r2, [r7, #6]	@ zero_extendqisi2	@ tmp114, dir
 884 0012 FB79     		ldrb	r3, [r7, #7]	@ zero_extendqisi2	@ tmp115, portNum
 885 0014 3968     		ldr	r1, [r7]	@, bitValue
 886 0016 1846     		mov	r0, r3	@, tmp115
 887 0018 FFF7FEFF 		bl	GPIO_SetDir	@
 331:core/lpc17xx_gpio.c **** }
 888              		.loc 1 331 0
 889 001c 00BF     		nop
 890 001e 0837     		adds	r7, r7, #8	@,,
 891              		.cfi_def_cfa_offset 8
 892 0020 BD46     		mov	sp, r7	@,
 893              		.cfi_def_cfa_register 13
 894              		@ sp needed	@
 895 0022 80BD     		pop	{r7, pc}	@
 896              		.cfi_endproc
 897              	.LFE65:
 898              		.size	FIO_SetDir, .-FIO_SetDir
 899              		.section	.text.FIO_SetValue,"ax",%progbits
 900              		.align	2
 901              		.global	FIO_SetValue
 902              		.thumb
 903              		.thumb_func
 904              		.type	FIO_SetValue, %function
 905              	FIO_SetValue:
 906              	.LFB66:
 332:core/lpc17xx_gpio.c **** 
 333:core/lpc17xx_gpio.c **** /**
 334:core/lpc17xx_gpio.c ****  * @brief The same with GPIO_SetValue()
 335:core/lpc17xx_gpio.c ****  */
 336:core/lpc17xx_gpio.c **** void FIO_SetValue(uint8_t portNum, uint32_t bitValue)
 337:core/lpc17xx_gpio.c **** {
 907              		.loc 1 337 0
 908              		.cfi_startproc
 909              		@ args = 0, pretend = 0, frame = 8
 910              		@ frame_needed = 1, uses_anonymous_args = 0
 911 0000 80B5     		push	{r7, lr}	@
 912              		.cfi_def_cfa_offset 8
 913              		.cfi_offset 7, -8
ARM GAS  C:\Users\STUDENT\AppData\Local\Temp\cc6DO5vW.s 			page 23


 914              		.cfi_offset 14, -4
 915 0002 82B0     		sub	sp, sp, #8	@,,
 916              		.cfi_def_cfa_offset 16
 917 0004 00AF     		add	r7, sp, #0	@,,
 918              		.cfi_def_cfa_register 7
 919 0006 0346     		mov	r3, r0	@ tmp110, portNum
 920 0008 3960     		str	r1, [r7]	@ bitValue, bitValue
 921 000a FB71     		strb	r3, [r7, #7]	@ tmp111, portNum
 338:core/lpc17xx_gpio.c **** 	GPIO_SetValue(portNum, bitValue);
 922              		.loc 1 338 0
 923 000c FB79     		ldrb	r3, [r7, #7]	@ zero_extendqisi2	@ tmp112, portNum
 924 000e 3968     		ldr	r1, [r7]	@, bitValue
 925 0010 1846     		mov	r0, r3	@, tmp112
 926 0012 FFF7FEFF 		bl	GPIO_SetValue	@
 339:core/lpc17xx_gpio.c **** }
 927              		.loc 1 339 0
 928 0016 00BF     		nop
 929 0018 0837     		adds	r7, r7, #8	@,,
 930              		.cfi_def_cfa_offset 8
 931 001a BD46     		mov	sp, r7	@,
 932              		.cfi_def_cfa_register 13
 933              		@ sp needed	@
 934 001c 80BD     		pop	{r7, pc}	@
 935              		.cfi_endproc
 936              	.LFE66:
 937              		.size	FIO_SetValue, .-FIO_SetValue
 938 001e 00BF     		.section	.text.FIO_ClearValue,"ax",%progbits
 939              		.align	2
 940              		.global	FIO_ClearValue
 941              		.thumb
 942              		.thumb_func
 943              		.type	FIO_ClearValue, %function
 944              	FIO_ClearValue:
 945              	.LFB67:
 340:core/lpc17xx_gpio.c **** 
 341:core/lpc17xx_gpio.c **** /**
 342:core/lpc17xx_gpio.c ****  * @brief The same with GPIO_ClearValue()
 343:core/lpc17xx_gpio.c ****  */
 344:core/lpc17xx_gpio.c **** void FIO_ClearValue(uint8_t portNum, uint32_t bitValue)
 345:core/lpc17xx_gpio.c **** {
 946              		.loc 1 345 0
 947              		.cfi_startproc
 948              		@ args = 0, pretend = 0, frame = 8
 949              		@ frame_needed = 1, uses_anonymous_args = 0
 950 0000 80B5     		push	{r7, lr}	@
 951              		.cfi_def_cfa_offset 8
 952              		.cfi_offset 7, -8
 953              		.cfi_offset 14, -4
 954 0002 82B0     		sub	sp, sp, #8	@,,
 955              		.cfi_def_cfa_offset 16
 956 0004 00AF     		add	r7, sp, #0	@,,
 957              		.cfi_def_cfa_register 7
 958 0006 0346     		mov	r3, r0	@ tmp110, portNum
 959 0008 3960     		str	r1, [r7]	@ bitValue, bitValue
 960 000a FB71     		strb	r3, [r7, #7]	@ tmp111, portNum
 346:core/lpc17xx_gpio.c **** 	GPIO_ClearValue(portNum, bitValue);
 961              		.loc 1 346 0
ARM GAS  C:\Users\STUDENT\AppData\Local\Temp\cc6DO5vW.s 			page 24


 962 000c FB79     		ldrb	r3, [r7, #7]	@ zero_extendqisi2	@ tmp112, portNum
 963 000e 3968     		ldr	r1, [r7]	@, bitValue
 964 0010 1846     		mov	r0, r3	@, tmp112
 965 0012 FFF7FEFF 		bl	GPIO_ClearValue	@
 347:core/lpc17xx_gpio.c **** }
 966              		.loc 1 347 0
 967 0016 00BF     		nop
 968 0018 0837     		adds	r7, r7, #8	@,,
 969              		.cfi_def_cfa_offset 8
 970 001a BD46     		mov	sp, r7	@,
 971              		.cfi_def_cfa_register 13
 972              		@ sp needed	@
 973 001c 80BD     		pop	{r7, pc}	@
 974              		.cfi_endproc
 975              	.LFE67:
 976              		.size	FIO_ClearValue, .-FIO_ClearValue
 977 001e 00BF     		.section	.text.FIO_ReadValue,"ax",%progbits
 978              		.align	2
 979              		.global	FIO_ReadValue
 980              		.thumb
 981              		.thumb_func
 982              		.type	FIO_ReadValue, %function
 983              	FIO_ReadValue:
 984              	.LFB68:
 348:core/lpc17xx_gpio.c **** 
 349:core/lpc17xx_gpio.c **** /**
 350:core/lpc17xx_gpio.c ****  * @brief The same with GPIO_ReadValue()
 351:core/lpc17xx_gpio.c ****  */
 352:core/lpc17xx_gpio.c **** uint32_t FIO_ReadValue(uint8_t portNum)
 353:core/lpc17xx_gpio.c **** {
 985              		.loc 1 353 0
 986              		.cfi_startproc
 987              		@ args = 0, pretend = 0, frame = 8
 988              		@ frame_needed = 1, uses_anonymous_args = 0
 989 0000 80B5     		push	{r7, lr}	@
 990              		.cfi_def_cfa_offset 8
 991              		.cfi_offset 7, -8
 992              		.cfi_offset 14, -4
 993 0002 82B0     		sub	sp, sp, #8	@,,
 994              		.cfi_def_cfa_offset 16
 995 0004 00AF     		add	r7, sp, #0	@,,
 996              		.cfi_def_cfa_register 7
 997 0006 0346     		mov	r3, r0	@ tmp112, portNum
 998 0008 FB71     		strb	r3, [r7, #7]	@ tmp113, portNum
 354:core/lpc17xx_gpio.c **** 	return (GPIO_ReadValue(portNum));
 999              		.loc 1 354 0
 1000 000a FB79     		ldrb	r3, [r7, #7]	@ zero_extendqisi2	@ tmp114, portNum
 1001 000c 1846     		mov	r0, r3	@, tmp114
 1002 000e FFF7FEFF 		bl	GPIO_ReadValue	@
 1003 0012 0346     		mov	r3, r0	@ D.5937,
 355:core/lpc17xx_gpio.c **** }
 1004              		.loc 1 355 0
 1005 0014 1846     		mov	r0, r3	@, <retval>
 1006 0016 0837     		adds	r7, r7, #8	@,,
 1007              		.cfi_def_cfa_offset 8
 1008 0018 BD46     		mov	sp, r7	@,
 1009              		.cfi_def_cfa_register 13
ARM GAS  C:\Users\STUDENT\AppData\Local\Temp\cc6DO5vW.s 			page 25


 1010              		@ sp needed	@
 1011 001a 80BD     		pop	{r7, pc}	@
 1012              		.cfi_endproc
 1013              	.LFE68:
 1014              		.size	FIO_ReadValue, .-FIO_ReadValue
 1015              		.section	.text.FIO_IntCmd,"ax",%progbits
 1016              		.align	2
 1017              		.global	FIO_IntCmd
 1018              		.thumb
 1019              		.thumb_func
 1020              		.type	FIO_IntCmd, %function
 1021              	FIO_IntCmd:
 1022              	.LFB69:
 356:core/lpc17xx_gpio.c **** 
 357:core/lpc17xx_gpio.c **** /**
 358:core/lpc17xx_gpio.c ****  * @brief The same with GPIO_IntCmd()
 359:core/lpc17xx_gpio.c ****  */
 360:core/lpc17xx_gpio.c **** void FIO_IntCmd(uint8_t portNum, uint32_t bitValue, uint8_t edgeState)
 361:core/lpc17xx_gpio.c **** {
 1023              		.loc 1 361 0
 1024              		.cfi_startproc
 1025              		@ args = 0, pretend = 0, frame = 8
 1026              		@ frame_needed = 1, uses_anonymous_args = 0
 1027 0000 80B5     		push	{r7, lr}	@
 1028              		.cfi_def_cfa_offset 8
 1029              		.cfi_offset 7, -8
 1030              		.cfi_offset 14, -4
 1031 0002 82B0     		sub	sp, sp, #8	@,,
 1032              		.cfi_def_cfa_offset 16
 1033 0004 00AF     		add	r7, sp, #0	@,,
 1034              		.cfi_def_cfa_register 7
 1035 0006 0346     		mov	r3, r0	@ tmp110, portNum
 1036 0008 3960     		str	r1, [r7]	@ bitValue, bitValue
 1037 000a FB71     		strb	r3, [r7, #7]	@ tmp111, portNum
 1038 000c 1346     		mov	r3, r2	@ tmp113, tmp112
 1039 000e BB71     		strb	r3, [r7, #6]	@ tmp113, edgeState
 362:core/lpc17xx_gpio.c **** 	GPIO_IntCmd(portNum, bitValue, edgeState);
 1040              		.loc 1 362 0
 1041 0010 BA79     		ldrb	r2, [r7, #6]	@ zero_extendqisi2	@ tmp114, edgeState
 1042 0012 FB79     		ldrb	r3, [r7, #7]	@ zero_extendqisi2	@ tmp115, portNum
 1043 0014 3968     		ldr	r1, [r7]	@, bitValue
 1044 0016 1846     		mov	r0, r3	@, tmp115
 1045 0018 FFF7FEFF 		bl	GPIO_IntCmd	@
 363:core/lpc17xx_gpio.c **** }
 1046              		.loc 1 363 0
 1047 001c 00BF     		nop
 1048 001e 0837     		adds	r7, r7, #8	@,,
 1049              		.cfi_def_cfa_offset 8
 1050 0020 BD46     		mov	sp, r7	@,
 1051              		.cfi_def_cfa_register 13
 1052              		@ sp needed	@
 1053 0022 80BD     		pop	{r7, pc}	@
 1054              		.cfi_endproc
 1055              	.LFE69:
 1056              		.size	FIO_IntCmd, .-FIO_IntCmd
 1057              		.section	.text.FIO_GetIntStatus,"ax",%progbits
 1058              		.align	2
ARM GAS  C:\Users\STUDENT\AppData\Local\Temp\cc6DO5vW.s 			page 26


 1059              		.global	FIO_GetIntStatus
 1060              		.thumb
 1061              		.thumb_func
 1062              		.type	FIO_GetIntStatus, %function
 1063              	FIO_GetIntStatus:
 1064              	.LFB70:
 364:core/lpc17xx_gpio.c **** 
 365:core/lpc17xx_gpio.c **** /**
 366:core/lpc17xx_gpio.c ****  * @brief The same with GPIO_GetIntStatus()
 367:core/lpc17xx_gpio.c ****  */
 368:core/lpc17xx_gpio.c **** FunctionalState FIO_GetIntStatus(uint8_t portNum, uint32_t pinNum, uint8_t edgeState)
 369:core/lpc17xx_gpio.c **** {
 1065              		.loc 1 369 0
 1066              		.cfi_startproc
 1067              		@ args = 0, pretend = 0, frame = 8
 1068              		@ frame_needed = 1, uses_anonymous_args = 0
 1069 0000 80B5     		push	{r7, lr}	@
 1070              		.cfi_def_cfa_offset 8
 1071              		.cfi_offset 7, -8
 1072              		.cfi_offset 14, -4
 1073 0002 82B0     		sub	sp, sp, #8	@,,
 1074              		.cfi_def_cfa_offset 16
 1075 0004 00AF     		add	r7, sp, #0	@,,
 1076              		.cfi_def_cfa_register 7
 1077 0006 0346     		mov	r3, r0	@ tmp112, portNum
 1078 0008 3960     		str	r1, [r7]	@ pinNum, pinNum
 1079 000a FB71     		strb	r3, [r7, #7]	@ tmp113, portNum
 1080 000c 1346     		mov	r3, r2	@ tmp115, tmp114
 1081 000e BB71     		strb	r3, [r7, #6]	@ tmp115, edgeState
 370:core/lpc17xx_gpio.c **** 	return (GPIO_GetIntStatus(portNum, pinNum, edgeState));
 1082              		.loc 1 370 0
 1083 0010 BA79     		ldrb	r2, [r7, #6]	@ zero_extendqisi2	@ tmp116, edgeState
 1084 0012 FB79     		ldrb	r3, [r7, #7]	@ zero_extendqisi2	@ tmp117, portNum
 1085 0014 3968     		ldr	r1, [r7]	@, pinNum
 1086 0016 1846     		mov	r0, r3	@, tmp117
 1087 0018 FFF7FEFF 		bl	GPIO_GetIntStatus	@
 1088 001c 0346     		mov	r3, r0	@ tmp118,
 371:core/lpc17xx_gpio.c **** }
 1089              		.loc 1 371 0
 1090 001e 1846     		mov	r0, r3	@, <retval>
 1091 0020 0837     		adds	r7, r7, #8	@,,
 1092              		.cfi_def_cfa_offset 8
 1093 0022 BD46     		mov	sp, r7	@,
 1094              		.cfi_def_cfa_register 13
 1095              		@ sp needed	@
 1096 0024 80BD     		pop	{r7, pc}	@
 1097              		.cfi_endproc
 1098              	.LFE70:
 1099              		.size	FIO_GetIntStatus, .-FIO_GetIntStatus
 1100 0026 00BF     		.section	.text.FIO_ClearInt,"ax",%progbits
 1101              		.align	2
 1102              		.global	FIO_ClearInt
 1103              		.thumb
 1104              		.thumb_func
 1105              		.type	FIO_ClearInt, %function
 1106              	FIO_ClearInt:
 1107              	.LFB71:
ARM GAS  C:\Users\STUDENT\AppData\Local\Temp\cc6DO5vW.s 			page 27


 372:core/lpc17xx_gpio.c **** 
 373:core/lpc17xx_gpio.c **** /**
 374:core/lpc17xx_gpio.c ****  * @brief The same with GPIO_ClearInt()
 375:core/lpc17xx_gpio.c ****  */
 376:core/lpc17xx_gpio.c **** void FIO_ClearInt(uint8_t portNum, uint32_t bitValue)
 377:core/lpc17xx_gpio.c **** {
 1108              		.loc 1 377 0
 1109              		.cfi_startproc
 1110              		@ args = 0, pretend = 0, frame = 8
 1111              		@ frame_needed = 1, uses_anonymous_args = 0
 1112 0000 80B5     		push	{r7, lr}	@
 1113              		.cfi_def_cfa_offset 8
 1114              		.cfi_offset 7, -8
 1115              		.cfi_offset 14, -4
 1116 0002 82B0     		sub	sp, sp, #8	@,,
 1117              		.cfi_def_cfa_offset 16
 1118 0004 00AF     		add	r7, sp, #0	@,,
 1119              		.cfi_def_cfa_register 7
 1120 0006 0346     		mov	r3, r0	@ tmp110, portNum
 1121 0008 3960     		str	r1, [r7]	@ bitValue, bitValue
 1122 000a FB71     		strb	r3, [r7, #7]	@ tmp111, portNum
 378:core/lpc17xx_gpio.c **** 	GPIO_ClearInt(portNum, bitValue);
 1123              		.loc 1 378 0
 1124 000c FB79     		ldrb	r3, [r7, #7]	@ zero_extendqisi2	@ tmp112, portNum
 1125 000e 3968     		ldr	r1, [r7]	@, bitValue
 1126 0010 1846     		mov	r0, r3	@, tmp112
 1127 0012 FFF7FEFF 		bl	GPIO_ClearInt	@
 379:core/lpc17xx_gpio.c **** }
 1128              		.loc 1 379 0
 1129 0016 00BF     		nop
 1130 0018 0837     		adds	r7, r7, #8	@,,
 1131              		.cfi_def_cfa_offset 8
 1132 001a BD46     		mov	sp, r7	@,
 1133              		.cfi_def_cfa_register 13
 1134              		@ sp needed	@
 1135 001c 80BD     		pop	{r7, pc}	@
 1136              		.cfi_endproc
 1137              	.LFE71:
 1138              		.size	FIO_ClearInt, .-FIO_ClearInt
 1139 001e 00BF     		.section	.text.FIO_SetMask,"ax",%progbits
 1140              		.align	2
 1141              		.global	FIO_SetMask
 1142              		.thumb
 1143              		.thumb_func
 1144              		.type	FIO_SetMask, %function
 1145              	FIO_SetMask:
 1146              	.LFB72:
 380:core/lpc17xx_gpio.c **** /*********************************************************************//**
 381:core/lpc17xx_gpio.c ****  * @brief		Set mask value for bits in FIO port
 382:core/lpc17xx_gpio.c ****  * @param[in]	portNum		Port number, in range from 0 to 4
 383:core/lpc17xx_gpio.c ****  * @param[in]	bitValue	Value that contains all bits in to set,
 384:core/lpc17xx_gpio.c ****  * 							in range from 0 to 0xFFFFFFFF.
 385:core/lpc17xx_gpio.c ****  * @param[in]	maskValue	Mask value contains state value for each bit:
 386:core/lpc17xx_gpio.c ****  * 							- 0: not mask.
 387:core/lpc17xx_gpio.c ****  * 							- 1: mask.
 388:core/lpc17xx_gpio.c ****  * @return		None
 389:core/lpc17xx_gpio.c ****  *
ARM GAS  C:\Users\STUDENT\AppData\Local\Temp\cc6DO5vW.s 			page 28


 390:core/lpc17xx_gpio.c ****  * Note:
 391:core/lpc17xx_gpio.c ****  * - All remaining bits that are not activated in bitValue (value '0')
 392:core/lpc17xx_gpio.c ****  * will not be effected by this function.
 393:core/lpc17xx_gpio.c ****  * - After executing this function, in mask register, value '0' on each bit
 394:core/lpc17xx_gpio.c ****  * enables an access to the corresponding physical pin via a read or write access,
 395:core/lpc17xx_gpio.c ****  * while value '1' on bit (masked) that corresponding pin will not be changed
 396:core/lpc17xx_gpio.c ****  * with write access and if read, will not be reflected in the updated pin.
 397:core/lpc17xx_gpio.c ****  **********************************************************************/
 398:core/lpc17xx_gpio.c **** void FIO_SetMask(uint8_t portNum, uint32_t bitValue, uint8_t maskValue)
 399:core/lpc17xx_gpio.c **** {
 1147              		.loc 1 399 0
 1148              		.cfi_startproc
 1149              		@ args = 0, pretend = 0, frame = 16
 1150              		@ frame_needed = 1, uses_anonymous_args = 0
 1151 0000 80B5     		push	{r7, lr}	@
 1152              		.cfi_def_cfa_offset 8
 1153              		.cfi_offset 7, -8
 1154              		.cfi_offset 14, -4
 1155 0002 84B0     		sub	sp, sp, #16	@,,
 1156              		.cfi_def_cfa_offset 24
 1157 0004 00AF     		add	r7, sp, #0	@,,
 1158              		.cfi_def_cfa_register 7
 1159 0006 0346     		mov	r3, r0	@ tmp115, portNum
 1160 0008 3960     		str	r1, [r7]	@ bitValue, bitValue
 1161 000a FB71     		strb	r3, [r7, #7]	@ tmp116, portNum
 1162 000c 1346     		mov	r3, r2	@ tmp118, tmp117
 1163 000e BB71     		strb	r3, [r7, #6]	@ tmp118, maskValue
 400:core/lpc17xx_gpio.c **** 	LPC_GPIO_TypeDef *pFIO = GPIO_GetPointer(portNum);
 1164              		.loc 1 400 0
 1165 0010 FB79     		ldrb	r3, [r7, #7]	@ zero_extendqisi2	@ tmp119, portNum
 1166 0012 1846     		mov	r0, r3	@, tmp119
 1167 0014 FFF7FEFF 		bl	GPIO_GetPointer	@
 1168 0018 F860     		str	r0, [r7, #12]	@, pFIO
 401:core/lpc17xx_gpio.c **** 	if(pFIO != NULL) {
 1169              		.loc 1 401 0
 1170 001a FB68     		ldr	r3, [r7, #12]	@ tmp120, pFIO
 1171 001c 002B     		cmp	r3, #0	@ tmp120,
 1172 001e 10D0     		beq	.L87	@,
 402:core/lpc17xx_gpio.c **** 		// Mask
 403:core/lpc17xx_gpio.c **** 		if (maskValue){
 1173              		.loc 1 403 0
 1174 0020 BB79     		ldrb	r3, [r7, #6]	@ zero_extendqisi2	@ tmp121, maskValue
 1175 0022 002B     		cmp	r3, #0	@ tmp121,
 1176 0024 06D0     		beq	.L86	@,
 404:core/lpc17xx_gpio.c **** 			pFIO->FIOMASK |= bitValue;
 1177              		.loc 1 404 0
 1178 0026 FB68     		ldr	r3, [r7, #12]	@ tmp122, pFIO
 1179 0028 1A69     		ldr	r2, [r3, #16]	@ D.5939, pFIO_5->D.4706.FIOMASK
 1180 002a 3B68     		ldr	r3, [r7]	@ tmp123, bitValue
 1181 002c 1A43     		orrs	r2, r2, r3	@, D.5939, D.5939, tmp123
 1182 002e FB68     		ldr	r3, [r7, #12]	@ tmp124, pFIO
 1183 0030 1A61     		str	r2, [r3, #16]	@ D.5939, pFIO_5->D.4706.FIOMASK
 405:core/lpc17xx_gpio.c **** 		}
 406:core/lpc17xx_gpio.c **** 		// Un-mask
 407:core/lpc17xx_gpio.c **** 		else {
 408:core/lpc17xx_gpio.c **** 			pFIO->FIOMASK &= ~bitValue;
 409:core/lpc17xx_gpio.c **** 		}
ARM GAS  C:\Users\STUDENT\AppData\Local\Temp\cc6DO5vW.s 			page 29


 410:core/lpc17xx_gpio.c **** 	}
 411:core/lpc17xx_gpio.c **** }
 1184              		.loc 1 411 0
 1185 0032 06E0     		b	.L87	@
 1186              	.L86:
 408:core/lpc17xx_gpio.c **** 		}
 1187              		.loc 1 408 0
 1188 0034 FB68     		ldr	r3, [r7, #12]	@ tmp125, pFIO
 1189 0036 1A69     		ldr	r2, [r3, #16]	@ D.5939, pFIO_5->D.4706.FIOMASK
 1190 0038 3B68     		ldr	r3, [r7]	@ tmp126, bitValue
 1191 003a DB43     		mvns	r3, r3	@ D.5939, tmp126
 1192 003c 1A40     		ands	r2, r2, r3	@, D.5939, D.5939, D.5939
 1193 003e FB68     		ldr	r3, [r7, #12]	@ tmp127, pFIO
 1194 0040 1A61     		str	r2, [r3, #16]	@ D.5939, pFIO_5->D.4706.FIOMASK
 1195              	.L87:
 1196              		.loc 1 411 0
 1197 0042 00BF     		nop
 1198 0044 1037     		adds	r7, r7, #16	@,,
 1199              		.cfi_def_cfa_offset 8
 1200 0046 BD46     		mov	sp, r7	@,
 1201              		.cfi_def_cfa_register 13
 1202              		@ sp needed	@
 1203 0048 80BD     		pop	{r7, pc}	@
 1204              		.cfi_endproc
 1205              	.LFE72:
 1206              		.size	FIO_SetMask, .-FIO_SetMask
 1207 004a 00BF     		.section	.text.FIO_HalfWordSetDir,"ax",%progbits
 1208              		.align	2
 1209              		.global	FIO_HalfWordSetDir
 1210              		.thumb
 1211              		.thumb_func
 1212              		.type	FIO_HalfWordSetDir, %function
 1213              	FIO_HalfWordSetDir:
 1214              	.LFB73:
 412:core/lpc17xx_gpio.c **** 
 413:core/lpc17xx_gpio.c **** 
 414:core/lpc17xx_gpio.c **** /* FIO halfword accessible ------------------------------------------------------------- */
 415:core/lpc17xx_gpio.c **** 
 416:core/lpc17xx_gpio.c **** /*********************************************************************//**
 417:core/lpc17xx_gpio.c ****  * @brief		Set direction for FIO port in halfword accessible style
 418:core/lpc17xx_gpio.c ****  * @param[in]	portNum		Port number, in range from 0 to 4
 419:core/lpc17xx_gpio.c ****  * @param[in]	halfwordNum	HalfWord part number, should be 0 (lower) or 1(upper)
 420:core/lpc17xx_gpio.c ****  * @param[in]	bitValue	Value that contains all bits in to set direction,
 421:core/lpc17xx_gpio.c ****  * 							in range from 0 to 0xFFFF.
 422:core/lpc17xx_gpio.c ****  * @param[in]	dir			Direction value, should be:
 423:core/lpc17xx_gpio.c ****  * 							- 0: Input.
 424:core/lpc17xx_gpio.c ****  * 							- 1: Output.
 425:core/lpc17xx_gpio.c ****  * @return		None
 426:core/lpc17xx_gpio.c ****  *
 427:core/lpc17xx_gpio.c ****  * Note: All remaining bits that are not activated in bitValue (value '0')
 428:core/lpc17xx_gpio.c ****  * will not be effected by this function.
 429:core/lpc17xx_gpio.c ****  **********************************************************************/
 430:core/lpc17xx_gpio.c **** void FIO_HalfWordSetDir(uint8_t portNum, uint8_t halfwordNum, uint16_t bitValue, uint8_t dir)
 431:core/lpc17xx_gpio.c **** {
 1215              		.loc 1 431 0
 1216              		.cfi_startproc
 1217              		@ args = 0, pretend = 0, frame = 16
ARM GAS  C:\Users\STUDENT\AppData\Local\Temp\cc6DO5vW.s 			page 30


 1218              		@ frame_needed = 1, uses_anonymous_args = 0
 1219 0000 90B5     		push	{r4, r7, lr}	@
 1220              		.cfi_def_cfa_offset 12
 1221              		.cfi_offset 4, -12
 1222              		.cfi_offset 7, -8
 1223              		.cfi_offset 14, -4
 1224 0002 85B0     		sub	sp, sp, #20	@,,
 1225              		.cfi_def_cfa_offset 32
 1226 0004 00AF     		add	r7, sp, #0	@,,
 1227              		.cfi_def_cfa_register 7
 1228 0006 0446     		mov	r4, r0	@ tmp126, portNum
 1229 0008 0846     		mov	r0, r1	@ tmp128, halfwordNum
 1230 000a 1146     		mov	r1, r2	@ tmp130, bitValue
 1231 000c 1A46     		mov	r2, r3	@ tmp132, dir
 1232 000e 2346     		mov	r3, r4	@ tmp127, tmp126
 1233 0010 FB71     		strb	r3, [r7, #7]	@ tmp127, portNum
 1234 0012 0346     		mov	r3, r0	@ tmp129, tmp128
 1235 0014 BB71     		strb	r3, [r7, #6]	@ tmp129, halfwordNum
 1236 0016 0B46     		mov	r3, r1	@ movhi	@ tmp131, tmp130
 1237 0018 BB80     		strh	r3, [r7, #4]	@ movhi	@ tmp131, bitValue
 1238 001a 1346     		mov	r3, r2	@ tmp133, tmp132
 1239 001c FB70     		strb	r3, [r7, #3]	@ tmp133, dir
 432:core/lpc17xx_gpio.c **** 	GPIO_HalfWord_TypeDef *pFIO = FIO_HalfWordGetPointer(portNum);
 1240              		.loc 1 432 0
 1241 001e FB79     		ldrb	r3, [r7, #7]	@ zero_extendqisi2	@ tmp134, portNum
 1242 0020 1846     		mov	r0, r3	@, tmp134
 1243 0022 FFF7FEFF 		bl	FIO_HalfWordGetPointer	@
 1244 0026 F860     		str	r0, [r7, #12]	@, pFIO
 433:core/lpc17xx_gpio.c **** 	if(pFIO != NULL) {
 1245              		.loc 1 433 0
 1246 0028 FB68     		ldr	r3, [r7, #12]	@ tmp135, pFIO
 1247 002a 002B     		cmp	r3, #0	@ tmp135,
 1248 002c 35D0     		beq	.L94	@,
 434:core/lpc17xx_gpio.c **** 		// Output direction
 435:core/lpc17xx_gpio.c **** 		if (dir) {
 1249              		.loc 1 435 0
 1250 002e FB78     		ldrb	r3, [r7, #3]	@ zero_extendqisi2	@ tmp136, dir
 1251 0030 002B     		cmp	r3, #0	@ tmp136,
 1252 0032 14D0     		beq	.L90	@,
 436:core/lpc17xx_gpio.c **** 			// Upper
 437:core/lpc17xx_gpio.c **** 			if(halfwordNum) {
 1253              		.loc 1 437 0
 1254 0034 BB79     		ldrb	r3, [r7, #6]	@ zero_extendqisi2	@ tmp137, halfwordNum
 1255 0036 002B     		cmp	r3, #0	@ tmp137,
 1256 0038 08D0     		beq	.L91	@,
 438:core/lpc17xx_gpio.c **** 				pFIO->FIODIRU |= bitValue;
 1257              		.loc 1 438 0
 1258 003a FB68     		ldr	r3, [r7, #12]	@ tmp138, pFIO
 1259 003c 5B88     		ldrh	r3, [r3, #2]	@ movhi	@ tmp140, pFIO_6->FIODIRU
 1260 003e 9AB2     		uxth	r2, r3	@ D.5940, tmp140
 1261 0040 BB88     		ldrh	r3, [r7, #4]	@ movhi	@ tmp141, bitValue
 1262 0042 1343     		orrs	r3, r3, r2	@, tmp142, tmp141, D.5940
 1263 0044 9AB2     		uxth	r2, r3	@ D.5940, tmp142
 1264 0046 FB68     		ldr	r3, [r7, #12]	@ tmp143, pFIO
 1265 0048 5A80     		strh	r2, [r3, #2]	@ movhi	@ tmp144, pFIO_6->FIODIRU
 439:core/lpc17xx_gpio.c **** 			}
 440:core/lpc17xx_gpio.c **** 			// lower
ARM GAS  C:\Users\STUDENT\AppData\Local\Temp\cc6DO5vW.s 			page 31


 441:core/lpc17xx_gpio.c **** 			else {
 442:core/lpc17xx_gpio.c **** 				pFIO->FIODIRL |= bitValue;
 443:core/lpc17xx_gpio.c **** 			}
 444:core/lpc17xx_gpio.c **** 		}
 445:core/lpc17xx_gpio.c **** 		// Input direction
 446:core/lpc17xx_gpio.c **** 		else {
 447:core/lpc17xx_gpio.c **** 			// Upper
 448:core/lpc17xx_gpio.c **** 			if(halfwordNum) {
 449:core/lpc17xx_gpio.c **** 				pFIO->FIODIRU &= ~bitValue;
 450:core/lpc17xx_gpio.c **** 			}
 451:core/lpc17xx_gpio.c **** 			// lower
 452:core/lpc17xx_gpio.c **** 			else {
 453:core/lpc17xx_gpio.c **** 				pFIO->FIODIRL &= ~bitValue;
 454:core/lpc17xx_gpio.c **** 			}
 455:core/lpc17xx_gpio.c **** 		}
 456:core/lpc17xx_gpio.c **** 	}
 457:core/lpc17xx_gpio.c **** }
 1266              		.loc 1 457 0
 1267 004a 26E0     		b	.L94	@
 1268              	.L91:
 442:core/lpc17xx_gpio.c **** 			}
 1269              		.loc 1 442 0
 1270 004c FB68     		ldr	r3, [r7, #12]	@ tmp145, pFIO
 1271 004e 1B88     		ldrh	r3, [r3]	@ movhi	@ tmp146, pFIO_6->FIODIRL
 1272 0050 9AB2     		uxth	r2, r3	@ D.5940, tmp146
 1273 0052 BB88     		ldrh	r3, [r7, #4]	@ movhi	@ tmp147, bitValue
 1274 0054 1343     		orrs	r3, r3, r2	@, tmp148, tmp147, D.5940
 1275 0056 9AB2     		uxth	r2, r3	@ D.5940, tmp148
 1276 0058 FB68     		ldr	r3, [r7, #12]	@ tmp149, pFIO
 1277 005a 1A80     		strh	r2, [r3]	@ movhi	@ tmp150, pFIO_6->FIODIRL
 1278              		.loc 1 457 0
 1279 005c 1DE0     		b	.L94	@
 1280              	.L90:
 448:core/lpc17xx_gpio.c **** 				pFIO->FIODIRU &= ~bitValue;
 1281              		.loc 1 448 0
 1282 005e BB79     		ldrb	r3, [r7, #6]	@ zero_extendqisi2	@ tmp151, halfwordNum
 1283 0060 002B     		cmp	r3, #0	@ tmp151,
 1284 0062 0DD0     		beq	.L93	@,
 449:core/lpc17xx_gpio.c **** 			}
 1285              		.loc 1 449 0
 1286 0064 FB68     		ldr	r3, [r7, #12]	@ tmp152, pFIO
 1287 0066 5B88     		ldrh	r3, [r3, #2]	@ movhi	@ tmp154, pFIO_6->FIODIRU
 1288 0068 9BB2     		uxth	r3, r3	@ D.5940, tmp154
 1289 006a 1AB2     		sxth	r2, r3	@ D.5941, D.5940
 1290 006c B7F90430 		ldrsh	r3, [r7, #4]	@ D.5941, bitValue
 1291 0070 DB43     		mvns	r3, r3	@ tmp156, tmp155
 1292 0072 1BB2     		sxth	r3, r3	@ D.5941, tmp156
 1293 0074 1340     		ands	r3, r3, r2	@, tmp157, D.5941, D.5941
 1294 0076 1BB2     		sxth	r3, r3	@ D.5941, tmp157
 1295 0078 9AB2     		uxth	r2, r3	@ D.5940, D.5941
 1296 007a FB68     		ldr	r3, [r7, #12]	@ tmp158, pFIO
 1297 007c 5A80     		strh	r2, [r3, #2]	@ movhi	@ tmp159, pFIO_6->FIODIRU
 1298              		.loc 1 457 0
 1299 007e 0CE0     		b	.L94	@
 1300              	.L93:
 453:core/lpc17xx_gpio.c **** 			}
 1301              		.loc 1 453 0
ARM GAS  C:\Users\STUDENT\AppData\Local\Temp\cc6DO5vW.s 			page 32


 1302 0080 FB68     		ldr	r3, [r7, #12]	@ tmp160, pFIO
 1303 0082 1B88     		ldrh	r3, [r3]	@ movhi	@ tmp161, pFIO_6->FIODIRL
 1304 0084 9BB2     		uxth	r3, r3	@ D.5940, tmp161
 1305 0086 1AB2     		sxth	r2, r3	@ D.5941, D.5940
 1306 0088 B7F90430 		ldrsh	r3, [r7, #4]	@ D.5941, bitValue
 1307 008c DB43     		mvns	r3, r3	@ tmp163, tmp162
 1308 008e 1BB2     		sxth	r3, r3	@ D.5941, tmp163
 1309 0090 1340     		ands	r3, r3, r2	@, tmp164, D.5941, D.5941
 1310 0092 1BB2     		sxth	r3, r3	@ D.5941, tmp164
 1311 0094 9AB2     		uxth	r2, r3	@ D.5940, D.5941
 1312 0096 FB68     		ldr	r3, [r7, #12]	@ tmp165, pFIO
 1313 0098 1A80     		strh	r2, [r3]	@ movhi	@ tmp166, pFIO_6->FIODIRL
 1314              	.L94:
 1315              		.loc 1 457 0
 1316 009a 00BF     		nop
 1317 009c 1437     		adds	r7, r7, #20	@,,
 1318              		.cfi_def_cfa_offset 12
 1319 009e BD46     		mov	sp, r7	@,
 1320              		.cfi_def_cfa_register 13
 1321              		@ sp needed	@
 1322 00a0 90BD     		pop	{r4, r7, pc}	@
 1323              		.cfi_endproc
 1324              	.LFE73:
 1325              		.size	FIO_HalfWordSetDir, .-FIO_HalfWordSetDir
 1326 00a2 00BF     		.section	.text.FIO_HalfWordSetMask,"ax",%progbits
 1327              		.align	2
 1328              		.global	FIO_HalfWordSetMask
 1329              		.thumb
 1330              		.thumb_func
 1331              		.type	FIO_HalfWordSetMask, %function
 1332              	FIO_HalfWordSetMask:
 1333              	.LFB74:
 458:core/lpc17xx_gpio.c **** 
 459:core/lpc17xx_gpio.c **** 
 460:core/lpc17xx_gpio.c **** /*********************************************************************//**
 461:core/lpc17xx_gpio.c ****  * @brief		Set mask value for bits in FIO port in halfword accessible style
 462:core/lpc17xx_gpio.c ****  * @param[in]	portNum		Port number, in range from 0 to 4
 463:core/lpc17xx_gpio.c ****  * @param[in]	halfwordNum	HalfWord part number, should be 0 (lower) or 1(upper)
 464:core/lpc17xx_gpio.c ****  * @param[in]	bitValue	Value that contains all bits in to set,
 465:core/lpc17xx_gpio.c ****  * 							in range from 0 to 0xFFFF.
 466:core/lpc17xx_gpio.c ****  * @param[in]	maskValue	Mask value contains state value for each bit:
 467:core/lpc17xx_gpio.c ****  * 					- 0: not mask.
 468:core/lpc17xx_gpio.c ****  * 					- 1: mask.
 469:core/lpc17xx_gpio.c ****  * @return		None
 470:core/lpc17xx_gpio.c ****  *
 471:core/lpc17xx_gpio.c ****  * Note:
 472:core/lpc17xx_gpio.c ****  * - All remaining bits that are not activated in bitValue (value '0')
 473:core/lpc17xx_gpio.c ****  * will not be effected by this function.
 474:core/lpc17xx_gpio.c ****  * - After executing this function, in mask register, value '0' on each bit
 475:core/lpc17xx_gpio.c ****  * enables an access to the corresponding physical pin via a read or write access,
 476:core/lpc17xx_gpio.c ****  * while value '1' on bit (masked) that corresponding pin will not be changed
 477:core/lpc17xx_gpio.c ****  * with write access and if read, will not be reflected in the updated pin.
 478:core/lpc17xx_gpio.c ****  **********************************************************************/
 479:core/lpc17xx_gpio.c **** void FIO_HalfWordSetMask(uint8_t portNum, uint8_t halfwordNum, uint16_t bitValue, uint8_t maskValue
 480:core/lpc17xx_gpio.c **** {
 1334              		.loc 1 480 0
 1335              		.cfi_startproc
ARM GAS  C:\Users\STUDENT\AppData\Local\Temp\cc6DO5vW.s 			page 33


 1336              		@ args = 0, pretend = 0, frame = 16
 1337              		@ frame_needed = 1, uses_anonymous_args = 0
 1338 0000 90B5     		push	{r4, r7, lr}	@
 1339              		.cfi_def_cfa_offset 12
 1340              		.cfi_offset 4, -12
 1341              		.cfi_offset 7, -8
 1342              		.cfi_offset 14, -4
 1343 0002 85B0     		sub	sp, sp, #20	@,,
 1344              		.cfi_def_cfa_offset 32
 1345 0004 00AF     		add	r7, sp, #0	@,,
 1346              		.cfi_def_cfa_register 7
 1347 0006 0446     		mov	r4, r0	@ tmp126, portNum
 1348 0008 0846     		mov	r0, r1	@ tmp128, halfwordNum
 1349 000a 1146     		mov	r1, r2	@ tmp130, bitValue
 1350 000c 1A46     		mov	r2, r3	@ tmp132, maskValue
 1351 000e 2346     		mov	r3, r4	@ tmp127, tmp126
 1352 0010 FB71     		strb	r3, [r7, #7]	@ tmp127, portNum
 1353 0012 0346     		mov	r3, r0	@ tmp129, tmp128
 1354 0014 BB71     		strb	r3, [r7, #6]	@ tmp129, halfwordNum
 1355 0016 0B46     		mov	r3, r1	@ movhi	@ tmp131, tmp130
 1356 0018 BB80     		strh	r3, [r7, #4]	@ movhi	@ tmp131, bitValue
 1357 001a 1346     		mov	r3, r2	@ tmp133, tmp132
 1358 001c FB70     		strb	r3, [r7, #3]	@ tmp133, maskValue
 481:core/lpc17xx_gpio.c **** 	GPIO_HalfWord_TypeDef *pFIO = FIO_HalfWordGetPointer(portNum);
 1359              		.loc 1 481 0
 1360 001e FB79     		ldrb	r3, [r7, #7]	@ zero_extendqisi2	@ tmp134, portNum
 1361 0020 1846     		mov	r0, r3	@, tmp134
 1362 0022 FFF7FEFF 		bl	FIO_HalfWordGetPointer	@
 1363 0026 F860     		str	r0, [r7, #12]	@, pFIO
 482:core/lpc17xx_gpio.c **** 	if(pFIO != NULL) {
 1364              		.loc 1 482 0
 1365 0028 FB68     		ldr	r3, [r7, #12]	@ tmp135, pFIO
 1366 002a 002B     		cmp	r3, #0	@ tmp135,
 1367 002c 35D0     		beq	.L101	@,
 483:core/lpc17xx_gpio.c **** 		// Mask
 484:core/lpc17xx_gpio.c **** 		if (maskValue){
 1368              		.loc 1 484 0
 1369 002e FB78     		ldrb	r3, [r7, #3]	@ zero_extendqisi2	@ tmp136, maskValue
 1370 0030 002B     		cmp	r3, #0	@ tmp136,
 1371 0032 14D0     		beq	.L97	@,
 485:core/lpc17xx_gpio.c **** 			// Upper
 486:core/lpc17xx_gpio.c **** 			if(halfwordNum) {
 1372              		.loc 1 486 0
 1373 0034 BB79     		ldrb	r3, [r7, #6]	@ zero_extendqisi2	@ tmp137, halfwordNum
 1374 0036 002B     		cmp	r3, #0	@ tmp137,
 1375 0038 08D0     		beq	.L98	@,
 487:core/lpc17xx_gpio.c **** 				pFIO->FIOMASKU |= bitValue;
 1376              		.loc 1 487 0
 1377 003a FB68     		ldr	r3, [r7, #12]	@ tmp138, pFIO
 1378 003c 5B8A     		ldrh	r3, [r3, #18]	@ movhi	@ tmp140, pFIO_6->FIOMASKU
 1379 003e 9AB2     		uxth	r2, r3	@ D.5942, tmp140
 1380 0040 BB88     		ldrh	r3, [r7, #4]	@ movhi	@ tmp141, bitValue
 1381 0042 1343     		orrs	r3, r3, r2	@, tmp142, tmp141, D.5942
 1382 0044 9AB2     		uxth	r2, r3	@ D.5942, tmp142
 1383 0046 FB68     		ldr	r3, [r7, #12]	@ tmp143, pFIO
 1384 0048 5A82     		strh	r2, [r3, #18]	@ movhi	@ tmp144, pFIO_6->FIOMASKU
 488:core/lpc17xx_gpio.c **** 			}
ARM GAS  C:\Users\STUDENT\AppData\Local\Temp\cc6DO5vW.s 			page 34


 489:core/lpc17xx_gpio.c **** 			// lower
 490:core/lpc17xx_gpio.c **** 			else {
 491:core/lpc17xx_gpio.c **** 				pFIO->FIOMASKL |= bitValue;
 492:core/lpc17xx_gpio.c **** 			}
 493:core/lpc17xx_gpio.c **** 		}
 494:core/lpc17xx_gpio.c **** 		// Un-mask
 495:core/lpc17xx_gpio.c **** 		else {
 496:core/lpc17xx_gpio.c **** 			// Upper
 497:core/lpc17xx_gpio.c **** 			if(halfwordNum) {
 498:core/lpc17xx_gpio.c **** 				pFIO->FIOMASKU &= ~bitValue;
 499:core/lpc17xx_gpio.c **** 			}
 500:core/lpc17xx_gpio.c **** 			// lower
 501:core/lpc17xx_gpio.c **** 			else {
 502:core/lpc17xx_gpio.c **** 				pFIO->FIOMASKL &= ~bitValue;
 503:core/lpc17xx_gpio.c **** 			}
 504:core/lpc17xx_gpio.c **** 		}
 505:core/lpc17xx_gpio.c **** 	}
 506:core/lpc17xx_gpio.c **** }
 1385              		.loc 1 506 0
 1386 004a 26E0     		b	.L101	@
 1387              	.L98:
 491:core/lpc17xx_gpio.c **** 			}
 1388              		.loc 1 491 0
 1389 004c FB68     		ldr	r3, [r7, #12]	@ tmp145, pFIO
 1390 004e 1B8A     		ldrh	r3, [r3, #16]	@ movhi	@ tmp147, pFIO_6->FIOMASKL
 1391 0050 9AB2     		uxth	r2, r3	@ D.5942, tmp147
 1392 0052 BB88     		ldrh	r3, [r7, #4]	@ movhi	@ tmp148, bitValue
 1393 0054 1343     		orrs	r3, r3, r2	@, tmp149, tmp148, D.5942
 1394 0056 9AB2     		uxth	r2, r3	@ D.5942, tmp149
 1395 0058 FB68     		ldr	r3, [r7, #12]	@ tmp150, pFIO
 1396 005a 1A82     		strh	r2, [r3, #16]	@ movhi	@ tmp151, pFIO_6->FIOMASKL
 1397              		.loc 1 506 0
 1398 005c 1DE0     		b	.L101	@
 1399              	.L97:
 497:core/lpc17xx_gpio.c **** 				pFIO->FIOMASKU &= ~bitValue;
 1400              		.loc 1 497 0
 1401 005e BB79     		ldrb	r3, [r7, #6]	@ zero_extendqisi2	@ tmp152, halfwordNum
 1402 0060 002B     		cmp	r3, #0	@ tmp152,
 1403 0062 0DD0     		beq	.L100	@,
 498:core/lpc17xx_gpio.c **** 			}
 1404              		.loc 1 498 0
 1405 0064 FB68     		ldr	r3, [r7, #12]	@ tmp153, pFIO
 1406 0066 5B8A     		ldrh	r3, [r3, #18]	@ movhi	@ tmp155, pFIO_6->FIOMASKU
 1407 0068 9BB2     		uxth	r3, r3	@ D.5942, tmp155
 1408 006a 1AB2     		sxth	r2, r3	@ D.5943, D.5942
 1409 006c B7F90430 		ldrsh	r3, [r7, #4]	@ D.5943, bitValue
 1410 0070 DB43     		mvns	r3, r3	@ tmp157, tmp156
 1411 0072 1BB2     		sxth	r3, r3	@ D.5943, tmp157
 1412 0074 1340     		ands	r3, r3, r2	@, tmp158, D.5943, D.5943
 1413 0076 1BB2     		sxth	r3, r3	@ D.5943, tmp158
 1414 0078 9AB2     		uxth	r2, r3	@ D.5942, D.5943
 1415 007a FB68     		ldr	r3, [r7, #12]	@ tmp159, pFIO
 1416 007c 5A82     		strh	r2, [r3, #18]	@ movhi	@ tmp160, pFIO_6->FIOMASKU
 1417              		.loc 1 506 0
 1418 007e 0CE0     		b	.L101	@
 1419              	.L100:
 502:core/lpc17xx_gpio.c **** 			}
ARM GAS  C:\Users\STUDENT\AppData\Local\Temp\cc6DO5vW.s 			page 35


 1420              		.loc 1 502 0
 1421 0080 FB68     		ldr	r3, [r7, #12]	@ tmp161, pFIO
 1422 0082 1B8A     		ldrh	r3, [r3, #16]	@ movhi	@ tmp163, pFIO_6->FIOMASKL
 1423 0084 9BB2     		uxth	r3, r3	@ D.5942, tmp163
 1424 0086 1AB2     		sxth	r2, r3	@ D.5943, D.5942
 1425 0088 B7F90430 		ldrsh	r3, [r7, #4]	@ D.5943, bitValue
 1426 008c DB43     		mvns	r3, r3	@ tmp165, tmp164
 1427 008e 1BB2     		sxth	r3, r3	@ D.5943, tmp165
 1428 0090 1340     		ands	r3, r3, r2	@, tmp166, D.5943, D.5943
 1429 0092 1BB2     		sxth	r3, r3	@ D.5943, tmp166
 1430 0094 9AB2     		uxth	r2, r3	@ D.5942, D.5943
 1431 0096 FB68     		ldr	r3, [r7, #12]	@ tmp167, pFIO
 1432 0098 1A82     		strh	r2, [r3, #16]	@ movhi	@ tmp168, pFIO_6->FIOMASKL
 1433              	.L101:
 1434              		.loc 1 506 0
 1435 009a 00BF     		nop
 1436 009c 1437     		adds	r7, r7, #20	@,,
 1437              		.cfi_def_cfa_offset 12
 1438 009e BD46     		mov	sp, r7	@,
 1439              		.cfi_def_cfa_register 13
 1440              		@ sp needed	@
 1441 00a0 90BD     		pop	{r4, r7, pc}	@
 1442              		.cfi_endproc
 1443              	.LFE74:
 1444              		.size	FIO_HalfWordSetMask, .-FIO_HalfWordSetMask
 1445 00a2 00BF     		.section	.text.FIO_HalfWordSetValue,"ax",%progbits
 1446              		.align	2
 1447              		.global	FIO_HalfWordSetValue
 1448              		.thumb
 1449              		.thumb_func
 1450              		.type	FIO_HalfWordSetValue, %function
 1451              	FIO_HalfWordSetValue:
 1452              	.LFB75:
 507:core/lpc17xx_gpio.c **** 
 508:core/lpc17xx_gpio.c **** 
 509:core/lpc17xx_gpio.c **** /*********************************************************************//**
 510:core/lpc17xx_gpio.c ****  * @brief		Set bits for FIO port in halfword accessible style
 511:core/lpc17xx_gpio.c ****  * @param[in]	portNum		Port number, in range from 0 to 4
 512:core/lpc17xx_gpio.c ****  * @param[in]	halfwordNum	HalfWord part number, should be 0 (lower) or 1(upper)
 513:core/lpc17xx_gpio.c ****  * @param[in]	bitValue	Value that contains all bits in to set,
 514:core/lpc17xx_gpio.c ****  * 							in range from 0 to 0xFFFF.
 515:core/lpc17xx_gpio.c ****  * @return		None
 516:core/lpc17xx_gpio.c ****  *
 517:core/lpc17xx_gpio.c ****  * Note:
 518:core/lpc17xx_gpio.c ****  * - For all bits that has been set as input direction, this function will
 519:core/lpc17xx_gpio.c ****  * not effect.
 520:core/lpc17xx_gpio.c ****  * - For all remaining bits that are not activated in bitValue (value '0')
 521:core/lpc17xx_gpio.c ****  * will not be effected by this function.
 522:core/lpc17xx_gpio.c ****  **********************************************************************/
 523:core/lpc17xx_gpio.c **** void FIO_HalfWordSetValue(uint8_t portNum, uint8_t halfwordNum, uint16_t bitValue)
 524:core/lpc17xx_gpio.c **** {
 1453              		.loc 1 524 0
 1454              		.cfi_startproc
 1455              		@ args = 0, pretend = 0, frame = 16
 1456              		@ frame_needed = 1, uses_anonymous_args = 0
 1457 0000 80B5     		push	{r7, lr}	@
 1458              		.cfi_def_cfa_offset 8
ARM GAS  C:\Users\STUDENT\AppData\Local\Temp\cc6DO5vW.s 			page 36


 1459              		.cfi_offset 7, -8
 1460              		.cfi_offset 14, -4
 1461 0002 84B0     		sub	sp, sp, #16	@,,
 1462              		.cfi_def_cfa_offset 24
 1463 0004 00AF     		add	r7, sp, #0	@,,
 1464              		.cfi_def_cfa_register 7
 1465 0006 0346     		mov	r3, r0	@ tmp110, portNum
 1466 0008 FB71     		strb	r3, [r7, #7]	@ tmp111, portNum
 1467 000a 0B46     		mov	r3, r1	@ tmp113, tmp112
 1468 000c BB71     		strb	r3, [r7, #6]	@ tmp113, halfwordNum
 1469 000e 1346     		mov	r3, r2	@ movhi	@ tmp115, tmp114
 1470 0010 BB80     		strh	r3, [r7, #4]	@ movhi	@ tmp115, bitValue
 525:core/lpc17xx_gpio.c **** 	GPIO_HalfWord_TypeDef *pFIO = FIO_HalfWordGetPointer(portNum);
 1471              		.loc 1 525 0
 1472 0012 FB79     		ldrb	r3, [r7, #7]	@ zero_extendqisi2	@ tmp116, portNum
 1473 0014 1846     		mov	r0, r3	@, tmp116
 1474 0016 FFF7FEFF 		bl	FIO_HalfWordGetPointer	@
 1475 001a F860     		str	r0, [r7, #12]	@, pFIO
 526:core/lpc17xx_gpio.c **** 	if(pFIO != NULL) {
 1476              		.loc 1 526 0
 1477 001c FB68     		ldr	r3, [r7, #12]	@ tmp117, pFIO
 1478 001e 002B     		cmp	r3, #0	@ tmp117,
 1479 0020 09D0     		beq	.L105	@,
 527:core/lpc17xx_gpio.c **** 		// Upper
 528:core/lpc17xx_gpio.c **** 		if(halfwordNum) {
 1480              		.loc 1 528 0
 1481 0022 BB79     		ldrb	r3, [r7, #6]	@ zero_extendqisi2	@ tmp118, halfwordNum
 1482 0024 002B     		cmp	r3, #0	@ tmp118,
 1483 0026 03D0     		beq	.L104	@,
 529:core/lpc17xx_gpio.c **** 			pFIO->FIOSETU = bitValue;
 1484              		.loc 1 529 0
 1485 0028 FB68     		ldr	r3, [r7, #12]	@ tmp119, pFIO
 1486 002a BA88     		ldrh	r2, [r7, #4]	@ movhi	@ tmp120, bitValue
 1487 002c 5A83     		strh	r2, [r3, #26]	@ movhi	@ tmp120, pFIO_5->FIOSETU
 530:core/lpc17xx_gpio.c **** 		}
 531:core/lpc17xx_gpio.c **** 		// lower
 532:core/lpc17xx_gpio.c **** 		else {
 533:core/lpc17xx_gpio.c **** 			pFIO->FIOSETL = bitValue;
 534:core/lpc17xx_gpio.c **** 		}
 535:core/lpc17xx_gpio.c **** 	}
 536:core/lpc17xx_gpio.c **** }
 1488              		.loc 1 536 0
 1489 002e 02E0     		b	.L105	@
 1490              	.L104:
 533:core/lpc17xx_gpio.c **** 		}
 1491              		.loc 1 533 0
 1492 0030 FB68     		ldr	r3, [r7, #12]	@ tmp121, pFIO
 1493 0032 BA88     		ldrh	r2, [r7, #4]	@ movhi	@ tmp122, bitValue
 1494 0034 1A83     		strh	r2, [r3, #24]	@ movhi	@ tmp122, pFIO_5->FIOSETL
 1495              	.L105:
 1496              		.loc 1 536 0
 1497 0036 00BF     		nop
 1498 0038 1037     		adds	r7, r7, #16	@,,
 1499              		.cfi_def_cfa_offset 8
 1500 003a BD46     		mov	sp, r7	@,
 1501              		.cfi_def_cfa_register 13
 1502              		@ sp needed	@
ARM GAS  C:\Users\STUDENT\AppData\Local\Temp\cc6DO5vW.s 			page 37


 1503 003c 80BD     		pop	{r7, pc}	@
 1504              		.cfi_endproc
 1505              	.LFE75:
 1506              		.size	FIO_HalfWordSetValue, .-FIO_HalfWordSetValue
 1507 003e 00BF     		.section	.text.FIO_HalfWordClearValue,"ax",%progbits
 1508              		.align	2
 1509              		.global	FIO_HalfWordClearValue
 1510              		.thumb
 1511              		.thumb_func
 1512              		.type	FIO_HalfWordClearValue, %function
 1513              	FIO_HalfWordClearValue:
 1514              	.LFB76:
 537:core/lpc17xx_gpio.c **** 
 538:core/lpc17xx_gpio.c **** 
 539:core/lpc17xx_gpio.c **** /*********************************************************************//**
 540:core/lpc17xx_gpio.c ****  * @brief		Clear bits for FIO port in halfword accessible style
 541:core/lpc17xx_gpio.c ****  * @param[in]	portNum		Port number, in range from 0 to 4
 542:core/lpc17xx_gpio.c ****  * @param[in]	halfwordNum	HalfWord part number, should be 0 (lower) or 1(upper)
 543:core/lpc17xx_gpio.c ****  * @param[in]	bitValue	Value that contains all bits in to clear,
 544:core/lpc17xx_gpio.c ****  * 							in range from 0 to 0xFFFF.
 545:core/lpc17xx_gpio.c ****  * @return		None
 546:core/lpc17xx_gpio.c ****  *
 547:core/lpc17xx_gpio.c ****  * Note:
 548:core/lpc17xx_gpio.c ****  * - For all bits that has been set as input direction, this function will
 549:core/lpc17xx_gpio.c ****  * not effect.
 550:core/lpc17xx_gpio.c ****  * - For all remaining bits that are not activated in bitValue (value '0')
 551:core/lpc17xx_gpio.c ****  * will not be effected by this function.
 552:core/lpc17xx_gpio.c ****  **********************************************************************/
 553:core/lpc17xx_gpio.c **** void FIO_HalfWordClearValue(uint8_t portNum, uint8_t halfwordNum, uint16_t bitValue)
 554:core/lpc17xx_gpio.c **** {
 1515              		.loc 1 554 0
 1516              		.cfi_startproc
 1517              		@ args = 0, pretend = 0, frame = 16
 1518              		@ frame_needed = 1, uses_anonymous_args = 0
 1519 0000 80B5     		push	{r7, lr}	@
 1520              		.cfi_def_cfa_offset 8
 1521              		.cfi_offset 7, -8
 1522              		.cfi_offset 14, -4
 1523 0002 84B0     		sub	sp, sp, #16	@,,
 1524              		.cfi_def_cfa_offset 24
 1525 0004 00AF     		add	r7, sp, #0	@,,
 1526              		.cfi_def_cfa_register 7
 1527 0006 0346     		mov	r3, r0	@ tmp110, portNum
 1528 0008 FB71     		strb	r3, [r7, #7]	@ tmp111, portNum
 1529 000a 0B46     		mov	r3, r1	@ tmp113, tmp112
 1530 000c BB71     		strb	r3, [r7, #6]	@ tmp113, halfwordNum
 1531 000e 1346     		mov	r3, r2	@ movhi	@ tmp115, tmp114
 1532 0010 BB80     		strh	r3, [r7, #4]	@ movhi	@ tmp115, bitValue
 555:core/lpc17xx_gpio.c **** 	GPIO_HalfWord_TypeDef *pFIO = FIO_HalfWordGetPointer(portNum);
 1533              		.loc 1 555 0
 1534 0012 FB79     		ldrb	r3, [r7, #7]	@ zero_extendqisi2	@ tmp116, portNum
 1535 0014 1846     		mov	r0, r3	@, tmp116
 1536 0016 FFF7FEFF 		bl	FIO_HalfWordGetPointer	@
 1537 001a F860     		str	r0, [r7, #12]	@, pFIO
 556:core/lpc17xx_gpio.c **** 	if(pFIO != NULL) {
 1538              		.loc 1 556 0
 1539 001c FB68     		ldr	r3, [r7, #12]	@ tmp117, pFIO
ARM GAS  C:\Users\STUDENT\AppData\Local\Temp\cc6DO5vW.s 			page 38


 1540 001e 002B     		cmp	r3, #0	@ tmp117,
 1541 0020 09D0     		beq	.L109	@,
 557:core/lpc17xx_gpio.c **** 		// Upper
 558:core/lpc17xx_gpio.c **** 		if(halfwordNum) {
 1542              		.loc 1 558 0
 1543 0022 BB79     		ldrb	r3, [r7, #6]	@ zero_extendqisi2	@ tmp118, halfwordNum
 1544 0024 002B     		cmp	r3, #0	@ tmp118,
 1545 0026 03D0     		beq	.L108	@,
 559:core/lpc17xx_gpio.c **** 			pFIO->FIOCLRU = bitValue;
 1546              		.loc 1 559 0
 1547 0028 FB68     		ldr	r3, [r7, #12]	@ tmp119, pFIO
 1548 002a BA88     		ldrh	r2, [r7, #4]	@ movhi	@ tmp120, bitValue
 1549 002c DA83     		strh	r2, [r3, #30]	@ movhi	@ tmp120, pFIO_5->FIOCLRU
 560:core/lpc17xx_gpio.c **** 		}
 561:core/lpc17xx_gpio.c **** 		// lower
 562:core/lpc17xx_gpio.c **** 		else {
 563:core/lpc17xx_gpio.c **** 			pFIO->FIOCLRL = bitValue;
 564:core/lpc17xx_gpio.c **** 		}
 565:core/lpc17xx_gpio.c **** 	}
 566:core/lpc17xx_gpio.c **** }
 1550              		.loc 1 566 0
 1551 002e 02E0     		b	.L109	@
 1552              	.L108:
 563:core/lpc17xx_gpio.c **** 		}
 1553              		.loc 1 563 0
 1554 0030 FB68     		ldr	r3, [r7, #12]	@ tmp121, pFIO
 1555 0032 BA88     		ldrh	r2, [r7, #4]	@ movhi	@ tmp122, bitValue
 1556 0034 9A83     		strh	r2, [r3, #28]	@ movhi	@ tmp122, pFIO_5->FIOCLRL
 1557              	.L109:
 1558              		.loc 1 566 0
 1559 0036 00BF     		nop
 1560 0038 1037     		adds	r7, r7, #16	@,,
 1561              		.cfi_def_cfa_offset 8
 1562 003a BD46     		mov	sp, r7	@,
 1563              		.cfi_def_cfa_register 13
 1564              		@ sp needed	@
 1565 003c 80BD     		pop	{r7, pc}	@
 1566              		.cfi_endproc
 1567              	.LFE76:
 1568              		.size	FIO_HalfWordClearValue, .-FIO_HalfWordClearValue
 1569 003e 00BF     		.section	.text.FIO_HalfWordReadValue,"ax",%progbits
 1570              		.align	2
 1571              		.global	FIO_HalfWordReadValue
 1572              		.thumb
 1573              		.thumb_func
 1574              		.type	FIO_HalfWordReadValue, %function
 1575              	FIO_HalfWordReadValue:
 1576              	.LFB77:
 567:core/lpc17xx_gpio.c **** 
 568:core/lpc17xx_gpio.c **** 
 569:core/lpc17xx_gpio.c **** /*********************************************************************//**
 570:core/lpc17xx_gpio.c ****  * @brief		Read Current state on port pin that have input direction of GPIO
 571:core/lpc17xx_gpio.c ****  * 				in halfword accessible style.
 572:core/lpc17xx_gpio.c ****  * @param[in]	portNum		Port number, in range from 0 to 4
 573:core/lpc17xx_gpio.c ****  * @param[in]	halfwordNum	HalfWord part number, should be 0 (lower) or 1(upper)
 574:core/lpc17xx_gpio.c ****  * @return		Current value of FIO port pin of specified halfword.
 575:core/lpc17xx_gpio.c ****  * Note: Return value contain state of each port pin (bit) on that FIO regardless
ARM GAS  C:\Users\STUDENT\AppData\Local\Temp\cc6DO5vW.s 			page 39


 576:core/lpc17xx_gpio.c ****  * its direction is input or output.
 577:core/lpc17xx_gpio.c ****  **********************************************************************/
 578:core/lpc17xx_gpio.c **** uint16_t FIO_HalfWordReadValue(uint8_t portNum, uint8_t halfwordNum)
 579:core/lpc17xx_gpio.c **** {
 1577              		.loc 1 579 0
 1578              		.cfi_startproc
 1579              		@ args = 0, pretend = 0, frame = 16
 1580              		@ frame_needed = 1, uses_anonymous_args = 0
 1581 0000 80B5     		push	{r7, lr}	@
 1582              		.cfi_def_cfa_offset 8
 1583              		.cfi_offset 7, -8
 1584              		.cfi_offset 14, -4
 1585 0002 84B0     		sub	sp, sp, #16	@,,
 1586              		.cfi_def_cfa_offset 24
 1587 0004 00AF     		add	r7, sp, #0	@,,
 1588              		.cfi_def_cfa_register 7
 1589 0006 0346     		mov	r3, r0	@ tmp112, portNum
 1590 0008 0A46     		mov	r2, r1	@ tmp114, halfwordNum
 1591 000a FB71     		strb	r3, [r7, #7]	@ tmp113, portNum
 1592 000c 1346     		mov	r3, r2	@ tmp115, tmp114
 1593 000e BB71     		strb	r3, [r7, #6]	@ tmp115, halfwordNum
 580:core/lpc17xx_gpio.c **** 	GPIO_HalfWord_TypeDef *pFIO = FIO_HalfWordGetPointer(portNum);
 1594              		.loc 1 580 0
 1595 0010 FB79     		ldrb	r3, [r7, #7]	@ zero_extendqisi2	@ tmp116, portNum
 1596 0012 1846     		mov	r0, r3	@, tmp116
 1597 0014 FFF7FEFF 		bl	FIO_HalfWordGetPointer	@
 1598 0018 F860     		str	r0, [r7, #12]	@, pFIO
 581:core/lpc17xx_gpio.c **** 	if(pFIO != NULL) {
 1599              		.loc 1 581 0
 1600 001a FB68     		ldr	r3, [r7, #12]	@ tmp117, pFIO
 1601 001c 002B     		cmp	r3, #0	@ tmp117,
 1602 001e 0AD0     		beq	.L111	@,
 582:core/lpc17xx_gpio.c **** 		// Upper
 583:core/lpc17xx_gpio.c **** 		if(halfwordNum) {
 1603              		.loc 1 583 0
 1604 0020 BB79     		ldrb	r3, [r7, #6]	@ zero_extendqisi2	@ tmp118, halfwordNum
 1605 0022 002B     		cmp	r3, #0	@ tmp118,
 1606 0024 03D0     		beq	.L112	@,
 584:core/lpc17xx_gpio.c **** 			return (pFIO->FIOPINU);
 1607              		.loc 1 584 0
 1608 0026 FB68     		ldr	r3, [r7, #12]	@ tmp119, pFIO
 1609 0028 DB8A     		ldrh	r3, [r3, #22]	@ movhi	@ tmp121, pFIO_5->FIOPINU
 1610 002a 9BB2     		uxth	r3, r3	@ D.5944, tmp121
 1611 002c 04E0     		b	.L113	@
 1612              	.L112:
 585:core/lpc17xx_gpio.c **** 		}
 586:core/lpc17xx_gpio.c **** 		// lower
 587:core/lpc17xx_gpio.c **** 		else {
 588:core/lpc17xx_gpio.c **** 			return (pFIO->FIOPINL);
 1613              		.loc 1 588 0
 1614 002e FB68     		ldr	r3, [r7, #12]	@ tmp122, pFIO
 1615 0030 9B8A     		ldrh	r3, [r3, #20]	@ movhi	@ tmp124, pFIO_5->FIOPINL
 1616 0032 9BB2     		uxth	r3, r3	@ D.5944, tmp124
 1617 0034 00E0     		b	.L113	@
 1618              	.L111:
 589:core/lpc17xx_gpio.c **** 		}
 590:core/lpc17xx_gpio.c **** 	}
ARM GAS  C:\Users\STUDENT\AppData\Local\Temp\cc6DO5vW.s 			page 40


 591:core/lpc17xx_gpio.c **** 	return (0);
 1619              		.loc 1 591 0
 1620 0036 0023     		movs	r3, #0	@ D.5944,
 1621              	.L113:
 592:core/lpc17xx_gpio.c **** }
 1622              		.loc 1 592 0
 1623 0038 1846     		mov	r0, r3	@, <retval>
 1624 003a 1037     		adds	r7, r7, #16	@,,
 1625              		.cfi_def_cfa_offset 8
 1626 003c BD46     		mov	sp, r7	@,
 1627              		.cfi_def_cfa_register 13
 1628              		@ sp needed	@
 1629 003e 80BD     		pop	{r7, pc}	@
 1630              		.cfi_endproc
 1631              	.LFE77:
 1632              		.size	FIO_HalfWordReadValue, .-FIO_HalfWordReadValue
 1633              		.section	.text.FIO_ByteSetDir,"ax",%progbits
 1634              		.align	2
 1635              		.global	FIO_ByteSetDir
 1636              		.thumb
 1637              		.thumb_func
 1638              		.type	FIO_ByteSetDir, %function
 1639              	FIO_ByteSetDir:
 1640              	.LFB78:
 593:core/lpc17xx_gpio.c **** 
 594:core/lpc17xx_gpio.c **** 
 595:core/lpc17xx_gpio.c **** /* FIO Byte accessible ------------------------------------------------------------ */
 596:core/lpc17xx_gpio.c **** 
 597:core/lpc17xx_gpio.c **** /*********************************************************************//**
 598:core/lpc17xx_gpio.c ****  * @brief		Set direction for FIO port in byte accessible style
 599:core/lpc17xx_gpio.c ****  * @param[in]	portNum		Port number, in range from 0 to 4
 600:core/lpc17xx_gpio.c ****  * @param[in]	byteNum		Byte part number, should be in range from 0 to 3
 601:core/lpc17xx_gpio.c ****  * @param[in]	bitValue	Value that contains all bits in to set direction,
 602:core/lpc17xx_gpio.c ****  * 							in range from 0 to 0xFF.
 603:core/lpc17xx_gpio.c ****  * @param[in]	dir			Direction value, should be:
 604:core/lpc17xx_gpio.c ****  * 							- 0: Input.
 605:core/lpc17xx_gpio.c ****  * 							- 1: Output.
 606:core/lpc17xx_gpio.c ****  * @return		None
 607:core/lpc17xx_gpio.c ****  *
 608:core/lpc17xx_gpio.c ****  * Note: All remaining bits that are not activated in bitValue (value '0')
 609:core/lpc17xx_gpio.c ****  * will not be effected by this function.
 610:core/lpc17xx_gpio.c ****  **********************************************************************/
 611:core/lpc17xx_gpio.c **** void FIO_ByteSetDir(uint8_t portNum, uint8_t byteNum, uint8_t bitValue, uint8_t dir)
 612:core/lpc17xx_gpio.c **** {
 1641              		.loc 1 612 0
 1642              		.cfi_startproc
 1643              		@ args = 0, pretend = 0, frame = 16
 1644              		@ frame_needed = 1, uses_anonymous_args = 0
 1645 0000 90B5     		push	{r4, r7, lr}	@
 1646              		.cfi_def_cfa_offset 12
 1647              		.cfi_offset 4, -12
 1648              		.cfi_offset 7, -8
 1649              		.cfi_offset 14, -4
 1650 0002 85B0     		sub	sp, sp, #20	@,,
 1651              		.cfi_def_cfa_offset 32
 1652 0004 00AF     		add	r7, sp, #0	@,,
 1653              		.cfi_def_cfa_register 7
ARM GAS  C:\Users\STUDENT\AppData\Local\Temp\cc6DO5vW.s 			page 41


 1654 0006 0446     		mov	r4, r0	@ tmp122, portNum
 1655 0008 0846     		mov	r0, r1	@ tmp124, byteNum
 1656 000a 1146     		mov	r1, r2	@ tmp126, bitValue
 1657 000c 1A46     		mov	r2, r3	@ tmp128, dir
 1658 000e 2346     		mov	r3, r4	@ tmp123, tmp122
 1659 0010 FB71     		strb	r3, [r7, #7]	@ tmp123, portNum
 1660 0012 0346     		mov	r3, r0	@ tmp125, tmp124
 1661 0014 BB71     		strb	r3, [r7, #6]	@ tmp125, byteNum
 1662 0016 0B46     		mov	r3, r1	@ tmp127, tmp126
 1663 0018 7B71     		strb	r3, [r7, #5]	@ tmp127, bitValue
 1664 001a 1346     		mov	r3, r2	@ tmp129, tmp128
 1665 001c 3B71     		strb	r3, [r7, #4]	@ tmp129, dir
 613:core/lpc17xx_gpio.c **** 	GPIO_Byte_TypeDef *pFIO = FIO_ByteGetPointer(portNum);
 1666              		.loc 1 613 0
 1667 001e FB79     		ldrb	r3, [r7, #7]	@ zero_extendqisi2	@ tmp130, portNum
 1668 0020 1846     		mov	r0, r3	@, tmp130
 1669 0022 FFF7FEFF 		bl	FIO_ByteGetPointer	@
 1670 0026 F860     		str	r0, [r7, #12]	@, pFIO
 614:core/lpc17xx_gpio.c **** 	if(pFIO != NULL) {
 1671              		.loc 1 614 0
 1672 0028 FB68     		ldr	r3, [r7, #12]	@ tmp131, pFIO
 1673 002a 002B     		cmp	r3, #0	@ tmp131,
 1674 002c 22D0     		beq	.L118	@,
 615:core/lpc17xx_gpio.c **** 		// Output direction
 616:core/lpc17xx_gpio.c **** 		if (dir) {
 1675              		.loc 1 616 0
 1676 002e 3B79     		ldrb	r3, [r7, #4]	@ zero_extendqisi2	@ tmp132, dir
 1677 0030 002B     		cmp	r3, #0	@ tmp132,
 1678 0032 0DD0     		beq	.L116	@,
 617:core/lpc17xx_gpio.c **** 			if ((byteNum >= 0) && (byteNum <= 3)) {
 1679              		.loc 1 617 0
 1680 0034 BB79     		ldrb	r3, [r7, #6]	@ zero_extendqisi2	@ tmp133, byteNum
 1681 0036 032B     		cmp	r3, #3	@ tmp133,
 1682 0038 1CD8     		bhi	.L118	@,
 618:core/lpc17xx_gpio.c **** 				pFIO->FIODIR[byteNum] |= bitValue;
 1683              		.loc 1 618 0
 1684 003a BB79     		ldrb	r3, [r7, #6]	@ zero_extendqisi2	@ D.5945, byteNum
 1685 003c BA79     		ldrb	r2, [r7, #6]	@ zero_extendqisi2	@ D.5945, byteNum
 1686 003e F968     		ldr	r1, [r7, #12]	@ tmp134, pFIO
 1687 0040 8A5C     		ldrb	r2, [r1, r2]	@ tmp136, pFIO_6->FIODIR
 1688 0042 D1B2     		uxtb	r1, r2	@ D.5946, tmp136
 1689 0044 7A79     		ldrb	r2, [r7, #5]	@ tmp137, bitValue
 1690 0046 0A43     		orrs	r2, r2, r1	@, tmp138, tmp137, D.5946
 1691 0048 D1B2     		uxtb	r1, r2	@ D.5946, tmp138
 1692 004a FA68     		ldr	r2, [r7, #12]	@ tmp139, pFIO
 1693 004c D154     		strb	r1, [r2, r3]	@ tmp140, pFIO_6->FIODIR
 619:core/lpc17xx_gpio.c **** 			}
 620:core/lpc17xx_gpio.c **** 		}
 621:core/lpc17xx_gpio.c **** 		// Input direction
 622:core/lpc17xx_gpio.c **** 		else {
 623:core/lpc17xx_gpio.c **** 			if ((byteNum >= 0) && (byteNum <= 3)) {
 624:core/lpc17xx_gpio.c **** 				pFIO->FIODIR[byteNum] &= ~bitValue;
 625:core/lpc17xx_gpio.c **** 			}
 626:core/lpc17xx_gpio.c **** 		}
 627:core/lpc17xx_gpio.c **** 	}
 628:core/lpc17xx_gpio.c **** }
 1694              		.loc 1 628 0
ARM GAS  C:\Users\STUDENT\AppData\Local\Temp\cc6DO5vW.s 			page 42


 1695 004e 11E0     		b	.L118	@
 1696              	.L116:
 623:core/lpc17xx_gpio.c **** 				pFIO->FIODIR[byteNum] &= ~bitValue;
 1697              		.loc 1 623 0
 1698 0050 BB79     		ldrb	r3, [r7, #6]	@ zero_extendqisi2	@ tmp141, byteNum
 1699 0052 032B     		cmp	r3, #3	@ tmp141,
 1700 0054 0ED8     		bhi	.L118	@,
 624:core/lpc17xx_gpio.c **** 			}
 1701              		.loc 1 624 0
 1702 0056 BB79     		ldrb	r3, [r7, #6]	@ zero_extendqisi2	@ D.5945, byteNum
 1703 0058 BA79     		ldrb	r2, [r7, #6]	@ zero_extendqisi2	@ D.5945, byteNum
 1704 005a F968     		ldr	r1, [r7, #12]	@ tmp142, pFIO
 1705 005c 8A5C     		ldrb	r2, [r1, r2]	@ tmp144, pFIO_6->FIODIR
 1706 005e D2B2     		uxtb	r2, r2	@ D.5946, tmp144
 1707 0060 51B2     		sxtb	r1, r2	@ D.5947, D.5946
 1708 0062 97F90520 		ldrsb	r2, [r7, #5]	@ D.5947, bitValue
 1709 0066 D243     		mvns	r2, r2	@ tmp146, tmp145
 1710 0068 52B2     		sxtb	r2, r2	@ D.5947, tmp146
 1711 006a 0A40     		ands	r2, r2, r1	@, tmp147, D.5947, D.5947
 1712 006c 52B2     		sxtb	r2, r2	@ D.5947, tmp147
 1713 006e D1B2     		uxtb	r1, r2	@ D.5946, D.5947
 1714 0070 FA68     		ldr	r2, [r7, #12]	@ tmp148, pFIO
 1715 0072 D154     		strb	r1, [r2, r3]	@ tmp149, pFIO_6->FIODIR
 1716              	.L118:
 1717              		.loc 1 628 0
 1718 0074 00BF     		nop
 1719 0076 1437     		adds	r7, r7, #20	@,,
 1720              		.cfi_def_cfa_offset 12
 1721 0078 BD46     		mov	sp, r7	@,
 1722              		.cfi_def_cfa_register 13
 1723              		@ sp needed	@
 1724 007a 90BD     		pop	{r4, r7, pc}	@
 1725              		.cfi_endproc
 1726              	.LFE78:
 1727              		.size	FIO_ByteSetDir, .-FIO_ByteSetDir
 1728              		.section	.text.FIO_ByteSetMask,"ax",%progbits
 1729              		.align	2
 1730              		.global	FIO_ByteSetMask
 1731              		.thumb
 1732              		.thumb_func
 1733              		.type	FIO_ByteSetMask, %function
 1734              	FIO_ByteSetMask:
 1735              	.LFB79:
 629:core/lpc17xx_gpio.c **** 
 630:core/lpc17xx_gpio.c **** /*********************************************************************//**
 631:core/lpc17xx_gpio.c ****  * @brief		Set mask value for bits in FIO port in byte accessible style
 632:core/lpc17xx_gpio.c ****  * @param[in]	portNum		Port number, in range from 0 to 4
 633:core/lpc17xx_gpio.c ****  * @param[in]	byteNum		Byte part number, should be in range from 0 to 3
 634:core/lpc17xx_gpio.c ****  * @param[in]	bitValue	Value that contains all bits in to set mask,
 635:core/lpc17xx_gpio.c ****  * 							in range from 0 to 0xFF.
 636:core/lpc17xx_gpio.c ****  * @param[in]	maskValue	Mask value contains state value for each bit:
 637:core/lpc17xx_gpio.c ****  * 							- 0: not mask.
 638:core/lpc17xx_gpio.c ****  * 							- 1: mask.
 639:core/lpc17xx_gpio.c ****  * @return		None
 640:core/lpc17xx_gpio.c ****  *
 641:core/lpc17xx_gpio.c ****  * Note:
 642:core/lpc17xx_gpio.c ****  * - All remaining bits that are not activated in bitValue (value '0')
ARM GAS  C:\Users\STUDENT\AppData\Local\Temp\cc6DO5vW.s 			page 43


 643:core/lpc17xx_gpio.c ****  * will not be effected by this function.
 644:core/lpc17xx_gpio.c ****  * - After executing this function, in mask register, value '0' on each bit
 645:core/lpc17xx_gpio.c ****  * enables an access to the corresponding physical pin via a read or write access,
 646:core/lpc17xx_gpio.c ****  * while value '1' on bit (masked) that corresponding pin will not be changed
 647:core/lpc17xx_gpio.c ****  * with write access and if read, will not be reflected in the updated pin.
 648:core/lpc17xx_gpio.c ****  **********************************************************************/
 649:core/lpc17xx_gpio.c **** void FIO_ByteSetMask(uint8_t portNum, uint8_t byteNum, uint8_t bitValue, uint8_t maskValue)
 650:core/lpc17xx_gpio.c **** {
 1736              		.loc 1 650 0
 1737              		.cfi_startproc
 1738              		@ args = 0, pretend = 0, frame = 16
 1739              		@ frame_needed = 1, uses_anonymous_args = 0
 1740 0000 90B5     		push	{r4, r7, lr}	@
 1741              		.cfi_def_cfa_offset 12
 1742              		.cfi_offset 4, -12
 1743              		.cfi_offset 7, -8
 1744              		.cfi_offset 14, -4
 1745 0002 85B0     		sub	sp, sp, #20	@,,
 1746              		.cfi_def_cfa_offset 32
 1747 0004 00AF     		add	r7, sp, #0	@,,
 1748              		.cfi_def_cfa_register 7
 1749 0006 0446     		mov	r4, r0	@ tmp122, portNum
 1750 0008 0846     		mov	r0, r1	@ tmp124, byteNum
 1751 000a 1146     		mov	r1, r2	@ tmp126, bitValue
 1752 000c 1A46     		mov	r2, r3	@ tmp128, maskValue
 1753 000e 2346     		mov	r3, r4	@ tmp123, tmp122
 1754 0010 FB71     		strb	r3, [r7, #7]	@ tmp123, portNum
 1755 0012 0346     		mov	r3, r0	@ tmp125, tmp124
 1756 0014 BB71     		strb	r3, [r7, #6]	@ tmp125, byteNum
 1757 0016 0B46     		mov	r3, r1	@ tmp127, tmp126
 1758 0018 7B71     		strb	r3, [r7, #5]	@ tmp127, bitValue
 1759 001a 1346     		mov	r3, r2	@ tmp129, tmp128
 1760 001c 3B71     		strb	r3, [r7, #4]	@ tmp129, maskValue
 651:core/lpc17xx_gpio.c **** 	GPIO_Byte_TypeDef *pFIO = FIO_ByteGetPointer(portNum);
 1761              		.loc 1 651 0
 1762 001e FB79     		ldrb	r3, [r7, #7]	@ zero_extendqisi2	@ tmp130, portNum
 1763 0020 1846     		mov	r0, r3	@, tmp130
 1764 0022 FFF7FEFF 		bl	FIO_ByteGetPointer	@
 1765 0026 F860     		str	r0, [r7, #12]	@, pFIO
 652:core/lpc17xx_gpio.c **** 	if(pFIO != NULL) {
 1766              		.loc 1 652 0
 1767 0028 FB68     		ldr	r3, [r7, #12]	@ tmp131, pFIO
 1768 002a 002B     		cmp	r3, #0	@ tmp131,
 1769 002c 28D0     		beq	.L123	@,
 653:core/lpc17xx_gpio.c **** 		// Mask
 654:core/lpc17xx_gpio.c **** 		if (maskValue) {
 1770              		.loc 1 654 0
 1771 002e 3B79     		ldrb	r3, [r7, #4]	@ zero_extendqisi2	@ tmp132, maskValue
 1772 0030 002B     		cmp	r3, #0	@ tmp132,
 1773 0032 10D0     		beq	.L121	@,
 655:core/lpc17xx_gpio.c **** 			if ((byteNum >= 0) && (byteNum <= 3)) {
 1774              		.loc 1 655 0
 1775 0034 BB79     		ldrb	r3, [r7, #6]	@ zero_extendqisi2	@ tmp133, byteNum
 1776 0036 032B     		cmp	r3, #3	@ tmp133,
 1777 0038 22D8     		bhi	.L123	@,
 656:core/lpc17xx_gpio.c **** 				pFIO->FIOMASK[byteNum] |= bitValue;
 1778              		.loc 1 656 0
ARM GAS  C:\Users\STUDENT\AppData\Local\Temp\cc6DO5vW.s 			page 44


 1779 003a BB79     		ldrb	r3, [r7, #6]	@ zero_extendqisi2	@ D.5948, byteNum
 1780 003c BA79     		ldrb	r2, [r7, #6]	@ zero_extendqisi2	@ D.5948, byteNum
 1781 003e F968     		ldr	r1, [r7, #12]	@ tmp134, pFIO
 1782 0040 0A44     		add	r2, r2, r1	@ tmp135, tmp134
 1783 0042 127C     		ldrb	r2, [r2, #16]	@ tmp137, pFIO_6->FIOMASK
 1784 0044 D1B2     		uxtb	r1, r2	@ D.5949, tmp137
 1785 0046 7A79     		ldrb	r2, [r7, #5]	@ tmp138, bitValue
 1786 0048 0A43     		orrs	r2, r2, r1	@, tmp139, tmp138, D.5949
 1787 004a D1B2     		uxtb	r1, r2	@ D.5949, tmp139
 1788 004c FA68     		ldr	r2, [r7, #12]	@ tmp140, pFIO
 1789 004e 1344     		add	r3, r3, r2	@ tmp141, tmp140
 1790 0050 0A46     		mov	r2, r1	@ tmp142, D.5949
 1791 0052 1A74     		strb	r2, [r3, #16]	@ tmp142, pFIO_6->FIOMASK
 657:core/lpc17xx_gpio.c **** 			}
 658:core/lpc17xx_gpio.c **** 		}
 659:core/lpc17xx_gpio.c **** 		// Un-mask
 660:core/lpc17xx_gpio.c **** 		else {
 661:core/lpc17xx_gpio.c **** 			if ((byteNum >= 0) && (byteNum <= 3)) {
 662:core/lpc17xx_gpio.c **** 				pFIO->FIOMASK[byteNum] &= ~bitValue;
 663:core/lpc17xx_gpio.c **** 			}
 664:core/lpc17xx_gpio.c **** 		}
 665:core/lpc17xx_gpio.c **** 	}
 666:core/lpc17xx_gpio.c **** }
 1792              		.loc 1 666 0
 1793 0054 14E0     		b	.L123	@
 1794              	.L121:
 661:core/lpc17xx_gpio.c **** 				pFIO->FIOMASK[byteNum] &= ~bitValue;
 1795              		.loc 1 661 0
 1796 0056 BB79     		ldrb	r3, [r7, #6]	@ zero_extendqisi2	@ tmp143, byteNum
 1797 0058 032B     		cmp	r3, #3	@ tmp143,
 1798 005a 11D8     		bhi	.L123	@,
 662:core/lpc17xx_gpio.c **** 			}
 1799              		.loc 1 662 0
 1800 005c BB79     		ldrb	r3, [r7, #6]	@ zero_extendqisi2	@ D.5948, byteNum
 1801 005e BA79     		ldrb	r2, [r7, #6]	@ zero_extendqisi2	@ D.5948, byteNum
 1802 0060 F968     		ldr	r1, [r7, #12]	@ tmp144, pFIO
 1803 0062 0A44     		add	r2, r2, r1	@ tmp145, tmp144
 1804 0064 127C     		ldrb	r2, [r2, #16]	@ tmp147, pFIO_6->FIOMASK
 1805 0066 D2B2     		uxtb	r2, r2	@ D.5949, tmp147
 1806 0068 51B2     		sxtb	r1, r2	@ D.5950, D.5949
 1807 006a 97F90520 		ldrsb	r2, [r7, #5]	@ D.5950, bitValue
 1808 006e D243     		mvns	r2, r2	@ tmp149, tmp148
 1809 0070 52B2     		sxtb	r2, r2	@ D.5950, tmp149
 1810 0072 0A40     		ands	r2, r2, r1	@, tmp150, D.5950, D.5950
 1811 0074 52B2     		sxtb	r2, r2	@ D.5950, tmp150
 1812 0076 D1B2     		uxtb	r1, r2	@ D.5949, D.5950
 1813 0078 FA68     		ldr	r2, [r7, #12]	@ tmp151, pFIO
 1814 007a 1344     		add	r3, r3, r2	@ tmp152, tmp151
 1815 007c 0A46     		mov	r2, r1	@ tmp153, D.5949
 1816 007e 1A74     		strb	r2, [r3, #16]	@ tmp153, pFIO_6->FIOMASK
 1817              	.L123:
 1818              		.loc 1 666 0
 1819 0080 00BF     		nop
 1820 0082 1437     		adds	r7, r7, #20	@,,
 1821              		.cfi_def_cfa_offset 12
 1822 0084 BD46     		mov	sp, r7	@,
 1823              		.cfi_def_cfa_register 13
ARM GAS  C:\Users\STUDENT\AppData\Local\Temp\cc6DO5vW.s 			page 45


 1824              		@ sp needed	@
 1825 0086 90BD     		pop	{r4, r7, pc}	@
 1826              		.cfi_endproc
 1827              	.LFE79:
 1828              		.size	FIO_ByteSetMask, .-FIO_ByteSetMask
 1829              		.section	.text.FIO_ByteSetValue,"ax",%progbits
 1830              		.align	2
 1831              		.global	FIO_ByteSetValue
 1832              		.thumb
 1833              		.thumb_func
 1834              		.type	FIO_ByteSetValue, %function
 1835              	FIO_ByteSetValue:
 1836              	.LFB80:
 667:core/lpc17xx_gpio.c **** 
 668:core/lpc17xx_gpio.c **** 
 669:core/lpc17xx_gpio.c **** /*********************************************************************//**
 670:core/lpc17xx_gpio.c ****  * @brief		Set bits for FIO port in byte accessible style
 671:core/lpc17xx_gpio.c ****  * @param[in]	portNum		Port number, in range from 0 to 4
 672:core/lpc17xx_gpio.c ****  * @param[in]	byteNum		Byte part number, should be in range from 0 to 3
 673:core/lpc17xx_gpio.c ****  * @param[in]	bitValue	Value that contains all bits in to set,
 674:core/lpc17xx_gpio.c ****  * 							in range from 0 to 0xFF.
 675:core/lpc17xx_gpio.c ****  * @return		None
 676:core/lpc17xx_gpio.c ****  *
 677:core/lpc17xx_gpio.c ****  * Note:
 678:core/lpc17xx_gpio.c ****  * - For all bits that has been set as input direction, this function will
 679:core/lpc17xx_gpio.c ****  * not effect.
 680:core/lpc17xx_gpio.c ****  * - For all remaining bits that are not activated in bitValue (value '0')
 681:core/lpc17xx_gpio.c ****  * will not be effected by this function.
 682:core/lpc17xx_gpio.c ****  **********************************************************************/
 683:core/lpc17xx_gpio.c **** void FIO_ByteSetValue(uint8_t portNum, uint8_t byteNum, uint8_t bitValue)
 684:core/lpc17xx_gpio.c **** {
 1837              		.loc 1 684 0
 1838              		.cfi_startproc
 1839              		@ args = 0, pretend = 0, frame = 16
 1840              		@ frame_needed = 1, uses_anonymous_args = 0
 1841 0000 80B5     		push	{r7, lr}	@
 1842              		.cfi_def_cfa_offset 8
 1843              		.cfi_offset 7, -8
 1844              		.cfi_offset 14, -4
 1845 0002 84B0     		sub	sp, sp, #16	@,,
 1846              		.cfi_def_cfa_offset 24
 1847 0004 00AF     		add	r7, sp, #0	@,,
 1848              		.cfi_def_cfa_register 7
 1849 0006 0346     		mov	r3, r0	@ tmp111, portNum
 1850 0008 FB71     		strb	r3, [r7, #7]	@ tmp112, portNum
 1851 000a 0B46     		mov	r3, r1	@ tmp114, tmp113
 1852 000c BB71     		strb	r3, [r7, #6]	@ tmp114, byteNum
 1853 000e 1346     		mov	r3, r2	@ tmp116, tmp115
 1854 0010 7B71     		strb	r3, [r7, #5]	@ tmp116, bitValue
 685:core/lpc17xx_gpio.c **** 	GPIO_Byte_TypeDef *pFIO = FIO_ByteGetPointer(portNum);
 1855              		.loc 1 685 0
 1856 0012 FB79     		ldrb	r3, [r7, #7]	@ zero_extendqisi2	@ tmp117, portNum
 1857 0014 1846     		mov	r0, r3	@, tmp117
 1858 0016 FFF7FEFF 		bl	FIO_ByteGetPointer	@
 1859 001a F860     		str	r0, [r7, #12]	@, pFIO
 686:core/lpc17xx_gpio.c **** 	if (pFIO != NULL) {
 1860              		.loc 1 686 0
ARM GAS  C:\Users\STUDENT\AppData\Local\Temp\cc6DO5vW.s 			page 46


 1861 001c FB68     		ldr	r3, [r7, #12]	@ tmp118, pFIO
 1862 001e 002B     		cmp	r3, #0	@ tmp118,
 1863 0020 07D0     		beq	.L126	@,
 687:core/lpc17xx_gpio.c **** 		if ((byteNum >= 0) && (byteNum <= 3)){
 1864              		.loc 1 687 0
 1865 0022 BB79     		ldrb	r3, [r7, #6]	@ zero_extendqisi2	@ tmp119, byteNum
 1866 0024 032B     		cmp	r3, #3	@ tmp119,
 1867 0026 04D8     		bhi	.L126	@,
 688:core/lpc17xx_gpio.c **** 			pFIO->FIOSET[byteNum] = bitValue;
 1868              		.loc 1 688 0
 1869 0028 BB79     		ldrb	r3, [r7, #6]	@ zero_extendqisi2	@ D.5951, byteNum
 1870 002a FA68     		ldr	r2, [r7, #12]	@ tmp120, pFIO
 1871 002c 1344     		add	r3, r3, r2	@ tmp121, tmp120
 1872 002e 7A79     		ldrb	r2, [r7, #5]	@ tmp122, bitValue
 1873 0030 1A76     		strb	r2, [r3, #24]	@ tmp122, pFIO_5->FIOSET
 1874              	.L126:
 689:core/lpc17xx_gpio.c **** 		}
 690:core/lpc17xx_gpio.c **** 	}
 691:core/lpc17xx_gpio.c **** }
 1875              		.loc 1 691 0
 1876 0032 00BF     		nop
 1877 0034 1037     		adds	r7, r7, #16	@,,
 1878              		.cfi_def_cfa_offset 8
 1879 0036 BD46     		mov	sp, r7	@,
 1880              		.cfi_def_cfa_register 13
 1881              		@ sp needed	@
 1882 0038 80BD     		pop	{r7, pc}	@
 1883              		.cfi_endproc
 1884              	.LFE80:
 1885              		.size	FIO_ByteSetValue, .-FIO_ByteSetValue
 1886 003a 00BF     		.section	.text.FIO_ByteClearValue,"ax",%progbits
 1887              		.align	2
 1888              		.global	FIO_ByteClearValue
 1889              		.thumb
 1890              		.thumb_func
 1891              		.type	FIO_ByteClearValue, %function
 1892              	FIO_ByteClearValue:
 1893              	.LFB81:
 692:core/lpc17xx_gpio.c **** 
 693:core/lpc17xx_gpio.c **** 
 694:core/lpc17xx_gpio.c **** /*********************************************************************//**
 695:core/lpc17xx_gpio.c ****  * @brief		Clear bits for FIO port in byte accessible style
 696:core/lpc17xx_gpio.c ****  * @param[in]	portNum		Port number, in range from 0 to 4
 697:core/lpc17xx_gpio.c ****  * @param[in]	byteNum		Byte part number, should be in range from 0 to 3
 698:core/lpc17xx_gpio.c ****  * @param[in]	bitValue	Value that contains all bits in to clear,
 699:core/lpc17xx_gpio.c ****  * 							in range from 0 to 0xFF.
 700:core/lpc17xx_gpio.c ****  * @return		None
 701:core/lpc17xx_gpio.c ****  *
 702:core/lpc17xx_gpio.c ****  * Note:
 703:core/lpc17xx_gpio.c ****  * - For all bits that has been set as input direction, this function will
 704:core/lpc17xx_gpio.c ****  * not effect.
 705:core/lpc17xx_gpio.c ****  * - For all remaining bits that are not activated in bitValue (value '0')
 706:core/lpc17xx_gpio.c ****  * will not be effected by this function.
 707:core/lpc17xx_gpio.c ****  **********************************************************************/
 708:core/lpc17xx_gpio.c **** void FIO_ByteClearValue(uint8_t portNum, uint8_t byteNum, uint8_t bitValue)
 709:core/lpc17xx_gpio.c **** {
 1894              		.loc 1 709 0
ARM GAS  C:\Users\STUDENT\AppData\Local\Temp\cc6DO5vW.s 			page 47


 1895              		.cfi_startproc
 1896              		@ args = 0, pretend = 0, frame = 16
 1897              		@ frame_needed = 1, uses_anonymous_args = 0
 1898 0000 80B5     		push	{r7, lr}	@
 1899              		.cfi_def_cfa_offset 8
 1900              		.cfi_offset 7, -8
 1901              		.cfi_offset 14, -4
 1902 0002 84B0     		sub	sp, sp, #16	@,,
 1903              		.cfi_def_cfa_offset 24
 1904 0004 00AF     		add	r7, sp, #0	@,,
 1905              		.cfi_def_cfa_register 7
 1906 0006 0346     		mov	r3, r0	@ tmp111, portNum
 1907 0008 FB71     		strb	r3, [r7, #7]	@ tmp112, portNum
 1908 000a 0B46     		mov	r3, r1	@ tmp114, tmp113
 1909 000c BB71     		strb	r3, [r7, #6]	@ tmp114, byteNum
 1910 000e 1346     		mov	r3, r2	@ tmp116, tmp115
 1911 0010 7B71     		strb	r3, [r7, #5]	@ tmp116, bitValue
 710:core/lpc17xx_gpio.c **** 	GPIO_Byte_TypeDef *pFIO = FIO_ByteGetPointer(portNum);
 1912              		.loc 1 710 0
 1913 0012 FB79     		ldrb	r3, [r7, #7]	@ zero_extendqisi2	@ tmp117, portNum
 1914 0014 1846     		mov	r0, r3	@, tmp117
 1915 0016 FFF7FEFF 		bl	FIO_ByteGetPointer	@
 1916 001a F860     		str	r0, [r7, #12]	@, pFIO
 711:core/lpc17xx_gpio.c **** 	if (pFIO != NULL) {
 1917              		.loc 1 711 0
 1918 001c FB68     		ldr	r3, [r7, #12]	@ tmp118, pFIO
 1919 001e 002B     		cmp	r3, #0	@ tmp118,
 1920 0020 07D0     		beq	.L129	@,
 712:core/lpc17xx_gpio.c **** 		if ((byteNum >= 0) && (byteNum <= 3)){
 1921              		.loc 1 712 0
 1922 0022 BB79     		ldrb	r3, [r7, #6]	@ zero_extendqisi2	@ tmp119, byteNum
 1923 0024 032B     		cmp	r3, #3	@ tmp119,
 1924 0026 04D8     		bhi	.L129	@,
 713:core/lpc17xx_gpio.c **** 			pFIO->FIOCLR[byteNum] = bitValue;
 1925              		.loc 1 713 0
 1926 0028 BB79     		ldrb	r3, [r7, #6]	@ zero_extendqisi2	@ D.5952, byteNum
 1927 002a FA68     		ldr	r2, [r7, #12]	@ tmp120, pFIO
 1928 002c 1344     		add	r3, r3, r2	@ tmp121, tmp120
 1929 002e 7A79     		ldrb	r2, [r7, #5]	@ tmp122, bitValue
 1930 0030 1A77     		strb	r2, [r3, #28]	@ tmp122, pFIO_5->FIOCLR
 1931              	.L129:
 714:core/lpc17xx_gpio.c **** 		}
 715:core/lpc17xx_gpio.c **** 	}
 716:core/lpc17xx_gpio.c **** }
 1932              		.loc 1 716 0
 1933 0032 00BF     		nop
 1934 0034 1037     		adds	r7, r7, #16	@,,
 1935              		.cfi_def_cfa_offset 8
 1936 0036 BD46     		mov	sp, r7	@,
 1937              		.cfi_def_cfa_register 13
 1938              		@ sp needed	@
 1939 0038 80BD     		pop	{r7, pc}	@
 1940              		.cfi_endproc
 1941              	.LFE81:
 1942              		.size	FIO_ByteClearValue, .-FIO_ByteClearValue
 1943 003a 00BF     		.section	.text.FIO_ByteReadValue,"ax",%progbits
 1944              		.align	2
ARM GAS  C:\Users\STUDENT\AppData\Local\Temp\cc6DO5vW.s 			page 48


 1945              		.global	FIO_ByteReadValue
 1946              		.thumb
 1947              		.thumb_func
 1948              		.type	FIO_ByteReadValue, %function
 1949              	FIO_ByteReadValue:
 1950              	.LFB82:
 717:core/lpc17xx_gpio.c **** 
 718:core/lpc17xx_gpio.c **** 
 719:core/lpc17xx_gpio.c **** /*********************************************************************//**
 720:core/lpc17xx_gpio.c ****  * @brief		Read Current state on port pin that have input direction of GPIO
 721:core/lpc17xx_gpio.c ****  * 				in byte accessible style.
 722:core/lpc17xx_gpio.c ****  * @param[in]	portNum		Port number, in range from 0 to 4
 723:core/lpc17xx_gpio.c ****  * @param[in]	byteNum		Byte part number, should be in range from 0 to 3
 724:core/lpc17xx_gpio.c ****  * @return		Current value of FIO port pin of specified byte part.
 725:core/lpc17xx_gpio.c ****  * Note: Return value contain state of each port pin (bit) on that FIO regardless
 726:core/lpc17xx_gpio.c ****  * its direction is input or output.
 727:core/lpc17xx_gpio.c ****  **********************************************************************/
 728:core/lpc17xx_gpio.c **** uint8_t FIO_ByteReadValue(uint8_t portNum, uint8_t byteNum)
 729:core/lpc17xx_gpio.c **** {
 1951              		.loc 1 729 0
 1952              		.cfi_startproc
 1953              		@ args = 0, pretend = 0, frame = 16
 1954              		@ frame_needed = 1, uses_anonymous_args = 0
 1955 0000 80B5     		push	{r7, lr}	@
 1956              		.cfi_def_cfa_offset 8
 1957              		.cfi_offset 7, -8
 1958              		.cfi_offset 14, -4
 1959 0002 84B0     		sub	sp, sp, #16	@,,
 1960              		.cfi_def_cfa_offset 24
 1961 0004 00AF     		add	r7, sp, #0	@,,
 1962              		.cfi_def_cfa_register 7
 1963 0006 0346     		mov	r3, r0	@ tmp113, portNum
 1964 0008 0A46     		mov	r2, r1	@ tmp115, byteNum
 1965 000a FB71     		strb	r3, [r7, #7]	@ tmp114, portNum
 1966 000c 1346     		mov	r3, r2	@ tmp116, tmp115
 1967 000e BB71     		strb	r3, [r7, #6]	@ tmp116, byteNum
 730:core/lpc17xx_gpio.c **** 	GPIO_Byte_TypeDef *pFIO = FIO_ByteGetPointer(portNum);
 1968              		.loc 1 730 0
 1969 0010 FB79     		ldrb	r3, [r7, #7]	@ zero_extendqisi2	@ tmp117, portNum
 1970 0012 1846     		mov	r0, r3	@, tmp117
 1971 0014 FFF7FEFF 		bl	FIO_ByteGetPointer	@
 1972 0018 F860     		str	r0, [r7, #12]	@, pFIO
 731:core/lpc17xx_gpio.c **** 	if (pFIO != NULL) {
 1973              		.loc 1 731 0
 1974 001a FB68     		ldr	r3, [r7, #12]	@ tmp118, pFIO
 1975 001c 002B     		cmp	r3, #0	@ tmp118,
 1976 001e 08D0     		beq	.L131	@,
 732:core/lpc17xx_gpio.c **** 		if ((byteNum >= 0) && (byteNum <= 3)){
 1977              		.loc 1 732 0
 1978 0020 BB79     		ldrb	r3, [r7, #6]	@ zero_extendqisi2	@ tmp119, byteNum
 1979 0022 032B     		cmp	r3, #3	@ tmp119,
 1980 0024 05D8     		bhi	.L131	@,
 733:core/lpc17xx_gpio.c **** 			return (pFIO->FIOPIN[byteNum]);
 1981              		.loc 1 733 0
 1982 0026 BB79     		ldrb	r3, [r7, #6]	@ zero_extendqisi2	@ D.5954, byteNum
 1983 0028 FA68     		ldr	r2, [r7, #12]	@ tmp120, pFIO
 1984 002a 1344     		add	r3, r3, r2	@ tmp121, tmp120
ARM GAS  C:\Users\STUDENT\AppData\Local\Temp\cc6DO5vW.s 			page 49


 1985 002c 1B7D     		ldrb	r3, [r3, #20]	@ tmp123, pFIO_5->FIOPIN
 1986 002e DBB2     		uxtb	r3, r3	@ D.5953, tmp123
 1987 0030 00E0     		b	.L132	@
 1988              	.L131:
 734:core/lpc17xx_gpio.c **** 		}
 735:core/lpc17xx_gpio.c **** 	}
 736:core/lpc17xx_gpio.c **** 	return (0);
 1989              		.loc 1 736 0
 1990 0032 0023     		movs	r3, #0	@ D.5953,
 1991              	.L132:
 737:core/lpc17xx_gpio.c **** }
 1992              		.loc 1 737 0
 1993 0034 1846     		mov	r0, r3	@, <retval>
 1994 0036 1037     		adds	r7, r7, #16	@,,
 1995              		.cfi_def_cfa_offset 8
 1996 0038 BD46     		mov	sp, r7	@,
 1997              		.cfi_def_cfa_register 13
 1998              		@ sp needed	@
 1999 003a 80BD     		pop	{r7, pc}	@
 2000              		.cfi_endproc
 2001              	.LFE82:
 2002              		.size	FIO_ByteReadValue, .-FIO_ByteReadValue
 2003              		.text
 2004              	.Letext0:
 2005              		.file 2 "c:\\program files (x86)\\gnu tools arm embedded\\5.4 2016q3\\arm-none-eabi\\include\\mach
 2006              		.file 3 "c:\\program files (x86)\\gnu tools arm embedded\\5.4 2016q3\\arm-none-eabi\\include\\sys\
 2007              		.file 4 "system/LPC17xx.h"
 2008              		.file 5 "core/lpc_types.h"
 2009              		.file 6 "core/lpc17xx_gpio.h"
 2010              		.file 7 "system/core_cm3.h"
 2011              		.section	.debug_info,"",%progbits
 2012              	.Ldebug_info0:
 2013 0000 5D0D0000 		.4byte	0xd5d
 2014 0004 0400     		.2byte	0x4
 2015 0006 00000000 		.4byte	.Ldebug_abbrev0
 2016 000a 04       		.byte	0x4
 2017 000b 01       		.uleb128 0x1
 2018 000c 21120000 		.4byte	.LASF1080
 2019 0010 01       		.byte	0x1
 2020 0011 44430000 		.4byte	.LASF1081
 2021 0015 5F140000 		.4byte	.LASF1082
 2022 0019 00000000 		.4byte	.Ldebug_ranges0+0
 2023 001d 00000000 		.4byte	0
 2024 0021 00000000 		.4byte	.Ldebug_line0
 2025 0025 00000000 		.4byte	.Ldebug_macro0
 2026 0029 02       		.uleb128 0x2
 2027 002a 01       		.byte	0x1
 2028 002b 06       		.byte	0x6
 2029 002c 501E0000 		.4byte	.LASF966
 2030 0030 03       		.uleb128 0x3
 2031 0031 C4110000 		.4byte	.LASF969
 2032 0035 02       		.byte	0x2
 2033 0036 1D       		.byte	0x1d
 2034 0037 3B000000 		.4byte	0x3b
 2035 003b 02       		.uleb128 0x2
 2036 003c 01       		.byte	0x1
 2037 003d 08       		.byte	0x8
ARM GAS  C:\Users\STUDENT\AppData\Local\Temp\cc6DO5vW.s 			page 50


 2038 003e 09200000 		.4byte	.LASF967
 2039 0042 02       		.uleb128 0x2
 2040 0043 02       		.byte	0x2
 2041 0044 05       		.byte	0x5
 2042 0045 CB6A0000 		.4byte	.LASF968
 2043 0049 03       		.uleb128 0x3
 2044 004a CD280000 		.4byte	.LASF970
 2045 004e 02       		.byte	0x2
 2046 004f 2B       		.byte	0x2b
 2047 0050 54000000 		.4byte	0x54
 2048 0054 02       		.uleb128 0x2
 2049 0055 02       		.byte	0x2
 2050 0056 07       		.byte	0x7
 2051 0057 46760000 		.4byte	.LASF971
 2052 005b 03       		.uleb128 0x3
 2053 005c 6C780000 		.4byte	.LASF972
 2054 0060 02       		.byte	0x2
 2055 0061 3F       		.byte	0x3f
 2056 0062 66000000 		.4byte	0x66
 2057 0066 02       		.uleb128 0x2
 2058 0067 04       		.byte	0x4
 2059 0068 05       		.byte	0x5
 2060 0069 0D160000 		.4byte	.LASF973
 2061 006d 03       		.uleb128 0x3
 2062 006e 90440000 		.4byte	.LASF974
 2063 0072 02       		.byte	0x2
 2064 0073 41       		.byte	0x41
 2065 0074 78000000 		.4byte	0x78
 2066 0078 02       		.uleb128 0x2
 2067 0079 04       		.byte	0x4
 2068 007a 07       		.byte	0x7
 2069 007b A23A0000 		.4byte	.LASF975
 2070 007f 02       		.uleb128 0x2
 2071 0080 08       		.byte	0x8
 2072 0081 05       		.byte	0x5
 2073 0082 12450000 		.4byte	.LASF976
 2074 0086 02       		.uleb128 0x2
 2075 0087 08       		.byte	0x8
 2076 0088 07       		.byte	0x7
 2077 0089 B9590000 		.4byte	.LASF977
 2078 008d 04       		.uleb128 0x4
 2079 008e 04       		.byte	0x4
 2080 008f 05       		.byte	0x5
 2081 0090 696E7400 		.ascii	"int\000"
 2082 0094 02       		.uleb128 0x2
 2083 0095 04       		.byte	0x4
 2084 0096 07       		.byte	0x7
 2085 0097 304C0000 		.4byte	.LASF978
 2086 009b 03       		.uleb128 0x3
 2087 009c 631E0000 		.4byte	.LASF979
 2088 00a0 03       		.byte	0x3
 2089 00a1 18       		.byte	0x18
 2090 00a2 30000000 		.4byte	0x30
 2091 00a6 03       		.uleb128 0x3
 2092 00a7 0C5B0000 		.4byte	.LASF980
 2093 00ab 03       		.byte	0x3
 2094 00ac 24       		.byte	0x24
ARM GAS  C:\Users\STUDENT\AppData\Local\Temp\cc6DO5vW.s 			page 51


 2095 00ad 49000000 		.4byte	0x49
 2096 00b1 03       		.uleb128 0x3
 2097 00b2 27050000 		.4byte	.LASF981
 2098 00b6 03       		.byte	0x3
 2099 00b7 2C       		.byte	0x2c
 2100 00b8 5B000000 		.4byte	0x5b
 2101 00bc 03       		.uleb128 0x3
 2102 00bd 86730000 		.4byte	.LASF982
 2103 00c1 03       		.byte	0x3
 2104 00c2 30       		.byte	0x30
 2105 00c3 6D000000 		.4byte	0x6d
 2106 00c7 02       		.uleb128 0x2
 2107 00c8 04       		.byte	0x4
 2108 00c9 07       		.byte	0x7
 2109 00ca F7010000 		.4byte	.LASF983
 2110 00ce 05       		.uleb128 0x5
 2111 00cf BC000000 		.4byte	0xbc
 2112 00d3 05       		.uleb128 0x5
 2113 00d4 9B000000 		.4byte	0x9b
 2114 00d8 06       		.uleb128 0x6
 2115 00d9 CE000000 		.4byte	0xce
 2116 00dd 05       		.uleb128 0x5
 2117 00de A6000000 		.4byte	0xa6
 2118 00e2 07       		.uleb128 0x7
 2119 00e3 04       		.byte	0x4
 2120 00e4 04       		.byte	0x4
 2121 00e5 C5       		.byte	0xc5
 2122 00e6 03010000 		.4byte	0x103
 2123 00ea 08       		.uleb128 0x8
 2124 00eb 20440000 		.4byte	.LASF984
 2125 00ef 04       		.byte	0x4
 2126 00f0 C6       		.byte	0xc6
 2127 00f1 DD000000 		.4byte	0xdd
 2128 00f5 00       		.byte	0
 2129 00f6 08       		.uleb128 0x8
 2130 00f7 F5430000 		.4byte	.LASF985
 2131 00fb 04       		.byte	0x4
 2132 00fc C7       		.byte	0xc7
 2133 00fd DD000000 		.4byte	0xdd
 2134 0101 02       		.byte	0x2
 2135 0102 00       		.byte	0
 2136 0103 07       		.uleb128 0x7
 2137 0104 04       		.byte	0x4
 2138 0105 04       		.byte	0x4
 2139 0106 C9       		.byte	0xc9
 2140 0107 3C010000 		.4byte	0x13c
 2141 010b 08       		.uleb128 0x8
 2142 010c 8F420000 		.4byte	.LASF986
 2143 0110 04       		.byte	0x4
 2144 0111 CA       		.byte	0xca
 2145 0112 D3000000 		.4byte	0xd3
 2146 0116 00       		.byte	0
 2147 0117 08       		.uleb128 0x8
 2148 0118 97420000 		.4byte	.LASF987
 2149 011c 04       		.byte	0x4
 2150 011d CB       		.byte	0xcb
 2151 011e D3000000 		.4byte	0xd3
ARM GAS  C:\Users\STUDENT\AppData\Local\Temp\cc6DO5vW.s 			page 52


 2152 0122 01       		.byte	0x1
 2153 0123 08       		.uleb128 0x8
 2154 0124 9F420000 		.4byte	.LASF988
 2155 0128 04       		.byte	0x4
 2156 0129 CC       		.byte	0xcc
 2157 012a D3000000 		.4byte	0xd3
 2158 012e 02       		.byte	0x2
 2159 012f 08       		.uleb128 0x8
 2160 0130 A7420000 		.4byte	.LASF989
 2161 0134 04       		.byte	0x4
 2162 0135 CD       		.byte	0xcd
 2163 0136 D3000000 		.4byte	0xd3
 2164 013a 03       		.byte	0x3
 2165 013b 00       		.byte	0
 2166 013c 09       		.uleb128 0x9
 2167 013d 04       		.byte	0x4
 2168 013e 04       		.byte	0x4
 2169 013f C3       		.byte	0xc3
 2170 0140 5A010000 		.4byte	0x15a
 2171 0144 0A       		.uleb128 0xa
 2172 0145 2D510000 		.4byte	.LASF996
 2173 0149 04       		.byte	0x4
 2174 014a C4       		.byte	0xc4
 2175 014b CE000000 		.4byte	0xce
 2176 014f 0B       		.uleb128 0xb
 2177 0150 E2000000 		.4byte	0xe2
 2178 0154 0B       		.uleb128 0xb
 2179 0155 03010000 		.4byte	0x103
 2180 0159 00       		.byte	0
 2181 015a 07       		.uleb128 0x7
 2182 015b 04       		.byte	0x4
 2183 015c 04       		.byte	0x4
 2184 015d D3       		.byte	0xd3
 2185 015e 7B010000 		.4byte	0x17b
 2186 0162 08       		.uleb128 0x8
 2187 0163 5B4E0000 		.4byte	.LASF990
 2188 0167 04       		.byte	0x4
 2189 0168 D4       		.byte	0xd4
 2190 0169 DD000000 		.4byte	0xdd
 2191 016d 00       		.byte	0
 2192 016e 08       		.uleb128 0x8
 2193 016f 524E0000 		.4byte	.LASF991
 2194 0173 04       		.byte	0x4
 2195 0174 D5       		.byte	0xd5
 2196 0175 DD000000 		.4byte	0xdd
 2197 0179 02       		.byte	0x2
 2198 017a 00       		.byte	0
 2199 017b 07       		.uleb128 0x7
 2200 017c 04       		.byte	0x4
 2201 017d 04       		.byte	0x4
 2202 017e D7       		.byte	0xd7
 2203 017f B4010000 		.4byte	0x1b4
 2204 0183 08       		.uleb128 0x8
 2205 0184 E84C0000 		.4byte	.LASF992
 2206 0188 04       		.byte	0x4
 2207 0189 D8       		.byte	0xd8
 2208 018a D3000000 		.4byte	0xd3
ARM GAS  C:\Users\STUDENT\AppData\Local\Temp\cc6DO5vW.s 			page 53


 2209 018e 00       		.byte	0
 2210 018f 08       		.uleb128 0x8
 2211 0190 F14C0000 		.4byte	.LASF993
 2212 0194 04       		.byte	0x4
 2213 0195 D9       		.byte	0xd9
 2214 0196 D3000000 		.4byte	0xd3
 2215 019a 01       		.byte	0x1
 2216 019b 08       		.uleb128 0x8
 2217 019c FA4C0000 		.4byte	.LASF994
 2218 01a0 04       		.byte	0x4
 2219 01a1 DA       		.byte	0xda
 2220 01a2 D3000000 		.4byte	0xd3
 2221 01a6 02       		.byte	0x2
 2222 01a7 08       		.uleb128 0x8
 2223 01a8 034D0000 		.4byte	.LASF995
 2224 01ac 04       		.byte	0x4
 2225 01ad DB       		.byte	0xdb
 2226 01ae D3000000 		.4byte	0xd3
 2227 01b2 03       		.byte	0x3
 2228 01b3 00       		.byte	0
 2229 01b4 09       		.uleb128 0x9
 2230 01b5 04       		.byte	0x4
 2231 01b6 04       		.byte	0x4
 2232 01b7 D1       		.byte	0xd1
 2233 01b8 D2010000 		.4byte	0x1d2
 2234 01bc 0A       		.uleb128 0xa
 2235 01bd 00400000 		.4byte	.LASF997
 2236 01c1 04       		.byte	0x4
 2237 01c2 D2       		.byte	0xd2
 2238 01c3 CE000000 		.4byte	0xce
 2239 01c7 0B       		.uleb128 0xb
 2240 01c8 5A010000 		.4byte	0x15a
 2241 01cc 0B       		.uleb128 0xb
 2242 01cd 7B010000 		.4byte	0x17b
 2243 01d1 00       		.byte	0
 2244 01d2 07       		.uleb128 0x7
 2245 01d3 04       		.byte	0x4
 2246 01d4 04       		.byte	0x4
 2247 01d5 E0       		.byte	0xe0
 2248 01d6 F3010000 		.4byte	0x1f3
 2249 01da 08       		.uleb128 0x8
 2250 01db 053B0000 		.4byte	.LASF998
 2251 01df 04       		.byte	0x4
 2252 01e0 E1       		.byte	0xe1
 2253 01e1 DD000000 		.4byte	0xdd
 2254 01e5 00       		.byte	0
 2255 01e6 08       		.uleb128 0x8
 2256 01e7 CA3A0000 		.4byte	.LASF999
 2257 01eb 04       		.byte	0x4
 2258 01ec E2       		.byte	0xe2
 2259 01ed DD000000 		.4byte	0xdd
 2260 01f1 02       		.byte	0x2
 2261 01f2 00       		.byte	0
 2262 01f3 07       		.uleb128 0x7
 2263 01f4 04       		.byte	0x4
 2264 01f5 04       		.byte	0x4
 2265 01f6 E4       		.byte	0xe4
ARM GAS  C:\Users\STUDENT\AppData\Local\Temp\cc6DO5vW.s 			page 54


 2266 01f7 2C020000 		.4byte	0x22c
 2267 01fb 08       		.uleb128 0x8
 2268 01fc AC390000 		.4byte	.LASF1000
 2269 0200 04       		.byte	0x4
 2270 0201 E5       		.byte	0xe5
 2271 0202 D3000000 		.4byte	0xd3
 2272 0206 00       		.byte	0
 2273 0207 08       		.uleb128 0x8
 2274 0208 B4390000 		.4byte	.LASF1001
 2275 020c 04       		.byte	0x4
 2276 020d E6       		.byte	0xe6
 2277 020e D3000000 		.4byte	0xd3
 2278 0212 01       		.byte	0x1
 2279 0213 08       		.uleb128 0x8
 2280 0214 BC390000 		.4byte	.LASF1002
 2281 0218 04       		.byte	0x4
 2282 0219 E7       		.byte	0xe7
 2283 021a D3000000 		.4byte	0xd3
 2284 021e 02       		.byte	0x2
 2285 021f 08       		.uleb128 0x8
 2286 0220 C4390000 		.4byte	.LASF1003
 2287 0224 04       		.byte	0x4
 2288 0225 E8       		.byte	0xe8
 2289 0226 D3000000 		.4byte	0xd3
 2290 022a 03       		.byte	0x3
 2291 022b 00       		.byte	0
 2292 022c 09       		.uleb128 0x9
 2293 022d 04       		.byte	0x4
 2294 022e 04       		.byte	0x4
 2295 022f DE       		.byte	0xde
 2296 0230 4A020000 		.4byte	0x24a
 2297 0234 0A       		.uleb128 0xa
 2298 0235 955C0000 		.4byte	.LASF1004
 2299 0239 04       		.byte	0x4
 2300 023a DF       		.byte	0xdf
 2301 023b CE000000 		.4byte	0xce
 2302 023f 0B       		.uleb128 0xb
 2303 0240 D2010000 		.4byte	0x1d2
 2304 0244 0B       		.uleb128 0xb
 2305 0245 F3010000 		.4byte	0x1f3
 2306 0249 00       		.byte	0
 2307 024a 07       		.uleb128 0x7
 2308 024b 04       		.byte	0x4
 2309 024c 04       		.byte	0x4
 2310 024d ED       		.byte	0xed
 2311 024e 6B020000 		.4byte	0x26b
 2312 0252 08       		.uleb128 0x8
 2313 0253 C52D0000 		.4byte	.LASF1005
 2314 0257 04       		.byte	0x4
 2315 0258 EE       		.byte	0xee
 2316 0259 DD000000 		.4byte	0xdd
 2317 025d 00       		.byte	0
 2318 025e 08       		.uleb128 0x8
 2319 025f BD2D0000 		.4byte	.LASF1006
 2320 0263 04       		.byte	0x4
 2321 0264 EF       		.byte	0xef
 2322 0265 DD000000 		.4byte	0xdd
ARM GAS  C:\Users\STUDENT\AppData\Local\Temp\cc6DO5vW.s 			page 55


 2323 0269 02       		.byte	0x2
 2324 026a 00       		.byte	0
 2325 026b 07       		.uleb128 0x7
 2326 026c 04       		.byte	0x4
 2327 026d 04       		.byte	0x4
 2328 026e F1       		.byte	0xf1
 2329 026f A4020000 		.4byte	0x2a4
 2330 0273 08       		.uleb128 0x8
 2331 0274 992B0000 		.4byte	.LASF1007
 2332 0278 04       		.byte	0x4
 2333 0279 F2       		.byte	0xf2
 2334 027a D3000000 		.4byte	0xd3
 2335 027e 00       		.byte	0
 2336 027f 08       		.uleb128 0x8
 2337 0280 A12B0000 		.4byte	.LASF1008
 2338 0284 04       		.byte	0x4
 2339 0285 F3       		.byte	0xf3
 2340 0286 D3000000 		.4byte	0xd3
 2341 028a 01       		.byte	0x1
 2342 028b 08       		.uleb128 0x8
 2343 028c A92B0000 		.4byte	.LASF1009
 2344 0290 04       		.byte	0x4
 2345 0291 F4       		.byte	0xf4
 2346 0292 D3000000 		.4byte	0xd3
 2347 0296 02       		.byte	0x2
 2348 0297 08       		.uleb128 0x8
 2349 0298 B12B0000 		.4byte	.LASF1010
 2350 029c 04       		.byte	0x4
 2351 029d F5       		.byte	0xf5
 2352 029e D3000000 		.4byte	0xd3
 2353 02a2 03       		.byte	0x3
 2354 02a3 00       		.byte	0
 2355 02a4 09       		.uleb128 0x9
 2356 02a5 04       		.byte	0x4
 2357 02a6 04       		.byte	0x4
 2358 02a7 EB       		.byte	0xeb
 2359 02a8 C2020000 		.4byte	0x2c2
 2360 02ac 0A       		.uleb128 0xa
 2361 02ad B3460000 		.4byte	.LASF1011
 2362 02b1 04       		.byte	0x4
 2363 02b2 EC       		.byte	0xec
 2364 02b3 CE000000 		.4byte	0xce
 2365 02b7 0B       		.uleb128 0xb
 2366 02b8 4A020000 		.4byte	0x24a
 2367 02bc 0B       		.uleb128 0xb
 2368 02bd 6B020000 		.4byte	0x26b
 2369 02c1 00       		.byte	0
 2370 02c2 07       		.uleb128 0x7
 2371 02c3 04       		.byte	0x4
 2372 02c4 04       		.byte	0x4
 2373 02c5 FA       		.byte	0xfa
 2374 02c6 E3020000 		.4byte	0x2e3
 2375 02ca 08       		.uleb128 0x8
 2376 02cb EF4E0000 		.4byte	.LASF1012
 2377 02cf 04       		.byte	0x4
 2378 02d0 FB       		.byte	0xfb
 2379 02d1 DD000000 		.4byte	0xdd
ARM GAS  C:\Users\STUDENT\AppData\Local\Temp\cc6DO5vW.s 			page 56


 2380 02d5 00       		.byte	0
 2381 02d6 08       		.uleb128 0x8
 2382 02d7 DF4E0000 		.4byte	.LASF1013
 2383 02db 04       		.byte	0x4
 2384 02dc FC       		.byte	0xfc
 2385 02dd DD000000 		.4byte	0xdd
 2386 02e1 02       		.byte	0x2
 2387 02e2 00       		.byte	0
 2388 02e3 07       		.uleb128 0x7
 2389 02e4 04       		.byte	0x4
 2390 02e5 04       		.byte	0x4
 2391 02e6 FE       		.byte	0xfe
 2392 02e7 1F030000 		.4byte	0x31f
 2393 02eb 08       		.uleb128 0x8
 2394 02ec 004E0000 		.4byte	.LASF1014
 2395 02f0 04       		.byte	0x4
 2396 02f1 FF       		.byte	0xff
 2397 02f2 D3000000 		.4byte	0xd3
 2398 02f6 00       		.byte	0
 2399 02f7 0C       		.uleb128 0xc
 2400 02f8 084E0000 		.4byte	.LASF1015
 2401 02fc 04       		.byte	0x4
 2402 02fd 0001     		.2byte	0x100
 2403 02ff D3000000 		.4byte	0xd3
 2404 0303 01       		.byte	0x1
 2405 0304 0C       		.uleb128 0xc
 2406 0305 104E0000 		.4byte	.LASF1016
 2407 0309 04       		.byte	0x4
 2408 030a 0101     		.2byte	0x101
 2409 030c D3000000 		.4byte	0xd3
 2410 0310 02       		.byte	0x2
 2411 0311 0C       		.uleb128 0xc
 2412 0312 184E0000 		.4byte	.LASF1017
 2413 0316 04       		.byte	0x4
 2414 0317 0201     		.2byte	0x102
 2415 0319 D3000000 		.4byte	0xd3
 2416 031d 03       		.byte	0x3
 2417 031e 00       		.byte	0
 2418 031f 09       		.uleb128 0x9
 2419 0320 04       		.byte	0x4
 2420 0321 04       		.byte	0x4
 2421 0322 F8       		.byte	0xf8
 2422 0323 3D030000 		.4byte	0x33d
 2423 0327 0A       		.uleb128 0xa
 2424 0328 E3460000 		.4byte	.LASF1018
 2425 032c 04       		.byte	0x4
 2426 032d F9       		.byte	0xf9
 2427 032e CE000000 		.4byte	0xce
 2428 0332 0B       		.uleb128 0xb
 2429 0333 C2020000 		.4byte	0x2c2
 2430 0337 0B       		.uleb128 0xb
 2431 0338 E3020000 		.4byte	0x2e3
 2432 033c 00       		.byte	0
 2433 033d 07       		.uleb128 0x7
 2434 033e 20       		.byte	0x20
 2435 033f 04       		.byte	0x4
 2436 0340 C1       		.byte	0xc1
ARM GAS  C:\Users\STUDENT\AppData\Local\Temp\cc6DO5vW.s 			page 57


 2437 0341 70030000 		.4byte	0x370
 2438 0345 0D       		.uleb128 0xd
 2439 0346 3C010000 		.4byte	0x13c
 2440 034a 00       		.byte	0
 2441 034b 08       		.uleb128 0x8
 2442 034c DD1F0000 		.4byte	.LASF1019
 2443 0350 04       		.byte	0x4
 2444 0351 D0       		.byte	0xd0
 2445 0352 70030000 		.4byte	0x370
 2446 0356 04       		.byte	0x4
 2447 0357 0D       		.uleb128 0xd
 2448 0358 B4010000 		.4byte	0x1b4
 2449 035c 10       		.byte	0x10
 2450 035d 0D       		.uleb128 0xd
 2451 035e 2C020000 		.4byte	0x22c
 2452 0362 14       		.byte	0x14
 2453 0363 0D       		.uleb128 0xd
 2454 0364 A4020000 		.4byte	0x2a4
 2455 0368 18       		.byte	0x18
 2456 0369 0D       		.uleb128 0xd
 2457 036a 1F030000 		.4byte	0x31f
 2458 036e 1C       		.byte	0x1c
 2459 036f 00       		.byte	0
 2460 0370 0E       		.uleb128 0xe
 2461 0371 BC000000 		.4byte	0xbc
 2462 0375 80030000 		.4byte	0x380
 2463 0379 0F       		.uleb128 0xf
 2464 037a C7000000 		.4byte	0xc7
 2465 037e 02       		.byte	0x2
 2466 037f 00       		.byte	0
 2467 0380 10       		.uleb128 0x10
 2468 0381 5B750000 		.4byte	.LASF1020
 2469 0385 04       		.byte	0x4
 2470 0386 0501     		.2byte	0x105
 2471 0388 3D030000 		.4byte	0x33d
 2472 038c 11       		.uleb128 0x11
 2473 038d 38       		.byte	0x38
 2474 038e 04       		.byte	0x4
 2475 038f 0801     		.2byte	0x108
 2476 0391 32040000 		.4byte	0x432
 2477 0395 0C       		.uleb128 0xc
 2478 0396 11700000 		.4byte	.LASF1021
 2479 039a 04       		.byte	0x4
 2480 039b 0A01     		.2byte	0x10a
 2481 039d D8000000 		.4byte	0xd8
 2482 03a1 00       		.byte	0
 2483 03a2 0C       		.uleb128 0xc
 2484 03a3 AF2A0000 		.4byte	.LASF1022
 2485 03a7 04       		.byte	0x4
 2486 03a8 0B01     		.2byte	0x10b
 2487 03aa D8000000 		.4byte	0xd8
 2488 03ae 04       		.byte	0x4
 2489 03af 0C       		.uleb128 0xc
 2490 03b0 2A2A0000 		.4byte	.LASF1023
 2491 03b4 04       		.byte	0x4
 2492 03b5 0C01     		.2byte	0x10c
 2493 03b7 D8000000 		.4byte	0xd8
ARM GAS  C:\Users\STUDENT\AppData\Local\Temp\cc6DO5vW.s 			page 58


 2494 03bb 08       		.byte	0x8
 2495 03bc 0C       		.uleb128 0xc
 2496 03bd 04380000 		.4byte	.LASF1024
 2497 03c1 04       		.byte	0x4
 2498 03c2 0D01     		.2byte	0x10d
 2499 03c4 CE000000 		.4byte	0xce
 2500 03c8 0C       		.byte	0xc
 2501 03c9 0C       		.uleb128 0xc
 2502 03ca 636E0000 		.4byte	.LASF1025
 2503 03ce 04       		.byte	0x4
 2504 03cf 0E01     		.2byte	0x10e
 2505 03d1 CE000000 		.4byte	0xce
 2506 03d5 10       		.byte	0x10
 2507 03d6 0C       		.uleb128 0xc
 2508 03d7 C66D0000 		.4byte	.LASF1026
 2509 03db 04       		.byte	0x4
 2510 03dc 0F01     		.2byte	0x10f
 2511 03de CE000000 		.4byte	0xce
 2512 03e2 14       		.byte	0x14
 2513 03e3 0C       		.uleb128 0xc
 2514 03e4 DD1F0000 		.4byte	.LASF1019
 2515 03e8 04       		.byte	0x4
 2516 03e9 1001     		.2byte	0x110
 2517 03eb 70030000 		.4byte	0x370
 2518 03ef 18       		.byte	0x18
 2519 03f0 0C       		.uleb128 0xc
 2520 03f1 57610000 		.4byte	.LASF1027
 2521 03f5 04       		.byte	0x4
 2522 03f6 1101     		.2byte	0x111
 2523 03f8 D8000000 		.4byte	0xd8
 2524 03fc 24       		.byte	0x24
 2525 03fd 0C       		.uleb128 0xc
 2526 03fe D3600000 		.4byte	.LASF1028
 2527 0402 04       		.byte	0x4
 2528 0403 1201     		.2byte	0x112
 2529 0405 D8000000 		.4byte	0xd8
 2530 0409 28       		.byte	0x28
 2531 040a 0C       		.uleb128 0xc
 2532 040b 20450000 		.4byte	.LASF1029
 2533 040f 04       		.byte	0x4
 2534 0410 1301     		.2byte	0x113
 2535 0412 CE000000 		.4byte	0xce
 2536 0416 2C       		.byte	0x2c
 2537 0417 0C       		.uleb128 0xc
 2538 0418 41780000 		.4byte	.LASF1030
 2539 041c 04       		.byte	0x4
 2540 041d 1401     		.2byte	0x114
 2541 041f CE000000 		.4byte	0xce
 2542 0423 30       		.byte	0x30
 2543 0424 0C       		.uleb128 0xc
 2544 0425 D2770000 		.4byte	.LASF1031
 2545 0429 04       		.byte	0x4
 2546 042a 1501     		.2byte	0x115
 2547 042c CE000000 		.4byte	0xce
 2548 0430 34       		.byte	0x34
 2549 0431 00       		.byte	0
 2550 0432 10       		.uleb128 0x10
ARM GAS  C:\Users\STUDENT\AppData\Local\Temp\cc6DO5vW.s 			page 59


 2551 0433 FD430000 		.4byte	.LASF1032
 2552 0437 04       		.byte	0x4
 2553 0438 1601     		.2byte	0x116
 2554 043a 8C030000 		.4byte	0x38c
 2555 043e 12       		.uleb128 0x12
 2556 043f 01       		.byte	0x1
 2557 0440 3B000000 		.4byte	0x3b
 2558 0444 05       		.byte	0x5
 2559 0445 38       		.byte	0x38
 2560 0446 57040000 		.4byte	0x457
 2561 044a 13       		.uleb128 0x13
 2562 044b 59530000 		.4byte	.LASF1033
 2563 044f 00       		.byte	0
 2564 0450 13       		.uleb128 0x13
 2565 0451 82550000 		.4byte	.LASF1034
 2566 0455 01       		.byte	0x1
 2567 0456 00       		.byte	0
 2568 0457 03       		.uleb128 0x3
 2569 0458 1C590000 		.4byte	.LASF1035
 2570 045c 05       		.byte	0x5
 2571 045d 38       		.byte	0x38
 2572 045e 3E040000 		.4byte	0x43e
 2573 0462 02       		.uleb128 0x2
 2574 0463 01       		.byte	0x1
 2575 0464 08       		.byte	0x8
 2576 0465 86260000 		.4byte	.LASF410
 2577 0469 07       		.uleb128 0x7
 2578 046a 20       		.byte	0x20
 2579 046b 06       		.byte	0x6
 2580 046c 50       		.byte	0x50
 2581 046d BA040000 		.4byte	0x4ba
 2582 0471 08       		.uleb128 0x8
 2583 0472 2D510000 		.4byte	.LASF996
 2584 0476 06       		.byte	0x6
 2585 0477 51       		.byte	0x51
 2586 0478 CA040000 		.4byte	0x4ca
 2587 047c 00       		.byte	0
 2588 047d 08       		.uleb128 0x8
 2589 047e DD1F0000 		.4byte	.LASF1019
 2590 0482 06       		.byte	0x6
 2591 0483 52       		.byte	0x52
 2592 0484 70030000 		.4byte	0x370
 2593 0488 04       		.byte	0x4
 2594 0489 08       		.uleb128 0x8
 2595 048a 00400000 		.4byte	.LASF997
 2596 048e 06       		.byte	0x6
 2597 048f 53       		.byte	0x53
 2598 0490 CF040000 		.4byte	0x4cf
 2599 0494 10       		.byte	0x10
 2600 0495 08       		.uleb128 0x8
 2601 0496 955C0000 		.4byte	.LASF1004
 2602 049a 06       		.byte	0x6
 2603 049b 54       		.byte	0x54
 2604 049c D4040000 		.4byte	0x4d4
 2605 04a0 14       		.byte	0x14
 2606 04a1 08       		.uleb128 0x8
 2607 04a2 B3460000 		.4byte	.LASF1011
ARM GAS  C:\Users\STUDENT\AppData\Local\Temp\cc6DO5vW.s 			page 60


 2608 04a6 06       		.byte	0x6
 2609 04a7 55       		.byte	0x55
 2610 04a8 D9040000 		.4byte	0x4d9
 2611 04ac 18       		.byte	0x18
 2612 04ad 08       		.uleb128 0x8
 2613 04ae E3460000 		.4byte	.LASF1018
 2614 04b2 06       		.byte	0x6
 2615 04b3 56       		.byte	0x56
 2616 04b4 DE040000 		.4byte	0x4de
 2617 04b8 1C       		.byte	0x1c
 2618 04b9 00       		.byte	0
 2619 04ba 0E       		.uleb128 0xe
 2620 04bb D3000000 		.4byte	0xd3
 2621 04bf CA040000 		.4byte	0x4ca
 2622 04c3 0F       		.uleb128 0xf
 2623 04c4 C7000000 		.4byte	0xc7
 2624 04c8 03       		.byte	0x3
 2625 04c9 00       		.byte	0
 2626 04ca 05       		.uleb128 0x5
 2627 04cb BA040000 		.4byte	0x4ba
 2628 04cf 05       		.uleb128 0x5
 2629 04d0 BA040000 		.4byte	0x4ba
 2630 04d4 05       		.uleb128 0x5
 2631 04d5 BA040000 		.4byte	0x4ba
 2632 04d9 05       		.uleb128 0x5
 2633 04da BA040000 		.4byte	0x4ba
 2634 04de 05       		.uleb128 0x5
 2635 04df BA040000 		.4byte	0x4ba
 2636 04e3 03       		.uleb128 0x3
 2637 04e4 911B0000 		.4byte	.LASF1036
 2638 04e8 06       		.byte	0x6
 2639 04e9 57       		.byte	0x57
 2640 04ea 69040000 		.4byte	0x469
 2641 04ee 07       		.uleb128 0x7
 2642 04ef 20       		.byte	0x20
 2643 04f0 06       		.byte	0x6
 2644 04f1 5D       		.byte	0x5d
 2645 04f2 7B050000 		.4byte	0x57b
 2646 04f6 08       		.uleb128 0x8
 2647 04f7 20440000 		.4byte	.LASF984
 2648 04fb 06       		.byte	0x6
 2649 04fc 5E       		.byte	0x5e
 2650 04fd DD000000 		.4byte	0xdd
 2651 0501 00       		.byte	0
 2652 0502 08       		.uleb128 0x8
 2653 0503 CE440000 		.4byte	.LASF1037
 2654 0507 06       		.byte	0x6
 2655 0508 5F       		.byte	0x5f
 2656 0509 DD000000 		.4byte	0xdd
 2657 050d 02       		.byte	0x2
 2658 050e 08       		.uleb128 0x8
 2659 050f DD1F0000 		.4byte	.LASF1019
 2660 0513 06       		.byte	0x6
 2661 0514 60       		.byte	0x60
 2662 0515 70030000 		.4byte	0x370
 2663 0519 04       		.byte	0x4
 2664 051a 08       		.uleb128 0x8
ARM GAS  C:\Users\STUDENT\AppData\Local\Temp\cc6DO5vW.s 			page 61


 2665 051b 5B4E0000 		.4byte	.LASF990
 2666 051f 06       		.byte	0x6
 2667 0520 61       		.byte	0x61
 2668 0521 DD000000 		.4byte	0xdd
 2669 0525 10       		.byte	0x10
 2670 0526 08       		.uleb128 0x8
 2671 0527 CC4E0000 		.4byte	.LASF1038
 2672 052b 06       		.byte	0x6
 2673 052c 62       		.byte	0x62
 2674 052d DD000000 		.4byte	0xdd
 2675 0531 12       		.byte	0x12
 2676 0532 08       		.uleb128 0x8
 2677 0533 053B0000 		.4byte	.LASF998
 2678 0537 06       		.byte	0x6
 2679 0538 63       		.byte	0x63
 2680 0539 DD000000 		.4byte	0xdd
 2681 053d 14       		.byte	0x14
 2682 053e 08       		.uleb128 0x8
 2683 053f 4B3B0000 		.4byte	.LASF1039
 2684 0543 06       		.byte	0x6
 2685 0544 64       		.byte	0x64
 2686 0545 DD000000 		.4byte	0xdd
 2687 0549 16       		.byte	0x16
 2688 054a 08       		.uleb128 0x8
 2689 054b C52D0000 		.4byte	.LASF1005
 2690 054f 06       		.byte	0x6
 2691 0550 65       		.byte	0x65
 2692 0551 DD000000 		.4byte	0xdd
 2693 0555 18       		.byte	0x18
 2694 0556 08       		.uleb128 0x8
 2695 0557 D02E0000 		.4byte	.LASF1040
 2696 055b 06       		.byte	0x6
 2697 055c 66       		.byte	0x66
 2698 055d DD000000 		.4byte	0xdd
 2699 0561 1A       		.byte	0x1a
 2700 0562 08       		.uleb128 0x8
 2701 0563 EF4E0000 		.4byte	.LASF1012
 2702 0567 06       		.byte	0x6
 2703 0568 67       		.byte	0x67
 2704 0569 DD000000 		.4byte	0xdd
 2705 056d 1C       		.byte	0x1c
 2706 056e 08       		.uleb128 0x8
 2707 056f 3A4F0000 		.4byte	.LASF1041
 2708 0573 06       		.byte	0x6
 2709 0574 68       		.byte	0x68
 2710 0575 DD000000 		.4byte	0xdd
 2711 0579 1E       		.byte	0x1e
 2712 057a 00       		.byte	0
 2713 057b 03       		.uleb128 0x3
 2714 057c 710F0000 		.4byte	.LASF1042
 2715 0580 06       		.byte	0x6
 2716 0581 69       		.byte	0x69
 2717 0582 EE040000 		.4byte	0x4ee
 2718 0586 14       		.uleb128 0x14
 2719 0587 CD7A0000 		.4byte	.LASF1043
 2720 058b 01       		.byte	0x1
 2721 058c 34       		.byte	0x34
ARM GAS  C:\Users\STUDENT\AppData\Local\Temp\cc6DO5vW.s 			page 62


 2722 058d BC050000 		.4byte	0x5bc
 2723 0591 00000000 		.4byte	.LFB55
 2724 0595 70000000 		.4byte	.LFE55-.LFB55
 2725 0599 01       		.uleb128 0x1
 2726 059a 9C       		.byte	0x9c
 2727 059b BC050000 		.4byte	0x5bc
 2728 059f 15       		.uleb128 0x15
 2729 05a0 516C0000 		.4byte	.LASF1045
 2730 05a4 01       		.byte	0x1
 2731 05a5 34       		.byte	0x34
 2732 05a6 9B000000 		.4byte	0x9b
 2733 05aa 02       		.uleb128 0x2
 2734 05ab 91       		.byte	0x91
 2735 05ac 6F       		.sleb128 -17
 2736 05ad 16       		.uleb128 0x16
 2737 05ae B9520000 		.4byte	.LASF1046
 2738 05b2 01       		.byte	0x1
 2739 05b3 36       		.byte	0x36
 2740 05b4 BC050000 		.4byte	0x5bc
 2741 05b8 02       		.uleb128 0x2
 2742 05b9 91       		.byte	0x91
 2743 05ba 74       		.sleb128 -12
 2744 05bb 00       		.byte	0
 2745 05bc 17       		.uleb128 0x17
 2746 05bd 04       		.byte	0x4
 2747 05be 80030000 		.4byte	0x380
 2748 05c2 14       		.uleb128 0x14
 2749 05c3 954D0000 		.4byte	.LASF1044
 2750 05c7 01       		.byte	0x1
 2751 05c8 55       		.byte	0x55
 2752 05c9 F8050000 		.4byte	0x5f8
 2753 05cd 00000000 		.4byte	.LFB56
 2754 05d1 70000000 		.4byte	.LFE56-.LFB56
 2755 05d5 01       		.uleb128 0x1
 2756 05d6 9C       		.byte	0x9c
 2757 05d7 F8050000 		.4byte	0x5f8
 2758 05db 15       		.uleb128 0x15
 2759 05dc 516C0000 		.4byte	.LASF1045
 2760 05e0 01       		.byte	0x1
 2761 05e1 55       		.byte	0x55
 2762 05e2 9B000000 		.4byte	0x9b
 2763 05e6 02       		.uleb128 0x2
 2764 05e7 91       		.byte	0x91
 2765 05e8 6F       		.sleb128 -17
 2766 05e9 16       		.uleb128 0x16
 2767 05ea 341A0000 		.4byte	.LASF1047
 2768 05ee 01       		.byte	0x1
 2769 05ef 57       		.byte	0x57
 2770 05f0 F8050000 		.4byte	0x5f8
 2771 05f4 02       		.uleb128 0x2
 2772 05f5 91       		.byte	0x91
 2773 05f6 74       		.sleb128 -12
 2774 05f7 00       		.byte	0
 2775 05f8 17       		.uleb128 0x17
 2776 05f9 04       		.byte	0x4
 2777 05fa 7B050000 		.4byte	0x57b
 2778 05fe 14       		.uleb128 0x14
ARM GAS  C:\Users\STUDENT\AppData\Local\Temp\cc6DO5vW.s 			page 63


 2779 05ff 00470000 		.4byte	.LASF1048
 2780 0603 01       		.byte	0x1
 2781 0604 76       		.byte	0x76
 2782 0605 34060000 		.4byte	0x634
 2783 0609 00000000 		.4byte	.LFB57
 2784 060d 70000000 		.4byte	.LFE57-.LFB57
 2785 0611 01       		.uleb128 0x1
 2786 0612 9C       		.byte	0x9c
 2787 0613 34060000 		.4byte	0x634
 2788 0617 15       		.uleb128 0x15
 2789 0618 516C0000 		.4byte	.LASF1045
 2790 061c 01       		.byte	0x1
 2791 061d 76       		.byte	0x76
 2792 061e 9B000000 		.4byte	0x9b
 2793 0622 02       		.uleb128 0x2
 2794 0623 91       		.byte	0x91
 2795 0624 6F       		.sleb128 -17
 2796 0625 16       		.uleb128 0x16
 2797 0626 341A0000 		.4byte	.LASF1047
 2798 062a 01       		.byte	0x1
 2799 062b 78       		.byte	0x78
 2800 062c 34060000 		.4byte	0x634
 2801 0630 02       		.uleb128 0x2
 2802 0631 91       		.byte	0x91
 2803 0632 74       		.sleb128 -12
 2804 0633 00       		.byte	0
 2805 0634 17       		.uleb128 0x17
 2806 0635 04       		.byte	0x4
 2807 0636 E3040000 		.4byte	0x4e3
 2808 063a 18       		.uleb128 0x18
 2809 063b D3730000 		.4byte	.LASF1050
 2810 063f 01       		.byte	0x1
 2811 0640 AA       		.byte	0xaa
 2812 0641 00000000 		.4byte	.LFB58
 2813 0645 4A000000 		.4byte	.LFE58-.LFB58
 2814 0649 01       		.uleb128 0x1
 2815 064a 9C       		.byte	0x9c
 2816 064b 88060000 		.4byte	0x688
 2817 064f 15       		.uleb128 0x15
 2818 0650 516C0000 		.4byte	.LASF1045
 2819 0654 01       		.byte	0x1
 2820 0655 AA       		.byte	0xaa
 2821 0656 9B000000 		.4byte	0x9b
 2822 065a 02       		.uleb128 0x2
 2823 065b 91       		.byte	0x91
 2824 065c 6F       		.sleb128 -17
 2825 065d 15       		.uleb128 0x15
 2826 065e D3420000 		.4byte	.LASF1049
 2827 0662 01       		.byte	0x1
 2828 0663 AA       		.byte	0xaa
 2829 0664 BC000000 		.4byte	0xbc
 2830 0668 02       		.uleb128 0x2
 2831 0669 91       		.byte	0x91
 2832 066a 68       		.sleb128 -24
 2833 066b 19       		.uleb128 0x19
 2834 066c 64697200 		.ascii	"dir\000"
 2835 0670 01       		.byte	0x1
ARM GAS  C:\Users\STUDENT\AppData\Local\Temp\cc6DO5vW.s 			page 64


 2836 0671 AA       		.byte	0xaa
 2837 0672 9B000000 		.4byte	0x9b
 2838 0676 02       		.uleb128 0x2
 2839 0677 91       		.byte	0x91
 2840 0678 6E       		.sleb128 -18
 2841 0679 16       		.uleb128 0x16
 2842 067a B9520000 		.4byte	.LASF1046
 2843 067e 01       		.byte	0x1
 2844 067f AC       		.byte	0xac
 2845 0680 BC050000 		.4byte	0x5bc
 2846 0684 02       		.uleb128 0x2
 2847 0685 91       		.byte	0x91
 2848 0686 74       		.sleb128 -12
 2849 0687 00       		.byte	0
 2850 0688 18       		.uleb128 0x18
 2851 0689 3A3A0000 		.4byte	.LASF1051
 2852 068d 01       		.byte	0x1
 2853 068e C9       		.byte	0xc9
 2854 068f 00000000 		.4byte	.LFB59
 2855 0693 2A000000 		.4byte	.LFE59-.LFB59
 2856 0697 01       		.uleb128 0x1
 2857 0698 9C       		.byte	0x9c
 2858 0699 C8060000 		.4byte	0x6c8
 2859 069d 15       		.uleb128 0x15
 2860 069e 516C0000 		.4byte	.LASF1045
 2861 06a2 01       		.byte	0x1
 2862 06a3 C9       		.byte	0xc9
 2863 06a4 9B000000 		.4byte	0x9b
 2864 06a8 02       		.uleb128 0x2
 2865 06a9 91       		.byte	0x91
 2866 06aa 6F       		.sleb128 -17
 2867 06ab 15       		.uleb128 0x15
 2868 06ac D3420000 		.4byte	.LASF1049
 2869 06b0 01       		.byte	0x1
 2870 06b1 C9       		.byte	0xc9
 2871 06b2 BC000000 		.4byte	0xbc
 2872 06b6 02       		.uleb128 0x2
 2873 06b7 91       		.byte	0x91
 2874 06b8 68       		.sleb128 -24
 2875 06b9 16       		.uleb128 0x16
 2876 06ba B9520000 		.4byte	.LASF1046
 2877 06be 01       		.byte	0x1
 2878 06bf CB       		.byte	0xcb
 2879 06c0 BC050000 		.4byte	0x5bc
 2880 06c4 02       		.uleb128 0x2
 2881 06c5 91       		.byte	0x91
 2882 06c6 74       		.sleb128 -12
 2883 06c7 00       		.byte	0
 2884 06c8 18       		.uleb128 0x18
 2885 06c9 96000000 		.4byte	.LASF1052
 2886 06cd 01       		.byte	0x1
 2887 06ce E0       		.byte	0xe0
 2888 06cf 00000000 		.4byte	.LFB60
 2889 06d3 2A000000 		.4byte	.LFE60-.LFB60
 2890 06d7 01       		.uleb128 0x1
 2891 06d8 9C       		.byte	0x9c
 2892 06d9 08070000 		.4byte	0x708
ARM GAS  C:\Users\STUDENT\AppData\Local\Temp\cc6DO5vW.s 			page 65


 2893 06dd 15       		.uleb128 0x15
 2894 06de 516C0000 		.4byte	.LASF1045
 2895 06e2 01       		.byte	0x1
 2896 06e3 E0       		.byte	0xe0
 2897 06e4 9B000000 		.4byte	0x9b
 2898 06e8 02       		.uleb128 0x2
 2899 06e9 91       		.byte	0x91
 2900 06ea 6F       		.sleb128 -17
 2901 06eb 15       		.uleb128 0x15
 2902 06ec D3420000 		.4byte	.LASF1049
 2903 06f0 01       		.byte	0x1
 2904 06f1 E0       		.byte	0xe0
 2905 06f2 BC000000 		.4byte	0xbc
 2906 06f6 02       		.uleb128 0x2
 2907 06f7 91       		.byte	0x91
 2908 06f8 68       		.sleb128 -24
 2909 06f9 16       		.uleb128 0x16
 2910 06fa B9520000 		.4byte	.LASF1046
 2911 06fe 01       		.byte	0x1
 2912 06ff E2       		.byte	0xe2
 2913 0700 BC050000 		.4byte	0x5bc
 2914 0704 02       		.uleb128 0x2
 2915 0705 91       		.byte	0x91
 2916 0706 74       		.sleb128 -12
 2917 0707 00       		.byte	0
 2918 0708 1A       		.uleb128 0x1a
 2919 0709 EC690000 		.4byte	.LASF1055
 2920 070d 01       		.byte	0x1
 2921 070e F1       		.byte	0xf1
 2922 070f BC000000 		.4byte	0xbc
 2923 0713 00000000 		.4byte	.LFB61
 2924 0717 2A000000 		.4byte	.LFE61-.LFB61
 2925 071b 01       		.uleb128 0x1
 2926 071c 9C       		.byte	0x9c
 2927 071d 3E070000 		.4byte	0x73e
 2928 0721 15       		.uleb128 0x15
 2929 0722 516C0000 		.4byte	.LASF1045
 2930 0726 01       		.byte	0x1
 2931 0727 F1       		.byte	0xf1
 2932 0728 9B000000 		.4byte	0x9b
 2933 072c 02       		.uleb128 0x2
 2934 072d 91       		.byte	0x91
 2935 072e 6F       		.sleb128 -17
 2936 072f 16       		.uleb128 0x16
 2937 0730 B9520000 		.4byte	.LASF1046
 2938 0734 01       		.byte	0x1
 2939 0735 F3       		.byte	0xf3
 2940 0736 BC050000 		.4byte	0x5bc
 2941 073a 02       		.uleb128 0x2
 2942 073b 91       		.byte	0x91
 2943 073c 74       		.sleb128 -12
 2944 073d 00       		.byte	0
 2945 073e 1B       		.uleb128 0x1b
 2946 073f A32A0000 		.4byte	.LASF1053
 2947 0743 01       		.byte	0x1
 2948 0744 0601     		.2byte	0x106
 2949 0746 00000000 		.4byte	.LFB62
ARM GAS  C:\Users\STUDENT\AppData\Local\Temp\cc6DO5vW.s 			page 66


 2950 074a 88000000 		.4byte	.LFE62-.LFB62
 2951 074e 01       		.uleb128 0x1
 2952 074f 9C       		.byte	0x9c
 2953 0750 82070000 		.4byte	0x782
 2954 0754 1C       		.uleb128 0x1c
 2955 0755 516C0000 		.4byte	.LASF1045
 2956 0759 01       		.byte	0x1
 2957 075a 0601     		.2byte	0x106
 2958 075c 9B000000 		.4byte	0x9b
 2959 0760 02       		.uleb128 0x2
 2960 0761 91       		.byte	0x91
 2961 0762 77       		.sleb128 -9
 2962 0763 1C       		.uleb128 0x1c
 2963 0764 D3420000 		.4byte	.LASF1049
 2964 0768 01       		.byte	0x1
 2965 0769 0601     		.2byte	0x106
 2966 076b BC000000 		.4byte	0xbc
 2967 076f 02       		.uleb128 0x2
 2968 0770 91       		.byte	0x91
 2969 0771 70       		.sleb128 -16
 2970 0772 1C       		.uleb128 0x1c
 2971 0773 0A790000 		.4byte	.LASF1054
 2972 0777 01       		.byte	0x1
 2973 0778 0601     		.2byte	0x106
 2974 077a 9B000000 		.4byte	0x9b
 2975 077e 02       		.uleb128 0x2
 2976 077f 91       		.byte	0x91
 2977 0780 76       		.sleb128 -10
 2978 0781 00       		.byte	0
 2979 0782 1D       		.uleb128 0x1d
 2980 0783 38020000 		.4byte	.LASF1056
 2981 0787 01       		.byte	0x1
 2982 0788 2201     		.2byte	0x122
 2983 078a 57040000 		.4byte	0x457
 2984 078e 00000000 		.4byte	.LFB63
 2985 0792 A0000000 		.4byte	.LFE63-.LFB63
 2986 0796 01       		.uleb128 0x1
 2987 0797 9C       		.byte	0x9c
 2988 0798 CA070000 		.4byte	0x7ca
 2989 079c 1C       		.uleb128 0x1c
 2990 079d 516C0000 		.4byte	.LASF1045
 2991 07a1 01       		.byte	0x1
 2992 07a2 2201     		.2byte	0x122
 2993 07a4 9B000000 		.4byte	0x9b
 2994 07a8 02       		.uleb128 0x2
 2995 07a9 91       		.byte	0x91
 2996 07aa 77       		.sleb128 -9
 2997 07ab 1C       		.uleb128 0x1c
 2998 07ac 166F0000 		.4byte	.LASF1057
 2999 07b0 01       		.byte	0x1
 3000 07b1 2201     		.2byte	0x122
 3001 07b3 BC000000 		.4byte	0xbc
 3002 07b7 02       		.uleb128 0x2
 3003 07b8 91       		.byte	0x91
 3004 07b9 70       		.sleb128 -16
 3005 07ba 1C       		.uleb128 0x1c
 3006 07bb 0A790000 		.4byte	.LASF1054
ARM GAS  C:\Users\STUDENT\AppData\Local\Temp\cc6DO5vW.s 			page 67


 3007 07bf 01       		.byte	0x1
 3008 07c0 2201     		.2byte	0x122
 3009 07c2 9B000000 		.4byte	0x9b
 3010 07c6 02       		.uleb128 0x2
 3011 07c7 91       		.byte	0x91
 3012 07c8 76       		.sleb128 -10
 3013 07c9 00       		.byte	0
 3014 07ca 1B       		.uleb128 0x1b
 3015 07cb 00010000 		.4byte	.LASF1058
 3016 07cf 01       		.byte	0x1
 3017 07d0 3701     		.2byte	0x137
 3018 07d2 00000000 		.4byte	.LFB64
 3019 07d6 38000000 		.4byte	.LFE64-.LFB64
 3020 07da 01       		.uleb128 0x1
 3021 07db 9C       		.byte	0x9c
 3022 07dc FF070000 		.4byte	0x7ff
 3023 07e0 1C       		.uleb128 0x1c
 3024 07e1 516C0000 		.4byte	.LASF1045
 3025 07e5 01       		.byte	0x1
 3026 07e6 3701     		.2byte	0x137
 3027 07e8 9B000000 		.4byte	0x9b
 3028 07ec 02       		.uleb128 0x2
 3029 07ed 91       		.byte	0x91
 3030 07ee 77       		.sleb128 -9
 3031 07ef 1C       		.uleb128 0x1c
 3032 07f0 D3420000 		.4byte	.LASF1049
 3033 07f4 01       		.byte	0x1
 3034 07f5 3701     		.2byte	0x137
 3035 07f7 BC000000 		.4byte	0xbc
 3036 07fb 02       		.uleb128 0x2
 3037 07fc 91       		.byte	0x91
 3038 07fd 70       		.sleb128 -16
 3039 07fe 00       		.byte	0
 3040 07ff 1E       		.uleb128 0x1e
 3041 0800 1B360000 		.4byte	.LASF1059
 3042 0804 01       		.byte	0x1
 3043 0805 4801     		.2byte	0x148
 3044 0807 00000000 		.4byte	.LFB65
 3045 080b 24000000 		.4byte	.LFE65-.LFB65
 3046 080f 01       		.uleb128 0x1
 3047 0810 9C       		.byte	0x9c
 3048 0811 43080000 		.4byte	0x843
 3049 0815 1C       		.uleb128 0x1c
 3050 0816 516C0000 		.4byte	.LASF1045
 3051 081a 01       		.byte	0x1
 3052 081b 4801     		.2byte	0x148
 3053 081d 9B000000 		.4byte	0x9b
 3054 0821 02       		.uleb128 0x2
 3055 0822 91       		.byte	0x91
 3056 0823 77       		.sleb128 -9
 3057 0824 1C       		.uleb128 0x1c
 3058 0825 D3420000 		.4byte	.LASF1049
 3059 0829 01       		.byte	0x1
 3060 082a 4801     		.2byte	0x148
 3061 082c BC000000 		.4byte	0xbc
 3062 0830 02       		.uleb128 0x2
 3063 0831 91       		.byte	0x91
ARM GAS  C:\Users\STUDENT\AppData\Local\Temp\cc6DO5vW.s 			page 68


 3064 0832 70       		.sleb128 -16
 3065 0833 1F       		.uleb128 0x1f
 3066 0834 64697200 		.ascii	"dir\000"
 3067 0838 01       		.byte	0x1
 3068 0839 4801     		.2byte	0x148
 3069 083b 9B000000 		.4byte	0x9b
 3070 083f 02       		.uleb128 0x2
 3071 0840 91       		.byte	0x91
 3072 0841 76       		.sleb128 -10
 3073 0842 00       		.byte	0
 3074 0843 1E       		.uleb128 0x1e
 3075 0844 ED150000 		.4byte	.LASF1060
 3076 0848 01       		.byte	0x1
 3077 0849 5001     		.2byte	0x150
 3078 084b 00000000 		.4byte	.LFB66
 3079 084f 1E000000 		.4byte	.LFE66-.LFB66
 3080 0853 01       		.uleb128 0x1
 3081 0854 9C       		.byte	0x9c
 3082 0855 78080000 		.4byte	0x878
 3083 0859 1C       		.uleb128 0x1c
 3084 085a 516C0000 		.4byte	.LASF1045
 3085 085e 01       		.byte	0x1
 3086 085f 5001     		.2byte	0x150
 3087 0861 9B000000 		.4byte	0x9b
 3088 0865 02       		.uleb128 0x2
 3089 0866 91       		.byte	0x91
 3090 0867 77       		.sleb128 -9
 3091 0868 1C       		.uleb128 0x1c
 3092 0869 D3420000 		.4byte	.LASF1049
 3093 086d 01       		.byte	0x1
 3094 086e 5001     		.2byte	0x150
 3095 0870 BC000000 		.4byte	0xbc
 3096 0874 02       		.uleb128 0x2
 3097 0875 91       		.byte	0x91
 3098 0876 70       		.sleb128 -16
 3099 0877 00       		.byte	0
 3100 0878 1E       		.uleb128 0x1e
 3101 0879 0C360000 		.4byte	.LASF1061
 3102 087d 01       		.byte	0x1
 3103 087e 5801     		.2byte	0x158
 3104 0880 00000000 		.4byte	.LFB67
 3105 0884 1E000000 		.4byte	.LFE67-.LFB67
 3106 0888 01       		.uleb128 0x1
 3107 0889 9C       		.byte	0x9c
 3108 088a AD080000 		.4byte	0x8ad
 3109 088e 1C       		.uleb128 0x1c
 3110 088f 516C0000 		.4byte	.LASF1045
 3111 0893 01       		.byte	0x1
 3112 0894 5801     		.2byte	0x158
 3113 0896 9B000000 		.4byte	0x9b
 3114 089a 02       		.uleb128 0x2
 3115 089b 91       		.byte	0x91
 3116 089c 77       		.sleb128 -9
 3117 089d 1C       		.uleb128 0x1c
 3118 089e D3420000 		.4byte	.LASF1049
 3119 08a2 01       		.byte	0x1
 3120 08a3 5801     		.2byte	0x158
ARM GAS  C:\Users\STUDENT\AppData\Local\Temp\cc6DO5vW.s 			page 69


 3121 08a5 BC000000 		.4byte	0xbc
 3122 08a9 02       		.uleb128 0x2
 3123 08aa 91       		.byte	0x91
 3124 08ab 70       		.sleb128 -16
 3125 08ac 00       		.byte	0
 3126 08ad 20       		.uleb128 0x20
 3127 08ae 34180000 		.4byte	.LASF1062
 3128 08b2 01       		.byte	0x1
 3129 08b3 6001     		.2byte	0x160
 3130 08b5 BC000000 		.4byte	0xbc
 3131 08b9 00000000 		.4byte	.LFB68
 3132 08bd 1C000000 		.4byte	.LFE68-.LFB68
 3133 08c1 01       		.uleb128 0x1
 3134 08c2 9C       		.byte	0x9c
 3135 08c3 D7080000 		.4byte	0x8d7
 3136 08c7 1C       		.uleb128 0x1c
 3137 08c8 516C0000 		.4byte	.LASF1045
 3138 08cc 01       		.byte	0x1
 3139 08cd 6001     		.2byte	0x160
 3140 08cf 9B000000 		.4byte	0x9b
 3141 08d3 02       		.uleb128 0x2
 3142 08d4 91       		.byte	0x91
 3143 08d5 77       		.sleb128 -9
 3144 08d6 00       		.byte	0
 3145 08d7 1E       		.uleb128 0x1e
 3146 08d8 02410000 		.4byte	.LASF1063
 3147 08dc 01       		.byte	0x1
 3148 08dd 6801     		.2byte	0x168
 3149 08df 00000000 		.4byte	.LFB69
 3150 08e3 24000000 		.4byte	.LFE69-.LFB69
 3151 08e7 01       		.uleb128 0x1
 3152 08e8 9C       		.byte	0x9c
 3153 08e9 1B090000 		.4byte	0x91b
 3154 08ed 1C       		.uleb128 0x1c
 3155 08ee 516C0000 		.4byte	.LASF1045
 3156 08f2 01       		.byte	0x1
 3157 08f3 6801     		.2byte	0x168
 3158 08f5 9B000000 		.4byte	0x9b
 3159 08f9 02       		.uleb128 0x2
 3160 08fa 91       		.byte	0x91
 3161 08fb 77       		.sleb128 -9
 3162 08fc 1C       		.uleb128 0x1c
 3163 08fd D3420000 		.4byte	.LASF1049
 3164 0901 01       		.byte	0x1
 3165 0902 6801     		.2byte	0x168
 3166 0904 BC000000 		.4byte	0xbc
 3167 0908 02       		.uleb128 0x2
 3168 0909 91       		.byte	0x91
 3169 090a 70       		.sleb128 -16
 3170 090b 1C       		.uleb128 0x1c
 3171 090c 0A790000 		.4byte	.LASF1054
 3172 0910 01       		.byte	0x1
 3173 0911 6801     		.2byte	0x168
 3174 0913 9B000000 		.4byte	0x9b
 3175 0917 02       		.uleb128 0x2
 3176 0918 91       		.byte	0x91
 3177 0919 76       		.sleb128 -10
ARM GAS  C:\Users\STUDENT\AppData\Local\Temp\cc6DO5vW.s 			page 70


 3178 091a 00       		.byte	0
 3179 091b 20       		.uleb128 0x20
 3180 091c A4750000 		.4byte	.LASF1064
 3181 0920 01       		.byte	0x1
 3182 0921 7001     		.2byte	0x170
 3183 0923 57040000 		.4byte	0x457
 3184 0927 00000000 		.4byte	.LFB70
 3185 092b 26000000 		.4byte	.LFE70-.LFB70
 3186 092f 01       		.uleb128 0x1
 3187 0930 9C       		.byte	0x9c
 3188 0931 63090000 		.4byte	0x963
 3189 0935 1C       		.uleb128 0x1c
 3190 0936 516C0000 		.4byte	.LASF1045
 3191 093a 01       		.byte	0x1
 3192 093b 7001     		.2byte	0x170
 3193 093d 9B000000 		.4byte	0x9b
 3194 0941 02       		.uleb128 0x2
 3195 0942 91       		.byte	0x91
 3196 0943 77       		.sleb128 -9
 3197 0944 1C       		.uleb128 0x1c
 3198 0945 166F0000 		.4byte	.LASF1057
 3199 0949 01       		.byte	0x1
 3200 094a 7001     		.2byte	0x170
 3201 094c BC000000 		.4byte	0xbc
 3202 0950 02       		.uleb128 0x2
 3203 0951 91       		.byte	0x91
 3204 0952 70       		.sleb128 -16
 3205 0953 1C       		.uleb128 0x1c
 3206 0954 0A790000 		.4byte	.LASF1054
 3207 0958 01       		.byte	0x1
 3208 0959 7001     		.2byte	0x170
 3209 095b 9B000000 		.4byte	0x9b
 3210 095f 02       		.uleb128 0x2
 3211 0960 91       		.byte	0x91
 3212 0961 76       		.sleb128 -10
 3213 0962 00       		.byte	0
 3214 0963 1E       		.uleb128 0x1e
 3215 0964 C8000000 		.4byte	.LASF1065
 3216 0968 01       		.byte	0x1
 3217 0969 7801     		.2byte	0x178
 3218 096b 00000000 		.4byte	.LFB71
 3219 096f 1E000000 		.4byte	.LFE71-.LFB71
 3220 0973 01       		.uleb128 0x1
 3221 0974 9C       		.byte	0x9c
 3222 0975 98090000 		.4byte	0x998
 3223 0979 1C       		.uleb128 0x1c
 3224 097a 516C0000 		.4byte	.LASF1045
 3225 097e 01       		.byte	0x1
 3226 097f 7801     		.2byte	0x178
 3227 0981 9B000000 		.4byte	0x9b
 3228 0985 02       		.uleb128 0x2
 3229 0986 91       		.byte	0x91
 3230 0987 77       		.sleb128 -9
 3231 0988 1C       		.uleb128 0x1c
 3232 0989 D3420000 		.4byte	.LASF1049
 3233 098d 01       		.byte	0x1
 3234 098e 7801     		.2byte	0x178
ARM GAS  C:\Users\STUDENT\AppData\Local\Temp\cc6DO5vW.s 			page 71


 3235 0990 BC000000 		.4byte	0xbc
 3236 0994 02       		.uleb128 0x2
 3237 0995 91       		.byte	0x91
 3238 0996 70       		.sleb128 -16
 3239 0997 00       		.byte	0
 3240 0998 1E       		.uleb128 0x1e
 3241 0999 194F0000 		.4byte	.LASF1066
 3242 099d 01       		.byte	0x1
 3243 099e 8E01     		.2byte	0x18e
 3244 09a0 00000000 		.4byte	.LFB72
 3245 09a4 4A000000 		.4byte	.LFE72-.LFB72
 3246 09a8 01       		.uleb128 0x1
 3247 09a9 9C       		.byte	0x9c
 3248 09aa EB090000 		.4byte	0x9eb
 3249 09ae 1C       		.uleb128 0x1c
 3250 09af 516C0000 		.4byte	.LASF1045
 3251 09b3 01       		.byte	0x1
 3252 09b4 8E01     		.2byte	0x18e
 3253 09b6 9B000000 		.4byte	0x9b
 3254 09ba 02       		.uleb128 0x2
 3255 09bb 91       		.byte	0x91
 3256 09bc 6F       		.sleb128 -17
 3257 09bd 1C       		.uleb128 0x1c
 3258 09be D3420000 		.4byte	.LASF1049
 3259 09c2 01       		.byte	0x1
 3260 09c3 8E01     		.2byte	0x18e
 3261 09c5 BC000000 		.4byte	0xbc
 3262 09c9 02       		.uleb128 0x2
 3263 09ca 91       		.byte	0x91
 3264 09cb 68       		.sleb128 -24
 3265 09cc 1C       		.uleb128 0x1c
 3266 09cd 7C260000 		.4byte	.LASF1067
 3267 09d1 01       		.byte	0x1
 3268 09d2 8E01     		.2byte	0x18e
 3269 09d4 9B000000 		.4byte	0x9b
 3270 09d8 02       		.uleb128 0x2
 3271 09d9 91       		.byte	0x91
 3272 09da 6E       		.sleb128 -18
 3273 09db 21       		.uleb128 0x21
 3274 09dc 341A0000 		.4byte	.LASF1047
 3275 09e0 01       		.byte	0x1
 3276 09e1 9001     		.2byte	0x190
 3277 09e3 BC050000 		.4byte	0x5bc
 3278 09e7 02       		.uleb128 0x2
 3279 09e8 91       		.byte	0x91
 3280 09e9 74       		.sleb128 -12
 3281 09ea 00       		.byte	0
 3282 09eb 1E       		.uleb128 0x1e
 3283 09ec E7090000 		.4byte	.LASF1068
 3284 09f0 01       		.byte	0x1
 3285 09f1 AE01     		.2byte	0x1ae
 3286 09f3 00000000 		.4byte	.LFB73
 3287 09f7 A2000000 		.4byte	.LFE73-.LFB73
 3288 09fb 01       		.uleb128 0x1
 3289 09fc 9C       		.byte	0x9c
 3290 09fd 4D0A0000 		.4byte	0xa4d
 3291 0a01 1C       		.uleb128 0x1c
ARM GAS  C:\Users\STUDENT\AppData\Local\Temp\cc6DO5vW.s 			page 72


 3292 0a02 516C0000 		.4byte	.LASF1045
 3293 0a06 01       		.byte	0x1
 3294 0a07 AE01     		.2byte	0x1ae
 3295 0a09 9B000000 		.4byte	0x9b
 3296 0a0d 02       		.uleb128 0x2
 3297 0a0e 91       		.byte	0x91
 3298 0a0f 67       		.sleb128 -25
 3299 0a10 1C       		.uleb128 0x1c
 3300 0a11 483A0000 		.4byte	.LASF1069
 3301 0a15 01       		.byte	0x1
 3302 0a16 AE01     		.2byte	0x1ae
 3303 0a18 9B000000 		.4byte	0x9b
 3304 0a1c 02       		.uleb128 0x2
 3305 0a1d 91       		.byte	0x91
 3306 0a1e 66       		.sleb128 -26
 3307 0a1f 1C       		.uleb128 0x1c
 3308 0a20 D3420000 		.4byte	.LASF1049
 3309 0a24 01       		.byte	0x1
 3310 0a25 AE01     		.2byte	0x1ae
 3311 0a27 A6000000 		.4byte	0xa6
 3312 0a2b 02       		.uleb128 0x2
 3313 0a2c 91       		.byte	0x91
 3314 0a2d 64       		.sleb128 -28
 3315 0a2e 1F       		.uleb128 0x1f
 3316 0a2f 64697200 		.ascii	"dir\000"
 3317 0a33 01       		.byte	0x1
 3318 0a34 AE01     		.2byte	0x1ae
 3319 0a36 9B000000 		.4byte	0x9b
 3320 0a3a 02       		.uleb128 0x2
 3321 0a3b 91       		.byte	0x91
 3322 0a3c 63       		.sleb128 -29
 3323 0a3d 21       		.uleb128 0x21
 3324 0a3e 341A0000 		.4byte	.LASF1047
 3325 0a42 01       		.byte	0x1
 3326 0a43 B001     		.2byte	0x1b0
 3327 0a45 F8050000 		.4byte	0x5f8
 3328 0a49 02       		.uleb128 0x2
 3329 0a4a 91       		.byte	0x91
 3330 0a4b 6C       		.sleb128 -20
 3331 0a4c 00       		.byte	0
 3332 0a4d 1E       		.uleb128 0x1e
 3333 0a4e 947C0000 		.4byte	.LASF1070
 3334 0a52 01       		.byte	0x1
 3335 0a53 DF01     		.2byte	0x1df
 3336 0a55 00000000 		.4byte	.LFB74
 3337 0a59 A2000000 		.4byte	.LFE74-.LFB74
 3338 0a5d 01       		.uleb128 0x1
 3339 0a5e 9C       		.byte	0x9c
 3340 0a5f AF0A0000 		.4byte	0xaaf
 3341 0a63 1C       		.uleb128 0x1c
 3342 0a64 516C0000 		.4byte	.LASF1045
 3343 0a68 01       		.byte	0x1
 3344 0a69 DF01     		.2byte	0x1df
 3345 0a6b 9B000000 		.4byte	0x9b
 3346 0a6f 02       		.uleb128 0x2
 3347 0a70 91       		.byte	0x91
 3348 0a71 67       		.sleb128 -25
ARM GAS  C:\Users\STUDENT\AppData\Local\Temp\cc6DO5vW.s 			page 73


 3349 0a72 1C       		.uleb128 0x1c
 3350 0a73 483A0000 		.4byte	.LASF1069
 3351 0a77 01       		.byte	0x1
 3352 0a78 DF01     		.2byte	0x1df
 3353 0a7a 9B000000 		.4byte	0x9b
 3354 0a7e 02       		.uleb128 0x2
 3355 0a7f 91       		.byte	0x91
 3356 0a80 66       		.sleb128 -26
 3357 0a81 1C       		.uleb128 0x1c
 3358 0a82 D3420000 		.4byte	.LASF1049
 3359 0a86 01       		.byte	0x1
 3360 0a87 DF01     		.2byte	0x1df
 3361 0a89 A6000000 		.4byte	0xa6
 3362 0a8d 02       		.uleb128 0x2
 3363 0a8e 91       		.byte	0x91
 3364 0a8f 64       		.sleb128 -28
 3365 0a90 1C       		.uleb128 0x1c
 3366 0a91 7C260000 		.4byte	.LASF1067
 3367 0a95 01       		.byte	0x1
 3368 0a96 DF01     		.2byte	0x1df
 3369 0a98 9B000000 		.4byte	0x9b
 3370 0a9c 02       		.uleb128 0x2
 3371 0a9d 91       		.byte	0x91
 3372 0a9e 63       		.sleb128 -29
 3373 0a9f 21       		.uleb128 0x21
 3374 0aa0 341A0000 		.4byte	.LASF1047
 3375 0aa4 01       		.byte	0x1
 3376 0aa5 E101     		.2byte	0x1e1
 3377 0aa7 F8050000 		.4byte	0x5f8
 3378 0aab 02       		.uleb128 0x2
 3379 0aac 91       		.byte	0x91
 3380 0aad 6C       		.sleb128 -20
 3381 0aae 00       		.byte	0
 3382 0aaf 1E       		.uleb128 0x1e
 3383 0ab0 12540000 		.4byte	.LASF1071
 3384 0ab4 01       		.byte	0x1
 3385 0ab5 0B02     		.2byte	0x20b
 3386 0ab7 00000000 		.4byte	.LFB75
 3387 0abb 3E000000 		.4byte	.LFE75-.LFB75
 3388 0abf 01       		.uleb128 0x1
 3389 0ac0 9C       		.byte	0x9c
 3390 0ac1 020B0000 		.4byte	0xb02
 3391 0ac5 1C       		.uleb128 0x1c
 3392 0ac6 516C0000 		.4byte	.LASF1045
 3393 0aca 01       		.byte	0x1
 3394 0acb 0B02     		.2byte	0x20b
 3395 0acd 9B000000 		.4byte	0x9b
 3396 0ad1 02       		.uleb128 0x2
 3397 0ad2 91       		.byte	0x91
 3398 0ad3 6F       		.sleb128 -17
 3399 0ad4 1C       		.uleb128 0x1c
 3400 0ad5 483A0000 		.4byte	.LASF1069
 3401 0ad9 01       		.byte	0x1
 3402 0ada 0B02     		.2byte	0x20b
 3403 0adc 9B000000 		.4byte	0x9b
 3404 0ae0 02       		.uleb128 0x2
 3405 0ae1 91       		.byte	0x91
ARM GAS  C:\Users\STUDENT\AppData\Local\Temp\cc6DO5vW.s 			page 74


 3406 0ae2 6E       		.sleb128 -18
 3407 0ae3 1C       		.uleb128 0x1c
 3408 0ae4 D3420000 		.4byte	.LASF1049
 3409 0ae8 01       		.byte	0x1
 3410 0ae9 0B02     		.2byte	0x20b
 3411 0aeb A6000000 		.4byte	0xa6
 3412 0aef 02       		.uleb128 0x2
 3413 0af0 91       		.byte	0x91
 3414 0af1 6C       		.sleb128 -20
 3415 0af2 21       		.uleb128 0x21
 3416 0af3 341A0000 		.4byte	.LASF1047
 3417 0af7 01       		.byte	0x1
 3418 0af8 0D02     		.2byte	0x20d
 3419 0afa F8050000 		.4byte	0x5f8
 3420 0afe 02       		.uleb128 0x2
 3421 0aff 91       		.byte	0x91
 3422 0b00 74       		.sleb128 -12
 3423 0b01 00       		.byte	0
 3424 0b02 1E       		.uleb128 0x1e
 3425 0b03 A1270000 		.4byte	.LASF1072
 3426 0b07 01       		.byte	0x1
 3427 0b08 2902     		.2byte	0x229
 3428 0b0a 00000000 		.4byte	.LFB76
 3429 0b0e 3E000000 		.4byte	.LFE76-.LFB76
 3430 0b12 01       		.uleb128 0x1
 3431 0b13 9C       		.byte	0x9c
 3432 0b14 550B0000 		.4byte	0xb55
 3433 0b18 1C       		.uleb128 0x1c
 3434 0b19 516C0000 		.4byte	.LASF1045
 3435 0b1d 01       		.byte	0x1
 3436 0b1e 2902     		.2byte	0x229
 3437 0b20 9B000000 		.4byte	0x9b
 3438 0b24 02       		.uleb128 0x2
 3439 0b25 91       		.byte	0x91
 3440 0b26 6F       		.sleb128 -17
 3441 0b27 1C       		.uleb128 0x1c
 3442 0b28 483A0000 		.4byte	.LASF1069
 3443 0b2c 01       		.byte	0x1
 3444 0b2d 2902     		.2byte	0x229
 3445 0b2f 9B000000 		.4byte	0x9b
 3446 0b33 02       		.uleb128 0x2
 3447 0b34 91       		.byte	0x91
 3448 0b35 6E       		.sleb128 -18
 3449 0b36 1C       		.uleb128 0x1c
 3450 0b37 D3420000 		.4byte	.LASF1049
 3451 0b3b 01       		.byte	0x1
 3452 0b3c 2902     		.2byte	0x229
 3453 0b3e A6000000 		.4byte	0xa6
 3454 0b42 02       		.uleb128 0x2
 3455 0b43 91       		.byte	0x91
 3456 0b44 6C       		.sleb128 -20
 3457 0b45 21       		.uleb128 0x21
 3458 0b46 341A0000 		.4byte	.LASF1047
 3459 0b4a 01       		.byte	0x1
 3460 0b4b 2B02     		.2byte	0x22b
 3461 0b4d F8050000 		.4byte	0x5f8
 3462 0b51 02       		.uleb128 0x2
ARM GAS  C:\Users\STUDENT\AppData\Local\Temp\cc6DO5vW.s 			page 75


 3463 0b52 91       		.byte	0x91
 3464 0b53 74       		.sleb128 -12
 3465 0b54 00       		.byte	0
 3466 0b55 20       		.uleb128 0x20
 3467 0b56 01760000 		.4byte	.LASF1073
 3468 0b5a 01       		.byte	0x1
 3469 0b5b 4202     		.2byte	0x242
 3470 0b5d A6000000 		.4byte	0xa6
 3471 0b61 00000000 		.4byte	.LFB77
 3472 0b65 40000000 		.4byte	.LFE77-.LFB77
 3473 0b69 01       		.uleb128 0x1
 3474 0b6a 9C       		.byte	0x9c
 3475 0b6b 9D0B0000 		.4byte	0xb9d
 3476 0b6f 1C       		.uleb128 0x1c
 3477 0b70 516C0000 		.4byte	.LASF1045
 3478 0b74 01       		.byte	0x1
 3479 0b75 4202     		.2byte	0x242
 3480 0b77 9B000000 		.4byte	0x9b
 3481 0b7b 02       		.uleb128 0x2
 3482 0b7c 91       		.byte	0x91
 3483 0b7d 6F       		.sleb128 -17
 3484 0b7e 1C       		.uleb128 0x1c
 3485 0b7f 483A0000 		.4byte	.LASF1069
 3486 0b83 01       		.byte	0x1
 3487 0b84 4202     		.2byte	0x242
 3488 0b86 9B000000 		.4byte	0x9b
 3489 0b8a 02       		.uleb128 0x2
 3490 0b8b 91       		.byte	0x91
 3491 0b8c 6E       		.sleb128 -18
 3492 0b8d 21       		.uleb128 0x21
 3493 0b8e 341A0000 		.4byte	.LASF1047
 3494 0b92 01       		.byte	0x1
 3495 0b93 4402     		.2byte	0x244
 3496 0b95 F8050000 		.4byte	0x5f8
 3497 0b99 02       		.uleb128 0x2
 3498 0b9a 91       		.byte	0x91
 3499 0b9b 74       		.sleb128 -12
 3500 0b9c 00       		.byte	0
 3501 0b9d 1E       		.uleb128 0x1e
 3502 0b9e 4A020000 		.4byte	.LASF1074
 3503 0ba2 01       		.byte	0x1
 3504 0ba3 6302     		.2byte	0x263
 3505 0ba5 00000000 		.4byte	.LFB78
 3506 0ba9 7C000000 		.4byte	.LFE78-.LFB78
 3507 0bad 01       		.uleb128 0x1
 3508 0bae 9C       		.byte	0x9c
 3509 0baf FF0B0000 		.4byte	0xbff
 3510 0bb3 1C       		.uleb128 0x1c
 3511 0bb4 516C0000 		.4byte	.LASF1045
 3512 0bb8 01       		.byte	0x1
 3513 0bb9 6302     		.2byte	0x263
 3514 0bbb 9B000000 		.4byte	0x9b
 3515 0bbf 02       		.uleb128 0x2
 3516 0bc0 91       		.byte	0x91
 3517 0bc1 67       		.sleb128 -25
 3518 0bc2 1C       		.uleb128 0x1c
 3519 0bc3 FA080000 		.4byte	.LASF1075
ARM GAS  C:\Users\STUDENT\AppData\Local\Temp\cc6DO5vW.s 			page 76


 3520 0bc7 01       		.byte	0x1
 3521 0bc8 6302     		.2byte	0x263
 3522 0bca 9B000000 		.4byte	0x9b
 3523 0bce 02       		.uleb128 0x2
 3524 0bcf 91       		.byte	0x91
 3525 0bd0 66       		.sleb128 -26
 3526 0bd1 1C       		.uleb128 0x1c
 3527 0bd2 D3420000 		.4byte	.LASF1049
 3528 0bd6 01       		.byte	0x1
 3529 0bd7 6302     		.2byte	0x263
 3530 0bd9 9B000000 		.4byte	0x9b
 3531 0bdd 02       		.uleb128 0x2
 3532 0bde 91       		.byte	0x91
 3533 0bdf 65       		.sleb128 -27
 3534 0be0 1F       		.uleb128 0x1f
 3535 0be1 64697200 		.ascii	"dir\000"
 3536 0be5 01       		.byte	0x1
 3537 0be6 6302     		.2byte	0x263
 3538 0be8 9B000000 		.4byte	0x9b
 3539 0bec 02       		.uleb128 0x2
 3540 0bed 91       		.byte	0x91
 3541 0bee 64       		.sleb128 -28
 3542 0bef 21       		.uleb128 0x21
 3543 0bf0 341A0000 		.4byte	.LASF1047
 3544 0bf4 01       		.byte	0x1
 3545 0bf5 6502     		.2byte	0x265
 3546 0bf7 34060000 		.4byte	0x634
 3547 0bfb 02       		.uleb128 0x2
 3548 0bfc 91       		.byte	0x91
 3549 0bfd 6C       		.sleb128 -20
 3550 0bfe 00       		.byte	0
 3551 0bff 1E       		.uleb128 0x1e
 3552 0c00 AC4D0000 		.4byte	.LASF1076
 3553 0c04 01       		.byte	0x1
 3554 0c05 8902     		.2byte	0x289
 3555 0c07 00000000 		.4byte	.LFB79
 3556 0c0b 88000000 		.4byte	.LFE79-.LFB79
 3557 0c0f 01       		.uleb128 0x1
 3558 0c10 9C       		.byte	0x9c
 3559 0c11 610C0000 		.4byte	0xc61
 3560 0c15 1C       		.uleb128 0x1c
 3561 0c16 516C0000 		.4byte	.LASF1045
 3562 0c1a 01       		.byte	0x1
 3563 0c1b 8902     		.2byte	0x289
 3564 0c1d 9B000000 		.4byte	0x9b
 3565 0c21 02       		.uleb128 0x2
 3566 0c22 91       		.byte	0x91
 3567 0c23 67       		.sleb128 -25
 3568 0c24 1C       		.uleb128 0x1c
 3569 0c25 FA080000 		.4byte	.LASF1075
 3570 0c29 01       		.byte	0x1
 3571 0c2a 8902     		.2byte	0x289
 3572 0c2c 9B000000 		.4byte	0x9b
 3573 0c30 02       		.uleb128 0x2
 3574 0c31 91       		.byte	0x91
 3575 0c32 66       		.sleb128 -26
 3576 0c33 1C       		.uleb128 0x1c
ARM GAS  C:\Users\STUDENT\AppData\Local\Temp\cc6DO5vW.s 			page 77


 3577 0c34 D3420000 		.4byte	.LASF1049
 3578 0c38 01       		.byte	0x1
 3579 0c39 8902     		.2byte	0x289
 3580 0c3b 9B000000 		.4byte	0x9b
 3581 0c3f 02       		.uleb128 0x2
 3582 0c40 91       		.byte	0x91
 3583 0c41 65       		.sleb128 -27
 3584 0c42 1C       		.uleb128 0x1c
 3585 0c43 7C260000 		.4byte	.LASF1067
 3586 0c47 01       		.byte	0x1
 3587 0c48 8902     		.2byte	0x289
 3588 0c4a 9B000000 		.4byte	0x9b
 3589 0c4e 02       		.uleb128 0x2
 3590 0c4f 91       		.byte	0x91
 3591 0c50 64       		.sleb128 -28
 3592 0c51 21       		.uleb128 0x21
 3593 0c52 341A0000 		.4byte	.LASF1047
 3594 0c56 01       		.byte	0x1
 3595 0c57 8B02     		.2byte	0x28b
 3596 0c59 34060000 		.4byte	0x634
 3597 0c5d 02       		.uleb128 0x2
 3598 0c5e 91       		.byte	0x91
 3599 0c5f 6C       		.sleb128 -20
 3600 0c60 00       		.byte	0
 3601 0c61 1E       		.uleb128 0x1e
 3602 0c62 0D1B0000 		.4byte	.LASF1077
 3603 0c66 01       		.byte	0x1
 3604 0c67 AB02     		.2byte	0x2ab
 3605 0c69 00000000 		.4byte	.LFB80
 3606 0c6d 3A000000 		.4byte	.LFE80-.LFB80
 3607 0c71 01       		.uleb128 0x1
 3608 0c72 9C       		.byte	0x9c
 3609 0c73 B40C0000 		.4byte	0xcb4
 3610 0c77 1C       		.uleb128 0x1c
 3611 0c78 516C0000 		.4byte	.LASF1045
 3612 0c7c 01       		.byte	0x1
 3613 0c7d AB02     		.2byte	0x2ab
 3614 0c7f 9B000000 		.4byte	0x9b
 3615 0c83 02       		.uleb128 0x2
 3616 0c84 91       		.byte	0x91
 3617 0c85 6F       		.sleb128 -17
 3618 0c86 1C       		.uleb128 0x1c
 3619 0c87 FA080000 		.4byte	.LASF1075
 3620 0c8b 01       		.byte	0x1
 3621 0c8c AB02     		.2byte	0x2ab
 3622 0c8e 9B000000 		.4byte	0x9b
 3623 0c92 02       		.uleb128 0x2
 3624 0c93 91       		.byte	0x91
 3625 0c94 6E       		.sleb128 -18
 3626 0c95 1C       		.uleb128 0x1c
 3627 0c96 D3420000 		.4byte	.LASF1049
 3628 0c9a 01       		.byte	0x1
 3629 0c9b AB02     		.2byte	0x2ab
 3630 0c9d 9B000000 		.4byte	0x9b
 3631 0ca1 02       		.uleb128 0x2
 3632 0ca2 91       		.byte	0x91
 3633 0ca3 6D       		.sleb128 -19
ARM GAS  C:\Users\STUDENT\AppData\Local\Temp\cc6DO5vW.s 			page 78


 3634 0ca4 21       		.uleb128 0x21
 3635 0ca5 341A0000 		.4byte	.LASF1047
 3636 0ca9 01       		.byte	0x1
 3637 0caa AD02     		.2byte	0x2ad
 3638 0cac 34060000 		.4byte	0x634
 3639 0cb0 02       		.uleb128 0x2
 3640 0cb1 91       		.byte	0x91
 3641 0cb2 74       		.sleb128 -12
 3642 0cb3 00       		.byte	0
 3643 0cb4 1E       		.uleb128 0x1e
 3644 0cb5 B31F0000 		.4byte	.LASF1078
 3645 0cb9 01       		.byte	0x1
 3646 0cba C402     		.2byte	0x2c4
 3647 0cbc 00000000 		.4byte	.LFB81
 3648 0cc0 3A000000 		.4byte	.LFE81-.LFB81
 3649 0cc4 01       		.uleb128 0x1
 3650 0cc5 9C       		.byte	0x9c
 3651 0cc6 070D0000 		.4byte	0xd07
 3652 0cca 1C       		.uleb128 0x1c
 3653 0ccb 516C0000 		.4byte	.LASF1045
 3654 0ccf 01       		.byte	0x1
 3655 0cd0 C402     		.2byte	0x2c4
 3656 0cd2 9B000000 		.4byte	0x9b
 3657 0cd6 02       		.uleb128 0x2
 3658 0cd7 91       		.byte	0x91
 3659 0cd8 6F       		.sleb128 -17
 3660 0cd9 1C       		.uleb128 0x1c
 3661 0cda FA080000 		.4byte	.LASF1075
 3662 0cde 01       		.byte	0x1
 3663 0cdf C402     		.2byte	0x2c4
 3664 0ce1 9B000000 		.4byte	0x9b
 3665 0ce5 02       		.uleb128 0x2
 3666 0ce6 91       		.byte	0x91
 3667 0ce7 6E       		.sleb128 -18
 3668 0ce8 1C       		.uleb128 0x1c
 3669 0ce9 D3420000 		.4byte	.LASF1049
 3670 0ced 01       		.byte	0x1
 3671 0cee C402     		.2byte	0x2c4
 3672 0cf0 9B000000 		.4byte	0x9b
 3673 0cf4 02       		.uleb128 0x2
 3674 0cf5 91       		.byte	0x91
 3675 0cf6 6D       		.sleb128 -19
 3676 0cf7 21       		.uleb128 0x21
 3677 0cf8 341A0000 		.4byte	.LASF1047
 3678 0cfc 01       		.byte	0x1
 3679 0cfd C602     		.2byte	0x2c6
 3680 0cff 34060000 		.4byte	0x634
 3681 0d03 02       		.uleb128 0x2
 3682 0d04 91       		.byte	0x91
 3683 0d05 74       		.sleb128 -12
 3684 0d06 00       		.byte	0
 3685 0d07 20       		.uleb128 0x20
 3686 0d08 62660000 		.4byte	.LASF1079
 3687 0d0c 01       		.byte	0x1
 3688 0d0d D802     		.2byte	0x2d8
 3689 0d0f 9B000000 		.4byte	0x9b
 3690 0d13 00000000 		.4byte	.LFB82
ARM GAS  C:\Users\STUDENT\AppData\Local\Temp\cc6DO5vW.s 			page 79


 3691 0d17 3C000000 		.4byte	.LFE82-.LFB82
 3692 0d1b 01       		.uleb128 0x1
 3693 0d1c 9C       		.byte	0x9c
 3694 0d1d 4F0D0000 		.4byte	0xd4f
 3695 0d21 1C       		.uleb128 0x1c
 3696 0d22 516C0000 		.4byte	.LASF1045
 3697 0d26 01       		.byte	0x1
 3698 0d27 D802     		.2byte	0x2d8
 3699 0d29 9B000000 		.4byte	0x9b
 3700 0d2d 02       		.uleb128 0x2
 3701 0d2e 91       		.byte	0x91
 3702 0d2f 6F       		.sleb128 -17
 3703 0d30 1C       		.uleb128 0x1c
 3704 0d31 FA080000 		.4byte	.LASF1075
 3705 0d35 01       		.byte	0x1
 3706 0d36 D802     		.2byte	0x2d8
 3707 0d38 9B000000 		.4byte	0x9b
 3708 0d3c 02       		.uleb128 0x2
 3709 0d3d 91       		.byte	0x91
 3710 0d3e 6E       		.sleb128 -18
 3711 0d3f 21       		.uleb128 0x21
 3712 0d40 341A0000 		.4byte	.LASF1047
 3713 0d44 01       		.byte	0x1
 3714 0d45 DA02     		.2byte	0x2da
 3715 0d47 34060000 		.4byte	0x634
 3716 0d4b 02       		.uleb128 0x2
 3717 0d4c 91       		.byte	0x91
 3718 0d4d 74       		.sleb128 -12
 3719 0d4e 00       		.byte	0
 3720 0d4f 22       		.uleb128 0x22
 3721 0d50 F2480000 		.4byte	.LASF1083
 3722 0d54 07       		.byte	0x7
 3723 0d55 8204     		.2byte	0x482
 3724 0d57 5B0D0000 		.4byte	0xd5b
 3725 0d5b 05       		.uleb128 0x5
 3726 0d5c B1000000 		.4byte	0xb1
 3727 0d60 00       		.byte	0
 3728              		.section	.debug_abbrev,"",%progbits
 3729              	.Ldebug_abbrev0:
 3730 0000 01       		.uleb128 0x1
 3731 0001 11       		.uleb128 0x11
 3732 0002 01       		.byte	0x1
 3733 0003 25       		.uleb128 0x25
 3734 0004 0E       		.uleb128 0xe
 3735 0005 13       		.uleb128 0x13
 3736 0006 0B       		.uleb128 0xb
 3737 0007 03       		.uleb128 0x3
 3738 0008 0E       		.uleb128 0xe
 3739 0009 1B       		.uleb128 0x1b
 3740 000a 0E       		.uleb128 0xe
 3741 000b 55       		.uleb128 0x55
 3742 000c 17       		.uleb128 0x17
 3743 000d 11       		.uleb128 0x11
 3744 000e 01       		.uleb128 0x1
 3745 000f 10       		.uleb128 0x10
 3746 0010 17       		.uleb128 0x17
 3747 0011 9942     		.uleb128 0x2119
ARM GAS  C:\Users\STUDENT\AppData\Local\Temp\cc6DO5vW.s 			page 80


 3748 0013 17       		.uleb128 0x17
 3749 0014 00       		.byte	0
 3750 0015 00       		.byte	0
 3751 0016 02       		.uleb128 0x2
 3752 0017 24       		.uleb128 0x24
 3753 0018 00       		.byte	0
 3754 0019 0B       		.uleb128 0xb
 3755 001a 0B       		.uleb128 0xb
 3756 001b 3E       		.uleb128 0x3e
 3757 001c 0B       		.uleb128 0xb
 3758 001d 03       		.uleb128 0x3
 3759 001e 0E       		.uleb128 0xe
 3760 001f 00       		.byte	0
 3761 0020 00       		.byte	0
 3762 0021 03       		.uleb128 0x3
 3763 0022 16       		.uleb128 0x16
 3764 0023 00       		.byte	0
 3765 0024 03       		.uleb128 0x3
 3766 0025 0E       		.uleb128 0xe
 3767 0026 3A       		.uleb128 0x3a
 3768 0027 0B       		.uleb128 0xb
 3769 0028 3B       		.uleb128 0x3b
 3770 0029 0B       		.uleb128 0xb
 3771 002a 49       		.uleb128 0x49
 3772 002b 13       		.uleb128 0x13
 3773 002c 00       		.byte	0
 3774 002d 00       		.byte	0
 3775 002e 04       		.uleb128 0x4
 3776 002f 24       		.uleb128 0x24
 3777 0030 00       		.byte	0
 3778 0031 0B       		.uleb128 0xb
 3779 0032 0B       		.uleb128 0xb
 3780 0033 3E       		.uleb128 0x3e
 3781 0034 0B       		.uleb128 0xb
 3782 0035 03       		.uleb128 0x3
 3783 0036 08       		.uleb128 0x8
 3784 0037 00       		.byte	0
 3785 0038 00       		.byte	0
 3786 0039 05       		.uleb128 0x5
 3787 003a 35       		.uleb128 0x35
 3788 003b 00       		.byte	0
 3789 003c 49       		.uleb128 0x49
 3790 003d 13       		.uleb128 0x13
 3791 003e 00       		.byte	0
 3792 003f 00       		.byte	0
 3793 0040 06       		.uleb128 0x6
 3794 0041 26       		.uleb128 0x26
 3795 0042 00       		.byte	0
 3796 0043 49       		.uleb128 0x49
 3797 0044 13       		.uleb128 0x13
 3798 0045 00       		.byte	0
 3799 0046 00       		.byte	0
 3800 0047 07       		.uleb128 0x7
 3801 0048 13       		.uleb128 0x13
 3802 0049 01       		.byte	0x1
 3803 004a 0B       		.uleb128 0xb
 3804 004b 0B       		.uleb128 0xb
ARM GAS  C:\Users\STUDENT\AppData\Local\Temp\cc6DO5vW.s 			page 81


 3805 004c 3A       		.uleb128 0x3a
 3806 004d 0B       		.uleb128 0xb
 3807 004e 3B       		.uleb128 0x3b
 3808 004f 0B       		.uleb128 0xb
 3809 0050 01       		.uleb128 0x1
 3810 0051 13       		.uleb128 0x13
 3811 0052 00       		.byte	0
 3812 0053 00       		.byte	0
 3813 0054 08       		.uleb128 0x8
 3814 0055 0D       		.uleb128 0xd
 3815 0056 00       		.byte	0
 3816 0057 03       		.uleb128 0x3
 3817 0058 0E       		.uleb128 0xe
 3818 0059 3A       		.uleb128 0x3a
 3819 005a 0B       		.uleb128 0xb
 3820 005b 3B       		.uleb128 0x3b
 3821 005c 0B       		.uleb128 0xb
 3822 005d 49       		.uleb128 0x49
 3823 005e 13       		.uleb128 0x13
 3824 005f 38       		.uleb128 0x38
 3825 0060 0B       		.uleb128 0xb
 3826 0061 00       		.byte	0
 3827 0062 00       		.byte	0
 3828 0063 09       		.uleb128 0x9
 3829 0064 17       		.uleb128 0x17
 3830 0065 01       		.byte	0x1
 3831 0066 0B       		.uleb128 0xb
 3832 0067 0B       		.uleb128 0xb
 3833 0068 3A       		.uleb128 0x3a
 3834 0069 0B       		.uleb128 0xb
 3835 006a 3B       		.uleb128 0x3b
 3836 006b 0B       		.uleb128 0xb
 3837 006c 01       		.uleb128 0x1
 3838 006d 13       		.uleb128 0x13
 3839 006e 00       		.byte	0
 3840 006f 00       		.byte	0
 3841 0070 0A       		.uleb128 0xa
 3842 0071 0D       		.uleb128 0xd
 3843 0072 00       		.byte	0
 3844 0073 03       		.uleb128 0x3
 3845 0074 0E       		.uleb128 0xe
 3846 0075 3A       		.uleb128 0x3a
 3847 0076 0B       		.uleb128 0xb
 3848 0077 3B       		.uleb128 0x3b
 3849 0078 0B       		.uleb128 0xb
 3850 0079 49       		.uleb128 0x49
 3851 007a 13       		.uleb128 0x13
 3852 007b 00       		.byte	0
 3853 007c 00       		.byte	0
 3854 007d 0B       		.uleb128 0xb
 3855 007e 0D       		.uleb128 0xd
 3856 007f 00       		.byte	0
 3857 0080 49       		.uleb128 0x49
 3858 0081 13       		.uleb128 0x13
 3859 0082 00       		.byte	0
 3860 0083 00       		.byte	0
 3861 0084 0C       		.uleb128 0xc
ARM GAS  C:\Users\STUDENT\AppData\Local\Temp\cc6DO5vW.s 			page 82


 3862 0085 0D       		.uleb128 0xd
 3863 0086 00       		.byte	0
 3864 0087 03       		.uleb128 0x3
 3865 0088 0E       		.uleb128 0xe
 3866 0089 3A       		.uleb128 0x3a
 3867 008a 0B       		.uleb128 0xb
 3868 008b 3B       		.uleb128 0x3b
 3869 008c 05       		.uleb128 0x5
 3870 008d 49       		.uleb128 0x49
 3871 008e 13       		.uleb128 0x13
 3872 008f 38       		.uleb128 0x38
 3873 0090 0B       		.uleb128 0xb
 3874 0091 00       		.byte	0
 3875 0092 00       		.byte	0
 3876 0093 0D       		.uleb128 0xd
 3877 0094 0D       		.uleb128 0xd
 3878 0095 00       		.byte	0
 3879 0096 49       		.uleb128 0x49
 3880 0097 13       		.uleb128 0x13
 3881 0098 38       		.uleb128 0x38
 3882 0099 0B       		.uleb128 0xb
 3883 009a 00       		.byte	0
 3884 009b 00       		.byte	0
 3885 009c 0E       		.uleb128 0xe
 3886 009d 01       		.uleb128 0x1
 3887 009e 01       		.byte	0x1
 3888 009f 49       		.uleb128 0x49
 3889 00a0 13       		.uleb128 0x13
 3890 00a1 01       		.uleb128 0x1
 3891 00a2 13       		.uleb128 0x13
 3892 00a3 00       		.byte	0
 3893 00a4 00       		.byte	0
 3894 00a5 0F       		.uleb128 0xf
 3895 00a6 21       		.uleb128 0x21
 3896 00a7 00       		.byte	0
 3897 00a8 49       		.uleb128 0x49
 3898 00a9 13       		.uleb128 0x13
 3899 00aa 2F       		.uleb128 0x2f
 3900 00ab 0B       		.uleb128 0xb
 3901 00ac 00       		.byte	0
 3902 00ad 00       		.byte	0
 3903 00ae 10       		.uleb128 0x10
 3904 00af 16       		.uleb128 0x16
 3905 00b0 00       		.byte	0
 3906 00b1 03       		.uleb128 0x3
 3907 00b2 0E       		.uleb128 0xe
 3908 00b3 3A       		.uleb128 0x3a
 3909 00b4 0B       		.uleb128 0xb
 3910 00b5 3B       		.uleb128 0x3b
 3911 00b6 05       		.uleb128 0x5
 3912 00b7 49       		.uleb128 0x49
 3913 00b8 13       		.uleb128 0x13
 3914 00b9 00       		.byte	0
 3915 00ba 00       		.byte	0
 3916 00bb 11       		.uleb128 0x11
 3917 00bc 13       		.uleb128 0x13
 3918 00bd 01       		.byte	0x1
ARM GAS  C:\Users\STUDENT\AppData\Local\Temp\cc6DO5vW.s 			page 83


 3919 00be 0B       		.uleb128 0xb
 3920 00bf 0B       		.uleb128 0xb
 3921 00c0 3A       		.uleb128 0x3a
 3922 00c1 0B       		.uleb128 0xb
 3923 00c2 3B       		.uleb128 0x3b
 3924 00c3 05       		.uleb128 0x5
 3925 00c4 01       		.uleb128 0x1
 3926 00c5 13       		.uleb128 0x13
 3927 00c6 00       		.byte	0
 3928 00c7 00       		.byte	0
 3929 00c8 12       		.uleb128 0x12
 3930 00c9 04       		.uleb128 0x4
 3931 00ca 01       		.byte	0x1
 3932 00cb 0B       		.uleb128 0xb
 3933 00cc 0B       		.uleb128 0xb
 3934 00cd 49       		.uleb128 0x49
 3935 00ce 13       		.uleb128 0x13
 3936 00cf 3A       		.uleb128 0x3a
 3937 00d0 0B       		.uleb128 0xb
 3938 00d1 3B       		.uleb128 0x3b
 3939 00d2 0B       		.uleb128 0xb
 3940 00d3 01       		.uleb128 0x1
 3941 00d4 13       		.uleb128 0x13
 3942 00d5 00       		.byte	0
 3943 00d6 00       		.byte	0
 3944 00d7 13       		.uleb128 0x13
 3945 00d8 28       		.uleb128 0x28
 3946 00d9 00       		.byte	0
 3947 00da 03       		.uleb128 0x3
 3948 00db 0E       		.uleb128 0xe
 3949 00dc 1C       		.uleb128 0x1c
 3950 00dd 0B       		.uleb128 0xb
 3951 00de 00       		.byte	0
 3952 00df 00       		.byte	0
 3953 00e0 14       		.uleb128 0x14
 3954 00e1 2E       		.uleb128 0x2e
 3955 00e2 01       		.byte	0x1
 3956 00e3 03       		.uleb128 0x3
 3957 00e4 0E       		.uleb128 0xe
 3958 00e5 3A       		.uleb128 0x3a
 3959 00e6 0B       		.uleb128 0xb
 3960 00e7 3B       		.uleb128 0x3b
 3961 00e8 0B       		.uleb128 0xb
 3962 00e9 27       		.uleb128 0x27
 3963 00ea 19       		.uleb128 0x19
 3964 00eb 49       		.uleb128 0x49
 3965 00ec 13       		.uleb128 0x13
 3966 00ed 11       		.uleb128 0x11
 3967 00ee 01       		.uleb128 0x1
 3968 00ef 12       		.uleb128 0x12
 3969 00f0 06       		.uleb128 0x6
 3970 00f1 40       		.uleb128 0x40
 3971 00f2 18       		.uleb128 0x18
 3972 00f3 9742     		.uleb128 0x2117
 3973 00f5 19       		.uleb128 0x19
 3974 00f6 01       		.uleb128 0x1
 3975 00f7 13       		.uleb128 0x13
ARM GAS  C:\Users\STUDENT\AppData\Local\Temp\cc6DO5vW.s 			page 84


 3976 00f8 00       		.byte	0
 3977 00f9 00       		.byte	0
 3978 00fa 15       		.uleb128 0x15
 3979 00fb 05       		.uleb128 0x5
 3980 00fc 00       		.byte	0
 3981 00fd 03       		.uleb128 0x3
 3982 00fe 0E       		.uleb128 0xe
 3983 00ff 3A       		.uleb128 0x3a
 3984 0100 0B       		.uleb128 0xb
 3985 0101 3B       		.uleb128 0x3b
 3986 0102 0B       		.uleb128 0xb
 3987 0103 49       		.uleb128 0x49
 3988 0104 13       		.uleb128 0x13
 3989 0105 02       		.uleb128 0x2
 3990 0106 18       		.uleb128 0x18
 3991 0107 00       		.byte	0
 3992 0108 00       		.byte	0
 3993 0109 16       		.uleb128 0x16
 3994 010a 34       		.uleb128 0x34
 3995 010b 00       		.byte	0
 3996 010c 03       		.uleb128 0x3
 3997 010d 0E       		.uleb128 0xe
 3998 010e 3A       		.uleb128 0x3a
 3999 010f 0B       		.uleb128 0xb
 4000 0110 3B       		.uleb128 0x3b
 4001 0111 0B       		.uleb128 0xb
 4002 0112 49       		.uleb128 0x49
 4003 0113 13       		.uleb128 0x13
 4004 0114 02       		.uleb128 0x2
 4005 0115 18       		.uleb128 0x18
 4006 0116 00       		.byte	0
 4007 0117 00       		.byte	0
 4008 0118 17       		.uleb128 0x17
 4009 0119 0F       		.uleb128 0xf
 4010 011a 00       		.byte	0
 4011 011b 0B       		.uleb128 0xb
 4012 011c 0B       		.uleb128 0xb
 4013 011d 49       		.uleb128 0x49
 4014 011e 13       		.uleb128 0x13
 4015 011f 00       		.byte	0
 4016 0120 00       		.byte	0
 4017 0121 18       		.uleb128 0x18
 4018 0122 2E       		.uleb128 0x2e
 4019 0123 01       		.byte	0x1
 4020 0124 3F       		.uleb128 0x3f
 4021 0125 19       		.uleb128 0x19
 4022 0126 03       		.uleb128 0x3
 4023 0127 0E       		.uleb128 0xe
 4024 0128 3A       		.uleb128 0x3a
 4025 0129 0B       		.uleb128 0xb
 4026 012a 3B       		.uleb128 0x3b
 4027 012b 0B       		.uleb128 0xb
 4028 012c 27       		.uleb128 0x27
 4029 012d 19       		.uleb128 0x19
 4030 012e 11       		.uleb128 0x11
 4031 012f 01       		.uleb128 0x1
 4032 0130 12       		.uleb128 0x12
ARM GAS  C:\Users\STUDENT\AppData\Local\Temp\cc6DO5vW.s 			page 85


 4033 0131 06       		.uleb128 0x6
 4034 0132 40       		.uleb128 0x40
 4035 0133 18       		.uleb128 0x18
 4036 0134 9642     		.uleb128 0x2116
 4037 0136 19       		.uleb128 0x19
 4038 0137 01       		.uleb128 0x1
 4039 0138 13       		.uleb128 0x13
 4040 0139 00       		.byte	0
 4041 013a 00       		.byte	0
 4042 013b 19       		.uleb128 0x19
 4043 013c 05       		.uleb128 0x5
 4044 013d 00       		.byte	0
 4045 013e 03       		.uleb128 0x3
 4046 013f 08       		.uleb128 0x8
 4047 0140 3A       		.uleb128 0x3a
 4048 0141 0B       		.uleb128 0xb
 4049 0142 3B       		.uleb128 0x3b
 4050 0143 0B       		.uleb128 0xb
 4051 0144 49       		.uleb128 0x49
 4052 0145 13       		.uleb128 0x13
 4053 0146 02       		.uleb128 0x2
 4054 0147 18       		.uleb128 0x18
 4055 0148 00       		.byte	0
 4056 0149 00       		.byte	0
 4057 014a 1A       		.uleb128 0x1a
 4058 014b 2E       		.uleb128 0x2e
 4059 014c 01       		.byte	0x1
 4060 014d 3F       		.uleb128 0x3f
 4061 014e 19       		.uleb128 0x19
 4062 014f 03       		.uleb128 0x3
 4063 0150 0E       		.uleb128 0xe
 4064 0151 3A       		.uleb128 0x3a
 4065 0152 0B       		.uleb128 0xb
 4066 0153 3B       		.uleb128 0x3b
 4067 0154 0B       		.uleb128 0xb
 4068 0155 27       		.uleb128 0x27
 4069 0156 19       		.uleb128 0x19
 4070 0157 49       		.uleb128 0x49
 4071 0158 13       		.uleb128 0x13
 4072 0159 11       		.uleb128 0x11
 4073 015a 01       		.uleb128 0x1
 4074 015b 12       		.uleb128 0x12
 4075 015c 06       		.uleb128 0x6
 4076 015d 40       		.uleb128 0x40
 4077 015e 18       		.uleb128 0x18
 4078 015f 9642     		.uleb128 0x2116
 4079 0161 19       		.uleb128 0x19
 4080 0162 01       		.uleb128 0x1
 4081 0163 13       		.uleb128 0x13
 4082 0164 00       		.byte	0
 4083 0165 00       		.byte	0
 4084 0166 1B       		.uleb128 0x1b
 4085 0167 2E       		.uleb128 0x2e
 4086 0168 01       		.byte	0x1
 4087 0169 3F       		.uleb128 0x3f
 4088 016a 19       		.uleb128 0x19
 4089 016b 03       		.uleb128 0x3
ARM GAS  C:\Users\STUDENT\AppData\Local\Temp\cc6DO5vW.s 			page 86


 4090 016c 0E       		.uleb128 0xe
 4091 016d 3A       		.uleb128 0x3a
 4092 016e 0B       		.uleb128 0xb
 4093 016f 3B       		.uleb128 0x3b
 4094 0170 05       		.uleb128 0x5
 4095 0171 27       		.uleb128 0x27
 4096 0172 19       		.uleb128 0x19
 4097 0173 11       		.uleb128 0x11
 4098 0174 01       		.uleb128 0x1
 4099 0175 12       		.uleb128 0x12
 4100 0176 06       		.uleb128 0x6
 4101 0177 40       		.uleb128 0x40
 4102 0178 18       		.uleb128 0x18
 4103 0179 9742     		.uleb128 0x2117
 4104 017b 19       		.uleb128 0x19
 4105 017c 01       		.uleb128 0x1
 4106 017d 13       		.uleb128 0x13
 4107 017e 00       		.byte	0
 4108 017f 00       		.byte	0
 4109 0180 1C       		.uleb128 0x1c
 4110 0181 05       		.uleb128 0x5
 4111 0182 00       		.byte	0
 4112 0183 03       		.uleb128 0x3
 4113 0184 0E       		.uleb128 0xe
 4114 0185 3A       		.uleb128 0x3a
 4115 0186 0B       		.uleb128 0xb
 4116 0187 3B       		.uleb128 0x3b
 4117 0188 05       		.uleb128 0x5
 4118 0189 49       		.uleb128 0x49
 4119 018a 13       		.uleb128 0x13
 4120 018b 02       		.uleb128 0x2
 4121 018c 18       		.uleb128 0x18
 4122 018d 00       		.byte	0
 4123 018e 00       		.byte	0
 4124 018f 1D       		.uleb128 0x1d
 4125 0190 2E       		.uleb128 0x2e
 4126 0191 01       		.byte	0x1
 4127 0192 3F       		.uleb128 0x3f
 4128 0193 19       		.uleb128 0x19
 4129 0194 03       		.uleb128 0x3
 4130 0195 0E       		.uleb128 0xe
 4131 0196 3A       		.uleb128 0x3a
 4132 0197 0B       		.uleb128 0xb
 4133 0198 3B       		.uleb128 0x3b
 4134 0199 05       		.uleb128 0x5
 4135 019a 27       		.uleb128 0x27
 4136 019b 19       		.uleb128 0x19
 4137 019c 49       		.uleb128 0x49
 4138 019d 13       		.uleb128 0x13
 4139 019e 11       		.uleb128 0x11
 4140 019f 01       		.uleb128 0x1
 4141 01a0 12       		.uleb128 0x12
 4142 01a1 06       		.uleb128 0x6
 4143 01a2 40       		.uleb128 0x40
 4144 01a3 18       		.uleb128 0x18
 4145 01a4 9742     		.uleb128 0x2117
 4146 01a6 19       		.uleb128 0x19
ARM GAS  C:\Users\STUDENT\AppData\Local\Temp\cc6DO5vW.s 			page 87


 4147 01a7 01       		.uleb128 0x1
 4148 01a8 13       		.uleb128 0x13
 4149 01a9 00       		.byte	0
 4150 01aa 00       		.byte	0
 4151 01ab 1E       		.uleb128 0x1e
 4152 01ac 2E       		.uleb128 0x2e
 4153 01ad 01       		.byte	0x1
 4154 01ae 3F       		.uleb128 0x3f
 4155 01af 19       		.uleb128 0x19
 4156 01b0 03       		.uleb128 0x3
 4157 01b1 0E       		.uleb128 0xe
 4158 01b2 3A       		.uleb128 0x3a
 4159 01b3 0B       		.uleb128 0xb
 4160 01b4 3B       		.uleb128 0x3b
 4161 01b5 05       		.uleb128 0x5
 4162 01b6 27       		.uleb128 0x27
 4163 01b7 19       		.uleb128 0x19
 4164 01b8 11       		.uleb128 0x11
 4165 01b9 01       		.uleb128 0x1
 4166 01ba 12       		.uleb128 0x12
 4167 01bb 06       		.uleb128 0x6
 4168 01bc 40       		.uleb128 0x40
 4169 01bd 18       		.uleb128 0x18
 4170 01be 9642     		.uleb128 0x2116
 4171 01c0 19       		.uleb128 0x19
 4172 01c1 01       		.uleb128 0x1
 4173 01c2 13       		.uleb128 0x13
 4174 01c3 00       		.byte	0
 4175 01c4 00       		.byte	0
 4176 01c5 1F       		.uleb128 0x1f
 4177 01c6 05       		.uleb128 0x5
 4178 01c7 00       		.byte	0
 4179 01c8 03       		.uleb128 0x3
 4180 01c9 08       		.uleb128 0x8
 4181 01ca 3A       		.uleb128 0x3a
 4182 01cb 0B       		.uleb128 0xb
 4183 01cc 3B       		.uleb128 0x3b
 4184 01cd 05       		.uleb128 0x5
 4185 01ce 49       		.uleb128 0x49
 4186 01cf 13       		.uleb128 0x13
 4187 01d0 02       		.uleb128 0x2
 4188 01d1 18       		.uleb128 0x18
 4189 01d2 00       		.byte	0
 4190 01d3 00       		.byte	0
 4191 01d4 20       		.uleb128 0x20
 4192 01d5 2E       		.uleb128 0x2e
 4193 01d6 01       		.byte	0x1
 4194 01d7 3F       		.uleb128 0x3f
 4195 01d8 19       		.uleb128 0x19
 4196 01d9 03       		.uleb128 0x3
 4197 01da 0E       		.uleb128 0xe
 4198 01db 3A       		.uleb128 0x3a
 4199 01dc 0B       		.uleb128 0xb
 4200 01dd 3B       		.uleb128 0x3b
 4201 01de 05       		.uleb128 0x5
 4202 01df 27       		.uleb128 0x27
 4203 01e0 19       		.uleb128 0x19
ARM GAS  C:\Users\STUDENT\AppData\Local\Temp\cc6DO5vW.s 			page 88


 4204 01e1 49       		.uleb128 0x49
 4205 01e2 13       		.uleb128 0x13
 4206 01e3 11       		.uleb128 0x11
 4207 01e4 01       		.uleb128 0x1
 4208 01e5 12       		.uleb128 0x12
 4209 01e6 06       		.uleb128 0x6
 4210 01e7 40       		.uleb128 0x40
 4211 01e8 18       		.uleb128 0x18
 4212 01e9 9642     		.uleb128 0x2116
 4213 01eb 19       		.uleb128 0x19
 4214 01ec 01       		.uleb128 0x1
 4215 01ed 13       		.uleb128 0x13
 4216 01ee 00       		.byte	0
 4217 01ef 00       		.byte	0
 4218 01f0 21       		.uleb128 0x21
 4219 01f1 34       		.uleb128 0x34
 4220 01f2 00       		.byte	0
 4221 01f3 03       		.uleb128 0x3
 4222 01f4 0E       		.uleb128 0xe
 4223 01f5 3A       		.uleb128 0x3a
 4224 01f6 0B       		.uleb128 0xb
 4225 01f7 3B       		.uleb128 0x3b
 4226 01f8 05       		.uleb128 0x5
 4227 01f9 49       		.uleb128 0x49
 4228 01fa 13       		.uleb128 0x13
 4229 01fb 02       		.uleb128 0x2
 4230 01fc 18       		.uleb128 0x18
 4231 01fd 00       		.byte	0
 4232 01fe 00       		.byte	0
 4233 01ff 22       		.uleb128 0x22
 4234 0200 34       		.uleb128 0x34
 4235 0201 00       		.byte	0
 4236 0202 03       		.uleb128 0x3
 4237 0203 0E       		.uleb128 0xe
 4238 0204 3A       		.uleb128 0x3a
 4239 0205 0B       		.uleb128 0xb
 4240 0206 3B       		.uleb128 0x3b
 4241 0207 05       		.uleb128 0x5
 4242 0208 49       		.uleb128 0x49
 4243 0209 13       		.uleb128 0x13
 4244 020a 3F       		.uleb128 0x3f
 4245 020b 19       		.uleb128 0x19
 4246 020c 3C       		.uleb128 0x3c
 4247 020d 19       		.uleb128 0x19
 4248 020e 00       		.byte	0
 4249 020f 00       		.byte	0
 4250 0210 00       		.byte	0
 4251              		.section	.debug_aranges,"",%progbits
 4252 0000 F4000000 		.4byte	0xf4
 4253 0004 0200     		.2byte	0x2
 4254 0006 00000000 		.4byte	.Ldebug_info0
 4255 000a 04       		.byte	0x4
 4256 000b 00       		.byte	0
 4257 000c 0000     		.2byte	0
 4258 000e 0000     		.2byte	0
 4259 0010 00000000 		.4byte	.LFB55
 4260 0014 70000000 		.4byte	.LFE55-.LFB55
ARM GAS  C:\Users\STUDENT\AppData\Local\Temp\cc6DO5vW.s 			page 89


 4261 0018 00000000 		.4byte	.LFB56
 4262 001c 70000000 		.4byte	.LFE56-.LFB56
 4263 0020 00000000 		.4byte	.LFB57
 4264 0024 70000000 		.4byte	.LFE57-.LFB57
 4265 0028 00000000 		.4byte	.LFB58
 4266 002c 4A000000 		.4byte	.LFE58-.LFB58
 4267 0030 00000000 		.4byte	.LFB59
 4268 0034 2A000000 		.4byte	.LFE59-.LFB59
 4269 0038 00000000 		.4byte	.LFB60
 4270 003c 2A000000 		.4byte	.LFE60-.LFB60
 4271 0040 00000000 		.4byte	.LFB61
 4272 0044 2A000000 		.4byte	.LFE61-.LFB61
 4273 0048 00000000 		.4byte	.LFB62
 4274 004c 88000000 		.4byte	.LFE62-.LFB62
 4275 0050 00000000 		.4byte	.LFB63
 4276 0054 A0000000 		.4byte	.LFE63-.LFB63
 4277 0058 00000000 		.4byte	.LFB64
 4278 005c 38000000 		.4byte	.LFE64-.LFB64
 4279 0060 00000000 		.4byte	.LFB65
 4280 0064 24000000 		.4byte	.LFE65-.LFB65
 4281 0068 00000000 		.4byte	.LFB66
 4282 006c 1E000000 		.4byte	.LFE66-.LFB66
 4283 0070 00000000 		.4byte	.LFB67
 4284 0074 1E000000 		.4byte	.LFE67-.LFB67
 4285 0078 00000000 		.4byte	.LFB68
 4286 007c 1C000000 		.4byte	.LFE68-.LFB68
 4287 0080 00000000 		.4byte	.LFB69
 4288 0084 24000000 		.4byte	.LFE69-.LFB69
 4289 0088 00000000 		.4byte	.LFB70
 4290 008c 26000000 		.4byte	.LFE70-.LFB70
 4291 0090 00000000 		.4byte	.LFB71
 4292 0094 1E000000 		.4byte	.LFE71-.LFB71
 4293 0098 00000000 		.4byte	.LFB72
 4294 009c 4A000000 		.4byte	.LFE72-.LFB72
 4295 00a0 00000000 		.4byte	.LFB73
 4296 00a4 A2000000 		.4byte	.LFE73-.LFB73
 4297 00a8 00000000 		.4byte	.LFB74
 4298 00ac A2000000 		.4byte	.LFE74-.LFB74
 4299 00b0 00000000 		.4byte	.LFB75
 4300 00b4 3E000000 		.4byte	.LFE75-.LFB75
 4301 00b8 00000000 		.4byte	.LFB76
 4302 00bc 3E000000 		.4byte	.LFE76-.LFB76
 4303 00c0 00000000 		.4byte	.LFB77
 4304 00c4 40000000 		.4byte	.LFE77-.LFB77
 4305 00c8 00000000 		.4byte	.LFB78
 4306 00cc 7C000000 		.4byte	.LFE78-.LFB78
 4307 00d0 00000000 		.4byte	.LFB79
 4308 00d4 88000000 		.4byte	.LFE79-.LFB79
 4309 00d8 00000000 		.4byte	.LFB80
 4310 00dc 3A000000 		.4byte	.LFE80-.LFB80
 4311 00e0 00000000 		.4byte	.LFB81
 4312 00e4 3A000000 		.4byte	.LFE81-.LFB81
 4313 00e8 00000000 		.4byte	.LFB82
 4314 00ec 3C000000 		.4byte	.LFE82-.LFB82
 4315 00f0 00000000 		.4byte	0
 4316 00f4 00000000 		.4byte	0
 4317              		.section	.debug_ranges,"",%progbits
ARM GAS  C:\Users\STUDENT\AppData\Local\Temp\cc6DO5vW.s 			page 90


 4318              	.Ldebug_ranges0:
 4319 0000 00000000 		.4byte	.LFB55
 4320 0004 70000000 		.4byte	.LFE55
 4321 0008 00000000 		.4byte	.LFB56
 4322 000c 70000000 		.4byte	.LFE56
 4323 0010 00000000 		.4byte	.LFB57
 4324 0014 70000000 		.4byte	.LFE57
 4325 0018 00000000 		.4byte	.LFB58
 4326 001c 4A000000 		.4byte	.LFE58
 4327 0020 00000000 		.4byte	.LFB59
 4328 0024 2A000000 		.4byte	.LFE59
 4329 0028 00000000 		.4byte	.LFB60
 4330 002c 2A000000 		.4byte	.LFE60
 4331 0030 00000000 		.4byte	.LFB61
 4332 0034 2A000000 		.4byte	.LFE61
 4333 0038 00000000 		.4byte	.LFB62
 4334 003c 88000000 		.4byte	.LFE62
 4335 0040 00000000 		.4byte	.LFB63
 4336 0044 A0000000 		.4byte	.LFE63
 4337 0048 00000000 		.4byte	.LFB64
 4338 004c 38000000 		.4byte	.LFE64
 4339 0050 00000000 		.4byte	.LFB65
 4340 0054 24000000 		.4byte	.LFE65
 4341 0058 00000000 		.4byte	.LFB66
 4342 005c 1E000000 		.4byte	.LFE66
 4343 0060 00000000 		.4byte	.LFB67
 4344 0064 1E000000 		.4byte	.LFE67
 4345 0068 00000000 		.4byte	.LFB68
 4346 006c 1C000000 		.4byte	.LFE68
 4347 0070 00000000 		.4byte	.LFB69
 4348 0074 24000000 		.4byte	.LFE69
 4349 0078 00000000 		.4byte	.LFB70
 4350 007c 26000000 		.4byte	.LFE70
 4351 0080 00000000 		.4byte	.LFB71
 4352 0084 1E000000 		.4byte	.LFE71
 4353 0088 00000000 		.4byte	.LFB72
 4354 008c 4A000000 		.4byte	.LFE72
 4355 0090 00000000 		.4byte	.LFB73
 4356 0094 A2000000 		.4byte	.LFE73
 4357 0098 00000000 		.4byte	.LFB74
 4358 009c A2000000 		.4byte	.LFE74
 4359 00a0 00000000 		.4byte	.LFB75
 4360 00a4 3E000000 		.4byte	.LFE75
 4361 00a8 00000000 		.4byte	.LFB76
 4362 00ac 3E000000 		.4byte	.LFE76
 4363 00b0 00000000 		.4byte	.LFB77
 4364 00b4 40000000 		.4byte	.LFE77
 4365 00b8 00000000 		.4byte	.LFB78
 4366 00bc 7C000000 		.4byte	.LFE78
 4367 00c0 00000000 		.4byte	.LFB79
 4368 00c4 88000000 		.4byte	.LFE79
 4369 00c8 00000000 		.4byte	.LFB80
 4370 00cc 3A000000 		.4byte	.LFE80
 4371 00d0 00000000 		.4byte	.LFB81
 4372 00d4 3A000000 		.4byte	.LFE81
 4373 00d8 00000000 		.4byte	.LFB82
 4374 00dc 3C000000 		.4byte	.LFE82
ARM GAS  C:\Users\STUDENT\AppData\Local\Temp\cc6DO5vW.s 			page 91


 4375 00e0 00000000 		.4byte	0
 4376 00e4 00000000 		.4byte	0
 4377              		.section	.debug_macro,"",%progbits
 4378              	.Ldebug_macro0:
 4379 0000 0400     		.2byte	0x4
 4380 0002 02       		.byte	0x2
 4381 0003 00000000 		.4byte	.Ldebug_line0
 4382 0007 07       		.byte	0x7
 4383 0008 00000000 		.4byte	.Ldebug_macro1
 4384 000c 03       		.byte	0x3
 4385 000d 00       		.uleb128 0
 4386 000e 01       		.uleb128 0x1
 4387 000f 03       		.byte	0x3
 4388 0010 1A       		.uleb128 0x1a
 4389 0011 06       		.uleb128 0x6
 4390 0012 05       		.byte	0x5
 4391 0013 1C       		.uleb128 0x1c
 4392 0014 56350000 		.4byte	.LASF355
 4393 0018 03       		.byte	0x3
 4394 0019 1F       		.uleb128 0x1f
 4395 001a 04       		.uleb128 0x4
 4396 001b 07       		.byte	0x7
 4397 001c 00000000 		.4byte	.Ldebug_macro2
 4398 0020 03       		.byte	0x3
 4399 0021 67       		.uleb128 0x67
 4400 0022 07       		.uleb128 0x7
 4401 0023 07       		.byte	0x7
 4402 0024 00000000 		.4byte	.Ldebug_macro3
 4403              		.file 8 "c:\\program files (x86)\\gnu tools arm embedded\\5.4 2016q3\\lib\\gcc\\arm-none-eabi\\5.4
 4404 0028 03       		.byte	0x3
 4405 0029 50       		.uleb128 0x50
 4406 002a 08       		.uleb128 0x8
 4407              		.file 9 "c:\\program files (x86)\\gnu tools arm embedded\\5.4 2016q3\\arm-none-eabi\\include\\stdi
 4408 002b 03       		.byte	0x3
 4409 002c 09       		.uleb128 0x9
 4410 002d 09       		.uleb128 0x9
 4411 002e 05       		.byte	0x5
 4412 002f 0A       		.uleb128 0xa
 4413 0030 6B1F0000 		.4byte	.LASF367
 4414 0034 03       		.byte	0x3
 4415 0035 0C       		.uleb128 0xc
 4416 0036 02       		.uleb128 0x2
 4417 0037 05       		.byte	0x5
 4418 0038 06       		.uleb128 0x6
 4419 0039 12520000 		.4byte	.LASF368
 4420              		.file 10 "c:\\program files (x86)\\gnu tools arm embedded\\5.4 2016q3\\arm-none-eabi\\include\\sys
 4421 003d 03       		.byte	0x3
 4422 003e 08       		.uleb128 0x8
 4423 003f 0A       		.uleb128 0xa
 4424 0040 05       		.byte	0x5
 4425 0041 16       		.uleb128 0x16
 4426 0042 7E240000 		.4byte	.LASF369
 4427              		.file 11 "c:\\program files (x86)\\gnu tools arm embedded\\5.4 2016q3\\arm-none-eabi\\include\\_ne
 4428 0046 03       		.byte	0x3
 4429 0047 1C       		.uleb128 0x1c
 4430 0048 0B       		.uleb128 0xb
 4431 0049 07       		.byte	0x7
ARM GAS  C:\Users\STUDENT\AppData\Local\Temp\cc6DO5vW.s 			page 92


 4432 004a 00000000 		.4byte	.Ldebug_macro4
 4433 004e 04       		.byte	0x4
 4434 004f 07       		.byte	0x7
 4435 0050 00000000 		.4byte	.Ldebug_macro5
 4436 0054 04       		.byte	0x4
 4437 0055 07       		.byte	0x7
 4438 0056 00000000 		.4byte	.Ldebug_macro6
 4439 005a 04       		.byte	0x4
 4440              		.file 12 "c:\\program files (x86)\\gnu tools arm embedded\\5.4 2016q3\\arm-none-eabi\\include\\sys
 4441 005b 03       		.byte	0x3
 4442 005c 0D       		.uleb128 0xd
 4443 005d 0C       		.uleb128 0xc
 4444 005e 07       		.byte	0x7
 4445 005f 00000000 		.4byte	.Ldebug_macro7
 4446 0063 04       		.byte	0x4
 4447 0064 03       		.byte	0x3
 4448 0065 0E       		.uleb128 0xe
 4449 0066 03       		.uleb128 0x3
 4450 0067 07       		.byte	0x7
 4451 0068 00000000 		.4byte	.Ldebug_macro8
 4452 006c 04       		.byte	0x4
 4453 006d 07       		.byte	0x7
 4454 006e 00000000 		.4byte	.Ldebug_macro9
 4455 0072 04       		.byte	0x4
 4456 0073 05       		.byte	0x5
 4457 0074 0D       		.uleb128 0xd
 4458 0075 EC070000 		.4byte	.LASF519
 4459 0079 04       		.byte	0x4
 4460              		.file 13 "system/core_cmInstr.h"
 4461 007a 03       		.byte	0x3
 4462 007b 51       		.uleb128 0x51
 4463 007c 0D       		.uleb128 0xd
 4464 007d 07       		.byte	0x7
 4465 007e 00000000 		.4byte	.Ldebug_macro10
 4466 0082 04       		.byte	0x4
 4467              		.file 14 "system/core_cmFunc.h"
 4468 0083 03       		.byte	0x3
 4469 0084 52       		.uleb128 0x52
 4470 0085 0E       		.uleb128 0xe
 4471 0086 05       		.byte	0x5
 4472 0087 19       		.uleb128 0x19
 4473 0088 3E510000 		.4byte	.LASF523
 4474 008c 04       		.byte	0x4
 4475 008d 07       		.byte	0x7
 4476 008e 00000000 		.4byte	.Ldebug_macro11
 4477 0092 04       		.byte	0x4
 4478              		.file 15 "system/system_LPC17xx.h"
 4479 0093 03       		.byte	0x3
 4480 0094 68       		.uleb128 0x68
 4481 0095 0F       		.uleb128 0xf
 4482 0096 05       		.byte	0x5
 4483 0097 1B       		.uleb128 0x1b
 4484 0098 510C0000 		.4byte	.LASF805
 4485 009c 04       		.byte	0x4
 4486 009d 07       		.byte	0x7
 4487 009e 00000000 		.4byte	.Ldebug_macro12
 4488 00a2 04       		.byte	0x4
ARM GAS  C:\Users\STUDENT\AppData\Local\Temp\cc6DO5vW.s 			page 93


 4489 00a3 03       		.byte	0x3
 4490 00a4 20       		.uleb128 0x20
 4491 00a5 05       		.uleb128 0x5
 4492 00a6 07       		.byte	0x7
 4493 00a7 00000000 		.4byte	.Ldebug_macro13
 4494 00ab 04       		.byte	0x4
 4495 00ac 07       		.byte	0x7
 4496 00ad 00000000 		.4byte	.Ldebug_macro14
 4497 00b1 04       		.byte	0x4
 4498              		.file 16 "core/lpc17xx_libcfg_default.h"
 4499 00b2 03       		.byte	0x3
 4500 00b3 23       		.uleb128 0x23
 4501 00b4 10       		.uleb128 0x10
 4502 00b5 07       		.byte	0x7
 4503 00b6 00000000 		.4byte	.Ldebug_macro15
 4504 00ba 04       		.byte	0x4
 4505 00bb 04       		.byte	0x4
 4506 00bc 00       		.byte	0
 4507              		.section	.debug_macro,"G",%progbits,wm4.0.c0d9c46791312c607b68c96c4ad07fb1,comdat
 4508              	.Ldebug_macro1:
 4509 0000 0400     		.2byte	0x4
 4510 0002 00       		.byte	0
 4511 0003 05       		.byte	0x5
 4512 0004 00       		.uleb128 0
 4513 0005 0E4F0000 		.4byte	.LASF0
 4514 0009 05       		.byte	0x5
 4515 000a 00       		.uleb128 0
 4516 000b 590B0000 		.4byte	.LASF1
 4517 000f 05       		.byte	0x5
 4518 0010 00       		.uleb128 0
 4519 0011 D23A0000 		.4byte	.LASF2
 4520 0015 05       		.byte	0x5
 4521 0016 00       		.uleb128 0
 4522 0017 75630000 		.4byte	.LASF3
 4523 001b 05       		.byte	0x5
 4524 001c 00       		.uleb128 0
 4525 001d E91E0000 		.4byte	.LASF4
 4526 0021 05       		.byte	0x5
 4527 0022 00       		.uleb128 0
 4528 0023 5F310000 		.4byte	.LASF5
 4529 0027 05       		.byte	0x5
 4530 0028 00       		.uleb128 0
 4531 0029 AB6B0000 		.4byte	.LASF6
 4532 002d 05       		.byte	0x5
 4533 002e 00       		.uleb128 0
 4534 002f 04210000 		.4byte	.LASF7
 4535 0033 05       		.byte	0x5
 4536 0034 00       		.uleb128 0
 4537 0035 F1370000 		.4byte	.LASF8
 4538 0039 05       		.byte	0x5
 4539 003a 00       		.uleb128 0
 4540 003b ED3F0000 		.4byte	.LASF9
 4541 003f 05       		.byte	0x5
 4542 0040 00       		.uleb128 0
 4543 0041 BA7A0000 		.4byte	.LASF10
 4544 0045 05       		.byte	0x5
 4545 0046 00       		.uleb128 0
ARM GAS  C:\Users\STUDENT\AppData\Local\Temp\cc6DO5vW.s 			page 94


 4546 0047 FC030000 		.4byte	.LASF11
 4547 004b 05       		.byte	0x5
 4548 004c 00       		.uleb128 0
 4549 004d 5D5E0000 		.4byte	.LASF12
 4550 0051 05       		.byte	0x5
 4551 0052 00       		.uleb128 0
 4552 0053 E4720000 		.4byte	.LASF13
 4553 0057 05       		.byte	0x5
 4554 0058 00       		.uleb128 0
 4555 0059 1E1B0000 		.4byte	.LASF14
 4556 005d 05       		.byte	0x5
 4557 005e 00       		.uleb128 0
 4558 005f A9050000 		.4byte	.LASF15
 4559 0063 05       		.byte	0x5
 4560 0064 00       		.uleb128 0
 4561 0065 3F230000 		.4byte	.LASF16
 4562 0069 05       		.byte	0x5
 4563 006a 00       		.uleb128 0
 4564 006b DA6C0000 		.4byte	.LASF17
 4565 006f 05       		.byte	0x5
 4566 0070 00       		.uleb128 0
 4567 0071 E81B0000 		.4byte	.LASF18
 4568 0075 05       		.byte	0x5
 4569 0076 00       		.uleb128 0
 4570 0077 D3250000 		.4byte	.LASF19
 4571 007b 05       		.byte	0x5
 4572 007c 00       		.uleb128 0
 4573 007d 07690000 		.4byte	.LASF20
 4574 0081 05       		.byte	0x5
 4575 0082 00       		.uleb128 0
 4576 0083 72470000 		.4byte	.LASF21
 4577 0087 05       		.byte	0x5
 4578 0088 00       		.uleb128 0
 4579 0089 2D520000 		.4byte	.LASF22
 4580 008d 05       		.byte	0x5
 4581 008e 00       		.uleb128 0
 4582 008f 4D590000 		.4byte	.LASF23
 4583 0093 05       		.byte	0x5
 4584 0094 00       		.uleb128 0
 4585 0095 AB0F0000 		.4byte	.LASF24
 4586 0099 05       		.byte	0x5
 4587 009a 00       		.uleb128 0
 4588 009b A1070000 		.4byte	.LASF25
 4589 009f 05       		.byte	0x5
 4590 00a0 00       		.uleb128 0
 4591 00a1 8A490000 		.4byte	.LASF26
 4592 00a5 05       		.byte	0x5
 4593 00a6 00       		.uleb128 0
 4594 00a7 F3270000 		.4byte	.LASF27
 4595 00ab 05       		.byte	0x5
 4596 00ac 00       		.uleb128 0
 4597 00ad E3170000 		.4byte	.LASF28
 4598 00b1 05       		.byte	0x5
 4599 00b2 00       		.uleb128 0
 4600 00b3 BB070000 		.4byte	.LASF29
 4601 00b7 05       		.byte	0x5
 4602 00b8 00       		.uleb128 0
ARM GAS  C:\Users\STUDENT\AppData\Local\Temp\cc6DO5vW.s 			page 95


 4603 00b9 775A0000 		.4byte	.LASF30
 4604 00bd 05       		.byte	0x5
 4605 00be 00       		.uleb128 0
 4606 00bf 60260000 		.4byte	.LASF31
 4607 00c3 05       		.byte	0x5
 4608 00c4 00       		.uleb128 0
 4609 00c5 DE4A0000 		.4byte	.LASF32
 4610 00c9 05       		.byte	0x5
 4611 00ca 00       		.uleb128 0
 4612 00cb E7630000 		.4byte	.LASF33
 4613 00cf 05       		.byte	0x5
 4614 00d0 00       		.uleb128 0
 4615 00d1 6D4D0000 		.4byte	.LASF34
 4616 00d5 05       		.byte	0x5
 4617 00d6 00       		.uleb128 0
 4618 00d7 DC5C0000 		.4byte	.LASF35
 4619 00db 05       		.byte	0x5
 4620 00dc 00       		.uleb128 0
 4621 00dd 391A0000 		.4byte	.LASF36
 4622 00e1 05       		.byte	0x5
 4623 00e2 00       		.uleb128 0
 4624 00e3 D23D0000 		.4byte	.LASF37
 4625 00e7 05       		.byte	0x5
 4626 00e8 00       		.uleb128 0
 4627 00e9 4E080000 		.4byte	.LASF38
 4628 00ed 05       		.byte	0x5
 4629 00ee 00       		.uleb128 0
 4630 00ef FA090000 		.4byte	.LASF39
 4631 00f3 05       		.byte	0x5
 4632 00f4 00       		.uleb128 0
 4633 00f5 DD7A0000 		.4byte	.LASF40
 4634 00f9 05       		.byte	0x5
 4635 00fa 00       		.uleb128 0
 4636 00fb 3C470000 		.4byte	.LASF41
 4637 00ff 05       		.byte	0x5
 4638 0100 00       		.uleb128 0
 4639 0101 424F0000 		.4byte	.LASF42
 4640 0105 05       		.byte	0x5
 4641 0106 00       		.uleb128 0
 4642 0107 0D3B0000 		.4byte	.LASF43
 4643 010b 05       		.byte	0x5
 4644 010c 00       		.uleb128 0
 4645 010d 26710000 		.4byte	.LASF44
 4646 0111 05       		.byte	0x5
 4647 0112 00       		.uleb128 0
 4648 0113 1B690000 		.4byte	.LASF45
 4649 0117 05       		.byte	0x5
 4650 0118 00       		.uleb128 0
 4651 0119 F8170000 		.4byte	.LASF46
 4652 011d 05       		.byte	0x5
 4653 011e 00       		.uleb128 0
 4654 011f B5750000 		.4byte	.LASF47
 4655 0123 05       		.byte	0x5
 4656 0124 00       		.uleb128 0
 4657 0125 E8570000 		.4byte	.LASF48
 4658 0129 05       		.byte	0x5
 4659 012a 00       		.uleb128 0
ARM GAS  C:\Users\STUDENT\AppData\Local\Temp\cc6DO5vW.s 			page 96


 4660 012b 71110000 		.4byte	.LASF49
 4661 012f 05       		.byte	0x5
 4662 0130 00       		.uleb128 0
 4663 0131 4D150000 		.4byte	.LASF50
 4664 0135 05       		.byte	0x5
 4665 0136 00       		.uleb128 0
 4666 0137 0C3D0000 		.4byte	.LASF51
 4667 013b 05       		.byte	0x5
 4668 013c 00       		.uleb128 0
 4669 013d 86630000 		.4byte	.LASF52
 4670 0141 05       		.byte	0x5
 4671 0142 00       		.uleb128 0
 4672 0143 DB3E0000 		.4byte	.LASF53
 4673 0147 05       		.byte	0x5
 4674 0148 00       		.uleb128 0
 4675 0149 27170000 		.4byte	.LASF54
 4676 014d 05       		.byte	0x5
 4677 014e 00       		.uleb128 0
 4678 014f CE5B0000 		.4byte	.LASF55
 4679 0153 05       		.byte	0x5
 4680 0154 00       		.uleb128 0
 4681 0155 7E400000 		.4byte	.LASF56
 4682 0159 05       		.byte	0x5
 4683 015a 00       		.uleb128 0
 4684 015b C70B0000 		.4byte	.LASF57
 4685 015f 05       		.byte	0x5
 4686 0160 00       		.uleb128 0
 4687 0161 633C0000 		.4byte	.LASF58
 4688 0165 05       		.byte	0x5
 4689 0166 00       		.uleb128 0
 4690 0167 7F740000 		.4byte	.LASF59
 4691 016b 05       		.byte	0x5
 4692 016c 00       		.uleb128 0
 4693 016d E71F0000 		.4byte	.LASF60
 4694 0171 05       		.byte	0x5
 4695 0172 00       		.uleb128 0
 4696 0173 26270000 		.4byte	.LASF61
 4697 0177 05       		.byte	0x5
 4698 0178 00       		.uleb128 0
 4699 0179 D3670000 		.4byte	.LASF62
 4700 017d 05       		.byte	0x5
 4701 017e 00       		.uleb128 0
 4702 017f 01680000 		.4byte	.LASF63
 4703 0183 05       		.byte	0x5
 4704 0184 00       		.uleb128 0
 4705 0185 D3380000 		.4byte	.LASF64
 4706 0189 05       		.byte	0x5
 4707 018a 00       		.uleb128 0
 4708 018b 3B2C0000 		.4byte	.LASF65
 4709 018f 05       		.byte	0x5
 4710 0190 00       		.uleb128 0
 4711 0191 8A270000 		.4byte	.LASF66
 4712 0195 05       		.byte	0x5
 4713 0196 00       		.uleb128 0
 4714 0197 204E0000 		.4byte	.LASF67
 4715 019b 05       		.byte	0x5
 4716 019c 00       		.uleb128 0
ARM GAS  C:\Users\STUDENT\AppData\Local\Temp\cc6DO5vW.s 			page 97


 4717 019d 3F5A0000 		.4byte	.LASF68
 4718 01a1 05       		.byte	0x5
 4719 01a2 00       		.uleb128 0
 4720 01a3 507D0000 		.4byte	.LASF69
 4721 01a7 05       		.byte	0x5
 4722 01a8 00       		.uleb128 0
 4723 01a9 28780000 		.4byte	.LASF70
 4724 01ad 05       		.byte	0x5
 4725 01ae 00       		.uleb128 0
 4726 01af E6530000 		.4byte	.LASF71
 4727 01b3 05       		.byte	0x5
 4728 01b4 00       		.uleb128 0
 4729 01b5 2D040000 		.4byte	.LASF72
 4730 01b9 05       		.byte	0x5
 4731 01ba 00       		.uleb128 0
 4732 01bb 87010000 		.4byte	.LASF73
 4733 01bf 05       		.byte	0x5
 4734 01c0 00       		.uleb128 0
 4735 01c1 E35A0000 		.4byte	.LASF74
 4736 01c5 05       		.byte	0x5
 4737 01c6 00       		.uleb128 0
 4738 01c7 4B750000 		.4byte	.LASF75
 4739 01cb 05       		.byte	0x5
 4740 01cc 00       		.uleb128 0
 4741 01cd BC020000 		.4byte	.LASF76
 4742 01d1 05       		.byte	0x5
 4743 01d2 00       		.uleb128 0
 4744 01d3 B9770000 		.4byte	.LASF77
 4745 01d7 05       		.byte	0x5
 4746 01d8 00       		.uleb128 0
 4747 01d9 48030000 		.4byte	.LASF78
 4748 01dd 05       		.byte	0x5
 4749 01de 00       		.uleb128 0
 4750 01df F1020000 		.4byte	.LASF79
 4751 01e3 05       		.byte	0x5
 4752 01e4 00       		.uleb128 0
 4753 01e5 A87C0000 		.4byte	.LASF80
 4754 01e9 05       		.byte	0x5
 4755 01ea 00       		.uleb128 0
 4756 01eb 90170000 		.4byte	.LASF81
 4757 01ef 05       		.byte	0x5
 4758 01f0 00       		.uleb128 0
 4759 01f1 3F660000 		.4byte	.LASF82
 4760 01f5 05       		.byte	0x5
 4761 01f6 00       		.uleb128 0
 4762 01f7 77320000 		.4byte	.LASF83
 4763 01fb 05       		.byte	0x5
 4764 01fc 00       		.uleb128 0
 4765 01fd AA180000 		.4byte	.LASF84
 4766 0201 05       		.byte	0x5
 4767 0202 00       		.uleb128 0
 4768 0203 4E6E0000 		.4byte	.LASF85
 4769 0207 05       		.byte	0x5
 4770 0208 00       		.uleb128 0
 4771 0209 353D0000 		.4byte	.LASF86
 4772 020d 05       		.byte	0x5
 4773 020e 00       		.uleb128 0
ARM GAS  C:\Users\STUDENT\AppData\Local\Temp\cc6DO5vW.s 			page 98


 4774 020f 8F410000 		.4byte	.LASF87
 4775 0213 05       		.byte	0x5
 4776 0214 00       		.uleb128 0
 4777 0215 81290000 		.4byte	.LASF88
 4778 0219 05       		.byte	0x5
 4779 021a 00       		.uleb128 0
 4780 021b 2B220000 		.4byte	.LASF89
 4781 021f 05       		.byte	0x5
 4782 0220 00       		.uleb128 0
 4783 0221 D4360000 		.4byte	.LASF90
 4784 0225 05       		.byte	0x5
 4785 0226 00       		.uleb128 0
 4786 0227 6D360000 		.4byte	.LASF91
 4787 022b 05       		.byte	0x5
 4788 022c 00       		.uleb128 0
 4789 022d 8F370000 		.4byte	.LASF92
 4790 0231 05       		.byte	0x5
 4791 0232 00       		.uleb128 0
 4792 0233 73540000 		.4byte	.LASF93
 4793 0237 05       		.byte	0x5
 4794 0238 00       		.uleb128 0
 4795 0239 D42A0000 		.4byte	.LASF94
 4796 023d 05       		.byte	0x5
 4797 023e 00       		.uleb128 0
 4798 023f C2790000 		.4byte	.LASF95
 4799 0243 05       		.byte	0x5
 4800 0244 00       		.uleb128 0
 4801 0245 776F0000 		.4byte	.LASF96
 4802 0249 05       		.byte	0x5
 4803 024a 00       		.uleb128 0
 4804 024b 870F0000 		.4byte	.LASF97
 4805 024f 05       		.byte	0x5
 4806 0250 00       		.uleb128 0
 4807 0251 13470000 		.4byte	.LASF98
 4808 0255 05       		.byte	0x5
 4809 0256 00       		.uleb128 0
 4810 0257 5B690000 		.4byte	.LASF99
 4811 025b 05       		.byte	0x5
 4812 025c 00       		.uleb128 0
 4813 025d A4320000 		.4byte	.LASF100
 4814 0261 05       		.byte	0x5
 4815 0262 00       		.uleb128 0
 4816 0263 D8090000 		.4byte	.LASF101
 4817 0267 05       		.byte	0x5
 4818 0268 00       		.uleb128 0
 4819 0269 4F1F0000 		.4byte	.LASF102
 4820 026d 05       		.byte	0x5
 4821 026e 00       		.uleb128 0
 4822 026f 066B0000 		.4byte	.LASF103
 4823 0273 05       		.byte	0x5
 4824 0274 00       		.uleb128 0
 4825 0275 8A390000 		.4byte	.LASF104
 4826 0279 05       		.byte	0x5
 4827 027a 00       		.uleb128 0
 4828 027b B52C0000 		.4byte	.LASF105
 4829 027f 05       		.byte	0x5
 4830 0280 00       		.uleb128 0
ARM GAS  C:\Users\STUDENT\AppData\Local\Temp\cc6DO5vW.s 			page 99


 4831 0281 C7580000 		.4byte	.LASF106
 4832 0285 05       		.byte	0x5
 4833 0286 00       		.uleb128 0
 4834 0287 14570000 		.4byte	.LASF107
 4835 028b 05       		.byte	0x5
 4836 028c 00       		.uleb128 0
 4837 028d F46F0000 		.4byte	.LASF108
 4838 0291 05       		.byte	0x5
 4839 0292 00       		.uleb128 0
 4840 0293 8C5E0000 		.4byte	.LASF109
 4841 0297 05       		.byte	0x5
 4842 0298 00       		.uleb128 0
 4843 0299 E6200000 		.4byte	.LASF110
 4844 029d 05       		.byte	0x5
 4845 029e 00       		.uleb128 0
 4846 029f 69160000 		.4byte	.LASF111
 4847 02a3 05       		.byte	0x5
 4848 02a4 00       		.uleb128 0
 4849 02a5 DB100000 		.4byte	.LASF112
 4850 02a9 05       		.byte	0x5
 4851 02aa 00       		.uleb128 0
 4852 02ab E6120000 		.4byte	.LASF113
 4853 02af 05       		.byte	0x5
 4854 02b0 00       		.uleb128 0
 4855 02b1 ED1A0000 		.4byte	.LASF114
 4856 02b5 05       		.byte	0x5
 4857 02b6 00       		.uleb128 0
 4858 02b7 F2580000 		.4byte	.LASF115
 4859 02bb 05       		.byte	0x5
 4860 02bc 00       		.uleb128 0
 4861 02bd 47130000 		.4byte	.LASF116
 4862 02c1 05       		.byte	0x5
 4863 02c2 00       		.uleb128 0
 4864 02c3 423E0000 		.4byte	.LASF117
 4865 02c7 05       		.byte	0x5
 4866 02c8 00       		.uleb128 0
 4867 02c9 D6200000 		.4byte	.LASF118
 4868 02cd 05       		.byte	0x5
 4869 02ce 00       		.uleb128 0
 4870 02cf 61130000 		.4byte	.LASF119
 4871 02d3 05       		.byte	0x5
 4872 02d4 00       		.uleb128 0
 4873 02d5 26360000 		.4byte	.LASF120
 4874 02d9 05       		.byte	0x5
 4875 02da 00       		.uleb128 0
 4876 02db 6E4C0000 		.4byte	.LASF121
 4877 02df 05       		.byte	0x5
 4878 02e0 00       		.uleb128 0
 4879 02e1 02450000 		.4byte	.LASF122
 4880 02e5 05       		.byte	0x5
 4881 02e6 00       		.uleb128 0
 4882 02e7 36400000 		.4byte	.LASF123
 4883 02eb 05       		.byte	0x5
 4884 02ec 00       		.uleb128 0
 4885 02ed 5F4D0000 		.4byte	.LASF124
 4886 02f1 05       		.byte	0x5
 4887 02f2 00       		.uleb128 0
ARM GAS  C:\Users\STUDENT\AppData\Local\Temp\cc6DO5vW.s 			page 100


 4888 02f3 574C0000 		.4byte	.LASF125
 4889 02f7 05       		.byte	0x5
 4890 02f8 00       		.uleb128 0
 4891 02f9 B71D0000 		.4byte	.LASF126
 4892 02fd 05       		.byte	0x5
 4893 02fe 00       		.uleb128 0
 4894 02ff 8B260000 		.4byte	.LASF127
 4895 0303 05       		.byte	0x5
 4896 0304 00       		.uleb128 0
 4897 0305 6E200000 		.4byte	.LASF128
 4898 0309 05       		.byte	0x5
 4899 030a 00       		.uleb128 0
 4900 030b E51D0000 		.4byte	.LASF129
 4901 030f 05       		.byte	0x5
 4902 0310 00       		.uleb128 0
 4903 0311 98430000 		.4byte	.LASF130
 4904 0315 05       		.byte	0x5
 4905 0316 00       		.uleb128 0
 4906 0317 5A240000 		.4byte	.LASF131
 4907 031b 05       		.byte	0x5
 4908 031c 00       		.uleb128 0
 4909 031d 352D0000 		.4byte	.LASF132
 4910 0321 05       		.byte	0x5
 4911 0322 00       		.uleb128 0
 4912 0323 572B0000 		.4byte	.LASF133
 4913 0327 05       		.byte	0x5
 4914 0328 00       		.uleb128 0
 4915 0329 39080000 		.4byte	.LASF134
 4916 032d 05       		.byte	0x5
 4917 032e 00       		.uleb128 0
 4918 032f CC390000 		.4byte	.LASF135
 4919 0333 05       		.byte	0x5
 4920 0334 00       		.uleb128 0
 4921 0335 D11E0000 		.4byte	.LASF136
 4922 0339 05       		.byte	0x5
 4923 033a 00       		.uleb128 0
 4924 033b CE7C0000 		.4byte	.LASF137
 4925 033f 05       		.byte	0x5
 4926 0340 00       		.uleb128 0
 4927 0341 6D680000 		.4byte	.LASF138
 4928 0345 05       		.byte	0x5
 4929 0346 00       		.uleb128 0
 4930 0347 38550000 		.4byte	.LASF139
 4931 034b 05       		.byte	0x5
 4932 034c 00       		.uleb128 0
 4933 034d F57A0000 		.4byte	.LASF140
 4934 0351 05       		.byte	0x5
 4935 0352 00       		.uleb128 0
 4936 0353 CA3F0000 		.4byte	.LASF141
 4937 0357 05       		.byte	0x5
 4938 0358 00       		.uleb128 0
 4939 0359 FA050000 		.4byte	.LASF142
 4940 035d 05       		.byte	0x5
 4941 035e 00       		.uleb128 0
 4942 035f 3F6D0000 		.4byte	.LASF143
 4943 0363 05       		.byte	0x5
 4944 0364 00       		.uleb128 0
ARM GAS  C:\Users\STUDENT\AppData\Local\Temp\cc6DO5vW.s 			page 101


 4945 0365 17760000 		.4byte	.LASF144
 4946 0369 05       		.byte	0x5
 4947 036a 00       		.uleb128 0
 4948 036b 99160000 		.4byte	.LASF145
 4949 036f 05       		.byte	0x5
 4950 0370 00       		.uleb128 0
 4951 0371 D60D0000 		.4byte	.LASF146
 4952 0375 05       		.byte	0x5
 4953 0376 00       		.uleb128 0
 4954 0377 1B700000 		.4byte	.LASF147
 4955 037b 05       		.byte	0x5
 4956 037c 00       		.uleb128 0
 4957 037d 152A0000 		.4byte	.LASF148
 4958 0381 05       		.byte	0x5
 4959 0382 00       		.uleb128 0
 4960 0383 F16B0000 		.4byte	.LASF149
 4961 0387 05       		.byte	0x5
 4962 0388 00       		.uleb128 0
 4963 0389 E9710000 		.4byte	.LASF150
 4964 038d 05       		.byte	0x5
 4965 038e 00       		.uleb128 0
 4966 038f 4D090000 		.4byte	.LASF151
 4967 0393 05       		.byte	0x5
 4968 0394 00       		.uleb128 0
 4969 0395 3B750000 		.4byte	.LASF152
 4970 0399 05       		.byte	0x5
 4971 039a 00       		.uleb128 0
 4972 039b 34090000 		.4byte	.LASF153
 4973 039f 05       		.byte	0x5
 4974 03a0 00       		.uleb128 0
 4975 03a1 1C500000 		.4byte	.LASF154
 4976 03a5 05       		.byte	0x5
 4977 03a6 00       		.uleb128 0
 4978 03a7 A9290000 		.4byte	.LASF155
 4979 03ab 05       		.byte	0x5
 4980 03ac 00       		.uleb128 0
 4981 03ad 504B0000 		.4byte	.LASF156
 4982 03b1 05       		.byte	0x5
 4983 03b2 00       		.uleb128 0
 4984 03b3 A6000000 		.4byte	.LASF157
 4985 03b7 05       		.byte	0x5
 4986 03b8 00       		.uleb128 0
 4987 03b9 9B440000 		.4byte	.LASF158
 4988 03bd 05       		.byte	0x5
 4989 03be 00       		.uleb128 0
 4990 03bf 246A0000 		.4byte	.LASF159
 4991 03c3 05       		.byte	0x5
 4992 03c4 00       		.uleb128 0
 4993 03c5 4A3F0000 		.4byte	.LASF160
 4994 03c9 05       		.byte	0x5
 4995 03ca 00       		.uleb128 0
 4996 03cb 62410000 		.4byte	.LASF161
 4997 03cf 05       		.byte	0x5
 4998 03d0 00       		.uleb128 0
 4999 03d1 A7560000 		.4byte	.LASF162
 5000 03d5 05       		.byte	0x5
 5001 03d6 00       		.uleb128 0
ARM GAS  C:\Users\STUDENT\AppData\Local\Temp\cc6DO5vW.s 			page 102


 5002 03d7 38310000 		.4byte	.LASF163
 5003 03db 05       		.byte	0x5
 5004 03dc 00       		.uleb128 0
 5005 03dd 77450000 		.4byte	.LASF164
 5006 03e1 05       		.byte	0x5
 5007 03e2 00       		.uleb128 0
 5008 03e3 EE510000 		.4byte	.LASF165
 5009 03e7 05       		.byte	0x5
 5010 03e8 00       		.uleb128 0
 5011 03e9 A2280000 		.4byte	.LASF166
 5012 03ed 05       		.byte	0x5
 5013 03ee 00       		.uleb128 0
 5014 03ef 843B0000 		.4byte	.LASF167
 5015 03f3 05       		.byte	0x5
 5016 03f4 00       		.uleb128 0
 5017 03f5 40070000 		.4byte	.LASF168
 5018 03f9 05       		.byte	0x5
 5019 03fa 00       		.uleb128 0
 5020 03fb 79130000 		.4byte	.LASF169
 5021 03ff 05       		.byte	0x5
 5022 0400 00       		.uleb128 0
 5023 0401 24110000 		.4byte	.LASF170
 5024 0405 05       		.byte	0x5
 5025 0406 00       		.uleb128 0
 5026 0407 6C030000 		.4byte	.LASF171
 5027 040b 05       		.byte	0x5
 5028 040c 00       		.uleb128 0
 5029 040d A3590000 		.4byte	.LASF172
 5030 0411 05       		.byte	0x5
 5031 0412 00       		.uleb128 0
 5032 0413 B34E0000 		.4byte	.LASF173
 5033 0417 05       		.byte	0x5
 5034 0418 00       		.uleb128 0
 5035 0419 D6070000 		.4byte	.LASF174
 5036 041d 05       		.byte	0x5
 5037 041e 00       		.uleb128 0
 5038 041f 056D0000 		.4byte	.LASF175
 5039 0423 05       		.byte	0x5
 5040 0424 00       		.uleb128 0
 5041 0425 2F1D0000 		.4byte	.LASF176
 5042 0429 05       		.byte	0x5
 5043 042a 00       		.uleb128 0
 5044 042b 38060000 		.4byte	.LASF177
 5045 042f 05       		.byte	0x5
 5046 0430 00       		.uleb128 0
 5047 0431 F4340000 		.4byte	.LASF178
 5048 0435 05       		.byte	0x5
 5049 0436 00       		.uleb128 0
 5050 0437 B04F0000 		.4byte	.LASF179
 5051 043b 05       		.byte	0x5
 5052 043c 00       		.uleb128 0
 5053 043d F5160000 		.4byte	.LASF180
 5054 0441 05       		.byte	0x5
 5055 0442 00       		.uleb128 0
 5056 0443 BE200000 		.4byte	.LASF181
 5057 0447 05       		.byte	0x5
 5058 0448 00       		.uleb128 0
ARM GAS  C:\Users\STUDENT\AppData\Local\Temp\cc6DO5vW.s 			page 103


 5059 0449 42690000 		.4byte	.LASF182
 5060 044d 05       		.byte	0x5
 5061 044e 00       		.uleb128 0
 5062 044f 84200000 		.4byte	.LASF183
 5063 0453 05       		.byte	0x5
 5064 0454 00       		.uleb128 0
 5065 0455 0E010000 		.4byte	.LASF184
 5066 0459 05       		.byte	0x5
 5067 045a 00       		.uleb128 0
 5068 045b 80220000 		.4byte	.LASF185
 5069 045f 05       		.byte	0x5
 5070 0460 00       		.uleb128 0
 5071 0461 E5010000 		.4byte	.LASF186
 5072 0465 05       		.byte	0x5
 5073 0466 00       		.uleb128 0
 5074 0467 36490000 		.4byte	.LASF187
 5075 046b 05       		.byte	0x5
 5076 046c 00       		.uleb128 0
 5077 046d 843A0000 		.4byte	.LASF188
 5078 0471 05       		.byte	0x5
 5079 0472 00       		.uleb128 0
 5080 0473 64790000 		.4byte	.LASF189
 5081 0477 05       		.byte	0x5
 5082 0478 00       		.uleb128 0
 5083 0479 550F0000 		.4byte	.LASF190
 5084 047d 05       		.byte	0x5
 5085 047e 00       		.uleb128 0
 5086 047f A1350000 		.4byte	.LASF191
 5087 0483 05       		.byte	0x5
 5088 0484 00       		.uleb128 0
 5089 0485 BA280000 		.4byte	.LASF192
 5090 0489 05       		.byte	0x5
 5091 048a 00       		.uleb128 0
 5092 048b 21290000 		.4byte	.LASF193
 5093 048f 05       		.byte	0x5
 5094 0490 00       		.uleb128 0
 5095 0491 190D0000 		.4byte	.LASF194
 5096 0495 05       		.byte	0x5
 5097 0496 00       		.uleb128 0
 5098 0497 25350000 		.4byte	.LASF195
 5099 049b 05       		.byte	0x5
 5100 049c 00       		.uleb128 0
 5101 049d BF1E0000 		.4byte	.LASF196
 5102 04a1 05       		.byte	0x5
 5103 04a2 00       		.uleb128 0
 5104 04a3 8E6A0000 		.4byte	.LASF197
 5105 04a7 05       		.byte	0x5
 5106 04a8 00       		.uleb128 0
 5107 04a9 52060000 		.4byte	.LASF198
 5108 04ad 05       		.byte	0x5
 5109 04ae 00       		.uleb128 0
 5110 04af 3D4C0000 		.4byte	.LASF199
 5111 04b3 05       		.byte	0x5
 5112 04b4 00       		.uleb128 0
 5113 04b5 D13C0000 		.4byte	.LASF200
 5114 04b9 05       		.byte	0x5
 5115 04ba 00       		.uleb128 0
ARM GAS  C:\Users\STUDENT\AppData\Local\Temp\cc6DO5vW.s 			page 104


 5116 04bb F36A0000 		.4byte	.LASF201
 5117 04bf 05       		.byte	0x5
 5118 04c0 00       		.uleb128 0
 5119 04c1 4D540000 		.4byte	.LASF202
 5120 04c5 05       		.byte	0x5
 5121 04c6 00       		.uleb128 0
 5122 04c7 95130000 		.4byte	.LASF203
 5123 04cb 05       		.byte	0x5
 5124 04cc 00       		.uleb128 0
 5125 04cd 5B480000 		.4byte	.LASF204
 5126 04d1 05       		.byte	0x5
 5127 04d2 00       		.uleb128 0
 5128 04d3 D8430000 		.4byte	.LASF205
 5129 04d7 05       		.byte	0x5
 5130 04d8 00       		.uleb128 0
 5131 04d9 5F470000 		.4byte	.LASF206
 5132 04dd 05       		.byte	0x5
 5133 04de 00       		.uleb128 0
 5134 04df 81540000 		.4byte	.LASF207
 5135 04e3 05       		.byte	0x5
 5136 04e4 00       		.uleb128 0
 5137 04e5 0F040000 		.4byte	.LASF208
 5138 04e9 05       		.byte	0x5
 5139 04ea 00       		.uleb128 0
 5140 04eb 621D0000 		.4byte	.LASF209
 5141 04ef 05       		.byte	0x5
 5142 04f0 00       		.uleb128 0
 5143 04f1 5C500000 		.4byte	.LASF210
 5144 04f5 05       		.byte	0x5
 5145 04f6 00       		.uleb128 0
 5146 04f7 960E0000 		.4byte	.LASF211
 5147 04fb 05       		.byte	0x5
 5148 04fc 00       		.uleb128 0
 5149 04fd E27C0000 		.4byte	.LASF212
 5150 0501 05       		.byte	0x5
 5151 0502 00       		.uleb128 0
 5152 0503 B95F0000 		.4byte	.LASF213
 5153 0507 05       		.byte	0x5
 5154 0508 00       		.uleb128 0
 5155 0509 735C0000 		.4byte	.LASF214
 5156 050d 05       		.byte	0x5
 5157 050e 00       		.uleb128 0
 5158 050f 7C680000 		.4byte	.LASF215
 5159 0513 05       		.byte	0x5
 5160 0514 00       		.uleb128 0
 5161 0515 59760000 		.4byte	.LASF216
 5162 0519 05       		.byte	0x5
 5163 051a 00       		.uleb128 0
 5164 051b 15730000 		.4byte	.LASF217
 5165 051f 05       		.byte	0x5
 5166 0520 00       		.uleb128 0
 5167 0521 976F0000 		.4byte	.LASF218
 5168 0525 05       		.byte	0x5
 5169 0526 00       		.uleb128 0
 5170 0527 CD660000 		.4byte	.LASF219
 5171 052b 05       		.byte	0x5
 5172 052c 00       		.uleb128 0
ARM GAS  C:\Users\STUDENT\AppData\Local\Temp\cc6DO5vW.s 			page 105


 5173 052d 29790000 		.4byte	.LASF220
 5174 0531 05       		.byte	0x5
 5175 0532 00       		.uleb128 0
 5176 0533 6B0B0000 		.4byte	.LASF221
 5177 0537 05       		.byte	0x5
 5178 0538 00       		.uleb128 0
 5179 0539 26420000 		.4byte	.LASF222
 5180 053d 05       		.byte	0x5
 5181 053e 00       		.uleb128 0
 5182 053f 86720000 		.4byte	.LASF223
 5183 0543 05       		.byte	0x5
 5184 0544 00       		.uleb128 0
 5185 0545 3C190000 		.4byte	.LASF224
 5186 0549 05       		.byte	0x5
 5187 054a 00       		.uleb128 0
 5188 054b 426F0000 		.4byte	.LASF225
 5189 054f 05       		.byte	0x5
 5190 0550 00       		.uleb128 0
 5191 0551 A17D0000 		.4byte	.LASF226
 5192 0555 05       		.byte	0x5
 5193 0556 00       		.uleb128 0
 5194 0557 17200000 		.4byte	.LASF227
 5195 055b 05       		.byte	0x5
 5196 055c 00       		.uleb128 0
 5197 055d 515C0000 		.4byte	.LASF228
 5198 0561 05       		.byte	0x5
 5199 0562 00       		.uleb128 0
 5200 0563 B8670000 		.4byte	.LASF229
 5201 0567 05       		.byte	0x5
 5202 0568 00       		.uleb128 0
 5203 0569 F9730000 		.4byte	.LASF230
 5204 056d 05       		.byte	0x5
 5205 056e 00       		.uleb128 0
 5206 056f 40300000 		.4byte	.LASF231
 5207 0573 05       		.byte	0x5
 5208 0574 00       		.uleb128 0
 5209 0575 D54C0000 		.4byte	.LASF232
 5210 0579 05       		.byte	0x5
 5211 057a 00       		.uleb128 0
 5212 057b E3080000 		.4byte	.LASF233
 5213 057f 05       		.byte	0x5
 5214 0580 00       		.uleb128 0
 5215 0581 23070000 		.4byte	.LASF234
 5216 0585 05       		.byte	0x5
 5217 0586 00       		.uleb128 0
 5218 0587 21660000 		.4byte	.LASF235
 5219 058b 05       		.byte	0x5
 5220 058c 00       		.uleb128 0
 5221 058d DB150000 		.4byte	.LASF236
 5222 0591 05       		.byte	0x5
 5223 0592 00       		.uleb128 0
 5224 0593 5D6A0000 		.4byte	.LASF237
 5225 0597 05       		.byte	0x5
 5226 0598 00       		.uleb128 0
 5227 0599 5F040000 		.4byte	.LASF238
 5228 059d 05       		.byte	0x5
 5229 059e 00       		.uleb128 0
ARM GAS  C:\Users\STUDENT\AppData\Local\Temp\cc6DO5vW.s 			page 106


 5230 059f E3390000 		.4byte	.LASF239
 5231 05a3 05       		.byte	0x5
 5232 05a4 00       		.uleb128 0
 5233 05a5 01750000 		.4byte	.LASF240
 5234 05a9 05       		.byte	0x5
 5235 05aa 00       		.uleb128 0
 5236 05ab BC430000 		.4byte	.LASF241
 5237 05af 05       		.byte	0x5
 5238 05b0 00       		.uleb128 0
 5239 05b1 FA150000 		.4byte	.LASF242
 5240 05b5 05       		.byte	0x5
 5241 05b6 00       		.uleb128 0
 5242 05b7 202D0000 		.4byte	.LASF243
 5243 05bb 05       		.byte	0x5
 5244 05bc 00       		.uleb128 0
 5245 05bd F5720000 		.4byte	.LASF244
 5246 05c1 05       		.byte	0x5
 5247 05c2 00       		.uleb128 0
 5248 05c3 960D0000 		.4byte	.LASF245
 5249 05c7 05       		.byte	0x5
 5250 05c8 00       		.uleb128 0
 5251 05c9 25310000 		.4byte	.LASF246
 5252 05cd 05       		.byte	0x5
 5253 05ce 00       		.uleb128 0
 5254 05cf 70690000 		.4byte	.LASF247
 5255 05d3 05       		.byte	0x5
 5256 05d4 00       		.uleb128 0
 5257 05d5 D06F0000 		.4byte	.LASF248
 5258 05d9 05       		.byte	0x5
 5259 05da 00       		.uleb128 0
 5260 05db B45C0000 		.4byte	.LASF249
 5261 05df 05       		.byte	0x5
 5262 05e0 00       		.uleb128 0
 5263 05e1 9F020000 		.4byte	.LASF250
 5264 05e5 05       		.byte	0x5
 5265 05e6 00       		.uleb128 0
 5266 05e7 D06D0000 		.4byte	.LASF251
 5267 05eb 05       		.byte	0x5
 5268 05ec 00       		.uleb128 0
 5269 05ed 2B5A0000 		.4byte	.LASF252
 5270 05f1 05       		.byte	0x5
 5271 05f2 00       		.uleb128 0
 5272 05f3 5C440000 		.4byte	.LASF253
 5273 05f7 05       		.byte	0x5
 5274 05f8 00       		.uleb128 0
 5275 05f9 8F5F0000 		.4byte	.LASF254
 5276 05fd 05       		.byte	0x5
 5277 05fe 00       		.uleb128 0
 5278 05ff 1C750000 		.4byte	.LASF255
 5279 0603 05       		.byte	0x5
 5280 0604 00       		.uleb128 0
 5281 0605 11630000 		.4byte	.LASF256
 5282 0609 05       		.byte	0x5
 5283 060a 00       		.uleb128 0
 5284 060b 843C0000 		.4byte	.LASF257
 5285 060f 05       		.byte	0x5
 5286 0610 00       		.uleb128 0
ARM GAS  C:\Users\STUDENT\AppData\Local\Temp\cc6DO5vW.s 			page 107


 5287 0611 78020000 		.4byte	.LASF258
 5288 0615 05       		.byte	0x5
 5289 0616 00       		.uleb128 0
 5290 0617 B4350000 		.4byte	.LASF259
 5291 061b 05       		.byte	0x5
 5292 061c 00       		.uleb128 0
 5293 061d 3E5E0000 		.4byte	.LASF260
 5294 0621 05       		.byte	0x5
 5295 0622 00       		.uleb128 0
 5296 0623 52230000 		.4byte	.LASF261
 5297 0627 05       		.byte	0x5
 5298 0628 00       		.uleb128 0
 5299 0629 2D6F0000 		.4byte	.LASF262
 5300 062d 05       		.byte	0x5
 5301 062e 00       		.uleb128 0
 5302 062f 51700000 		.4byte	.LASF263
 5303 0633 05       		.byte	0x5
 5304 0634 00       		.uleb128 0
 5305 0635 8A060000 		.4byte	.LASF264
 5306 0639 05       		.byte	0x5
 5307 063a 00       		.uleb128 0
 5308 063b D4750000 		.4byte	.LASF265
 5309 063f 05       		.byte	0x5
 5310 0640 00       		.uleb128 0
 5311 0641 CC6E0000 		.4byte	.LASF266
 5312 0645 05       		.byte	0x5
 5313 0646 00       		.uleb128 0
 5314 0647 61620000 		.4byte	.LASF267
 5315 064b 05       		.byte	0x5
 5316 064c 00       		.uleb128 0
 5317 064d 0E770000 		.4byte	.LASF268
 5318 0651 05       		.byte	0x5
 5319 0652 00       		.uleb128 0
 5320 0653 32300000 		.4byte	.LASF269
 5321 0657 05       		.byte	0x5
 5322 0658 00       		.uleb128 0
 5323 0659 F60F0000 		.4byte	.LASF270
 5324 065d 05       		.byte	0x5
 5325 065e 00       		.uleb128 0
 5326 065f 93070000 		.4byte	.LASF271
 5327 0663 05       		.byte	0x5
 5328 0664 00       		.uleb128 0
 5329 0665 155B0000 		.4byte	.LASF272
 5330 0669 05       		.byte	0x5
 5331 066a 00       		.uleb128 0
 5332 066b EF5F0000 		.4byte	.LASF273
 5333 066f 05       		.byte	0x5
 5334 0670 00       		.uleb128 0
 5335 0671 70220000 		.4byte	.LASF274
 5336 0675 05       		.byte	0x5
 5337 0676 00       		.uleb128 0
 5338 0677 93030000 		.4byte	.LASF275
 5339 067b 05       		.byte	0x5
 5340 067c 00       		.uleb128 0
 5341 067d 644E0000 		.4byte	.LASF276
 5342 0681 05       		.byte	0x5
 5343 0682 00       		.uleb128 0
ARM GAS  C:\Users\STUDENT\AppData\Local\Temp\cc6DO5vW.s 			page 108


 5344 0683 11440000 		.4byte	.LASF277
 5345 0687 05       		.byte	0x5
 5346 0688 00       		.uleb128 0
 5347 0689 7C100000 		.4byte	.LASF278
 5348 068d 05       		.byte	0x5
 5349 068e 00       		.uleb128 0
 5350 068f 245B0000 		.4byte	.LASF279
 5351 0693 05       		.byte	0x5
 5352 0694 00       		.uleb128 0
 5353 0695 9B0F0000 		.4byte	.LASF280
 5354 0699 05       		.byte	0x5
 5355 069a 00       		.uleb128 0
 5356 069b 66630000 		.4byte	.LASF281
 5357 069f 05       		.byte	0x5
 5358 06a0 00       		.uleb128 0
 5359 06a1 F94A0000 		.4byte	.LASF282
 5360 06a5 05       		.byte	0x5
 5361 06a6 00       		.uleb128 0
 5362 06a7 D5720000 		.4byte	.LASF283
 5363 06ab 05       		.byte	0x5
 5364 06ac 00       		.uleb128 0
 5365 06ad 9F5D0000 		.4byte	.LASF284
 5366 06b1 05       		.byte	0x5
 5367 06b2 00       		.uleb128 0
 5368 06b3 63610000 		.4byte	.LASF285
 5369 06b7 05       		.byte	0x5
 5370 06b8 00       		.uleb128 0
 5371 06b9 CE270000 		.4byte	.LASF286
 5372 06bd 05       		.byte	0x5
 5373 06be 00       		.uleb128 0
 5374 06bf 45460000 		.4byte	.LASF287
 5375 06c3 05       		.byte	0x5
 5376 06c4 00       		.uleb128 0
 5377 06c5 72610000 		.4byte	.LASF288
 5378 06c9 05       		.byte	0x5
 5379 06ca 00       		.uleb128 0
 5380 06cb B43A0000 		.4byte	.LASF289
 5381 06cf 05       		.byte	0x5
 5382 06d0 00       		.uleb128 0
 5383 06d1 03520000 		.4byte	.LASF290
 5384 06d5 05       		.byte	0x5
 5385 06d6 00       		.uleb128 0
 5386 06d7 187A0000 		.4byte	.LASF291
 5387 06db 05       		.byte	0x5
 5388 06dc 00       		.uleb128 0
 5389 06dd 50310000 		.4byte	.LASF292
 5390 06e1 05       		.byte	0x5
 5391 06e2 00       		.uleb128 0
 5392 06e3 B9010000 		.4byte	.LASF293
 5393 06e7 05       		.byte	0x5
 5394 06e8 00       		.uleb128 0
 5395 06e9 B9000000 		.4byte	.LASF294
 5396 06ed 05       		.byte	0x5
 5397 06ee 00       		.uleb128 0
 5398 06ef D8740000 		.4byte	.LASF295
 5399 06f3 05       		.byte	0x5
 5400 06f4 00       		.uleb128 0
ARM GAS  C:\Users\STUDENT\AppData\Local\Temp\cc6DO5vW.s 			page 109


 5401 06f5 F54F0000 		.4byte	.LASF296
 5402 06f9 05       		.byte	0x5
 5403 06fa 00       		.uleb128 0
 5404 06fb 4F4D0000 		.4byte	.LASF297
 5405 06ff 05       		.byte	0x5
 5406 0700 00       		.uleb128 0
 5407 0701 5E170000 		.4byte	.LASF298
 5408 0705 05       		.byte	0x5
 5409 0706 00       		.uleb128 0
 5410 0707 166B0000 		.4byte	.LASF299
 5411 070b 05       		.byte	0x5
 5412 070c 00       		.uleb128 0
 5413 070d 51100000 		.4byte	.LASF300
 5414 0711 05       		.byte	0x5
 5415 0712 00       		.uleb128 0
 5416 0713 1D6F0000 		.4byte	.LASF301
 5417 0717 05       		.byte	0x5
 5418 0718 00       		.uleb128 0
 5419 0719 58680000 		.4byte	.LASF302
 5420 071d 05       		.byte	0x5
 5421 071e 00       		.uleb128 0
 5422 071f 56360000 		.4byte	.LASF303
 5423 0723 05       		.byte	0x5
 5424 0724 00       		.uleb128 0
 5425 0725 C60C0000 		.4byte	.LASF304
 5426 0729 05       		.byte	0x5
 5427 072a 00       		.uleb128 0
 5428 072b 346B0000 		.4byte	.LASF305
 5429 072f 05       		.byte	0x5
 5430 0730 00       		.uleb128 0
 5431 0731 22640000 		.4byte	.LASF306
 5432 0735 05       		.byte	0x5
 5433 0736 00       		.uleb128 0
 5434 0737 FC0A0000 		.4byte	.LASF307
 5435 073b 05       		.byte	0x5
 5436 073c 00       		.uleb128 0
 5437 073d 9F260000 		.4byte	.LASF308
 5438 0741 05       		.byte	0x5
 5439 0742 00       		.uleb128 0
 5440 0743 BD560000 		.4byte	.LASF309
 5441 0747 05       		.byte	0x5
 5442 0748 00       		.uleb128 0
 5443 0749 42180000 		.4byte	.LASF310
 5444 074d 05       		.byte	0x5
 5445 074e 00       		.uleb128 0
 5446 074f 37500000 		.4byte	.LASF311
 5447 0753 05       		.byte	0x5
 5448 0754 00       		.uleb128 0
 5449 0755 A83F0000 		.4byte	.LASF312
 5450 0759 05       		.byte	0x5
 5451 075a 00       		.uleb128 0
 5452 075b FF1E0000 		.4byte	.LASF313
 5453 075f 05       		.byte	0x5
 5454 0760 00       		.uleb128 0
 5455 0761 98010000 		.4byte	.LASF314
 5456 0765 05       		.byte	0x5
 5457 0766 00       		.uleb128 0
ARM GAS  C:\Users\STUDENT\AppData\Local\Temp\cc6DO5vW.s 			page 110


 5458 0767 6E2F0000 		.4byte	.LASF315
 5459 076b 05       		.byte	0x5
 5460 076c 00       		.uleb128 0
 5461 076d 05640000 		.4byte	.LASF316
 5462 0771 05       		.byte	0x5
 5463 0772 00       		.uleb128 0
 5464 0773 3E440000 		.4byte	.LASF317
 5465 0777 05       		.byte	0x5
 5466 0778 00       		.uleb128 0
 5467 0779 94460000 		.4byte	.LASF318
 5468 077d 05       		.byte	0x5
 5469 077e 00       		.uleb128 0
 5470 077f 53300000 		.4byte	.LASF319
 5471 0783 05       		.byte	0x5
 5472 0784 00       		.uleb128 0
 5473 0785 A7370000 		.4byte	.LASF320
 5474 0789 05       		.byte	0x5
 5475 078a 00       		.uleb128 0
 5476 078b 543A0000 		.4byte	.LASF321
 5477 078f 05       		.byte	0x5
 5478 0790 00       		.uleb128 0
 5479 0791 44260000 		.4byte	.LASF322
 5480 0795 05       		.byte	0x5
 5481 0796 00       		.uleb128 0
 5482 0797 81470000 		.4byte	.LASF323
 5483 079b 05       		.byte	0x5
 5484 079c 00       		.uleb128 0
 5485 079d 636F0000 		.4byte	.LASF324
 5486 07a1 05       		.byte	0x5
 5487 07a2 00       		.uleb128 0
 5488 07a3 F74E0000 		.4byte	.LASF325
 5489 07a7 05       		.byte	0x5
 5490 07a8 00       		.uleb128 0
 5491 07a9 C8370000 		.4byte	.LASF326
 5492 07ad 05       		.byte	0x5
 5493 07ae 00       		.uleb128 0
 5494 07af B2410000 		.4byte	.LASF327
 5495 07b3 05       		.byte	0x5
 5496 07b4 00       		.uleb128 0
 5497 07b5 F7660000 		.4byte	.LASF328
 5498 07b9 05       		.byte	0x5
 5499 07ba 00       		.uleb128 0
 5500 07bb 5F540000 		.4byte	.LASF329
 5501 07bf 05       		.byte	0x5
 5502 07c0 00       		.uleb128 0
 5503 07c1 7E7C0000 		.4byte	.LASF330
 5504 07c5 05       		.byte	0x5
 5505 07c6 00       		.uleb128 0
 5506 07c7 DD370000 		.4byte	.LASF331
 5507 07cb 05       		.byte	0x5
 5508 07cc 00       		.uleb128 0
 5509 07cd 93500000 		.4byte	.LASF332
 5510 07d1 05       		.byte	0x5
 5511 07d2 00       		.uleb128 0
 5512 07d3 A0380000 		.4byte	.LASF333
 5513 07d7 05       		.byte	0x5
 5514 07d8 00       		.uleb128 0
ARM GAS  C:\Users\STUDENT\AppData\Local\Temp\cc6DO5vW.s 			page 111


 5515 07d9 68080000 		.4byte	.LASF334
 5516 07dd 05       		.byte	0x5
 5517 07de 00       		.uleb128 0
 5518 07df 34510000 		.4byte	.LASF335
 5519 07e3 05       		.byte	0x5
 5520 07e4 00       		.uleb128 0
 5521 07e5 C1440000 		.4byte	.LASF336
 5522 07e9 05       		.byte	0x5
 5523 07ea 00       		.uleb128 0
 5524 07eb D55A0000 		.4byte	.LASF337
 5525 07ef 05       		.byte	0x5
 5526 07f0 00       		.uleb128 0
 5527 07f1 CD760000 		.4byte	.LASF338
 5528 07f5 05       		.byte	0x5
 5529 07f6 00       		.uleb128 0
 5530 07f7 86710000 		.4byte	.LASF339
 5531 07fb 05       		.byte	0x5
 5532 07fc 00       		.uleb128 0
 5533 07fd 9E530000 		.4byte	.LASF340
 5534 0801 05       		.byte	0x5
 5535 0802 00       		.uleb128 0
 5536 0803 EE760000 		.4byte	.LASF341
 5537 0807 05       		.byte	0x5
 5538 0808 00       		.uleb128 0
 5539 0809 0A620000 		.4byte	.LASF342
 5540 080d 05       		.byte	0x5
 5541 080e 00       		.uleb128 0
 5542 080f 3E3B0000 		.4byte	.LASF343
 5543 0813 05       		.byte	0x5
 5544 0814 00       		.uleb128 0
 5545 0815 F9110000 		.4byte	.LASF344
 5546 0819 05       		.byte	0x5
 5547 081a 00       		.uleb128 0
 5548 081b 26190000 		.4byte	.LASF345
 5549 081f 05       		.byte	0x5
 5550 0820 00       		.uleb128 0
 5551 0821 E3160000 		.4byte	.LASF346
 5552 0825 05       		.byte	0x5
 5553 0826 00       		.uleb128 0
 5554 0827 44320000 		.4byte	.LASF347
 5555 082b 05       		.byte	0x5
 5556 082c 00       		.uleb128 0
 5557 082d D2610000 		.4byte	.LASF348
 5558 0831 05       		.byte	0x5
 5559 0832 00       		.uleb128 0
 5560 0833 2C320000 		.4byte	.LASF349
 5561 0837 05       		.byte	0x5
 5562 0838 00       		.uleb128 0
 5563 0839 254F0000 		.4byte	.LASF350
 5564 083d 05       		.byte	0x5
 5565 083e 00       		.uleb128 0
 5566 083f DA700000 		.4byte	.LASF351
 5567 0843 05       		.byte	0x5
 5568 0844 00       		.uleb128 0
 5569 0845 4F3D0000 		.4byte	.LASF352
 5570 0849 05       		.byte	0x5
 5571 084a 00       		.uleb128 0
ARM GAS  C:\Users\STUDENT\AppData\Local\Temp\cc6DO5vW.s 			page 112


 5572 084b E1610000 		.4byte	.LASF353
 5573 084f 05       		.byte	0x5
 5574 0850 00       		.uleb128 0
 5575 0851 0F230000 		.4byte	.LASF354
 5576 0855 00       		.byte	0
 5577              		.section	.debug_macro,"G",%progbits,wm4.LPC17xx.h.27.964facdaadd4aa3f18ac78c8a78f0013,comdat
 5578              	.Ldebug_macro2:
 5579 0000 0400     		.2byte	0x4
 5580 0002 00       		.byte	0
 5581 0003 05       		.byte	0x5
 5582 0004 1B       		.uleb128 0x1b
 5583 0005 B2100000 		.4byte	.LASF356
 5584 0009 05       		.byte	0x5
 5585 000a 62       		.uleb128 0x62
 5586 000b C23D0000 		.4byte	.LASF357
 5587 000f 05       		.byte	0x5
 5588 0010 63       		.uleb128 0x63
 5589 0011 FD260000 		.4byte	.LASF358
 5590 0015 05       		.byte	0x5
 5591 0016 64       		.uleb128 0x64
 5592 0017 93540000 		.4byte	.LASF359
 5593 001b 00       		.byte	0
 5594              		.section	.debug_macro,"G",%progbits,wm4.core_cm3.h.32.ec4df48419563a0d596421d1133ac586,comdat
 5595              	.Ldebug_macro3:
 5596 0000 0400     		.2byte	0x4
 5597 0002 00       		.byte	0
 5598 0003 05       		.byte	0x5
 5599 0004 20       		.uleb128 0x20
 5600 0005 10270000 		.4byte	.LASF360
 5601 0009 05       		.byte	0x5
 5602 000a 37       		.uleb128 0x37
 5603 000b 83590000 		.4byte	.LASF361
 5604 000f 05       		.byte	0x5
 5605 0010 38       		.uleb128 0x38
 5606 0011 4F330000 		.4byte	.LASF362
 5607 0015 05       		.byte	0x5
 5608 0016 39       		.uleb128 0x39
 5609 0017 9C210000 		.4byte	.LASF363
 5610 001b 05       		.byte	0x5
 5611 001c 3B       		.uleb128 0x3b
 5612 001d FA3C0000 		.4byte	.LASF364
 5613 0021 05       		.byte	0x5
 5614 0022 47       		.uleb128 0x47
 5615 0023 B8110000 		.4byte	.LASF365
 5616 0027 05       		.byte	0x5
 5617 0028 48       		.uleb128 0x48
 5618 0029 177C0000 		.4byte	.LASF366
 5619 002d 00       		.byte	0
 5620              		.section	.debug_macro,"G",%progbits,wm4._newlib_version.h.4.ad342815780c8db09778091a421b5b5b,comda
 5621              	.Ldebug_macro4:
 5622 0000 0400     		.2byte	0x4
 5623 0002 00       		.byte	0
 5624 0003 05       		.byte	0x5
 5625 0004 04       		.uleb128 0x4
 5626 0005 28440000 		.4byte	.LASF370
 5627 0009 05       		.byte	0x5
 5628 000a 06       		.uleb128 0x6
ARM GAS  C:\Users\STUDENT\AppData\Local\Temp\cc6DO5vW.s 			page 113


 5629 000b 66400000 		.4byte	.LASF371
 5630 000f 05       		.byte	0x5
 5631 0010 07       		.uleb128 0x7
 5632 0011 551D0000 		.4byte	.LASF372
 5633 0015 05       		.byte	0x5
 5634 0016 08       		.uleb128 0x8
 5635 0017 610A0000 		.4byte	.LASF373
 5636 001b 05       		.byte	0x5
 5637 001c 09       		.uleb128 0x9
 5638 001d 2C590000 		.4byte	.LASF374
 5639 0021 00       		.byte	0
 5640              		.section	.debug_macro,"G",%progbits,wm4.features.h.33.863f3be0b2e521e624fcc7d6fa31d2ca,comdat
 5641              	.Ldebug_macro5:
 5642 0000 0400     		.2byte	0x4
 5643 0002 00       		.byte	0
 5644 0003 05       		.byte	0x5
 5645 0004 21       		.uleb128 0x21
 5646 0005 BC180000 		.4byte	.LASF375
 5647 0009 05       		.byte	0x5
 5648 000a 28       		.uleb128 0x28
 5649 000b 39670000 		.4byte	.LASF376
 5650 000f 06       		.byte	0x6
 5651 0010 8001     		.uleb128 0x80
 5652 0012 D9710000 		.4byte	.LASF377
 5653 0016 05       		.byte	0x5
 5654 0017 8101     		.uleb128 0x81
 5655 0019 013E0000 		.4byte	.LASF378
 5656 001d 06       		.byte	0x6
 5657 001e 8501     		.uleb128 0x85
 5658 0020 303B0000 		.4byte	.LASF379
 5659 0024 05       		.byte	0x5
 5660 0025 8601     		.uleb128 0x86
 5661 0027 6F740000 		.4byte	.LASF380
 5662 002b 06       		.byte	0x6
 5663 002c 8701     		.uleb128 0x87
 5664 002e 7F420000 		.4byte	.LASF381
 5665 0032 05       		.byte	0x5
 5666 0033 8801     		.uleb128 0x88
 5667 0035 D51A0000 		.4byte	.LASF382
 5668 0039 06       		.byte	0x6
 5669 003a 9B01     		.uleb128 0x9b
 5670 003c 08370000 		.4byte	.LASF383
 5671 0040 05       		.byte	0x5
 5672 0041 9C01     		.uleb128 0x9c
 5673 0043 48490000 		.4byte	.LASF384
 5674 0047 05       		.byte	0x5
 5675 0048 F201     		.uleb128 0xf2
 5676 004a 43350000 		.4byte	.LASF385
 5677 004e 05       		.byte	0x5
 5678 004f F801     		.uleb128 0xf8
 5679 0051 CB470000 		.4byte	.LASF386
 5680 0055 05       		.byte	0x5
 5681 0056 8002     		.uleb128 0x100
 5682 0058 FC5A0000 		.4byte	.LASF387
 5683 005c 05       		.byte	0x5
 5684 005d 8802     		.uleb128 0x108
 5685 005f D01D0000 		.4byte	.LASF388
ARM GAS  C:\Users\STUDENT\AppData\Local\Temp\cc6DO5vW.s 			page 114


 5686 0063 05       		.byte	0x5
 5687 0064 9002     		.uleb128 0x110
 5688 0066 191D0000 		.4byte	.LASF389
 5689 006a 05       		.byte	0x5
 5690 006b 9402     		.uleb128 0x114
 5691 006d 7B560000 		.4byte	.LASF390
 5692 0071 05       		.byte	0x5
 5693 0072 9A02     		.uleb128 0x11a
 5694 0074 9B4A0000 		.4byte	.LASF391
 5695 0078 05       		.byte	0x5
 5696 0079 AA02     		.uleb128 0x12a
 5697 007b F1290000 		.4byte	.LASF392
 5698 007f 05       		.byte	0x5
 5699 0080 BA02     		.uleb128 0x13a
 5700 0082 BC6E0000 		.4byte	.LASF393
 5701 0086 00       		.byte	0
 5702              		.section	.debug_macro,"G",%progbits,wm4._default_types.h.15.933e8edd27a65e0b69af4a865eb623d2,comda
 5703              	.Ldebug_macro6:
 5704 0000 0400     		.2byte	0x4
 5705 0002 00       		.byte	0
 5706 0003 05       		.byte	0x5
 5707 0004 0F       		.uleb128 0xf
 5708 0005 75490000 		.4byte	.LASF394
 5709 0009 05       		.byte	0x5
 5710 000a 21       		.uleb128 0x21
 5711 000b 703A0000 		.4byte	.LASF395
 5712 000f 05       		.byte	0x5
 5713 0010 2F       		.uleb128 0x2f
 5714 0011 94290000 		.4byte	.LASF396
 5715 0015 05       		.byte	0x5
 5716 0016 45       		.uleb128 0x45
 5717 0017 D9760000 		.4byte	.LASF397
 5718 001b 05       		.byte	0x5
 5719 001c 5F       		.uleb128 0x5f
 5720 001d 92560000 		.4byte	.LASF398
 5721 0021 05       		.byte	0x5
 5722 0022 7E       		.uleb128 0x7e
 5723 0023 800B0000 		.4byte	.LASF399
 5724 0027 05       		.byte	0x5
 5725 0028 9801     		.uleb128 0x98
 5726 002a C8160000 		.4byte	.LASF400
 5727 002e 05       		.byte	0x5
 5728 002f AE01     		.uleb128 0xae
 5729 0031 8E650000 		.4byte	.LASF401
 5730 0035 05       		.byte	0x5
 5731 0036 C001     		.uleb128 0xc0
 5732 0038 A6480000 		.4byte	.LASF402
 5733 003c 06       		.byte	0x6
 5734 003d D601     		.uleb128 0xd6
 5735 003f 8C560000 		.4byte	.LASF403
 5736 0043 00       		.byte	0
 5737              		.section	.debug_macro,"G",%progbits,wm4._intsup.h.10.b82bf99f69d6a5c085fc866de0d3eb9b,comdat
 5738              	.Ldebug_macro7:
 5739 0000 0400     		.2byte	0x4
 5740 0002 00       		.byte	0
 5741 0003 05       		.byte	0x5
 5742 0004 0A       		.uleb128 0xa
ARM GAS  C:\Users\STUDENT\AppData\Local\Temp\cc6DO5vW.s 			page 115


 5743 0005 86000000 		.4byte	.LASF404
 5744 0009 05       		.byte	0x5
 5745 000a 10       		.uleb128 0x10
 5746 000b 59490000 		.4byte	.LASF405
 5747 000f 05       		.byte	0x5
 5748 0010 1A       		.uleb128 0x1a
 5749 0011 AA5E0000 		.4byte	.LASF406
 5750 0015 05       		.byte	0x5
 5751 0016 21       		.uleb128 0x21
 5752 0017 8D6D0000 		.4byte	.LASF407
 5753 001b 06       		.byte	0x6
 5754 001c 38       		.uleb128 0x38
 5755 001d C33A0000 		.4byte	.LASF408
 5756 0021 06       		.byte	0x6
 5757 0022 39       		.uleb128 0x39
 5758 0023 320A0000 		.4byte	.LASF409
 5759 0027 06       		.byte	0x6
 5760 0028 3A       		.uleb128 0x3a
 5761 0029 86260000 		.4byte	.LASF410
 5762 002d 06       		.byte	0x6
 5763 002e 3B       		.uleb128 0x3b
 5764 002f 59470000 		.4byte	.LASF411
 5765 0033 02       		.byte	0x2
 5766 0034 3C       		.uleb128 0x3c
 5767 0035 696E7400 		.ascii	"int\000"
 5768 0039 06       		.byte	0x6
 5769 003a 3D       		.uleb128 0x3d
 5770 003b 0F7C0000 		.4byte	.LASF412
 5771 003f 06       		.byte	0x6
 5772 0040 3E       		.uleb128 0x3e
 5773 0041 0D540000 		.4byte	.LASF413
 5774 0045 05       		.byte	0x5
 5775 0046 3F       		.uleb128 0x3f
 5776 0047 650C0000 		.4byte	.LASF414
 5777 004b 05       		.byte	0x5
 5778 004c 40       		.uleb128 0x40
 5779 004d F5750000 		.4byte	.LASF415
 5780 0051 05       		.byte	0x5
 5781 0052 41       		.uleb128 0x41
 5782 0053 E74E0000 		.4byte	.LASF416
 5783 0057 05       		.byte	0x5
 5784 0058 42       		.uleb128 0x42
 5785 0059 277A0000 		.4byte	.LASF417
 5786 005d 05       		.byte	0x5
 5787 005e 43       		.uleb128 0x43
 5788 005f 2F410000 		.4byte	.LASF418
 5789 0063 05       		.byte	0x5
 5790 0064 44       		.uleb128 0x44
 5791 0065 153C0000 		.4byte	.LASF419
 5792 0069 05       		.byte	0x5
 5793 006a 45       		.uleb128 0x45
 5794 006b 64780000 		.4byte	.LASF420
 5795 006f 05       		.byte	0x5
 5796 0070 4E       		.uleb128 0x4e
 5797 0071 90380000 		.4byte	.LASF421
 5798 0075 05       		.byte	0x5
 5799 0076 55       		.uleb128 0x55
ARM GAS  C:\Users\STUDENT\AppData\Local\Temp\cc6DO5vW.s 			page 116


 5800 0077 83770000 		.4byte	.LASF422
 5801 007b 05       		.byte	0x5
 5802 007c 5D       		.uleb128 0x5d
 5803 007d DB0A0000 		.4byte	.LASF423
 5804 0081 05       		.byte	0x5
 5805 0082 68       		.uleb128 0x68
 5806 0083 0E380000 		.4byte	.LASF424
 5807 0087 05       		.byte	0x5
 5808 0088 73       		.uleb128 0x73
 5809 0089 CE700000 		.4byte	.LASF425
 5810 008d 05       		.byte	0x5
 5811 008e 7C       		.uleb128 0x7c
 5812 008f 14120000 		.4byte	.LASF426
 5813 0093 05       		.byte	0x5
 5814 0094 8301     		.uleb128 0x83
 5815 0096 B36E0000 		.4byte	.LASF427
 5816 009a 05       		.byte	0x5
 5817 009b 8C01     		.uleb128 0x8c
 5818 009d D01C0000 		.4byte	.LASF428
 5819 00a1 05       		.byte	0x5
 5820 00a2 9301     		.uleb128 0x93
 5821 00a4 25410000 		.4byte	.LASF429
 5822 00a8 05       		.byte	0x5
 5823 00a9 9E01     		.uleb128 0x9e
 5824 00ab DF3F0000 		.4byte	.LASF430
 5825 00af 05       		.byte	0x5
 5826 00b0 A201     		.uleb128 0xa2
 5827 00b2 822B0000 		.4byte	.LASF431
 5828 00b6 05       		.byte	0x5
 5829 00b7 AD01     		.uleb128 0xad
 5830 00b9 266B0000 		.4byte	.LASF432
 5831 00bd 05       		.byte	0x5
 5832 00be B801     		.uleb128 0xb8
 5833 00c0 06120000 		.4byte	.LASF433
 5834 00c4 05       		.byte	0x5
 5835 00c5 C101     		.uleb128 0xc1
 5836 00c7 BF520000 		.4byte	.LASF434
 5837 00cb 06       		.byte	0x6
 5838 00cc C301     		.uleb128 0xc3
 5839 00ce C33A0000 		.4byte	.LASF408
 5840 00d2 06       		.byte	0x6
 5841 00d3 C401     		.uleb128 0xc4
 5842 00d5 320A0000 		.4byte	.LASF409
 5843 00d9 06       		.byte	0x6
 5844 00da C501     		.uleb128 0xc5
 5845 00dc 86260000 		.4byte	.LASF410
 5846 00e0 06       		.byte	0x6
 5847 00e1 C601     		.uleb128 0xc6
 5848 00e3 59470000 		.4byte	.LASF411
 5849 00e7 02       		.byte	0x2
 5850 00e8 C701     		.uleb128 0xc7
 5851 00ea 696E7400 		.ascii	"int\000"
 5852 00ee 06       		.byte	0x6
 5853 00ef C801     		.uleb128 0xc8
 5854 00f1 0D540000 		.4byte	.LASF413
 5855 00f5 06       		.byte	0x6
 5856 00f6 CD01     		.uleb128 0xcd
ARM GAS  C:\Users\STUDENT\AppData\Local\Temp\cc6DO5vW.s 			page 117


 5857 00f8 0F7C0000 		.4byte	.LASF412
 5858 00fc 00       		.byte	0
 5859              		.section	.debug_macro,"G",%progbits,wm4._stdint.h.10.7a5f60e6741af4a5594a3867d347e1f9,comdat
 5860              	.Ldebug_macro8:
 5861 0000 0400     		.2byte	0x4
 5862 0002 00       		.byte	0
 5863 0003 05       		.byte	0x5
 5864 0004 0A       		.uleb128 0xa
 5865 0005 F13D0000 		.4byte	.LASF435
 5866 0009 05       		.byte	0x5
 5867 000a 15       		.uleb128 0x15
 5868 000b 6A700000 		.4byte	.LASF436
 5869 000f 05       		.byte	0x5
 5870 0010 19       		.uleb128 0x19
 5871 0011 3D1E0000 		.4byte	.LASF437
 5872 0015 05       		.byte	0x5
 5873 0016 1B       		.uleb128 0x1b
 5874 0017 022A0000 		.4byte	.LASF438
 5875 001b 05       		.byte	0x5
 5876 001c 21       		.uleb128 0x21
 5877 001d 09340000 		.4byte	.LASF439
 5878 0021 05       		.byte	0x5
 5879 0022 25       		.uleb128 0x25
 5880 0023 68100000 		.4byte	.LASF440
 5881 0027 05       		.byte	0x5
 5882 0028 27       		.uleb128 0x27
 5883 0029 12420000 		.4byte	.LASF441
 5884 002d 05       		.byte	0x5
 5885 002e 2D       		.uleb128 0x2d
 5886 002f A1030000 		.4byte	.LASF442
 5887 0033 05       		.byte	0x5
 5888 0034 31       		.uleb128 0x31
 5889 0035 07030000 		.4byte	.LASF443
 5890 0039 05       		.byte	0x5
 5891 003a 33       		.uleb128 0x33
 5892 003b 3D160000 		.4byte	.LASF444
 5893 003f 05       		.byte	0x5
 5894 0040 39       		.uleb128 0x39
 5895 0041 C0600000 		.4byte	.LASF445
 5896 0045 05       		.byte	0x5
 5897 0046 3D       		.uleb128 0x3d
 5898 0047 F5190000 		.4byte	.LASF446
 5899 004b 05       		.byte	0x5
 5900 004c 3F       		.uleb128 0x3f
 5901 004d 3A6E0000 		.4byte	.LASF447
 5902 0051 05       		.byte	0x5
 5903 0052 44       		.uleb128 0x44
 5904 0053 DC420000 		.4byte	.LASF448
 5905 0057 05       		.byte	0x5
 5906 0058 49       		.uleb128 0x49
 5907 0059 375F0000 		.4byte	.LASF449
 5908 005d 00       		.byte	0
 5909              		.section	.debug_macro,"G",%progbits,wm4.stdint.h.23.373a9d32a9e4c2e88fd347156532d281,comdat
 5910              	.Ldebug_macro9:
 5911 0000 0400     		.2byte	0x4
 5912 0002 00       		.byte	0
 5913 0003 05       		.byte	0x5
ARM GAS  C:\Users\STUDENT\AppData\Local\Temp\cc6DO5vW.s 			page 118


 5914 0004 17       		.uleb128 0x17
 5915 0005 4B780000 		.4byte	.LASF450
 5916 0009 05       		.byte	0x5
 5917 000a 1D       		.uleb128 0x1d
 5918 000b B62E0000 		.4byte	.LASF451
 5919 000f 05       		.byte	0x5
 5920 0010 23       		.uleb128 0x23
 5921 0011 3C360000 		.4byte	.LASF452
 5922 0015 05       		.byte	0x5
 5923 0016 29       		.uleb128 0x29
 5924 0017 60340000 		.4byte	.LASF453
 5925 001b 05       		.byte	0x5
 5926 001c 35       		.uleb128 0x35
 5927 001d 5F4F0000 		.4byte	.LASF454
 5928 0021 05       		.byte	0x5
 5929 0022 3F       		.uleb128 0x3f
 5930 0023 374B0000 		.4byte	.LASF455
 5931 0027 05       		.byte	0x5
 5932 0028 49       		.uleb128 0x49
 5933 0029 FE0E0000 		.4byte	.LASF456
 5934 002d 05       		.byte	0x5
 5935 002e 53       		.uleb128 0x53
 5936 002f F6220000 		.4byte	.LASF457
 5937 0033 05       		.byte	0x5
 5938 0034 9301     		.uleb128 0x93
 5939 0036 AE310000 		.4byte	.LASF458
 5940 003a 05       		.byte	0x5
 5941 003b 9401     		.uleb128 0x94
 5942 003d C74F0000 		.4byte	.LASF459
 5943 0041 05       		.byte	0x5
 5944 0042 9501     		.uleb128 0x95
 5945 0044 25480000 		.4byte	.LASF460
 5946 0048 05       		.byte	0x5
 5947 0049 AB01     		.uleb128 0xab
 5948 004b 17370000 		.4byte	.LASF461
 5949 004f 05       		.byte	0x5
 5950 0050 AC01     		.uleb128 0xac
 5951 0052 390C0000 		.4byte	.LASF462
 5952 0056 05       		.byte	0x5
 5953 0057 AD01     		.uleb128 0xad
 5954 0059 0E780000 		.4byte	.LASF463
 5955 005d 05       		.byte	0x5
 5956 005e B501     		.uleb128 0xb5
 5957 0060 9D6D0000 		.4byte	.LASF464
 5958 0064 05       		.byte	0x5
 5959 0065 B601     		.uleb128 0xb6
 5960 0067 94110000 		.4byte	.LASF465
 5961 006b 05       		.byte	0x5
 5962 006c B701     		.uleb128 0xb7
 5963 006e 40630000 		.4byte	.LASF466
 5964 0072 05       		.byte	0x5
 5965 0073 C101     		.uleb128 0xc1
 5966 0075 65510000 		.4byte	.LASF467
 5967 0079 05       		.byte	0x5
 5968 007a C201     		.uleb128 0xc2
 5969 007c 080E0000 		.4byte	.LASF468
 5970 0080 05       		.byte	0x5
ARM GAS  C:\Users\STUDENT\AppData\Local\Temp\cc6DO5vW.s 			page 119


 5971 0081 C301     		.uleb128 0xc3
 5972 0083 B7380000 		.4byte	.LASF469
 5973 0087 05       		.byte	0x5
 5974 0088 CB01     		.uleb128 0xcb
 5975 008a DB470000 		.4byte	.LASF470
 5976 008e 05       		.byte	0x5
 5977 008f CC01     		.uleb128 0xcc
 5978 0091 210B0000 		.4byte	.LASF471
 5979 0095 05       		.byte	0x5
 5980 0096 CD01     		.uleb128 0xcd
 5981 0098 8D2C0000 		.4byte	.LASF472
 5982 009c 05       		.byte	0x5
 5983 009d D701     		.uleb128 0xd7
 5984 009f EB610000 		.4byte	.LASF473
 5985 00a3 05       		.byte	0x5
 5986 00a4 D801     		.uleb128 0xd8
 5987 00a6 6C2A0000 		.4byte	.LASF474
 5988 00aa 05       		.byte	0x5
 5989 00ab D901     		.uleb128 0xd9
 5990 00ad 2A450000 		.4byte	.LASF475
 5991 00b1 05       		.byte	0x5
 5992 00b2 E701     		.uleb128 0xe7
 5993 00b4 432F0000 		.4byte	.LASF476
 5994 00b8 05       		.byte	0x5
 5995 00b9 E801     		.uleb128 0xe8
 5996 00bb 1D2F0000 		.4byte	.LASF477
 5997 00bf 05       		.byte	0x5
 5998 00c0 E901     		.uleb128 0xe9
 5999 00c2 11670000 		.4byte	.LASF478
 6000 00c6 05       		.byte	0x5
 6001 00c7 F901     		.uleb128 0xf9
 6002 00c9 616B0000 		.4byte	.LASF479
 6003 00cd 05       		.byte	0x5
 6004 00ce FA01     		.uleb128 0xfa
 6005 00d0 FC4B0000 		.4byte	.LASF480
 6006 00d4 05       		.byte	0x5
 6007 00d5 FB01     		.uleb128 0xfb
 6008 00d7 596C0000 		.4byte	.LASF481
 6009 00db 05       		.byte	0x5
 6010 00dc 8902     		.uleb128 0x109
 6011 00de 06130000 		.4byte	.LASF482
 6012 00e2 05       		.byte	0x5
 6013 00e3 8A02     		.uleb128 0x10a
 6014 00e5 8C100000 		.4byte	.LASF483
 6015 00e9 05       		.byte	0x5
 6016 00ea 8B02     		.uleb128 0x10b
 6017 00ec D0590000 		.4byte	.LASF484
 6018 00f0 05       		.byte	0x5
 6019 00f1 9902     		.uleb128 0x119
 6020 00f3 CF7B0000 		.4byte	.LASF485
 6021 00f7 05       		.byte	0x5
 6022 00f8 9A02     		.uleb128 0x11a
 6023 00fa ED210000 		.4byte	.LASF486
 6024 00fe 05       		.byte	0x5
 6025 00ff 9B02     		.uleb128 0x11b
 6026 0101 535A0000 		.4byte	.LASF487
 6027 0105 05       		.byte	0x5
ARM GAS  C:\Users\STUDENT\AppData\Local\Temp\cc6DO5vW.s 			page 120


 6028 0106 A902     		.uleb128 0x129
 6029 0108 98090000 		.4byte	.LASF488
 6030 010c 05       		.byte	0x5
 6031 010d AA02     		.uleb128 0x12a
 6032 010f BC4D0000 		.4byte	.LASF489
 6033 0113 05       		.byte	0x5
 6034 0114 AB02     		.uleb128 0x12b
 6035 0116 74660000 		.4byte	.LASF490
 6036 011a 05       		.byte	0x5
 6037 011b B902     		.uleb128 0x139
 6038 011d CA140000 		.4byte	.LASF491
 6039 0121 05       		.byte	0x5
 6040 0122 BA02     		.uleb128 0x13a
 6041 0124 277C0000 		.4byte	.LASF492
 6042 0128 05       		.byte	0x5
 6043 0129 BB02     		.uleb128 0x13b
 6044 012b 7C280000 		.4byte	.LASF493
 6045 012f 05       		.byte	0x5
 6046 0130 C902     		.uleb128 0x149
 6047 0132 D50E0000 		.4byte	.LASF494
 6048 0136 05       		.byte	0x5
 6049 0137 CA02     		.uleb128 0x14a
 6050 0139 4B740000 		.4byte	.LASF495
 6051 013d 05       		.byte	0x5
 6052 013e CB02     		.uleb128 0x14b
 6053 0140 E5450000 		.4byte	.LASF496
 6054 0144 05       		.byte	0x5
 6055 0145 D902     		.uleb128 0x159
 6056 0147 502A0000 		.4byte	.LASF497
 6057 014b 05       		.byte	0x5
 6058 014c DA02     		.uleb128 0x15a
 6059 014e 6B1E0000 		.4byte	.LASF498
 6060 0152 05       		.byte	0x5
 6061 0153 E202     		.uleb128 0x162
 6062 0155 C6400000 		.4byte	.LASF499
 6063 0159 05       		.byte	0x5
 6064 015a EA02     		.uleb128 0x16a
 6065 015c D05F0000 		.4byte	.LASF500
 6066 0160 05       		.byte	0x5
 6067 0161 F002     		.uleb128 0x170
 6068 0163 6E330000 		.4byte	.LASF501
 6069 0167 05       		.byte	0x5
 6070 0168 F102     		.uleb128 0x171
 6071 016a 20280000 		.4byte	.LASF502
 6072 016e 05       		.byte	0x5
 6073 016f F502     		.uleb128 0x175
 6074 0171 6F0C0000 		.4byte	.LASF503
 6075 0175 05       		.byte	0x5
 6076 0176 F902     		.uleb128 0x179
 6077 0178 DE260000 		.4byte	.LASF504
 6078 017c 05       		.byte	0x5
 6079 017d FE02     		.uleb128 0x17e
 6080 017f A51E0000 		.4byte	.LASF505
 6081 0183 05       		.byte	0x5
 6082 0184 8903     		.uleb128 0x189
 6083 0186 3D110000 		.4byte	.LASF506
 6084 018a 05       		.byte	0x5
ARM GAS  C:\Users\STUDENT\AppData\Local\Temp\cc6DO5vW.s 			page 121


 6085 018b 9303     		.uleb128 0x193
 6086 018d CD450000 		.4byte	.LASF507
 6087 0191 05       		.byte	0x5
 6088 0192 9803     		.uleb128 0x198
 6089 0194 48340000 		.4byte	.LASF508
 6090 0198 05       		.byte	0x5
 6091 0199 9F03     		.uleb128 0x19f
 6092 019b 1C3C0000 		.4byte	.LASF509
 6093 019f 05       		.byte	0x5
 6094 01a0 A003     		.uleb128 0x1a0
 6095 01a2 ED6C0000 		.4byte	.LASF510
 6096 01a6 05       		.byte	0x5
 6097 01a7 AB03     		.uleb128 0x1ab
 6098 01a9 3D0F0000 		.4byte	.LASF511
 6099 01ad 05       		.byte	0x5
 6100 01ae AC03     		.uleb128 0x1ac
 6101 01b0 28730000 		.4byte	.LASF512
 6102 01b4 05       		.byte	0x5
 6103 01b5 B703     		.uleb128 0x1b7
 6104 01b7 D5000000 		.4byte	.LASF513
 6105 01bb 05       		.byte	0x5
 6106 01bc B803     		.uleb128 0x1b8
 6107 01be 844C0000 		.4byte	.LASF514
 6108 01c2 05       		.byte	0x5
 6109 01c3 C403     		.uleb128 0x1c4
 6110 01c5 F0360000 		.4byte	.LASF515
 6111 01c9 05       		.byte	0x5
 6112 01ca C503     		.uleb128 0x1c5
 6113 01cc F7620000 		.4byte	.LASF516
 6114 01d0 05       		.byte	0x5
 6115 01d1 D403     		.uleb128 0x1d4
 6116 01d3 C4260000 		.4byte	.LASF517
 6117 01d7 05       		.byte	0x5
 6118 01d8 D503     		.uleb128 0x1d5
 6119 01da 5F560000 		.4byte	.LASF518
 6120 01de 00       		.byte	0
 6121              		.section	.debug_macro,"G",%progbits,wm4.core_cmInstr.h.25.367280a3dbe1a27f086157cbbb6352e1,comdat
 6122              	.Ldebug_macro10:
 6123 0000 0400     		.2byte	0x4
 6124 0002 00       		.byte	0
 6125 0003 05       		.byte	0x5
 6126 0004 19       		.uleb128 0x19
 6127 0005 FA760000 		.4byte	.LASF520
 6128 0009 05       		.byte	0x5
 6129 000a CE05     		.uleb128 0x2ce
 6130 000c FB380000 		.4byte	.LASF521
 6131 0010 05       		.byte	0x5
 6132 0011 DE05     		.uleb128 0x2de
 6133 0013 00000000 		.4byte	.LASF522
 6134 0017 00       		.byte	0
 6135              		.section	.debug_macro,"G",%progbits,wm4.core_cm3.h.90.d0c8a7fd6bb95729c958e48b22262446,comdat
 6136              	.Ldebug_macro11:
 6137 0000 0400     		.2byte	0x4
 6138 0002 00       		.byte	0
 6139 0003 05       		.byte	0x5
 6140 0004 5A       		.uleb128 0x5a
 6141 0005 0D410000 		.4byte	.LASF524
ARM GAS  C:\Users\STUDENT\AppData\Local\Temp\cc6DO5vW.s 			page 122


 6142 0009 05       		.byte	0x5
 6143 000a 60       		.uleb128 0x60
 6144 000b 6D6E0000 		.4byte	.LASF525
 6145 000f 05       		.byte	0x5
 6146 0010 62       		.uleb128 0x62
 6147 0011 0F330000 		.4byte	.LASF526
 6148 0015 05       		.byte	0x5
 6149 0016 63       		.uleb128 0x63
 6150 0017 756C0000 		.4byte	.LASF527
 6151 001b 05       		.byte	0x5
 6152 001c 8702     		.uleb128 0x107
 6153 001e BE5E0000 		.4byte	.LASF528
 6154 0022 05       		.byte	0x5
 6155 0023 8802     		.uleb128 0x108
 6156 0025 6D760000 		.4byte	.LASF529
 6157 0029 05       		.byte	0x5
 6158 002a 8A02     		.uleb128 0x10a
 6159 002c 24600000 		.4byte	.LASF530
 6160 0030 05       		.byte	0x5
 6161 0031 8B02     		.uleb128 0x10b
 6162 0033 9E4C0000 		.4byte	.LASF531
 6163 0037 05       		.byte	0x5
 6164 0038 8D02     		.uleb128 0x10d
 6165 003a CB2C0000 		.4byte	.LASF532
 6166 003e 05       		.byte	0x5
 6167 003f 8E02     		.uleb128 0x10e
 6168 0041 2F050000 		.4byte	.LASF533
 6169 0045 05       		.byte	0x5
 6170 0046 9002     		.uleb128 0x110
 6171 0048 AF420000 		.4byte	.LASF534
 6172 004c 05       		.byte	0x5
 6173 004d 9102     		.uleb128 0x111
 6174 004f AC540000 		.4byte	.LASF535
 6175 0053 05       		.byte	0x5
 6176 0054 9402     		.uleb128 0x114
 6177 0056 3E530000 		.4byte	.LASF536
 6178 005a 05       		.byte	0x5
 6179 005b 9502     		.uleb128 0x115
 6180 005d E22C0000 		.4byte	.LASF537
 6181 0061 05       		.byte	0x5
 6182 0062 9702     		.uleb128 0x117
 6183 0064 BD320000 		.4byte	.LASF538
 6184 0068 05       		.byte	0x5
 6185 0069 9802     		.uleb128 0x118
 6186 006b 66670000 		.4byte	.LASF539
 6187 006f 05       		.byte	0x5
 6188 0070 9A02     		.uleb128 0x11a
 6189 0072 566D0000 		.4byte	.LASF540
 6190 0076 05       		.byte	0x5
 6191 0077 9B02     		.uleb128 0x11b
 6192 0079 202B0000 		.4byte	.LASF541
 6193 007d 05       		.byte	0x5
 6194 007e 9D02     		.uleb128 0x11d
 6195 0080 1F0C0000 		.4byte	.LASF542
 6196 0084 05       		.byte	0x5
 6197 0085 9E02     		.uleb128 0x11e
 6198 0087 AC080000 		.4byte	.LASF543
ARM GAS  C:\Users\STUDENT\AppData\Local\Temp\cc6DO5vW.s 			page 123


 6199 008b 05       		.byte	0x5
 6200 008c A002     		.uleb128 0x120
 6201 008e 164C0000 		.4byte	.LASF544
 6202 0092 05       		.byte	0x5
 6203 0093 A102     		.uleb128 0x121
 6204 0095 01250000 		.4byte	.LASF545
 6205 0099 05       		.byte	0x5
 6206 009a A302     		.uleb128 0x123
 6207 009c 23530000 		.4byte	.LASF546
 6208 00a0 05       		.byte	0x5
 6209 00a1 A402     		.uleb128 0x124
 6210 00a3 B33B0000 		.4byte	.LASF547
 6211 00a7 05       		.byte	0x5
 6212 00a8 A602     		.uleb128 0x126
 6213 00aa D8280000 		.4byte	.LASF548
 6214 00ae 05       		.byte	0x5
 6215 00af A702     		.uleb128 0x127
 6216 00b1 013A0000 		.4byte	.LASF549
 6217 00b5 05       		.byte	0x5
 6218 00b6 A902     		.uleb128 0x129
 6219 00b8 8D2F0000 		.4byte	.LASF550
 6220 00bc 05       		.byte	0x5
 6221 00bd AA02     		.uleb128 0x12a
 6222 00bf A9300000 		.4byte	.LASF551
 6223 00c3 05       		.byte	0x5
 6224 00c4 AC02     		.uleb128 0x12c
 6225 00c6 621C0000 		.4byte	.LASF552
 6226 00ca 05       		.byte	0x5
 6227 00cb AD02     		.uleb128 0x12d
 6228 00cd FF480000 		.4byte	.LASF553
 6229 00d1 05       		.byte	0x5
 6230 00d2 AF02     		.uleb128 0x12f
 6231 00d4 BC0D0000 		.4byte	.LASF554
 6232 00d8 05       		.byte	0x5
 6233 00d9 B002     		.uleb128 0x130
 6234 00db 761F0000 		.4byte	.LASF555
 6235 00df 05       		.byte	0x5
 6236 00e0 B302     		.uleb128 0x133
 6237 00e2 8C750000 		.4byte	.LASF556
 6238 00e6 05       		.byte	0x5
 6239 00e7 B402     		.uleb128 0x134
 6240 00e9 9B680000 		.4byte	.LASF557
 6241 00ed 05       		.byte	0x5
 6242 00ee B602     		.uleb128 0x136
 6243 00f0 C3710000 		.4byte	.LASF558
 6244 00f4 05       		.byte	0x5
 6245 00f5 B702     		.uleb128 0x137
 6246 00f7 00020000 		.4byte	.LASF559
 6247 00fb 05       		.byte	0x5
 6248 00fc BA02     		.uleb128 0x13a
 6249 00fe 8F3F0000 		.4byte	.LASF560
 6250 0102 05       		.byte	0x5
 6251 0103 BB02     		.uleb128 0x13b
 6252 0105 5E3E0000 		.4byte	.LASF561
 6253 0109 05       		.byte	0x5
 6254 010a BD02     		.uleb128 0x13d
 6255 010c 73440000 		.4byte	.LASF562
ARM GAS  C:\Users\STUDENT\AppData\Local\Temp\cc6DO5vW.s 			page 124


 6256 0110 05       		.byte	0x5
 6257 0111 BE02     		.uleb128 0x13e
 6258 0113 8D7B0000 		.4byte	.LASF563
 6259 0117 05       		.byte	0x5
 6260 0118 C002     		.uleb128 0x140
 6261 011a E46D0000 		.4byte	.LASF564
 6262 011e 05       		.byte	0x5
 6263 011f C102     		.uleb128 0x141
 6264 0121 CE680000 		.4byte	.LASF565
 6265 0125 05       		.byte	0x5
 6266 0126 C302     		.uleb128 0x143
 6267 0128 38100000 		.4byte	.LASF566
 6268 012c 05       		.byte	0x5
 6269 012d C402     		.uleb128 0x144
 6270 012f 9C250000 		.4byte	.LASF567
 6271 0133 05       		.byte	0x5
 6272 0134 C602     		.uleb128 0x146
 6273 0136 F3320000 		.4byte	.LASF568
 6274 013a 05       		.byte	0x5
 6275 013b C702     		.uleb128 0x147
 6276 013d 1D770000 		.4byte	.LASF569
 6277 0141 05       		.byte	0x5
 6278 0142 C902     		.uleb128 0x149
 6279 0144 93770000 		.4byte	.LASF570
 6280 0148 05       		.byte	0x5
 6281 0149 CA02     		.uleb128 0x14a
 6282 014b BB030000 		.4byte	.LASF571
 6283 014f 05       		.byte	0x5
 6284 0150 CC02     		.uleb128 0x14c
 6285 0152 E7670000 		.4byte	.LASF572
 6286 0156 05       		.byte	0x5
 6287 0157 CD02     		.uleb128 0x14d
 6288 0159 1A380000 		.4byte	.LASF573
 6289 015d 05       		.byte	0x5
 6290 015e D002     		.uleb128 0x150
 6291 0160 66520000 		.4byte	.LASF574
 6292 0164 05       		.byte	0x5
 6293 0165 D102     		.uleb128 0x151
 6294 0167 657A0000 		.4byte	.LASF575
 6295 016b 05       		.byte	0x5
 6296 016c D302     		.uleb128 0x153
 6297 016e D9290000 		.4byte	.LASF576
 6298 0172 05       		.byte	0x5
 6299 0173 D402     		.uleb128 0x154
 6300 0175 821D0000 		.4byte	.LASF577
 6301 0179 05       		.byte	0x5
 6302 017a D602     		.uleb128 0x156
 6303 017c BF290000 		.4byte	.LASF578
 6304 0180 05       		.byte	0x5
 6305 0181 D702     		.uleb128 0x157
 6306 0183 17210000 		.4byte	.LASF579
 6307 0187 05       		.byte	0x5
 6308 0188 DA02     		.uleb128 0x15a
 6309 018a AB3D0000 		.4byte	.LASF580
 6310 018e 05       		.byte	0x5
 6311 018f DB02     		.uleb128 0x15b
 6312 0191 91190000 		.4byte	.LASF581
ARM GAS  C:\Users\STUDENT\AppData\Local\Temp\cc6DO5vW.s 			page 125


 6313 0195 05       		.byte	0x5
 6314 0196 DD02     		.uleb128 0x15d
 6315 0198 9C5C0000 		.4byte	.LASF582
 6316 019c 05       		.byte	0x5
 6317 019d DE02     		.uleb128 0x15e
 6318 019f FF5C0000 		.4byte	.LASF583
 6319 01a3 05       		.byte	0x5
 6320 01a4 E002     		.uleb128 0x160
 6321 01a6 745E0000 		.4byte	.LASF584
 6322 01aa 05       		.byte	0x5
 6323 01ab E102     		.uleb128 0x161
 6324 01ad 3B2E0000 		.4byte	.LASF585
 6325 01b1 05       		.byte	0x5
 6326 01b2 E302     		.uleb128 0x163
 6327 01b4 79500000 		.4byte	.LASF586
 6328 01b8 05       		.byte	0x5
 6329 01b9 E402     		.uleb128 0x164
 6330 01bb 00080000 		.4byte	.LASF587
 6331 01bf 05       		.byte	0x5
 6332 01c0 E602     		.uleb128 0x166
 6333 01c2 D1690000 		.4byte	.LASF588
 6334 01c6 05       		.byte	0x5
 6335 01c7 E702     		.uleb128 0x167
 6336 01c9 A8170000 		.4byte	.LASF589
 6337 01cd 05       		.byte	0x5
 6338 01ce E902     		.uleb128 0x169
 6339 01d0 C8010000 		.4byte	.LASF590
 6340 01d4 05       		.byte	0x5
 6341 01d5 EA02     		.uleb128 0x16a
 6342 01d7 AA130000 		.4byte	.LASF591
 6343 01db 05       		.byte	0x5
 6344 01dc ED02     		.uleb128 0x16d
 6345 01de 862A0000 		.4byte	.LASF592
 6346 01e2 05       		.byte	0x5
 6347 01e3 EE02     		.uleb128 0x16e
 6348 01e5 DF600000 		.4byte	.LASF593
 6349 01e9 05       		.byte	0x5
 6350 01ea F002     		.uleb128 0x170
 6351 01ec B92B0000 		.4byte	.LASF594
 6352 01f0 05       		.byte	0x5
 6353 01f1 F102     		.uleb128 0x171
 6354 01f3 D95D0000 		.4byte	.LASF595
 6355 01f7 05       		.byte	0x5
 6356 01f8 F302     		.uleb128 0x173
 6357 01fa DC770000 		.4byte	.LASF596
 6358 01fe 05       		.byte	0x5
 6359 01ff F402     		.uleb128 0x174
 6360 0201 E8300000 		.4byte	.LASF597
 6361 0205 05       		.byte	0x5
 6362 0206 F602     		.uleb128 0x176
 6363 0208 D56A0000 		.4byte	.LASF598
 6364 020c 05       		.byte	0x5
 6365 020d F702     		.uleb128 0x177
 6366 020f EE500000 		.4byte	.LASF599
 6367 0213 05       		.byte	0x5
 6368 0214 F902     		.uleb128 0x179
 6369 0216 18620000 		.4byte	.LASF600
ARM GAS  C:\Users\STUDENT\AppData\Local\Temp\cc6DO5vW.s 			page 126


 6370 021a 05       		.byte	0x5
 6371 021b FA02     		.uleb128 0x17a
 6372 021d B1340000 		.4byte	.LASF601
 6373 0221 05       		.byte	0x5
 6374 0222 FC02     		.uleb128 0x17c
 6375 0224 F8590000 		.4byte	.LASF602
 6376 0228 05       		.byte	0x5
 6377 0229 FD02     		.uleb128 0x17d
 6378 022b 983E0000 		.4byte	.LASF603
 6379 022f 05       		.byte	0x5
 6380 0230 FF02     		.uleb128 0x17f
 6381 0232 FD5F0000 		.4byte	.LASF604
 6382 0236 05       		.byte	0x5
 6383 0237 8003     		.uleb128 0x180
 6384 0239 BE240000 		.4byte	.LASF605
 6385 023d 05       		.byte	0x5
 6386 023e 8203     		.uleb128 0x182
 6387 0240 9B4B0000 		.4byte	.LASF606
 6388 0244 05       		.byte	0x5
 6389 0245 8303     		.uleb128 0x183
 6390 0247 38250000 		.4byte	.LASF607
 6391 024b 05       		.byte	0x5
 6392 024c 8503     		.uleb128 0x185
 6393 024e 761B0000 		.4byte	.LASF608
 6394 0252 05       		.byte	0x5
 6395 0253 8603     		.uleb128 0x186
 6396 0255 67230000 		.4byte	.LASF609
 6397 0259 05       		.byte	0x5
 6398 025a 8803     		.uleb128 0x188
 6399 025c 2F3F0000 		.4byte	.LASF610
 6400 0260 05       		.byte	0x5
 6401 0261 8903     		.uleb128 0x189
 6402 0263 36640000 		.4byte	.LASF611
 6403 0267 05       		.byte	0x5
 6404 0268 8B03     		.uleb128 0x18b
 6405 026a 755F0000 		.4byte	.LASF612
 6406 026e 05       		.byte	0x5
 6407 026f 8C03     		.uleb128 0x18c
 6408 0271 983C0000 		.4byte	.LASF613
 6409 0275 05       		.byte	0x5
 6410 0276 8E03     		.uleb128 0x18e
 6411 0278 0B7D0000 		.4byte	.LASF614
 6412 027c 05       		.byte	0x5
 6413 027d 8F03     		.uleb128 0x18f
 6414 027f 90450000 		.4byte	.LASF615
 6415 0283 05       		.byte	0x5
 6416 0284 9103     		.uleb128 0x191
 6417 0286 23230000 		.4byte	.LASF616
 6418 028a 05       		.byte	0x5
 6419 028b 9203     		.uleb128 0x192
 6420 028d DC0C0000 		.4byte	.LASF617
 6421 0291 05       		.byte	0x5
 6422 0292 9403     		.uleb128 0x194
 6423 0294 48790000 		.4byte	.LASF618
 6424 0298 05       		.byte	0x5
 6425 0299 9503     		.uleb128 0x195
 6426 029b 145C0000 		.4byte	.LASF619
ARM GAS  C:\Users\STUDENT\AppData\Local\Temp\cc6DO5vW.s 			page 127


 6427 029f 05       		.byte	0x5
 6428 02a0 9803     		.uleb128 0x198
 6429 02a2 A92F0000 		.4byte	.LASF620
 6430 02a6 05       		.byte	0x5
 6431 02a7 9903     		.uleb128 0x199
 6432 02a9 48710000 		.4byte	.LASF621
 6433 02ad 05       		.byte	0x5
 6434 02ae 9B03     		.uleb128 0x19b
 6435 02b0 57110000 		.4byte	.LASF622
 6436 02b4 05       		.byte	0x5
 6437 02b5 9C03     		.uleb128 0x19c
 6438 02b7 DA6E0000 		.4byte	.LASF623
 6439 02bb 05       		.byte	0x5
 6440 02bc 9E03     		.uleb128 0x19e
 6441 02be D7020000 		.4byte	.LASF624
 6442 02c2 05       		.byte	0x5
 6443 02c3 9F03     		.uleb128 0x19f
 6444 02c5 925B0000 		.4byte	.LASF625
 6445 02c9 05       		.byte	0x5
 6446 02ca A203     		.uleb128 0x1a2
 6447 02cc 6A590000 		.4byte	.LASF626
 6448 02d0 05       		.byte	0x5
 6449 02d1 A303     		.uleb128 0x1a3
 6450 02d3 B1490000 		.4byte	.LASF627
 6451 02d7 05       		.byte	0x5
 6452 02d8 A503     		.uleb128 0x1a5
 6453 02da 05500000 		.4byte	.LASF628
 6454 02de 05       		.byte	0x5
 6455 02df A603     		.uleb128 0x1a6
 6456 02e1 AB040000 		.4byte	.LASF629
 6457 02e5 05       		.byte	0x5
 6458 02e6 A803     		.uleb128 0x1a8
 6459 02e8 10170000 		.4byte	.LASF630
 6460 02ec 05       		.byte	0x5
 6461 02ed A903     		.uleb128 0x1a9
 6462 02ef 29010000 		.4byte	.LASF631
 6463 02f3 05       		.byte	0x5
 6464 02f4 AC03     		.uleb128 0x1ac
 6465 02f6 51160000 		.4byte	.LASF632
 6466 02fa 05       		.byte	0x5
 6467 02fb AD03     		.uleb128 0x1ad
 6468 02fd 96470000 		.4byte	.LASF633
 6469 0301 05       		.byte	0x5
 6470 0302 AF03     		.uleb128 0x1af
 6471 0304 B8270000 		.4byte	.LASF634
 6472 0308 05       		.byte	0x5
 6473 0309 B003     		.uleb128 0x1b0
 6474 030b 2B570000 		.4byte	.LASF635
 6475 030f 05       		.byte	0x5
 6476 0310 B203     		.uleb128 0x1b2
 6477 0312 C61F0000 		.4byte	.LASF636
 6478 0316 05       		.byte	0x5
 6479 0317 B303     		.uleb128 0x1b3
 6480 0319 05100000 		.4byte	.LASF637
 6481 031d 05       		.byte	0x5
 6482 031e B503     		.uleb128 0x1b5
 6483 0320 51510000 		.4byte	.LASF638
ARM GAS  C:\Users\STUDENT\AppData\Local\Temp\cc6DO5vW.s 			page 128


 6484 0324 05       		.byte	0x5
 6485 0325 B603     		.uleb128 0x1b6
 6486 0327 06580000 		.4byte	.LASF639
 6487 032b 05       		.byte	0x5
 6488 032c B803     		.uleb128 0x1b8
 6489 032e 31130000 		.4byte	.LASF640
 6490 0332 05       		.byte	0x5
 6491 0333 B903     		.uleb128 0x1b9
 6492 0335 C4190000 		.4byte	.LASF641
 6493 0339 05       		.byte	0x5
 6494 033a CF03     		.uleb128 0x1cf
 6495 033c 982E0000 		.4byte	.LASF642
 6496 0340 05       		.byte	0x5
 6497 0341 D003     		.uleb128 0x1d0
 6498 0343 DA1C0000 		.4byte	.LASF643
 6499 0347 05       		.byte	0x5
 6500 0348 D203     		.uleb128 0x1d2
 6501 034a 340D0000 		.4byte	.LASF644
 6502 034e 05       		.byte	0x5
 6503 034f D303     		.uleb128 0x1d3
 6504 0351 B6060000 		.4byte	.LASF645
 6505 0355 05       		.byte	0x5
 6506 0356 D503     		.uleb128 0x1d5
 6507 0358 F3140000 		.4byte	.LASF646
 6508 035c 05       		.byte	0x5
 6509 035d D603     		.uleb128 0x1d6
 6510 035f 1C610000 		.4byte	.LASF647
 6511 0363 05       		.byte	0x5
 6512 0364 D803     		.uleb128 0x1d8
 6513 0366 362A0000 		.4byte	.LASF648
 6514 036a 05       		.byte	0x5
 6515 036b D903     		.uleb128 0x1d9
 6516 036d 1F680000 		.4byte	.LASF649
 6517 0371 05       		.byte	0x5
 6518 0372 DC03     		.uleb128 0x1dc
 6519 0374 DF730000 		.4byte	.LASF650
 6520 0378 05       		.byte	0x5
 6521 0379 DD03     		.uleb128 0x1dd
 6522 037b 58430000 		.4byte	.LASF651
 6523 037f 05       		.byte	0x5
 6524 0380 E003     		.uleb128 0x1e0
 6525 0382 CE520000 		.4byte	.LASF652
 6526 0386 05       		.byte	0x5
 6527 0387 E103     		.uleb128 0x1e1
 6528 0389 734E0000 		.4byte	.LASF653
 6529 038d 05       		.byte	0x5
 6530 038e E403     		.uleb128 0x1e4
 6531 0390 9D670000 		.4byte	.LASF654
 6532 0394 05       		.byte	0x5
 6533 0395 E503     		.uleb128 0x1e5
 6534 0397 F92F0000 		.4byte	.LASF655
 6535 039b 05       		.byte	0x5
 6536 039c E703     		.uleb128 0x1e7
 6537 039e C1100000 		.4byte	.LASF656
 6538 03a2 05       		.byte	0x5
 6539 03a3 E803     		.uleb128 0x1e8
 6540 03a5 A1740000 		.4byte	.LASF657
ARM GAS  C:\Users\STUDENT\AppData\Local\Temp\cc6DO5vW.s 			page 129


 6541 03a9 05       		.byte	0x5
 6542 03aa EA03     		.uleb128 0x1ea
 6543 03ac 993B0000 		.4byte	.LASF658
 6544 03b0 05       		.byte	0x5
 6545 03b1 EB03     		.uleb128 0x1eb
 6546 03b3 5C570000 		.4byte	.LASF659
 6547 03b7 05       		.byte	0x5
 6548 03b8 9D04     		.uleb128 0x21d
 6549 03ba 260F0000 		.4byte	.LASF660
 6550 03be 05       		.byte	0x5
 6551 03bf 9E04     		.uleb128 0x21e
 6552 03c1 307A0000 		.4byte	.LASF661
 6553 03c5 05       		.byte	0x5
 6554 03c6 A104     		.uleb128 0x221
 6555 03c8 60180000 		.4byte	.LASF662
 6556 03cc 05       		.byte	0x5
 6557 03cd A204     		.uleb128 0x222
 6558 03cf CD2D0000 		.4byte	.LASF663
 6559 03d3 05       		.byte	0x5
 6560 03d4 A404     		.uleb128 0x224
 6561 03d6 E70A0000 		.4byte	.LASF664
 6562 03da 05       		.byte	0x5
 6563 03db A504     		.uleb128 0x225
 6564 03dd 93710000 		.4byte	.LASF665
 6565 03e1 05       		.byte	0x5
 6566 03e2 A704     		.uleb128 0x227
 6567 03e4 F67B0000 		.4byte	.LASF666
 6568 03e8 05       		.byte	0x5
 6569 03e9 A804     		.uleb128 0x228
 6570 03eb 28140000 		.4byte	.LASF667
 6571 03ef 05       		.byte	0x5
 6572 03f0 AA04     		.uleb128 0x22a
 6573 03f2 7B380000 		.4byte	.LASF668
 6574 03f6 05       		.byte	0x5
 6575 03f7 AB04     		.uleb128 0x22b
 6576 03f9 7C700000 		.4byte	.LASF669
 6577 03fd 05       		.byte	0x5
 6578 03fe AD04     		.uleb128 0x22d
 6579 0400 21560000 		.4byte	.LASF670
 6580 0404 05       		.byte	0x5
 6581 0405 AE04     		.uleb128 0x22e
 6582 0407 77480000 		.4byte	.LASF671
 6583 040b 05       		.byte	0x5
 6584 040c B004     		.uleb128 0x230
 6585 040e 10190000 		.4byte	.LASF672
 6586 0412 05       		.byte	0x5
 6587 0413 B104     		.uleb128 0x231
 6588 0415 89550000 		.4byte	.LASF673
 6589 0419 05       		.byte	0x5
 6590 041a B304     		.uleb128 0x233
 6591 041c 6D290000 		.4byte	.LASF674
 6592 0420 05       		.byte	0x5
 6593 0421 B404     		.uleb128 0x234
 6594 0423 9A0B0000 		.4byte	.LASF675
 6595 0427 05       		.byte	0x5
 6596 0428 B604     		.uleb128 0x236
 6597 042a F9770000 		.4byte	.LASF676
ARM GAS  C:\Users\STUDENT\AppData\Local\Temp\cc6DO5vW.s 			page 130


 6598 042e 05       		.byte	0x5
 6599 042f B704     		.uleb128 0x237
 6600 0431 74180000 		.4byte	.LASF677
 6601 0435 05       		.byte	0x5
 6602 0436 BA04     		.uleb128 0x23a
 6603 0438 DC270000 		.4byte	.LASF678
 6604 043c 05       		.byte	0x5
 6605 043d BB04     		.uleb128 0x23b
 6606 043f 4B7C0000 		.4byte	.LASF679
 6607 0443 05       		.byte	0x5
 6608 0444 BE04     		.uleb128 0x23e
 6609 0446 E54B0000 		.4byte	.LASF680
 6610 044a 05       		.byte	0x5
 6611 044b BF04     		.uleb128 0x23f
 6612 044d 806E0000 		.4byte	.LASF681
 6613 0451 05       		.byte	0x5
 6614 0452 C204     		.uleb128 0x242
 6615 0454 92360000 		.4byte	.LASF682
 6616 0458 05       		.byte	0x5
 6617 0459 C304     		.uleb128 0x243
 6618 045b FF6D0000 		.4byte	.LASF683
 6619 045f 05       		.byte	0x5
 6620 0460 C604     		.uleb128 0x246
 6621 0462 EA460000 		.4byte	.LASF684
 6622 0466 05       		.byte	0x5
 6623 0467 C704     		.uleb128 0x247
 6624 0469 F0650000 		.4byte	.LASF685
 6625 046d 05       		.byte	0x5
 6626 046e C904     		.uleb128 0x249
 6627 0470 DB5E0000 		.4byte	.LASF686
 6628 0474 05       		.byte	0x5
 6629 0475 CA04     		.uleb128 0x24a
 6630 0477 29720000 		.4byte	.LASF687
 6631 047b 05       		.byte	0x5
 6632 047c CC04     		.uleb128 0x24c
 6633 047e BD730000 		.4byte	.LASF688
 6634 0482 05       		.byte	0x5
 6635 0483 CD04     		.uleb128 0x24d
 6636 0485 533B0000 		.4byte	.LASF689
 6637 0489 05       		.byte	0x5
 6638 048a E604     		.uleb128 0x266
 6639 048c 92340000 		.4byte	.LASF690
 6640 0490 05       		.byte	0x5
 6641 0491 E704     		.uleb128 0x267
 6642 0493 301B0000 		.4byte	.LASF691
 6643 0497 05       		.byte	0x5
 6644 0498 EA04     		.uleb128 0x26a
 6645 049a 733F0000 		.4byte	.LASF692
 6646 049e 05       		.byte	0x5
 6647 049f EB04     		.uleb128 0x26b
 6648 04a1 FE2B0000 		.4byte	.LASF693
 6649 04a5 05       		.byte	0x5
 6650 04a6 ED04     		.uleb128 0x26d
 6651 04a8 130A0000 		.4byte	.LASF694
 6652 04ac 05       		.byte	0x5
 6653 04ad EE04     		.uleb128 0x26e
 6654 04af 66050000 		.4byte	.LASF695
ARM GAS  C:\Users\STUDENT\AppData\Local\Temp\cc6DO5vW.s 			page 131


 6655 04b3 05       		.byte	0x5
 6656 04b4 F004     		.uleb128 0x270
 6657 04b6 06480000 		.4byte	.LASF696
 6658 04ba 05       		.byte	0x5
 6659 04bb F104     		.uleb128 0x271
 6660 04bd E6640000 		.4byte	.LASF697
 6661 04c1 05       		.byte	0x5
 6662 04c2 8F05     		.uleb128 0x28f
 6663 04c4 5C580000 		.4byte	.LASF698
 6664 04c8 05       		.byte	0x5
 6665 04c9 9005     		.uleb128 0x290
 6666 04cb E90B0000 		.4byte	.LASF699
 6667 04cf 05       		.byte	0x5
 6668 04d0 9205     		.uleb128 0x292
 6669 04d2 C1090000 		.4byte	.LASF700
 6670 04d6 05       		.byte	0x5
 6671 04d7 9305     		.uleb128 0x293
 6672 04d9 62090000 		.4byte	.LASF701
 6673 04dd 05       		.byte	0x5
 6674 04de 9505     		.uleb128 0x295
 6675 04e0 B86F0000 		.4byte	.LASF702
 6676 04e4 05       		.byte	0x5
 6677 04e5 9605     		.uleb128 0x296
 6678 04e7 69530000 		.4byte	.LASF703
 6679 04eb 05       		.byte	0x5
 6680 04ec 9905     		.uleb128 0x299
 6681 04ee E7740000 		.4byte	.LASF704
 6682 04f2 05       		.byte	0x5
 6683 04f3 9A05     		.uleb128 0x29a
 6684 04f5 D9410000 		.4byte	.LASF705
 6685 04f9 05       		.byte	0x5
 6686 04fa 9C05     		.uleb128 0x29c
 6687 04fc 7A340000 		.4byte	.LASF706
 6688 0500 05       		.byte	0x5
 6689 0501 9D05     		.uleb128 0x29d
 6690 0503 38290000 		.4byte	.LASF707
 6691 0507 05       		.byte	0x5
 6692 0508 9F05     		.uleb128 0x29f
 6693 050a F57C0000 		.4byte	.LASF708
 6694 050e 05       		.byte	0x5
 6695 050f A005     		.uleb128 0x2a0
 6696 0511 323C0000 		.4byte	.LASF709
 6697 0515 05       		.byte	0x5
 6698 0516 A305     		.uleb128 0x2a3
 6699 0518 29650000 		.4byte	.LASF710
 6700 051c 05       		.byte	0x5
 6701 051d A405     		.uleb128 0x2a4
 6702 051f CF310000 		.4byte	.LASF711
 6703 0523 05       		.byte	0x5
 6704 0524 A705     		.uleb128 0x2a7
 6705 0526 D2640000 		.4byte	.LASF712
 6706 052a 05       		.byte	0x5
 6707 052b A805     		.uleb128 0x2a8
 6708 052d C42F0000 		.4byte	.LASF713
 6709 0531 05       		.byte	0x5
 6710 0532 AA05     		.uleb128 0x2aa
 6711 0534 DC6B0000 		.4byte	.LASF714
ARM GAS  C:\Users\STUDENT\AppData\Local\Temp\cc6DO5vW.s 			page 132


 6712 0538 05       		.byte	0x5
 6713 0539 AB05     		.uleb128 0x2ab
 6714 053b 133E0000 		.4byte	.LASF715
 6715 053f 05       		.byte	0x5
 6716 0540 AD05     		.uleb128 0x2ad
 6717 0542 F0520000 		.4byte	.LASF716
 6718 0546 05       		.byte	0x5
 6719 0547 AE05     		.uleb128 0x2ae
 6720 0549 D7780000 		.4byte	.LASF717
 6721 054d 05       		.byte	0x5
 6722 054e B105     		.uleb128 0x2b1
 6723 0550 ED000000 		.4byte	.LASF718
 6724 0554 05       		.byte	0x5
 6725 0555 B205     		.uleb128 0x2b2
 6726 0557 5A770000 		.4byte	.LASF719
 6727 055b 05       		.byte	0x5
 6728 055c B405     		.uleb128 0x2b4
 6729 055e C6410000 		.4byte	.LASF720
 6730 0562 05       		.byte	0x5
 6731 0563 B505     		.uleb128 0x2b5
 6732 0565 B05D0000 		.4byte	.LASF721
 6733 0569 05       		.byte	0x5
 6734 056a B705     		.uleb128 0x2b7
 6735 056c 83690000 		.4byte	.LASF722
 6736 0570 05       		.byte	0x5
 6737 0571 B805     		.uleb128 0x2b8
 6738 0573 091A0000 		.4byte	.LASF723
 6739 0577 05       		.byte	0x5
 6740 0578 BA05     		.uleb128 0x2ba
 6741 057a 470B0000 		.4byte	.LASF724
 6742 057e 05       		.byte	0x5
 6743 057f BB05     		.uleb128 0x2bb
 6744 0581 EC250000 		.4byte	.LASF725
 6745 0585 05       		.byte	0x5
 6746 0586 BD05     		.uleb128 0x2bd
 6747 0588 8A210000 		.4byte	.LASF726
 6748 058c 05       		.byte	0x5
 6749 058d BE05     		.uleb128 0x2be
 6750 058f AD360000 		.4byte	.LASF727
 6751 0593 05       		.byte	0x5
 6752 0594 C005     		.uleb128 0x2c0
 6753 0596 E34F0000 		.4byte	.LASF728
 6754 059a 05       		.byte	0x5
 6755 059b C105     		.uleb128 0x2c1
 6756 059d C1570000 		.4byte	.LASF729
 6757 05a1 05       		.byte	0x5
 6758 05a2 C305     		.uleb128 0x2c3
 6759 05a4 4A6A0000 		.4byte	.LASF730
 6760 05a8 05       		.byte	0x5
 6761 05a9 C405     		.uleb128 0x2c4
 6762 05ab DE350000 		.4byte	.LASF731
 6763 05af 05       		.byte	0x5
 6764 05b0 C605     		.uleb128 0x2c6
 6765 05b2 E3620000 		.4byte	.LASF732
 6766 05b6 05       		.byte	0x5
 6767 05b7 C705     		.uleb128 0x2c7
 6768 05b9 96400000 		.4byte	.LASF733
ARM GAS  C:\Users\STUDENT\AppData\Local\Temp\cc6DO5vW.s 			page 133


 6769 05bd 05       		.byte	0x5
 6770 05be C905     		.uleb128 0x2c9
 6771 05c0 185A0000 		.4byte	.LASF734
 6772 05c4 05       		.byte	0x5
 6773 05c5 CA05     		.uleb128 0x2ca
 6774 05c7 1B030000 		.4byte	.LASF735
 6775 05cb 05       		.byte	0x5
 6776 05cc E105     		.uleb128 0x2e1
 6777 05ce BE6B0000 		.4byte	.LASF736
 6778 05d2 05       		.byte	0x5
 6779 05d3 E205     		.uleb128 0x2e2
 6780 05d5 42730000 		.4byte	.LASF737
 6781 05d9 05       		.byte	0x5
 6782 05da E405     		.uleb128 0x2e4
 6783 05dc 9B2D0000 		.4byte	.LASF738
 6784 05e0 05       		.byte	0x5
 6785 05e1 E505     		.uleb128 0x2e5
 6786 05e3 D1790000 		.4byte	.LASF739
 6787 05e7 05       		.byte	0x5
 6788 05e8 E705     		.uleb128 0x2e7
 6789 05ea AB700000 		.4byte	.LASF740
 6790 05ee 05       		.byte	0x5
 6791 05ef E805     		.uleb128 0x2e8
 6792 05f1 8C5A0000 		.4byte	.LASF741
 6793 05f5 05       		.byte	0x5
 6794 05f6 EA05     		.uleb128 0x2ea
 6795 05f8 F05E0000 		.4byte	.LASF742
 6796 05fc 05       		.byte	0x5
 6797 05fd EB05     		.uleb128 0x2eb
 6798 05ff E6490000 		.4byte	.LASF743
 6799 0603 05       		.byte	0x5
 6800 0604 ED05     		.uleb128 0x2ed
 6801 0606 6F6A0000 		.4byte	.LASF744
 6802 060a 05       		.byte	0x5
 6803 060b EE05     		.uleb128 0x2ee
 6804 060d 53460000 		.4byte	.LASF745
 6805 0611 05       		.byte	0x5
 6806 0612 F005     		.uleb128 0x2f0
 6807 0614 B4640000 		.4byte	.LASF746
 6808 0618 05       		.byte	0x5
 6809 0619 F105     		.uleb128 0x2f1
 6810 061b 9C150000 		.4byte	.LASF747
 6811 061f 05       		.byte	0x5
 6812 0620 F305     		.uleb128 0x2f3
 6813 0622 AD760000 		.4byte	.LASF748
 6814 0626 05       		.byte	0x5
 6815 0627 F405     		.uleb128 0x2f4
 6816 0629 504A0000 		.4byte	.LASF749
 6817 062d 05       		.byte	0x5
 6818 062e F605     		.uleb128 0x2f6
 6819 0630 A0790000 		.4byte	.LASF750
 6820 0634 05       		.byte	0x5
 6821 0635 F705     		.uleb128 0x2f7
 6822 0637 086C0000 		.4byte	.LASF751
 6823 063b 05       		.byte	0x5
 6824 063c F905     		.uleb128 0x2f9
 6825 063e 8F240000 		.4byte	.LASF752
ARM GAS  C:\Users\STUDENT\AppData\Local\Temp\cc6DO5vW.s 			page 134


 6826 0642 05       		.byte	0x5
 6827 0643 FA05     		.uleb128 0x2fa
 6828 0645 1B1C0000 		.4byte	.LASF753
 6829 0649 05       		.byte	0x5
 6830 064a FC05     		.uleb128 0x2fc
 6831 064c AE630000 		.4byte	.LASF754
 6832 0650 05       		.byte	0x5
 6833 0651 FD05     		.uleb128 0x2fd
 6834 0653 961A0000 		.4byte	.LASF755
 6835 0657 05       		.byte	0x5
 6836 0658 FF05     		.uleb128 0x2ff
 6837 065a 706D0000 		.4byte	.LASF756
 6838 065e 05       		.byte	0x5
 6839 065f 8006     		.uleb128 0x300
 6840 0661 0E150000 		.4byte	.LASF757
 6841 0665 05       		.byte	0x5
 6842 0666 8206     		.uleb128 0x302
 6843 0668 6C750000 		.4byte	.LASF758
 6844 066c 05       		.byte	0x5
 6845 066d 8306     		.uleb128 0x303
 6846 066f D82E0000 		.4byte	.LASF759
 6847 0673 05       		.byte	0x5
 6848 0674 8606     		.uleb128 0x306
 6849 0676 815D0000 		.4byte	.LASF760
 6850 067a 05       		.byte	0x5
 6851 067b 8706     		.uleb128 0x307
 6852 067d 5C2D0000 		.4byte	.LASF761
 6853 0681 05       		.byte	0x5
 6854 0682 8906     		.uleb128 0x309
 6855 0684 446B0000 		.4byte	.LASF762
 6856 0688 05       		.byte	0x5
 6857 0689 8A06     		.uleb128 0x30a
 6858 068b FB1D0000 		.4byte	.LASF763
 6859 068f 05       		.byte	0x5
 6860 0690 8D06     		.uleb128 0x30d
 6861 0692 780D0000 		.4byte	.LASF764
 6862 0696 05       		.byte	0x5
 6863 0697 8E06     		.uleb128 0x30e
 6864 0699 AF500000 		.4byte	.LASF765
 6865 069d 05       		.byte	0x5
 6866 069e 9006     		.uleb128 0x310
 6867 06a0 FC1B0000 		.4byte	.LASF766
 6868 06a4 05       		.byte	0x5
 6869 06a5 9106     		.uleb128 0x311
 6870 06a7 3E650000 		.4byte	.LASF767
 6871 06ab 05       		.byte	0x5
 6872 06ac 9306     		.uleb128 0x313
 6873 06ae 3E170000 		.4byte	.LASF768
 6874 06b2 05       		.byte	0x5
 6875 06b3 9406     		.uleb128 0x314
 6876 06b5 0C4D0000 		.4byte	.LASF769
 6877 06b9 05       		.byte	0x5
 6878 06ba 9606     		.uleb128 0x316
 6879 06bc 7D780000 		.4byte	.LASF770
 6880 06c0 05       		.byte	0x5
 6881 06c1 9706     		.uleb128 0x317
 6882 06c3 530E0000 		.4byte	.LASF771
ARM GAS  C:\Users\STUDENT\AppData\Local\Temp\cc6DO5vW.s 			page 135


 6883 06c7 05       		.byte	0x5
 6884 06c8 9906     		.uleb128 0x319
 6885 06ca 2F540000 		.4byte	.LASF772
 6886 06ce 05       		.byte	0x5
 6887 06cf 9A06     		.uleb128 0x31a
 6888 06d1 E9130000 		.4byte	.LASF773
 6889 06d5 05       		.byte	0x5
 6890 06d6 9C06     		.uleb128 0x31c
 6891 06d8 6E170000 		.4byte	.LASF774
 6892 06dc 05       		.byte	0x5
 6893 06dd 9D06     		.uleb128 0x31d
 6894 06df A9650000 		.4byte	.LASF775
 6895 06e3 05       		.byte	0x5
 6896 06e4 9F06     		.uleb128 0x31f
 6897 06e6 6D2C0000 		.4byte	.LASF776
 6898 06ea 05       		.byte	0x5
 6899 06eb A006     		.uleb128 0x320
 6900 06ed 29200000 		.4byte	.LASF777
 6901 06f1 05       		.byte	0x5
 6902 06f2 A206     		.uleb128 0x322
 6903 06f4 920A0000 		.4byte	.LASF778
 6904 06f8 05       		.byte	0x5
 6905 06f9 A306     		.uleb128 0x323
 6906 06fb 3A420000 		.4byte	.LASF779
 6907 06ff 05       		.byte	0x5
 6908 0700 A506     		.uleb128 0x325
 6909 0702 39240000 		.4byte	.LASF780
 6910 0706 05       		.byte	0x5
 6911 0707 A606     		.uleb128 0x326
 6912 0709 9A330000 		.4byte	.LASF781
 6913 070d 05       		.byte	0x5
 6914 070e A806     		.uleb128 0x328
 6915 0710 6D600000 		.4byte	.LASF782
 6916 0714 05       		.byte	0x5
 6917 0715 A906     		.uleb128 0x329
 6918 0717 A31B0000 		.4byte	.LASF783
 6919 071b 05       		.byte	0x5
 6920 071c AB06     		.uleb128 0x32b
 6921 071e 45520000 		.4byte	.LASF784
 6922 0722 05       		.byte	0x5
 6923 0723 AC06     		.uleb128 0x32c
 6924 0725 CB230000 		.4byte	.LASF785
 6925 0729 05       		.byte	0x5
 6926 072a AE06     		.uleb128 0x32e
 6927 072c 59020000 		.4byte	.LASF786
 6928 0730 05       		.byte	0x5
 6929 0731 AF06     		.uleb128 0x32f
 6930 0733 71640000 		.4byte	.LASF787
 6931 0737 05       		.byte	0x5
 6932 0738 B106     		.uleb128 0x331
 6933 073a 1C6D0000 		.4byte	.LASF788
 6934 073e 05       		.byte	0x5
 6935 073f B206     		.uleb128 0x332
 6936 0741 0F7B0000 		.4byte	.LASF789
 6937 0745 05       		.byte	0x5
 6938 0746 BC06     		.uleb128 0x33c
 6939 0748 47040000 		.4byte	.LASF790
ARM GAS  C:\Users\STUDENT\AppData\Local\Temp\cc6DO5vW.s 			page 136


 6940 074c 05       		.byte	0x5
 6941 074d BD06     		.uleb128 0x33d
 6942 074f 43480000 		.4byte	.LASF791
 6943 0753 05       		.byte	0x5
 6944 0754 BE06     		.uleb128 0x33e
 6945 0756 740A0000 		.4byte	.LASF792
 6946 075a 05       		.byte	0x5
 6947 075b BF06     		.uleb128 0x33f
 6948 075d 7D790000 		.4byte	.LASF793
 6949 0761 05       		.byte	0x5
 6950 0762 C006     		.uleb128 0x340
 6951 0764 A6510000 		.4byte	.LASF794
 6952 0768 05       		.byte	0x5
 6953 0769 C106     		.uleb128 0x341
 6954 076b 345D0000 		.4byte	.LASF795
 6955 076f 05       		.byte	0x5
 6956 0770 C306     		.uleb128 0x343
 6957 0772 3D600000 		.4byte	.LASF796
 6958 0776 05       		.byte	0x5
 6959 0777 C406     		.uleb128 0x344
 6960 0779 0F220000 		.4byte	.LASF797
 6961 077d 05       		.byte	0x5
 6962 077e C506     		.uleb128 0x345
 6963 0780 3A410000 		.4byte	.LASF798
 6964 0784 05       		.byte	0x5
 6965 0785 C606     		.uleb128 0x346
 6966 0787 DC040000 		.4byte	.LASF799
 6967 078b 05       		.byte	0x5
 6968 078c C706     		.uleb128 0x347
 6969 078e 4A400000 		.4byte	.LASF800
 6970 0792 05       		.byte	0x5
 6971 0793 C806     		.uleb128 0x348
 6972 0795 08400000 		.4byte	.LASF801
 6973 0799 05       		.byte	0x5
 6974 079a CB06     		.uleb128 0x34b
 6975 079c 334E0000 		.4byte	.LASF802
 6976 07a0 05       		.byte	0x5
 6977 07a1 CC06     		.uleb128 0x34c
 6978 07a3 84510000 		.4byte	.LASF803
 6979 07a7 05       		.byte	0x5
 6980 07a8 8309     		.uleb128 0x483
 6981 07aa E4400000 		.4byte	.LASF804
 6982 07ae 00       		.byte	0
 6983              		.section	.debug_macro,"G",%progbits,wm4.LPC17xx.h.953.77a3a85f2f7c5b921d480655a6f3d5b1,comdat
 6984              	.Ldebug_macro12:
 6985 0000 0400     		.2byte	0x4
 6986 0002 00       		.byte	0
 6987 0003 05       		.byte	0x5
 6988 0004 B907     		.uleb128 0x3b9
 6989 0006 A3570000 		.4byte	.LASF806
 6990 000a 05       		.byte	0x5
 6991 000b BA07     		.uleb128 0x3ba
 6992 000d D7320000 		.4byte	.LASF807
 6993 0011 05       		.byte	0x5
 6994 0012 BF07     		.uleb128 0x3bf
 6995 0014 E04D0000 		.4byte	.LASF808
 6996 0018 05       		.byte	0x5
ARM GAS  C:\Users\STUDENT\AppData\Local\Temp\cc6DO5vW.s 			page 137


 6997 0019 C007     		.uleb128 0x3c0
 6998 001b 9A7A0000 		.4byte	.LASF809
 6999 001f 05       		.byte	0x5
 7000 0020 C207     		.uleb128 0x3c2
 7001 0022 6D060000 		.4byte	.LASF810
 7002 0026 05       		.byte	0x5
 7003 0027 C307     		.uleb128 0x3c3
 7004 0029 06530000 		.4byte	.LASF811
 7005 002d 05       		.byte	0x5
 7006 002e C407     		.uleb128 0x3c4
 7007 0030 881E0000 		.4byte	.LASF812
 7008 0034 05       		.byte	0x5
 7009 0035 C507     		.uleb128 0x3c5
 7010 0037 18180000 		.4byte	.LASF813
 7011 003b 05       		.byte	0x5
 7012 003c C607     		.uleb128 0x3c6
 7013 003e CB630000 		.4byte	.LASF814
 7014 0042 05       		.byte	0x5
 7015 0043 C907     		.uleb128 0x3c9
 7016 0045 105F0000 		.4byte	.LASF815
 7017 0049 05       		.byte	0x5
 7018 004a CA07     		.uleb128 0x3ca
 7019 004c D62B0000 		.4byte	.LASF816
 7020 0050 05       		.byte	0x5
 7021 0051 CB07     		.uleb128 0x3cb
 7022 0053 53380000 		.4byte	.LASF817
 7023 0057 05       		.byte	0x5
 7024 0058 CC07     		.uleb128 0x3cc
 7025 005a 68190000 		.4byte	.LASF818
 7026 005e 05       		.byte	0x5
 7027 005f CD07     		.uleb128 0x3cd
 7028 0061 EC3B0000 		.4byte	.LASF819
 7029 0065 05       		.byte	0x5
 7030 0066 CE07     		.uleb128 0x3ce
 7031 0068 165E0000 		.4byte	.LASF820
 7032 006c 05       		.byte	0x5
 7033 006d CF07     		.uleb128 0x3cf
 7034 006f 702E0000 		.4byte	.LASF821
 7035 0073 05       		.byte	0x5
 7036 0074 D007     		.uleb128 0x3d0
 7037 0076 50320000 		.4byte	.LASF822
 7038 007a 05       		.byte	0x5
 7039 007b D107     		.uleb128 0x3d1
 7040 007d 12240000 		.4byte	.LASF823
 7041 0081 05       		.byte	0x5
 7042 0082 D207     		.uleb128 0x3d2
 7043 0084 5C010000 		.4byte	.LASF824
 7044 0088 05       		.byte	0x5
 7045 0089 D307     		.uleb128 0x3d3
 7046 008b FA100000 		.4byte	.LASF825
 7047 008f 05       		.byte	0x5
 7048 0090 D407     		.uleb128 0x3d4
 7049 0092 C6510000 		.4byte	.LASF826
 7050 0096 05       		.byte	0x5
 7051 0097 D507     		.uleb128 0x3d5
 7052 0099 510D0000 		.4byte	.LASF827
 7053 009d 05       		.byte	0x5
ARM GAS  C:\Users\STUDENT\AppData\Local\Temp\cc6DO5vW.s 			page 138


 7054 009e D607     		.uleb128 0x3d6
 7055 00a0 34370000 		.4byte	.LASF828
 7056 00a4 05       		.byte	0x5
 7057 00a5 D707     		.uleb128 0x3d7
 7058 00a7 81610000 		.4byte	.LASF829
 7059 00ab 05       		.byte	0x5
 7060 00ac D807     		.uleb128 0x3d8
 7061 00ae B20A0000 		.4byte	.LASF830
 7062 00b2 05       		.byte	0x5
 7063 00b3 D907     		.uleb128 0x3d9
 7064 00b5 01720000 		.4byte	.LASF831
 7065 00b9 05       		.byte	0x5
 7066 00ba DA07     		.uleb128 0x3da
 7067 00bc DD3A0000 		.4byte	.LASF832
 7068 00c0 05       		.byte	0x5
 7069 00c1 DB07     		.uleb128 0x3db
 7070 00c3 46450000 		.4byte	.LASF833
 7071 00c7 05       		.byte	0x5
 7072 00c8 DE07     		.uleb128 0x3de
 7073 00ca E1330000 		.4byte	.LASF834
 7074 00ce 05       		.byte	0x5
 7075 00cf DF07     		.uleb128 0x3df
 7076 00d1 BF120000 		.4byte	.LASF835
 7077 00d5 05       		.byte	0x5
 7078 00d6 E007     		.uleb128 0x3e0
 7079 00d8 74580000 		.4byte	.LASF836
 7080 00dc 05       		.byte	0x5
 7081 00dd E107     		.uleb128 0x3e1
 7082 00df A81C0000 		.4byte	.LASF837
 7083 00e3 05       		.byte	0x5
 7084 00e4 E207     		.uleb128 0x3e2
 7085 00e6 33580000 		.4byte	.LASF838
 7086 00ea 05       		.byte	0x5
 7087 00eb E307     		.uleb128 0x3e3
 7088 00ed FB690000 		.4byte	.LASF839
 7089 00f1 05       		.byte	0x5
 7090 00f2 E407     		.uleb128 0x3e4
 7091 00f4 6A5B0000 		.4byte	.LASF840
 7092 00f8 05       		.byte	0x5
 7093 00f9 E507     		.uleb128 0x3e5
 7094 00fb 11060000 		.4byte	.LASF841
 7095 00ff 05       		.byte	0x5
 7096 0100 E607     		.uleb128 0x3e6
 7097 0102 294A0000 		.4byte	.LASF842
 7098 0106 05       		.byte	0x5
 7099 0107 E707     		.uleb128 0x3e7
 7100 0109 36560000 		.4byte	.LASF843
 7101 010d 05       		.byte	0x5
 7102 010e E807     		.uleb128 0x3e8
 7103 0110 083F0000 		.4byte	.LASF844
 7104 0114 05       		.byte	0x5
 7105 0115 E907     		.uleb128 0x3e9
 7106 0117 3B0A0000 		.4byte	.LASF845
 7107 011b 05       		.byte	0x5
 7108 011c EC07     		.uleb128 0x3ec
 7109 011e 16160000 		.4byte	.LASF846
 7110 0122 05       		.byte	0x5
ARM GAS  C:\Users\STUDENT\AppData\Local\Temp\cc6DO5vW.s 			page 139


 7111 0123 ED07     		.uleb128 0x3ed
 7112 0125 AA610000 		.4byte	.LASF847
 7113 0129 05       		.byte	0x5
 7114 012a EE07     		.uleb128 0x3ee
 7115 012c 01320000 		.4byte	.LASF848
 7116 0130 05       		.byte	0x5
 7117 0131 EF07     		.uleb128 0x3ef
 7118 0133 806B0000 		.4byte	.LASF849
 7119 0137 05       		.byte	0x5
 7120 0138 F007     		.uleb128 0x3f0
 7121 013a AF6C0000 		.4byte	.LASF850
 7122 013e 05       		.byte	0x5
 7123 013f F107     		.uleb128 0x3f1
 7124 0141 9C580000 		.4byte	.LASF851
 7125 0145 05       		.byte	0x5
 7126 0146 F207     		.uleb128 0x3f2
 7127 0148 A0230000 		.4byte	.LASF852
 7128 014c 05       		.byte	0x5
 7129 014d F307     		.uleb128 0x3f3
 7130 014f 80040000 		.4byte	.LASF853
 7131 0153 05       		.byte	0x5
 7132 0154 F407     		.uleb128 0x3f4
 7133 0156 CE110000 		.4byte	.LASF854
 7134 015a 05       		.byte	0x5
 7135 015b F507     		.uleb128 0x3f5
 7136 015d AA0E0000 		.4byte	.LASF855
 7137 0161 05       		.byte	0x5
 7138 0162 F607     		.uleb128 0x3f6
 7139 0164 F0420000 		.4byte	.LASF856
 7140 0168 05       		.byte	0x5
 7141 0169 F907     		.uleb128 0x3f9
 7142 016b 1C460000 		.4byte	.LASF857
 7143 016f 05       		.byte	0x5
 7144 0170 FA07     		.uleb128 0x3fa
 7145 0172 BA460000 		.4byte	.LASF858
 7146 0176 05       		.byte	0x5
 7147 0177 FB07     		.uleb128 0x3fb
 7148 0179 73250000 		.4byte	.LASF859
 7149 017d 05       		.byte	0x5
 7150 017e FC07     		.uleb128 0x3fc
 7151 0180 277D0000 		.4byte	.LASF860
 7152 0184 05       		.byte	0x5
 7153 0185 FD07     		.uleb128 0x3fd
 7154 0187 38620000 		.4byte	.LASF861
 7155 018b 05       		.byte	0x5
 7156 018c 8208     		.uleb128 0x402
 7157 018e 4C5F0000 		.4byte	.LASF862
 7158 0192 05       		.byte	0x5
 7159 0193 8308     		.uleb128 0x403
 7160 0195 C1480000 		.4byte	.LASF863
 7161 0199 05       		.byte	0x5
 7162 019a 8408     		.uleb128 0x404
 7163 019c C50F0000 		.4byte	.LASF864
 7164 01a0 05       		.byte	0x5
 7165 01a1 8508     		.uleb128 0x405
 7166 01a3 7F4F0000 		.4byte	.LASF865
 7167 01a7 05       		.byte	0x5
ARM GAS  C:\Users\STUDENT\AppData\Local\Temp\cc6DO5vW.s 			page 140


 7168 01a8 8608     		.uleb128 0x406
 7169 01aa 220E0000 		.4byte	.LASF866
 7170 01ae 05       		.byte	0x5
 7171 01af 8708     		.uleb128 0x407
 7172 01b1 13260000 		.4byte	.LASF867
 7173 01b5 05       		.byte	0x5
 7174 01b6 8808     		.uleb128 0x408
 7175 01b8 70150000 		.4byte	.LASF868
 7176 01bc 05       		.byte	0x5
 7177 01bd 8908     		.uleb128 0x409
 7178 01bf B74B0000 		.4byte	.LASF869
 7179 01c3 05       		.byte	0x5
 7180 01c4 8A08     		.uleb128 0x40a
 7181 01c6 E65B0000 		.4byte	.LASF870
 7182 01ca 05       		.byte	0x5
 7183 01cb 8B08     		.uleb128 0x40b
 7184 01cd 094B0000 		.4byte	.LASF871
 7185 01d1 05       		.byte	0x5
 7186 01d2 8C08     		.uleb128 0x40c
 7187 01d4 7E080000 		.4byte	.LASF872
 7188 01d8 05       		.byte	0x5
 7189 01d9 8D08     		.uleb128 0x40d
 7190 01db D6440000 		.4byte	.LASF873
 7191 01df 05       		.byte	0x5
 7192 01e0 8E08     		.uleb128 0x40e
 7193 01e2 B5530000 		.4byte	.LASF874
 7194 01e6 05       		.byte	0x5
 7195 01e7 8F08     		.uleb128 0x40f
 7196 01e9 50550000 		.4byte	.LASF875
 7197 01ed 05       		.byte	0x5
 7198 01ee 9008     		.uleb128 0x410
 7199 01f0 EF2A0000 		.4byte	.LASF876
 7200 01f4 05       		.byte	0x5
 7201 01f5 9108     		.uleb128 0x411
 7202 01f7 C5220000 		.4byte	.LASF877
 7203 01fb 05       		.byte	0x5
 7204 01fc 9208     		.uleb128 0x412
 7205 01fe F5060000 		.4byte	.LASF878
 7206 0202 05       		.byte	0x5
 7207 0203 9308     		.uleb128 0x413
 7208 0205 535D0000 		.4byte	.LASF879
 7209 0209 05       		.byte	0x5
 7210 020a 9408     		.uleb128 0x414
 7211 020c 211F0000 		.4byte	.LASF880
 7212 0210 05       		.byte	0x5
 7213 0211 9508     		.uleb128 0x415
 7214 0213 58720000 		.4byte	.LASF881
 7215 0217 05       		.byte	0x5
 7216 0218 9608     		.uleb128 0x416
 7217 021a B24A0000 		.4byte	.LASF882
 7218 021e 05       		.byte	0x5
 7219 021f 9708     		.uleb128 0x417
 7220 0221 F5550000 		.4byte	.LASF883
 7221 0225 05       		.byte	0x5
 7222 0226 9808     		.uleb128 0x418
 7223 0228 FB040000 		.4byte	.LASF884
 7224 022c 05       		.byte	0x5
ARM GAS  C:\Users\STUDENT\AppData\Local\Temp\cc6DO5vW.s 			page 141


 7225 022d 9908     		.uleb128 0x419
 7226 022f 52270000 		.4byte	.LASF885
 7227 0233 05       		.byte	0x5
 7228 0234 9A08     		.uleb128 0x41a
 7229 0236 47280000 		.4byte	.LASF886
 7230 023a 05       		.byte	0x5
 7231 023b 9B08     		.uleb128 0x41b
 7232 023d 8F730000 		.4byte	.LASF887
 7233 0241 05       		.byte	0x5
 7234 0242 9C08     		.uleb128 0x41c
 7235 0244 16430000 		.4byte	.LASF888
 7236 0248 05       		.byte	0x5
 7237 0249 9D08     		.uleb128 0x41d
 7238 024b 9F6A0000 		.4byte	.LASF889
 7239 024f 05       		.byte	0x5
 7240 0250 9E08     		.uleb128 0x41e
 7241 0252 836C0000 		.4byte	.LASF890
 7242 0256 05       		.byte	0x5
 7243 0257 9F08     		.uleb128 0x41f
 7244 0259 56070000 		.4byte	.LASF891
 7245 025d 05       		.byte	0x5
 7246 025e A008     		.uleb128 0x420
 7247 0260 02090000 		.4byte	.LASF892
 7248 0264 05       		.byte	0x5
 7249 0265 A108     		.uleb128 0x421
 7250 0267 77300000 		.4byte	.LASF893
 7251 026b 05       		.byte	0x5
 7252 026c A208     		.uleb128 0x422
 7253 026e F3280000 		.4byte	.LASF894
 7254 0272 05       		.byte	0x5
 7255 0273 A308     		.uleb128 0x423
 7256 0275 61370000 		.4byte	.LASF895
 7257 0279 05       		.byte	0x5
 7258 027a A408     		.uleb128 0x424
 7259 027c 8D0C0000 		.4byte	.LASF896
 7260 0280 05       		.byte	0x5
 7261 0281 A508     		.uleb128 0x425
 7262 0283 7C1C0000 		.4byte	.LASF897
 7263 0287 05       		.byte	0x5
 7264 0288 A608     		.uleb128 0x426
 7265 028a 41220000 		.4byte	.LASF898
 7266 028e 05       		.byte	0x5
 7267 028f A708     		.uleb128 0x427
 7268 0291 E2560000 		.4byte	.LASF899
 7269 0295 05       		.byte	0x5
 7270 0296 A808     		.uleb128 0x428
 7271 0298 9F720000 		.4byte	.LASF900
 7272 029c 05       		.byte	0x5
 7273 029d A908     		.uleb128 0x429
 7274 029f 97690000 		.4byte	.LASF901
 7275 02a3 05       		.byte	0x5
 7276 02a4 AA08     		.uleb128 0x42a
 7277 02a6 677D0000 		.4byte	.LASF902
 7278 02aa 05       		.byte	0x5
 7279 02ab AB08     		.uleb128 0x42b
 7280 02ad 50210000 		.4byte	.LASF903
 7281 02b1 05       		.byte	0x5
ARM GAS  C:\Users\STUDENT\AppData\Local\Temp\cc6DO5vW.s 			page 142


 7282 02b2 AC08     		.uleb128 0x42c
 7283 02b4 67350000 		.4byte	.LASF904
 7284 02b8 05       		.byte	0x5
 7285 02b9 AD08     		.uleb128 0x42d
 7286 02bb A9620000 		.4byte	.LASF905
 7287 02bf 05       		.byte	0x5
 7288 02c0 AE08     		.uleb128 0x42e
 7289 02c2 6F620000 		.4byte	.LASF906
 7290 02c6 05       		.byte	0x5
 7291 02c7 AF08     		.uleb128 0x42f
 7292 02c9 9D780000 		.4byte	.LASF907
 7293 02cd 05       		.byte	0x5
 7294 02ce B008     		.uleb128 0x430
 7295 02d0 C0050000 		.4byte	.LASF908
 7296 02d4 05       		.byte	0x5
 7297 02d5 B108     		.uleb128 0x431
 7298 02d7 1C340000 		.4byte	.LASF909
 7299 02db 00       		.byte	0
 7300              		.section	.debug_macro,"G",%progbits,wm4.lpc_types.h.31.fe468f0c170b3f2fb639f9a689afb2c4,comdat
 7301              	.Ldebug_macro13:
 7302 0000 0400     		.2byte	0x4
 7303 0002 00       		.byte	0
 7304 0003 05       		.byte	0x5
 7305 0004 1F       		.uleb128 0x1f
 7306 0005 1C790000 		.4byte	.LASF910
 7307 0009 05       		.byte	0x5
 7308 000a 33       		.uleb128 0x33
 7309 000b 335B0000 		.4byte	.LASF911
 7310 000f 05       		.byte	0x5
 7311 0010 39       		.uleb128 0x39
 7312 0011 F82D0000 		.4byte	.LASF912
 7313 0015 06       		.byte	0x6
 7314 0016 5F       		.uleb128 0x5f
 7315 0017 5D660000 		.4byte	.LASF913
 7316 001b 05       		.byte	0x5
 7317 001c 61       		.uleb128 0x61
 7318 001d 7F650000 		.4byte	.LASF914
 7319 0021 06       		.byte	0x6
 7320 0022 67       		.uleb128 0x67
 7321 0023 1B2D0000 		.4byte	.LASF915
 7322 0027 05       		.byte	0x5
 7323 0028 69       		.uleb128 0x69
 7324 0029 BB2A0000 		.4byte	.LASF916
 7325 002d 06       		.byte	0x6
 7326 002e 78       		.uleb128 0x78
 7327 002f CC720000 		.4byte	.LASF917
 7328 0033 05       		.byte	0x5
 7329 0034 7A       		.uleb128 0x7a
 7330 0035 F7700000 		.4byte	.LASF918
 7331 0039 05       		.byte	0x5
 7332 003a 7E       		.uleb128 0x7e
 7333 003b 0B460000 		.4byte	.LASF919
 7334 003f 05       		.byte	0x5
 7335 0040 8201     		.uleb128 0x82
 7336 0042 15740000 		.4byte	.LASF920
 7337 0046 05       		.byte	0x5
 7338 0047 8501     		.uleb128 0x85
ARM GAS  C:\Users\STUDENT\AppData\Local\Temp\cc6DO5vW.s 			page 143


 7339 0049 B0240000 		.4byte	.LASF921
 7340 004d 05       		.byte	0x5
 7341 004e 8701     		.uleb128 0x87
 7342 0050 EC3C0000 		.4byte	.LASF922
 7343 0054 00       		.byte	0
 7344              		.section	.debug_macro,"G",%progbits,wm4.lpc17xx_gpio.h.46.bb938143fd7eb0f6afd2eec72bcfb190,comdat
 7345              	.Ldebug_macro14:
 7346 0000 0400     		.2byte	0x4
 7347 0002 00       		.byte	0
 7348 0003 05       		.byte	0x5
 7349 0004 2E       		.uleb128 0x2e
 7350 0005 9A660000 		.4byte	.LASF923
 7351 0009 05       		.byte	0x5
 7352 000a 30       		.uleb128 0x30
 7353 000b 5A7B0000 		.4byte	.LASF924
 7354 000f 05       		.byte	0x5
 7355 0010 32       		.uleb128 0x32
 7356 0011 8D600000 		.4byte	.LASF925
 7357 0015 05       		.byte	0x5
 7358 0016 34       		.uleb128 0x34
 7359 0017 1C330000 		.4byte	.LASF926
 7360 001b 05       		.byte	0x5
 7361 001c 36       		.uleb128 0x36
 7362 001d 684B0000 		.4byte	.LASF927
 7363 0021 05       		.byte	0x5
 7364 0022 3A       		.uleb128 0x3a
 7365 0023 703D0000 		.4byte	.LASF928
 7366 0027 05       		.byte	0x5
 7367 0028 3C       		.uleb128 0x3c
 7368 0029 7E520000 		.4byte	.LASF929
 7369 002d 05       		.byte	0x5
 7370 002e 3E       		.uleb128 0x3e
 7371 002f 8F140000 		.4byte	.LASF930
 7372 0033 05       		.byte	0x5
 7373 0034 40       		.uleb128 0x40
 7374 0035 BA550000 		.4byte	.LASF931
 7375 0039 05       		.byte	0x5
 7376 003a 42       		.uleb128 0x42
 7377 003b 5B1A0000 		.4byte	.LASF932
 7378 003f 00       		.byte	0
 7379              		.section	.debug_macro,"G",%progbits,wm4.lpc17xx_libcfg_default.h.27.7c412cdf4245ef94b86bdcf981a232
 7380              	.Ldebug_macro15:
 7381 0000 0400     		.2byte	0x4
 7382 0002 00       		.byte	0
 7383 0003 05       		.byte	0x5
 7384 0004 1B       		.uleb128 0x1b
 7385 0005 25630000 		.4byte	.LASF933
 7386 0009 05       		.byte	0x5
 7387 000a 2A       		.uleb128 0x2a
 7388 000b 170F0000 		.4byte	.LASF934
 7389 000f 05       		.byte	0x5
 7390 0010 32       		.uleb128 0x32
 7391 0011 61530000 		.4byte	.LASF935
 7392 0015 05       		.byte	0x5
 7393 0016 35       		.uleb128 0x35
 7394 0017 934A0000 		.4byte	.LASF936
 7395 001b 05       		.byte	0x5
ARM GAS  C:\Users\STUDENT\AppData\Local\Temp\cc6DO5vW.s 			page 144


 7396 001c 36       		.uleb128 0x36
 7397 001d CF430000 		.4byte	.LASF937
 7398 0021 05       		.byte	0x5
 7399 0022 37       		.uleb128 0x37
 7400 0023 44590000 		.4byte	.LASF938
 7401 0027 05       		.byte	0x5
 7402 0028 38       		.uleb128 0x38
 7403 0029 81390000 		.4byte	.LASF939
 7404 002d 05       		.byte	0x5
 7405 002e 39       		.uleb128 0x39
 7406 002f B30D0000 		.4byte	.LASF940
 7407 0033 05       		.byte	0x5
 7408 0034 3C       		.uleb128 0x3c
 7409 0035 1F0F0000 		.4byte	.LASF941
 7410 0039 05       		.byte	0x5
 7411 003a 3F       		.uleb128 0x3f
 7412 003b 9C570000 		.4byte	.LASF942
 7413 003f 05       		.byte	0x5
 7414 0040 40       		.uleb128 0x40
 7415 0041 774F0000 		.4byte	.LASF943
 7416 0045 05       		.byte	0x5
 7417 0046 41       		.uleb128 0x41
 7418 0047 E8520000 		.4byte	.LASF944
 7419 004b 05       		.byte	0x5
 7420 004c 45       		.uleb128 0x45
 7421 004d BF0C0000 		.4byte	.LASF945
 7422 0051 05       		.byte	0x5
 7423 0052 46       		.uleb128 0x46
 7424 0053 CC2A0000 		.4byte	.LASF946
 7425 0057 05       		.byte	0x5
 7426 0058 47       		.uleb128 0x47
 7427 0059 14790000 		.4byte	.LASF947
 7428 005d 05       		.byte	0x5
 7429 005e 48       		.uleb128 0x48
 7430 005f 27540000 		.4byte	.LASF948
 7431 0063 05       		.byte	0x5
 7432 0064 4B       		.uleb128 0x4b
 7433 0065 B4030000 		.4byte	.LASF949
 7434 0069 05       		.byte	0x5
 7435 006a 4E       		.uleb128 0x4e
 7436 006b 1D600000 		.4byte	.LASF950
 7437 006f 05       		.byte	0x5
 7438 0070 52       		.uleb128 0x52
 7439 0071 6E450000 		.4byte	.LASF951
 7440 0075 05       		.byte	0x5
 7441 0076 56       		.uleb128 0x56
 7442 0077 EA3D0000 		.4byte	.LASF952
 7443 007b 05       		.byte	0x5
 7444 007c 59       		.uleb128 0x59
 7445 007d E85F0000 		.4byte	.LASF953
 7446 0081 05       		.byte	0x5
 7447 0082 5D       		.uleb128 0x5d
 7448 0083 9F510000 		.4byte	.LASF954
 7449 0087 05       		.byte	0x5
 7450 0088 5E       		.uleb128 0x5e
 7451 0089 91160000 		.4byte	.LASF955
 7452 008d 05       		.byte	0x5
ARM GAS  C:\Users\STUDENT\AppData\Local\Temp\cc6DO5vW.s 			page 145


 7453 008e 61       		.uleb128 0x61
 7454 008f A3180000 		.4byte	.LASF956
 7455 0093 05       		.byte	0x5
 7456 0094 64       		.uleb128 0x64
 7457 0095 55500000 		.4byte	.LASF957
 7458 0099 05       		.byte	0x5
 7459 009a 67       		.uleb128 0x67
 7460 009b D54E0000 		.4byte	.LASF958
 7461 009f 05       		.byte	0x5
 7462 00a0 68       		.uleb128 0x68
 7463 00a1 C8420000 		.4byte	.LASF959
 7464 00a5 05       		.byte	0x5
 7465 00a6 6B       		.uleb128 0x6b
 7466 00a7 76780000 		.4byte	.LASF960
 7467 00ab 05       		.byte	0x5
 7468 00ac 6E       		.uleb128 0x6e
 7469 00ad 902B0000 		.4byte	.LASF961
 7470 00b1 05       		.byte	0x5
 7471 00b2 71       		.uleb128 0x71
 7472 00b3 61100000 		.4byte	.LASF962
 7473 00b7 05       		.byte	0x5
 7474 00b8 74       		.uleb128 0x74
 7475 00b9 5C1E0000 		.4byte	.LASF963
 7476 00bd 05       		.byte	0x5
 7477 00be 77       		.uleb128 0x77
 7478 00bf B1770000 		.4byte	.LASF964
 7479 00c3 05       		.byte	0x5
 7480 00c4 8601     		.uleb128 0x86
 7481 00c6 E5540000 		.4byte	.LASF965
 7482 00ca 00       		.byte	0
 7483              		.section	.debug_line,"",%progbits
 7484              	.Ldebug_line0:
 7485 0000 63050000 		.section	.debug_str,"MS",%progbits,1
 7485      02007F02 
 7485      00000201 
 7485      FB0E0D00 
 7485      01010101 
 7486              	.LASF522:
 7487 0000 5F5F5553 		.ascii	"__USAT(ARG1,ARG2) ({ uint32_t __RES, __ARG1 = (ARG1"
 7487      41542841 
 7487      5247312C 
 7487      41524732 
 7487      2920287B 
 7488 0033 293B205F 		.ascii	"); __ASM (\"usat %0, %1, %2\" : \"=r\" (__RES) : \""
 7488      5F41534D 
 7488      20282275 
 7488      73617420 
 7488      25302C20 
 7489 0061 49222028 		.ascii	"I\" (ARG2), \"r\" (__ARG1) ); __RES; })\000"
 7489      41524732 
 7489      292C2022 
 7489      72222028 
 7489      5F5F4152 
 7490              	.LASF404:
 7491 0086 5F535953 		.ascii	"_SYS__INTSUP_H \000"
 7491      5F5F494E 
 7491      54535550 
ARM GAS  C:\Users\STUDENT\AppData\Local\Temp\cc6DO5vW.s 			page 146


 7491      5F482000 
 7492              	.LASF1052:
 7493 0096 4750494F 		.ascii	"GPIO_ClearValue\000"
 7493      5F436C65 
 7493      61725661 
 7493      6C756500 
 7494              	.LASF157:
 7495 00a6 5F5F4445 		.ascii	"__DECIMAL_DIG__ 17\000"
 7495      43494D41 
 7495      4C5F4449 
 7495      475F5F20 
 7495      313700
 7496              	.LASF294:
 7497 00b9 5F5F5548 		.ascii	"__UHA_FBIT__ 8\000"
 7497      415F4642 
 7497      49545F5F 
 7497      203800
 7498              	.LASF1065:
 7499 00c8 46494F5F 		.ascii	"FIO_ClearInt\000"
 7499      436C6561 
 7499      72496E74 
 7499      00
 7500              	.LASF513:
 7501 00d5 494E5433 		.ascii	"INT32_C(x) __INT32_C(x)\000"
 7501      325F4328 
 7501      7829205F 
 7501      5F494E54 
 7501      33325F43 
 7502              	.LASF718:
 7503 00ed 4D50555F 		.ascii	"MPU_RASR_XN_Pos 28\000"
 7503      52415352 
 7503      5F584E5F 
 7503      506F7320 
 7503      323800
 7504              	.LASF1058:
 7505 0100 4750494F 		.ascii	"GPIO_ClearInt\000"
 7505      5F436C65 
 7505      6172496E 
 7505      7400
 7506              	.LASF184:
 7507 010e 5F5F4445 		.ascii	"__DEC128_EPSILON__ 1E-33DL\000"
 7507      43313238 
 7507      5F455053 
 7507      494C4F4E 
 7507      5F5F2031 
 7508              	.LASF631:
 7509 0129 5343425F 		.ascii	"SCB_HFSR_VECTTBL_Msk (1UL << SCB_HFSR_VECTTBL_Pos)\000"
 7509      48465352 
 7509      5F564543 
 7509      5454424C 
 7509      5F4D736B 
 7510              	.LASF824:
 7511 015c 4C50435F 		.ascii	"LPC_GPIOINT_BASE (LPC_APB0_BASE + 0x28080)\000"
 7511      4750494F 
 7511      494E545F 
 7511      42415345 
 7511      20284C50 
ARM GAS  C:\Users\STUDENT\AppData\Local\Temp\cc6DO5vW.s 			page 147


 7512              	.LASF73:
 7513 0187 5F5F5743 		.ascii	"__WCHAR_MIN__ 0U\000"
 7513      4841525F 
 7513      4D494E5F 
 7513      5F203055 
 7513      00
 7514              	.LASF314:
 7515 0198 5F5F4743 		.ascii	"__GCC_ATOMIC_WCHAR_T_LOCK_FREE 2\000"
 7515      435F4154 
 7515      4F4D4943 
 7515      5F574348 
 7515      41525F54 
 7516              	.LASF293:
 7517 01b9 5F5F5441 		.ascii	"__TA_IBIT__ 64\000"
 7517      5F494249 
 7517      545F5F20 
 7517      363400
 7518              	.LASF590:
 7519 01c8 5343425F 		.ascii	"SCB_CCR_NONBASETHRDENA_Pos 0\000"
 7519      4343525F 
 7519      4E4F4E42 
 7519      41534554 
 7519      48524445 
 7520              	.LASF186:
 7521 01e5 5F5F5346 		.ascii	"__SFRACT_FBIT__ 7\000"
 7521      52414354 
 7521      5F464249 
 7521      545F5F20 
 7521      3700
 7522              	.LASF983:
 7523 01f7 73697A65 		.ascii	"sizetype\000"
 7523      74797065 
 7523      00
 7524              	.LASF559:
 7525 0200 5343425F 		.ascii	"SCB_VTOR_TBLOFF_Msk (0x3FFFFFUL << SCB_VTOR_TBLOFF_"
 7525      56544F52 
 7525      5F54424C 
 7525      4F46465F 
 7525      4D736B20 
 7526 0233 506F7329 		.ascii	"Pos)\000"
 7526      00
 7527              	.LASF1056:
 7528 0238 4750494F 		.ascii	"GPIO_GetIntStatus\000"
 7528      5F476574 
 7528      496E7453 
 7528      74617475 
 7528      7300
 7529              	.LASF1074:
 7530 024a 46494F5F 		.ascii	"FIO_ByteSetDir\000"
 7530      42797465 
 7530      53657444 
 7530      697200
 7531              	.LASF786:
 7532 0259 436F7265 		.ascii	"CoreDebug_DEMCR_VC_MMERR_Pos 4\000"
 7532      44656275 
 7532      675F4445 
 7532      4D43525F 
ARM GAS  C:\Users\STUDENT\AppData\Local\Temp\cc6DO5vW.s 			page 148


 7532      56435F4D 
 7533              	.LASF258:
 7534 0278 5F5F4C4C 		.ascii	"__LLACCUM_MIN__ (-0X1P31LLK-0X1P31LLK)\000"
 7534      41434355 
 7534      4D5F4D49 
 7534      4E5F5F20 
 7534      282D3058 
 7535              	.LASF250:
 7536 029f 5F5F4C41 		.ascii	"__LACCUM_EPSILON__ 0x1P-31LK\000"
 7536      4343554D 
 7536      5F455053 
 7536      494C4F4E 
 7536      5F5F2030 
 7537              	.LASF76:
 7538 02bc 5F5F5054 		.ascii	"__PTRDIFF_MAX__ 0x7fffffff\000"
 7538      52444946 
 7538      465F4D41 
 7538      585F5F20 
 7538      30783766 
 7539              	.LASF624:
 7540 02d7 5343425F 		.ascii	"SCB_CFSR_MEMFAULTSR_Pos 0\000"
 7540      43465352 
 7540      5F4D454D 
 7540      4641554C 
 7540      5453525F 
 7541              	.LASF79:
 7542 02f1 5F5F494E 		.ascii	"__INTMAX_C(c) c ## LL\000"
 7542      544D4158 
 7542      5F432863 
 7542      29206320 
 7542      2323204C 
 7543              	.LASF443:
 7544 0307 5F55494E 		.ascii	"_UINT32_T_DECLARED \000"
 7544      5433325F 
 7544      545F4445 
 7544      434C4152 
 7544      45442000 
 7545              	.LASF735:
 7546 031b 4D50555F 		.ascii	"MPU_RASR_ENA_Msk (0x1UL << MPU_RASR_ENA_Pos)\000"
 7546      52415352 
 7546      5F454E41 
 7546      5F4D736B 
 7546      20283078 
 7547              	.LASF78:
 7548 0348 5F5F494E 		.ascii	"__INTMAX_MAX__ 0x7fffffffffffffffLL\000"
 7548      544D4158 
 7548      5F4D4158 
 7548      5F5F2030 
 7548      78376666 
 7549              	.LASF171:
 7550 036c 5F5F4445 		.ascii	"__DEC32_SUBNORMAL_MIN__ 0.000001E-95DF\000"
 7550      4333325F 
 7550      5355424E 
 7550      4F524D41 
 7550      4C5F4D49 
 7551              	.LASF275:
 7552 0393 5F5F5451 		.ascii	"__TQ_IBIT__ 0\000"
ARM GAS  C:\Users\STUDENT\AppData\Local\Temp\cc6DO5vW.s 			page 149


 7552      5F494249 
 7552      545F5F20 
 7552      3000
 7553              	.LASF442:
 7554 03a1 5F494E54 		.ascii	"_INT32_T_DECLARED \000"
 7554      33325F54 
 7554      5F444543 
 7554      4C415245 
 7554      442000
 7555              	.LASF949:
 7556 03b4 5F54494D 		.ascii	"_TIM 1\000"
 7556      203100
 7557              	.LASF571:
 7558 03bb 5343425F 		.ascii	"SCB_AIRCR_VECTCLRACTIVE_Msk (1UL << SCB_AIRCR_VECTC"
 7558      41495243 
 7558      525F5645 
 7558      4354434C 
 7558      52414354 
 7559 03ee 4C524143 		.ascii	"LRACTIVE_Pos)\000"
 7559      54495645 
 7559      5F506F73 
 7559      2900
 7560              	.LASF11:
 7561 03fc 5F5F4154 		.ascii	"__ATOMIC_CONSUME 1\000"
 7561      4F4D4943 
 7561      5F434F4E 
 7561      53554D45 
 7561      203100
 7562              	.LASF208:
 7563 040f 5F5F4C46 		.ascii	"__LFRACT_MIN__ (-0.5LR-0.5LR)\000"
 7563      52414354 
 7563      5F4D494E 
 7563      5F5F2028 
 7563      2D302E35 
 7564              	.LASF72:
 7565 042d 5F5F5743 		.ascii	"__WCHAR_MAX__ 0xffffffffU\000"
 7565      4841525F 
 7565      4D41585F 
 7565      5F203078 
 7565      66666666 
 7566              	.LASF790:
 7567 0447 5343535F 		.ascii	"SCS_BASE (0xE000E000UL)\000"
 7567      42415345 
 7567      20283078 
 7567      45303030 
 7567      45303030 
 7568              	.LASF238:
 7569 045f 5F5F4143 		.ascii	"__ACCUM_MIN__ (-0X1P15K-0X1P15K)\000"
 7569      43554D5F 
 7569      4D494E5F 
 7569      5F20282D 
 7569      30583150 
 7570              	.LASF853:
 7571 0480 4C50435F 		.ascii	"LPC_GPDMACH5_BASE (LPC_AHB_BASE + 0x041A0)\000"
 7571      4750444D 
 7571      41434835 
 7571      5F424153 
ARM GAS  C:\Users\STUDENT\AppData\Local\Temp\cc6DO5vW.s 			page 150


 7571      4520284C 
 7572              	.LASF629:
 7573 04ab 5343425F 		.ascii	"SCB_HFSR_FORCED_Msk (1UL << SCB_HFSR_FORCED_Pos)\000"
 7573      48465352 
 7573      5F464F52 
 7573      4345445F 
 7573      4D736B20 
 7574              	.LASF799:
 7575 04dc 4E564943 		.ascii	"NVIC ((NVIC_Type *) NVIC_BASE)\000"
 7575      2028284E 
 7575      5649435F 
 7575      54797065 
 7575      202A2920 
 7576              	.LASF884:
 7577 04fb 4C50435F 		.ascii	"LPC_RTC ((LPC_RTC_TypeDef *) LPC_RTC_BASE )\000"
 7577      52544320 
 7577      28284C50 
 7577      435F5254 
 7577      435F5479 
 7578              	.LASF981:
 7579 0527 696E7433 		.ascii	"int32_t\000"
 7579      325F7400 
 7580              	.LASF533:
 7581 052f 5343425F 		.ascii	"SCB_CPUID_PARTNO_Msk (0xFFFUL << SCB_CPUID_PARTNO_P"
 7581      43505549 
 7581      445F5041 
 7581      52544E4F 
 7581      5F4D736B 
 7582 0562 6F732900 		.ascii	"os)\000"
 7583              	.LASF695:
 7584 0566 496E7454 		.ascii	"IntType_ACTLR_DISDEFWBUF_Msk (1UL << IntType_ACTLR_"
 7584      7970655F 
 7584      4143544C 
 7584      525F4449 
 7584      53444546 
 7585 0599 44495344 		.ascii	"DISDEFWBUF_Pos)\000"
 7585      45465742 
 7585      55465F50 
 7585      6F732900 
 7586              	.LASF15:
 7587 05a9 5F5F5349 		.ascii	"__SIZEOF_LONG_LONG__ 8\000"
 7587      5A454F46 
 7587      5F4C4F4E 
 7587      475F4C4F 
 7587      4E475F5F 
 7588              	.LASF908:
 7589 05c0 4C50435F 		.ascii	"LPC_GPDMACH7 ((LPC_GPDMACH_TypeDef *) LPC_GPDMACH7_"
 7589      4750444D 
 7589      41434837 
 7589      2028284C 
 7589      50435F47 
 7590 05f3 42415345 		.ascii	"BASE )\000"
 7590      202900
 7591              	.LASF142:
 7592 05fa 5F5F4442 		.ascii	"__DBL_MAX_10_EXP__ 308\000"
 7592      4C5F4D41 
 7592      585F3130 
ARM GAS  C:\Users\STUDENT\AppData\Local\Temp\cc6DO5vW.s 			page 151


 7592      5F455850 
 7592      5F5F2033 
 7593              	.LASF841:
 7594 0611 4C50435F 		.ascii	"LPC_I2S_BASE (LPC_APB1_BASE + 0x28000)\000"
 7594      4932535F 
 7594      42415345 
 7594      20284C50 
 7594      435F4150 
 7595              	.LASF177:
 7596 0638 5F5F4445 		.ascii	"__DEC64_EPSILON__ 1E-15DD\000"
 7596      4336345F 
 7596      45505349 
 7596      4C4F4E5F 
 7596      5F203145 
 7597              	.LASF198:
 7598 0652 5F5F4652 		.ascii	"__FRACT_MIN__ (-0.5R-0.5R)\000"
 7598      4143545F 
 7598      4D494E5F 
 7598      5F20282D 
 7598      302E3552 
 7599              	.LASF810:
 7600 066d 4C50435F 		.ascii	"LPC_GPIO_BASE (0x2009C000UL)\000"
 7600      4750494F 
 7600      5F424153 
 7600      45202830 
 7600      78323030 
 7601              	.LASF264:
 7602 068a 5F5F554C 		.ascii	"__ULLACCUM_MAX__ 0XFFFFFFFFFFFFFFFFP-32ULLK\000"
 7602      4C414343 
 7602      554D5F4D 
 7602      41585F5F 
 7602      20305846 
 7603              	.LASF645:
 7604 06b6 53797354 		.ascii	"SysTick_CTRL_CLKSOURCE_Msk (1UL << SysTick_CTRL_CLK"
 7604      69636B5F 
 7604      4354524C 
 7604      5F434C4B 
 7604      534F5552 
 7605 06e9 534F5552 		.ascii	"SOURCE_Pos)\000"
 7605      43455F50 
 7605      6F732900 
 7606              	.LASF878:
 7607 06f5 4C50435F 		.ascii	"LPC_PWM1 ((LPC_PWM_TypeDef *) LPC_PWM1_BASE )\000"
 7607      50574D31 
 7607      2028284C 
 7607      50435F50 
 7607      574D5F54 
 7608              	.LASF234:
 7609 0723 5F5F5553 		.ascii	"__USACCUM_MAX__ 0XFFFFP-8UHK\000"
 7609      41434355 
 7609      4D5F4D41 
 7609      585F5F20 
 7609      30584646 
 7610              	.LASF168:
 7611 0740 5F5F4445 		.ascii	"__DEC32_MIN__ 1E-95DF\000"
 7611      4333325F 
 7611      4D494E5F 
ARM GAS  C:\Users\STUDENT\AppData\Local\Temp\cc6DO5vW.s 			page 152


 7611      5F203145 
 7611      2D393544 
 7612              	.LASF891:
 7613 0756 4C50435F 		.ascii	"LPC_CANAF_RAM ((LPC_CANAF_RAM_TypeDef *) LPC_CANAF_"
 7613      43414E41 
 7613      465F5241 
 7613      4D202828 
 7613      4C50435F 
 7614 0789 52414D5F 		.ascii	"RAM_BASE)\000"
 7614      42415345 
 7614      2900
 7615              	.LASF271:
 7616 0793 5F5F5351 		.ascii	"__SQ_IBIT__ 0\000"
 7616      5F494249 
 7616      545F5F20 
 7616      3000
 7617              	.LASF25:
 7618 07a1 5F5F4F52 		.ascii	"__ORDER_PDP_ENDIAN__ 3412\000"
 7618      4445525F 
 7618      5044505F 
 7618      454E4449 
 7618      414E5F5F 
 7619              	.LASF29:
 7620 07bb 5F5F5349 		.ascii	"__SIZE_TYPE__ unsigned int\000"
 7620      5A455F54 
 7620      5950455F 
 7620      5F20756E 
 7620      7369676E 
 7621              	.LASF174:
 7622 07d6 5F5F4445 		.ascii	"__DEC64_MAX_EXP__ 385\000"
 7622      4336345F 
 7622      4D41585F 
 7622      4558505F 
 7622      5F203338 
 7623              	.LASF519:
 7624 07ec 5F474343 		.ascii	"_GCC_WRAP_STDINT_H \000"
 7624      5F575241 
 7624      505F5354 
 7624      44494E54 
 7624      5F482000 
 7625              	.LASF587:
 7626 0800 5343425F 		.ascii	"SCB_CCR_UNALIGN_TRP_Msk (1UL << SCB_CCR_UNALIGN_TRP"
 7626      4343525F 
 7626      554E414C 
 7626      49474E5F 
 7626      5452505F 
 7627 0833 5F506F73 		.ascii	"_Pos)\000"
 7627      2900
 7628              	.LASF134:
 7629 0839 5F5F464C 		.ascii	"__FLT_HAS_DENORM__ 1\000"
 7629      545F4841 
 7629      535F4445 
 7629      4E4F524D 
 7629      5F5F2031 
 7630              	.LASF38:
 7631 084e 5F5F494E 		.ascii	"__INT8_TYPE__ signed char\000"
 7631      54385F54 
ARM GAS  C:\Users\STUDENT\AppData\Local\Temp\cc6DO5vW.s 			page 153


 7631      5950455F 
 7631      5F207369 
 7631      676E6564 
 7632              	.LASF334:
 7633 0868 5F5F4152 		.ascii	"__ARM_ARCH_PROFILE 77\000"
 7633      4D5F4152 
 7633      43485F50 
 7633      524F4649 
 7633      4C452037 
 7634              	.LASF872:
 7635 087e 4C50435F 		.ascii	"LPC_TIM3 ((LPC_TIM_TypeDef *) LPC_TIM3_BASE )\000"
 7635      54494D33 
 7635      2028284C 
 7635      50435F54 
 7635      494D5F54 
 7636              	.LASF543:
 7637 08ac 5343425F 		.ascii	"SCB_ICSR_PENDSTSET_Msk (1UL << SCB_ICSR_PENDSTSET_P"
 7637      49435352 
 7637      5F50454E 
 7637      44535453 
 7637      45545F4D 
 7638 08df 6F732900 		.ascii	"os)\000"
 7639              	.LASF233:
 7640 08e3 5F5F5553 		.ascii	"__USACCUM_MIN__ 0.0UHK\000"
 7640      41434355 
 7640      4D5F4D49 
 7640      4E5F5F20 
 7640      302E3055 
 7641              	.LASF1075:
 7642 08fa 62797465 		.ascii	"byteNum\000"
 7642      4E756D00 
 7643              	.LASF892:
 7644 0902 4C50435F 		.ascii	"LPC_CANAF ((LPC_CANAF_TypeDef *) LPC_CANAF_BASE )\000"
 7644      43414E41 
 7644      46202828 
 7644      4C50435F 
 7644      43414E41 
 7645              	.LASF153:
 7646 0934 5F5F4C44 		.ascii	"__LDBL_MIN_EXP__ (-1021)\000"
 7646      424C5F4D 
 7646      494E5F45 
 7646      58505F5F 
 7646      20282D31 
 7647              	.LASF151:
 7648 094d 5F5F4C44 		.ascii	"__LDBL_MANT_DIG__ 53\000"
 7648      424C5F4D 
 7648      414E545F 
 7648      4449475F 
 7648      5F203533 
 7649              	.LASF701:
 7650 0962 4D50555F 		.ascii	"MPU_TYPE_DREGION_Msk (0xFFUL << MPU_TYPE_DREGION_Po"
 7650      54595045 
 7650      5F445245 
 7650      47494F4E 
 7650      5F4D736B 
 7651 0995 732900   		.ascii	"s)\000"
 7652              	.LASF488:
ARM GAS  C:\Users\STUDENT\AppData\Local\Temp\cc6DO5vW.s 			page 154


 7653 0998 494E545F 		.ascii	"INT_FAST16_MIN (-__INT_FAST16_MAX__ - 1)\000"
 7653      46415354 
 7653      31365F4D 
 7653      494E2028 
 7653      2D5F5F49 
 7654              	.LASF700:
 7655 09c1 4D50555F 		.ascii	"MPU_TYPE_DREGION_Pos 8\000"
 7655      54595045 
 7655      5F445245 
 7655      47494F4E 
 7655      5F506F73 
 7656              	.LASF101:
 7657 09d8 5F5F5549 		.ascii	"__UINT8_C(c) c\000"
 7657      4E54385F 
 7657      43286329 
 7657      206300
 7658              	.LASF1068:
 7659 09e7 46494F5F 		.ascii	"FIO_HalfWordSetDir\000"
 7659      48616C66 
 7659      576F7264 
 7659      53657444 
 7659      697200
 7660              	.LASF39:
 7661 09fa 5F5F494E 		.ascii	"__INT16_TYPE__ short int\000"
 7661      5431365F 
 7661      54595045 
 7661      5F5F2073 
 7661      686F7274 
 7662              	.LASF694:
 7663 0a13 496E7454 		.ascii	"IntType_ACTLR_DISDEFWBUF_Pos 1\000"
 7663      7970655F 
 7663      4143544C 
 7663      525F4449 
 7663      53444546 
 7664              	.LASF409:
 7665 0a32 756E7369 		.ascii	"unsigned\000"
 7665      676E6564 
 7665      00
 7666              	.LASF845:
 7667 0a3b 4C50435F 		.ascii	"LPC_SC_BASE (LPC_APB1_BASE + 0x7C000)\000"
 7667      53435F42 
 7667      41534520 
 7667      284C5043 
 7667      5F415042 
 7668              	.LASF373:
 7669 0a61 5F5F4E45 		.ascii	"__NEWLIB_MINOR__ 4\000"
 7669      574C4942 
 7669      5F4D494E 
 7669      4F525F5F 
 7669      203400
 7670              	.LASF792:
 7671 0a74 436F7265 		.ascii	"CoreDebug_BASE (0xE000EDF0UL)\000"
 7671      44656275 
 7671      675F4241 
 7671      53452028 
 7671      30784530 
 7672              	.LASF778:
ARM GAS  C:\Users\STUDENT\AppData\Local\Temp\cc6DO5vW.s 			page 155


 7673 0a92 436F7265 		.ascii	"CoreDebug_DEMCR_VC_BUSERR_Pos 8\000"
 7673      44656275 
 7673      675F4445 
 7673      4D43525F 
 7673      56435F42 
 7674              	.LASF830:
 7675 0ab2 4C50435F 		.ascii	"LPC_CANCR_BASE (LPC_APB0_BASE + 0x40000)\000"
 7675      43414E43 
 7675      525F4241 
 7675      53452028 
 7675      4C50435F 
 7676              	.LASF423:
 7677 0adb 5F5F494E 		.ascii	"__INT8 \"hh\"\000"
 7677      54382022 
 7677      68682200 
 7678              	.LASF664:
 7679 0ae7 49544D5F 		.ascii	"ITM_TCR_ATBID_Pos 16\000"
 7679      5443525F 
 7679      41544249 
 7679      445F506F 
 7679      73203136 
 7680              	.LASF307:
 7681 0afc 5F5F4743 		.ascii	"__GCC_HAVE_SYNC_COMPARE_AND_SWAP_1 1\000"
 7681      435F4841 
 7681      56455F53 
 7681      594E435F 
 7681      434F4D50 
 7682              	.LASF471:
 7683 0b21 494E545F 		.ascii	"INT_LEAST16_MAX (__INT_LEAST16_MAX__)\000"
 7683      4C454153 
 7683      5431365F 
 7683      4D415820 
 7683      285F5F49 
 7684              	.LASF724:
 7685 0b47 4D50555F 		.ascii	"MPU_RASR_S_Pos 18\000"
 7685      52415352 
 7685      5F535F50 
 7685      6F732031 
 7685      3800
 7686              	.LASF1:
 7687 0b59 5F5F5354 		.ascii	"__STDC_HOSTED__ 1\000"
 7687      44435F48 
 7687      4F535445 
 7687      445F5F20 
 7687      3100
 7688              	.LASF221:
 7689 0b6b 5F5F554C 		.ascii	"__ULLFRACT_FBIT__ 64\000"
 7689      4C465241 
 7689      43545F46 
 7689      4249545F 
 7689      5F203634 
 7690              	.LASF399:
 7691 0b80 5F5F5F69 		.ascii	"___int_least8_t_defined 1\000"
 7691      6E745F6C 
 7691      65617374 
 7691      385F745F 
 7691      64656669 
ARM GAS  C:\Users\STUDENT\AppData\Local\Temp\cc6DO5vW.s 			page 156


 7692              	.LASF675:
 7693 0b9a 49544D5F 		.ascii	"ITM_TCR_TSENA_Msk (1UL << ITM_TCR_TSENA_Pos)\000"
 7693      5443525F 
 7693      5453454E 
 7693      415F4D73 
 7693      6B202831 
 7694              	.LASF57:
 7695 0bc7 5F5F494E 		.ascii	"__INT_FAST64_TYPE__ long long int\000"
 7695      545F4641 
 7695      53543634 
 7695      5F545950 
 7695      455F5F20 
 7696              	.LASF699:
 7697 0be9 4D50555F 		.ascii	"MPU_TYPE_IREGION_Msk (0xFFUL << MPU_TYPE_IREGION_Po"
 7697      54595045 
 7697      5F495245 
 7697      47494F4E 
 7697      5F4D736B 
 7698 0c1c 732900   		.ascii	"s)\000"
 7699              	.LASF542:
 7700 0c1f 5343425F 		.ascii	"SCB_ICSR_PENDSTSET_Pos 26\000"
 7700      49435352 
 7700      5F50454E 
 7700      44535453 
 7700      45545F50 
 7701              	.LASF462:
 7702 0c39 494E5438 		.ascii	"INT8_MAX (__INT8_MAX__)\000"
 7702      5F4D4158 
 7702      20285F5F 
 7702      494E5438 
 7702      5F4D4158 
 7703              	.LASF805:
 7704 0c51 5F5F5359 		.ascii	"__SYSTEM_LPC17xx_H \000"
 7704      5354454D 
 7704      5F4C5043 
 7704      31377878 
 7704      5F482000 
 7705              	.LASF414:
 7706 0c65 7369676E 		.ascii	"signed +0\000"
 7706      6564202B 
 7706      3000
 7707              	.LASF503:
 7708 0c6f 50545244 		.ascii	"PTRDIFF_MAX (__PTRDIFF_MAX__)\000"
 7708      4946465F 
 7708      4D415820 
 7708      285F5F50 
 7708      54524449 
 7709              	.LASF896:
 7710 0c8d 4C50435F 		.ascii	"LPC_MCPWM ((LPC_MCPWM_TypeDef *) LPC_MCPWM_BASE )\000"
 7710      4D435057 
 7710      4D202828 
 7710      4C50435F 
 7710      4D435057 
 7711              	.LASF945:
 7712 0cbf 5F493243 		.ascii	"_I2C 1\000"
 7712      203100
 7713              	.LASF304:
ARM GAS  C:\Users\STUDENT\AppData\Local\Temp\cc6DO5vW.s 			page 157


 7714 0cc6 5F5F474E 		.ascii	"__GNUC_GNU_INLINE__ 1\000"
 7714      55435F47 
 7714      4E555F49 
 7714      4E4C494E 
 7714      455F5F20 
 7715              	.LASF617:
 7716 0cdc 5343425F 		.ascii	"SCB_SHCSR_BUSFAULTACT_Msk (1UL << SCB_SHCSR_BUSFAUL"
 7716      53484353 
 7716      525F4255 
 7716      53464155 
 7716      4C544143 
 7717 0d0f 54414354 		.ascii	"TACT_Pos)\000"
 7717      5F506F73 
 7717      2900
 7718              	.LASF194:
 7719 0d19 5F5F5553 		.ascii	"__USFRACT_MAX__ 0XFFP-8UHR\000"
 7719      46524143 
 7719      545F4D41 
 7719      585F5F20 
 7719      30584646 
 7720              	.LASF644:
 7721 0d34 53797354 		.ascii	"SysTick_CTRL_CLKSOURCE_Pos 2\000"
 7721      69636B5F 
 7721      4354524C 
 7721      5F434C4B 
 7721      534F5552 
 7722              	.LASF827:
 7723 0d51 4C50435F 		.ascii	"LPC_ADC_BASE (LPC_APB0_BASE + 0x34000)\000"
 7723      4144435F 
 7723      42415345 
 7723      20284C50 
 7723      435F4150 
 7724              	.LASF764:
 7725 0d78 436F7265 		.ascii	"CoreDebug_DEMCR_TRCENA_Pos 24\000"
 7725      44656275 
 7725      675F4445 
 7725      4D43525F 
 7725      54524345 
 7726              	.LASF245:
 7727 0d96 5F5F5541 		.ascii	"__UACCUM_EPSILON__ 0x1P-16UK\000"
 7727      4343554D 
 7727      5F455053 
 7727      494C4F4E 
 7727      5F5F2030 
 7728              	.LASF940:
 7729 0db3 5F554152 		.ascii	"_UART3 1\000"
 7729      54332031 
 7729      00
 7730              	.LASF554:
 7731 0dbc 5343425F 		.ascii	"SCB_ICSR_VECTACTIVE_Pos 0\000"
 7731      49435352 
 7731      5F564543 
 7731      54414354 
 7731      4956455F 
 7732              	.LASF146:
 7733 0dd6 5F5F4442 		.ascii	"__DBL_EPSILON__ ((double)2.2204460492503131e-16L)\000"
 7733      4C5F4550 
ARM GAS  C:\Users\STUDENT\AppData\Local\Temp\cc6DO5vW.s 			page 158


 7733      53494C4F 
 7733      4E5F5F20 
 7733      2828646F 
 7734              	.LASF468:
 7735 0e08 494E5431 		.ascii	"INT16_MAX (__INT16_MAX__)\000"
 7735      365F4D41 
 7735      5820285F 
 7735      5F494E54 
 7735      31365F4D 
 7736              	.LASF866:
 7737 0e22 4C50435F 		.ascii	"LPC_GPIO3 ((LPC_GPIO_TypeDef *) LPC_GPIO3_BASE )\000"
 7737      4750494F 
 7737      33202828 
 7737      4C50435F 
 7737      4750494F 
 7738              	.LASF771:
 7739 0e53 436F7265 		.ascii	"CoreDebug_DEMCR_MON_PEND_Msk (1UL << CoreDebug_DEMC"
 7739      44656275 
 7739      675F4445 
 7739      4D43525F 
 7739      4D4F4E5F 
 7740 0e86 525F4D4F 		.ascii	"R_MON_PEND_Pos)\000"
 7740      4E5F5045 
 7740      4E445F50 
 7740      6F732900 
 7741              	.LASF211:
 7742 0e96 5F5F554C 		.ascii	"__ULFRACT_FBIT__ 32\000"
 7742      46524143 
 7742      545F4642 
 7742      49545F5F 
 7742      20333200 
 7743              	.LASF855:
 7744 0eaa 4C50435F 		.ascii	"LPC_GPDMACH7_BASE (LPC_AHB_BASE + 0x041E0)\000"
 7744      4750444D 
 7744      41434837 
 7744      5F424153 
 7744      4520284C 
 7745              	.LASF494:
 7746 0ed5 494E545F 		.ascii	"INT_FAST64_MIN (-__INT_FAST64_MAX__ - 1)\000"
 7746      46415354 
 7746      36345F4D 
 7746      494E2028 
 7746      2D5F5F49 
 7747              	.LASF456:
 7748 0efe 5F5F696E 		.ascii	"__int_fast32_t_defined 1\000"
 7748      745F6661 
 7748      73743332 
 7748      5F745F64 
 7748      6566696E 
 7749              	.LASF934:
 7750 0f17 44454255 		.ascii	"DEBUG 1\000"
 7750      47203100 
 7751              	.LASF941:
 7752 0f1f 5F535049 		.ascii	"_SPI 1\000"
 7752      203100
 7753              	.LASF660:
 7754 0f26 49544D5F 		.ascii	"ITM_TPR_PRIVMASK_Pos 0\000"
ARM GAS  C:\Users\STUDENT\AppData\Local\Temp\cc6DO5vW.s 			page 159


 7754      5450525F 
 7754      50524956 
 7754      4D41534B 
 7754      5F506F73 
 7755              	.LASF511:
 7756 0f3d 494E5431 		.ascii	"INT16_C(x) __INT16_C(x)\000"
 7756      365F4328 
 7756      7829205F 
 7756      5F494E54 
 7756      31365F43 
 7757              	.LASF190:
 7758 0f55 5F5F5346 		.ascii	"__SFRACT_EPSILON__ 0x1P-7HR\000"
 7758      52414354 
 7758      5F455053 
 7758      494C4F4E 
 7758      5F5F2030 
 7759              	.LASF1042:
 7760 0f71 4750494F 		.ascii	"GPIO_HalfWord_TypeDef\000"
 7760      5F48616C 
 7760      66576F72 
 7760      645F5479 
 7760      70654465 
 7761              	.LASF97:
 7762 0f87 5F5F494E 		.ascii	"__INT32_C(c) c ## L\000"
 7762      5433325F 
 7762      43286329 
 7762      20632023 
 7762      23204C00 
 7763              	.LASF280:
 7764 0f9b 5F5F5553 		.ascii	"__USQ_FBIT__ 32\000"
 7764      515F4642 
 7764      49545F5F 
 7764      20333200 
 7765              	.LASF24:
 7766 0fab 5F5F4F52 		.ascii	"__ORDER_BIG_ENDIAN__ 4321\000"
 7766      4445525F 
 7766      4249475F 
 7766      454E4449 
 7766      414E5F5F 
 7767              	.LASF864:
 7768 0fc5 4C50435F 		.ascii	"LPC_GPIO1 ((LPC_GPIO_TypeDef *) LPC_GPIO1_BASE )\000"
 7768      4750494F 
 7768      31202828 
 7768      4C50435F 
 7768      4750494F 
 7769              	.LASF270:
 7770 0ff6 5F5F5351 		.ascii	"__SQ_FBIT__ 31\000"
 7770      5F464249 
 7770      545F5F20 
 7770      333100
 7771              	.LASF637:
 7772 1005 5343425F 		.ascii	"SCB_DFSR_DWTTRAP_Msk (1UL << SCB_DFSR_DWTTRAP_Pos)\000"
 7772      44465352 
 7772      5F445754 
 7772      54524150 
 7772      5F4D736B 
 7773              	.LASF566:
ARM GAS  C:\Users\STUDENT\AppData\Local\Temp\cc6DO5vW.s 			page 160


 7774 1038 5343425F 		.ascii	"SCB_AIRCR_PRIGROUP_Pos 8\000"
 7774      41495243 
 7774      525F5052 
 7774      4947524F 
 7774      55505F50 
 7775              	.LASF300:
 7776 1051 5F5F5554 		.ascii	"__UTA_FBIT__ 64\000"
 7776      415F4642 
 7776      49545F5F 
 7776      20363400 
 7777              	.LASF962:
 7778 1061 5F43414E 		.ascii	"_CAN 1\000"
 7778      203100
 7779              	.LASF440:
 7780 1068 5F55494E 		.ascii	"_UINT16_T_DECLARED \000"
 7780      5431365F 
 7780      545F4445 
 7780      434C4152 
 7780      45442000 
 7781              	.LASF278:
 7782 107c 5F5F5548 		.ascii	"__UHQ_FBIT__ 16\000"
 7782      515F4642 
 7782      49545F5F 
 7782      20313600 
 7783              	.LASF483:
 7784 108c 494E545F 		.ascii	"INT_LEAST64_MAX (__INT_LEAST64_MAX__)\000"
 7784      4C454153 
 7784      5436345F 
 7784      4D415820 
 7784      285F5F49 
 7785              	.LASF356:
 7786 10b2 5F5F4C50 		.ascii	"__LPC17xx_H__ \000"
 7786      43313778 
 7786      785F485F 
 7786      5F2000
 7787              	.LASF656:
 7788 10c1 53797354 		.ascii	"SysTick_CALIB_SKEW_Pos 30\000"
 7788      69636B5F 
 7788      43414C49 
 7788      425F534B 
 7788      45575F50 
 7789              	.LASF112:
 7790 10db 5F5F5549 		.ascii	"__UINT_FAST8_MAX__ 0xffffffffU\000"
 7790      4E545F46 
 7790      41535438 
 7790      5F4D4158 
 7790      5F5F2030 
 7791              	.LASF825:
 7792 10fa 4C50435F 		.ascii	"LPC_PINCON_BASE (LPC_APB0_BASE + 0x2C000)\000"
 7792      50494E43 
 7792      4F4E5F42 
 7792      41534520 
 7792      284C5043 
 7793              	.LASF170:
 7794 1124 5F5F4445 		.ascii	"__DEC32_EPSILON__ 1E-6DF\000"
 7794      4333325F 
 7794      45505349 
ARM GAS  C:\Users\STUDENT\AppData\Local\Temp\cc6DO5vW.s 			page 161


 7794      4C4F4E5F 
 7794      5F203145 
 7795              	.LASF506:
 7796 113d 57434841 		.ascii	"WCHAR_MAX (__WCHAR_MAX__)\000"
 7796      525F4D41 
 7796      5820285F 
 7796      5F574348 
 7796      41525F4D 
 7797              	.LASF622:
 7798 1157 5343425F 		.ascii	"SCB_CFSR_BUSFAULTSR_Pos 8\000"
 7798      43465352 
 7798      5F425553 
 7798      4641554C 
 7798      5453525F 
 7799              	.LASF49:
 7800 1171 5F5F494E 		.ascii	"__INT_LEAST64_TYPE__ long long int\000"
 7800      545F4C45 
 7800      41535436 
 7800      345F5459 
 7800      50455F5F 
 7801              	.LASF465:
 7802 1194 494E545F 		.ascii	"INT_LEAST8_MAX (__INT_LEAST8_MAX__)\000"
 7802      4C454153 
 7802      54385F4D 
 7802      41582028 
 7802      5F5F494E 
 7803              	.LASF365:
 7804 11b8 5F5F4153 		.ascii	"__ASM __asm\000"
 7804      4D205F5F 
 7804      61736D00 
 7805              	.LASF969:
 7806 11c4 5F5F7569 		.ascii	"__uint8_t\000"
 7806      6E74385F 
 7806      7400
 7807              	.LASF854:
 7808 11ce 4C50435F 		.ascii	"LPC_GPDMACH6_BASE (LPC_AHB_BASE + 0x041C0)\000"
 7808      4750444D 
 7808      41434836 
 7808      5F424153 
 7808      4520284C 
 7809              	.LASF344:
 7810 11f9 5F5F5646 		.ascii	"__VFP_FP__ 1\000"
 7810      505F4650 
 7810      5F5F2031 
 7810      00
 7811              	.LASF433:
 7812 1206 5F5F4C45 		.ascii	"__LEAST32 \"l\"\000"
 7812      41535433 
 7812      3220226C 
 7812      2200
 7813              	.LASF426:
 7814 1214 5F5F494E 		.ascii	"__INT64 \"ll\"\000"
 7814      54363420 
 7814      226C6C22 
 7814      00
 7815              	.LASF1080:
 7816 1221 474E5520 		.ascii	"GNU C89 5.4.1 20160919 (release) [ARM/embedded-5-br"
ARM GAS  C:\Users\STUDENT\AppData\Local\Temp\cc6DO5vW.s 			page 162


 7816      43383920 
 7816      352E342E 
 7816      31203230 
 7816      31363039 
 7817 1254 616E6368 		.ascii	"anch revision 240496] -mcpu=cortex-m3 -mthumb -g -g"
 7817      20726576 
 7817      6973696F 
 7817      6E203234 
 7817      30343936 
 7818 1287 67646233 		.ascii	"gdb3 -O0 -std=gnu90 -ffunction-sections -fdata-sect"
 7818      202D4F30 
 7818      202D7374 
 7818      643D676E 
 7818      75393020 
 7819 12ba 696F6E73 		.ascii	"ions\000"
 7819      00
 7820              	.LASF835:
 7821 12bf 4C50435F 		.ascii	"LPC_DAC_BASE (LPC_APB1_BASE + 0x0C000)\000"
 7821      4441435F 
 7821      42415345 
 7821      20284C50 
 7821      435F4150 
 7822              	.LASF113:
 7823 12e6 5F5F5549 		.ascii	"__UINT_FAST16_MAX__ 0xffffffffU\000"
 7823      4E545F46 
 7823      41535431 
 7823      365F4D41 
 7823      585F5F20 
 7824              	.LASF482:
 7825 1306 494E545F 		.ascii	"INT_LEAST64_MIN (-__INT_LEAST64_MAX__ - 1)\000"
 7825      4C454153 
 7825      5436345F 
 7825      4D494E20 
 7825      282D5F5F 
 7826              	.LASF640:
 7827 1331 5343425F 		.ascii	"SCB_DFSR_HALTED_Pos 0\000"
 7827      44465352 
 7827      5F48414C 
 7827      5445445F 
 7827      506F7320 
 7828              	.LASF116:
 7829 1347 5F5F494E 		.ascii	"__INTPTR_MAX__ 0x7fffffff\000"
 7829      54505452 
 7829      5F4D4158 
 7829      5F5F2030 
 7829      78376666 
 7830              	.LASF119:
 7831 1361 5F5F4743 		.ascii	"__GCC_IEC_559_COMPLEX 0\000"
 7831      435F4945 
 7831      435F3535 
 7831      395F434F 
 7831      4D504C45 
 7832              	.LASF169:
 7833 1379 5F5F4445 		.ascii	"__DEC32_MAX__ 9.999999E96DF\000"
 7833      4333325F 
 7833      4D41585F 
 7833      5F20392E 
ARM GAS  C:\Users\STUDENT\AppData\Local\Temp\cc6DO5vW.s 			page 163


 7833      39393939 
 7834              	.LASF203:
 7835 1395 5F5F5546 		.ascii	"__UFRACT_MIN__ 0.0UR\000"
 7835      52414354 
 7835      5F4D494E 
 7835      5F5F2030 
 7835      2E305552 
 7836              	.LASF591:
 7837 13aa 5343425F 		.ascii	"SCB_CCR_NONBASETHRDENA_Msk (1UL << SCB_CCR_NONBASET"
 7837      4343525F 
 7837      4E4F4E42 
 7837      41534554 
 7837      48524445 
 7838 13dd 48524445 		.ascii	"HRDENA_Pos)\000"
 7838      4E415F50 
 7838      6F732900 
 7839              	.LASF773:
 7840 13e9 436F7265 		.ascii	"CoreDebug_DEMCR_MON_EN_Msk (1UL << CoreDebug_DEMCR_"
 7840      44656275 
 7840      675F4445 
 7840      4D43525F 
 7840      4D4F4E5F 
 7841 141c 4D4F4E5F 		.ascii	"MON_EN_Pos)\000"
 7841      454E5F50 
 7841      6F732900 
 7842              	.LASF667:
 7843 1428 49544D5F 		.ascii	"ITM_TCR_TSPrescale_Msk (3UL << ITM_TCR_TSPrescale_P"
 7843      5443525F 
 7843      54535072 
 7843      65736361 
 7843      6C655F4D 
 7844 145b 6F732900 		.ascii	"os)\000"
 7845              	.LASF1082:
 7846 145f 433A5C55 		.ascii	"C:\\Users\\STUDENT\\Desktop\\RSC\\Embedded\\Interup"
 7846      73657273 
 7846      5C535455 
 7846      44454E54 
 7846      5C446573 
 7847 148c 747300   		.ascii	"ts\000"
 7848              	.LASF930:
 7849 148f 4750494F 		.ascii	"GPIO2_HalfWord ((GPIO_HalfWord_TypeDef *)(LPC_GPIO2"
 7849      325F4861 
 7849      6C66576F 
 7849      72642028 
 7849      28475049 
 7850 14c2 5F424153 		.ascii	"_BASE))\000"
 7850      45292900 
 7851              	.LASF491:
 7852 14ca 494E545F 		.ascii	"INT_FAST32_MIN (-__INT_FAST32_MAX__ - 1)\000"
 7852      46415354 
 7852      33325F4D 
 7852      494E2028 
 7852      2D5F5F49 
 7853              	.LASF646:
 7854 14f3 53797354 		.ascii	"SysTick_CTRL_TICKINT_Pos 1\000"
 7854      69636B5F 
 7854      4354524C 
ARM GAS  C:\Users\STUDENT\AppData\Local\Temp\cc6DO5vW.s 			page 164


 7854      5F544943 
 7854      4B494E54 
 7855              	.LASF757:
 7856 150e 436F7265 		.ascii	"CoreDebug_DHCSR_C_HALT_Msk (1UL << CoreDebug_DHCSR_"
 7856      44656275 
 7856      675F4448 
 7856      4353525F 
 7856      435F4841 
 7857 1541 435F4841 		.ascii	"C_HALT_Pos)\000"
 7857      4C545F50 
 7857      6F732900 
 7858              	.LASF50:
 7859 154d 5F5F5549 		.ascii	"__UINT_LEAST8_TYPE__ unsigned char\000"
 7859      4E545F4C 
 7859      45415354 
 7859      385F5459 
 7859      50455F5F 
 7860              	.LASF868:
 7861 1570 4C50435F 		.ascii	"LPC_WDT ((LPC_WDT_TypeDef *) LPC_WDT_BASE )\000"
 7861      57445420 
 7861      28284C50 
 7861      435F5744 
 7861      545F5479 
 7862              	.LASF747:
 7863 159c 436F7265 		.ascii	"CoreDebug_DHCSR_S_HALT_Msk (1UL << CoreDebug_DHCSR_"
 7863      44656275 
 7863      675F4448 
 7863      4353525F 
 7863      535F4841 
 7864 15cf 535F4841 		.ascii	"S_HALT_Pos)\000"
 7864      4C545F50 
 7864      6F732900 
 7865              	.LASF236:
 7866 15db 5F5F4143 		.ascii	"__ACCUM_FBIT__ 15\000"
 7866      43554D5F 
 7866      46424954 
 7866      5F5F2031 
 7866      3500
 7867              	.LASF1060:
 7868 15ed 46494F5F 		.ascii	"FIO_SetValue\000"
 7868      53657456 
 7868      616C7565 
 7868      00
 7869              	.LASF242:
 7870 15fa 5F5F5541 		.ascii	"__UACCUM_IBIT__ 16\000"
 7870      4343554D 
 7870      5F494249 
 7870      545F5F20 
 7870      313600
 7871              	.LASF973:
 7872 160d 6C6F6E67 		.ascii	"long int\000"
 7872      20696E74 
 7872      00
 7873              	.LASF846:
 7874 1616 4C50435F 		.ascii	"LPC_EMAC_BASE (LPC_AHB_BASE + 0x00000)\000"
 7874      454D4143 
 7874      5F424153 
ARM GAS  C:\Users\STUDENT\AppData\Local\Temp\cc6DO5vW.s 			page 165


 7874      4520284C 
 7874      50435F41 
 7875              	.LASF444:
 7876 163d 5F5F696E 		.ascii	"__int32_t_defined 1\000"
 7876      7433325F 
 7876      745F6465 
 7876      66696E65 
 7876      64203100 
 7877              	.LASF632:
 7878 1651 5343425F 		.ascii	"SCB_DFSR_EXTERNAL_Pos 4\000"
 7878      44465352 
 7878      5F455854 
 7878      45524E41 
 7878      4C5F506F 
 7879              	.LASF111:
 7880 1669 5F5F494E 		.ascii	"__INT_FAST64_MAX__ 0x7fffffffffffffffLL\000"
 7880      545F4641 
 7880      53543634 
 7880      5F4D4158 
 7880      5F5F2030 
 7881              	.LASF955:
 7882 1691 5F50574D 		.ascii	"_PWM1 1\000"
 7882      31203100 
 7883              	.LASF145:
 7884 1699 5F5F4442 		.ascii	"__DBL_MIN__ ((double)2.2250738585072014e-308L)\000"
 7884      4C5F4D49 
 7884      4E5F5F20 
 7884      2828646F 
 7884      75626C65 
 7885              	.LASF400:
 7886 16c8 5F5F5F69 		.ascii	"___int_least16_t_defined 1\000"
 7886      6E745F6C 
 7886      65617374 
 7886      31365F74 
 7886      5F646566 
 7887              	.LASF346:
 7888 16e3 5F5F4152 		.ascii	"__ARM_ARCH_7M__ 1\000"
 7888      4D5F4152 
 7888      43485F37 
 7888      4D5F5F20 
 7888      3100
 7889              	.LASF180:
 7890 16f5 5F5F4445 		.ascii	"__DEC128_MIN_EXP__ (-6142)\000"
 7890      43313238 
 7890      5F4D494E 
 7890      5F455850 
 7890      5F5F2028 
 7891              	.LASF630:
 7892 1710 5343425F 		.ascii	"SCB_HFSR_VECTTBL_Pos 1\000"
 7892      48465352 
 7892      5F564543 
 7892      5454424C 
 7892      5F506F73 
 7893              	.LASF54:
 7894 1727 5F5F494E 		.ascii	"__INT_FAST8_TYPE__ int\000"
 7894      545F4641 
 7894      5354385F 
ARM GAS  C:\Users\STUDENT\AppData\Local\Temp\cc6DO5vW.s 			page 166


 7894      54595045 
 7894      5F5F2069 
 7895              	.LASF768:
 7896 173e 436F7265 		.ascii	"CoreDebug_DEMCR_MON_STEP_Pos 18\000"
 7896      44656275 
 7896      675F4445 
 7896      4D43525F 
 7896      4D4F4E5F 
 7897              	.LASF298:
 7898 175e 5F5F5544 		.ascii	"__UDA_FBIT__ 32\000"
 7898      415F4642 
 7898      49545F5F 
 7898      20333200 
 7899              	.LASF774:
 7900 176e 436F7265 		.ascii	"CoreDebug_DEMCR_VC_HARDERR_Pos 10\000"
 7900      44656275 
 7900      675F4445 
 7900      4D43525F 
 7900      56435F48 
 7901              	.LASF81:
 7902 1790 5F5F5549 		.ascii	"__UINTMAX_C(c) c ## ULL\000"
 7902      4E544D41 
 7902      585F4328 
 7902      63292063 
 7902      20232320 
 7903              	.LASF589:
 7904 17a8 5343425F 		.ascii	"SCB_CCR_USERSETMPEND_Msk (1UL << SCB_CCR_USERSETMPE"
 7904      4343525F 
 7904      55534552 
 7904      5345544D 
 7904      50454E44 
 7905 17db 4E445F50 		.ascii	"ND_Pos)\000"
 7905      6F732900 
 7906              	.LASF28:
 7907 17e3 5F5F5349 		.ascii	"__SIZEOF_POINTER__ 4\000"
 7907      5A454F46 
 7907      5F504F49 
 7907      4E544552 
 7907      5F5F2034 
 7908              	.LASF46:
 7909 17f8 5F5F494E 		.ascii	"__INT_LEAST8_TYPE__ signed char\000"
 7909      545F4C45 
 7909      41535438 
 7909      5F545950 
 7909      455F5F20 
 7910              	.LASF813:
 7911 1818 4C50435F 		.ascii	"LPC_AHB_BASE (0x50000000UL)\000"
 7911      4148425F 
 7911      42415345 
 7911      20283078 
 7911      35303030 
 7912              	.LASF1062:
 7913 1834 46494F5F 		.ascii	"FIO_ReadValue\000"
 7913      52656164 
 7913      56616C75 
 7913      6500
 7914              	.LASF310:
ARM GAS  C:\Users\STUDENT\AppData\Local\Temp\cc6DO5vW.s 			page 167


 7915 1842 5F5F4743 		.ascii	"__GCC_ATOMIC_BOOL_LOCK_FREE 2\000"
 7915      435F4154 
 7915      4F4D4943 
 7915      5F424F4F 
 7915      4C5F4C4F 
 7916              	.LASF662:
 7917 1860 49544D5F 		.ascii	"ITM_TCR_BUSY_Pos 23\000"
 7917      5443525F 
 7917      42555359 
 7917      5F506F73 
 7917      20323300 
 7918              	.LASF677:
 7919 1874 49544D5F 		.ascii	"ITM_TCR_ITMENA_Msk (1UL << ITM_TCR_ITMENA_Pos)\000"
 7919      5443525F 
 7919      49544D45 
 7919      4E415F4D 
 7919      736B2028 
 7920              	.LASF956:
 7921 18a3 5F525443 		.ascii	"_RTC 1\000"
 7921      203100
 7922              	.LASF84:
 7923 18aa 5F5F494E 		.ascii	"__INT8_MAX__ 0x7f\000"
 7923      54385F4D 
 7923      41585F5F 
 7923      20307837 
 7923      6600
 7924              	.LASF375:
 7925 18bc 5F5F474E 		.ascii	"__GNUC_PREREQ(maj,min) ((__GNUC__ << 16) + __GNUC_M"
 7925      55435F50 
 7925      52455245 
 7925      51286D61 
 7925      6A2C6D69 
 7926 18ef 494E4F52 		.ascii	"INOR__ >= ((maj) << 16) + (min))\000"
 7926      5F5F203E 
 7926      3D202828 
 7926      6D616A29 
 7926      203C3C20 
 7927              	.LASF672:
 7928 1910 49544D5F 		.ascii	"ITM_TCR_SYNCENA_Pos 2\000"
 7928      5443525F 
 7928      53594E43 
 7928      454E415F 
 7928      506F7320 
 7929              	.LASF345:
 7930 1926 5F5F5448 		.ascii	"__THUMB_INTERWORK__ 1\000"
 7930      554D425F 
 7930      494E5445 
 7930      52574F52 
 7930      4B5F5F20 
 7931              	.LASF224:
 7932 193c 5F5F554C 		.ascii	"__ULLFRACT_MAX__ 0XFFFFFFFFFFFFFFFFP-64ULLR\000"
 7932      4C465241 
 7932      43545F4D 
 7932      41585F5F 
 7932      20305846 
 7933              	.LASF818:
 7934 1968 4C50435F 		.ascii	"LPC_UART0_BASE (LPC_APB0_BASE + 0x0C000)\000"
ARM GAS  C:\Users\STUDENT\AppData\Local\Temp\cc6DO5vW.s 			page 168


 7934      55415254 
 7934      305F4241 
 7934      53452028 
 7934      4C50435F 
 7935              	.LASF581:
 7936 1991 5343425F 		.ascii	"SCB_CCR_STKALIGN_Msk (1UL << SCB_CCR_STKALIGN_Pos)\000"
 7936      4343525F 
 7936      53544B41 
 7936      4C49474E 
 7936      5F4D736B 
 7937              	.LASF641:
 7938 19c4 5343425F 		.ascii	"SCB_DFSR_HALTED_Msk (1UL << SCB_DFSR_HALTED_Pos)\000"
 7938      44465352 
 7938      5F48414C 
 7938      5445445F 
 7938      4D736B20 
 7939              	.LASF446:
 7940 19f5 5F55494E 		.ascii	"_UINT64_T_DECLARED \000"
 7940      5436345F 
 7940      545F4445 
 7940      434C4152 
 7940      45442000 
 7941              	.LASF723:
 7942 1a09 4D50555F 		.ascii	"MPU_RASR_TEX_Msk (7UL << MPU_RASR_TEX_Pos)\000"
 7942      52415352 
 7942      5F544558 
 7942      5F4D736B 
 7942      20283755 
 7943              	.LASF1047:
 7944 1a34 7046494F 		.ascii	"pFIO\000"
 7944      00
 7945              	.LASF36:
 7946 1a39 5F5F4348 		.ascii	"__CHAR32_TYPE__ long unsigned int\000"
 7946      41523332 
 7946      5F545950 
 7946      455F5F20 
 7946      6C6F6E67 
 7947              	.LASF932:
 7948 1a5b 4750494F 		.ascii	"GPIO4_HalfWord ((GPIO_HalfWord_TypeDef *)(LPC_GPIO4"
 7948      345F4861 
 7948      6C66576F 
 7948      72642028 
 7948      28475049 
 7949 1a8e 5F424153 		.ascii	"_BASE))\000"
 7949      45292900 
 7950              	.LASF755:
 7951 1a96 436F7265 		.ascii	"CoreDebug_DHCSR_C_STEP_Msk (1UL << CoreDebug_DHCSR_"
 7951      44656275 
 7951      675F4448 
 7951      4353525F 
 7951      435F5354 
 7952 1ac9 435F5354 		.ascii	"C_STEP_Pos)\000"
 7952      45505F50 
 7952      6F732900 
 7953              	.LASF382:
 7954 1ad5 5F504F53 		.ascii	"_POSIX_C_SOURCE 200809L\000"
 7954      49585F43 
ARM GAS  C:\Users\STUDENT\AppData\Local\Temp\cc6DO5vW.s 			page 169


 7954      5F534F55 
 7954      52434520 
 7954      32303038 
 7955              	.LASF114:
 7956 1aed 5F5F5549 		.ascii	"__UINT_FAST32_MAX__ 0xffffffffU\000"
 7956      4E545F46 
 7956      41535433 
 7956      325F4D41 
 7956      585F5F20 
 7957              	.LASF1077:
 7958 1b0d 46494F5F 		.ascii	"FIO_ByteSetValue\000"
 7958      42797465 
 7958      53657456 
 7958      616C7565 
 7958      00
 7959              	.LASF14:
 7960 1b1e 5F5F5349 		.ascii	"__SIZEOF_LONG__ 4\000"
 7960      5A454F46 
 7960      5F4C4F4E 
 7960      475F5F20 
 7960      3400
 7961              	.LASF691:
 7962 1b30 496E7454 		.ascii	"IntType_ICTR_INTLINESNUM_Msk (0x1FUL << IntType_ICT"
 7962      7970655F 
 7962      49435452 
 7962      5F494E54 
 7962      4C494E45 
 7963 1b63 525F494E 		.ascii	"R_INTLINESNUM_Pos)\000"
 7963      544C494E 
 7963      45534E55 
 7963      4D5F506F 
 7963      732900
 7964              	.LASF608:
 7965 1b76 5343425F 		.ascii	"SCB_SHCSR_PENDSVACT_Pos 10\000"
 7965      53484353 
 7965      525F5045 
 7965      4E445356 
 7965      4143545F 
 7966              	.LASF1036:
 7967 1b91 4750494F 		.ascii	"GPIO_Byte_TypeDef\000"
 7967      5F427974 
 7967      655F5479 
 7967      70654465 
 7967      6600
 7968              	.LASF783:
 7969 1ba3 436F7265 		.ascii	"CoreDebug_DEMCR_VC_CHKERR_Msk (1UL << CoreDebug_DEM"
 7969      44656275 
 7969      675F4445 
 7969      4D43525F 
 7969      56435F43 
 7970 1bd6 43525F56 		.ascii	"CR_VC_CHKERR_Pos)\000"
 7970      435F4348 
 7970      4B455252 
 7970      5F506F73 
 7970      2900
 7971              	.LASF18:
 7972 1be8 5F5F5349 		.ascii	"__SIZEOF_DOUBLE__ 8\000"
ARM GAS  C:\Users\STUDENT\AppData\Local\Temp\cc6DO5vW.s 			page 170


 7972      5A454F46 
 7972      5F444F55 
 7972      424C455F 
 7972      5F203800 
 7973              	.LASF766:
 7974 1bfc 436F7265 		.ascii	"CoreDebug_DEMCR_MON_REQ_Pos 19\000"
 7974      44656275 
 7974      675F4445 
 7974      4D43525F 
 7974      4D4F4E5F 
 7975              	.LASF753:
 7976 1c1b 436F7265 		.ascii	"CoreDebug_DHCSR_C_MASKINTS_Msk (1UL << CoreDebug_DH"
 7976      44656275 
 7976      675F4448 
 7976      4353525F 
 7976      435F4D41 
 7977 1c4e 4353525F 		.ascii	"CSR_C_MASKINTS_Pos)\000"
 7977      435F4D41 
 7977      534B494E 
 7977      54535F50 
 7977      6F732900 
 7978              	.LASF552:
 7979 1c62 5343425F 		.ascii	"SCB_ICSR_RETTOBASE_Pos 11\000"
 7979      49435352 
 7979      5F524554 
 7979      544F4241 
 7979      53455F50 
 7980              	.LASF897:
 7981 1c7c 4C50435F 		.ascii	"LPC_QEI ((LPC_QEI_TypeDef *) LPC_QEI_BASE )\000"
 7981      51454920 
 7981      28284C50 
 7981      435F5145 
 7981      495F5479 
 7982              	.LASF837:
 7983 1ca8 4C50435F 		.ascii	"LPC_TIM3_BASE (LPC_APB1_BASE + 0x14000)\000"
 7983      54494D33 
 7983      5F424153 
 7983      4520284C 
 7983      50435F41 
 7984              	.LASF428:
 7985 1cd0 5F5F4641 		.ascii	"__FAST16 \000"
 7985      53543136 
 7985      2000
 7986              	.LASF643:
 7987 1cda 53797354 		.ascii	"SysTick_CTRL_COUNTFLAG_Msk (1UL << SysTick_CTRL_COU"
 7987      69636B5F 
 7987      4354524C 
 7987      5F434F55 
 7987      4E54464C 
 7988 1d0d 4E54464C 		.ascii	"NTFLAG_Pos)\000"
 7988      41475F50 
 7988      6F732900 
 7989              	.LASF389:
 7990 1d19 5F5F4C41 		.ascii	"__LARGEFILE_VISIBLE 0\000"
 7990      52474546 
 7990      494C455F 
 7990      56495349 
ARM GAS  C:\Users\STUDENT\AppData\Local\Temp\cc6DO5vW.s 			page 171


 7990      424C4520 
 7991              	.LASF176:
 7992 1d2f 5F5F4445 		.ascii	"__DEC64_MAX__ 9.999999999999999E384DD\000"
 7992      4336345F 
 7992      4D41585F 
 7992      5F20392E 
 7992      39393939 
 7993              	.LASF372:
 7994 1d55 5F5F4E45 		.ascii	"__NEWLIB__ 2\000"
 7994      574C4942 
 7994      5F5F2032 
 7994      00
 7995              	.LASF209:
 7996 1d62 5F5F4C46 		.ascii	"__LFRACT_MAX__ 0X7FFFFFFFP-31LR\000"
 7996      52414354 
 7996      5F4D4158 
 7996      5F5F2030 
 7996      58374646 
 7997              	.LASF577:
 7998 1d82 5343425F 		.ascii	"SCB_SCR_SLEEPDEEP_Msk (1UL << SCB_SCR_SLEEPDEEP_Pos"
 7998      5343525F 
 7998      534C4545 
 7998      50444545 
 7998      505F4D73 
 7999 1db5 2900     		.ascii	")\000"
 8000              	.LASF126:
 8001 1db7 5F5F464C 		.ascii	"__FLT_MIN_10_EXP__ (-37)\000"
 8001      545F4D49 
 8001      4E5F3130 
 8001      5F455850 
 8001      5F5F2028 
 8002              	.LASF388:
 8003 1dd0 5F5F4953 		.ascii	"__ISO_C_VISIBLE 1999\000"
 8003      4F5F435F 
 8003      56495349 
 8003      424C4520 
 8003      31393939 
 8004              	.LASF129:
 8005 1de5 5F5F464C 		.ascii	"__FLT_DECIMAL_DIG__ 9\000"
 8005      545F4445 
 8005      43494D41 
 8005      4C5F4449 
 8005      475F5F20 
 8006              	.LASF763:
 8007 1dfb 436F7265 		.ascii	"CoreDebug_DCRSR_REGSEL_Msk (0x1FUL << CoreDebug_DCR"
 8007      44656275 
 8007      675F4443 
 8007      5253525F 
 8007      52454753 
 8008 1e2e 53525F52 		.ascii	"SR_REGSEL_Pos)\000"
 8008      45475345 
 8008      4C5F506F 
 8008      732900
 8009              	.LASF437:
 8010 1e3d 5F55494E 		.ascii	"_UINT8_T_DECLARED \000"
 8010      54385F54 
 8010      5F444543 
ARM GAS  C:\Users\STUDENT\AppData\Local\Temp\cc6DO5vW.s 			page 172


 8010      4C415245 
 8010      442000
 8011              	.LASF966:
 8012 1e50 7369676E 		.ascii	"signed char\000"
 8012      65642063 
 8012      68617200 
 8013              	.LASF963:
 8014 1e5c 5F524954 		.ascii	"_RIT 1\000"
 8014      203100
 8015              	.LASF979:
 8016 1e63 75696E74 		.ascii	"uint8_t\000"
 8016      385F7400 
 8017              	.LASF498:
 8018 1e6b 494E544D 		.ascii	"INTMAX_MIN (-INTMAX_MAX - 1)\000"
 8018      41585F4D 
 8018      494E2028 
 8018      2D494E54 
 8018      4D41585F 
 8019              	.LASF812:
 8020 1e88 4C50435F 		.ascii	"LPC_APB1_BASE (0x40080000UL)\000"
 8020      41504231 
 8020      5F424153 
 8020      45202830 
 8020      78343030 
 8021              	.LASF505:
 8022 1ea5 57434841 		.ascii	"WCHAR_MIN (__WCHAR_MIN__)\000"
 8022      525F4D49 
 8022      4E20285F 
 8022      5F574348 
 8022      41525F4D 
 8023              	.LASF196:
 8024 1ebf 5F5F4652 		.ascii	"__FRACT_FBIT__ 15\000"
 8024      4143545F 
 8024      46424954 
 8024      5F5F2031 
 8024      3500
 8025              	.LASF136:
 8026 1ed1 5F5F464C 		.ascii	"__FLT_HAS_QUIET_NAN__ 1\000"
 8026      545F4841 
 8026      535F5155 
 8026      4945545F 
 8026      4E414E5F 
 8027              	.LASF4:
 8028 1ee9 5F5F474E 		.ascii	"__GNUC_PATCHLEVEL__ 1\000"
 8028      55435F50 
 8028      41544348 
 8028      4C455645 
 8028      4C5F5F20 
 8029              	.LASF313:
 8030 1eff 5F5F4743 		.ascii	"__GCC_ATOMIC_CHAR32_T_LOCK_FREE 2\000"
 8030      435F4154 
 8030      4F4D4943 
 8030      5F434841 
 8030      5233325F 
 8031              	.LASF880:
 8032 1f21 4C50435F 		.ascii	"LPC_I2C1 ((LPC_I2C_TypeDef *) LPC_I2C1_BASE )\000"
 8032      49324331 
ARM GAS  C:\Users\STUDENT\AppData\Local\Temp\cc6DO5vW.s 			page 173


 8032      2028284C 
 8032      50435F49 
 8032      32435F54 
 8033              	.LASF102:
 8034 1f4f 5F5F5549 		.ascii	"__UINT_LEAST16_MAX__ 0xffff\000"
 8034      4E545F4C 
 8034      45415354 
 8034      31365F4D 
 8034      41585F5F 
 8035              	.LASF367:
 8036 1f6b 5F535444 		.ascii	"_STDINT_H \000"
 8036      494E545F 
 8036      482000
 8037              	.LASF555:
 8038 1f76 5343425F 		.ascii	"SCB_ICSR_VECTACTIVE_Msk (0x1FFUL << SCB_ICSR_VECTAC"
 8038      49435352 
 8038      5F564543 
 8038      54414354 
 8038      4956455F 
 8039 1fa9 54495645 		.ascii	"TIVE_Pos)\000"
 8039      5F506F73 
 8039      2900
 8040              	.LASF1078:
 8041 1fb3 46494F5F 		.ascii	"FIO_ByteClearValue\000"
 8041      42797465 
 8041      436C6561 
 8041      7256616C 
 8041      756500
 8042              	.LASF636:
 8043 1fc6 5343425F 		.ascii	"SCB_DFSR_DWTTRAP_Pos 2\000"
 8043      44465352 
 8043      5F445754 
 8043      54524150 
 8043      5F506F73 
 8044              	.LASF1019:
 8045 1fdd 52455345 		.ascii	"RESERVED0\000"
 8045      52564544 
 8045      3000
 8046              	.LASF60:
 8047 1fe7 5F5F5549 		.ascii	"__UINT_FAST32_TYPE__ unsigned int\000"
 8047      4E545F46 
 8047      41535433 
 8047      325F5459 
 8047      50455F5F 
 8048              	.LASF967:
 8049 2009 756E7369 		.ascii	"unsigned char\000"
 8049      676E6564 
 8049      20636861 
 8049      7200
 8050              	.LASF227:
 8051 2017 5F5F5341 		.ascii	"__SACCUM_IBIT__ 8\000"
 8051      4343554D 
 8051      5F494249 
 8051      545F5F20 
 8051      3800
 8052              	.LASF777:
 8053 2029 436F7265 		.ascii	"CoreDebug_DEMCR_VC_INTERR_Msk (1UL << CoreDebug_DEM"
ARM GAS  C:\Users\STUDENT\AppData\Local\Temp\cc6DO5vW.s 			page 174


 8053      44656275 
 8053      675F4445 
 8053      4D43525F 
 8053      56435F49 
 8054 205c 43525F56 		.ascii	"CR_VC_INTERR_Pos)\000"
 8054      435F494E 
 8054      54455252 
 8054      5F506F73 
 8054      2900
 8055              	.LASF128:
 8056 206e 5F5F464C 		.ascii	"__FLT_MAX_10_EXP__ 38\000"
 8056      545F4D41 
 8056      585F3130 
 8056      5F455850 
 8056      5F5F2033 
 8057              	.LASF183:
 8058 2084 5F5F4445 		.ascii	"__DEC128_MAX__ 9.999999999999999999999999999999999E"
 8058      43313238 
 8058      5F4D4158 
 8058      5F5F2039 
 8058      2E393939 
 8059 20b7 36313434 		.ascii	"6144DL\000"
 8059      444C00
 8060              	.LASF181:
 8061 20be 5F5F4445 		.ascii	"__DEC128_MAX_EXP__ 6145\000"
 8061      43313238 
 8061      5F4D4158 
 8061      5F455850 
 8061      5F5F2036 
 8062              	.LASF118:
 8063 20d6 5F5F4743 		.ascii	"__GCC_IEC_559 0\000"
 8063      435F4945 
 8063      435F3535 
 8063      39203000 
 8064              	.LASF110:
 8065 20e6 5F5F494E 		.ascii	"__INT_FAST32_MAX__ 0x7fffffff\000"
 8065      545F4641 
 8065      53543332 
 8065      5F4D4158 
 8065      5F5F2030 
 8066              	.LASF7:
 8067 2104 5F5F4154 		.ascii	"__ATOMIC_SEQ_CST 5\000"
 8067      4F4D4943 
 8067      5F534551 
 8067      5F435354 
 8067      203500
 8068              	.LASF579:
 8069 2117 5343425F 		.ascii	"SCB_SCR_SLEEPONEXIT_Msk (1UL << SCB_SCR_SLEEPONEXIT"
 8069      5343525F 
 8069      534C4545 
 8069      504F4E45 
 8069      5849545F 
 8070 214a 5F506F73 		.ascii	"_Pos)\000"
 8070      2900
 8071              	.LASF903:
 8072 2150 4C50435F 		.ascii	"LPC_GPDMACH2 ((LPC_GPDMACH_TypeDef *) LPC_GPDMACH2_"
 8072      4750444D 
ARM GAS  C:\Users\STUDENT\AppData\Local\Temp\cc6DO5vW.s 			page 175


 8072      41434832 
 8072      2028284C 
 8072      50435F47 
 8073 2183 42415345 		.ascii	"BASE )\000"
 8073      202900
 8074              	.LASF726:
 8075 218a 4D50555F 		.ascii	"MPU_RASR_C_Pos 17\000"
 8075      52415352 
 8075      5F435F50 
 8075      6F732031 
 8075      3700
 8076              	.LASF363:
 8077 219c 5F5F434D 		.ascii	"__CM3_CMSIS_VERSION ((__CM3_CMSIS_VERSION_MAIN << 1"
 8077      335F434D 
 8077      5349535F 
 8077      56455253 
 8077      494F4E20 
 8078 21cf 3629207C 		.ascii	"6) | __CM3_CMSIS_VERSION_SUB)\000"
 8078      205F5F43 
 8078      4D335F43 
 8078      4D534953 
 8078      5F564552 
 8079              	.LASF486:
 8080 21ed 494E545F 		.ascii	"INT_FAST8_MAX (__INT_FAST8_MAX__)\000"
 8080      46415354 
 8080      385F4D41 
 8080      5820285F 
 8080      5F494E54 
 8081              	.LASF797:
 8082 220f 53434220 		.ascii	"SCB ((SCB_Type *) SCB_BASE)\000"
 8082      28285343 
 8082      425F5479 
 8082      7065202A 
 8082      29205343 
 8083              	.LASF89:
 8084 222b 5F5F5549 		.ascii	"__UINT16_MAX__ 0xffff\000"
 8084      4E543136 
 8084      5F4D4158 
 8084      5F5F2030 
 8084      78666666 
 8085              	.LASF898:
 8086 2241 4C50435F 		.ascii	"LPC_EMAC ((LPC_EMAC_TypeDef *) LPC_EMAC_BASE )\000"
 8086      454D4143 
 8086      2028284C 
 8086      50435F45 
 8086      4D41435F 
 8087              	.LASF274:
 8088 2270 5F5F5451 		.ascii	"__TQ_FBIT__ 127\000"
 8088      5F464249 
 8088      545F5F20 
 8088      31323700 
 8089              	.LASF185:
 8090 2280 5F5F4445 		.ascii	"__DEC128_SUBNORMAL_MIN__ 0.000000000000000000000000"
 8090      43313238 
 8090      5F535542 
 8090      4E4F524D 
 8090      414C5F4D 
ARM GAS  C:\Users\STUDENT\AppData\Local\Temp\cc6DO5vW.s 			page 176


 8091 22b3 30303030 		.ascii	"000000001E-6143DL\000"
 8091      30303030 
 8091      31452D36 
 8091      31343344 
 8091      4C00
 8092              	.LASF877:
 8093 22c5 4C50435F 		.ascii	"LPC_UART3 ((LPC_UART_TypeDef *) LPC_UART3_BASE )\000"
 8093      55415254 
 8093      33202828 
 8093      4C50435F 
 8093      55415254 
 8094              	.LASF457:
 8095 22f6 5F5F696E 		.ascii	"__int_fast64_t_defined 1\000"
 8095      745F6661 
 8095      73743634 
 8095      5F745F64 
 8095      6566696E 
 8096              	.LASF354:
 8097 230f 5F5F5553 		.ascii	"__USES_INITFINI__ 1\000"
 8097      45535F49 
 8097      4E495446 
 8097      494E495F 
 8097      5F203100 
 8098              	.LASF616:
 8099 2323 5343425F 		.ascii	"SCB_SHCSR_BUSFAULTACT_Pos 1\000"
 8099      53484353 
 8099      525F4255 
 8099      53464155 
 8099      4C544143 
 8100              	.LASF16:
 8101 233f 5F5F5349 		.ascii	"__SIZEOF_SHORT__ 2\000"
 8101      5A454F46 
 8101      5F53484F 
 8101      52545F5F 
 8101      203200
 8102              	.LASF261:
 8103 2352 5F5F554C 		.ascii	"__ULLACCUM_FBIT__ 32\000"
 8103      4C414343 
 8103      554D5F46 
 8103      4249545F 
 8103      5F203332 
 8104              	.LASF609:
 8105 2367 5343425F 		.ascii	"SCB_SHCSR_PENDSVACT_Msk (1UL << SCB_SHCSR_PENDSVACT"
 8105      53484353 
 8105      525F5045 
 8105      4E445356 
 8105      4143545F 
 8106 239a 5F506F73 		.ascii	"_Pos)\000"
 8106      2900
 8107              	.LASF852:
 8108 23a0 4C50435F 		.ascii	"LPC_GPDMACH4_BASE (LPC_AHB_BASE + 0x04180)\000"
 8108      4750444D 
 8108      41434834 
 8108      5F424153 
 8108      4520284C 
 8109              	.LASF785:
 8110 23cb 436F7265 		.ascii	"CoreDebug_DEMCR_VC_NOCPERR_Msk (1UL << CoreDebug_DE"
ARM GAS  C:\Users\STUDENT\AppData\Local\Temp\cc6DO5vW.s 			page 177


 8110      44656275 
 8110      675F4445 
 8110      4D43525F 
 8110      56435F4E 
 8111 23fe 4D43525F 		.ascii	"MCR_VC_NOCPERR_Pos)\000"
 8111      56435F4E 
 8111      4F435045 
 8111      52525F50 
 8111      6F732900 
 8112              	.LASF823:
 8113 2412 4C50435F 		.ascii	"LPC_RTC_BASE (LPC_APB0_BASE + 0x24000)\000"
 8113      5254435F 
 8113      42415345 
 8113      20284C50 
 8113      435F4150 
 8114              	.LASF780:
 8115 2439 436F7265 		.ascii	"CoreDebug_DEMCR_VC_STATERR_Pos 7\000"
 8115      44656275 
 8115      675F4445 
 8115      4D43525F 
 8115      56435F53 
 8116              	.LASF131:
 8117 245a 5F5F464C 		.ascii	"__FLT_MIN__ 1.1754943508222875e-38F\000"
 8117      545F4D49 
 8117      4E5F5F20 
 8117      312E3137 
 8117      35343934 
 8118              	.LASF369:
 8119 247e 5F535953 		.ascii	"_SYS_FEATURES_H \000"
 8119      5F464541 
 8119      54555245 
 8119      535F4820 
 8119      00
 8120              	.LASF752:
 8121 248f 436F7265 		.ascii	"CoreDebug_DHCSR_C_MASKINTS_Pos 3\000"
 8121      44656275 
 8121      675F4448 
 8121      4353525F 
 8121      435F4D41 
 8122              	.LASF921:
 8123 24b0 53544154 		.ascii	"STATIC static\000"
 8123      49432073 
 8123      74617469 
 8123      6300
 8124              	.LASF605:
 8125 24be 5343425F 		.ascii	"SCB_SHCSR_USGFAULTPENDED_Msk (1UL << SCB_SHCSR_USGF"
 8125      53484353 
 8125      525F5553 
 8125      47464155 
 8125      4C545045 
 8126 24f1 41554C54 		.ascii	"AULTPENDED_Pos)\000"
 8126      50454E44 
 8126      45445F50 
 8126      6F732900 
 8127              	.LASF545:
 8128 2501 5343425F 		.ascii	"SCB_ICSR_PENDSTCLR_Msk (1UL << SCB_ICSR_PENDSTCLR_P"
 8128      49435352 
ARM GAS  C:\Users\STUDENT\AppData\Local\Temp\cc6DO5vW.s 			page 178


 8128      5F50454E 
 8128      44535443 
 8128      4C525F4D 
 8129 2534 6F732900 		.ascii	"os)\000"
 8130              	.LASF607:
 8131 2538 5343425F 		.ascii	"SCB_SHCSR_SYSTICKACT_Msk (1UL << SCB_SHCSR_SYSTICKA"
 8131      53484353 
 8131      525F5359 
 8131      53544943 
 8131      4B414354 
 8132 256b 43545F50 		.ascii	"CT_Pos)\000"
 8132      6F732900 
 8133              	.LASF859:
 8134 2573 4C50435F 		.ascii	"LPC_GPIO2_BASE (LPC_GPIO_BASE + 0x00040)\000"
 8134      4750494F 
 8134      325F4241 
 8134      53452028 
 8134      4C50435F 
 8135              	.LASF567:
 8136 259c 5343425F 		.ascii	"SCB_AIRCR_PRIGROUP_Msk (7UL << SCB_AIRCR_PRIGROUP_P"
 8136      41495243 
 8136      525F5052 
 8136      4947524F 
 8136      55505F4D 
 8137 25cf 6F732900 		.ascii	"os)\000"
 8138              	.LASF19:
 8139 25d3 5F5F5349 		.ascii	"__SIZEOF_LONG_DOUBLE__ 8\000"
 8139      5A454F46 
 8139      5F4C4F4E 
 8139      475F444F 
 8139      55424C45 
 8140              	.LASF725:
 8141 25ec 4D50555F 		.ascii	"MPU_RASR_S_Msk (1UL << MPU_RASR_S_Pos)\000"
 8141      52415352 
 8141      5F535F4D 
 8141      736B2028 
 8141      31554C20 
 8142              	.LASF867:
 8143 2613 4C50435F 		.ascii	"LPC_GPIO4 ((LPC_GPIO_TypeDef *) LPC_GPIO4_BASE )\000"
 8143      4750494F 
 8143      34202828 
 8143      4C50435F 
 8143      4750494F 
 8144              	.LASF322:
 8145 2644 5F5F5052 		.ascii	"__PRAGMA_REDEFINE_EXTNAME 1\000"
 8145      41474D41 
 8145      5F524544 
 8145      4546494E 
 8145      455F4558 
 8146              	.LASF31:
 8147 2660 5F5F5743 		.ascii	"__WCHAR_TYPE__ unsigned int\000"
 8147      4841525F 
 8147      54595045 
 8147      5F5F2075 
 8147      6E736967 
 8148              	.LASF1067:
 8149 267c 6D61736B 		.ascii	"maskValue\000"
ARM GAS  C:\Users\STUDENT\AppData\Local\Temp\cc6DO5vW.s 			page 179


 8149      56616C75 
 8149      6500
 8150              	.LASF410:
 8151 2686 63686172 		.ascii	"char\000"
 8151      00
 8152              	.LASF127:
 8153 268b 5F5F464C 		.ascii	"__FLT_MAX_EXP__ 128\000"
 8153      545F4D41 
 8153      585F4558 
 8153      505F5F20 
 8153      31323800 
 8154              	.LASF308:
 8155 269f 5F5F4743 		.ascii	"__GCC_HAVE_SYNC_COMPARE_AND_SWAP_2 1\000"
 8155      435F4841 
 8155      56455F53 
 8155      594E435F 
 8155      434F4D50 
 8156              	.LASF517:
 8157 26c4 494E544D 		.ascii	"INTMAX_C(x) __INTMAX_C(x)\000"
 8157      41585F43 
 8157      28782920 
 8157      5F5F494E 
 8157      544D4158 
 8158              	.LASF504:
 8159 26de 50545244 		.ascii	"PTRDIFF_MIN (-PTRDIFF_MAX - 1)\000"
 8159      4946465F 
 8159      4D494E20 
 8159      282D5054 
 8159      52444946 
 8160              	.LASF358:
 8161 26fd 5F5F4E56 		.ascii	"__NVIC_PRIO_BITS 5\000"
 8161      49435F50 
 8161      52494F5F 
 8161      42495453 
 8161      203500
 8162              	.LASF360:
 8163 2710 5F5F434F 		.ascii	"__CORE_CM3_H_GENERIC \000"
 8163      52455F43 
 8163      4D335F48 
 8163      5F47454E 
 8163      45524943 
 8164              	.LASF61:
 8165 2726 5F5F5549 		.ascii	"__UINT_FAST64_TYPE__ long long unsigned int\000"
 8165      4E545F46 
 8165      41535436 
 8165      345F5459 
 8165      50455F5F 
 8166              	.LASF885:
 8167 2752 4C50435F 		.ascii	"LPC_GPIOINT ((LPC_GPIOINT_TypeDef *) LPC_GPIOINT_BA"
 8167      4750494F 
 8167      494E5420 
 8167      28284C50 
 8167      435F4750 
 8168 2785 53452029 		.ascii	"SE )\000"
 8168      00
 8169              	.LASF66:
 8170 278a 5F5F4758 		.ascii	"__GXX_ABI_VERSION 1009\000"
ARM GAS  C:\Users\STUDENT\AppData\Local\Temp\cc6DO5vW.s 			page 180


 8170      585F4142 
 8170      495F5645 
 8170      5253494F 
 8170      4E203130 
 8171              	.LASF1072:
 8172 27a1 46494F5F 		.ascii	"FIO_HalfWordClearValue\000"
 8172      48616C66 
 8172      576F7264 
 8172      436C6561 
 8172      7256616C 
 8173              	.LASF634:
 8174 27b8 5343425F 		.ascii	"SCB_DFSR_VCATCH_Pos 3\000"
 8174      44465352 
 8174      5F564341 
 8174      5443485F 
 8174      506F7320 
 8175              	.LASF286:
 8176 27ce 5F5F4841 		.ascii	"__HA_FBIT__ 7\000"
 8176      5F464249 
 8176      545F5F20 
 8176      3700
 8177              	.LASF678:
 8178 27dc 49544D5F 		.ascii	"ITM_IWR_ATVALIDM_Pos 0\000"
 8178      4957525F 
 8178      41545641 
 8178      4C49444D 
 8178      5F506F73 
 8179              	.LASF27:
 8180 27f3 5F5F464C 		.ascii	"__FLOAT_WORD_ORDER__ __ORDER_LITTLE_ENDIAN__\000"
 8180      4F41545F 
 8180      574F5244 
 8180      5F4F5244 
 8180      45525F5F 
 8181              	.LASF502:
 8182 2820 5349475F 		.ascii	"SIG_ATOMIC_MAX (__STDINT_EXP(INT_MAX))\000"
 8182      41544F4D 
 8182      49435F4D 
 8182      41582028 
 8182      5F5F5354 
 8183              	.LASF886:
 8184 2847 4C50435F 		.ascii	"LPC_PINCON ((LPC_PINCON_TypeDef *) LPC_PINCON_BASE "
 8184      50494E43 
 8184      4F4E2028 
 8184      284C5043 
 8184      5F50494E 
 8185 287a 2900     		.ascii	")\000"
 8186              	.LASF493:
 8187 287c 55494E54 		.ascii	"UINT_FAST32_MAX (__UINT_FAST32_MAX__)\000"
 8187      5F464153 
 8187      5433325F 
 8187      4D415820 
 8187      285F5F55 
 8188              	.LASF166:
 8189 28a2 5F5F4445 		.ascii	"__DEC32_MIN_EXP__ (-94)\000"
 8189      4333325F 
 8189      4D494E5F 
 8189      4558505F 
ARM GAS  C:\Users\STUDENT\AppData\Local\Temp\cc6DO5vW.s 			page 181


 8189      5F20282D 
 8190              	.LASF192:
 8191 28ba 5F5F5553 		.ascii	"__USFRACT_IBIT__ 0\000"
 8191      46524143 
 8191      545F4942 
 8191      49545F5F 
 8191      203000
 8192              	.LASF970:
 8193 28cd 5F5F7569 		.ascii	"__uint16_t\000"
 8193      6E743136 
 8193      5F7400
 8194              	.LASF548:
 8195 28d8 5343425F 		.ascii	"SCB_ICSR_ISRPENDING_Pos 22\000"
 8195      49435352 
 8195      5F495352 
 8195      50454E44 
 8195      494E475F 
 8196              	.LASF894:
 8197 28f3 4C50435F 		.ascii	"LPC_CAN1 ((LPC_CAN_TypeDef *) LPC_CAN1_BASE )\000"
 8197      43414E31 
 8197      2028284C 
 8197      50435F43 
 8197      414E5F54 
 8198              	.LASF193:
 8199 2921 5F5F5553 		.ascii	"__USFRACT_MIN__ 0.0UHR\000"
 8199      46524143 
 8199      545F4D49 
 8199      4E5F5F20 
 8199      302E3055 
 8200              	.LASF707:
 8201 2938 4D50555F 		.ascii	"MPU_CTRL_HFNMIENA_Msk (1UL << MPU_CTRL_HFNMIENA_Pos"
 8201      4354524C 
 8201      5F48464E 
 8201      4D49454E 
 8201      415F4D73 
 8202 296b 2900     		.ascii	")\000"
 8203              	.LASF674:
 8204 296d 49544D5F 		.ascii	"ITM_TCR_TSENA_Pos 1\000"
 8204      5443525F 
 8204      5453454E 
 8204      415F506F 
 8204      73203100 
 8205              	.LASF88:
 8206 2981 5F5F5549 		.ascii	"__UINT8_MAX__ 0xff\000"
 8206      4E54385F 
 8206      4D41585F 
 8206      5F203078 
 8206      666600
 8207              	.LASF396:
 8208 2994 5F5F5F69 		.ascii	"___int16_t_defined 1\000"
 8208      6E743136 
 8208      5F745F64 
 8208      6566696E 
 8208      65642031 
 8209              	.LASF155:
 8210 29a9 5F5F4C44 		.ascii	"__LDBL_MAX_EXP__ 1024\000"
 8210      424C5F4D 
ARM GAS  C:\Users\STUDENT\AppData\Local\Temp\cc6DO5vW.s 			page 182


 8210      41585F45 
 8210      58505F5F 
 8210      20313032 
 8211              	.LASF578:
 8212 29bf 5343425F 		.ascii	"SCB_SCR_SLEEPONEXIT_Pos 1\000"
 8212      5343525F 
 8212      534C4545 
 8212      504F4E45 
 8212      5849545F 
 8213              	.LASF576:
 8214 29d9 5343425F 		.ascii	"SCB_SCR_SLEEPDEEP_Pos 2\000"
 8214      5343525F 
 8214      534C4545 
 8214      50444545 
 8214      505F506F 
 8215              	.LASF392:
 8216 29f1 5F5F5356 		.ascii	"__SVID_VISIBLE 1\000"
 8216      49445F56 
 8216      49534942 
 8216      4C452031 
 8216      00
 8217              	.LASF438:
 8218 2a02 5F5F696E 		.ascii	"__int8_t_defined 1\000"
 8218      74385F74 
 8218      5F646566 
 8218      696E6564 
 8218      203100
 8219              	.LASF148:
 8220 2a15 5F5F4442 		.ascii	"__DBL_HAS_DENORM__ 1\000"
 8220      4C5F4841 
 8220      535F4445 
 8220      4E4F524D 
 8220      5F5F2031 
 8221              	.LASF1023:
 8222 2a2a 494F3049 		.ascii	"IO0IntStatF\000"
 8222      6E745374 
 8222      61744600 
 8223              	.LASF648:
 8224 2a36 53797354 		.ascii	"SysTick_CTRL_ENABLE_Pos 0\000"
 8224      69636B5F 
 8224      4354524C 
 8224      5F454E41 
 8224      424C455F 
 8225              	.LASF497:
 8226 2a50 494E544D 		.ascii	"INTMAX_MAX (__INTMAX_MAX__)\000"
 8226      41585F4D 
 8226      41582028 
 8226      5F5F494E 
 8226      544D4158 
 8227              	.LASF474:
 8228 2a6c 494E5433 		.ascii	"INT32_MAX (__INT32_MAX__)\000"
 8228      325F4D41 
 8228      5820285F 
 8228      5F494E54 
 8228      33325F4D 
 8229              	.LASF592:
 8230 2a86 5343425F 		.ascii	"SCB_SHCSR_USGFAULTENA_Pos 18\000"
ARM GAS  C:\Users\STUDENT\AppData\Local\Temp\cc6DO5vW.s 			page 183


 8230      53484353 
 8230      525F5553 
 8230      47464155 
 8230      4C54454E 
 8231              	.LASF1053:
 8232 2aa3 4750494F 		.ascii	"GPIO_IntCmd\000"
 8232      5F496E74 
 8232      436D6400 
 8233              	.LASF1022:
 8234 2aaf 494F3049 		.ascii	"IO0IntStatR\000"
 8234      6E745374 
 8234      61745200 
 8235              	.LASF916:
 8236 2abb 5F534246 		.ascii	"_SBF(f,v) (v<<f)\000"
 8236      28662C76 
 8236      29202876 
 8236      3C3C6629 
 8236      00
 8237              	.LASF946:
 8238 2acc 5F493243 		.ascii	"_I2C0 1\000"
 8238      30203100 
 8239              	.LASF94:
 8240 2ad4 5F5F494E 		.ascii	"__INT_LEAST16_MAX__ 0x7fff\000"
 8240      545F4C45 
 8240      41535431 
 8240      365F4D41 
 8240      585F5F20 
 8241              	.LASF876:
 8242 2aef 4C50435F 		.ascii	"LPC_UART2 ((LPC_UART_TypeDef *) LPC_UART2_BASE )\000"
 8242      55415254 
 8242      32202828 
 8242      4C50435F 
 8242      55415254 
 8243              	.LASF541:
 8244 2b20 5343425F 		.ascii	"SCB_ICSR_PENDSVCLR_Msk (1UL << SCB_ICSR_PENDSVCLR_P"
 8244      49435352 
 8244      5F50454E 
 8244      44535643 
 8244      4C525F4D 
 8245 2b53 6F732900 		.ascii	"os)\000"
 8246              	.LASF133:
 8247 2b57 5F5F464C 		.ascii	"__FLT_DENORM_MIN__ 1.4012984643248171e-45F\000"
 8247      545F4445 
 8247      4E4F524D 
 8247      5F4D494E 
 8247      5F5F2031 
 8248              	.LASF431:
 8249 2b82 5F5F4C45 		.ascii	"__LEAST8 \"hh\"\000"
 8249      41535438 
 8249      20226868 
 8249      2200
 8250              	.LASF961:
 8251 2b90 5F4D4350 		.ascii	"_MCPWM 1\000"
 8251      574D2031 
 8251      00
 8252              	.LASF1007:
 8253 2b99 46494F53 		.ascii	"FIOSET0\000"
ARM GAS  C:\Users\STUDENT\AppData\Local\Temp\cc6DO5vW.s 			page 184


 8253      45543000 
 8254              	.LASF1008:
 8255 2ba1 46494F53 		.ascii	"FIOSET1\000"
 8255      45543100 
 8256              	.LASF1009:
 8257 2ba9 46494F53 		.ascii	"FIOSET2\000"
 8257      45543200 
 8258              	.LASF1010:
 8259 2bb1 46494F53 		.ascii	"FIOSET3\000"
 8259      45543300 
 8260              	.LASF594:
 8261 2bb9 5343425F 		.ascii	"SCB_SHCSR_BUSFAULTENA_Pos 17\000"
 8261      53484353 
 8261      525F4255 
 8261      53464155 
 8261      4C54454E 
 8262              	.LASF816:
 8263 2bd6 4C50435F 		.ascii	"LPC_TIM0_BASE (LPC_APB0_BASE + 0x04000)\000"
 8263      54494D30 
 8263      5F424153 
 8263      4520284C 
 8263      50435F41 
 8264              	.LASF693:
 8265 2bfe 496E7454 		.ascii	"IntType_ACTLR_DISFOLD_Msk (1UL << IntType_ACTLR_DIS"
 8265      7970655F 
 8265      4143544C 
 8265      525F4449 
 8265      53464F4C 
 8266 2c31 464F4C44 		.ascii	"FOLD_Pos)\000"
 8266      5F506F73 
 8266      2900
 8267              	.LASF65:
 8268 2c3b 5F5F6861 		.ascii	"__has_include_next(STR) __has_include_next__(STR)\000"
 8268      735F696E 
 8268      636C7564 
 8268      655F6E65 
 8268      78742853 
 8269              	.LASF776:
 8270 2c6d 436F7265 		.ascii	"CoreDebug_DEMCR_VC_INTERR_Pos 9\000"
 8270      44656275 
 8270      675F4445 
 8270      4D43525F 
 8270      56435F49 
 8271              	.LASF472:
 8272 2c8d 55494E54 		.ascii	"UINT_LEAST16_MAX (__UINT_LEAST16_MAX__)\000"
 8272      5F4C4541 
 8272      53543136 
 8272      5F4D4158 
 8272      20285F5F 
 8273              	.LASF105:
 8274 2cb5 5F5F5549 		.ascii	"__UINT32_C(c) c ## UL\000"
 8274      4E543332 
 8274      5F432863 
 8274      29206320 
 8274      23232055 
 8275              	.LASF532:
 8276 2ccb 5343425F 		.ascii	"SCB_CPUID_PARTNO_Pos 4\000"
ARM GAS  C:\Users\STUDENT\AppData\Local\Temp\cc6DO5vW.s 			page 185


 8276      43505549 
 8276      445F5041 
 8276      52544E4F 
 8276      5F506F73 
 8277              	.LASF537:
 8278 2ce2 5343425F 		.ascii	"SCB_ICSR_NMIPENDSET_Msk (1UL << SCB_ICSR_NMIPENDSET"
 8278      49435352 
 8278      5F4E4D49 
 8278      50454E44 
 8278      5345545F 
 8279 2d15 5F506F73 		.ascii	"_Pos)\000"
 8279      2900
 8280              	.LASF915:
 8281 2d1b 5F534246 		.ascii	"_SBF\000"
 8281      00
 8282              	.LASF243:
 8283 2d20 5F5F5541 		.ascii	"__UACCUM_MIN__ 0.0UK\000"
 8283      4343554D 
 8283      5F4D494E 
 8283      5F5F2030 
 8283      2E30554B 
 8284              	.LASF132:
 8285 2d35 5F5F464C 		.ascii	"__FLT_EPSILON__ 1.1920928955078125e-7F\000"
 8285      545F4550 
 8285      53494C4F 
 8285      4E5F5F20 
 8285      312E3139 
 8286              	.LASF761:
 8287 2d5c 436F7265 		.ascii	"CoreDebug_DCRSR_REGWnR_Msk (1UL << CoreDebug_DCRSR_"
 8287      44656275 
 8287      675F4443 
 8287      5253525F 
 8287      52454757 
 8288 2d8f 52454757 		.ascii	"REGWnR_Pos)\000"
 8288      6E525F50 
 8288      6F732900 
 8289              	.LASF738:
 8290 2d9b 436F7265 		.ascii	"CoreDebug_DHCSR_S_RESET_ST_Pos 25\000"
 8290      44656275 
 8290      675F4448 
 8290      4353525F 
 8290      535F5245 
 8291              	.LASF1006:
 8292 2dbd 46494F53 		.ascii	"FIOSETH\000"
 8292      45544800 
 8293              	.LASF1005:
 8294 2dc5 46494F53 		.ascii	"FIOSETL\000"
 8294      45544C00 
 8295              	.LASF663:
 8296 2dcd 49544D5F 		.ascii	"ITM_TCR_BUSY_Msk (1UL << ITM_TCR_BUSY_Pos)\000"
 8296      5443525F 
 8296      42555359 
 8296      5F4D736B 
 8296      20283155 
 8297              	.LASF912:
 8298 2df8 50415241 		.ascii	"PARAM_FUNCTIONALSTATE(State) ((State==DISABLE) || ("
 8298      4D5F4655 
ARM GAS  C:\Users\STUDENT\AppData\Local\Temp\cc6DO5vW.s 			page 186


 8298      4E435449 
 8298      4F4E414C 
 8298      53544154 
 8299 2e2b 53746174 		.ascii	"State==ENABLE))\000"
 8299      653D3D45 
 8299      4E41424C 
 8299      45292900 
 8300              	.LASF585:
 8301 2e3b 5343425F 		.ascii	"SCB_CCR_DIV_0_TRP_Msk (1UL << SCB_CCR_DIV_0_TRP_Pos"
 8301      4343525F 
 8301      4449565F 
 8301      305F5452 
 8301      505F4D73 
 8302 2e6e 2900     		.ascii	")\000"
 8303              	.LASF821:
 8304 2e70 4C50435F 		.ascii	"LPC_I2C0_BASE (LPC_APB0_BASE + 0x1C000)\000"
 8304      49324330 
 8304      5F424153 
 8304      4520284C 
 8304      50435F41 
 8305              	.LASF642:
 8306 2e98 53797354 		.ascii	"SysTick_CTRL_COUNTFLAG_Pos 16\000"
 8306      69636B5F 
 8306      4354524C 
 8306      5F434F55 
 8306      4E54464C 
 8307              	.LASF451:
 8308 2eb6 5F5F696E 		.ascii	"__int_least16_t_defined 1\000"
 8308      745F6C65 
 8308      61737431 
 8308      365F745F 
 8308      64656669 
 8309              	.LASF1040:
 8310 2ed0 46494F53 		.ascii	"FIOSETU\000"
 8310      45545500 
 8311              	.LASF759:
 8312 2ed8 436F7265 		.ascii	"CoreDebug_DHCSR_C_DEBUGEN_Msk (1UL << CoreDebug_DHC"
 8312      44656275 
 8312      675F4448 
 8312      4353525F 
 8312      435F4445 
 8313 2f0b 53525F43 		.ascii	"SR_C_DEBUGEN_Pos)\000"
 8313      5F444542 
 8313      5547454E 
 8313      5F506F73 
 8313      2900
 8314              	.LASF477:
 8315 2f1d 494E545F 		.ascii	"INT_LEAST32_MAX (__INT_LEAST32_MAX__)\000"
 8315      4C454153 
 8315      5433325F 
 8315      4D415820 
 8315      285F5F49 
 8316              	.LASF476:
 8317 2f43 494E545F 		.ascii	"INT_LEAST32_MIN (-__INT_LEAST32_MAX__ - 1)\000"
 8317      4C454153 
 8317      5433325F 
 8317      4D494E20 
ARM GAS  C:\Users\STUDENT\AppData\Local\Temp\cc6DO5vW.s 			page 187


 8317      282D5F5F 
 8318              	.LASF315:
 8319 2f6e 5F5F4743 		.ascii	"__GCC_ATOMIC_SHORT_LOCK_FREE 2\000"
 8319      435F4154 
 8319      4F4D4943 
 8319      5F53484F 
 8319      52545F4C 
 8320              	.LASF550:
 8321 2f8d 5343425F 		.ascii	"SCB_ICSR_VECTPENDING_Pos 12\000"
 8321      49435352 
 8321      5F564543 
 8321      5450454E 
 8321      44494E47 
 8322              	.LASF620:
 8323 2fa9 5343425F 		.ascii	"SCB_CFSR_USGFAULTSR_Pos 16\000"
 8323      43465352 
 8323      5F555347 
 8323      4641554C 
 8323      5453525F 
 8324              	.LASF713:
 8325 2fc4 4D50555F 		.ascii	"MPU_RBAR_ADDR_Msk (0x7FFFFFFUL << MPU_RBAR_ADDR_Pos"
 8325      52424152 
 8325      5F414444 
 8325      525F4D73 
 8325      6B202830 
 8326 2ff7 2900     		.ascii	")\000"
 8327              	.LASF655:
 8328 2ff9 53797354 		.ascii	"SysTick_CALIB_NOREF_Msk (1UL << SysTick_CALIB_NOREF"
 8328      69636B5F 
 8328      43414C49 
 8328      425F4E4F 
 8328      5245465F 
 8329 302c 5F506F73 		.ascii	"_Pos)\000"
 8329      2900
 8330              	.LASF269:
 8331 3032 5F5F4851 		.ascii	"__HQ_IBIT__ 0\000"
 8331      5F494249 
 8331      545F5F20 
 8331      3000
 8332              	.LASF231:
 8333 3040 5F5F5553 		.ascii	"__USACCUM_FBIT__ 8\000"
 8333      41434355 
 8333      4D5F4642 
 8333      49545F5F 
 8333      203800
 8334              	.LASF319:
 8335 3053 5F5F4743 		.ascii	"__GCC_ATOMIC_TEST_AND_SET_TRUEVAL 1\000"
 8335      435F4154 
 8335      4F4D4943 
 8335      5F544553 
 8335      545F414E 
 8336              	.LASF893:
 8337 3077 4C50435F 		.ascii	"LPC_CANCR ((LPC_CANCR_TypeDef *) LPC_CANCR_BASE )\000"
 8337      43414E43 
 8337      52202828 
 8337      4C50435F 
 8337      43414E43 
ARM GAS  C:\Users\STUDENT\AppData\Local\Temp\cc6DO5vW.s 			page 188


 8338              	.LASF551:
 8339 30a9 5343425F 		.ascii	"SCB_ICSR_VECTPENDING_Msk (0x1FFUL << SCB_ICSR_VECTP"
 8339      49435352 
 8339      5F564543 
 8339      5450454E 
 8339      44494E47 
 8340 30dc 454E4449 		.ascii	"ENDING_Pos)\000"
 8340      4E475F50 
 8340      6F732900 
 8341              	.LASF597:
 8342 30e8 5343425F 		.ascii	"SCB_SHCSR_MEMFAULTENA_Msk (1UL << SCB_SHCSR_MEMFAUL"
 8342      53484353 
 8342      525F4D45 
 8342      4D464155 
 8342      4C54454E 
 8343 311b 54454E41 		.ascii	"TENA_Pos)\000"
 8343      5F506F73 
 8343      2900
 8344              	.LASF246:
 8345 3125 5F5F4C41 		.ascii	"__LACCUM_FBIT__ 31\000"
 8345      4343554D 
 8345      5F464249 
 8345      545F5F20 
 8345      333100
 8346              	.LASF163:
 8347 3138 5F5F4C44 		.ascii	"__LDBL_HAS_INFINITY__ 1\000"
 8347      424C5F48 
 8347      41535F49 
 8347      4E46494E 
 8347      4954595F 
 8348              	.LASF292:
 8349 3150 5F5F5441 		.ascii	"__TA_FBIT__ 63\000"
 8349      5F464249 
 8349      545F5F20 
 8349      363300
 8350              	.LASF5:
 8351 315f 5F5F5645 		.ascii	"__VERSION__ \"5.4.1 20160919 (release) [ARM/embedde"
 8351      5253494F 
 8351      4E5F5F20 
 8351      22352E34 
 8351      2E312032 
 8352 3191 642D352D 		.ascii	"d-5-branch revision 240496]\"\000"
 8352      6272616E 
 8352      63682072 
 8352      65766973 
 8352      696F6E20 
 8353              	.LASF458:
 8354 31ae 494E5450 		.ascii	"INTPTR_MIN (-__INTPTR_MAX__ - 1)\000"
 8354      54525F4D 
 8354      494E2028 
 8354      2D5F5F49 
 8354      4E545054 
 8355              	.LASF711:
 8356 31cf 4D50555F 		.ascii	"MPU_RNR_REGION_Msk (0xFFUL << MPU_RNR_REGION_Pos)\000"
 8356      524E525F 
 8356      52454749 
 8356      4F4E5F4D 
ARM GAS  C:\Users\STUDENT\AppData\Local\Temp\cc6DO5vW.s 			page 189


 8356      736B2028 
 8357              	.LASF848:
 8358 3201 4C50435F 		.ascii	"LPC_GPDMACH0_BASE (LPC_AHB_BASE + 0x04100)\000"
 8358      4750444D 
 8358      41434830 
 8358      5F424153 
 8358      4520284C 
 8359              	.LASF349:
 8360 322c 5F5F4152 		.ascii	"__ARM_ARCH_EXT_IDIV__ 1\000"
 8360      4D5F4152 
 8360      43485F45 
 8360      58545F49 
 8360      4449565F 
 8361              	.LASF347:
 8362 3244 5F5F4152 		.ascii	"__ARM_PCS 1\000"
 8362      4D5F5043 
 8362      53203100 
 8363              	.LASF822:
 8364 3250 4C50435F 		.ascii	"LPC_SPI_BASE (LPC_APB0_BASE + 0x20000)\000"
 8364      5350495F 
 8364      42415345 
 8364      20284C50 
 8364      435F4150 
 8365              	.LASF83:
 8366 3277 5F5F5349 		.ascii	"__SIG_ATOMIC_MIN__ (-__SIG_ATOMIC_MAX__ - 1)\000"
 8366      475F4154 
 8366      4F4D4943 
 8366      5F4D494E 
 8366      5F5F2028 
 8367              	.LASF100:
 8368 32a4 5F5F5549 		.ascii	"__UINT_LEAST8_MAX__ 0xff\000"
 8368      4E545F4C 
 8368      45415354 
 8368      385F4D41 
 8368      585F5F20 
 8369              	.LASF538:
 8370 32bd 5343425F 		.ascii	"SCB_ICSR_PENDSVSET_Pos 28\000"
 8370      49435352 
 8370      5F50454E 
 8370      44535653 
 8370      45545F50 
 8371              	.LASF807:
 8372 32d7 4C50435F 		.ascii	"LPC_RAM_BASE (0x10000000UL)\000"
 8372      52414D5F 
 8372      42415345 
 8372      20283078 
 8372      31303030 
 8373              	.LASF568:
 8374 32f3 5343425F 		.ascii	"SCB_AIRCR_SYSRESETREQ_Pos 2\000"
 8374      41495243 
 8374      525F5359 
 8374      53524553 
 8374      45545245 
 8375              	.LASF526:
 8376 330f 5F5F4F20 		.ascii	"__O volatile\000"
 8376      766F6C61 
 8376      74696C65 
ARM GAS  C:\Users\STUDENT\AppData\Local\Temp\cc6DO5vW.s 			page 190


 8376      00
 8377              	.LASF926:
 8378 331c 4750494F 		.ascii	"GPIO3_Byte ((GPIO_Byte_TypeDef *)(LPC_GPIO3_BASE))\000"
 8378      335F4279 
 8378      74652028 
 8378      28475049 
 8378      4F5F4279 
 8379              	.LASF362:
 8380 334f 5F5F434D 		.ascii	"__CM3_CMSIS_VERSION_SUB (0x00)\000"
 8380      335F434D 
 8380      5349535F 
 8380      56455253 
 8380      494F4E5F 
 8381              	.LASF501:
 8382 336e 5349475F 		.ascii	"SIG_ATOMIC_MIN (-__STDINT_EXP(INT_MAX) - 1)\000"
 8382      41544F4D 
 8382      49435F4D 
 8382      494E2028 
 8382      2D5F5F53 
 8383              	.LASF781:
 8384 339a 436F7265 		.ascii	"CoreDebug_DEMCR_VC_STATERR_Msk (1UL << CoreDebug_DE"
 8384      44656275 
 8384      675F4445 
 8384      4D43525F 
 8384      56435F53 
 8385 33cd 4D43525F 		.ascii	"MCR_VC_STATERR_Pos)\000"
 8385      56435F53 
 8385      54415445 
 8385      52525F50 
 8385      6F732900 
 8386              	.LASF834:
 8387 33e1 4C50435F 		.ascii	"LPC_SSP0_BASE (LPC_APB1_BASE + 0x08000)\000"
 8387      53535030 
 8387      5F424153 
 8387      4520284C 
 8387      50435F41 
 8388              	.LASF439:
 8389 3409 5F494E54 		.ascii	"_INT16_T_DECLARED \000"
 8389      31365F54 
 8389      5F444543 
 8389      4C415245 
 8389      442000
 8390              	.LASF909:
 8391 341c 4C50435F 		.ascii	"LPC_USB ((LPC_USB_TypeDef *) LPC_USB_BASE )\000"
 8391      55534220 
 8391      28284C50 
 8391      435F5553 
 8391      425F5479 
 8392              	.LASF508:
 8393 3448 57494E54 		.ascii	"WINT_MIN (__WINT_MIN__)\000"
 8393      5F4D494E 
 8393      20285F5F 
 8393      57494E54 
 8393      5F4D494E 
 8394              	.LASF453:
 8395 3460 5F5F696E 		.ascii	"__int_least64_t_defined 1\000"
 8395      745F6C65 
ARM GAS  C:\Users\STUDENT\AppData\Local\Temp\cc6DO5vW.s 			page 191


 8395      61737436 
 8395      345F745F 
 8395      64656669 
 8396              	.LASF706:
 8397 347a 4D50555F 		.ascii	"MPU_CTRL_HFNMIENA_Pos 1\000"
 8397      4354524C 
 8397      5F48464E 
 8397      4D49454E 
 8397      415F506F 
 8398              	.LASF690:
 8399 3492 496E7454 		.ascii	"IntType_ICTR_INTLINESNUM_Pos 0\000"
 8399      7970655F 
 8399      49435452 
 8399      5F494E54 
 8399      4C494E45 
 8400              	.LASF601:
 8401 34b1 5343425F 		.ascii	"SCB_SHCSR_BUSFAULTPENDED_Msk (1UL << SCB_SHCSR_BUSF"
 8401      53484353 
 8401      525F4255 
 8401      53464155 
 8401      4C545045 
 8402 34e4 41554C54 		.ascii	"AULTPENDED_Pos)\000"
 8402      50454E44 
 8402      45445F50 
 8402      6F732900 
 8403              	.LASF178:
 8404 34f4 5F5F4445 		.ascii	"__DEC64_SUBNORMAL_MIN__ 0.000000000000001E-383DD\000"
 8404      4336345F 
 8404      5355424E 
 8404      4F524D41 
 8404      4C5F4D49 
 8405              	.LASF195:
 8406 3525 5F5F5553 		.ascii	"__USFRACT_EPSILON__ 0x1P-8UHR\000"
 8406      46524143 
 8406      545F4550 
 8406      53494C4F 
 8406      4E5F5F20 
 8407              	.LASF385:
 8408 3543 5F5F4154 		.ascii	"__ATFILE_VISIBLE 1\000"
 8408      46494C45 
 8408      5F564953 
 8408      49424C45 
 8408      203100
 8409              	.LASF355:
 8410 3556 4C504331 		.ascii	"LPC17XX_GPIO_H_ \000"
 8410      3758585F 
 8410      4750494F 
 8410      5F485F20 
 8410      00
 8411              	.LASF904:
 8412 3567 4C50435F 		.ascii	"LPC_GPDMACH3 ((LPC_GPDMACH_TypeDef *) LPC_GPDMACH3_"
 8412      4750444D 
 8412      41434833 
 8412      2028284C 
 8412      50435F47 
 8413 359a 42415345 		.ascii	"BASE )\000"
 8413      202900
ARM GAS  C:\Users\STUDENT\AppData\Local\Temp\cc6DO5vW.s 			page 192


 8414              	.LASF191:
 8415 35a1 5F5F5553 		.ascii	"__USFRACT_FBIT__ 8\000"
 8415      46524143 
 8415      545F4642 
 8415      49545F5F 
 8415      203800
 8416              	.LASF259:
 8417 35b4 5F5F4C4C 		.ascii	"__LLACCUM_MAX__ 0X7FFFFFFFFFFFFFFFP-31LLK\000"
 8417      41434355 
 8417      4D5F4D41 
 8417      585F5F20 
 8417      30583746 
 8418              	.LASF731:
 8419 35de 4D50555F 		.ascii	"MPU_RASR_SRD_Msk (0xFFUL << MPU_RASR_SRD_Pos)\000"
 8419      52415352 
 8419      5F535244 
 8419      5F4D736B 
 8419      20283078 
 8420              	.LASF1061:
 8421 360c 46494F5F 		.ascii	"FIO_ClearValue\000"
 8421      436C6561 
 8421      7256616C 
 8421      756500
 8422              	.LASF1059:
 8423 361b 46494F5F 		.ascii	"FIO_SetDir\000"
 8423      53657444 
 8423      697200
 8424              	.LASF120:
 8425 3626 5F5F464C 		.ascii	"__FLT_EVAL_METHOD__ 0\000"
 8425      545F4556 
 8425      414C5F4D 
 8425      4554484F 
 8425      445F5F20 
 8426              	.LASF452:
 8427 363c 5F5F696E 		.ascii	"__int_least32_t_defined 1\000"
 8427      745F6C65 
 8427      61737433 
 8427      325F745F 
 8427      64656669 
 8428              	.LASF303:
 8429 3656 5F5F5553 		.ascii	"__USER_LABEL_PREFIX__ \000"
 8429      45525F4C 
 8429      4142454C 
 8429      5F505245 
 8429      4649585F 
 8430              	.LASF91:
 8431 366d 5F5F5549 		.ascii	"__UINT64_MAX__ 0xffffffffffffffffULL\000"
 8431      4E543634 
 8431      5F4D4158 
 8431      5F5F2030 
 8431      78666666 
 8432              	.LASF682:
 8433 3692 49544D5F 		.ascii	"ITM_IMCR_INTEGRATION_Pos 0\000"
 8433      494D4352 
 8433      5F494E54 
 8433      45475241 
 8433      54494F4E 
ARM GAS  C:\Users\STUDENT\AppData\Local\Temp\cc6DO5vW.s 			page 193


 8434              	.LASF727:
 8435 36ad 4D50555F 		.ascii	"MPU_RASR_C_Msk (1UL << MPU_RASR_C_Pos)\000"
 8435      52415352 
 8435      5F435F4D 
 8435      736B2028 
 8435      31554C20 
 8436              	.LASF90:
 8437 36d4 5F5F5549 		.ascii	"__UINT32_MAX__ 0xffffffffUL\000"
 8437      4E543332 
 8437      5F4D4158 
 8437      5F5F2030 
 8437      78666666 
 8438              	.LASF515:
 8439 36f0 494E5436 		.ascii	"INT64_C(x) __INT64_C(x)\000"
 8439      345F4328 
 8439      7829205F 
 8439      5F494E54 
 8439      36345F43 
 8440              	.LASF383:
 8441 3708 5F415446 		.ascii	"_ATFILE_SOURCE\000"
 8441      494C455F 
 8441      534F5552 
 8441      434500
 8442              	.LASF461:
 8443 3717 494E5438 		.ascii	"INT8_MIN (-__INT8_MAX__ - 1)\000"
 8443      5F4D494E 
 8443      20282D5F 
 8443      5F494E54 
 8443      385F4D41 
 8444              	.LASF828:
 8445 3734 4C50435F 		.ascii	"LPC_CANAF_RAM_BASE (LPC_APB0_BASE + 0x38000)\000"
 8445      43414E41 
 8445      465F5241 
 8445      4D5F4241 
 8445      53452028 
 8446              	.LASF895:
 8447 3761 4C50435F 		.ascii	"LPC_CAN2 ((LPC_CAN_TypeDef *) LPC_CAN2_BASE )\000"
 8447      43414E32 
 8447      2028284C 
 8447      50435F43 
 8447      414E5F54 
 8448              	.LASF92:
 8449 378f 5F5F494E 		.ascii	"__INT_LEAST8_MAX__ 0x7f\000"
 8449      545F4C45 
 8449      41535438 
 8449      5F4D4158 
 8449      5F5F2030 
 8450              	.LASF320:
 8451 37a7 5F5F4743 		.ascii	"__GCC_ATOMIC_POINTER_LOCK_FREE 2\000"
 8451      435F4154 
 8451      4F4D4943 
 8451      5F504F49 
 8451      4E544552 
 8452              	.LASF326:
 8453 37c8 5F5F4152 		.ascii	"__ARM_FEATURE_QBIT 1\000"
 8453      4D5F4645 
 8453      41545552 
ARM GAS  C:\Users\STUDENT\AppData\Local\Temp\cc6DO5vW.s 			page 194


 8453      455F5142 
 8453      49542031 
 8454              	.LASF331:
 8455 37dd 5F5F4152 		.ascii	"__ARM_FEATURE_CLZ 1\000"
 8455      4D5F4645 
 8455      41545552 
 8455      455F434C 
 8455      5A203100 
 8456              	.LASF8:
 8457 37f1 5F5F4154 		.ascii	"__ATOMIC_ACQUIRE 2\000"
 8457      4F4D4943 
 8457      5F414351 
 8457      55495245 
 8457      203200
 8458              	.LASF1024:
 8459 3804 494F3049 		.ascii	"IO0IntClr\000"
 8459      6E74436C 
 8459      7200
 8460              	.LASF424:
 8461 380e 5F5F494E 		.ascii	"__INT16 \"h\"\000"
 8461      54313620 
 8461      22682200 
 8462              	.LASF573:
 8463 381a 5343425F 		.ascii	"SCB_AIRCR_VECTRESET_Msk (1UL << SCB_AIRCR_VECTRESET"
 8463      41495243 
 8463      525F5645 
 8463      43545245 
 8463      5345545F 
 8464 384d 5F506F73 		.ascii	"_Pos)\000"
 8464      2900
 8465              	.LASF817:
 8466 3853 4C50435F 		.ascii	"LPC_TIM1_BASE (LPC_APB0_BASE + 0x08000)\000"
 8466      54494D31 
 8466      5F424153 
 8466      4520284C 
 8466      50435F41 
 8467              	.LASF668:
 8468 387b 49544D5F 		.ascii	"ITM_TCR_SWOENA_Pos 4\000"
 8468      5443525F 
 8468      53574F45 
 8468      4E415F50 
 8468      6F732034 
 8469              	.LASF421:
 8470 3890 5F494E54 		.ascii	"_INTPTR_EQ_INT \000"
 8470      5054525F 
 8470      45515F49 
 8470      4E542000 
 8471              	.LASF333:
 8472 38a0 5F5F4152 		.ascii	"__ARM_SIZEOF_WCHAR_T 4\000"
 8472      4D5F5349 
 8472      5A454F46 
 8472      5F574348 
 8472      41525F54 
 8473              	.LASF469:
 8474 38b7 55494E54 		.ascii	"UINT16_MAX (__UINT16_MAX__)\000"
 8474      31365F4D 
 8474      41582028 
ARM GAS  C:\Users\STUDENT\AppData\Local\Temp\cc6DO5vW.s 			page 195


 8474      5F5F5549 
 8474      4E543136 
 8475              	.LASF64:
 8476 38d3 5F5F6861 		.ascii	"__has_include(STR) __has_include__(STR)\000"
 8476      735F696E 
 8476      636C7564 
 8476      65285354 
 8476      5229205F 
 8477              	.LASF521:
 8478 38fb 5F5F5353 		.ascii	"__SSAT(ARG1,ARG2) ({ uint32_t __RES, __ARG1 = (ARG1"
 8478      41542841 
 8478      5247312C 
 8478      41524732 
 8478      2920287B 
 8479 392e 293B205F 		.ascii	"); __ASM (\"ssat %0, %1, %2\" : \"=r\" (__RES) : \""
 8479      5F41534D 
 8479      20282273 
 8479      73617420 
 8479      25302C20 
 8480 395c 49222028 		.ascii	"I\" (ARG2), \"r\" (__ARG1) ); __RES; })\000"
 8480      41524732 
 8480      292C2022 
 8480      72222028 
 8480      5F5F4152 
 8481              	.LASF939:
 8482 3981 5F554152 		.ascii	"_UART2 1\000"
 8482      54322031 
 8482      00
 8483              	.LASF104:
 8484 398a 5F5F5549 		.ascii	"__UINT_LEAST32_MAX__ 0xffffffffUL\000"
 8484      4E545F4C 
 8484      45415354 
 8484      33325F4D 
 8484      41585F5F 
 8485              	.LASF1000:
 8486 39ac 46494F50 		.ascii	"FIOPIN0\000"
 8486      494E3000 
 8487              	.LASF1001:
 8488 39b4 46494F50 		.ascii	"FIOPIN1\000"
 8488      494E3100 
 8489              	.LASF1002:
 8490 39bc 46494F50 		.ascii	"FIOPIN2\000"
 8490      494E3200 
 8491              	.LASF1003:
 8492 39c4 46494F50 		.ascii	"FIOPIN3\000"
 8492      494E3300 
 8493              	.LASF135:
 8494 39cc 5F5F464C 		.ascii	"__FLT_HAS_INFINITY__ 1\000"
 8494      545F4841 
 8494      535F494E 
 8494      46494E49 
 8494      54595F5F 
 8495              	.LASF239:
 8496 39e3 5F5F4143 		.ascii	"__ACCUM_MAX__ 0X7FFFFFFFP-15K\000"
 8496      43554D5F 
 8496      4D41585F 
 8496      5F203058 
ARM GAS  C:\Users\STUDENT\AppData\Local\Temp\cc6DO5vW.s 			page 196


 8496      37464646 
 8497              	.LASF549:
 8498 3a01 5343425F 		.ascii	"SCB_ICSR_ISRPENDING_Msk (1UL << SCB_ICSR_ISRPENDING"
 8498      49435352 
 8498      5F495352 
 8498      50454E44 
 8498      494E475F 
 8499 3a34 5F506F73 		.ascii	"_Pos)\000"
 8499      2900
 8500              	.LASF1051:
 8501 3a3a 4750494F 		.ascii	"GPIO_SetValue\000"
 8501      5F536574 
 8501      56616C75 
 8501      6500
 8502              	.LASF1069:
 8503 3a48 68616C66 		.ascii	"halfwordNum\000"
 8503      776F7264 
 8503      4E756D00 
 8504              	.LASF321:
 8505 3a54 5F5F4743 		.ascii	"__GCC_HAVE_DWARF2_CFI_ASM 1\000"
 8505      435F4841 
 8505      56455F44 
 8505      57415246 
 8505      325F4346 
 8506              	.LASF395:
 8507 3a70 5F5F5F69 		.ascii	"___int8_t_defined 1\000"
 8507      6E74385F 
 8507      745F6465 
 8507      66696E65 
 8507      64203100 
 8508              	.LASF188:
 8509 3a84 5F5F5346 		.ascii	"__SFRACT_MIN__ (-0.5HR-0.5HR)\000"
 8509      52414354 
 8509      5F4D494E 
 8509      5F5F2028 
 8509      2D302E35 
 8510              	.LASF975:
 8511 3aa2 6C6F6E67 		.ascii	"long unsigned int\000"
 8511      20756E73 
 8511      69676E65 
 8511      6420696E 
 8511      7400
 8512              	.LASF289:
 8513 3ab4 5F5F5341 		.ascii	"__SA_IBIT__ 16\000"
 8513      5F494249 
 8513      545F5F20 
 8513      313600
 8514              	.LASF408:
 8515 3ac3 7369676E 		.ascii	"signed\000"
 8515      656400
 8516              	.LASF999:
 8517 3aca 46494F50 		.ascii	"FIOPINH\000"
 8517      494E4800 
 8518              	.LASF2:
 8519 3ad2 5F5F474E 		.ascii	"__GNUC__ 5\000"
 8519      55435F5F 
 8519      203500
ARM GAS  C:\Users\STUDENT\AppData\Local\Temp\cc6DO5vW.s 			page 197


 8520              	.LASF832:
 8521 3add 4C50435F 		.ascii	"LPC_CAN2_BASE (LPC_APB0_BASE + 0x48000)\000"
 8521      43414E32 
 8521      5F424153 
 8521      4520284C 
 8521      50435F41 
 8522              	.LASF998:
 8523 3b05 46494F50 		.ascii	"FIOPINL\000"
 8523      494E4C00 
 8524              	.LASF43:
 8525 3b0d 5F5F5549 		.ascii	"__UINT16_TYPE__ short unsigned int\000"
 8525      4E543136 
 8525      5F545950 
 8525      455F5F20 
 8525      73686F72 
 8526              	.LASF379:
 8527 3b30 5F504F53 		.ascii	"_POSIX_SOURCE\000"
 8527      49585F53 
 8527      4F555243 
 8527      4500
 8528              	.LASF343:
 8529 3b3e 5F5F534F 		.ascii	"__SOFTFP__ 1\000"
 8529      46544650 
 8529      5F5F2031 
 8529      00
 8530              	.LASF1039:
 8531 3b4b 46494F50 		.ascii	"FIOPINU\000"
 8531      494E5500 
 8532              	.LASF689:
 8533 3b53 49544D5F 		.ascii	"ITM_LSR_Present_Msk (1UL << ITM_LSR_Present_Pos)\000"
 8533      4C53525F 
 8533      50726573 
 8533      656E745F 
 8533      4D736B20 
 8534              	.LASF167:
 8535 3b84 5F5F4445 		.ascii	"__DEC32_MAX_EXP__ 97\000"
 8535      4333325F 
 8535      4D41585F 
 8535      4558505F 
 8535      5F203937 
 8536              	.LASF658:
 8537 3b99 53797354 		.ascii	"SysTick_CALIB_TENMS_Pos 0\000"
 8537      69636B5F 
 8537      43414C49 
 8537      425F5445 
 8537      4E4D535F 
 8538              	.LASF547:
 8539 3bb3 5343425F 		.ascii	"SCB_ICSR_ISRPREEMPT_Msk (1UL << SCB_ICSR_ISRPREEMPT"
 8539      49435352 
 8539      5F495352 
 8539      50524545 
 8539      4D50545F 
 8540 3be6 5F506F73 		.ascii	"_Pos)\000"
 8540      2900
 8541              	.LASF819:
 8542 3bec 4C50435F 		.ascii	"LPC_UART1_BASE (LPC_APB0_BASE + 0x10000)\000"
 8542      55415254 
ARM GAS  C:\Users\STUDENT\AppData\Local\Temp\cc6DO5vW.s 			page 198


 8542      315F4241 
 8542      53452028 
 8542      4C50435F 
 8543              	.LASF419:
 8544 3c15 696E7420 		.ascii	"int +2\000"
 8544      2B3200
 8545              	.LASF509:
 8546 3c1c 494E5438 		.ascii	"INT8_C(x) __INT8_C(x)\000"
 8546      5F432878 
 8546      29205F5F 
 8546      494E5438 
 8546      5F432878 
 8547              	.LASF709:
 8548 3c32 4D50555F 		.ascii	"MPU_CTRL_ENABLE_Msk (1UL << MPU_CTRL_ENABLE_Pos)\000"
 8548      4354524C 
 8548      5F454E41 
 8548      424C455F 
 8548      4D736B20 
 8549              	.LASF58:
 8550 3c63 5F5F5549 		.ascii	"__UINT_FAST8_TYPE__ unsigned int\000"
 8550      4E545F46 
 8550      41535438 
 8550      5F545950 
 8550      455F5F20 
 8551              	.LASF257:
 8552 3c84 5F5F4C4C 		.ascii	"__LLACCUM_IBIT__ 32\000"
 8552      41434355 
 8552      4D5F4942 
 8552      49545F5F 
 8552      20333200 
 8553              	.LASF613:
 8554 3c98 5343425F 		.ascii	"SCB_SHCSR_SVCALLACT_Msk (1UL << SCB_SHCSR_SVCALLACT"
 8554      53484353 
 8554      525F5356 
 8554      43414C4C 
 8554      4143545F 
 8555 3ccb 5F506F73 		.ascii	"_Pos)\000"
 8555      2900
 8556              	.LASF200:
 8557 3cd1 5F5F4652 		.ascii	"__FRACT_EPSILON__ 0x1P-15R\000"
 8557      4143545F 
 8557      45505349 
 8557      4C4F4E5F 
 8557      5F203078 
 8558              	.LASF922:
 8559 3cec 45585445 		.ascii	"EXTERN extern\000"
 8559      524E2065 
 8559      78746572 
 8559      6E00
 8560              	.LASF364:
 8561 3cfa 5F5F434F 		.ascii	"__CORTEX_M (0x03)\000"
 8561      52544558 
 8561      5F4D2028 
 8561      30783033 
 8561      2900
 8562              	.LASF51:
 8563 3d0c 5F5F5549 		.ascii	"__UINT_LEAST16_TYPE__ short unsigned int\000"
ARM GAS  C:\Users\STUDENT\AppData\Local\Temp\cc6DO5vW.s 			page 199


 8563      4E545F4C 
 8563      45415354 
 8563      31365F54 
 8563      5950455F 
 8564              	.LASF86:
 8565 3d35 5F5F494E 		.ascii	"__INT32_MAX__ 0x7fffffffL\000"
 8565      5433325F 
 8565      4D41585F 
 8565      5F203078 
 8565      37666666 
 8566              	.LASF352:
 8567 3d4f 5F5F4758 		.ascii	"__GXX_TYPEINFO_EQUALITY_INLINE 0\000"
 8567      585F5459 
 8567      5045494E 
 8567      464F5F45 
 8567      5155414C 
 8568              	.LASF928:
 8569 3d70 4750494F 		.ascii	"GPIO0_HalfWord ((GPIO_HalfWord_TypeDef *)(LPC_GPIO0"
 8569      305F4861 
 8569      6C66576F 
 8569      72642028 
 8569      28475049 
 8570 3da3 5F424153 		.ascii	"_BASE))\000"
 8570      45292900 
 8571              	.LASF580:
 8572 3dab 5343425F 		.ascii	"SCB_CCR_STKALIGN_Pos 9\000"
 8572      4343525F 
 8572      53544B41 
 8572      4C49474E 
 8572      5F506F73 
 8573              	.LASF357:
 8574 3dc2 5F5F4D50 		.ascii	"__MPU_PRESENT 1\000"
 8574      555F5052 
 8574      4553454E 
 8574      54203100 
 8575              	.LASF37:
 8576 3dd2 5F5F5349 		.ascii	"__SIG_ATOMIC_TYPE__ int\000"
 8576      475F4154 
 8576      4F4D4943 
 8576      5F545950 
 8576      455F5F20 
 8577              	.LASF952:
 8578 3dea 5F444143 		.ascii	"_DAC 1\000"
 8578      203100
 8579              	.LASF435:
 8580 3df1 5F535953 		.ascii	"_SYS__STDINT_H \000"
 8580      5F5F5354 
 8580      44494E54 
 8580      5F482000 
 8581              	.LASF378:
 8582 3e01 5F444546 		.ascii	"_DEFAULT_SOURCE 1\000"
 8582      41554C54 
 8582      5F534F55 
 8582      52434520 
 8582      3100
 8583              	.LASF715:
 8584 3e13 4D50555F 		.ascii	"MPU_RBAR_VALID_Msk (1UL << MPU_RBAR_VALID_Pos)\000"
ARM GAS  C:\Users\STUDENT\AppData\Local\Temp\cc6DO5vW.s 			page 200


 8584      52424152 
 8584      5F56414C 
 8584      49445F4D 
 8584      736B2028 
 8585              	.LASF117:
 8586 3e42 5F5F5549 		.ascii	"__UINTPTR_MAX__ 0xffffffffU\000"
 8586      4E545054 
 8586      525F4D41 
 8586      585F5F20 
 8586      30786666 
 8587              	.LASF561:
 8588 3e5e 5343425F 		.ascii	"SCB_AIRCR_VECTKEY_Msk (0xFFFFUL << SCB_AIRCR_VECTKE"
 8588      41495243 
 8588      525F5645 
 8588      43544B45 
 8588      595F4D73 
 8589 3e91 595F506F 		.ascii	"Y_Pos)\000"
 8589      732900
 8590              	.LASF603:
 8591 3e98 5343425F 		.ascii	"SCB_SHCSR_MEMFAULTPENDED_Msk (1UL << SCB_SHCSR_MEMF"
 8591      53484353 
 8591      525F4D45 
 8591      4D464155 
 8591      4C545045 
 8592 3ecb 41554C54 		.ascii	"AULTPENDED_Pos)\000"
 8592      50454E44 
 8592      45445F50 
 8592      6F732900 
 8593              	.LASF53:
 8594 3edb 5F5F5549 		.ascii	"__UINT_LEAST64_TYPE__ long long unsigned int\000"
 8594      4E545F4C 
 8594      45415354 
 8594      36345F54 
 8594      5950455F 
 8595              	.LASF844:
 8596 3f08 4C50435F 		.ascii	"LPC_QEI_BASE (LPC_APB1_BASE + 0x3C000)\000"
 8596      5145495F 
 8596      42415345 
 8596      20284C50 
 8596      435F4150 
 8597              	.LASF610:
 8598 3f2f 5343425F 		.ascii	"SCB_SHCSR_MONITORACT_Pos 8\000"
 8598      53484353 
 8598      525F4D4F 
 8598      4E49544F 
 8598      52414354 
 8599              	.LASF160:
 8600 3f4a 5F5F4C44 		.ascii	"__LDBL_EPSILON__ 2.2204460492503131e-16L\000"
 8600      424C5F45 
 8600      5053494C 
 8600      4F4E5F5F 
 8600      20322E32 
 8601              	.LASF692:
 8602 3f73 496E7454 		.ascii	"IntType_ACTLR_DISFOLD_Pos 2\000"
 8602      7970655F 
 8602      4143544C 
 8602      525F4449 
ARM GAS  C:\Users\STUDENT\AppData\Local\Temp\cc6DO5vW.s 			page 201


 8602      53464F4C 
 8603              	.LASF560:
 8604 3f8f 5343425F 		.ascii	"SCB_AIRCR_VECTKEY_Pos 16\000"
 8604      41495243 
 8604      525F5645 
 8604      43544B45 
 8604      595F506F 
 8605              	.LASF312:
 8606 3fa8 5F5F4743 		.ascii	"__GCC_ATOMIC_CHAR16_T_LOCK_FREE 2\000"
 8606      435F4154 
 8606      4F4D4943 
 8606      5F434841 
 8606      5231365F 
 8607              	.LASF141:
 8608 3fca 5F5F4442 		.ascii	"__DBL_MAX_EXP__ 1024\000"
 8608      4C5F4D41 
 8608      585F4558 
 8608      505F5F20 
 8608      31303234 
 8609              	.LASF430:
 8610 3fdf 5F5F4641 		.ascii	"__FAST64 \"ll\"\000"
 8610      53543634 
 8610      20226C6C 
 8610      2200
 8611              	.LASF9:
 8612 3fed 5F5F4154 		.ascii	"__ATOMIC_RELEASE 3\000"
 8612      4F4D4943 
 8612      5F52454C 
 8612      45415345 
 8612      203300
 8613              	.LASF997:
 8614 4000 46494F4D 		.ascii	"FIOMASK\000"
 8614      41534B00 
 8615              	.LASF801:
 8616 4008 436F7265 		.ascii	"CoreDebug ((CoreDebug_Type *) CoreDebug_BASE)\000"
 8616      44656275 
 8616      67202828 
 8616      436F7265 
 8616      44656275 
 8617              	.LASF123:
 8618 4036 5F5F464C 		.ascii	"__FLT_MANT_DIG__ 24\000"
 8618      545F4D41 
 8618      4E545F44 
 8618      49475F5F 
 8618      20323400 
 8619              	.LASF800:
 8620 404a 49544D20 		.ascii	"ITM ((ITM_Type *) ITM_BASE)\000"
 8620      28284954 
 8620      4D5F5479 
 8620      7065202A 
 8620      29204954 
 8621              	.LASF371:
 8622 4066 5F4E4557 		.ascii	"_NEWLIB_VERSION \"2.4.0\"\000"
 8622      4C49425F 
 8622      56455253 
 8622      494F4E20 
 8622      22322E34 
ARM GAS  C:\Users\STUDENT\AppData\Local\Temp\cc6DO5vW.s 			page 202


 8623              	.LASF56:
 8624 407e 5F5F494E 		.ascii	"__INT_FAST32_TYPE__ int\000"
 8624      545F4641 
 8624      53543332 
 8624      5F545950 
 8624      455F5F20 
 8625              	.LASF733:
 8626 4096 4D50555F 		.ascii	"MPU_RASR_SIZE_Msk (0x1FUL << MPU_RASR_SIZE_Pos)\000"
 8626      52415352 
 8626      5F53495A 
 8626      455F4D73 
 8626      6B202830 
 8627              	.LASF499:
 8628 40c6 55494E54 		.ascii	"UINTMAX_MAX (__UINTMAX_MAX__)\000"
 8628      4D41585F 
 8628      4D415820 
 8628      285F5F55 
 8628      494E544D 
 8629              	.LASF804:
 8630 40e4 49544D5F 		.ascii	"ITM_RXBUFFER_EMPTY 0x5AA55AA5\000"
 8630      52584255 
 8630      46464552 
 8630      5F454D50 
 8630      54592030 
 8631              	.LASF1063:
 8632 4102 46494F5F 		.ascii	"FIO_IntCmd\000"
 8632      496E7443 
 8632      6D6400
 8633              	.LASF524:
 8634 410d 5F5F434F 		.ascii	"__CORE_CM3_H_DEPENDANT \000"
 8634      52455F43 
 8634      4D335F48 
 8634      5F444550 
 8634      454E4441 
 8635              	.LASF429:
 8636 4125 5F5F4641 		.ascii	"__FAST32 \000"
 8636      53543332 
 8636      2000
 8637              	.LASF418:
 8638 412f 5F5F696E 		.ascii	"__int20 +2\000"
 8638      74323020 
 8638      2B3200
 8639              	.LASF798:
 8640 413a 53797354 		.ascii	"SysTick ((SysTick_Type *) SysTick_BASE)\000"
 8640      69636B20 
 8640      28285379 
 8640      73546963 
 8640      6B5F5479 
 8641              	.LASF161:
 8642 4162 5F5F4C44 		.ascii	"__LDBL_DENORM_MIN__ 4.9406564584124654e-324L\000"
 8642      424C5F44 
 8642      454E4F52 
 8642      4D5F4D49 
 8642      4E5F5F20 
 8643              	.LASF87:
 8644 418f 5F5F494E 		.ascii	"__INT64_MAX__ 0x7fffffffffffffffLL\000"
 8644      5436345F 
ARM GAS  C:\Users\STUDENT\AppData\Local\Temp\cc6DO5vW.s 			page 203


 8644      4D41585F 
 8644      5F203078 
 8644      37666666 
 8645              	.LASF327:
 8646 41b2 5F5F4152 		.ascii	"__ARM_FEATURE_SAT 1\000"
 8646      4D5F4645 
 8646      41545552 
 8646      455F5341 
 8646      54203100 
 8647              	.LASF720:
 8648 41c6 4D50555F 		.ascii	"MPU_RASR_AP_Pos 24\000"
 8648      52415352 
 8648      5F41505F 
 8648      506F7320 
 8648      323400
 8649              	.LASF705:
 8650 41d9 4D50555F 		.ascii	"MPU_CTRL_PRIVDEFENA_Msk (1UL << MPU_CTRL_PRIVDEFENA"
 8650      4354524C 
 8650      5F505249 
 8650      56444546 
 8650      454E415F 
 8651 420c 5F506F73 		.ascii	"_Pos)\000"
 8651      2900
 8652              	.LASF441:
 8653 4212 5F5F696E 		.ascii	"__int16_t_defined 1\000"
 8653      7431365F 
 8653      745F6465 
 8653      66696E65 
 8653      64203100 
 8654              	.LASF222:
 8655 4226 5F5F554C 		.ascii	"__ULLFRACT_IBIT__ 0\000"
 8655      4C465241 
 8655      43545F49 
 8655      4249545F 
 8655      5F203000 
 8656              	.LASF779:
 8657 423a 436F7265 		.ascii	"CoreDebug_DEMCR_VC_BUSERR_Msk (1UL << CoreDebug_DEM"
 8657      44656275 
 8657      675F4445 
 8657      4D43525F 
 8657      56435F42 
 8658 426d 43525F56 		.ascii	"CR_VC_BUSERR_Pos)\000"
 8658      435F4255 
 8658      53455252 
 8658      5F506F73 
 8658      2900
 8659              	.LASF381:
 8660 427f 5F504F53 		.ascii	"_POSIX_C_SOURCE\000"
 8660      49585F43 
 8660      5F534F55 
 8660      52434500 
 8661              	.LASF986:
 8662 428f 46494F44 		.ascii	"FIODIR0\000"
 8662      49523000 
 8663              	.LASF987:
 8664 4297 46494F44 		.ascii	"FIODIR1\000"
 8664      49523100 
ARM GAS  C:\Users\STUDENT\AppData\Local\Temp\cc6DO5vW.s 			page 204


 8665              	.LASF988:
 8666 429f 46494F44 		.ascii	"FIODIR2\000"
 8666      49523200 
 8667              	.LASF989:
 8668 42a7 46494F44 		.ascii	"FIODIR3\000"
 8668      49523300 
 8669              	.LASF534:
 8670 42af 5343425F 		.ascii	"SCB_CPUID_REVISION_Pos 0\000"
 8670      43505549 
 8670      445F5245 
 8670      56495349 
 8670      4F4E5F50 
 8671              	.LASF959:
 8672 42c8 5F555342 		.ascii	"_USB_DMA 1\000"
 8672      5F444D41 
 8672      203100
 8673              	.LASF1049:
 8674 42d3 62697456 		.ascii	"bitValue\000"
 8674      616C7565 
 8674      00
 8675              	.LASF448:
 8676 42dc 5F494E54 		.ascii	"_INTPTR_T_DECLARED \000"
 8676      5054525F 
 8676      545F4445 
 8676      434C4152 
 8676      45442000 
 8677              	.LASF856:
 8678 42f0 4C50435F 		.ascii	"LPC_USB_BASE (LPC_AHB_BASE + 0x0C000)\000"
 8678      5553425F 
 8678      42415345 
 8678      20284C50 
 8678      435F4148 
 8679              	.LASF888:
 8680 4316 4C50435F 		.ascii	"LPC_SSP1 ((LPC_SSP_TypeDef *) LPC_SSP1_BASE )\000"
 8680      53535031 
 8680      2028284C 
 8680      50435F53 
 8680      53505F54 
 8681              	.LASF1081:
 8682 4344 636F7265 		.ascii	"core/lpc17xx_gpio.c\000"
 8682      2F6C7063 
 8682      31377878 
 8682      5F677069 
 8682      6F2E6300 
 8683              	.LASF651:
 8684 4358 53797354 		.ascii	"SysTick_LOAD_RELOAD_Msk (0xFFFFFFUL << SysTick_LOAD"
 8684      69636B5F 
 8684      4C4F4144 
 8684      5F52454C 
 8684      4F41445F 
 8685 438b 5F52454C 		.ascii	"_RELOAD_Pos)\000"
 8685      4F41445F 
 8685      506F7329 
 8685      00
 8686              	.LASF130:
 8687 4398 5F5F464C 		.ascii	"__FLT_MAX__ 3.4028234663852886e+38F\000"
 8687      545F4D41 
ARM GAS  C:\Users\STUDENT\AppData\Local\Temp\cc6DO5vW.s 			page 205


 8687      585F5F20 
 8687      332E3430 
 8687      32383233 
 8688              	.LASF241:
 8689 43bc 5F5F5541 		.ascii	"__UACCUM_FBIT__ 16\000"
 8689      4343554D 
 8689      5F464249 
 8689      545F5F20 
 8689      313600
 8690              	.LASF937:
 8691 43cf 5F554152 		.ascii	"_UART0 1\000"
 8691      54302031 
 8691      00
 8692              	.LASF205:
 8693 43d8 5F5F5546 		.ascii	"__UFRACT_EPSILON__ 0x1P-16UR\000"
 8693      52414354 
 8693      5F455053 
 8693      494C4F4E 
 8693      5F5F2030 
 8694              	.LASF985:
 8695 43f5 46494F44 		.ascii	"FIODIRH\000"
 8695      49524800 
 8696              	.LASF1032:
 8697 43fd 4C50435F 		.ascii	"LPC_GPIOINT_TypeDef\000"
 8697      4750494F 
 8697      494E545F 
 8697      54797065 
 8697      44656600 
 8698              	.LASF277:
 8699 4411 5F5F5551 		.ascii	"__UQQ_IBIT__ 0\000"
 8699      515F4942 
 8699      49545F5F 
 8699      203000
 8700              	.LASF984:
 8701 4420 46494F44 		.ascii	"FIODIRL\000"
 8701      49524C00 
 8702              	.LASF370:
 8703 4428 5F4E4557 		.ascii	"_NEWLIB_VERSION_H__ 1\000"
 8703      4C49425F 
 8703      56455253 
 8703      494F4E5F 
 8703      485F5F20 
 8704              	.LASF317:
 8705 443e 5F5F4743 		.ascii	"__GCC_ATOMIC_LONG_LOCK_FREE 2\000"
 8705      435F4154 
 8705      4F4D4943 
 8705      5F4C4F4E 
 8705      475F4C4F 
 8706              	.LASF253:
 8707 445c 5F5F554C 		.ascii	"__ULACCUM_MIN__ 0.0ULK\000"
 8707      41434355 
 8707      4D5F4D49 
 8707      4E5F5F20 
 8707      302E3055 
 8708              	.LASF562:
 8709 4473 5343425F 		.ascii	"SCB_AIRCR_VECTKEYSTAT_Pos 16\000"
 8709      41495243 
ARM GAS  C:\Users\STUDENT\AppData\Local\Temp\cc6DO5vW.s 			page 206


 8709      525F5645 
 8709      43544B45 
 8709      59535441 
 8710              	.LASF974:
 8711 4490 5F5F7569 		.ascii	"__uint32_t\000"
 8711      6E743332 
 8711      5F7400
 8712              	.LASF158:
 8713 449b 5F5F4C44 		.ascii	"__LDBL_MAX__ 1.7976931348623157e+308L\000"
 8713      424C5F4D 
 8713      41585F5F 
 8713      20312E37 
 8713      39373639 
 8714              	.LASF336:
 8715 44c1 5F5F4152 		.ascii	"__ARM_ARCH 7\000"
 8715      4D5F4152 
 8715      43482037 
 8715      00
 8716              	.LASF1037:
 8717 44ce 46494F44 		.ascii	"FIODIRU\000"
 8717      49525500 
 8718              	.LASF873:
 8719 44d6 4C50435F 		.ascii	"LPC_RIT ((LPC_RIT_TypeDef *) LPC_RIT_BASE )\000"
 8719      52495420 
 8719      28284C50 
 8719      435F5249 
 8719      545F5479 
 8720              	.LASF122:
 8721 4502 5F5F464C 		.ascii	"__FLT_RADIX__ 2\000"
 8721      545F5241 
 8721      4449585F 
 8721      5F203200 
 8722              	.LASF976:
 8723 4512 6C6F6E67 		.ascii	"long long int\000"
 8723      206C6F6E 
 8723      6720696E 
 8723      7400
 8724              	.LASF1029:
 8725 4520 494F3249 		.ascii	"IO2IntClr\000"
 8725      6E74436C 
 8725      7200
 8726              	.LASF475:
 8727 452a 55494E54 		.ascii	"UINT32_MAX (__UINT32_MAX__)\000"
 8727      33325F4D 
 8727      41582028 
 8727      5F5F5549 
 8727      4E543332 
 8728              	.LASF833:
 8729 4546 4C50435F 		.ascii	"LPC_I2C1_BASE (LPC_APB0_BASE + 0x5C000)\000"
 8729      49324331 
 8729      5F424153 
 8729      4520284C 
 8729      50435F41 
 8730              	.LASF951:
 8731 456e 5F475044 		.ascii	"_GPDMA 1\000"
 8731      4D412031 
 8731      00
ARM GAS  C:\Users\STUDENT\AppData\Local\Temp\cc6DO5vW.s 			page 207


 8732              	.LASF164:
 8733 4577 5F5F4C44 		.ascii	"__LDBL_HAS_QUIET_NAN__ 1\000"
 8733      424C5F48 
 8733      41535F51 
 8733      55494554 
 8733      5F4E414E 
 8734              	.LASF615:
 8735 4590 5343425F 		.ascii	"SCB_SHCSR_USGFAULTACT_Msk (1UL << SCB_SHCSR_USGFAUL"
 8735      53484353 
 8735      525F5553 
 8735      47464155 
 8735      4C544143 
 8736 45c3 54414354 		.ascii	"TACT_Pos)\000"
 8736      5F506F73 
 8736      2900
 8737              	.LASF507:
 8738 45cd 57494E54 		.ascii	"WINT_MAX (__WINT_MAX__)\000"
 8738      5F4D4158 
 8738      20285F5F 
 8738      57494E54 
 8738      5F4D4158 
 8739              	.LASF496:
 8740 45e5 55494E54 		.ascii	"UINT_FAST64_MAX (__UINT_FAST64_MAX__)\000"
 8740      5F464153 
 8740      5436345F 
 8740      4D415820 
 8740      285F5F55 
 8741              	.LASF919:
 8742 460b 4E554C4C 		.ascii	"NULL ((void*) 0)\000"
 8742      20282876 
 8742      6F69642A 
 8742      29203029 
 8742      00
 8743              	.LASF857:
 8744 461c 4C50435F 		.ascii	"LPC_GPIO0_BASE (LPC_GPIO_BASE + 0x00000)\000"
 8744      4750494F 
 8744      305F4241 
 8744      53452028 
 8744      4C50435F 
 8745              	.LASF287:
 8746 4645 5F5F4841 		.ascii	"__HA_IBIT__ 8\000"
 8746      5F494249 
 8746      545F5F20 
 8746      3800
 8747              	.LASF745:
 8748 4653 436F7265 		.ascii	"CoreDebug_DHCSR_S_SLEEP_Msk (1UL << CoreDebug_DHCSR"
 8748      44656275 
 8748      675F4448 
 8748      4353525F 
 8748      535F534C 
 8749 4686 5F535F53 		.ascii	"_S_SLEEP_Pos)\000"
 8749      4C454550 
 8749      5F506F73 
 8749      2900
 8750              	.LASF318:
 8751 4694 5F5F4743 		.ascii	"__GCC_ATOMIC_LLONG_LOCK_FREE 1\000"
 8751      435F4154 
ARM GAS  C:\Users\STUDENT\AppData\Local\Temp\cc6DO5vW.s 			page 208


 8751      4F4D4943 
 8751      5F4C4C4F 
 8751      4E475F4C 
 8752              	.LASF1011:
 8753 46b3 46494F53 		.ascii	"FIOSET\000"
 8753      455400
 8754              	.LASF858:
 8755 46ba 4C50435F 		.ascii	"LPC_GPIO1_BASE (LPC_GPIO_BASE + 0x00020)\000"
 8755      4750494F 
 8755      315F4241 
 8755      53452028 
 8755      4C50435F 
 8756              	.LASF1018:
 8757 46e3 46494F43 		.ascii	"FIOCLR\000"
 8757      4C5200
 8758              	.LASF684:
 8759 46ea 49544D5F 		.ascii	"ITM_LSR_ByteAcc_Pos 2\000"
 8759      4C53525F 
 8759      42797465 
 8759      4163635F 
 8759      506F7320 
 8760              	.LASF1048:
 8761 4700 46494F5F 		.ascii	"FIO_ByteGetPointer\000"
 8761      42797465 
 8761      47657450 
 8761      6F696E74 
 8761      657200
 8762              	.LASF98:
 8763 4713 5F5F494E 		.ascii	"__INT_LEAST64_MAX__ 0x7fffffffffffffffLL\000"
 8763      545F4C45 
 8763      41535436 
 8763      345F4D41 
 8763      585F5F20 
 8764              	.LASF41:
 8765 473c 5F5F494E 		.ascii	"__INT64_TYPE__ long long int\000"
 8765      5436345F 
 8765      54595045 
 8765      5F5F206C 
 8765      6F6E6720 
 8766              	.LASF411:
 8767 4759 73686F72 		.ascii	"short\000"
 8767      7400
 8768              	.LASF206:
 8769 475f 5F5F4C46 		.ascii	"__LFRACT_FBIT__ 31\000"
 8769      52414354 
 8769      5F464249 
 8769      545F5F20 
 8769      333100
 8770              	.LASF21:
 8771 4772 5F5F4348 		.ascii	"__CHAR_BIT__ 8\000"
 8771      41525F42 
 8771      49545F5F 
 8771      203800
 8772              	.LASF323:
 8773 4781 5F5F5349 		.ascii	"__SIZEOF_WCHAR_T__ 4\000"
 8773      5A454F46 
 8773      5F574348 
ARM GAS  C:\Users\STUDENT\AppData\Local\Temp\cc6DO5vW.s 			page 209


 8773      41525F54 
 8773      5F5F2034 
 8774              	.LASF633:
 8775 4796 5343425F 		.ascii	"SCB_DFSR_EXTERNAL_Msk (1UL << SCB_DFSR_EXTERNAL_Pos"
 8775      44465352 
 8775      5F455854 
 8775      45524E41 
 8775      4C5F4D73 
 8776 47c9 2900     		.ascii	")\000"
 8777              	.LASF386:
 8778 47cb 5F5F4253 		.ascii	"__BSD_VISIBLE 1\000"
 8778      445F5649 
 8778      5349424C 
 8778      45203100 
 8779              	.LASF470:
 8780 47db 494E545F 		.ascii	"INT_LEAST16_MIN (-__INT_LEAST16_MAX__ - 1)\000"
 8780      4C454153 
 8780      5431365F 
 8780      4D494E20 
 8780      282D5F5F 
 8781              	.LASF696:
 8782 4806 496E7454 		.ascii	"IntType_ACTLR_DISMCYCINT_Pos 0\000"
 8782      7970655F 
 8782      4143544C 
 8782      525F4449 
 8782      534D4359 
 8783              	.LASF460:
 8784 4825 55494E54 		.ascii	"UINTPTR_MAX (__UINTPTR_MAX__)\000"
 8784      5054525F 
 8784      4D415820 
 8784      285F5F55 
 8784      494E5450 
 8785              	.LASF791:
 8786 4843 49544D5F 		.ascii	"ITM_BASE (0xE0000000UL)\000"
 8786      42415345 
 8786      20283078 
 8786      45303030 
 8786      30303030 
 8787              	.LASF204:
 8788 485b 5F5F5546 		.ascii	"__UFRACT_MAX__ 0XFFFFP-16UR\000"
 8788      52414354 
 8788      5F4D4158 
 8788      5F5F2030 
 8788      58464646 
 8789              	.LASF671:
 8790 4877 49544D5F 		.ascii	"ITM_TCR_DWTENA_Msk (1UL << ITM_TCR_DWTENA_Pos)\000"
 8790      5443525F 
 8790      44575445 
 8790      4E415F4D 
 8790      736B2028 
 8791              	.LASF402:
 8792 48a6 5F5F5F69 		.ascii	"___int_least64_t_defined 1\000"
 8792      6E745F6C 
 8792      65617374 
 8792      36345F74 
 8792      5F646566 
 8793              	.LASF863:
ARM GAS  C:\Users\STUDENT\AppData\Local\Temp\cc6DO5vW.s 			page 210


 8794 48c1 4C50435F 		.ascii	"LPC_GPIO0 ((LPC_GPIO_TypeDef *) LPC_GPIO0_BASE )\000"
 8794      4750494F 
 8794      30202828 
 8794      4C50435F 
 8794      4750494F 
 8795              	.LASF1083:
 8796 48f2 49544D5F 		.ascii	"ITM_RxBuffer\000"
 8796      52784275 
 8796      66666572 
 8796      00
 8797              	.LASF553:
 8798 48ff 5343425F 		.ascii	"SCB_ICSR_RETTOBASE_Msk (1UL << SCB_ICSR_RETTOBASE_P"
 8798      49435352 
 8798      5F524554 
 8798      544F4241 
 8798      53455F4D 
 8799 4932 6F732900 		.ascii	"os)\000"
 8800              	.LASF187:
 8801 4936 5F5F5346 		.ascii	"__SFRACT_IBIT__ 0\000"
 8801      52414354 
 8801      5F494249 
 8801      545F5F20 
 8801      3000
 8802              	.LASF384:
 8803 4948 5F415446 		.ascii	"_ATFILE_SOURCE 1\000"
 8803      494C455F 
 8803      534F5552 
 8803      43452031 
 8803      00
 8804              	.LASF405:
 8805 4959 5F5F5354 		.ascii	"__STDINT_EXP(x) __ ##x ##__\000"
 8805      44494E54 
 8805      5F455850 
 8805      28782920 
 8805      5F5F2023 
 8806              	.LASF394:
 8807 4975 5F5F4558 		.ascii	"__EXP(x) __ ##x ##__\000"
 8807      50287829 
 8807      205F5F20 
 8807      23237820 
 8807      23235F5F 
 8808              	.LASF26:
 8809 498a 5F5F4259 		.ascii	"__BYTE_ORDER__ __ORDER_LITTLE_ENDIAN__\000"
 8809      54455F4F 
 8809      52444552 
 8809      5F5F205F 
 8809      5F4F5244 
 8810              	.LASF627:
 8811 49b1 5343425F 		.ascii	"SCB_HFSR_DEBUGEVT_Msk (1UL << SCB_HFSR_DEBUGEVT_Pos"
 8811      48465352 
 8811      5F444542 
 8811      55474556 
 8811      545F4D73 
 8812 49e4 2900     		.ascii	")\000"
 8813              	.LASF743:
 8814 49e6 436F7265 		.ascii	"CoreDebug_DHCSR_S_LOCKUP_Msk (1UL << CoreDebug_DHCS"
 8814      44656275 
ARM GAS  C:\Users\STUDENT\AppData\Local\Temp\cc6DO5vW.s 			page 211


 8814      675F4448 
 8814      4353525F 
 8814      535F4C4F 
 8815 4a19 525F535F 		.ascii	"R_S_LOCKUP_Pos)\000"
 8815      4C4F434B 
 8815      55505F50 
 8815      6F732900 
 8816              	.LASF842:
 8817 4a29 4C50435F 		.ascii	"LPC_RIT_BASE (LPC_APB1_BASE + 0x30000)\000"
 8817      5249545F 
 8817      42415345 
 8817      20284C50 
 8817      435F4150 
 8818              	.LASF749:
 8819 4a50 436F7265 		.ascii	"CoreDebug_DHCSR_S_REGRDY_Msk (1UL << CoreDebug_DHCS"
 8819      44656275 
 8819      675F4448 
 8819      4353525F 
 8819      535F5245 
 8820 4a83 525F535F 		.ascii	"R_S_REGRDY_Pos)\000"
 8820      52454752 
 8820      44595F50 
 8820      6F732900 
 8821              	.LASF936:
 8822 4a93 5F554152 		.ascii	"_UART 1\000"
 8822      54203100 
 8823              	.LASF391:
 8824 4a9b 5F5F504F 		.ascii	"__POSIX_VISIBLE 200809\000"
 8824      5349585F 
 8824      56495349 
 8824      424C4520 
 8824      32303038 
 8825              	.LASF882:
 8826 4ab2 4C50435F 		.ascii	"LPC_I2S ((LPC_I2S_TypeDef *) LPC_I2S_BASE )\000"
 8826      49325320 
 8826      28284C50 
 8826      435F4932 
 8826      535F5479 
 8827              	.LASF32:
 8828 4ade 5F5F5749 		.ascii	"__WINT_TYPE__ unsigned int\000"
 8828      4E545F54 
 8828      5950455F 
 8828      5F20756E 
 8828      7369676E 
 8829              	.LASF282:
 8830 4af9 5F5F5544 		.ascii	"__UDQ_FBIT__ 64\000"
 8830      515F4642 
 8830      49545F5F 
 8830      20363400 
 8831              	.LASF871:
 8832 4b09 4C50435F 		.ascii	"LPC_TIM2 ((LPC_TIM_TypeDef *) LPC_TIM2_BASE )\000"
 8832      54494D32 
 8832      2028284C 
 8832      50435F54 
 8832      494D5F54 
 8833              	.LASF455:
 8834 4b37 5F5F696E 		.ascii	"__int_fast16_t_defined 1\000"
ARM GAS  C:\Users\STUDENT\AppData\Local\Temp\cc6DO5vW.s 			page 212


 8834      745F6661 
 8834      73743136 
 8834      5F745F64 
 8834      6566696E 
 8835              	.LASF156:
 8836 4b50 5F5F4C44 		.ascii	"__LDBL_MAX_10_EXP__ 308\000"
 8836      424C5F4D 
 8836      41585F31 
 8836      305F4558 
 8836      505F5F20 
 8837              	.LASF927:
 8838 4b68 4750494F 		.ascii	"GPIO4_Byte ((GPIO_Byte_TypeDef *)(LPC_GPIO4_BASE))\000"
 8838      345F4279 
 8838      74652028 
 8838      28475049 
 8838      4F5F4279 
 8839              	.LASF606:
 8840 4b9b 5343425F 		.ascii	"SCB_SHCSR_SYSTICKACT_Pos 11\000"
 8840      53484353 
 8840      525F5359 
 8840      53544943 
 8840      4B414354 
 8841              	.LASF869:
 8842 4bb7 4C50435F 		.ascii	"LPC_TIM0 ((LPC_TIM_TypeDef *) LPC_TIM0_BASE )\000"
 8842      54494D30 
 8842      2028284C 
 8842      50435F54 
 8842      494D5F54 
 8843              	.LASF680:
 8844 4be5 49544D5F 		.ascii	"ITM_IRR_ATREADYM_Pos 0\000"
 8844      4952525F 
 8844      41545245 
 8844      4144594D 
 8844      5F506F73 
 8845              	.LASF480:
 8846 4bfc 494E5436 		.ascii	"INT64_MAX (__INT64_MAX__)\000"
 8846      345F4D41 
 8846      5820285F 
 8846      5F494E54 
 8846      36345F4D 
 8847              	.LASF544:
 8848 4c16 5343425F 		.ascii	"SCB_ICSR_PENDSTCLR_Pos 25\000"
 8848      49435352 
 8848      5F50454E 
 8848      44535443 
 8848      4C525F50 
 8849              	.LASF978:
 8850 4c30 756E7369 		.ascii	"unsigned int\000"
 8850      676E6564 
 8850      20696E74 
 8850      00
 8851              	.LASF199:
 8852 4c3d 5F5F4652 		.ascii	"__FRACT_MAX__ 0X7FFFP-15R\000"
 8852      4143545F 
 8852      4D41585F 
 8852      5F203058 
 8852      37464646 
ARM GAS  C:\Users\STUDENT\AppData\Local\Temp\cc6DO5vW.s 			page 213


 8853              	.LASF125:
 8854 4c57 5F5F464C 		.ascii	"__FLT_MIN_EXP__ (-125)\000"
 8854      545F4D49 
 8854      4E5F4558 
 8854      505F5F20 
 8854      282D3132 
 8855              	.LASF121:
 8856 4c6e 5F5F4445 		.ascii	"__DEC_EVAL_METHOD__ 2\000"
 8856      435F4556 
 8856      414C5F4D 
 8856      4554484F 
 8856      445F5F20 
 8857              	.LASF514:
 8858 4c84 55494E54 		.ascii	"UINT32_C(x) __UINT32_C(x)\000"
 8858      33325F43 
 8858      28782920 
 8858      5F5F5549 
 8858      4E543332 
 8859              	.LASF531:
 8860 4c9e 5343425F 		.ascii	"SCB_CPUID_VARIANT_Msk (0xFUL << SCB_CPUID_VARIANT_P"
 8860      43505549 
 8860      445F5641 
 8860      5249414E 
 8860      545F4D73 
 8861 4cd1 6F732900 		.ascii	"os)\000"
 8862              	.LASF232:
 8863 4cd5 5F5F5553 		.ascii	"__USACCUM_IBIT__ 8\000"
 8863      41434355 
 8863      4D5F4942 
 8863      49545F5F 
 8863      203800
 8864              	.LASF992:
 8865 4ce8 46494F4D 		.ascii	"FIOMASK0\000"
 8865      41534B30 
 8865      00
 8866              	.LASF993:
 8867 4cf1 46494F4D 		.ascii	"FIOMASK1\000"
 8867      41534B31 
 8867      00
 8868              	.LASF994:
 8869 4cfa 46494F4D 		.ascii	"FIOMASK2\000"
 8869      41534B32 
 8869      00
 8870              	.LASF995:
 8871 4d03 46494F4D 		.ascii	"FIOMASK3\000"
 8871      41534B33 
 8871      00
 8872              	.LASF769:
 8873 4d0c 436F7265 		.ascii	"CoreDebug_DEMCR_MON_STEP_Msk (1UL << CoreDebug_DEMC"
 8873      44656275 
 8873      675F4445 
 8873      4D43525F 
 8873      4D4F4E5F 
 8874 4d3f 525F4D4F 		.ascii	"R_MON_STEP_Pos)\000"
 8874      4E5F5354 
 8874      45505F50 
 8874      6F732900 
ARM GAS  C:\Users\STUDENT\AppData\Local\Temp\cc6DO5vW.s 			page 214


 8875              	.LASF297:
 8876 4d4f 5F5F5553 		.ascii	"__USA_IBIT__ 16\000"
 8876      415F4942 
 8876      49545F5F 
 8876      20313600 
 8877              	.LASF124:
 8878 4d5f 5F5F464C 		.ascii	"__FLT_DIG__ 6\000"
 8878      545F4449 
 8878      475F5F20 
 8878      3600
 8879              	.LASF34:
 8880 4d6d 5F5F5549 		.ascii	"__UINTMAX_TYPE__ long long unsigned int\000"
 8880      4E544D41 
 8880      585F5459 
 8880      50455F5F 
 8880      206C6F6E 
 8881              	.LASF1044:
 8882 4d95 46494F5F 		.ascii	"FIO_HalfWordGetPointer\000"
 8882      48616C66 
 8882      576F7264 
 8882      47657450 
 8882      6F696E74 
 8883              	.LASF1076:
 8884 4dac 46494F5F 		.ascii	"FIO_ByteSetMask\000"
 8884      42797465 
 8884      5365744D 
 8884      61736B00 
 8885              	.LASF489:
 8886 4dbc 494E545F 		.ascii	"INT_FAST16_MAX (__INT_FAST16_MAX__)\000"
 8886      46415354 
 8886      31365F4D 
 8886      41582028 
 8886      5F5F494E 
 8887              	.LASF808:
 8888 4de0 4C50435F 		.ascii	"LPC_AHBRAM0_BASE (0x2007C000UL)\000"
 8888      41484252 
 8888      414D305F 
 8888      42415345 
 8888      20283078 
 8889              	.LASF1014:
 8890 4e00 46494F43 		.ascii	"FIOCLR0\000"
 8890      4C523000 
 8891              	.LASF1015:
 8892 4e08 46494F43 		.ascii	"FIOCLR1\000"
 8892      4C523100 
 8893              	.LASF1016:
 8894 4e10 46494F43 		.ascii	"FIOCLR2\000"
 8894      4C523200 
 8895              	.LASF1017:
 8896 4e18 46494F43 		.ascii	"FIOCLR3\000"
 8896      4C523300 
 8897              	.LASF67:
 8898 4e20 5F5F5343 		.ascii	"__SCHAR_MAX__ 0x7f\000"
 8898      4841525F 
 8898      4D41585F 
 8898      5F203078 
 8898      376600
ARM GAS  C:\Users\STUDENT\AppData\Local\Temp\cc6DO5vW.s 			page 215


 8899              	.LASF802:
 8900 4e33 4D50555F 		.ascii	"MPU_BASE (SCS_BASE + 0x0D90UL)\000"
 8900      42415345 
 8900      20285343 
 8900      535F4241 
 8900      5345202B 
 8901              	.LASF991:
 8902 4e52 46494F4D 		.ascii	"FIOMASKH\000"
 8902      41534B48 
 8902      00
 8903              	.LASF990:
 8904 4e5b 46494F4D 		.ascii	"FIOMASKL\000"
 8904      41534B4C 
 8904      00
 8905              	.LASF276:
 8906 4e64 5F5F5551 		.ascii	"__UQQ_FBIT__ 8\000"
 8906      515F4642 
 8906      49545F5F 
 8906      203800
 8907              	.LASF653:
 8908 4e73 53797354 		.ascii	"SysTick_VAL_CURRENT_Msk (0xFFFFFFUL << SysTick_VAL_"
 8908      69636B5F 
 8908      56414C5F 
 8908      43555252 
 8908      454E545F 
 8909 4ea6 43555252 		.ascii	"CURRENT_Pos)\000"
 8909      454E545F 
 8909      506F7329 
 8909      00
 8910              	.LASF173:
 8911 4eb3 5F5F4445 		.ascii	"__DEC64_MIN_EXP__ (-382)\000"
 8911      4336345F 
 8911      4D494E5F 
 8911      4558505F 
 8911      5F20282D 
 8912              	.LASF1038:
 8913 4ecc 46494F4D 		.ascii	"FIOMASKU\000"
 8913      41534B55 
 8913      00
 8914              	.LASF958:
 8915 4ed5 5F555342 		.ascii	"_USBDEV 1\000"
 8915      44455620 
 8915      3100
 8916              	.LASF1013:
 8917 4edf 46494F43 		.ascii	"FIOCLRH\000"
 8917      4C524800 
 8918              	.LASF416:
 8919 4ee7 63686172 		.ascii	"char +0\000"
 8919      202B3000 
 8920              	.LASF1012:
 8921 4eef 46494F43 		.ascii	"FIOCLRL\000"
 8921      4C524C00 
 8922              	.LASF325:
 8923 4ef7 5F5F5349 		.ascii	"__SIZEOF_PTRDIFF_T__ 4\000"
 8923      5A454F46 
 8923      5F505452 
 8923      44494646 
ARM GAS  C:\Users\STUDENT\AppData\Local\Temp\cc6DO5vW.s 			page 216


 8923      5F545F5F 
 8924              	.LASF0:
 8925 4f0e 5F5F5354 		.ascii	"__STDC__ 1\000"
 8925      44435F5F 
 8925      203100
 8926              	.LASF1066:
 8927 4f19 46494F5F 		.ascii	"FIO_SetMask\000"
 8927      5365744D 
 8927      61736B00 
 8928              	.LASF350:
 8929 4f25 5F5F4152 		.ascii	"__ARM_FEATURE_IDIV 1\000"
 8929      4D5F4645 
 8929      41545552 
 8929      455F4944 
 8929      49562031 
 8930              	.LASF1041:
 8931 4f3a 46494F43 		.ascii	"FIOCLRU\000"
 8931      4C525500 
 8932              	.LASF42:
 8933 4f42 5F5F5549 		.ascii	"__UINT8_TYPE__ unsigned char\000"
 8933      4E54385F 
 8933      54595045 
 8933      5F5F2075 
 8933      6E736967 
 8934              	.LASF454:
 8935 4f5f 5F5F696E 		.ascii	"__int_fast8_t_defined 1\000"
 8935      745F6661 
 8935      7374385F 
 8935      745F6465 
 8935      66696E65 
 8936              	.LASF943:
 8937 4f77 5F535350 		.ascii	"_SSP0 1\000"
 8937      30203100 
 8938              	.LASF865:
 8939 4f7f 4C50435F 		.ascii	"LPC_GPIO2 ((LPC_GPIO_TypeDef *) LPC_GPIO2_BASE )\000"
 8939      4750494F 
 8939      32202828 
 8939      4C50435F 
 8939      4750494F 
 8940              	.LASF179:
 8941 4fb0 5F5F4445 		.ascii	"__DEC128_MANT_DIG__ 34\000"
 8941      43313238 
 8941      5F4D414E 
 8941      545F4449 
 8941      475F5F20 
 8942              	.LASF459:
 8943 4fc7 494E5450 		.ascii	"INTPTR_MAX (__INTPTR_MAX__)\000"
 8943      54525F4D 
 8943      41582028 
 8943      5F5F494E 
 8943      54505452 
 8944              	.LASF728:
 8945 4fe3 4D50555F 		.ascii	"MPU_RASR_B_Pos 16\000"
 8945      52415352 
 8945      5F425F50 
 8945      6F732031 
 8945      3600
ARM GAS  C:\Users\STUDENT\AppData\Local\Temp\cc6DO5vW.s 			page 217


 8946              	.LASF296:
 8947 4ff5 5F5F5553 		.ascii	"__USA_FBIT__ 16\000"
 8947      415F4642 
 8947      49545F5F 
 8947      20313600 
 8948              	.LASF628:
 8949 5005 5343425F 		.ascii	"SCB_HFSR_FORCED_Pos 30\000"
 8949      48465352 
 8949      5F464F52 
 8949      4345445F 
 8949      506F7320 
 8950              	.LASF154:
 8951 501c 5F5F4C44 		.ascii	"__LDBL_MIN_10_EXP__ (-307)\000"
 8951      424C5F4D 
 8951      494E5F31 
 8951      305F4558 
 8951      505F5F20 
 8952              	.LASF311:
 8953 5037 5F5F4743 		.ascii	"__GCC_ATOMIC_CHAR_LOCK_FREE 2\000"
 8953      435F4154 
 8953      4F4D4943 
 8953      5F434841 
 8953      525F4C4F 
 8954              	.LASF957:
 8955 5055 5F493253 		.ascii	"_I2S 1\000"
 8955      203100
 8956              	.LASF210:
 8957 505c 5F5F4C46 		.ascii	"__LFRACT_EPSILON__ 0x1P-31LR\000"
 8957      52414354 
 8957      5F455053 
 8957      494C4F4E 
 8957      5F5F2030 
 8958              	.LASF586:
 8959 5079 5343425F 		.ascii	"SCB_CCR_UNALIGN_TRP_Pos 3\000"
 8959      4343525F 
 8959      554E414C 
 8959      49474E5F 
 8959      5452505F 
 8960              	.LASF332:
 8961 5093 5F5F4152 		.ascii	"__ARM_SIZEOF_MINIMAL_ENUM 1\000"
 8961      4D5F5349 
 8961      5A454F46 
 8961      5F4D494E 
 8961      494D414C 
 8962              	.LASF765:
 8963 50af 436F7265 		.ascii	"CoreDebug_DEMCR_TRCENA_Msk (1UL << CoreDebug_DEMCR_"
 8963      44656275 
 8963      675F4445 
 8963      4D43525F 
 8963      54524345 
 8964 50e2 54524345 		.ascii	"TRCENA_Pos)\000"
 8964      4E415F50 
 8964      6F732900 
 8965              	.LASF599:
 8966 50ee 5343425F 		.ascii	"SCB_SHCSR_SVCALLPENDED_Msk (1UL << SCB_SHCSR_SVCALL"
 8966      53484353 
 8966      525F5356 
ARM GAS  C:\Users\STUDENT\AppData\Local\Temp\cc6DO5vW.s 			page 218


 8966      43414C4C 
 8966      50454E44 
 8967 5121 50454E44 		.ascii	"PENDED_Pos)\000"
 8967      45445F50 
 8967      6F732900 
 8968              	.LASF996:
 8969 512d 46494F44 		.ascii	"FIODIR\000"
 8969      495200
 8970              	.LASF335:
 8971 5134 5F5F6172 		.ascii	"__arm__ 1\000"
 8971      6D5F5F20 
 8971      3100
 8972              	.LASF523:
 8973 513e 5F5F434F 		.ascii	"__CORE_CMFUNC_H__ \000"
 8973      52455F43 
 8973      4D46554E 
 8973      435F485F 
 8973      5F2000
 8974              	.LASF638:
 8975 5151 5343425F 		.ascii	"SCB_DFSR_BKPT_Pos 1\000"
 8975      44465352 
 8975      5F424B50 
 8975      545F506F 
 8975      73203100 
 8976              	.LASF467:
 8977 5165 494E5431 		.ascii	"INT16_MIN (-__INT16_MAX__ - 1)\000"
 8977      365F4D49 
 8977      4E20282D 
 8977      5F5F494E 
 8977      5431365F 
 8978              	.LASF803:
 8979 5184 4D505520 		.ascii	"MPU ((MPU_Type*) MPU_BASE)\000"
 8979      28284D50 
 8979      555F5479 
 8979      70652A29 
 8979      204D5055 
 8980              	.LASF954:
 8981 519f 5F50574D 		.ascii	"_PWM 1\000"
 8981      203100
 8982              	.LASF794:
 8983 51a6 4E564943 		.ascii	"NVIC_BASE (SCS_BASE + 0x0100UL)\000"
 8983      5F424153 
 8983      45202853 
 8983      43535F42 
 8983      41534520 
 8984              	.LASF826:
 8985 51c6 4C50435F 		.ascii	"LPC_SSP1_BASE (LPC_APB0_BASE + 0x30000)\000"
 8985      53535031 
 8985      5F424153 
 8985      4520284C 
 8985      50435F41 
 8986              	.LASF165:
 8987 51ee 5F5F4445 		.ascii	"__DEC32_MANT_DIG__ 7\000"
 8987      4333325F 
 8987      4D414E54 
 8987      5F444947 
 8987      5F5F2037 
ARM GAS  C:\Users\STUDENT\AppData\Local\Temp\cc6DO5vW.s 			page 219


 8988              	.LASF290:
 8989 5203 5F5F4441 		.ascii	"__DA_FBIT__ 31\000"
 8989      5F464249 
 8989      545F5F20 
 8989      333100
 8990              	.LASF368:
 8991 5212 5F4D4143 		.ascii	"_MACHINE__DEFAULT_TYPES_H \000"
 8991      48494E45 
 8991      5F5F4445 
 8991      4641554C 
 8991      545F5459 
 8992              	.LASF22:
 8993 522d 5F5F4249 		.ascii	"__BIGGEST_ALIGNMENT__ 8\000"
 8993      47474553 
 8993      545F414C 
 8993      49474E4D 
 8993      454E545F 
 8994              	.LASF784:
 8995 5245 436F7265 		.ascii	"CoreDebug_DEMCR_VC_NOCPERR_Pos 5\000"
 8995      44656275 
 8995      675F4445 
 8995      4D43525F 
 8995      56435F4E 
 8996              	.LASF574:
 8997 5266 5343425F 		.ascii	"SCB_SCR_SEVONPEND_Pos 4\000"
 8997      5343525F 
 8997      5345564F 
 8997      4E50454E 
 8997      445F506F 
 8998              	.LASF929:
 8999 527e 4750494F 		.ascii	"GPIO1_HalfWord ((GPIO_HalfWord_TypeDef *)(LPC_GPIO1"
 8999      315F4861 
 8999      6C66576F 
 8999      72642028 
 8999      28475049 
 9000 52b1 5F424153 		.ascii	"_BASE))\000"
 9000      45292900 
 9001              	.LASF1046:
 9002 52b9 70475049 		.ascii	"pGPIO\000"
 9002      4F00
 9003              	.LASF434:
 9004 52bf 5F5F4C45 		.ascii	"__LEAST64 \"ll\"\000"
 9004      41535436 
 9004      3420226C 
 9004      6C2200
 9005              	.LASF652:
 9006 52ce 53797354 		.ascii	"SysTick_VAL_CURRENT_Pos 0\000"
 9006      69636B5F 
 9006      56414C5F 
 9006      43555252 
 9006      454E545F 
 9007              	.LASF944:
 9008 52e8 5F535350 		.ascii	"_SSP1 1\000"
 9008      31203100 
 9009              	.LASF716:
 9010 52f0 4D50555F 		.ascii	"MPU_RBAR_REGION_Pos 0\000"
 9010      52424152 
ARM GAS  C:\Users\STUDENT\AppData\Local\Temp\cc6DO5vW.s 			page 220


 9010      5F524547 
 9010      494F4E5F 
 9010      506F7320 
 9011              	.LASF811:
 9012 5306 4C50435F 		.ascii	"LPC_APB0_BASE (0x40000000UL)\000"
 9012      41504230 
 9012      5F424153 
 9012      45202830 
 9012      78343030 
 9013              	.LASF546:
 9014 5323 5343425F 		.ascii	"SCB_ICSR_ISRPREEMPT_Pos 23\000"
 9014      49435352 
 9014      5F495352 
 9014      50524545 
 9014      4D50545F 
 9015              	.LASF536:
 9016 533e 5343425F 		.ascii	"SCB_ICSR_NMIPENDSET_Pos 31\000"
 9016      49435352 
 9016      5F4E4D49 
 9016      50454E44 
 9016      5345545F 
 9017              	.LASF1033:
 9018 5359 44495341 		.ascii	"DISABLE\000"
 9018      424C4500 
 9019              	.LASF935:
 9020 5361 5F475049 		.ascii	"_GPIO 1\000"
 9020      4F203100 
 9021              	.LASF703:
 9022 5369 4D50555F 		.ascii	"MPU_TYPE_SEPARATE_Msk (1UL << MPU_TYPE_SEPARATE_Pos"
 9022      54595045 
 9022      5F534550 
 9022      41524154 
 9022      455F4D73 
 9023 539c 2900     		.ascii	")\000"
 9024              	.LASF340:
 9025 539e 5F5F4152 		.ascii	"__ARM_ARCH_ISA_THUMB 2\000"
 9025      4D5F4152 
 9025      43485F49 
 9025      53415F54 
 9025      48554D42 
 9026              	.LASF874:
 9027 53b5 4C50435F 		.ascii	"LPC_UART0 ((LPC_UART_TypeDef *) LPC_UART0_BASE )\000"
 9027      55415254 
 9027      30202828 
 9027      4C50435F 
 9027      55415254 
 9028              	.LASF71:
 9029 53e6 5F5F4C4F 		.ascii	"__LONG_LONG_MAX__ 0x7fffffffffffffffLL\000"
 9029      4E475F4C 
 9029      4F4E475F 
 9029      4D41585F 
 9029      5F203078 
 9030              	.LASF413:
 9031 540d 6C6F6E67 		.ascii	"long\000"
 9031      00
 9032              	.LASF1071:
 9033 5412 46494F5F 		.ascii	"FIO_HalfWordSetValue\000"
ARM GAS  C:\Users\STUDENT\AppData\Local\Temp\cc6DO5vW.s 			page 221


 9033      48616C66 
 9033      576F7264 
 9033      53657456 
 9033      616C7565 
 9034              	.LASF948:
 9035 5427 5F493243 		.ascii	"_I2C2 1\000"
 9035      32203100 
 9036              	.LASF772:
 9037 542f 436F7265 		.ascii	"CoreDebug_DEMCR_MON_EN_Pos 16\000"
 9037      44656275 
 9037      675F4445 
 9037      4D43525F 
 9037      4D4F4E5F 
 9038              	.LASF202:
 9039 544d 5F5F5546 		.ascii	"__UFRACT_IBIT__ 0\000"
 9039      52414354 
 9039      5F494249 
 9039      545F5F20 
 9039      3000
 9040              	.LASF329:
 9041 545f 5F5F4152 		.ascii	"__ARM_32BIT_STATE 1\000"
 9041      4D5F3332 
 9041      4249545F 
 9041      53544154 
 9041      45203100 
 9042              	.LASF93:
 9043 5473 5F5F494E 		.ascii	"__INT8_C(c) c\000"
 9043      54385F43 
 9043      28632920 
 9043      6300
 9044              	.LASF207:
 9045 5481 5F5F4C46 		.ascii	"__LFRACT_IBIT__ 0\000"
 9045      52414354 
 9045      5F494249 
 9045      545F5F20 
 9045      3000
 9046              	.LASF359:
 9047 5493 5F5F5665 		.ascii	"__Vendor_SysTickConfig 0\000"
 9047      6E646F72 
 9047      5F537973 
 9047      5469636B 
 9047      436F6E66 
 9048              	.LASF535:
 9049 54ac 5343425F 		.ascii	"SCB_CPUID_REVISION_Msk (0xFUL << SCB_CPUID_REVISION"
 9049      43505549 
 9049      445F5245 
 9049      56495349 
 9049      4F4E5F4D 
 9050 54df 5F506F73 		.ascii	"_Pos)\000"
 9050      2900
 9051              	.LASF965:
 9052 54e5 43484543 		.ascii	"CHECK_PARAM(expr) ((expr) ? (void)0 : check_failed("
 9052      4B5F5041 
 9052      52414D28 
 9052      65787072 
 9052      29202828 
 9053 5518 2875696E 		.ascii	"(uint8_t *)__FILE__, __LINE__))\000"
ARM GAS  C:\Users\STUDENT\AppData\Local\Temp\cc6DO5vW.s 			page 222


 9053      74385F74 
 9053      202A295F 
 9053      5F46494C 
 9053      455F5F2C 
 9054              	.LASF139:
 9055 5538 5F5F4442 		.ascii	"__DBL_MIN_EXP__ (-1021)\000"
 9055      4C5F4D49 
 9055      4E5F4558 
 9055      505F5F20 
 9055      282D3130 
 9056              	.LASF875:
 9057 5550 4C50435F 		.ascii	"LPC_UART1 ((LPC_UART1_TypeDef *) LPC_UART1_BASE )\000"
 9057      55415254 
 9057      31202828 
 9057      4C50435F 
 9057      55415254 
 9058              	.LASF1034:
 9059 5582 454E4142 		.ascii	"ENABLE\000"
 9059      4C4500
 9060              	.LASF673:
 9061 5589 49544D5F 		.ascii	"ITM_TCR_SYNCENA_Msk (1UL << ITM_TCR_SYNCENA_Pos)\000"
 9061      5443525F 
 9061      53594E43 
 9061      454E415F 
 9061      4D736B20 
 9062              	.LASF931:
 9063 55ba 4750494F 		.ascii	"GPIO3_HalfWord ((GPIO_HalfWord_TypeDef *)(LPC_GPIO3"
 9063      335F4861 
 9063      6C66576F 
 9063      72642028 
 9063      28475049 
 9064 55ed 5F424153 		.ascii	"_BASE))\000"
 9064      45292900 
 9065              	.LASF883:
 9066 55f5 4C50435F 		.ascii	"LPC_SPI ((LPC_SPI_TypeDef *) LPC_SPI_BASE )\000"
 9066      53504920 
 9066      28284C50 
 9066      435F5350 
 9066      495F5479 
 9067              	.LASF670:
 9068 5621 49544D5F 		.ascii	"ITM_TCR_DWTENA_Pos 3\000"
 9068      5443525F 
 9068      44575445 
 9068      4E415F50 
 9068      6F732033 
 9069              	.LASF843:
 9070 5636 4C50435F 		.ascii	"LPC_MCPWM_BASE (LPC_APB1_BASE + 0x38000)\000"
 9070      4D435057 
 9070      4D5F4241 
 9070      53452028 
 9070      4C50435F 
 9071              	.LASF518:
 9072 565f 55494E54 		.ascii	"UINTMAX_C(x) __UINTMAX_C(x)\000"
 9072      4D41585F 
 9072      43287829 
 9072      205F5F55 
 9072      494E544D 
ARM GAS  C:\Users\STUDENT\AppData\Local\Temp\cc6DO5vW.s 			page 223


 9073              	.LASF390:
 9074 567b 5F5F4D49 		.ascii	"__MISC_VISIBLE 1\000"
 9074      53435F56 
 9074      49534942 
 9074      4C452031 
 9074      00
 9075              	.LASF403:
 9076 568c 5F5F4558 		.ascii	"__EXP\000"
 9076      5000
 9077              	.LASF398:
 9078 5692 5F5F5F69 		.ascii	"___int64_t_defined 1\000"
 9078      6E743634 
 9078      5F745F64 
 9078      6566696E 
 9078      65642031 
 9079              	.LASF162:
 9080 56a7 5F5F4C44 		.ascii	"__LDBL_HAS_DENORM__ 1\000"
 9080      424C5F48 
 9080      41535F44 
 9080      454E4F52 
 9080      4D5F5F20 
 9081              	.LASF309:
 9082 56bd 5F5F4743 		.ascii	"__GCC_HAVE_SYNC_COMPARE_AND_SWAP_4 1\000"
 9082      435F4841 
 9082      56455F53 
 9082      594E435F 
 9082      434F4D50 
 9083              	.LASF899:
 9084 56e2 4C50435F 		.ascii	"LPC_GPDMA ((LPC_GPDMA_TypeDef *) LPC_GPDMA_BASE )\000"
 9084      4750444D 
 9084      41202828 
 9084      4C50435F 
 9084      4750444D 
 9085              	.LASF107:
 9086 5714 5F5F5549 		.ascii	"__UINT64_C(c) c ## ULL\000"
 9086      4E543634 
 9086      5F432863 
 9086      29206320 
 9086      23232055 
 9087              	.LASF635:
 9088 572b 5343425F 		.ascii	"SCB_DFSR_VCATCH_Msk (1UL << SCB_DFSR_VCATCH_Pos)\000"
 9088      44465352 
 9088      5F564341 
 9088      5443485F 
 9088      4D736B20 
 9089              	.LASF659:
 9090 575c 53797354 		.ascii	"SysTick_CALIB_TENMS_Msk (0xFFFFFFUL << SysTick_VAL_"
 9090      69636B5F 
 9090      43414C49 
 9090      425F5445 
 9090      4E4D535F 
 9091 578f 43555252 		.ascii	"CURRENT_Pos)\000"
 9091      454E545F 
 9091      506F7329 
 9091      00
 9092              	.LASF942:
 9093 579c 5F535350 		.ascii	"_SSP 1\000"
ARM GAS  C:\Users\STUDENT\AppData\Local\Temp\cc6DO5vW.s 			page 224


 9093      203100
 9094              	.LASF806:
 9095 57a3 4C50435F 		.ascii	"LPC_FLASH_BASE (0x00000000UL)\000"
 9095      464C4153 
 9095      485F4241 
 9095      53452028 
 9095      30783030 
 9096              	.LASF729:
 9097 57c1 4D50555F 		.ascii	"MPU_RASR_B_Msk (1UL << MPU_RASR_B_Pos)\000"
 9097      52415352 
 9097      5F425F4D 
 9097      736B2028 
 9097      31554C20 
 9098              	.LASF48:
 9099 57e8 5F5F494E 		.ascii	"__INT_LEAST32_TYPE__ long int\000"
 9099      545F4C45 
 9099      41535433 
 9099      325F5459 
 9099      50455F5F 
 9100              	.LASF639:
 9101 5806 5343425F 		.ascii	"SCB_DFSR_BKPT_Msk (1UL << SCB_DFSR_BKPT_Pos)\000"
 9101      44465352 
 9101      5F424B50 
 9101      545F4D73 
 9101      6B202831 
 9102              	.LASF838:
 9103 5833 4C50435F 		.ascii	"LPC_UART2_BASE (LPC_APB1_BASE + 0x18000)\000"
 9103      55415254 
 9103      325F4241 
 9103      53452028 
 9103      4C50435F 
 9104              	.LASF698:
 9105 585c 4D50555F 		.ascii	"MPU_TYPE_IREGION_Pos 16\000"
 9105      54595045 
 9105      5F495245 
 9105      47494F4E 
 9105      5F506F73 
 9106              	.LASF836:
 9107 5874 4C50435F 		.ascii	"LPC_TIM2_BASE (LPC_APB1_BASE + 0x10000)\000"
 9107      54494D32 
 9107      5F424153 
 9107      4520284C 
 9107      50435F41 
 9108              	.LASF851:
 9109 589c 4C50435F 		.ascii	"LPC_GPDMACH3_BASE (LPC_AHB_BASE + 0x04160)\000"
 9109      4750444D 
 9109      41434833 
 9109      5F424153 
 9109      4520284C 
 9110              	.LASF106:
 9111 58c7 5F5F5549 		.ascii	"__UINT_LEAST64_MAX__ 0xffffffffffffffffULL\000"
 9111      4E545F4C 
 9111      45415354 
 9111      36345F4D 
 9111      41585F5F 
 9112              	.LASF115:
 9113 58f2 5F5F5549 		.ascii	"__UINT_FAST64_MAX__ 0xffffffffffffffffULL\000"
ARM GAS  C:\Users\STUDENT\AppData\Local\Temp\cc6DO5vW.s 			page 225


 9113      4E545F46 
 9113      41535436 
 9113      345F4D41 
 9113      585F5F20 
 9114              	.LASF1035:
 9115 591c 46756E63 		.ascii	"FunctionalState\000"
 9115      74696F6E 
 9115      616C5374 
 9115      61746500 
 9116              	.LASF374:
 9117 592c 5F5F4E45 		.ascii	"__NEWLIB_PATCHLEVEL__ 0\000"
 9117      574C4942 
 9117      5F504154 
 9117      43484C45 
 9117      56454C5F 
 9118              	.LASF938:
 9119 5944 5F554152 		.ascii	"_UART1 1\000"
 9119      54312031 
 9119      00
 9120              	.LASF23:
 9121 594d 5F5F4F52 		.ascii	"__ORDER_LITTLE_ENDIAN__ 1234\000"
 9121      4445525F 
 9121      4C495454 
 9121      4C455F45 
 9121      4E444941 
 9122              	.LASF626:
 9123 596a 5343425F 		.ascii	"SCB_HFSR_DEBUGEVT_Pos 31\000"
 9123      48465352 
 9123      5F444542 
 9123      55474556 
 9123      545F506F 
 9124              	.LASF361:
 9125 5983 5F5F434D 		.ascii	"__CM3_CMSIS_VERSION_MAIN (0x02)\000"
 9125      335F434D 
 9125      5349535F 
 9125      56455253 
 9125      494F4E5F 
 9126              	.LASF172:
 9127 59a3 5F5F4445 		.ascii	"__DEC64_MANT_DIG__ 16\000"
 9127      4336345F 
 9127      4D414E54 
 9127      5F444947 
 9127      5F5F2031 
 9128              	.LASF977:
 9129 59b9 6C6F6E67 		.ascii	"long long unsigned int\000"
 9129      206C6F6E 
 9129      6720756E 
 9129      7369676E 
 9129      65642069 
 9130              	.LASF484:
 9131 59d0 55494E54 		.ascii	"UINT_LEAST64_MAX (__UINT_LEAST64_MAX__)\000"
 9131      5F4C4541 
 9131      53543634 
 9131      5F4D4158 
 9131      20285F5F 
 9132              	.LASF602:
 9133 59f8 5343425F 		.ascii	"SCB_SHCSR_MEMFAULTPENDED_Pos 13\000"
ARM GAS  C:\Users\STUDENT\AppData\Local\Temp\cc6DO5vW.s 			page 226


 9133      53484353 
 9133      525F4D45 
 9133      4D464155 
 9133      4C545045 
 9134              	.LASF734:
 9135 5a18 4D50555F 		.ascii	"MPU_RASR_ENA_Pos 0\000"
 9135      52415352 
 9135      5F454E41 
 9135      5F506F73 
 9135      203000
 9136              	.LASF252:
 9137 5a2b 5F5F554C 		.ascii	"__ULACCUM_IBIT__ 32\000"
 9137      41434355 
 9137      4D5F4942 
 9137      49545F5F 
 9137      20333200 
 9138              	.LASF68:
 9139 5a3f 5F5F5348 		.ascii	"__SHRT_MAX__ 0x7fff\000"
 9139      52545F4D 
 9139      41585F5F 
 9139      20307837 
 9139      66666600 
 9140              	.LASF487:
 9141 5a53 55494E54 		.ascii	"UINT_FAST8_MAX (__UINT_FAST8_MAX__)\000"
 9141      5F464153 
 9141      54385F4D 
 9141      41582028 
 9141      5F5F5549 
 9142              	.LASF30:
 9143 5a77 5F5F5054 		.ascii	"__PTRDIFF_TYPE__ int\000"
 9143      52444946 
 9143      465F5459 
 9143      50455F5F 
 9143      20696E74 
 9144              	.LASF741:
 9145 5a8c 436F7265 		.ascii	"CoreDebug_DHCSR_S_RETIRE_ST_Msk (1UL << CoreDebug_D"
 9145      44656275 
 9145      675F4448 
 9145      4353525F 
 9145      535F5245 
 9146 5abf 48435352 		.ascii	"HCSR_S_RETIRE_ST_Pos)\000"
 9146      5F535F52 
 9146      45544952 
 9146      455F5354 
 9146      5F506F73 
 9147              	.LASF337:
 9148 5ad5 5F5F4150 		.ascii	"__APCS_32__ 1\000"
 9148      43535F33 
 9148      325F5F20 
 9148      3100
 9149              	.LASF74:
 9150 5ae3 5F5F5749 		.ascii	"__WINT_MAX__ 0xffffffffU\000"
 9150      4E545F4D 
 9150      41585F5F 
 9150      20307866 
 9150      66666666 
 9151              	.LASF387:
ARM GAS  C:\Users\STUDENT\AppData\Local\Temp\cc6DO5vW.s 			page 227


 9152 5afc 5F5F474E 		.ascii	"__GNU_VISIBLE 0\000"
 9152      555F5649 
 9152      5349424C 
 9152      45203000 
 9153              	.LASF980:
 9154 5b0c 75696E74 		.ascii	"uint16_t\000"
 9154      31365F74 
 9154      00
 9155              	.LASF272:
 9156 5b15 5F5F4451 		.ascii	"__DQ_FBIT__ 63\000"
 9156      5F464249 
 9156      545F5F20 
 9156      363300
 9157              	.LASF279:
 9158 5b24 5F5F5548 		.ascii	"__UHQ_IBIT__ 0\000"
 9158      515F4942 
 9158      49545F5F 
 9158      203000
 9159              	.LASF911:
 9160 5b33 50415241 		.ascii	"PARAM_SETSTATE(State) ((State==RESET) || (State==SE"
 9160      4D5F5345 
 9160      54535441 
 9160      54452853 
 9160      74617465 
 9161 5b66 54292900 		.ascii	"T))\000"
 9162              	.LASF840:
 9163 5b6a 4C50435F 		.ascii	"LPC_I2C2_BASE (LPC_APB1_BASE + 0x20000)\000"
 9163      49324332 
 9163      5F424153 
 9163      4520284C 
 9163      50435F41 
 9164              	.LASF625:
 9165 5b92 5343425F 		.ascii	"SCB_CFSR_MEMFAULTSR_Msk (0xFFUL << SCB_CFSR_MEMFAUL"
 9165      43465352 
 9165      5F4D454D 
 9165      4641554C 
 9165      5453525F 
 9166 5bc5 5453525F 		.ascii	"TSR_Pos)\000"
 9166      506F7329 
 9166      00
 9167              	.LASF55:
 9168 5bce 5F5F494E 		.ascii	"__INT_FAST16_TYPE__ int\000"
 9168      545F4641 
 9168      53543136 
 9168      5F545950 
 9168      455F5F20 
 9169              	.LASF870:
 9170 5be6 4C50435F 		.ascii	"LPC_TIM1 ((LPC_TIM_TypeDef *) LPC_TIM1_BASE )\000"
 9170      54494D31 
 9170      2028284C 
 9170      50435F54 
 9170      494D5F54 
 9171              	.LASF619:
 9172 5c14 5343425F 		.ascii	"SCB_SHCSR_MEMFAULTACT_Msk (1UL << SCB_SHCSR_MEMFAUL"
 9172      53484353 
 9172      525F4D45 
 9172      4D464155 
ARM GAS  C:\Users\STUDENT\AppData\Local\Temp\cc6DO5vW.s 			page 228


 9172      4C544143 
 9173 5c47 54414354 		.ascii	"TACT_Pos)\000"
 9173      5F506F73 
 9173      2900
 9174              	.LASF228:
 9175 5c51 5F5F5341 		.ascii	"__SACCUM_MIN__ (-0X1P7HK-0X1P7HK)\000"
 9175      4343554D 
 9175      5F4D494E 
 9175      5F5F2028 
 9175      2D305831 
 9176              	.LASF214:
 9177 5c73 5F5F554C 		.ascii	"__ULFRACT_MAX__ 0XFFFFFFFFP-32ULR\000"
 9177      46524143 
 9177      545F4D41 
 9177      585F5F20 
 9177      30584646 
 9178              	.LASF1004:
 9179 5c95 46494F50 		.ascii	"FIOPIN\000"
 9179      494E00
 9180              	.LASF582:
 9181 5c9c 5343425F 		.ascii	"SCB_CCR_BFHFNMIGN_Pos 8\000"
 9181      4343525F 
 9181      42464846 
 9181      4E4D4947 
 9181      4E5F506F 
 9182              	.LASF249:
 9183 5cb4 5F5F4C41 		.ascii	"__LACCUM_MAX__ 0X7FFFFFFFFFFFFFFFP-31LK\000"
 9183      4343554D 
 9183      5F4D4158 
 9183      5F5F2030 
 9183      58374646 
 9184              	.LASF35:
 9185 5cdc 5F5F4348 		.ascii	"__CHAR16_TYPE__ short unsigned int\000"
 9185      41523136 
 9185      5F545950 
 9185      455F5F20 
 9185      73686F72 
 9186              	.LASF583:
 9187 5cff 5343425F 		.ascii	"SCB_CCR_BFHFNMIGN_Msk (1UL << SCB_CCR_BFHFNMIGN_Pos"
 9187      4343525F 
 9187      42464846 
 9187      4E4D4947 
 9187      4E5F4D73 
 9188 5d32 2900     		.ascii	")\000"
 9189              	.LASF795:
 9190 5d34 5343425F 		.ascii	"SCB_BASE (SCS_BASE + 0x0D00UL)\000"
 9190      42415345 
 9190      20285343 
 9190      535F4241 
 9190      5345202B 
 9191              	.LASF879:
 9192 5d53 4C50435F 		.ascii	"LPC_I2C0 ((LPC_I2C_TypeDef *) LPC_I2C0_BASE )\000"
 9192      49324330 
 9192      2028284C 
 9192      50435F49 
 9192      32435F54 
 9193              	.LASF760:
ARM GAS  C:\Users\STUDENT\AppData\Local\Temp\cc6DO5vW.s 			page 229


 9194 5d81 436F7265 		.ascii	"CoreDebug_DCRSR_REGWnR_Pos 16\000"
 9194      44656275 
 9194      675F4443 
 9194      5253525F 
 9194      52454757 
 9195              	.LASF284:
 9196 5d9f 5F5F5554 		.ascii	"__UTQ_FBIT__ 128\000"
 9196      515F4642 
 9196      49545F5F 
 9196      20313238 
 9196      00
 9197              	.LASF721:
 9198 5db0 4D50555F 		.ascii	"MPU_RASR_AP_Msk (7UL << MPU_RASR_AP_Pos)\000"
 9198      52415352 
 9198      5F41505F 
 9198      4D736B20 
 9198      2837554C 
 9199              	.LASF595:
 9200 5dd9 5343425F 		.ascii	"SCB_SHCSR_BUSFAULTENA_Msk (1UL << SCB_SHCSR_BUSFAUL"
 9200      53484353 
 9200      525F4255 
 9200      53464155 
 9200      4C54454E 
 9201 5e0c 54454E41 		.ascii	"TENA_Pos)\000"
 9201      5F506F73 
 9201      2900
 9202              	.LASF820:
 9203 5e16 4C50435F 		.ascii	"LPC_PWM1_BASE (LPC_APB0_BASE + 0x18000)\000"
 9203      50574D31 
 9203      5F424153 
 9203      4520284C 
 9203      50435F41 
 9204              	.LASF260:
 9205 5e3e 5F5F4C4C 		.ascii	"__LLACCUM_EPSILON__ 0x1P-31LLK\000"
 9205      41434355 
 9205      4D5F4550 
 9205      53494C4F 
 9205      4E5F5F20 
 9206              	.LASF12:
 9207 5e5d 5F5F4649 		.ascii	"__FINITE_MATH_ONLY__ 0\000"
 9207      4E495445 
 9207      5F4D4154 
 9207      485F4F4E 
 9207      4C595F5F 
 9208              	.LASF584:
 9209 5e74 5343425F 		.ascii	"SCB_CCR_DIV_0_TRP_Pos 4\000"
 9209      4343525F 
 9209      4449565F 
 9209      305F5452 
 9209      505F506F 
 9210              	.LASF109:
 9211 5e8c 5F5F494E 		.ascii	"__INT_FAST16_MAX__ 0x7fffffff\000"
 9211      545F4641 
 9211      53543136 
 9211      5F4D4158 
 9211      5F5F2030 
 9212              	.LASF406:
ARM GAS  C:\Users\STUDENT\AppData\Local\Temp\cc6DO5vW.s 			page 230


 9213 5eaa 5F5F6861 		.ascii	"__have_longlong64 1\000"
 9213      76655F6C 
 9213      6F6E676C 
 9213      6F6E6736 
 9213      34203100 
 9214              	.LASF528:
 9215 5ebe 5343425F 		.ascii	"SCB_CPUID_IMPLEMENTER_Pos 24\000"
 9215      43505549 
 9215      445F494D 
 9215      504C454D 
 9215      454E5445 
 9216              	.LASF686:
 9217 5edb 49544D5F 		.ascii	"ITM_LSR_Access_Pos 1\000"
 9217      4C53525F 
 9217      41636365 
 9217      73735F50 
 9217      6F732031 
 9218              	.LASF742:
 9219 5ef0 436F7265 		.ascii	"CoreDebug_DHCSR_S_LOCKUP_Pos 19\000"
 9219      44656275 
 9219      675F4448 
 9219      4353525F 
 9219      535F4C4F 
 9220              	.LASF815:
 9221 5f10 4C50435F 		.ascii	"LPC_WDT_BASE (LPC_APB0_BASE + 0x00000)\000"
 9221      5744545F 
 9221      42415345 
 9221      20284C50 
 9221      435F4150 
 9222              	.LASF449:
 9223 5f37 5F55494E 		.ascii	"_UINTPTR_T_DECLARED \000"
 9223      54505452 
 9223      5F545F44 
 9223      45434C41 
 9223      52454420 
 9224              	.LASF862:
 9225 5f4c 4C50435F 		.ascii	"LPC_SC ((LPC_SC_TypeDef *) LPC_SC_BASE )\000"
 9225      53432028 
 9225      284C5043 
 9225      5F53435F 
 9225      54797065 
 9226              	.LASF612:
 9227 5f75 5343425F 		.ascii	"SCB_SHCSR_SVCALLACT_Pos 7\000"
 9227      53484353 
 9227      525F5356 
 9227      43414C4C 
 9227      4143545F 
 9228              	.LASF254:
 9229 5f8f 5F5F554C 		.ascii	"__ULACCUM_MAX__ 0XFFFFFFFFFFFFFFFFP-32ULK\000"
 9229      41434355 
 9229      4D5F4D41 
 9229      585F5F20 
 9229      30584646 
 9230              	.LASF213:
 9231 5fb9 5F5F554C 		.ascii	"__ULFRACT_MIN__ 0.0ULR\000"
 9231      46524143 
 9231      545F4D49 
ARM GAS  C:\Users\STUDENT\AppData\Local\Temp\cc6DO5vW.s 			page 231


 9231      4E5F5F20 
 9231      302E3055 
 9232              	.LASF500:
 9233 5fd0 53495A45 		.ascii	"SIZE_MAX (__SIZE_MAX__)\000"
 9233      5F4D4158 
 9233      20285F5F 
 9233      53495A45 
 9233      5F4D4158 
 9234              	.LASF953:
 9235 5fe8 5F414443 		.ascii	"_ADC 1\000"
 9235      203100
 9236              	.LASF273:
 9237 5fef 5F5F4451 		.ascii	"__DQ_IBIT__ 0\000"
 9237      5F494249 
 9237      545F5F20 
 9237      3000
 9238              	.LASF604:
 9239 5ffd 5343425F 		.ascii	"SCB_SHCSR_USGFAULTPENDED_Pos 12\000"
 9239      53484353 
 9239      525F5553 
 9239      47464155 
 9239      4C545045 
 9240              	.LASF950:
 9241 601d 5F574454 		.ascii	"_WDT 1\000"
 9241      203100
 9242              	.LASF530:
 9243 6024 5343425F 		.ascii	"SCB_CPUID_VARIANT_Pos 20\000"
 9243      43505549 
 9243      445F5641 
 9243      5249414E 
 9243      545F506F 
 9244              	.LASF796:
 9245 603d 496E7465 		.ascii	"InterruptType ((InterruptType_Type *) SCS_BASE)\000"
 9245      72727570 
 9245      74547970 
 9245      65202828 
 9245      496E7465 
 9246              	.LASF782:
 9247 606d 436F7265 		.ascii	"CoreDebug_DEMCR_VC_CHKERR_Pos 6\000"
 9247      44656275 
 9247      675F4445 
 9247      4D43525F 
 9247      56435F43 
 9248              	.LASF925:
 9249 608d 4750494F 		.ascii	"GPIO2_Byte ((GPIO_Byte_TypeDef *)(LPC_GPIO2_BASE))\000"
 9249      325F4279 
 9249      74652028 
 9249      28475049 
 9249      4F5F4279 
 9250              	.LASF445:
 9251 60c0 5F494E54 		.ascii	"_INT64_T_DECLARED \000"
 9251      36345F54 
 9251      5F444543 
 9251      4C415245 
 9251      442000
 9252              	.LASF1028:
 9253 60d3 494F3249 		.ascii	"IO2IntStatF\000"
ARM GAS  C:\Users\STUDENT\AppData\Local\Temp\cc6DO5vW.s 			page 232


 9253      6E745374 
 9253      61744600 
 9254              	.LASF593:
 9255 60df 5343425F 		.ascii	"SCB_SHCSR_USGFAULTENA_Msk (1UL << SCB_SHCSR_USGFAUL"
 9255      53484353 
 9255      525F5553 
 9255      47464155 
 9255      4C54454E 
 9256 6112 54454E41 		.ascii	"TENA_Pos)\000"
 9256      5F506F73 
 9256      2900
 9257              	.LASF647:
 9258 611c 53797354 		.ascii	"SysTick_CTRL_TICKINT_Msk (1UL << SysTick_CTRL_TICKI"
 9258      69636B5F 
 9258      4354524C 
 9258      5F544943 
 9258      4B494E54 
 9259 614f 4E545F50 		.ascii	"NT_Pos)\000"
 9259      6F732900 
 9260              	.LASF1027:
 9261 6157 494F3249 		.ascii	"IO2IntStatR\000"
 9261      6E745374 
 9261      61745200 
 9262              	.LASF285:
 9263 6163 5F5F5554 		.ascii	"__UTQ_IBIT__ 0\000"
 9263      515F4942 
 9263      49545F5F 
 9263      203000
 9264              	.LASF288:
 9265 6172 5F5F5341 		.ascii	"__SA_FBIT__ 15\000"
 9265      5F464249 
 9265      545F5F20 
 9265      313500
 9266              	.LASF829:
 9267 6181 4C50435F 		.ascii	"LPC_CANAF_BASE (LPC_APB0_BASE + 0x3C000)\000"
 9267      43414E41 
 9267      465F4241 
 9267      53452028 
 9267      4C50435F 
 9268              	.LASF847:
 9269 61aa 4C50435F 		.ascii	"LPC_GPDMA_BASE (LPC_AHB_BASE + 0x04000)\000"
 9269      4750444D 
 9269      415F4241 
 9269      53452028 
 9269      4C50435F 
 9270              	.LASF348:
 9271 61d2 5F5F4152 		.ascii	"__ARM_EABI__ 1\000"
 9271      4D5F4541 
 9271      42495F5F 
 9271      203100
 9272              	.LASF353:
 9273 61e1 5F5F454C 		.ascii	"__ELF__ 1\000"
 9273      465F5F20 
 9273      3100
 9274              	.LASF473:
 9275 61eb 494E5433 		.ascii	"INT32_MIN (-__INT32_MAX__ - 1)\000"
 9275      325F4D49 
ARM GAS  C:\Users\STUDENT\AppData\Local\Temp\cc6DO5vW.s 			page 233


 9275      4E20282D 
 9275      5F5F494E 
 9275      5433325F 
 9276              	.LASF342:
 9277 620a 5F5F5448 		.ascii	"__THUMBEL__ 1\000"
 9277      554D4245 
 9277      4C5F5F20 
 9277      3100
 9278              	.LASF600:
 9279 6218 5343425F 		.ascii	"SCB_SHCSR_BUSFAULTPENDED_Pos 14\000"
 9279      53484353 
 9279      525F4255 
 9279      53464155 
 9279      4C545045 
 9280              	.LASF861:
 9281 6238 4C50435F 		.ascii	"LPC_GPIO4_BASE (LPC_GPIO_BASE + 0x00080)\000"
 9281      4750494F 
 9281      345F4241 
 9281      53452028 
 9281      4C50435F 
 9282              	.LASF267:
 9283 6261 5F5F5151 		.ascii	"__QQ_IBIT__ 0\000"
 9283      5F494249 
 9283      545F5F20 
 9283      3000
 9284              	.LASF906:
 9285 626f 4C50435F 		.ascii	"LPC_GPDMACH5 ((LPC_GPDMACH_TypeDef *) LPC_GPDMACH5_"
 9285      4750444D 
 9285      41434835 
 9285      2028284C 
 9285      50435F47 
 9286 62a2 42415345 		.ascii	"BASE )\000"
 9286      202900
 9287              	.LASF905:
 9288 62a9 4C50435F 		.ascii	"LPC_GPDMACH4 ((LPC_GPDMACH_TypeDef *) LPC_GPDMACH4_"
 9288      4750444D 
 9288      41434834 
 9288      2028284C 
 9288      50435F47 
 9289 62dc 42415345 		.ascii	"BASE )\000"
 9289      202900
 9290              	.LASF732:
 9291 62e3 4D50555F 		.ascii	"MPU_RASR_SIZE_Pos 1\000"
 9291      52415352 
 9291      5F53495A 
 9291      455F506F 
 9291      73203100 
 9292              	.LASF516:
 9293 62f7 55494E54 		.ascii	"UINT64_C(x) __UINT64_C(x)\000"
 9293      36345F43 
 9293      28782920 
 9293      5F5F5549 
 9293      4E543634 
 9294              	.LASF256:
 9295 6311 5F5F4C4C 		.ascii	"__LLACCUM_FBIT__ 31\000"
 9295      41434355 
 9295      4D5F4642 
ARM GAS  C:\Users\STUDENT\AppData\Local\Temp\cc6DO5vW.s 			page 234


 9295      49545F5F 
 9295      20333100 
 9296              	.LASF933:
 9297 6325 4C504331 		.ascii	"LPC17XX_LIBCFG_DEFAULT_H_ \000"
 9297      3758585F 
 9297      4C494243 
 9297      46475F44 
 9297      45464155 
 9298              	.LASF466:
 9299 6340 55494E54 		.ascii	"UINT_LEAST8_MAX (__UINT_LEAST8_MAX__)\000"
 9299      5F4C4541 
 9299      5354385F 
 9299      4D415820 
 9299      285F5F55 
 9300              	.LASF281:
 9301 6366 5F5F5553 		.ascii	"__USQ_IBIT__ 0\000"
 9301      515F4942 
 9301      49545F5F 
 9301      203000
 9302              	.LASF3:
 9303 6375 5F5F474E 		.ascii	"__GNUC_MINOR__ 4\000"
 9303      55435F4D 
 9303      494E4F52 
 9303      5F5F2034 
 9303      00
 9304              	.LASF52:
 9305 6386 5F5F5549 		.ascii	"__UINT_LEAST32_TYPE__ long unsigned int\000"
 9305      4E545F4C 
 9305      45415354 
 9305      33325F54 
 9305      5950455F 
 9306              	.LASF754:
 9307 63ae 436F7265 		.ascii	"CoreDebug_DHCSR_C_STEP_Pos 2\000"
 9307      44656275 
 9307      675F4448 
 9307      4353525F 
 9307      435F5354 
 9308              	.LASF814:
 9309 63cb 4C50435F 		.ascii	"LPC_CM3_BASE (0xE0000000UL)\000"
 9309      434D335F 
 9309      42415345 
 9309      20283078 
 9309      45303030 
 9310              	.LASF33:
 9311 63e7 5F5F494E 		.ascii	"__INTMAX_TYPE__ long long int\000"
 9311      544D4158 
 9311      5F545950 
 9311      455F5F20 
 9311      6C6F6E67 
 9312              	.LASF316:
 9313 6405 5F5F4743 		.ascii	"__GCC_ATOMIC_INT_LOCK_FREE 2\000"
 9313      435F4154 
 9313      4F4D4943 
 9313      5F494E54 
 9313      5F4C4F43 
 9314              	.LASF306:
 9315 6422 5F5F4348 		.ascii	"__CHAR_UNSIGNED__ 1\000"
ARM GAS  C:\Users\STUDENT\AppData\Local\Temp\cc6DO5vW.s 			page 235


 9315      41525F55 
 9315      4E534947 
 9315      4E45445F 
 9315      5F203100 
 9316              	.LASF611:
 9317 6436 5343425F 		.ascii	"SCB_SHCSR_MONITORACT_Msk (1UL << SCB_SHCSR_MONITORA"
 9317      53484353 
 9317      525F4D4F 
 9317      4E49544F 
 9317      52414354 
 9318 6469 43545F50 		.ascii	"CT_Pos)\000"
 9318      6F732900 
 9319              	.LASF787:
 9320 6471 436F7265 		.ascii	"CoreDebug_DEMCR_VC_MMERR_Msk (1UL << CoreDebug_DEMC"
 9320      44656275 
 9320      675F4445 
 9320      4D43525F 
 9320      56435F4D 
 9321 64a4 525F5643 		.ascii	"R_VC_MMERR_Pos)\000"
 9321      5F4D4D45 
 9321      52525F50 
 9321      6F732900 
 9322              	.LASF746:
 9323 64b4 436F7265 		.ascii	"CoreDebug_DHCSR_S_HALT_Pos 17\000"
 9323      44656275 
 9323      675F4448 
 9323      4353525F 
 9323      535F4841 
 9324              	.LASF712:
 9325 64d2 4D50555F 		.ascii	"MPU_RBAR_ADDR_Pos 5\000"
 9325      52424152 
 9325      5F414444 
 9325      525F506F 
 9325      73203500 
 9326              	.LASF697:
 9327 64e6 496E7454 		.ascii	"IntType_ACTLR_DISMCYCINT_Msk (1UL << IntType_ACTLR_"
 9327      7970655F 
 9327      4143544C 
 9327      525F4449 
 9327      534D4359 
 9328 6519 4449534D 		.ascii	"DISMCYCINT_Pos)\000"
 9328      43594349 
 9328      4E545F50 
 9328      6F732900 
 9329              	.LASF710:
 9330 6529 4D50555F 		.ascii	"MPU_RNR_REGION_Pos 0\000"
 9330      524E525F 
 9330      52454749 
 9330      4F4E5F50 
 9330      6F732030 
 9331              	.LASF767:
 9332 653e 436F7265 		.ascii	"CoreDebug_DEMCR_MON_REQ_Msk (1UL << CoreDebug_DEMCR"
 9332      44656275 
 9332      675F4445 
 9332      4D43525F 
 9332      4D4F4E5F 
 9333 6571 5F4D4F4E 		.ascii	"_MON_REQ_Pos)\000"
ARM GAS  C:\Users\STUDENT\AppData\Local\Temp\cc6DO5vW.s 			page 236


 9333      5F524551 
 9333      5F506F73 
 9333      2900
 9334              	.LASF914:
 9335 657f 5F424954 		.ascii	"_BIT(n) (1<<n)\000"
 9335      286E2920 
 9335      28313C3C 
 9335      6E2900
 9336              	.LASF401:
 9337 658e 5F5F5F69 		.ascii	"___int_least32_t_defined 1\000"
 9337      6E745F6C 
 9337      65617374 
 9337      33325F74 
 9337      5F646566 
 9338              	.LASF775:
 9339 65a9 436F7265 		.ascii	"CoreDebug_DEMCR_VC_HARDERR_Msk (1UL << CoreDebug_DE"
 9339      44656275 
 9339      675F4445 
 9339      4D43525F 
 9339      56435F48 
 9340 65dc 4D43525F 		.ascii	"MCR_VC_HARDERR_Pos)\000"
 9340      56435F48 
 9340      41524445 
 9340      52525F50 
 9340      6F732900 
 9341              	.LASF685:
 9342 65f0 49544D5F 		.ascii	"ITM_LSR_ByteAcc_Msk (1UL << ITM_LSR_ByteAcc_Pos)\000"
 9342      4C53525F 
 9342      42797465 
 9342      4163635F 
 9342      4D736B20 
 9343              	.LASF235:
 9344 6621 5F5F5553 		.ascii	"__USACCUM_EPSILON__ 0x1P-8UHK\000"
 9344      41434355 
 9344      4D5F4550 
 9344      53494C4F 
 9344      4E5F5F20 
 9345              	.LASF82:
 9346 663f 5F5F5349 		.ascii	"__SIG_ATOMIC_MAX__ 0x7fffffff\000"
 9346      475F4154 
 9346      4F4D4943 
 9346      5F4D4158 
 9346      5F5F2030 
 9347              	.LASF913:
 9348 665d 5F424954 		.ascii	"_BIT\000"
 9348      00
 9349              	.LASF1079:
 9350 6662 46494F5F 		.ascii	"FIO_ByteReadValue\000"
 9350      42797465 
 9350      52656164 
 9350      56616C75 
 9350      6500
 9351              	.LASF490:
 9352 6674 55494E54 		.ascii	"UINT_FAST16_MAX (__UINT_FAST16_MAX__)\000"
 9352      5F464153 
 9352      5431365F 
 9352      4D415820 
ARM GAS  C:\Users\STUDENT\AppData\Local\Temp\cc6DO5vW.s 			page 237


 9352      285F5F55 
 9353              	.LASF923:
 9354 669a 4750494F 		.ascii	"GPIO0_Byte ((GPIO_Byte_TypeDef *)(LPC_GPIO0_BASE))\000"
 9354      305F4279 
 9354      74652028 
 9354      28475049 
 9354      4F5F4279 
 9355              	.LASF219:
 9356 66cd 5F5F4C4C 		.ascii	"__LLFRACT_MAX__ 0X7FFFFFFFFFFFFFFFP-63LLR\000"
 9356      46524143 
 9356      545F4D41 
 9356      585F5F20 
 9356      30583746 
 9357              	.LASF328:
 9358 66f7 5F5F4152 		.ascii	"__ARM_FEATURE_UNALIGNED 1\000"
 9358      4D5F4645 
 9358      41545552 
 9358      455F554E 
 9358      414C4947 
 9359              	.LASF478:
 9360 6711 55494E54 		.ascii	"UINT_LEAST32_MAX (__UINT_LEAST32_MAX__)\000"
 9360      5F4C4541 
 9360      53543332 
 9360      5F4D4158 
 9360      20285F5F 
 9361              	.LASF376:
 9362 6739 5F5F474E 		.ascii	"__GNUC_PREREQ__(ma,mi) __GNUC_PREREQ(ma, mi)\000"
 9362      55435F50 
 9362      52455245 
 9362      515F5F28 
 9362      6D612C6D 
 9363              	.LASF539:
 9364 6766 5343425F 		.ascii	"SCB_ICSR_PENDSVSET_Msk (1UL << SCB_ICSR_PENDSVSET_P"
 9364      49435352 
 9364      5F50454E 
 9364      44535653 
 9364      45545F4D 
 9365 6799 6F732900 		.ascii	"os)\000"
 9366              	.LASF654:
 9367 679d 53797354 		.ascii	"SysTick_CALIB_NOREF_Pos 31\000"
 9367      69636B5F 
 9367      43414C49 
 9367      425F4E4F 
 9367      5245465F 
 9368              	.LASF229:
 9369 67b8 5F5F5341 		.ascii	"__SACCUM_MAX__ 0X7FFFP-7HK\000"
 9369      4343554D 
 9369      5F4D4158 
 9369      5F5F2030 
 9369      58374646 
 9370              	.LASF62:
 9371 67d3 5F5F494E 		.ascii	"__INTPTR_TYPE__ int\000"
 9371      54505452 
 9371      5F545950 
 9371      455F5F20 
 9371      696E7400 
 9372              	.LASF572:
ARM GAS  C:\Users\STUDENT\AppData\Local\Temp\cc6DO5vW.s 			page 238


 9373 67e7 5343425F 		.ascii	"SCB_AIRCR_VECTRESET_Pos 0\000"
 9373      41495243 
 9373      525F5645 
 9373      43545245 
 9373      5345545F 
 9374              	.LASF63:
 9375 6801 5F5F5549 		.ascii	"__UINTPTR_TYPE__ unsigned int\000"
 9375      4E545054 
 9375      525F5459 
 9375      50455F5F 
 9375      20756E73 
 9376              	.LASF649:
 9377 681f 53797354 		.ascii	"SysTick_CTRL_ENABLE_Msk (1UL << SysTick_CTRL_ENABLE"
 9377      69636B5F 
 9377      4354524C 
 9377      5F454E41 
 9377      424C455F 
 9378 6852 5F506F73 		.ascii	"_Pos)\000"
 9378      2900
 9379              	.LASF302:
 9380 6858 5F5F5245 		.ascii	"__REGISTER_PREFIX__ \000"
 9380      47495354 
 9380      45525F50 
 9380      52454649 
 9380      585F5F20 
 9381              	.LASF138:
 9382 686d 5F5F4442 		.ascii	"__DBL_DIG__ 15\000"
 9382      4C5F4449 
 9382      475F5F20 
 9382      313500
 9383              	.LASF215:
 9384 687c 5F5F554C 		.ascii	"__ULFRACT_EPSILON__ 0x1P-32ULR\000"
 9384      46524143 
 9384      545F4550 
 9384      53494C4F 
 9384      4E5F5F20 
 9385              	.LASF557:
 9386 689b 5343425F 		.ascii	"SCB_VTOR_TBLBASE_Msk (1UL << SCB_VTOR_TBLBASE_Pos)\000"
 9386      56544F52 
 9386      5F54424C 
 9386      42415345 
 9386      5F4D736B 
 9387              	.LASF565:
 9388 68ce 5343425F 		.ascii	"SCB_AIRCR_ENDIANESS_Msk (1UL << SCB_AIRCR_ENDIANESS"
 9388      41495243 
 9388      525F454E 
 9388      4449414E 
 9388      4553535F 
 9389 6901 5F506F73 		.ascii	"_Pos)\000"
 9389      2900
 9390              	.LASF20:
 9391 6907 5F5F5349 		.ascii	"__SIZEOF_SIZE_T__ 4\000"
 9391      5A454F46 
 9391      5F53495A 
 9391      455F545F 
 9391      5F203400 
 9392              	.LASF45:
ARM GAS  C:\Users\STUDENT\AppData\Local\Temp\cc6DO5vW.s 			page 239


 9393 691b 5F5F5549 		.ascii	"__UINT64_TYPE__ long long unsigned int\000"
 9393      4E543634 
 9393      5F545950 
 9393      455F5F20 
 9393      6C6F6E67 
 9394              	.LASF182:
 9395 6942 5F5F4445 		.ascii	"__DEC128_MIN__ 1E-6143DL\000"
 9395      43313238 
 9395      5F4D494E 
 9395      5F5F2031 
 9395      452D3631 
 9396              	.LASF99:
 9397 695b 5F5F494E 		.ascii	"__INT64_C(c) c ## LL\000"
 9397      5436345F 
 9397      43286329 
 9397      20632023 
 9397      23204C4C 
 9398              	.LASF247:
 9399 6970 5F5F4C41 		.ascii	"__LACCUM_IBIT__ 32\000"
 9399      4343554D 
 9399      5F494249 
 9399      545F5F20 
 9399      333200
 9400              	.LASF722:
 9401 6983 4D50555F 		.ascii	"MPU_RASR_TEX_Pos 19\000"
 9401      52415352 
 9401      5F544558 
 9401      5F506F73 
 9401      20313900 
 9402              	.LASF901:
 9403 6997 4C50435F 		.ascii	"LPC_GPDMACH0 ((LPC_GPDMACH_TypeDef *) LPC_GPDMACH0_"
 9403      4750444D 
 9403      41434830 
 9403      2028284C 
 9403      50435F47 
 9404 69ca 42415345 		.ascii	"BASE )\000"
 9404      202900
 9405              	.LASF588:
 9406 69d1 5343425F 		.ascii	"SCB_CCR_USERSETMPEND_Pos 1\000"
 9406      4343525F 
 9406      55534552 
 9406      5345544D 
 9406      50454E44 
 9407              	.LASF1055:
 9408 69ec 4750494F 		.ascii	"GPIO_ReadValue\000"
 9408      5F526561 
 9408      6456616C 
 9408      756500
 9409              	.LASF839:
 9410 69fb 4C50435F 		.ascii	"LPC_UART3_BASE (LPC_APB1_BASE + 0x1C000)\000"
 9410      55415254 
 9410      335F4241 
 9410      53452028 
 9410      4C50435F 
 9411              	.LASF159:
 9412 6a24 5F5F4C44 		.ascii	"__LDBL_MIN__ 2.2250738585072014e-308L\000"
 9412      424C5F4D 
ARM GAS  C:\Users\STUDENT\AppData\Local\Temp\cc6DO5vW.s 			page 240


 9412      494E5F5F 
 9412      20322E32 
 9412      32353037 
 9413              	.LASF730:
 9414 6a4a 4D50555F 		.ascii	"MPU_RASR_SRD_Pos 8\000"
 9414      52415352 
 9414      5F535244 
 9414      5F506F73 
 9414      203800
 9415              	.LASF237:
 9416 6a5d 5F5F4143 		.ascii	"__ACCUM_IBIT__ 16\000"
 9416      43554D5F 
 9416      49424954 
 9416      5F5F2031 
 9416      3600
 9417              	.LASF744:
 9418 6a6f 436F7265 		.ascii	"CoreDebug_DHCSR_S_SLEEP_Pos 18\000"
 9418      44656275 
 9418      675F4448 
 9418      4353525F 
 9418      535F534C 
 9419              	.LASF197:
 9420 6a8e 5F5F4652 		.ascii	"__FRACT_IBIT__ 0\000"
 9420      4143545F 
 9420      49424954 
 9420      5F5F2030 
 9420      00
 9421              	.LASF889:
 9422 6a9f 4C50435F 		.ascii	"LPC_ADC ((LPC_ADC_TypeDef *) LPC_ADC_BASE )\000"
 9422      41444320 
 9422      28284C50 
 9422      435F4144 
 9422      435F5479 
 9423              	.LASF968:
 9424 6acb 73686F72 		.ascii	"short int\000"
 9424      7420696E 
 9424      7400
 9425              	.LASF598:
 9426 6ad5 5343425F 		.ascii	"SCB_SHCSR_SVCALLPENDED_Pos 15\000"
 9426      53484353 
 9426      525F5356 
 9426      43414C4C 
 9426      50454E44 
 9427              	.LASF201:
 9428 6af3 5F5F5546 		.ascii	"__UFRACT_FBIT__ 16\000"
 9428      52414354 
 9428      5F464249 
 9428      545F5F20 
 9428      313600
 9429              	.LASF103:
 9430 6b06 5F5F5549 		.ascii	"__UINT16_C(c) c\000"
 9430      4E543136 
 9430      5F432863 
 9430      29206300 
 9431              	.LASF299:
 9432 6b16 5F5F5544 		.ascii	"__UDA_IBIT__ 32\000"
 9432      415F4942 
ARM GAS  C:\Users\STUDENT\AppData\Local\Temp\cc6DO5vW.s 			page 241


 9432      49545F5F 
 9432      20333200 
 9433              	.LASF432:
 9434 6b26 5F5F4C45 		.ascii	"__LEAST16 \"h\"\000"
 9434      41535431 
 9434      36202268 
 9434      2200
 9435              	.LASF305:
 9436 6b34 5F5F4E4F 		.ascii	"__NO_INLINE__ 1\000"
 9436      5F494E4C 
 9436      494E455F 
 9436      5F203100 
 9437              	.LASF762:
 9438 6b44 436F7265 		.ascii	"CoreDebug_DCRSR_REGSEL_Pos 0\000"
 9438      44656275 
 9438      675F4443 
 9438      5253525F 
 9438      52454753 
 9439              	.LASF479:
 9440 6b61 494E5436 		.ascii	"INT64_MIN (-__INT64_MAX__ - 1)\000"
 9440      345F4D49 
 9440      4E20282D 
 9440      5F5F494E 
 9440      5436345F 
 9441              	.LASF849:
 9442 6b80 4C50435F 		.ascii	"LPC_GPDMACH1_BASE (LPC_AHB_BASE + 0x04120)\000"
 9442      4750444D 
 9442      41434831 
 9442      5F424153 
 9442      4520284C 
 9443              	.LASF6:
 9444 6bab 5F5F4154 		.ascii	"__ATOMIC_RELAXED 0\000"
 9444      4F4D4943 
 9444      5F52454C 
 9444      41584544 
 9444      203000
 9445              	.LASF736:
 9446 6bbe 436F7265 		.ascii	"CoreDebug_DHCSR_DBGKEY_Pos 16\000"
 9446      44656275 
 9446      675F4448 
 9446      4353525F 
 9446      4442474B 
 9447              	.LASF714:
 9448 6bdc 4D50555F 		.ascii	"MPU_RBAR_VALID_Pos 4\000"
 9448      52424152 
 9448      5F56414C 
 9448      49445F50 
 9448      6F732034 
 9449              	.LASF149:
 9450 6bf1 5F5F4442 		.ascii	"__DBL_HAS_INFINITY__ 1\000"
 9450      4C5F4841 
 9450      535F494E 
 9450      46494E49 
 9450      54595F5F 
 9451              	.LASF751:
 9452 6c08 436F7265 		.ascii	"CoreDebug_DHCSR_C_SNAPSTALL_Msk (1UL << CoreDebug_D"
 9452      44656275 
ARM GAS  C:\Users\STUDENT\AppData\Local\Temp\cc6DO5vW.s 			page 242


 9452      675F4448 
 9452      4353525F 
 9452      435F534E 
 9453 6c3b 48435352 		.ascii	"HCSR_C_SNAPSTALL_Pos)\000"
 9453      5F435F53 
 9453      4E415053 
 9453      54414C4C 
 9453      5F506F73 
 9454              	.LASF1045:
 9455 6c51 706F7274 		.ascii	"portNum\000"
 9455      4E756D00 
 9456              	.LASF481:
 9457 6c59 55494E54 		.ascii	"UINT64_MAX (__UINT64_MAX__)\000"
 9457      36345F4D 
 9457      41582028 
 9457      5F5F5549 
 9457      4E543634 
 9458              	.LASF527:
 9459 6c75 5F5F494F 		.ascii	"__IO volatile\000"
 9459      20766F6C 
 9459      6174696C 
 9459      6500
 9460              	.LASF890:
 9461 6c83 4C50435F 		.ascii	"LPC_DAC ((LPC_DAC_TypeDef *) LPC_DAC_BASE )\000"
 9461      44414320 
 9461      28284C50 
 9461      435F4441 
 9461      435F5479 
 9462              	.LASF850:
 9463 6caf 4C50435F 		.ascii	"LPC_GPDMACH2_BASE (LPC_AHB_BASE + 0x04140)\000"
 9463      4750444D 
 9463      41434832 
 9463      5F424153 
 9463      4520284C 
 9464              	.LASF17:
 9465 6cda 5F5F5349 		.ascii	"__SIZEOF_FLOAT__ 4\000"
 9465      5A454F46 
 9465      5F464C4F 
 9465      41545F5F 
 9465      203400
 9466              	.LASF510:
 9467 6ced 55494E54 		.ascii	"UINT8_C(x) __UINT8_C(x)\000"
 9467      385F4328 
 9467      7829205F 
 9467      5F55494E 
 9467      54385F43 
 9468              	.LASF175:
 9469 6d05 5F5F4445 		.ascii	"__DEC64_MIN__ 1E-383DD\000"
 9469      4336345F 
 9469      4D494E5F 
 9469      5F203145 
 9469      2D333833 
 9470              	.LASF788:
 9471 6d1c 436F7265 		.ascii	"CoreDebug_DEMCR_VC_CORERESET_Pos 0\000"
 9471      44656275 
 9471      675F4445 
 9471      4D43525F 
ARM GAS  C:\Users\STUDENT\AppData\Local\Temp\cc6DO5vW.s 			page 243


 9471      56435F43 
 9472              	.LASF143:
 9473 6d3f 5F5F4442 		.ascii	"__DBL_DECIMAL_DIG__ 17\000"
 9473      4C5F4445 
 9473      43494D41 
 9473      4C5F4449 
 9473      475F5F20 
 9474              	.LASF540:
 9475 6d56 5343425F 		.ascii	"SCB_ICSR_PENDSVCLR_Pos 27\000"
 9475      49435352 
 9475      5F50454E 
 9475      44535643 
 9475      4C525F50 
 9476              	.LASF756:
 9477 6d70 436F7265 		.ascii	"CoreDebug_DHCSR_C_HALT_Pos 1\000"
 9477      44656275 
 9477      675F4448 
 9477      4353525F 
 9477      435F4841 
 9478              	.LASF407:
 9479 6d8d 5F5F6861 		.ascii	"__have_long32 1\000"
 9479      76655F6C 
 9479      6F6E6733 
 9479      32203100 
 9480              	.LASF464:
 9481 6d9d 494E545F 		.ascii	"INT_LEAST8_MIN (-__INT_LEAST8_MAX__ - 1)\000"
 9481      4C454153 
 9481      54385F4D 
 9481      494E2028 
 9481      2D5F5F49 
 9482              	.LASF1026:
 9483 6dc6 494F3049 		.ascii	"IO0IntEnF\000"
 9483      6E74456E 
 9483      4600
 9484              	.LASF251:
 9485 6dd0 5F5F554C 		.ascii	"__ULACCUM_FBIT__ 32\000"
 9485      41434355 
 9485      4D5F4642 
 9485      49545F5F 
 9485      20333200 
 9486              	.LASF564:
 9487 6de4 5343425F 		.ascii	"SCB_AIRCR_ENDIANESS_Pos 15\000"
 9487      41495243 
 9487      525F454E 
 9487      4449414E 
 9487      4553535F 
 9488              	.LASF683:
 9489 6dff 49544D5F 		.ascii	"ITM_IMCR_INTEGRATION_Msk (1UL << ITM_IMCR_INTEGRATI"
 9489      494D4352 
 9489      5F494E54 
 9489      45475241 
 9489      54494F4E 
 9490 6e32 4F4E5F50 		.ascii	"ON_Pos)\000"
 9490      6F732900 
 9491              	.LASF447:
 9492 6e3a 5F5F696E 		.ascii	"__int64_t_defined 1\000"
 9492      7436345F 
ARM GAS  C:\Users\STUDENT\AppData\Local\Temp\cc6DO5vW.s 			page 244


 9492      745F6465 
 9492      66696E65 
 9492      64203100 
 9493              	.LASF85:
 9494 6e4e 5F5F494E 		.ascii	"__INT16_MAX__ 0x7fff\000"
 9494      5431365F 
 9494      4D41585F 
 9494      5F203078 
 9494      37666666 
 9495              	.LASF1025:
 9496 6e63 494F3049 		.ascii	"IO0IntEnR\000"
 9496      6E74456E 
 9496      5200
 9497              	.LASF525:
 9498 6e6d 5F5F4920 		.ascii	"__I volatile const\000"
 9498      766F6C61 
 9498      74696C65 
 9498      20636F6E 
 9498      737400
 9499              	.LASF681:
 9500 6e80 49544D5F 		.ascii	"ITM_IRR_ATREADYM_Msk (1UL << ITM_IRR_ATREADYM_Pos)\000"
 9500      4952525F 
 9500      41545245 
 9500      4144594D 
 9500      5F4D736B 
 9501              	.LASF427:
 9502 6eb3 5F5F4641 		.ascii	"__FAST8 \000"
 9502      53543820 
 9502      00
 9503              	.LASF393:
 9504 6ebc 5F5F5853 		.ascii	"__XSI_VISIBLE 0\000"
 9504      495F5649 
 9504      5349424C 
 9504      45203000 
 9505              	.LASF266:
 9506 6ecc 5F5F5151 		.ascii	"__QQ_FBIT__ 7\000"
 9506      5F464249 
 9506      545F5F20 
 9506      3700
 9507              	.LASF623:
 9508 6eda 5343425F 		.ascii	"SCB_CFSR_BUSFAULTSR_Msk (0xFFUL << SCB_CFSR_BUSFAUL"
 9508      43465352 
 9508      5F425553 
 9508      4641554C 
 9508      5453525F 
 9509 6f0d 5453525F 		.ascii	"TSR_Pos)\000"
 9509      506F7329 
 9509      00
 9510              	.LASF1057:
 9511 6f16 70696E4E 		.ascii	"pinNum\000"
 9511      756D00
 9512              	.LASF301:
 9513 6f1d 5F5F5554 		.ascii	"__UTA_IBIT__ 64\000"
 9513      415F4942 
 9513      49545F5F 
 9513      20363400 
 9514              	.LASF262:
ARM GAS  C:\Users\STUDENT\AppData\Local\Temp\cc6DO5vW.s 			page 245


 9515 6f2d 5F5F554C 		.ascii	"__ULLACCUM_IBIT__ 32\000"
 9515      4C414343 
 9515      554D5F49 
 9515      4249545F 
 9515      5F203332 
 9516              	.LASF225:
 9517 6f42 5F5F554C 		.ascii	"__ULLFRACT_EPSILON__ 0x1P-64ULLR\000"
 9517      4C465241 
 9517      43545F45 
 9517      5053494C 
 9517      4F4E5F5F 
 9518              	.LASF324:
 9519 6f63 5F5F5349 		.ascii	"__SIZEOF_WINT_T__ 4\000"
 9519      5A454F46 
 9519      5F57494E 
 9519      545F545F 
 9519      5F203400 
 9520              	.LASF96:
 9521 6f77 5F5F494E 		.ascii	"__INT_LEAST32_MAX__ 0x7fffffffL\000"
 9521      545F4C45 
 9521      41535433 
 9521      325F4D41 
 9521      585F5F20 
 9522              	.LASF218:
 9523 6f97 5F5F4C4C 		.ascii	"__LLFRACT_MIN__ (-0.5LLR-0.5LLR)\000"
 9523      46524143 
 9523      545F4D49 
 9523      4E5F5F20 
 9523      282D302E 
 9524              	.LASF702:
 9525 6fb8 4D50555F 		.ascii	"MPU_TYPE_SEPARATE_Pos 0\000"
 9525      54595045 
 9525      5F534550 
 9525      41524154 
 9525      455F506F 
 9526              	.LASF248:
 9527 6fd0 5F5F4C41 		.ascii	"__LACCUM_MIN__ (-0X1P31LK-0X1P31LK)\000"
 9527      4343554D 
 9527      5F4D494E 
 9527      5F5F2028 
 9527      2D305831 
 9528              	.LASF108:
 9529 6ff4 5F5F494E 		.ascii	"__INT_FAST8_MAX__ 0x7fffffff\000"
 9529      545F4641 
 9529      5354385F 
 9529      4D41585F 
 9529      5F203078 
 9530              	.LASF1021:
 9531 7011 496E7453 		.ascii	"IntStatus\000"
 9531      74617475 
 9531      7300
 9532              	.LASF147:
 9533 701b 5F5F4442 		.ascii	"__DBL_DENORM_MIN__ ((double)4.9406564584124654e-324"
 9533      4C5F4445 
 9533      4E4F524D 
 9533      5F4D494E 
 9533      5F5F2028 
ARM GAS  C:\Users\STUDENT\AppData\Local\Temp\cc6DO5vW.s 			page 246


 9534 704e 4C2900   		.ascii	"L)\000"
 9535              	.LASF263:
 9536 7051 5F5F554C 		.ascii	"__ULLACCUM_MIN__ 0.0ULLK\000"
 9536      4C414343 
 9536      554D5F4D 
 9536      494E5F5F 
 9536      20302E30 
 9537              	.LASF436:
 9538 706a 5F494E54 		.ascii	"_INT8_T_DECLARED \000"
 9538      385F545F 
 9538      4445434C 
 9538      41524544 
 9538      2000
 9539              	.LASF669:
 9540 707c 49544D5F 		.ascii	"ITM_TCR_SWOENA_Msk (1UL << ITM_TCR_SWOENA_Pos)\000"
 9540      5443525F 
 9540      53574F45 
 9540      4E415F4D 
 9540      736B2028 
 9541              	.LASF740:
 9542 70ab 436F7265 		.ascii	"CoreDebug_DHCSR_S_RETIRE_ST_Pos 24\000"
 9542      44656275 
 9542      675F4448 
 9542      4353525F 
 9542      535F5245 
 9543              	.LASF425:
 9544 70ce 5F5F494E 		.ascii	"__INT32 \"l\"\000"
 9544      54333220 
 9544      226C2200 
 9545              	.LASF351:
 9546 70da 5F5F4152 		.ascii	"__ARM_ASM_SYNTAX_UNIFIED__ 1\000"
 9546      4D5F4153 
 9546      4D5F5359 
 9546      4E544158 
 9546      5F554E49 
 9547              	.LASF918:
 9548 70f7 5F424954 		.ascii	"_BITMASK(field_width) ( _BIT(field_width) - 1)\000"
 9548      4D41534B 
 9548      28666965 
 9548      6C645F77 
 9548      69647468 
 9549              	.LASF44:
 9550 7126 5F5F5549 		.ascii	"__UINT32_TYPE__ long unsigned int\000"
 9550      4E543332 
 9550      5F545950 
 9550      455F5F20 
 9550      6C6F6E67 
 9551              	.LASF621:
 9552 7148 5343425F 		.ascii	"SCB_CFSR_USGFAULTSR_Msk (0xFFFFUL << SCB_CFSR_USGFA"
 9552      43465352 
 9552      5F555347 
 9552      4641554C 
 9552      5453525F 
 9553 717b 554C5453 		.ascii	"ULTSR_Pos)\000"
 9553      525F506F 
 9553      732900
 9554              	.LASF339:
ARM GAS  C:\Users\STUDENT\AppData\Local\Temp\cc6DO5vW.s 			page 247


 9555 7186 5F5F7468 		.ascii	"__thumb2__ 1\000"
 9555      756D6232 
 9555      5F5F2031 
 9555      00
 9556              	.LASF665:
 9557 7193 49544D5F 		.ascii	"ITM_TCR_ATBID_Msk (0x7FUL << ITM_TCR_ATBID_Pos)\000"
 9557      5443525F 
 9557      41544249 
 9557      445F4D73 
 9557      6B202830 
 9558              	.LASF558:
 9559 71c3 5343425F 		.ascii	"SCB_VTOR_TBLOFF_Pos 7\000"
 9559      56544F52 
 9559      5F54424C 
 9559      4F46465F 
 9559      506F7320 
 9560              	.LASF377:
 9561 71d9 5F444546 		.ascii	"_DEFAULT_SOURCE\000"
 9561      41554C54 
 9561      5F534F55 
 9561      52434500 
 9562              	.LASF150:
 9563 71e9 5F5F4442 		.ascii	"__DBL_HAS_QUIET_NAN__ 1\000"
 9563      4C5F4841 
 9563      535F5155 
 9563      4945545F 
 9563      4E414E5F 
 9564              	.LASF831:
 9565 7201 4C50435F 		.ascii	"LPC_CAN1_BASE (LPC_APB0_BASE + 0x44000)\000"
 9565      43414E31 
 9565      5F424153 
 9565      4520284C 
 9565      50435F41 
 9566              	.LASF687:
 9567 7229 49544D5F 		.ascii	"ITM_LSR_Access_Msk (1UL << ITM_LSR_Access_Pos)\000"
 9567      4C53525F 
 9567      41636365 
 9567      73735F4D 
 9567      736B2028 
 9568              	.LASF881:
 9569 7258 4C50435F 		.ascii	"LPC_I2C2 ((LPC_I2C_TypeDef *) LPC_I2C2_BASE )\000"
 9569      49324332 
 9569      2028284C 
 9569      50435F49 
 9569      32435F54 
 9570              	.LASF223:
 9571 7286 5F5F554C 		.ascii	"__ULLFRACT_MIN__ 0.0ULLR\000"
 9571      4C465241 
 9571      43545F4D 
 9571      494E5F5F 
 9571      20302E30 
 9572              	.LASF900:
 9573 729f 444D4152 		.ascii	"DMAREQSEL (*(__IO uint32_t *) ( 0x4000C1C4))\000"
 9573      45515345 
 9573      4C20282A 
 9573      285F5F49 
 9573      4F207569 
ARM GAS  C:\Users\STUDENT\AppData\Local\Temp\cc6DO5vW.s 			page 248


 9574              	.LASF917:
 9575 72cc 5F424954 		.ascii	"_BITMASK\000"
 9575      4D41534B 
 9575      00
 9576              	.LASF283:
 9577 72d5 5F5F5544 		.ascii	"__UDQ_IBIT__ 0\000"
 9577      515F4942 
 9577      49545F5F 
 9577      203000
 9578              	.LASF13:
 9579 72e4 5F5F5349 		.ascii	"__SIZEOF_INT__ 4\000"
 9579      5A454F46 
 9579      5F494E54 
 9579      5F5F2034 
 9579      00
 9580              	.LASF244:
 9581 72f5 5F5F5541 		.ascii	"__UACCUM_MAX__ 0XFFFFFFFFP-16UK\000"
 9581      4343554D 
 9581      5F4D4158 
 9581      5F5F2030 
 9581      58464646 
 9582              	.LASF217:
 9583 7315 5F5F4C4C 		.ascii	"__LLFRACT_IBIT__ 0\000"
 9583      46524143 
 9583      545F4942 
 9583      49545F5F 
 9583      203000
 9584              	.LASF512:
 9585 7328 55494E54 		.ascii	"UINT16_C(x) __UINT16_C(x)\000"
 9585      31365F43 
 9585      28782920 
 9585      5F5F5549 
 9585      4E543136 
 9586              	.LASF737:
 9587 7342 436F7265 		.ascii	"CoreDebug_DHCSR_DBGKEY_Msk (0xFFFFUL << CoreDebug_D"
 9587      44656275 
 9587      675F4448 
 9587      4353525F 
 9587      4442474B 
 9588 7375 48435352 		.ascii	"HCSR_DBGKEY_Pos)\000"
 9588      5F444247 
 9588      4B45595F 
 9588      506F7329 
 9588      00
 9589              	.LASF982:
 9590 7386 75696E74 		.ascii	"uint32_t\000"
 9590      33325F74 
 9590      00
 9591              	.LASF887:
 9592 738f 4C50435F 		.ascii	"LPC_SSP0 ((LPC_SSP_TypeDef *) LPC_SSP0_BASE )\000"
 9592      53535030 
 9592      2028284C 
 9592      50435F53 
 9592      53505F54 
 9593              	.LASF688:
 9594 73bd 49544D5F 		.ascii	"ITM_LSR_Present_Pos 0\000"
 9594      4C53525F 
ARM GAS  C:\Users\STUDENT\AppData\Local\Temp\cc6DO5vW.s 			page 249


 9594      50726573 
 9594      656E745F 
 9594      506F7320 
 9595              	.LASF1050:
 9596 73d3 4750494F 		.ascii	"GPIO_SetDir\000"
 9596      5F536574 
 9596      44697200 
 9597              	.LASF650:
 9598 73df 53797354 		.ascii	"SysTick_LOAD_RELOAD_Pos 0\000"
 9598      69636B5F 
 9598      4C4F4144 
 9598      5F52454C 
 9598      4F41445F 
 9599              	.LASF230:
 9600 73f9 5F5F5341 		.ascii	"__SACCUM_EPSILON__ 0x1P-7HK\000"
 9600      4343554D 
 9600      5F455053 
 9600      494C4F4E 
 9600      5F5F2030 
 9601              	.LASF920:
 9602 7415 4E454C45 		.ascii	"NELEMENTS(array) (sizeof (array) / sizeof (array[0]"
 9602      4D454E54 
 9602      53286172 
 9602      72617929 
 9602      20287369 
 9603 7448 292900   		.ascii	"))\000"
 9604              	.LASF495:
 9605 744b 494E545F 		.ascii	"INT_FAST64_MAX (__INT_FAST64_MAX__)\000"
 9605      46415354 
 9605      36345F4D 
 9605      41582028 
 9605      5F5F494E 
 9606              	.LASF380:
 9607 746f 5F504F53 		.ascii	"_POSIX_SOURCE 1\000"
 9607      49585F53 
 9607      4F555243 
 9607      45203100 
 9608              	.LASF59:
 9609 747f 5F5F5549 		.ascii	"__UINT_FAST16_TYPE__ unsigned int\000"
 9609      4E545F46 
 9609      41535431 
 9609      365F5459 
 9609      50455F5F 
 9610              	.LASF657:
 9611 74a1 53797354 		.ascii	"SysTick_CALIB_SKEW_Msk (1UL << SysTick_CALIB_SKEW_P"
 9611      69636B5F 
 9611      43414C49 
 9611      425F534B 
 9611      45575F4D 
 9612 74d4 6F732900 		.ascii	"os)\000"
 9613              	.LASF295:
 9614 74d8 5F5F5548 		.ascii	"__UHA_IBIT__ 8\000"
 9614      415F4942 
 9614      49545F5F 
 9614      203800
 9615              	.LASF704:
 9616 74e7 4D50555F 		.ascii	"MPU_CTRL_PRIVDEFENA_Pos 2\000"
ARM GAS  C:\Users\STUDENT\AppData\Local\Temp\cc6DO5vW.s 			page 250


 9616      4354524C 
 9616      5F505249 
 9616      56444546 
 9616      454E415F 
 9617              	.LASF240:
 9618 7501 5F5F4143 		.ascii	"__ACCUM_EPSILON__ 0x1P-15K\000"
 9618      43554D5F 
 9618      45505349 
 9618      4C4F4E5F 
 9618      5F203078 
 9619              	.LASF255:
 9620 751c 5F5F554C 		.ascii	"__ULACCUM_EPSILON__ 0x1P-32ULK\000"
 9620      41434355 
 9620      4D5F4550 
 9620      53494C4F 
 9620      4E5F5F20 
 9621              	.LASF152:
 9622 753b 5F5F4C44 		.ascii	"__LDBL_DIG__ 15\000"
 9622      424C5F44 
 9622      49475F5F 
 9622      20313500 
 9623              	.LASF75:
 9624 754b 5F5F5749 		.ascii	"__WINT_MIN__ 0U\000"
 9624      4E545F4D 
 9624      494E5F5F 
 9624      20305500 
 9625              	.LASF1020:
 9626 755b 4C50435F 		.ascii	"LPC_GPIO_TypeDef\000"
 9626      4750494F 
 9626      5F547970 
 9626      65446566 
 9626      00
 9627              	.LASF758:
 9628 756c 436F7265 		.ascii	"CoreDebug_DHCSR_C_DEBUGEN_Pos 0\000"
 9628      44656275 
 9628      675F4448 
 9628      4353525F 
 9628      435F4445 
 9629              	.LASF556:
 9630 758c 5343425F 		.ascii	"SCB_VTOR_TBLBASE_Pos 29\000"
 9630      56544F52 
 9630      5F54424C 
 9630      42415345 
 9630      5F506F73 
 9631              	.LASF1064:
 9632 75a4 46494F5F 		.ascii	"FIO_GetIntStatus\000"
 9632      47657449 
 9632      6E745374 
 9632      61747573 
 9632      00
 9633              	.LASF47:
 9634 75b5 5F5F494E 		.ascii	"__INT_LEAST16_TYPE__ short int\000"
 9634      545F4C45 
 9634      41535431 
 9634      365F5459 
 9634      50455F5F 
 9635              	.LASF265:
ARM GAS  C:\Users\STUDENT\AppData\Local\Temp\cc6DO5vW.s 			page 251


 9636 75d4 5F5F554C 		.ascii	"__ULLACCUM_EPSILON__ 0x1P-32ULLK\000"
 9636      4C414343 
 9636      554D5F45 
 9636      5053494C 
 9636      4F4E5F5F 
 9637              	.LASF415:
 9638 75f5 756E7369 		.ascii	"unsigned +0\000"
 9638      676E6564 
 9638      202B3000 
 9639              	.LASF1073:
 9640 7601 46494F5F 		.ascii	"FIO_HalfWordReadValue\000"
 9640      48616C66 
 9640      576F7264 
 9640      52656164 
 9640      56616C75 
 9641              	.LASF144:
 9642 7617 5F5F4442 		.ascii	"__DBL_MAX__ ((double)1.7976931348623157e+308L)\000"
 9642      4C5F4D41 
 9642      585F5F20 
 9642      2828646F 
 9642      75626C65 
 9643              	.LASF971:
 9644 7646 73686F72 		.ascii	"short unsigned int\000"
 9644      7420756E 
 9644      7369676E 
 9644      65642069 
 9644      6E7400
 9645              	.LASF216:
 9646 7659 5F5F4C4C 		.ascii	"__LLFRACT_FBIT__ 63\000"
 9646      46524143 
 9646      545F4642 
 9646      49545F5F 
 9646      20363300 
 9647              	.LASF529:
 9648 766d 5343425F 		.ascii	"SCB_CPUID_IMPLEMENTER_Msk (0xFFUL << SCB_CPUID_IMPL"
 9648      43505549 
 9648      445F494D 
 9648      504C454D 
 9648      454E5445 
 9649 76a0 454D454E 		.ascii	"EMENTER_Pos)\000"
 9649      5445525F 
 9649      506F7329 
 9649      00
 9650              	.LASF748:
 9651 76ad 436F7265 		.ascii	"CoreDebug_DHCSR_S_REGRDY_Pos 16\000"
 9651      44656275 
 9651      675F4448 
 9651      4353525F 
 9651      535F5245 
 9652              	.LASF338:
 9653 76cd 5F5F7468 		.ascii	"__thumb__ 1\000"
 9653      756D625F 
 9653      5F203100 
 9654              	.LASF397:
 9655 76d9 5F5F5F69 		.ascii	"___int32_t_defined 1\000"
 9655      6E743332 
 9655      5F745F64 
ARM GAS  C:\Users\STUDENT\AppData\Local\Temp\cc6DO5vW.s 			page 252


 9655      6566696E 
 9655      65642031 
 9656              	.LASF341:
 9657 76ee 5F5F4152 		.ascii	"__ARMEL__ 1\000"
 9657      4D454C5F 
 9657      5F203100 
 9658              	.LASF520:
 9659 76fa 5F5F434F 		.ascii	"__CORE_CMINSTR_H__ \000"
 9659      52455F43 
 9659      4D494E53 
 9659      54525F48 
 9659      5F5F2000 
 9660              	.LASF268:
 9661 770e 5F5F4851 		.ascii	"__HQ_FBIT__ 15\000"
 9661      5F464249 
 9661      545F5F20 
 9661      313500
 9662              	.LASF569:
 9663 771d 5343425F 		.ascii	"SCB_AIRCR_SYSRESETREQ_Msk (1UL << SCB_AIRCR_SYSRESE"
 9663      41495243 
 9663      525F5359 
 9663      53524553 
 9663      45545245 
 9664 7750 54524551 		.ascii	"TREQ_Pos)\000"
 9664      5F506F73 
 9664      2900
 9665              	.LASF719:
 9666 775a 4D50555F 		.ascii	"MPU_RASR_XN_Msk (1UL << MPU_RASR_XN_Pos)\000"
 9666      52415352 
 9666      5F584E5F 
 9666      4D736B20 
 9666      2831554C 
 9667              	.LASF422:
 9668 7783 5F494E54 		.ascii	"_INT32_EQ_LONG \000"
 9668      33325F45 
 9668      515F4C4F 
 9668      4E472000 
 9669              	.LASF570:
 9670 7793 5343425F 		.ascii	"SCB_AIRCR_VECTCLRACTIVE_Pos 1\000"
 9670      41495243 
 9670      525F5645 
 9670      4354434C 
 9670      52414354 
 9671              	.LASF964:
 9672 77b1 5F454D41 		.ascii	"_EMAC 1\000"
 9672      43203100 
 9673              	.LASF77:
 9674 77b9 5F5F5349 		.ascii	"__SIZE_MAX__ 0xffffffffU\000"
 9674      5A455F4D 
 9674      41585F5F 
 9674      20307866 
 9674      66666666 
 9675              	.LASF1031:
 9676 77d2 494F3249 		.ascii	"IO2IntEnF\000"
 9676      6E74456E 
 9676      4600
 9677              	.LASF596:
ARM GAS  C:\Users\STUDENT\AppData\Local\Temp\cc6DO5vW.s 			page 253


 9678 77dc 5343425F 		.ascii	"SCB_SHCSR_MEMFAULTENA_Pos 16\000"
 9678      53484353 
 9678      525F4D45 
 9678      4D464155 
 9678      4C54454E 
 9679              	.LASF676:
 9680 77f9 49544D5F 		.ascii	"ITM_TCR_ITMENA_Pos 0\000"
 9680      5443525F 
 9680      49544D45 
 9680      4E415F50 
 9680      6F732030 
 9681              	.LASF463:
 9682 780e 55494E54 		.ascii	"UINT8_MAX (__UINT8_MAX__)\000"
 9682      385F4D41 
 9682      5820285F 
 9682      5F55494E 
 9682      54385F4D 
 9683              	.LASF70:
 9684 7828 5F5F4C4F 		.ascii	"__LONG_MAX__ 0x7fffffffL\000"
 9684      4E475F4D 
 9684      41585F5F 
 9684      20307837 
 9684      66666666 
 9685              	.LASF1030:
 9686 7841 494F3249 		.ascii	"IO2IntEnR\000"
 9686      6E74456E 
 9686      5200
 9687              	.LASF450:
 9688 784b 5F5F696E 		.ascii	"__int_least8_t_defined 1\000"
 9688      745F6C65 
 9688      61737438 
 9688      5F745F64 
 9688      6566696E 
 9689              	.LASF420:
 9690 7864 6C6F6E67 		.ascii	"long +4\000"
 9690      202B3400 
 9691              	.LASF972:
 9692 786c 5F5F696E 		.ascii	"__int32_t\000"
 9692      7433325F 
 9692      7400
 9693              	.LASF960:
 9694 7876 5F514549 		.ascii	"_QEI 1\000"
 9694      203100
 9695              	.LASF770:
 9696 787d 436F7265 		.ascii	"CoreDebug_DEMCR_MON_PEND_Pos 17\000"
 9696      44656275 
 9696      675F4445 
 9696      4D43525F 
 9696      4D4F4E5F 
 9697              	.LASF907:
 9698 789d 4C50435F 		.ascii	"LPC_GPDMACH6 ((LPC_GPDMACH_TypeDef *) LPC_GPDMACH6_"
 9698      4750444D 
 9698      41434836 
 9698      2028284C 
 9698      50435F47 
 9699 78d0 42415345 		.ascii	"BASE )\000"
 9699      202900
ARM GAS  C:\Users\STUDENT\AppData\Local\Temp\cc6DO5vW.s 			page 254


 9700              	.LASF717:
 9701 78d7 4D50555F 		.ascii	"MPU_RBAR_REGION_Msk (0xFUL << MPU_RBAR_REGION_Pos)\000"
 9701      52424152 
 9701      5F524547 
 9701      494F4E5F 
 9701      4D736B20 
 9702              	.LASF1054:
 9703 790a 65646765 		.ascii	"edgeState\000"
 9703      53746174 
 9703      6500
 9704              	.LASF947:
 9705 7914 5F493243 		.ascii	"_I2C1 1\000"
 9705      31203100 
 9706              	.LASF910:
 9707 791c 4C50435F 		.ascii	"LPC_TYPES_H \000"
 9707      54595045 
 9707      535F4820 
 9707      00
 9708              	.LASF220:
 9709 7929 5F5F4C4C 		.ascii	"__LLFRACT_EPSILON__ 0x1P-63LLR\000"
 9709      46524143 
 9709      545F4550 
 9709      53494C4F 
 9709      4E5F5F20 
 9710              	.LASF618:
 9711 7948 5343425F 		.ascii	"SCB_SHCSR_MEMFAULTACT_Pos 0\000"
 9711      53484353 
 9711      525F4D45 
 9711      4D464155 
 9711      4C544143 
 9712              	.LASF189:
 9713 7964 5F5F5346 		.ascii	"__SFRACT_MAX__ 0X7FP-7HR\000"
 9713      52414354 
 9713      5F4D4158 
 9713      5F5F2030 
 9713      58374650 
 9714              	.LASF793:
 9715 797d 53797354 		.ascii	"SysTick_BASE (SCS_BASE + 0x0010UL)\000"
 9715      69636B5F 
 9715      42415345 
 9715      20285343 
 9715      535F4241 
 9716              	.LASF750:
 9717 79a0 436F7265 		.ascii	"CoreDebug_DHCSR_C_SNAPSTALL_Pos 5\000"
 9717      44656275 
 9717      675F4448 
 9717      4353525F 
 9717      435F534E 
 9718              	.LASF95:
 9719 79c2 5F5F494E 		.ascii	"__INT16_C(c) c\000"
 9719      5431365F 
 9719      43286329 
 9719      206300
 9720              	.LASF739:
 9721 79d1 436F7265 		.ascii	"CoreDebug_DHCSR_S_RESET_ST_Msk (1UL << CoreDebug_DH"
 9721      44656275 
 9721      675F4448 
ARM GAS  C:\Users\STUDENT\AppData\Local\Temp\cc6DO5vW.s 			page 255


 9721      4353525F 
 9721      535F5245 
 9722 7a04 4353525F 		.ascii	"CSR_S_RESET_ST_Pos)\000"
 9722      535F5245 
 9722      5345545F 
 9722      53545F50 
 9722      6F732900 
 9723              	.LASF291:
 9724 7a18 5F5F4441 		.ascii	"__DA_IBIT__ 32\000"
 9724      5F494249 
 9724      545F5F20 
 9724      333200
 9725              	.LASF417:
 9726 7a27 73686F72 		.ascii	"short +1\000"
 9726      74202B31 
 9726      00
 9727              	.LASF661:
 9728 7a30 49544D5F 		.ascii	"ITM_TPR_PRIVMASK_Msk (0xFUL << ITM_TPR_PRIVMASK_Pos"
 9728      5450525F 
 9728      50524956 
 9728      4D41534B 
 9728      5F4D736B 
 9729 7a63 2900     		.ascii	")\000"
 9730              	.LASF575:
 9731 7a65 5343425F 		.ascii	"SCB_SCR_SEVONPEND_Msk (1UL << SCB_SCR_SEVONPEND_Pos"
 9731      5343525F 
 9731      5345564F 
 9731      4E50454E 
 9731      445F4D73 
 9732 7a98 2900     		.ascii	")\000"
 9733              	.LASF809:
 9734 7a9a 4C50435F 		.ascii	"LPC_AHBRAM1_BASE (0x20080000UL)\000"
 9734      41484252 
 9734      414D315F 
 9734      42415345 
 9734      20283078 
 9735              	.LASF10:
 9736 7aba 5F5F4154 		.ascii	"__ATOMIC_ACQ_REL 4\000"
 9736      4F4D4943 
 9736      5F414351 
 9736      5F52454C 
 9736      203400
 9737              	.LASF1043:
 9738 7acd 4750494F 		.ascii	"GPIO_GetPointer\000"
 9738      5F476574 
 9738      506F696E 
 9738      74657200 
 9739              	.LASF40:
 9740 7add 5F5F494E 		.ascii	"__INT32_TYPE__ long int\000"
 9740      5433325F 
 9740      54595045 
 9740      5F5F206C 
 9740      6F6E6720 
 9741              	.LASF140:
 9742 7af5 5F5F4442 		.ascii	"__DBL_MIN_10_EXP__ (-307)\000"
 9742      4C5F4D49 
 9742      4E5F3130 
ARM GAS  C:\Users\STUDENT\AppData\Local\Temp\cc6DO5vW.s 			page 256


 9742      5F455850 
 9742      5F5F2028 
 9743              	.LASF789:
 9744 7b0f 436F7265 		.ascii	"CoreDebug_DEMCR_VC_CORERESET_Msk (1UL << CoreDebug_"
 9744      44656275 
 9744      675F4445 
 9744      4D43525F 
 9744      56435F43 
 9745 7b42 44454D43 		.ascii	"DEMCR_VC_CORERESET_Pos)\000"
 9745      525F5643 
 9745      5F434F52 
 9745      45524553 
 9745      45545F50 
 9746              	.LASF924:
 9747 7b5a 4750494F 		.ascii	"GPIO1_Byte ((GPIO_Byte_TypeDef *)(LPC_GPIO1_BASE))\000"
 9747      315F4279 
 9747      74652028 
 9747      28475049 
 9747      4F5F4279 
 9748              	.LASF563:
 9749 7b8d 5343425F 		.ascii	"SCB_AIRCR_VECTKEYSTAT_Msk (0xFFFFUL << SCB_AIRCR_VE"
 9749      41495243 
 9749      525F5645 
 9749      43544B45 
 9749      59535441 
 9750 7bc0 43544B45 		.ascii	"CTKEYSTAT_Pos)\000"
 9750      59535441 
 9750      545F506F 
 9750      732900
 9751              	.LASF485:
 9752 7bcf 494E545F 		.ascii	"INT_FAST8_MIN (-__INT_FAST8_MAX__ - 1)\000"
 9752      46415354 
 9752      385F4D49 
 9752      4E20282D 
 9752      5F5F494E 
 9753              	.LASF666:
 9754 7bf6 49544D5F 		.ascii	"ITM_TCR_TSPrescale_Pos 8\000"
 9754      5443525F 
 9754      54535072 
 9754      65736361 
 9754      6C655F50 
 9755              	.LASF412:
 9756 7c0f 5F5F696E 		.ascii	"__int20\000"
 9756      74323000 
 9757              	.LASF366:
 9758 7c17 5F5F494E 		.ascii	"__INLINE inline\000"
 9758      4C494E45 
 9758      20696E6C 
 9758      696E6500 
 9759              	.LASF492:
 9760 7c27 494E545F 		.ascii	"INT_FAST32_MAX (__INT_FAST32_MAX__)\000"
 9760      46415354 
 9760      33325F4D 
 9760      41582028 
 9760      5F5F494E 
 9761              	.LASF679:
 9762 7c4b 49544D5F 		.ascii	"ITM_IWR_ATVALIDM_Msk (1UL << ITM_IWR_ATVALIDM_Pos)\000"
ARM GAS  C:\Users\STUDENT\AppData\Local\Temp\cc6DO5vW.s 			page 257


 9762      4957525F 
 9762      41545641 
 9762      4C49444D 
 9762      5F4D736B 
 9763              	.LASF330:
 9764 7c7e 5F5F4152 		.ascii	"__ARM_FEATURE_LDREX 7\000"
 9764      4D5F4645 
 9764      41545552 
 9764      455F4C44 
 9764      52455820 
 9765              	.LASF1070:
 9766 7c94 46494F5F 		.ascii	"FIO_HalfWordSetMask\000"
 9766      48616C66 
 9766      576F7264 
 9766      5365744D 
 9766      61736B00 
 9767              	.LASF80:
 9768 7ca8 5F5F5549 		.ascii	"__UINTMAX_MAX__ 0xffffffffffffffffULL\000"
 9768      4E544D41 
 9768      585F4D41 
 9768      585F5F20 
 9768      30786666 
 9769              	.LASF137:
 9770 7cce 5F5F4442 		.ascii	"__DBL_MANT_DIG__ 53\000"
 9770      4C5F4D41 
 9770      4E545F44 
 9770      49475F5F 
 9770      20353300 
 9771              	.LASF212:
 9772 7ce2 5F5F554C 		.ascii	"__ULFRACT_IBIT__ 0\000"
 9772      46524143 
 9772      545F4942 
 9772      49545F5F 
 9772      203000
 9773              	.LASF708:
 9774 7cf5 4D50555F 		.ascii	"MPU_CTRL_ENABLE_Pos 0\000"
 9774      4354524C 
 9774      5F454E41 
 9774      424C455F 
 9774      506F7320 
 9775              	.LASF614:
 9776 7d0b 5343425F 		.ascii	"SCB_SHCSR_USGFAULTACT_Pos 3\000"
 9776      53484353 
 9776      525F5553 
 9776      47464155 
 9776      4C544143 
 9777              	.LASF860:
 9778 7d27 4C50435F 		.ascii	"LPC_GPIO3_BASE (LPC_GPIO_BASE + 0x00060)\000"
 9778      4750494F 
 9778      335F4241 
 9778      53452028 
 9778      4C50435F 
 9779              	.LASF69:
 9780 7d50 5F5F494E 		.ascii	"__INT_MAX__ 0x7fffffff\000"
 9780      545F4D41 
 9780      585F5F20 
 9780      30783766 
ARM GAS  C:\Users\STUDENT\AppData\Local\Temp\cc6DO5vW.s 			page 258


 9780      66666666 
 9781              	.LASF902:
 9782 7d67 4C50435F 		.ascii	"LPC_GPDMACH1 ((LPC_GPDMACH_TypeDef *) LPC_GPDMACH1_"
 9782      4750444D 
 9782      41434831 
 9782      2028284C 
 9782      50435F47 
 9783 7d9a 42415345 		.ascii	"BASE )\000"
 9783      202900
 9784              	.LASF226:
 9785 7da1 5F5F5341 		.ascii	"__SACCUM_FBIT__ 7\000"
 9785      4343554D 
 9785      5F464249 
 9785      545F5F20 
 9785      3700
 9786              		.ident	"GCC: (GNU Tools for ARM Embedded Processors) 5.4.1 20160919 (release) [ARM/embedded-5-bran
ARM GAS  C:\Users\STUDENT\AppData\Local\Temp\cc6DO5vW.s 			page 259


DEFINED SYMBOLS
                            *ABS*:00000000 lpc17xx_gpio.c
C:\Users\STUDENT\AppData\Local\Temp\cc6DO5vW.s:58     .text.GPIO_GetPointer:00000000 $t
C:\Users\STUDENT\AppData\Local\Temp\cc6DO5vW.s:62     .text.GPIO_GetPointer:00000000 GPIO_GetPointer
C:\Users\STUDENT\AppData\Local\Temp\cc6DO5vW.s:90     .text.GPIO_GetPointer:0000001c $d
C:\Users\STUDENT\AppData\Local\Temp\cc6DO5vW.s:95     .text.GPIO_GetPointer:00000030 $t
C:\Users\STUDENT\AppData\Local\Temp\cc6DO5vW.s:146    .text.GPIO_GetPointer:0000005c $d
C:\Users\STUDENT\AppData\Local\Temp\cc6DO5vW.s:155    .text.FIO_HalfWordGetPointer:00000000 $t
C:\Users\STUDENT\AppData\Local\Temp\cc6DO5vW.s:159    .text.FIO_HalfWordGetPointer:00000000 FIO_HalfWordGetPointer
C:\Users\STUDENT\AppData\Local\Temp\cc6DO5vW.s:186    .text.FIO_HalfWordGetPointer:0000001c $d
C:\Users\STUDENT\AppData\Local\Temp\cc6DO5vW.s:191    .text.FIO_HalfWordGetPointer:00000030 $t
C:\Users\STUDENT\AppData\Local\Temp\cc6DO5vW.s:242    .text.FIO_HalfWordGetPointer:0000005c $d
C:\Users\STUDENT\AppData\Local\Temp\cc6DO5vW.s:251    .text.FIO_ByteGetPointer:00000000 $t
C:\Users\STUDENT\AppData\Local\Temp\cc6DO5vW.s:255    .text.FIO_ByteGetPointer:00000000 FIO_ByteGetPointer
C:\Users\STUDENT\AppData\Local\Temp\cc6DO5vW.s:282    .text.FIO_ByteGetPointer:0000001c $d
C:\Users\STUDENT\AppData\Local\Temp\cc6DO5vW.s:287    .text.FIO_ByteGetPointer:00000030 $t
C:\Users\STUDENT\AppData\Local\Temp\cc6DO5vW.s:338    .text.FIO_ByteGetPointer:0000005c $d
C:\Users\STUDENT\AppData\Local\Temp\cc6DO5vW.s:347    .text.GPIO_SetDir:00000000 $t
C:\Users\STUDENT\AppData\Local\Temp\cc6DO5vW.s:352    .text.GPIO_SetDir:00000000 GPIO_SetDir
C:\Users\STUDENT\AppData\Local\Temp\cc6DO5vW.s:415    .text.GPIO_SetValue:00000000 $t
C:\Users\STUDENT\AppData\Local\Temp\cc6DO5vW.s:420    .text.GPIO_SetValue:00000000 GPIO_SetValue
C:\Users\STUDENT\AppData\Local\Temp\cc6DO5vW.s:463    .text.GPIO_ClearValue:00000000 $t
C:\Users\STUDENT\AppData\Local\Temp\cc6DO5vW.s:468    .text.GPIO_ClearValue:00000000 GPIO_ClearValue
C:\Users\STUDENT\AppData\Local\Temp\cc6DO5vW.s:511    .text.GPIO_ReadValue:00000000 $t
C:\Users\STUDENT\AppData\Local\Temp\cc6DO5vW.s:516    .text.GPIO_ReadValue:00000000 GPIO_ReadValue
C:\Users\STUDENT\AppData\Local\Temp\cc6DO5vW.s:561    .text.GPIO_IntCmd:00000000 $t
C:\Users\STUDENT\AppData\Local\Temp\cc6DO5vW.s:566    .text.GPIO_IntCmd:00000000 GPIO_IntCmd
C:\Users\STUDENT\AppData\Local\Temp\cc6DO5vW.s:670    .text.GPIO_IntCmd:00000084 $d
C:\Users\STUDENT\AppData\Local\Temp\cc6DO5vW.s:675    .text.GPIO_GetIntStatus:00000000 $t
C:\Users\STUDENT\AppData\Local\Temp\cc6DO5vW.s:680    .text.GPIO_GetIntStatus:00000000 GPIO_GetIntStatus
C:\Users\STUDENT\AppData\Local\Temp\cc6DO5vW.s:788    .text.GPIO_GetIntStatus:0000009c $d
C:\Users\STUDENT\AppData\Local\Temp\cc6DO5vW.s:793    .text.GPIO_ClearInt:00000000 $t
C:\Users\STUDENT\AppData\Local\Temp\cc6DO5vW.s:798    .text.GPIO_ClearInt:00000000 GPIO_ClearInt
C:\Users\STUDENT\AppData\Local\Temp\cc6DO5vW.s:853    .text.GPIO_ClearInt:00000034 $d
C:\Users\STUDENT\AppData\Local\Temp\cc6DO5vW.s:858    .text.FIO_SetDir:00000000 $t
C:\Users\STUDENT\AppData\Local\Temp\cc6DO5vW.s:863    .text.FIO_SetDir:00000000 FIO_SetDir
C:\Users\STUDENT\AppData\Local\Temp\cc6DO5vW.s:900    .text.FIO_SetValue:00000000 $t
C:\Users\STUDENT\AppData\Local\Temp\cc6DO5vW.s:905    .text.FIO_SetValue:00000000 FIO_SetValue
C:\Users\STUDENT\AppData\Local\Temp\cc6DO5vW.s:939    .text.FIO_ClearValue:00000000 $t
C:\Users\STUDENT\AppData\Local\Temp\cc6DO5vW.s:944    .text.FIO_ClearValue:00000000 FIO_ClearValue
C:\Users\STUDENT\AppData\Local\Temp\cc6DO5vW.s:978    .text.FIO_ReadValue:00000000 $t
C:\Users\STUDENT\AppData\Local\Temp\cc6DO5vW.s:983    .text.FIO_ReadValue:00000000 FIO_ReadValue
C:\Users\STUDENT\AppData\Local\Temp\cc6DO5vW.s:1016   .text.FIO_IntCmd:00000000 $t
C:\Users\STUDENT\AppData\Local\Temp\cc6DO5vW.s:1021   .text.FIO_IntCmd:00000000 FIO_IntCmd
C:\Users\STUDENT\AppData\Local\Temp\cc6DO5vW.s:1058   .text.FIO_GetIntStatus:00000000 $t
C:\Users\STUDENT\AppData\Local\Temp\cc6DO5vW.s:1063   .text.FIO_GetIntStatus:00000000 FIO_GetIntStatus
C:\Users\STUDENT\AppData\Local\Temp\cc6DO5vW.s:1101   .text.FIO_ClearInt:00000000 $t
C:\Users\STUDENT\AppData\Local\Temp\cc6DO5vW.s:1106   .text.FIO_ClearInt:00000000 FIO_ClearInt
C:\Users\STUDENT\AppData\Local\Temp\cc6DO5vW.s:1140   .text.FIO_SetMask:00000000 $t
C:\Users\STUDENT\AppData\Local\Temp\cc6DO5vW.s:1145   .text.FIO_SetMask:00000000 FIO_SetMask
C:\Users\STUDENT\AppData\Local\Temp\cc6DO5vW.s:1208   .text.FIO_HalfWordSetDir:00000000 $t
C:\Users\STUDENT\AppData\Local\Temp\cc6DO5vW.s:1213   .text.FIO_HalfWordSetDir:00000000 FIO_HalfWordSetDir
C:\Users\STUDENT\AppData\Local\Temp\cc6DO5vW.s:1327   .text.FIO_HalfWordSetMask:00000000 $t
C:\Users\STUDENT\AppData\Local\Temp\cc6DO5vW.s:1332   .text.FIO_HalfWordSetMask:00000000 FIO_HalfWordSetMask
C:\Users\STUDENT\AppData\Local\Temp\cc6DO5vW.s:1446   .text.FIO_HalfWordSetValue:00000000 $t
C:\Users\STUDENT\AppData\Local\Temp\cc6DO5vW.s:1451   .text.FIO_HalfWordSetValue:00000000 FIO_HalfWordSetValue
C:\Users\STUDENT\AppData\Local\Temp\cc6DO5vW.s:1508   .text.FIO_HalfWordClearValue:00000000 $t
ARM GAS  C:\Users\STUDENT\AppData\Local\Temp\cc6DO5vW.s 			page 260


C:\Users\STUDENT\AppData\Local\Temp\cc6DO5vW.s:1513   .text.FIO_HalfWordClearValue:00000000 FIO_HalfWordClearValue
C:\Users\STUDENT\AppData\Local\Temp\cc6DO5vW.s:1570   .text.FIO_HalfWordReadValue:00000000 $t
C:\Users\STUDENT\AppData\Local\Temp\cc6DO5vW.s:1575   .text.FIO_HalfWordReadValue:00000000 FIO_HalfWordReadValue
C:\Users\STUDENT\AppData\Local\Temp\cc6DO5vW.s:1634   .text.FIO_ByteSetDir:00000000 $t
C:\Users\STUDENT\AppData\Local\Temp\cc6DO5vW.s:1639   .text.FIO_ByteSetDir:00000000 FIO_ByteSetDir
C:\Users\STUDENT\AppData\Local\Temp\cc6DO5vW.s:1729   .text.FIO_ByteSetMask:00000000 $t
C:\Users\STUDENT\AppData\Local\Temp\cc6DO5vW.s:1734   .text.FIO_ByteSetMask:00000000 FIO_ByteSetMask
C:\Users\STUDENT\AppData\Local\Temp\cc6DO5vW.s:1830   .text.FIO_ByteSetValue:00000000 $t
C:\Users\STUDENT\AppData\Local\Temp\cc6DO5vW.s:1835   .text.FIO_ByteSetValue:00000000 FIO_ByteSetValue
C:\Users\STUDENT\AppData\Local\Temp\cc6DO5vW.s:1887   .text.FIO_ByteClearValue:00000000 $t
C:\Users\STUDENT\AppData\Local\Temp\cc6DO5vW.s:1892   .text.FIO_ByteClearValue:00000000 FIO_ByteClearValue
C:\Users\STUDENT\AppData\Local\Temp\cc6DO5vW.s:1944   .text.FIO_ByteReadValue:00000000 $t
C:\Users\STUDENT\AppData\Local\Temp\cc6DO5vW.s:1949   .text.FIO_ByteReadValue:00000000 FIO_ByteReadValue
                     .debug_frame:00000010 $d
                           .group:00000000 wm4.0.c0d9c46791312c607b68c96c4ad07fb1
                           .group:00000000 wm4.LPC17xx.h.27.964facdaadd4aa3f18ac78c8a78f0013
                           .group:00000000 wm4.core_cm3.h.32.ec4df48419563a0d596421d1133ac586
                           .group:00000000 wm4._newlib_version.h.4.ad342815780c8db09778091a421b5b5b
                           .group:00000000 wm4.features.h.33.863f3be0b2e521e624fcc7d6fa31d2ca
                           .group:00000000 wm4._default_types.h.15.933e8edd27a65e0b69af4a865eb623d2
                           .group:00000000 wm4._intsup.h.10.b82bf99f69d6a5c085fc866de0d3eb9b
                           .group:00000000 wm4._stdint.h.10.7a5f60e6741af4a5594a3867d347e1f9
                           .group:00000000 wm4.stdint.h.23.373a9d32a9e4c2e88fd347156532d281
                           .group:00000000 wm4.core_cmInstr.h.25.367280a3dbe1a27f086157cbbb6352e1
                           .group:00000000 wm4.core_cm3.h.90.d0c8a7fd6bb95729c958e48b22262446
                           .group:00000000 wm4.LPC17xx.h.953.77a3a85f2f7c5b921d480655a6f3d5b1
                           .group:00000000 wm4.lpc_types.h.31.fe468f0c170b3f2fb639f9a689afb2c4
                           .group:00000000 wm4.lpc17xx_gpio.h.46.bb938143fd7eb0f6afd2eec72bcfb190
                           .group:00000000 wm4.lpc17xx_libcfg_default.h.27.7c412cdf4245ef94b86bdcf981a232f0

NO UNDEFINED SYMBOLS
