ARM GAS  C:\Users\STUDENT\AppData\Local\Temp\cc98amK8.s 			page 1


   1              		.syntax unified
   2              		.cpu cortex-m3
   3              		.fpu softvfp
   4              		.eabi_attribute 20, 1	@ Tag_ABI_FP_denormal
   5              		.eabi_attribute 21, 1	@ Tag_ABI_FP_exceptions
   6              		.eabi_attribute 23, 3	@ Tag_ABI_FP_number_model
   7              		.eabi_attribute 24, 1	@ Tag_ABI_align8_needed
   8              		.eabi_attribute 25, 1	@ Tag_ABI_align8_preserved
   9              		.eabi_attribute 26, 1	@ Tag_ABI_enum_size
  10              		.eabi_attribute 30, 6	@ Tag_ABI_optimization_goals
  11              		.eabi_attribute 34, 1	@ Tag_CPU_unaligned_access
  12              		.eabi_attribute 18, 4	@ Tag_ABI_PCS_wchar_t
  13              		.file	"port.c"
  14              	@ GNU C89 (GNU Tools for ARM Embedded Processors) version 5.4.1 20160919 (release) [ARM/embedded-5-
  15              	@	compiled by GNU C version 4.7.4, GMP version 4.3.2, MPFR version 2.4.2, MPC version 0.8.1
  16              	@ GGC heuristics: --param ggc-min-expand=100 --param ggc-min-heapsize=131072
  17              	@ options passed:  -I . -I config -I system -I core -I drivers -I FreeRTOS
  18              	@ -I FreeRTOS/include -I FreeRTOS/portable/GCC/ARM_CM3 -I FreeRTOS/portable
  19              	@ -I tasks/rc_task_leds -I modules/rc_leds -I drivers/rc_system
  20              	@ -I drivers/rc_gpio -I drivers/rc_uart -I drivers/rc_pinsel
  21              	@ -I drivers/rc_timer -I drivers/rc_adc -imultilib armv7-m
  22              	@ -iprefix c:\program files (x86)\gnu tools arm embedded\5.4 2016q3\bin\../lib/gcc/arm-none-eabi/5.
  23              	@ -isysroot c:\program files (x86)\gnu tools arm embedded\5.4 2016q3\bin\../arm-none-eabi
  24              	@ -MD out/port.d -MF out/port.d -MP -MQ out/port.o -D__USES_INITFINI__
  25              	@ FreeRTOS/portable/GCC/ARM_CM3/port.c -mcpu=cortex-m3 -mthumb
  26              	@ -auxbase-strip out/port.o -g -ggdb3 -O0 -Wall -Wstrict-prototypes -Wextra
  27              	@ -std=gnu90 -ffunction-sections -fdata-sections -fverbose-asm
  28              	@ options enabled:  -faggressive-loop-optimizations -fauto-inc-dec
  29              	@ -fchkp-check-incomplete-type -fchkp-check-read -fchkp-check-write
  30              	@ -fchkp-instrument-calls -fchkp-narrow-bounds -fchkp-optimize
  31              	@ -fchkp-store-bounds -fchkp-use-static-bounds
  32              	@ -fchkp-use-static-const-bounds -fchkp-use-wrappers -fcommon
  33              	@ -fdata-sections -fdelete-null-pointer-checks -fdwarf2-cfi-asm
  34              	@ -fearly-inlining -feliminate-unused-debug-types -ffunction-cse
  35              	@ -ffunction-sections -fgcse-lm -fgnu-runtime -fgnu-unique -fident
  36              	@ -finline-atomics -fira-hoist-pressure -fira-share-save-slots
  37              	@ -fira-share-spill-slots -fivopts -fkeep-static-consts
  38              	@ -fleading-underscore -flifetime-dse -flto-odr-type-merging -fmath-errno
  39              	@ -fmerge-debug-strings -fpeephole -fprefetch-loop-arrays
  40              	@ -freg-struct-return -fsched-critical-path-heuristic
  41              	@ -fsched-dep-count-heuristic -fsched-group-heuristic -fsched-interblock
  42              	@ -fsched-last-insn-heuristic -fsched-rank-heuristic -fsched-spec
  43              	@ -fsched-spec-insn-heuristic -fsched-stalled-insns-dep
  44              	@ -fsemantic-interposition -fshow-column -fsigned-zeros
  45              	@ -fsplit-ivs-in-unroller -fstdarg-opt -fstrict-volatile-bitfields
  46              	@ -fsync-libcalls -ftrapping-math -ftree-coalesce-vars -ftree-cselim
  47              	@ -ftree-forwprop -ftree-loop-if-convert -ftree-loop-im -ftree-loop-ivcanon
  48              	@ -ftree-loop-optimize -ftree-parallelize-loops= -ftree-phiprop
  49              	@ -ftree-reassoc -ftree-scev-cprop -funit-at-a-time -fverbose-asm
  50              	@ -fzero-initialized-in-bss -masm-syntax-unified -mfix-cortex-m3-ldrd
  51              	@ -mlittle-endian -mpic-data-is-text-relative -msched-prolog -mthumb
  52              	@ -munaligned-access -mvectorize-with-neon-quad
  53              	
  54              		.text
  55              	.Ltext0:
  56              		.cfi_sections	.debug_frame
  57              		.section	.data.uxCriticalNesting,"aw",%progbits
ARM GAS  C:\Users\STUDENT\AppData\Local\Temp\cc98amK8.s 			page 2


  58              		.align	2
  59              		.type	uxCriticalNesting, %object
  60              		.size	uxCriticalNesting, 4
  61              	uxCriticalNesting:
  62 0000 AAAAAAAA 		.word	-1431655766
  63              		.section	.bss.ucMaxSysCallPriority,"aw",%nobits
  64              		.type	ucMaxSysCallPriority, %object
  65              		.size	ucMaxSysCallPriority, 1
  66              	ucMaxSysCallPriority:
  67 0000 00       		.space	1
  68              		.section	.bss.ulMaxPRIGROUPValue,"aw",%nobits
  69              		.align	2
  70              		.type	ulMaxPRIGROUPValue, %object
  71              		.size	ulMaxPRIGROUPValue, 4
  72              	ulMaxPRIGROUPValue:
  73 0000 00000000 		.space	4
  74              		.section	.rodata.pcInterruptPriorityRegisters,"a",%progbits
  75              		.align	2
  76              		.type	pcInterruptPriorityRegisters, %object
  77              		.size	pcInterruptPriorityRegisters, 4
  78              	pcInterruptPriorityRegisters:
  79 0000 F0E300E0 		.word	-536812560
  80              		.section	.text.pxPortInitialiseStack,"ax",%progbits
  81              		.align	2
  82              		.global	pxPortInitialiseStack
  83              		.thumb
  84              		.thumb_func
  85              		.type	pxPortInitialiseStack, %function
  86              	pxPortInitialiseStack:
  87              	.LFB1:
  88              		.file 1 "FreeRTOS/portable/GCC/ARM_CM3/port.c"
   1:FreeRTOS/portable/GCC/ARM_CM3/port.c **** /*
   2:FreeRTOS/portable/GCC/ARM_CM3/port.c ****     FreeRTOS V8.1.2 - Copyright (C) 2014 Real Time Engineers Ltd.
   3:FreeRTOS/portable/GCC/ARM_CM3/port.c ****     All rights reserved
   4:FreeRTOS/portable/GCC/ARM_CM3/port.c **** 
   5:FreeRTOS/portable/GCC/ARM_CM3/port.c ****     VISIT http://www.FreeRTOS.org TO ENSURE YOU ARE USING THE LATEST VERSION.
   6:FreeRTOS/portable/GCC/ARM_CM3/port.c **** 
   7:FreeRTOS/portable/GCC/ARM_CM3/port.c ****     ***************************************************************************
   8:FreeRTOS/portable/GCC/ARM_CM3/port.c ****      *                                                                       *
   9:FreeRTOS/portable/GCC/ARM_CM3/port.c ****      *    FreeRTOS provides completely free yet professionally developed,    *
  10:FreeRTOS/portable/GCC/ARM_CM3/port.c ****      *    robust, strictly quality controlled, supported, and cross          *
  11:FreeRTOS/portable/GCC/ARM_CM3/port.c ****      *    platform software that has become a de facto standard.             *
  12:FreeRTOS/portable/GCC/ARM_CM3/port.c ****      *                                                                       *
  13:FreeRTOS/portable/GCC/ARM_CM3/port.c ****      *    Help yourself get started quickly and support the FreeRTOS         *
  14:FreeRTOS/portable/GCC/ARM_CM3/port.c ****      *    project by purchasing a FreeRTOS tutorial book, reference          *
  15:FreeRTOS/portable/GCC/ARM_CM3/port.c ****      *    manual, or both from: http://www.FreeRTOS.org/Documentation        *
  16:FreeRTOS/portable/GCC/ARM_CM3/port.c ****      *                                                                       *
  17:FreeRTOS/portable/GCC/ARM_CM3/port.c ****      *    Thank you!                                                         *
  18:FreeRTOS/portable/GCC/ARM_CM3/port.c ****      *                                                                       *
  19:FreeRTOS/portable/GCC/ARM_CM3/port.c ****     ***************************************************************************
  20:FreeRTOS/portable/GCC/ARM_CM3/port.c **** 
  21:FreeRTOS/portable/GCC/ARM_CM3/port.c ****     This file is part of the FreeRTOS distribution.
  22:FreeRTOS/portable/GCC/ARM_CM3/port.c **** 
  23:FreeRTOS/portable/GCC/ARM_CM3/port.c ****     FreeRTOS is free software; you can redistribute it and/or modify it under
  24:FreeRTOS/portable/GCC/ARM_CM3/port.c ****     the terms of the GNU General Public License (version 2) as published by the
  25:FreeRTOS/portable/GCC/ARM_CM3/port.c ****     Free Software Foundation >>!AND MODIFIED BY!<< the FreeRTOS exception.
  26:FreeRTOS/portable/GCC/ARM_CM3/port.c **** 
ARM GAS  C:\Users\STUDENT\AppData\Local\Temp\cc98amK8.s 			page 3


  27:FreeRTOS/portable/GCC/ARM_CM3/port.c ****     >>!   NOTE: The modification to the GPL is included to allow you to     !<<
  28:FreeRTOS/portable/GCC/ARM_CM3/port.c ****     >>!   distribute a combined work that includes FreeRTOS without being   !<<
  29:FreeRTOS/portable/GCC/ARM_CM3/port.c ****     >>!   obliged to provide the source code for proprietary components     !<<
  30:FreeRTOS/portable/GCC/ARM_CM3/port.c ****     >>!   outside of the FreeRTOS kernel.                                   !<<
  31:FreeRTOS/portable/GCC/ARM_CM3/port.c **** 
  32:FreeRTOS/portable/GCC/ARM_CM3/port.c ****     FreeRTOS is distributed in the hope that it will be useful, but WITHOUT ANY
  33:FreeRTOS/portable/GCC/ARM_CM3/port.c ****     WARRANTY; without even the implied warranty of MERCHANTABILITY or FITNESS
  34:FreeRTOS/portable/GCC/ARM_CM3/port.c ****     FOR A PARTICULAR PURPOSE.  Full license text is available from the following
  35:FreeRTOS/portable/GCC/ARM_CM3/port.c ****     link: http://www.freertos.org/a00114.html
  36:FreeRTOS/portable/GCC/ARM_CM3/port.c **** 
  37:FreeRTOS/portable/GCC/ARM_CM3/port.c ****     1 tab == 4 spaces!
  38:FreeRTOS/portable/GCC/ARM_CM3/port.c **** 
  39:FreeRTOS/portable/GCC/ARM_CM3/port.c ****     ***************************************************************************
  40:FreeRTOS/portable/GCC/ARM_CM3/port.c ****      *                                                                       *
  41:FreeRTOS/portable/GCC/ARM_CM3/port.c ****      *    Having a problem?  Start by reading the FAQ "My application does   *
  42:FreeRTOS/portable/GCC/ARM_CM3/port.c ****      *    not run, what could be wrong?"                                     *
  43:FreeRTOS/portable/GCC/ARM_CM3/port.c ****      *                                                                       *
  44:FreeRTOS/portable/GCC/ARM_CM3/port.c ****      *    http://www.FreeRTOS.org/FAQHelp.html                               *
  45:FreeRTOS/portable/GCC/ARM_CM3/port.c ****      *                                                                       *
  46:FreeRTOS/portable/GCC/ARM_CM3/port.c ****     ***************************************************************************
  47:FreeRTOS/portable/GCC/ARM_CM3/port.c **** 
  48:FreeRTOS/portable/GCC/ARM_CM3/port.c ****     http://www.FreeRTOS.org - Documentation, books, training, latest versions,
  49:FreeRTOS/portable/GCC/ARM_CM3/port.c ****     license and Real Time Engineers Ltd. contact details.
  50:FreeRTOS/portable/GCC/ARM_CM3/port.c **** 
  51:FreeRTOS/portable/GCC/ARM_CM3/port.c ****     http://www.FreeRTOS.org/plus - A selection of FreeRTOS ecosystem products,
  52:FreeRTOS/portable/GCC/ARM_CM3/port.c ****     including FreeRTOS+Trace - an indispensable productivity tool, a DOS
  53:FreeRTOS/portable/GCC/ARM_CM3/port.c ****     compatible FAT file system, and our tiny thread aware UDP/IP stack.
  54:FreeRTOS/portable/GCC/ARM_CM3/port.c **** 
  55:FreeRTOS/portable/GCC/ARM_CM3/port.c ****     http://www.OpenRTOS.com - Real Time Engineers ltd license FreeRTOS to High
  56:FreeRTOS/portable/GCC/ARM_CM3/port.c ****     Integrity Systems to sell under the OpenRTOS brand.  Low cost OpenRTOS
  57:FreeRTOS/portable/GCC/ARM_CM3/port.c ****     licenses offer ticketed support, indemnification and middleware.
  58:FreeRTOS/portable/GCC/ARM_CM3/port.c **** 
  59:FreeRTOS/portable/GCC/ARM_CM3/port.c ****     http://www.SafeRTOS.com - High Integrity Systems also provide a safety
  60:FreeRTOS/portable/GCC/ARM_CM3/port.c ****     engineered and independently SIL3 certified version for use in safety and
  61:FreeRTOS/portable/GCC/ARM_CM3/port.c ****     mission critical applications that require provable dependability.
  62:FreeRTOS/portable/GCC/ARM_CM3/port.c **** 
  63:FreeRTOS/portable/GCC/ARM_CM3/port.c ****     1 tab == 4 spaces!
  64:FreeRTOS/portable/GCC/ARM_CM3/port.c **** */
  65:FreeRTOS/portable/GCC/ARM_CM3/port.c **** 
  66:FreeRTOS/portable/GCC/ARM_CM3/port.c **** /*-----------------------------------------------------------
  67:FreeRTOS/portable/GCC/ARM_CM3/port.c ****  * Implementation of functions defined in portable.h for the ARM CM3 port.
  68:FreeRTOS/portable/GCC/ARM_CM3/port.c ****  *----------------------------------------------------------*/
  69:FreeRTOS/portable/GCC/ARM_CM3/port.c **** 
  70:FreeRTOS/portable/GCC/ARM_CM3/port.c **** /* Scheduler includes. */
  71:FreeRTOS/portable/GCC/ARM_CM3/port.c **** #include "FreeRTOS.h"
  72:FreeRTOS/portable/GCC/ARM_CM3/port.c **** #include "task.h"
  73:FreeRTOS/portable/GCC/ARM_CM3/port.c **** 
  74:FreeRTOS/portable/GCC/ARM_CM3/port.c **** /* For backward compatibility, ensure configKERNEL_INTERRUPT_PRIORITY is
  75:FreeRTOS/portable/GCC/ARM_CM3/port.c **** defined.  The value should also ensure backward compatibility.
  76:FreeRTOS/portable/GCC/ARM_CM3/port.c **** FreeRTOS.org versions prior to V4.4.0 did not include this definition. */
  77:FreeRTOS/portable/GCC/ARM_CM3/port.c **** #ifndef configKERNEL_INTERRUPT_PRIORITY
  78:FreeRTOS/portable/GCC/ARM_CM3/port.c **** 	#define configKERNEL_INTERRUPT_PRIORITY 255
  79:FreeRTOS/portable/GCC/ARM_CM3/port.c **** #endif
  80:FreeRTOS/portable/GCC/ARM_CM3/port.c **** 
  81:FreeRTOS/portable/GCC/ARM_CM3/port.c **** #ifndef configSYSTICK_CLOCK_HZ
  82:FreeRTOS/portable/GCC/ARM_CM3/port.c **** 	#define configSYSTICK_CLOCK_HZ configCPU_CLOCK_HZ
  83:FreeRTOS/portable/GCC/ARM_CM3/port.c **** 	/* Ensure the SysTick is clocked at the same frequency as the core. */
ARM GAS  C:\Users\STUDENT\AppData\Local\Temp\cc98amK8.s 			page 4


  84:FreeRTOS/portable/GCC/ARM_CM3/port.c **** 	#define portNVIC_SYSTICK_CLK_BIT	( 1UL << 2UL )
  85:FreeRTOS/portable/GCC/ARM_CM3/port.c **** #else
  86:FreeRTOS/portable/GCC/ARM_CM3/port.c **** 	/* The way the SysTick is clocked is not modified in case it is not the same
  87:FreeRTOS/portable/GCC/ARM_CM3/port.c **** 	as the core. */
  88:FreeRTOS/portable/GCC/ARM_CM3/port.c **** 	#define portNVIC_SYSTICK_CLK_BIT	( 0 )
  89:FreeRTOS/portable/GCC/ARM_CM3/port.c **** #endif
  90:FreeRTOS/portable/GCC/ARM_CM3/port.c **** 
  91:FreeRTOS/portable/GCC/ARM_CM3/port.c **** /* Constants required to manipulate the core.  Registers first... */
  92:FreeRTOS/portable/GCC/ARM_CM3/port.c **** #define portNVIC_SYSTICK_CTRL_REG			( * ( ( volatile uint32_t * ) 0xe000e010 ) )
  93:FreeRTOS/portable/GCC/ARM_CM3/port.c **** #define portNVIC_SYSTICK_LOAD_REG			( * ( ( volatile uint32_t * ) 0xe000e014 ) )
  94:FreeRTOS/portable/GCC/ARM_CM3/port.c **** #define portNVIC_SYSTICK_CURRENT_VALUE_REG	( * ( ( volatile uint32_t * ) 0xe000e018 ) )
  95:FreeRTOS/portable/GCC/ARM_CM3/port.c **** #define portNVIC_SYSPRI2_REG				( * ( ( volatile uint32_t * ) 0xe000ed20 ) )
  96:FreeRTOS/portable/GCC/ARM_CM3/port.c **** /* ...then bits in the registers. */
  97:FreeRTOS/portable/GCC/ARM_CM3/port.c **** #define portNVIC_SYSTICK_INT_BIT			( 1UL << 1UL )
  98:FreeRTOS/portable/GCC/ARM_CM3/port.c **** #define portNVIC_SYSTICK_ENABLE_BIT			( 1UL << 0UL )
  99:FreeRTOS/portable/GCC/ARM_CM3/port.c **** #define portNVIC_SYSTICK_COUNT_FLAG_BIT		( 1UL << 16UL )
 100:FreeRTOS/portable/GCC/ARM_CM3/port.c **** #define portNVIC_PENDSVCLEAR_BIT 			( 1UL << 27UL )
 101:FreeRTOS/portable/GCC/ARM_CM3/port.c **** #define portNVIC_PEND_SYSTICK_CLEAR_BIT		( 1UL << 25UL )
 102:FreeRTOS/portable/GCC/ARM_CM3/port.c **** 
 103:FreeRTOS/portable/GCC/ARM_CM3/port.c **** #define portNVIC_PENDSV_PRI					( ( ( uint32_t ) configKERNEL_INTERRUPT_PRIORITY ) << 16UL )
 104:FreeRTOS/portable/GCC/ARM_CM3/port.c **** #define portNVIC_SYSTICK_PRI				( ( ( uint32_t ) configKERNEL_INTERRUPT_PRIORITY ) << 24UL )
 105:FreeRTOS/portable/GCC/ARM_CM3/port.c **** 
 106:FreeRTOS/portable/GCC/ARM_CM3/port.c **** /* Constants required to check the validity of an interrupt priority. */
 107:FreeRTOS/portable/GCC/ARM_CM3/port.c **** #define portFIRST_USER_INTERRUPT_NUMBER		( 16 )
 108:FreeRTOS/portable/GCC/ARM_CM3/port.c **** #define portNVIC_IP_REGISTERS_OFFSET_16 	( 0xE000E3F0 )
 109:FreeRTOS/portable/GCC/ARM_CM3/port.c **** #define portAIRCR_REG						( * ( ( volatile uint32_t * ) 0xE000ED0C ) )
 110:FreeRTOS/portable/GCC/ARM_CM3/port.c **** #define portMAX_8_BIT_VALUE					( ( uint8_t ) 0xff )
 111:FreeRTOS/portable/GCC/ARM_CM3/port.c **** #define portTOP_BIT_OF_BYTE					( ( uint8_t ) 0x80 )
 112:FreeRTOS/portable/GCC/ARM_CM3/port.c **** #define portMAX_PRIGROUP_BITS				( ( uint8_t ) 7 )
 113:FreeRTOS/portable/GCC/ARM_CM3/port.c **** #define portPRIORITY_GROUP_MASK				( 0x07UL << 8UL )
 114:FreeRTOS/portable/GCC/ARM_CM3/port.c **** #define portPRIGROUP_SHIFT					( 8UL )
 115:FreeRTOS/portable/GCC/ARM_CM3/port.c **** 
 116:FreeRTOS/portable/GCC/ARM_CM3/port.c **** /* Masks off all bits but the VECTACTIVE bits in the ICSR register. */
 117:FreeRTOS/portable/GCC/ARM_CM3/port.c **** #define portVECTACTIVE_MASK					( 0x1FUL )
 118:FreeRTOS/portable/GCC/ARM_CM3/port.c **** 
 119:FreeRTOS/portable/GCC/ARM_CM3/port.c **** /* Constants required to set up the initial stack. */
 120:FreeRTOS/portable/GCC/ARM_CM3/port.c **** #define portINITIAL_XPSR					( 0x01000000UL )
 121:FreeRTOS/portable/GCC/ARM_CM3/port.c **** 
 122:FreeRTOS/portable/GCC/ARM_CM3/port.c **** /* The systick is a 24-bit counter. */
 123:FreeRTOS/portable/GCC/ARM_CM3/port.c **** #define portMAX_24_BIT_NUMBER				( 0xffffffUL )
 124:FreeRTOS/portable/GCC/ARM_CM3/port.c **** 
 125:FreeRTOS/portable/GCC/ARM_CM3/port.c **** /* A fiddle factor to estimate the number of SysTick counts that would have
 126:FreeRTOS/portable/GCC/ARM_CM3/port.c **** occurred while the SysTick counter is stopped during tickless idle
 127:FreeRTOS/portable/GCC/ARM_CM3/port.c **** calculations. */
 128:FreeRTOS/portable/GCC/ARM_CM3/port.c **** #define portMISSED_COUNTS_FACTOR			( 45UL )
 129:FreeRTOS/portable/GCC/ARM_CM3/port.c **** 
 130:FreeRTOS/portable/GCC/ARM_CM3/port.c **** /* Let the user override the pre-loading of the initial LR with the address of
 131:FreeRTOS/portable/GCC/ARM_CM3/port.c **** prvTaskExitError() in case is messes up unwinding of the stack in the
 132:FreeRTOS/portable/GCC/ARM_CM3/port.c **** debugger. */
 133:FreeRTOS/portable/GCC/ARM_CM3/port.c **** #ifdef configTASK_RETURN_ADDRESS
 134:FreeRTOS/portable/GCC/ARM_CM3/port.c **** 	#define portTASK_RETURN_ADDRESS	configTASK_RETURN_ADDRESS
 135:FreeRTOS/portable/GCC/ARM_CM3/port.c **** #else
 136:FreeRTOS/portable/GCC/ARM_CM3/port.c **** 	#define portTASK_RETURN_ADDRESS	prvTaskExitError
 137:FreeRTOS/portable/GCC/ARM_CM3/port.c **** #endif
 138:FreeRTOS/portable/GCC/ARM_CM3/port.c **** 
 139:FreeRTOS/portable/GCC/ARM_CM3/port.c **** /* Each task maintains its own interrupt status in the critical nesting
 140:FreeRTOS/portable/GCC/ARM_CM3/port.c **** variable. */
ARM GAS  C:\Users\STUDENT\AppData\Local\Temp\cc98amK8.s 			page 5


 141:FreeRTOS/portable/GCC/ARM_CM3/port.c **** static UBaseType_t uxCriticalNesting = 0xaaaaaaaa;
 142:FreeRTOS/portable/GCC/ARM_CM3/port.c **** 
 143:FreeRTOS/portable/GCC/ARM_CM3/port.c **** /*
 144:FreeRTOS/portable/GCC/ARM_CM3/port.c ****  * Setup the timer to generate the tick interrupts.  The implementation in this
 145:FreeRTOS/portable/GCC/ARM_CM3/port.c ****  * file is weak to allow application writers to change the timer used to
 146:FreeRTOS/portable/GCC/ARM_CM3/port.c ****  * generate the tick interrupt.
 147:FreeRTOS/portable/GCC/ARM_CM3/port.c ****  */
 148:FreeRTOS/portable/GCC/ARM_CM3/port.c **** void vPortSetupTimerInterrupt( void );
 149:FreeRTOS/portable/GCC/ARM_CM3/port.c **** 
 150:FreeRTOS/portable/GCC/ARM_CM3/port.c **** /*
 151:FreeRTOS/portable/GCC/ARM_CM3/port.c ****  * Exception handlers.
 152:FreeRTOS/portable/GCC/ARM_CM3/port.c ****  */
 153:FreeRTOS/portable/GCC/ARM_CM3/port.c **** void xPortPendSVHandler( void ) __attribute__ (( naked ));
 154:FreeRTOS/portable/GCC/ARM_CM3/port.c **** void xPortSysTickHandler( void );
 155:FreeRTOS/portable/GCC/ARM_CM3/port.c **** void vPortSVCHandler( void ) __attribute__ (( naked ));
 156:FreeRTOS/portable/GCC/ARM_CM3/port.c **** 
 157:FreeRTOS/portable/GCC/ARM_CM3/port.c **** /*
 158:FreeRTOS/portable/GCC/ARM_CM3/port.c ****  * Start first task is a separate function so it can be tested in isolation.
 159:FreeRTOS/portable/GCC/ARM_CM3/port.c ****  */
 160:FreeRTOS/portable/GCC/ARM_CM3/port.c **** static void prvPortStartFirstTask( void ) __attribute__ (( naked ));
 161:FreeRTOS/portable/GCC/ARM_CM3/port.c **** 
 162:FreeRTOS/portable/GCC/ARM_CM3/port.c **** /*
 163:FreeRTOS/portable/GCC/ARM_CM3/port.c ****  * Used to catch tasks that attempt to return from their implementing function.
 164:FreeRTOS/portable/GCC/ARM_CM3/port.c ****  */
 165:FreeRTOS/portable/GCC/ARM_CM3/port.c **** static void prvTaskExitError( void );
 166:FreeRTOS/portable/GCC/ARM_CM3/port.c **** 
 167:FreeRTOS/portable/GCC/ARM_CM3/port.c **** /*-----------------------------------------------------------*/
 168:FreeRTOS/portable/GCC/ARM_CM3/port.c **** 
 169:FreeRTOS/portable/GCC/ARM_CM3/port.c **** /*
 170:FreeRTOS/portable/GCC/ARM_CM3/port.c ****  * The number of SysTick increments that make up one tick period.
 171:FreeRTOS/portable/GCC/ARM_CM3/port.c ****  */
 172:FreeRTOS/portable/GCC/ARM_CM3/port.c **** #if configUSE_TICKLESS_IDLE == 1
 173:FreeRTOS/portable/GCC/ARM_CM3/port.c **** 	static uint32_t ulTimerCountsForOneTick = 0;
 174:FreeRTOS/portable/GCC/ARM_CM3/port.c **** #endif /* configUSE_TICKLESS_IDLE */
 175:FreeRTOS/portable/GCC/ARM_CM3/port.c **** 
 176:FreeRTOS/portable/GCC/ARM_CM3/port.c **** /*
 177:FreeRTOS/portable/GCC/ARM_CM3/port.c ****  * The maximum number of tick periods that can be suppressed is limited by the
 178:FreeRTOS/portable/GCC/ARM_CM3/port.c ****  * 24 bit resolution of the SysTick timer.
 179:FreeRTOS/portable/GCC/ARM_CM3/port.c ****  */
 180:FreeRTOS/portable/GCC/ARM_CM3/port.c **** #if configUSE_TICKLESS_IDLE == 1
 181:FreeRTOS/portable/GCC/ARM_CM3/port.c **** 	static uint32_t xMaximumPossibleSuppressedTicks = 0;
 182:FreeRTOS/portable/GCC/ARM_CM3/port.c **** #endif /* configUSE_TICKLESS_IDLE */
 183:FreeRTOS/portable/GCC/ARM_CM3/port.c **** 
 184:FreeRTOS/portable/GCC/ARM_CM3/port.c **** /*
 185:FreeRTOS/portable/GCC/ARM_CM3/port.c ****  * Compensate for the CPU cycles that pass while the SysTick is stopped (low
 186:FreeRTOS/portable/GCC/ARM_CM3/port.c ****  * power functionality only.
 187:FreeRTOS/portable/GCC/ARM_CM3/port.c ****  */
 188:FreeRTOS/portable/GCC/ARM_CM3/port.c **** #if configUSE_TICKLESS_IDLE == 1
 189:FreeRTOS/portable/GCC/ARM_CM3/port.c **** 	static uint32_t ulStoppedTimerCompensation = 0;
 190:FreeRTOS/portable/GCC/ARM_CM3/port.c **** #endif /* configUSE_TICKLESS_IDLE */
 191:FreeRTOS/portable/GCC/ARM_CM3/port.c **** 
 192:FreeRTOS/portable/GCC/ARM_CM3/port.c **** /*
 193:FreeRTOS/portable/GCC/ARM_CM3/port.c ****  * Used by the portASSERT_IF_INTERRUPT_PRIORITY_INVALID() macro to ensure
 194:FreeRTOS/portable/GCC/ARM_CM3/port.c ****  * FreeRTOS API functions are not called from interrupts that have been assigned
 195:FreeRTOS/portable/GCC/ARM_CM3/port.c ****  * a priority above configMAX_SYSCALL_INTERRUPT_PRIORITY.
 196:FreeRTOS/portable/GCC/ARM_CM3/port.c ****  */
 197:FreeRTOS/portable/GCC/ARM_CM3/port.c **** #if ( configASSERT_DEFINED == 1 )
ARM GAS  C:\Users\STUDENT\AppData\Local\Temp\cc98amK8.s 			page 6


 198:FreeRTOS/portable/GCC/ARM_CM3/port.c **** 	 static uint8_t ucMaxSysCallPriority = 0;
 199:FreeRTOS/portable/GCC/ARM_CM3/port.c **** 	 static uint32_t ulMaxPRIGROUPValue = 0;
 200:FreeRTOS/portable/GCC/ARM_CM3/port.c **** 	 static const volatile uint8_t * const pcInterruptPriorityRegisters = ( const volatile uint8_t * c
 201:FreeRTOS/portable/GCC/ARM_CM3/port.c **** #endif /* configASSERT_DEFINED */
 202:FreeRTOS/portable/GCC/ARM_CM3/port.c **** 
 203:FreeRTOS/portable/GCC/ARM_CM3/port.c **** /*-----------------------------------------------------------*/
 204:FreeRTOS/portable/GCC/ARM_CM3/port.c **** 
 205:FreeRTOS/portable/GCC/ARM_CM3/port.c **** /*
 206:FreeRTOS/portable/GCC/ARM_CM3/port.c ****  * See header file for description.
 207:FreeRTOS/portable/GCC/ARM_CM3/port.c ****  */
 208:FreeRTOS/portable/GCC/ARM_CM3/port.c **** StackType_t *pxPortInitialiseStack( StackType_t *pxTopOfStack, TaskFunction_t pxCode, void *pvParam
 209:FreeRTOS/portable/GCC/ARM_CM3/port.c **** {
  89              		.loc 1 209 0
  90              		.cfi_startproc
  91              		@ args = 0, pretend = 0, frame = 16
  92              		@ frame_needed = 1, uses_anonymous_args = 0
  93              		@ link register save eliminated.
  94 0000 80B4     		push	{r7}	@
  95              		.cfi_def_cfa_offset 4
  96              		.cfi_offset 7, -4
  97 0002 85B0     		sub	sp, sp, #20	@,,
  98              		.cfi_def_cfa_offset 24
  99 0004 00AF     		add	r7, sp, #0	@,,
 100              		.cfi_def_cfa_register 7
 101 0006 F860     		str	r0, [r7, #12]	@ pxTopOfStack, pxTopOfStack
 102 0008 B960     		str	r1, [r7, #8]	@ pxCode, pxCode
 103 000a 7A60     		str	r2, [r7, #4]	@ pvParameters, pvParameters
 210:FreeRTOS/portable/GCC/ARM_CM3/port.c **** 	/* Simulate the stack frame as it would be created by a context switch
 211:FreeRTOS/portable/GCC/ARM_CM3/port.c **** 	interrupt. */
 212:FreeRTOS/portable/GCC/ARM_CM3/port.c **** 	pxTopOfStack--; /* Offset added to account for the way the MCU uses the stack on entry/exit of int
 104              		.loc 1 212 0
 105 000c FB68     		ldr	r3, [r7, #12]	@ tmp116, pxTopOfStack
 106 000e 043B     		subs	r3, r3, #4	@ tmp115, tmp116,
 107 0010 FB60     		str	r3, [r7, #12]	@ tmp115, pxTopOfStack
 213:FreeRTOS/portable/GCC/ARM_CM3/port.c **** 	*pxTopOfStack = portINITIAL_XPSR;	/* xPSR */
 108              		.loc 1 213 0
 109 0012 FB68     		ldr	r3, [r7, #12]	@ tmp117, pxTopOfStack
 110 0014 4FF08072 		mov	r2, #16777216	@ tmp118,
 111 0018 1A60     		str	r2, [r3]	@ tmp118, *pxTopOfStack_2
 214:FreeRTOS/portable/GCC/ARM_CM3/port.c **** 	pxTopOfStack--;
 112              		.loc 1 214 0
 113 001a FB68     		ldr	r3, [r7, #12]	@ tmp120, pxTopOfStack
 114 001c 043B     		subs	r3, r3, #4	@ tmp119, tmp120,
 115 001e FB60     		str	r3, [r7, #12]	@ tmp119, pxTopOfStack
 215:FreeRTOS/portable/GCC/ARM_CM3/port.c **** 	*pxTopOfStack = ( StackType_t ) pxCode;	/* PC */
 116              		.loc 1 215 0
 117 0020 BA68     		ldr	r2, [r7, #8]	@ D.4624, pxCode
 118 0022 FB68     		ldr	r3, [r7, #12]	@ tmp121, pxTopOfStack
 119 0024 1A60     		str	r2, [r3]	@ D.4624, *pxTopOfStack_5
 216:FreeRTOS/portable/GCC/ARM_CM3/port.c **** 	pxTopOfStack--;
 120              		.loc 1 216 0
 121 0026 FB68     		ldr	r3, [r7, #12]	@ tmp123, pxTopOfStack
 122 0028 043B     		subs	r3, r3, #4	@ tmp122, tmp123,
 123 002a FB60     		str	r3, [r7, #12]	@ tmp122, pxTopOfStack
 217:FreeRTOS/portable/GCC/ARM_CM3/port.c **** 	*pxTopOfStack = ( StackType_t ) portTASK_RETURN_ADDRESS;	/* LR */
 124              		.loc 1 217 0
 125 002c 084A     		ldr	r2, .L3	@ D.4624,
ARM GAS  C:\Users\STUDENT\AppData\Local\Temp\cc98amK8.s 			page 7


 126 002e FB68     		ldr	r3, [r7, #12]	@ tmp124, pxTopOfStack
 127 0030 1A60     		str	r2, [r3]	@ D.4624, *pxTopOfStack_9
 218:FreeRTOS/portable/GCC/ARM_CM3/port.c **** 	pxTopOfStack -= 5;	/* R12, R3, R2 and R1. */
 128              		.loc 1 218 0
 129 0032 FB68     		ldr	r3, [r7, #12]	@ tmp126, pxTopOfStack
 130 0034 143B     		subs	r3, r3, #20	@ tmp125, tmp126,
 131 0036 FB60     		str	r3, [r7, #12]	@ tmp125, pxTopOfStack
 219:FreeRTOS/portable/GCC/ARM_CM3/port.c **** 	*pxTopOfStack = ( StackType_t ) pvParameters;	/* R0 */
 132              		.loc 1 219 0
 133 0038 7A68     		ldr	r2, [r7, #4]	@ D.4624, pvParameters
 134 003a FB68     		ldr	r3, [r7, #12]	@ tmp127, pxTopOfStack
 135 003c 1A60     		str	r2, [r3]	@ D.4624, *pxTopOfStack_12
 220:FreeRTOS/portable/GCC/ARM_CM3/port.c **** 	pxTopOfStack -= 8;	/* R11, R10, R9, R8, R7, R6, R5 and R4. */
 136              		.loc 1 220 0
 137 003e FB68     		ldr	r3, [r7, #12]	@ tmp129, pxTopOfStack
 138 0040 203B     		subs	r3, r3, #32	@ tmp128, tmp129,
 139 0042 FB60     		str	r3, [r7, #12]	@ tmp128, pxTopOfStack
 221:FreeRTOS/portable/GCC/ARM_CM3/port.c **** 
 222:FreeRTOS/portable/GCC/ARM_CM3/port.c **** 	return pxTopOfStack;
 140              		.loc 1 222 0
 141 0044 FB68     		ldr	r3, [r7, #12]	@ D.4625, pxTopOfStack
 223:FreeRTOS/portable/GCC/ARM_CM3/port.c **** }
 142              		.loc 1 223 0
 143 0046 1846     		mov	r0, r3	@, <retval>
 144 0048 1437     		adds	r7, r7, #20	@,,
 145              		.cfi_def_cfa_offset 4
 146 004a BD46     		mov	sp, r7	@,
 147              		.cfi_def_cfa_register 13
 148              		@ sp needed	@
 149 004c 80BC     		pop	{r7}	@
 150              		.cfi_restore 7
 151              		.cfi_def_cfa_offset 0
 152 004e 7047     		bx	lr	@
 153              	.L4:
 154              		.align	2
 155              	.L3:
 156 0050 00000000 		.word	prvTaskExitError
 157              		.cfi_endproc
 158              	.LFE1:
 159              		.size	pxPortInitialiseStack, .-pxPortInitialiseStack
 160              		.section	.text.prvTaskExitError,"ax",%progbits
 161              		.align	2
 162              		.thumb
 163              		.thumb_func
 164              		.type	prvTaskExitError, %function
 165              	prvTaskExitError:
 166              	.LFB2:
 224:FreeRTOS/portable/GCC/ARM_CM3/port.c **** /*-----------------------------------------------------------*/
 225:FreeRTOS/portable/GCC/ARM_CM3/port.c **** 
 226:FreeRTOS/portable/GCC/ARM_CM3/port.c **** static void prvTaskExitError( void )
 227:FreeRTOS/portable/GCC/ARM_CM3/port.c **** {
 167              		.loc 1 227 0
 168              		.cfi_startproc
 169              		@ args = 0, pretend = 0, frame = 0
 170              		@ frame_needed = 1, uses_anonymous_args = 0
 171 0000 80B5     		push	{r7, lr}	@
 172              		.cfi_def_cfa_offset 8
ARM GAS  C:\Users\STUDENT\AppData\Local\Temp\cc98amK8.s 			page 8


 173              		.cfi_offset 7, -8
 174              		.cfi_offset 14, -4
 175 0002 00AF     		add	r7, sp, #0	@,,
 176              		.cfi_def_cfa_register 7
 228:FreeRTOS/portable/GCC/ARM_CM3/port.c **** 	/* A function that implements a task must not exit or attempt to return to
 229:FreeRTOS/portable/GCC/ARM_CM3/port.c **** 	its caller as there is nothing to return to.  If a task wants to exit it
 230:FreeRTOS/portable/GCC/ARM_CM3/port.c **** 	should instead call vTaskDelete( NULL ).
 231:FreeRTOS/portable/GCC/ARM_CM3/port.c **** 
 232:FreeRTOS/portable/GCC/ARM_CM3/port.c **** 	Artificially force an assert() to be triggered if configASSERT() is
 233:FreeRTOS/portable/GCC/ARM_CM3/port.c **** 	defined, then stop here so application writers can catch the error. */
 234:FreeRTOS/portable/GCC/ARM_CM3/port.c **** 	configASSERT( uxCriticalNesting == ~0UL );
 177              		.loc 1 234 0
 178 0004 054B     		ldr	r3, .L9	@ tmp111,
 179 0006 1B68     		ldr	r3, [r3]	@ D.4626, uxCriticalNesting
 180 0008 B3F1FF3F 		cmp	r3, #-1	@ D.4626,
 181 000c 02D0     		beq	.L6	@,
 182              		.loc 1 234 0 is_stmt 0 discriminator 1
 183 000e FFF7FEFF 		bl	ulPortSetInterruptMask	@
 184              	.L7:
 185 0012 FEE7     		b	.L7	@
 186              	.L6:
 235:FreeRTOS/portable/GCC/ARM_CM3/port.c **** 	portDISABLE_INTERRUPTS();
 187              		.loc 1 235 0 is_stmt 1
 188 0014 FFF7FEFF 		bl	ulPortSetInterruptMask	@
 189              	.L8:
 236:FreeRTOS/portable/GCC/ARM_CM3/port.c **** 	for( ;; );
 190              		.loc 1 236 0 discriminator 2
 191 0018 FEE7     		b	.L8	@
 192              	.L10:
 193 001a 00BF     		.align	2
 194              	.L9:
 195 001c 00000000 		.word	uxCriticalNesting
 196              		.cfi_endproc
 197              	.LFE2:
 198              		.size	prvTaskExitError, .-prvTaskExitError
 199              		.section	.text.vPortSVCHandler,"ax",%progbits
 200              		.align	2
 201              		.global	vPortSVCHandler
 202              		.thumb
 203              		.thumb_func
 204              		.type	vPortSVCHandler, %function
 205              	vPortSVCHandler:
 206              	.LFB3:
 237:FreeRTOS/portable/GCC/ARM_CM3/port.c **** }
 238:FreeRTOS/portable/GCC/ARM_CM3/port.c **** /*-----------------------------------------------------------*/
 239:FreeRTOS/portable/GCC/ARM_CM3/port.c **** 
 240:FreeRTOS/portable/GCC/ARM_CM3/port.c **** void vPortSVCHandler( void )
 241:FreeRTOS/portable/GCC/ARM_CM3/port.c **** {
 207              		.loc 1 241 0
 208              		.cfi_startproc
 209              		@ Naked Function: prologue and epilogue provided by programmer.
 210              		@ args = 0, pretend = 0, frame = 0
 211              		@ frame_needed = 1, uses_anonymous_args = 0
 242:FreeRTOS/portable/GCC/ARM_CM3/port.c **** 	__asm volatile (
 212              		.loc 1 242 0
 213              		.syntax unified
 214              	@ 242 "FreeRTOS/portable/GCC/ARM_CM3/port.c" 1
ARM GAS  C:\Users\STUDENT\AppData\Local\Temp\cc98amK8.s 			page 9


 215 0000 074B     			ldr	r3, pxCurrentTCBConst2		
 216 0002 1968     		ldr r1, [r3]					
 217 0004 0868     		ldr r0, [r1]					
 218 0006 B0E8F00F 		ldmia r0!, {r4-r11}				
 219 000a 80F30988 		msr psp, r0						
 220 000e BFF36F8F 		isb								
 221 0012 4FF00000 		mov r0, #0 						
 222 0016 80F31188 		msr	basepri, r0					
 223 001a 4EF00D0E 		orr r14, #0xd					
 224 001e 7047     		bx r14							
 225              										
 226              		.align 2						
 227 0020 00000000 	pxCurrentTCBConst2: .word pxCurrentTCB				
 228              	
 229              	@ 0 "" 2
 243:FreeRTOS/portable/GCC/ARM_CM3/port.c **** 					"	ldr	r3, pxCurrentTCBConst2		\n" /* Restore the context. */
 244:FreeRTOS/portable/GCC/ARM_CM3/port.c **** 					"	ldr r1, [r3]					\n" /* Use pxCurrentTCBConst to get the pxCurrentTCB address. */
 245:FreeRTOS/portable/GCC/ARM_CM3/port.c **** 					"	ldr r0, [r1]					\n" /* The first item in pxCurrentTCB is the task top of stack. */
 246:FreeRTOS/portable/GCC/ARM_CM3/port.c **** 					"	ldmia r0!, {r4-r11}				\n" /* Pop the registers that are not automatically saved on exceptio
 247:FreeRTOS/portable/GCC/ARM_CM3/port.c **** 					"	msr psp, r0						\n" /* Restore the task stack pointer. */
 248:FreeRTOS/portable/GCC/ARM_CM3/port.c **** 					"	isb								\n"
 249:FreeRTOS/portable/GCC/ARM_CM3/port.c **** 					"	mov r0, #0 						\n"
 250:FreeRTOS/portable/GCC/ARM_CM3/port.c **** 					"	msr	basepri, r0					\n"
 251:FreeRTOS/portable/GCC/ARM_CM3/port.c **** 					"	orr r14, #0xd					\n"
 252:FreeRTOS/portable/GCC/ARM_CM3/port.c **** 					"	bx r14							\n"
 253:FreeRTOS/portable/GCC/ARM_CM3/port.c **** 					"									\n"
 254:FreeRTOS/portable/GCC/ARM_CM3/port.c **** 					"	.align 2						\n"
 255:FreeRTOS/portable/GCC/ARM_CM3/port.c **** 					"pxCurrentTCBConst2: .word pxCurrentTCB				\n"
 256:FreeRTOS/portable/GCC/ARM_CM3/port.c **** 				);
 257:FreeRTOS/portable/GCC/ARM_CM3/port.c **** }
 230              		.loc 1 257 0
 231              		.thumb
 232              		.syntax unified
 233 0024 00BF     		nop
 234              		.cfi_endproc
 235              	.LFE3:
 236              		.size	vPortSVCHandler, .-vPortSVCHandler
 237 0026 00BF     		.section	.text.prvPortStartFirstTask,"ax",%progbits
 238              		.align	2
 239              		.thumb
 240              		.thumb_func
 241              		.type	prvPortStartFirstTask, %function
 242              	prvPortStartFirstTask:
 243              	.LFB4:
 258:FreeRTOS/portable/GCC/ARM_CM3/port.c **** /*-----------------------------------------------------------*/
 259:FreeRTOS/portable/GCC/ARM_CM3/port.c **** 
 260:FreeRTOS/portable/GCC/ARM_CM3/port.c **** static void prvPortStartFirstTask( void )
 261:FreeRTOS/portable/GCC/ARM_CM3/port.c **** {
 244              		.loc 1 261 0
 245              		.cfi_startproc
 246              		@ Naked Function: prologue and epilogue provided by programmer.
 247              		@ args = 0, pretend = 0, frame = 0
 248              		@ frame_needed = 1, uses_anonymous_args = 0
 262:FreeRTOS/portable/GCC/ARM_CM3/port.c **** 	__asm volatile(
 249              		.loc 1 262 0
 250              		.syntax unified
 251              	@ 262 "FreeRTOS/portable/GCC/ARM_CM3/port.c" 1
ARM GAS  C:\Users\STUDENT\AppData\Local\Temp\cc98amK8.s 			page 10


 252 0000 0648     		 ldr r0, =0xE000ED08 	
 253 0002 0068     	 ldr r0, [r0] 			
 254 0004 0068     	 ldr r0, [r0] 			
 255 0006 80F30888 	 msr msp, r0			
 256 000a 62B6     	 cpsie i				
 257 000c 61B6     	 cpsie f				
 258 000e BFF34F8F 	 dsb					
 259 0012 BFF36F8F 	 isb					
 260 0016 00DF     	 svc 0					
 261 0018 00BF     	 nop					
 262              	
 263              	@ 0 "" 2
 263:FreeRTOS/portable/GCC/ARM_CM3/port.c **** 					" ldr r0, =0xE000ED08 	\n" /* Use the NVIC offset register to locate the stack. */
 264:FreeRTOS/portable/GCC/ARM_CM3/port.c **** 					" ldr r0, [r0] 			\n"
 265:FreeRTOS/portable/GCC/ARM_CM3/port.c **** 					" ldr r0, [r0] 			\n"
 266:FreeRTOS/portable/GCC/ARM_CM3/port.c **** 					" msr msp, r0			\n" /* Set the msp back to the start of the stack. */
 267:FreeRTOS/portable/GCC/ARM_CM3/port.c **** 					" cpsie i				\n" /* Globally enable interrupts. */
 268:FreeRTOS/portable/GCC/ARM_CM3/port.c **** 					" cpsie f				\n"
 269:FreeRTOS/portable/GCC/ARM_CM3/port.c **** 					" dsb					\n"
 270:FreeRTOS/portable/GCC/ARM_CM3/port.c **** 					" isb					\n"
 271:FreeRTOS/portable/GCC/ARM_CM3/port.c **** 					" svc 0					\n" /* System call to start first task. */
 272:FreeRTOS/portable/GCC/ARM_CM3/port.c **** 					" nop					\n"
 273:FreeRTOS/portable/GCC/ARM_CM3/port.c **** 				);
 274:FreeRTOS/portable/GCC/ARM_CM3/port.c **** }
 264              		.loc 1 274 0
 265              		.thumb
 266              		.syntax unified
 267 001a 00BF     		nop
 268              		.cfi_endproc
 269              	.LFE4:
 270              		.size	prvPortStartFirstTask, .-prvPortStartFirstTask
 271              		.section	.text.xPortStartScheduler,"ax",%progbits
 272              		.align	2
 273              		.global	xPortStartScheduler
 274              		.thumb
 275              		.thumb_func
 276              		.type	xPortStartScheduler, %function
 277              	xPortStartScheduler:
 278              	.LFB5:
 275:FreeRTOS/portable/GCC/ARM_CM3/port.c **** /*-----------------------------------------------------------*/
 276:FreeRTOS/portable/GCC/ARM_CM3/port.c **** 
 277:FreeRTOS/portable/GCC/ARM_CM3/port.c **** /*
 278:FreeRTOS/portable/GCC/ARM_CM3/port.c ****  * See header file for description.
 279:FreeRTOS/portable/GCC/ARM_CM3/port.c ****  */
 280:FreeRTOS/portable/GCC/ARM_CM3/port.c **** BaseType_t xPortStartScheduler( void )
 281:FreeRTOS/portable/GCC/ARM_CM3/port.c **** {
 279              		.loc 1 281 0
 280              		.cfi_startproc
 281              		@ args = 0, pretend = 0, frame = 16
 282              		@ frame_needed = 1, uses_anonymous_args = 0
 283 0000 80B5     		push	{r7, lr}	@
 284              		.cfi_def_cfa_offset 8
 285              		.cfi_offset 7, -8
 286              		.cfi_offset 14, -4
 287 0002 84B0     		sub	sp, sp, #16	@,,
 288              		.cfi_def_cfa_offset 24
 289 0004 00AF     		add	r7, sp, #0	@,,
ARM GAS  C:\Users\STUDENT\AppData\Local\Temp\cc98amK8.s 			page 11


 290              		.cfi_def_cfa_register 7
 291              	.LBB2:
 282:FreeRTOS/portable/GCC/ARM_CM3/port.c **** 	/* configMAX_SYSCALL_INTERRUPT_PRIORITY must not be set to 0.
 283:FreeRTOS/portable/GCC/ARM_CM3/port.c **** 	See http://www.FreeRTOS.org/RTOS-Cortex-M3-M4.html */
 284:FreeRTOS/portable/GCC/ARM_CM3/port.c **** 	configASSERT( configMAX_SYSCALL_INTERRUPT_PRIORITY );
 285:FreeRTOS/portable/GCC/ARM_CM3/port.c **** 
 286:FreeRTOS/portable/GCC/ARM_CM3/port.c **** 	#if( configASSERT_DEFINED == 1 )
 287:FreeRTOS/portable/GCC/ARM_CM3/port.c **** 	{
 288:FreeRTOS/portable/GCC/ARM_CM3/port.c **** 		volatile uint32_t ulOriginalPriority;
 289:FreeRTOS/portable/GCC/ARM_CM3/port.c **** 		volatile uint8_t * const pucFirstUserPriorityRegister = ( volatile uint8_t * const ) ( portNVIC_I
 292              		.loc 1 289 0
 293 0006 284B     		ldr	r3, .L17	@ tmp137,
 294 0008 FB60     		str	r3, [r7, #12]	@ tmp137, pucFirstUserPriorityRegister
 290:FreeRTOS/portable/GCC/ARM_CM3/port.c **** 		volatile uint8_t ucMaxPriorityValue;
 291:FreeRTOS/portable/GCC/ARM_CM3/port.c **** 
 292:FreeRTOS/portable/GCC/ARM_CM3/port.c **** 		/* Determine the maximum priority from which ISR safe FreeRTOS API
 293:FreeRTOS/portable/GCC/ARM_CM3/port.c **** 		functions can be called.  ISR safe functions are those that end in
 294:FreeRTOS/portable/GCC/ARM_CM3/port.c **** 		"FromISR".  FreeRTOS maintains separate thread and ISR API functions to
 295:FreeRTOS/portable/GCC/ARM_CM3/port.c **** 		ensure interrupt entry is as fast and simple as possible.
 296:FreeRTOS/portable/GCC/ARM_CM3/port.c **** 
 297:FreeRTOS/portable/GCC/ARM_CM3/port.c **** 		Save the interrupt priority value that is about to be clobbered. */
 298:FreeRTOS/portable/GCC/ARM_CM3/port.c **** 		ulOriginalPriority = *pucFirstUserPriorityRegister;
 295              		.loc 1 298 0
 296 000a FB68     		ldr	r3, [r7, #12]	@ tmp138, pucFirstUserPriorityRegister
 297 000c 1B78     		ldrb	r3, [r3]	@ tmp139, *pucFirstUserPriorityRegister_2
 298 000e DBB2     		uxtb	r3, r3	@ D.4627, tmp139
 299 0010 BB60     		str	r3, [r7, #8]	@ D.4628, ulOriginalPriority
 299:FreeRTOS/portable/GCC/ARM_CM3/port.c **** 
 300:FreeRTOS/portable/GCC/ARM_CM3/port.c **** 		/* Determine the number of priority bits available.  First write to all
 301:FreeRTOS/portable/GCC/ARM_CM3/port.c **** 		possible bits. */
 302:FreeRTOS/portable/GCC/ARM_CM3/port.c **** 		*pucFirstUserPriorityRegister = portMAX_8_BIT_VALUE;
 300              		.loc 1 302 0
 301 0012 FB68     		ldr	r3, [r7, #12]	@ tmp140, pucFirstUserPriorityRegister
 302 0014 FF22     		movs	r2, #255	@ tmp141,
 303 0016 1A70     		strb	r2, [r3]	@ tmp142, *pucFirstUserPriorityRegister_2
 303:FreeRTOS/portable/GCC/ARM_CM3/port.c **** 
 304:FreeRTOS/portable/GCC/ARM_CM3/port.c **** 		/* Read the value back to see how many bits stuck. */
 305:FreeRTOS/portable/GCC/ARM_CM3/port.c **** 		ucMaxPriorityValue = *pucFirstUserPriorityRegister;
 304              		.loc 1 305 0
 305 0018 FB68     		ldr	r3, [r7, #12]	@ tmp143, pucFirstUserPriorityRegister
 306 001a 1B78     		ldrb	r3, [r3]	@ tmp144, *pucFirstUserPriorityRegister_2
 307 001c DBB2     		uxtb	r3, r3	@ D.4627, tmp144
 308 001e FB71     		strb	r3, [r7, #7]	@ tmp145, ucMaxPriorityValue
 306:FreeRTOS/portable/GCC/ARM_CM3/port.c **** 
 307:FreeRTOS/portable/GCC/ARM_CM3/port.c **** 		/* Use the same mask on the maximum system call priority. */
 308:FreeRTOS/portable/GCC/ARM_CM3/port.c **** 		ucMaxSysCallPriority = configMAX_SYSCALL_INTERRUPT_PRIORITY & ucMaxPriorityValue;
 309              		.loc 1 308 0
 310 0020 FB79     		ldrb	r3, [r7, #7]	@ tmp147, ucMaxPriorityValue
 311 0022 DBB2     		uxtb	r3, r3	@ D.4627, tmp147
 312 0024 03F02803 		and	r3, r3, #40	@ tmp148, D.4627,
 313 0028 DAB2     		uxtb	r2, r3	@ D.4627, tmp148
 314 002a 204B     		ldr	r3, .L17+4	@ tmp149,
 315 002c 1A70     		strb	r2, [r3]	@ tmp150, ucMaxSysCallPriority
 309:FreeRTOS/portable/GCC/ARM_CM3/port.c **** 
 310:FreeRTOS/portable/GCC/ARM_CM3/port.c **** 		/* Calculate the maximum acceptable priority group value for the number
 311:FreeRTOS/portable/GCC/ARM_CM3/port.c **** 		of bits read back. */
 312:FreeRTOS/portable/GCC/ARM_CM3/port.c **** 		ulMaxPRIGROUPValue = portMAX_PRIGROUP_BITS;
ARM GAS  C:\Users\STUDENT\AppData\Local\Temp\cc98amK8.s 			page 12


 316              		.loc 1 312 0
 317 002e 204B     		ldr	r3, .L17+8	@ tmp151,
 318 0030 0722     		movs	r2, #7	@ tmp152,
 319 0032 1A60     		str	r2, [r3]	@ tmp152, ulMaxPRIGROUPValue
 313:FreeRTOS/portable/GCC/ARM_CM3/port.c **** 		while( ( ucMaxPriorityValue & portTOP_BIT_OF_BYTE ) == portTOP_BIT_OF_BYTE )
 320              		.loc 1 313 0
 321 0034 09E0     		b	.L14	@
 322              	.L15:
 314:FreeRTOS/portable/GCC/ARM_CM3/port.c **** 		{
 315:FreeRTOS/portable/GCC/ARM_CM3/port.c **** 			ulMaxPRIGROUPValue--;
 323              		.loc 1 315 0
 324 0036 1E4B     		ldr	r3, .L17+8	@ tmp153,
 325 0038 1B68     		ldr	r3, [r3]	@ D.4628, ulMaxPRIGROUPValue
 326 003a 013B     		subs	r3, r3, #1	@ D.4628, D.4628,
 327 003c 1C4A     		ldr	r2, .L17+8	@ tmp154,
 328 003e 1360     		str	r3, [r2]	@ D.4628, ulMaxPRIGROUPValue
 316:FreeRTOS/portable/GCC/ARM_CM3/port.c **** 			ucMaxPriorityValue <<= ( uint8_t ) 0x01;
 329              		.loc 1 316 0
 330 0040 FB79     		ldrb	r3, [r7, #7]	@ tmp156, ucMaxPriorityValue
 331 0042 DBB2     		uxtb	r3, r3	@ D.4627, tmp156
 332 0044 5B00     		lsls	r3, r3, #1	@ tmp157, D.4627,
 333 0046 DBB2     		uxtb	r3, r3	@ D.4627, tmp157
 334 0048 FB71     		strb	r3, [r7, #7]	@ tmp158, ucMaxPriorityValue
 335              	.L14:
 313:FreeRTOS/portable/GCC/ARM_CM3/port.c **** 		while( ( ucMaxPriorityValue & portTOP_BIT_OF_BYTE ) == portTOP_BIT_OF_BYTE )
 336              		.loc 1 313 0
 337 004a FB79     		ldrb	r3, [r7, #7]	@ tmp160, ucMaxPriorityValue
 338 004c DBB2     		uxtb	r3, r3	@ D.4627, tmp160
 339 004e 5BB2     		sxtb	r3, r3	@ D.4629, D.4627
 340 0050 002B     		cmp	r3, #0	@ D.4629,
 341 0052 F0DB     		blt	.L15	@,
 317:FreeRTOS/portable/GCC/ARM_CM3/port.c **** 		}
 318:FreeRTOS/portable/GCC/ARM_CM3/port.c **** 
 319:FreeRTOS/portable/GCC/ARM_CM3/port.c **** 		/* Shift the priority group value back to its position within the AIRCR
 320:FreeRTOS/portable/GCC/ARM_CM3/port.c **** 		register. */
 321:FreeRTOS/portable/GCC/ARM_CM3/port.c **** 		ulMaxPRIGROUPValue <<= portPRIGROUP_SHIFT;
 342              		.loc 1 321 0
 343 0054 164B     		ldr	r3, .L17+8	@ tmp161,
 344 0056 1B68     		ldr	r3, [r3]	@ D.4628, ulMaxPRIGROUPValue
 345 0058 1B02     		lsls	r3, r3, #8	@ D.4628, D.4628,
 346 005a 154A     		ldr	r2, .L17+8	@ tmp162,
 347 005c 1360     		str	r3, [r2]	@ D.4628, ulMaxPRIGROUPValue
 322:FreeRTOS/portable/GCC/ARM_CM3/port.c **** 		ulMaxPRIGROUPValue &= portPRIORITY_GROUP_MASK;
 348              		.loc 1 322 0
 349 005e 144B     		ldr	r3, .L17+8	@ tmp163,
 350 0060 1B68     		ldr	r3, [r3]	@ D.4628, ulMaxPRIGROUPValue
 351 0062 03F4E063 		and	r3, r3, #1792	@ D.4628, D.4628,
 352 0066 124A     		ldr	r2, .L17+8	@ tmp164,
 353 0068 1360     		str	r3, [r2]	@ D.4628, ulMaxPRIGROUPValue
 323:FreeRTOS/portable/GCC/ARM_CM3/port.c **** 
 324:FreeRTOS/portable/GCC/ARM_CM3/port.c **** 		/* Restore the clobbered interrupt priority register to its original
 325:FreeRTOS/portable/GCC/ARM_CM3/port.c **** 		value. */
 326:FreeRTOS/portable/GCC/ARM_CM3/port.c **** 		*pucFirstUserPriorityRegister = ulOriginalPriority;
 354              		.loc 1 326 0
 355 006a BB68     		ldr	r3, [r7, #8]	@ D.4628, ulOriginalPriority
 356 006c DAB2     		uxtb	r2, r3	@ D.4627, D.4628
 357 006e FB68     		ldr	r3, [r7, #12]	@ tmp165, pucFirstUserPriorityRegister
ARM GAS  C:\Users\STUDENT\AppData\Local\Temp\cc98amK8.s 			page 13


 358 0070 1A70     		strb	r2, [r3]	@ tmp166, *pucFirstUserPriorityRegister_2
 359              	.LBE2:
 327:FreeRTOS/portable/GCC/ARM_CM3/port.c **** 	}
 328:FreeRTOS/portable/GCC/ARM_CM3/port.c **** 	#endif /* conifgASSERT_DEFINED */
 329:FreeRTOS/portable/GCC/ARM_CM3/port.c **** 
 330:FreeRTOS/portable/GCC/ARM_CM3/port.c **** 	/* Make PendSV and SysTick the lowest priority interrupts. */
 331:FreeRTOS/portable/GCC/ARM_CM3/port.c **** 	portNVIC_SYSPRI2_REG |= portNVIC_PENDSV_PRI;
 360              		.loc 1 331 0
 361 0072 104A     		ldr	r2, .L17+12	@ D.4630,
 362 0074 0F4B     		ldr	r3, .L17+12	@ D.4630,
 363 0076 1B68     		ldr	r3, [r3]	@ D.4628, *_32
 364 0078 43F47803 		orr	r3, r3, #16252928	@ D.4628, D.4628,
 365 007c 1360     		str	r3, [r2]	@ D.4628, *_31
 332:FreeRTOS/portable/GCC/ARM_CM3/port.c **** 	portNVIC_SYSPRI2_REG |= portNVIC_SYSTICK_PRI;
 366              		.loc 1 332 0
 367 007e 0D4A     		ldr	r2, .L17+12	@ D.4630,
 368 0080 0C4B     		ldr	r3, .L17+12	@ D.4630,
 369 0082 1B68     		ldr	r3, [r3]	@ D.4628, *_37
 370 0084 43F07843 		orr	r3, r3, #-134217728	@ D.4628, D.4628,
 371 0088 1360     		str	r3, [r2]	@ D.4628, *_36
 333:FreeRTOS/portable/GCC/ARM_CM3/port.c **** 
 334:FreeRTOS/portable/GCC/ARM_CM3/port.c **** 	/* Start the timer that generates the tick ISR.  Interrupts are disabled
 335:FreeRTOS/portable/GCC/ARM_CM3/port.c **** 	here already. */
 336:FreeRTOS/portable/GCC/ARM_CM3/port.c **** 	vPortSetupTimerInterrupt();
 372              		.loc 1 336 0
 373 008a FFF7FEFF 		bl	vPortSetupTimerInterrupt	@
 337:FreeRTOS/portable/GCC/ARM_CM3/port.c **** 
 338:FreeRTOS/portable/GCC/ARM_CM3/port.c **** 	/* Initialise the critical nesting count ready for the first task. */
 339:FreeRTOS/portable/GCC/ARM_CM3/port.c **** 	uxCriticalNesting = 0;
 374              		.loc 1 339 0
 375 008e 0A4B     		ldr	r3, .L17+16	@ tmp167,
 376 0090 0022     		movs	r2, #0	@ tmp168,
 377 0092 1A60     		str	r2, [r3]	@ tmp168, uxCriticalNesting
 340:FreeRTOS/portable/GCC/ARM_CM3/port.c **** 
 341:FreeRTOS/portable/GCC/ARM_CM3/port.c **** 	/* Start the first task. */
 342:FreeRTOS/portable/GCC/ARM_CM3/port.c **** 	prvPortStartFirstTask();
 378              		.loc 1 342 0
 379 0094 FFF7FEFF 		bl	prvPortStartFirstTask	@
 343:FreeRTOS/portable/GCC/ARM_CM3/port.c **** 
 344:FreeRTOS/portable/GCC/ARM_CM3/port.c **** 	/* Should never get here as the tasks will now be executing!  Call the task
 345:FreeRTOS/portable/GCC/ARM_CM3/port.c **** 	exit error function to prevent compiler warnings about a static function
 346:FreeRTOS/portable/GCC/ARM_CM3/port.c **** 	not being called in the case that the application writer overrides this
 347:FreeRTOS/portable/GCC/ARM_CM3/port.c **** 	functionality by defining configTASK_RETURN_ADDRESS. */
 348:FreeRTOS/portable/GCC/ARM_CM3/port.c **** 	prvTaskExitError();
 380              		.loc 1 348 0
 381 0098 FFF7FEFF 		bl	prvTaskExitError	@
 349:FreeRTOS/portable/GCC/ARM_CM3/port.c **** 
 350:FreeRTOS/portable/GCC/ARM_CM3/port.c **** 	/* Should not get here! */
 351:FreeRTOS/portable/GCC/ARM_CM3/port.c **** 	return 0;
 382              		.loc 1 351 0
 383 009c 0023     		movs	r3, #0	@ D.4631,
 352:FreeRTOS/portable/GCC/ARM_CM3/port.c **** }
 384              		.loc 1 352 0
 385 009e 1846     		mov	r0, r3	@, <retval>
 386 00a0 1037     		adds	r7, r7, #16	@,,
 387              		.cfi_def_cfa_offset 8
 388 00a2 BD46     		mov	sp, r7	@,
ARM GAS  C:\Users\STUDENT\AppData\Local\Temp\cc98amK8.s 			page 14


 389              		.cfi_def_cfa_register 13
 390              		@ sp needed	@
 391 00a4 80BD     		pop	{r7, pc}	@
 392              	.L18:
 393 00a6 00BF     		.align	2
 394              	.L17:
 395 00a8 00E400E0 		.word	-536812544
 396 00ac 00000000 		.word	ucMaxSysCallPriority
 397 00b0 00000000 		.word	ulMaxPRIGROUPValue
 398 00b4 20ED00E0 		.word	-536810208
 399 00b8 00000000 		.word	uxCriticalNesting
 400              		.cfi_endproc
 401              	.LFE5:
 402              		.size	xPortStartScheduler, .-xPortStartScheduler
 403              		.section	.text.vPortEndScheduler,"ax",%progbits
 404              		.align	2
 405              		.global	vPortEndScheduler
 406              		.thumb
 407              		.thumb_func
 408              		.type	vPortEndScheduler, %function
 409              	vPortEndScheduler:
 410              	.LFB6:
 353:FreeRTOS/portable/GCC/ARM_CM3/port.c **** /*-----------------------------------------------------------*/
 354:FreeRTOS/portable/GCC/ARM_CM3/port.c **** 
 355:FreeRTOS/portable/GCC/ARM_CM3/port.c **** void vPortEndScheduler( void )
 356:FreeRTOS/portable/GCC/ARM_CM3/port.c **** {
 411              		.loc 1 356 0
 412              		.cfi_startproc
 413              		@ args = 0, pretend = 0, frame = 0
 414              		@ frame_needed = 1, uses_anonymous_args = 0
 415 0000 80B5     		push	{r7, lr}	@
 416              		.cfi_def_cfa_offset 8
 417              		.cfi_offset 7, -8
 418              		.cfi_offset 14, -4
 419 0002 00AF     		add	r7, sp, #0	@,,
 420              		.cfi_def_cfa_register 7
 357:FreeRTOS/portable/GCC/ARM_CM3/port.c **** 	/* Not implemented in ports where there is nothing to return to.
 358:FreeRTOS/portable/GCC/ARM_CM3/port.c **** 	Artificially force an assert. */
 359:FreeRTOS/portable/GCC/ARM_CM3/port.c **** 	configASSERT( uxCriticalNesting == 1000UL );
 421              		.loc 1 359 0
 422 0004 044B     		ldr	r3, .L23	@ tmp111,
 423 0006 1B68     		ldr	r3, [r3]	@ D.4632, uxCriticalNesting
 424 0008 B3F57A7F 		cmp	r3, #1000	@ D.4632,
 425 000c 02D0     		beq	.L22	@,
 426              		.loc 1 359 0 is_stmt 0 discriminator 1
 427 000e FFF7FEFF 		bl	ulPortSetInterruptMask	@
 428              	.L21:
 429 0012 FEE7     		b	.L21	@
 430              	.L22:
 360:FreeRTOS/portable/GCC/ARM_CM3/port.c **** }
 431              		.loc 1 360 0 is_stmt 1
 432 0014 00BF     		nop
 433 0016 80BD     		pop	{r7, pc}	@
 434              	.L24:
 435              		.align	2
 436              	.L23:
 437 0018 00000000 		.word	uxCriticalNesting
ARM GAS  C:\Users\STUDENT\AppData\Local\Temp\cc98amK8.s 			page 15


 438              		.cfi_endproc
 439              	.LFE6:
 440              		.size	vPortEndScheduler, .-vPortEndScheduler
 441              		.section	.text.vPortYield,"ax",%progbits
 442              		.align	2
 443              		.global	vPortYield
 444              		.thumb
 445              		.thumb_func
 446              		.type	vPortYield, %function
 447              	vPortYield:
 448              	.LFB7:
 361:FreeRTOS/portable/GCC/ARM_CM3/port.c **** /*-----------------------------------------------------------*/
 362:FreeRTOS/portable/GCC/ARM_CM3/port.c **** 
 363:FreeRTOS/portable/GCC/ARM_CM3/port.c **** void vPortYield( void )
 364:FreeRTOS/portable/GCC/ARM_CM3/port.c **** {
 449              		.loc 1 364 0
 450              		.cfi_startproc
 451              		@ args = 0, pretend = 0, frame = 0
 452              		@ frame_needed = 1, uses_anonymous_args = 0
 453              		@ link register save eliminated.
 454 0000 80B4     		push	{r7}	@
 455              		.cfi_def_cfa_offset 4
 456              		.cfi_offset 7, -4
 457 0002 00AF     		add	r7, sp, #0	@,,
 458              		.cfi_def_cfa_register 7
 365:FreeRTOS/portable/GCC/ARM_CM3/port.c **** 	/* Set a PendSV to request a context switch. */
 366:FreeRTOS/portable/GCC/ARM_CM3/port.c **** 	portNVIC_INT_CTRL_REG = portNVIC_PENDSVSET_BIT;
 459              		.loc 1 366 0
 460 0004 054B     		ldr	r3, .L26	@ D.4633,
 461 0006 4FF08052 		mov	r2, #268435456	@ tmp111,
 462 000a 1A60     		str	r2, [r3]	@ tmp111, *_1
 367:FreeRTOS/portable/GCC/ARM_CM3/port.c **** 
 368:FreeRTOS/portable/GCC/ARM_CM3/port.c **** 	/* Barriers are normally not required but do ensure the code is completely
 369:FreeRTOS/portable/GCC/ARM_CM3/port.c **** 	within the specified behaviour for the architecture. */
 370:FreeRTOS/portable/GCC/ARM_CM3/port.c **** 	__asm volatile( "dsb" );
 463              		.loc 1 370 0
 464              		.syntax unified
 465              	@ 370 "FreeRTOS/portable/GCC/ARM_CM3/port.c" 1
 466 000c BFF34F8F 		dsb
 467              	@ 0 "" 2
 371:FreeRTOS/portable/GCC/ARM_CM3/port.c **** 	__asm volatile( "isb" );
 468              		.loc 1 371 0
 469              	@ 371 "FreeRTOS/portable/GCC/ARM_CM3/port.c" 1
 470 0010 BFF36F8F 		isb
 471              	@ 0 "" 2
 372:FreeRTOS/portable/GCC/ARM_CM3/port.c **** }
 472              		.loc 1 372 0
 473              		.thumb
 474              		.syntax unified
 475 0014 00BF     		nop
 476 0016 BD46     		mov	sp, r7	@,
 477              		.cfi_def_cfa_register 13
 478              		@ sp needed	@
 479 0018 80BC     		pop	{r7}	@
 480              		.cfi_restore 7
 481              		.cfi_def_cfa_offset 0
 482 001a 7047     		bx	lr	@
ARM GAS  C:\Users\STUDENT\AppData\Local\Temp\cc98amK8.s 			page 16


 483              	.L27:
 484              		.align	2
 485              	.L26:
 486 001c 04ED00E0 		.word	-536810236
 487              		.cfi_endproc
 488              	.LFE7:
 489              		.size	vPortYield, .-vPortYield
 490              		.section	.text.vPortEnterCritical,"ax",%progbits
 491              		.align	2
 492              		.global	vPortEnterCritical
 493              		.thumb
 494              		.thumb_func
 495              		.type	vPortEnterCritical, %function
 496              	vPortEnterCritical:
 497              	.LFB8:
 373:FreeRTOS/portable/GCC/ARM_CM3/port.c **** /*-----------------------------------------------------------*/
 374:FreeRTOS/portable/GCC/ARM_CM3/port.c **** 
 375:FreeRTOS/portable/GCC/ARM_CM3/port.c **** void vPortEnterCritical( void )
 376:FreeRTOS/portable/GCC/ARM_CM3/port.c **** {
 498              		.loc 1 376 0
 499              		.cfi_startproc
 500              		@ args = 0, pretend = 0, frame = 0
 501              		@ frame_needed = 1, uses_anonymous_args = 0
 502 0000 80B5     		push	{r7, lr}	@
 503              		.cfi_def_cfa_offset 8
 504              		.cfi_offset 7, -8
 505              		.cfi_offset 14, -4
 506 0002 00AF     		add	r7, sp, #0	@,,
 507              		.cfi_def_cfa_register 7
 377:FreeRTOS/portable/GCC/ARM_CM3/port.c **** 	portDISABLE_INTERRUPTS();
 508              		.loc 1 377 0
 509 0004 FFF7FEFF 		bl	ulPortSetInterruptMask	@
 378:FreeRTOS/portable/GCC/ARM_CM3/port.c **** 	uxCriticalNesting++;
 510              		.loc 1 378 0
 511 0008 0B4B     		ldr	r3, .L32	@ tmp116,
 512 000a 1B68     		ldr	r3, [r3]	@ D.4634, uxCriticalNesting
 513 000c 0133     		adds	r3, r3, #1	@ D.4634, D.4634,
 514 000e 0A4A     		ldr	r2, .L32	@ tmp117,
 515 0010 1360     		str	r3, [r2]	@ D.4634, uxCriticalNesting
 379:FreeRTOS/portable/GCC/ARM_CM3/port.c **** 	__asm volatile( "dsb" );
 516              		.loc 1 379 0
 517              		.syntax unified
 518              	@ 379 "FreeRTOS/portable/GCC/ARM_CM3/port.c" 1
 519 0012 BFF34F8F 		dsb
 520              	@ 0 "" 2
 380:FreeRTOS/portable/GCC/ARM_CM3/port.c **** 	__asm volatile( "isb" );
 521              		.loc 1 380 0
 522              	@ 380 "FreeRTOS/portable/GCC/ARM_CM3/port.c" 1
 523 0016 BFF36F8F 		isb
 524              	@ 0 "" 2
 381:FreeRTOS/portable/GCC/ARM_CM3/port.c **** 	
 382:FreeRTOS/portable/GCC/ARM_CM3/port.c **** 	/* This is not the interrupt safe version of the enter critical function so
 383:FreeRTOS/portable/GCC/ARM_CM3/port.c **** 	assert() if it is being called from an interrupt context.  Only API 
 384:FreeRTOS/portable/GCC/ARM_CM3/port.c **** 	functions that end in "FromISR" can be used in an interrupt.  Only assert if
 385:FreeRTOS/portable/GCC/ARM_CM3/port.c **** 	the critical nesting count is 1 to protect against recursive calls if the
 386:FreeRTOS/portable/GCC/ARM_CM3/port.c **** 	assert function also uses a critical section. */
 387:FreeRTOS/portable/GCC/ARM_CM3/port.c **** 	if( uxCriticalNesting == 1 )
ARM GAS  C:\Users\STUDENT\AppData\Local\Temp\cc98amK8.s 			page 17


 525              		.loc 1 387 0
 526              		.thumb
 527              		.syntax unified
 528 001a 074B     		ldr	r3, .L32	@ tmp118,
 529 001c 1B68     		ldr	r3, [r3]	@ D.4634, uxCriticalNesting
 530 001e 012B     		cmp	r3, #1	@ D.4634,
 531 0020 08D1     		bne	.L31	@,
 388:FreeRTOS/portable/GCC/ARM_CM3/port.c **** 	{
 389:FreeRTOS/portable/GCC/ARM_CM3/port.c **** 		configASSERT( ( portNVIC_INT_CTRL_REG & portVECTACTIVE_MASK ) == 0 );
 532              		.loc 1 389 0
 533 0022 064B     		ldr	r3, .L32+4	@ D.4635,
 534 0024 1B68     		ldr	r3, [r3]	@ D.4634, *_7
 535 0026 03F01F03 		and	r3, r3, #31	@ D.4634, D.4634,
 536 002a 002B     		cmp	r3, #0	@ D.4634,
 537 002c 02D0     		beq	.L31	@,
 538              		.loc 1 389 0 is_stmt 0 discriminator 1
 539 002e FFF7FEFF 		bl	ulPortSetInterruptMask	@
 540              	.L30:
 541 0032 FEE7     		b	.L30	@
 542              	.L31:
 390:FreeRTOS/portable/GCC/ARM_CM3/port.c **** 	}
 391:FreeRTOS/portable/GCC/ARM_CM3/port.c **** }
 543              		.loc 1 391 0 is_stmt 1
 544 0034 00BF     		nop
 545 0036 80BD     		pop	{r7, pc}	@
 546              	.L33:
 547              		.align	2
 548              	.L32:
 549 0038 00000000 		.word	uxCriticalNesting
 550 003c 04ED00E0 		.word	-536810236
 551              		.cfi_endproc
 552              	.LFE8:
 553              		.size	vPortEnterCritical, .-vPortEnterCritical
 554              		.section	.text.vPortExitCritical,"ax",%progbits
 555              		.align	2
 556              		.global	vPortExitCritical
 557              		.thumb
 558              		.thumb_func
 559              		.type	vPortExitCritical, %function
 560              	vPortExitCritical:
 561              	.LFB9:
 392:FreeRTOS/portable/GCC/ARM_CM3/port.c **** /*-----------------------------------------------------------*/
 393:FreeRTOS/portable/GCC/ARM_CM3/port.c **** 
 394:FreeRTOS/portable/GCC/ARM_CM3/port.c **** void vPortExitCritical( void )
 395:FreeRTOS/portable/GCC/ARM_CM3/port.c **** {
 562              		.loc 1 395 0
 563              		.cfi_startproc
 564              		@ args = 0, pretend = 0, frame = 0
 565              		@ frame_needed = 1, uses_anonymous_args = 0
 566 0000 80B5     		push	{r7, lr}	@
 567              		.cfi_def_cfa_offset 8
 568              		.cfi_offset 7, -8
 569              		.cfi_offset 14, -4
 570 0002 00AF     		add	r7, sp, #0	@,,
 571              		.cfi_def_cfa_register 7
 396:FreeRTOS/portable/GCC/ARM_CM3/port.c **** 	configASSERT( uxCriticalNesting );
 572              		.loc 1 396 0
ARM GAS  C:\Users\STUDENT\AppData\Local\Temp\cc98amK8.s 			page 18


 573 0004 0A4B     		ldr	r3, .L39	@ tmp114,
 574 0006 1B68     		ldr	r3, [r3]	@ D.4636, uxCriticalNesting
 575 0008 002B     		cmp	r3, #0	@ D.4636,
 576 000a 02D1     		bne	.L35	@,
 577              		.loc 1 396 0 is_stmt 0 discriminator 1
 578 000c FFF7FEFF 		bl	ulPortSetInterruptMask	@
 579              	.L36:
 580 0010 FEE7     		b	.L36	@
 581              	.L35:
 397:FreeRTOS/portable/GCC/ARM_CM3/port.c **** 	uxCriticalNesting--;
 582              		.loc 1 397 0 is_stmt 1
 583 0012 074B     		ldr	r3, .L39	@ tmp115,
 584 0014 1B68     		ldr	r3, [r3]	@ D.4636, uxCriticalNesting
 585 0016 013B     		subs	r3, r3, #1	@ D.4636, D.4636,
 586 0018 054A     		ldr	r2, .L39	@ tmp116,
 587 001a 1360     		str	r3, [r2]	@ D.4636, uxCriticalNesting
 398:FreeRTOS/portable/GCC/ARM_CM3/port.c **** 	if( uxCriticalNesting == 0 )
 588              		.loc 1 398 0
 589 001c 044B     		ldr	r3, .L39	@ tmp117,
 590 001e 1B68     		ldr	r3, [r3]	@ D.4636, uxCriticalNesting
 591 0020 002B     		cmp	r3, #0	@ D.4636,
 592 0022 02D1     		bne	.L38	@,
 399:FreeRTOS/portable/GCC/ARM_CM3/port.c **** 	{
 400:FreeRTOS/portable/GCC/ARM_CM3/port.c **** 		portENABLE_INTERRUPTS();
 593              		.loc 1 400 0
 594 0024 0020     		movs	r0, #0	@,
 595 0026 FFF7FEFF 		bl	vPortClearInterruptMask	@
 596              	.L38:
 401:FreeRTOS/portable/GCC/ARM_CM3/port.c **** 	}
 402:FreeRTOS/portable/GCC/ARM_CM3/port.c **** }
 597              		.loc 1 402 0
 598 002a 00BF     		nop
 599 002c 80BD     		pop	{r7, pc}	@
 600              	.L40:
 601 002e 00BF     		.align	2
 602              	.L39:
 603 0030 00000000 		.word	uxCriticalNesting
 604              		.cfi_endproc
 605              	.LFE9:
 606              		.size	vPortExitCritical, .-vPortExitCritical
 607              		.section	.text.ulPortSetInterruptMask,"ax",%progbits
 608              		.align	2
 609              		.global	ulPortSetInterruptMask
 610              		.thumb
 611              		.thumb_func
 612              		.type	ulPortSetInterruptMask, %function
 613              	ulPortSetInterruptMask:
 614              	.LFB10:
 403:FreeRTOS/portable/GCC/ARM_CM3/port.c **** /*-----------------------------------------------------------*/
 404:FreeRTOS/portable/GCC/ARM_CM3/port.c **** 
 405:FreeRTOS/portable/GCC/ARM_CM3/port.c **** __attribute__(( naked )) uint32_t ulPortSetInterruptMask( void )
 406:FreeRTOS/portable/GCC/ARM_CM3/port.c **** {
 615              		.loc 1 406 0
 616              		.cfi_startproc
 617              		@ Naked Function: prologue and epilogue provided by programmer.
 618              		@ args = 0, pretend = 0, frame = 0
 619              		@ frame_needed = 1, uses_anonymous_args = 0
ARM GAS  C:\Users\STUDENT\AppData\Local\Temp\cc98amK8.s 			page 19


 407:FreeRTOS/portable/GCC/ARM_CM3/port.c **** 	__asm volatile														\
 620              		.loc 1 407 0
 621              		.syntax unified
 622              	@ 407 "FreeRTOS/portable/GCC/ARM_CM3/port.c" 1
 623 0000 EFF31180 			mrs r0, basepri											
 624 0004 4FF02801 		mov r1, #40													@
 625 0008 81F31188 		msr basepri, r1											
 626 000c 7047     		bx lr													
 627              	
 628              	@ 0 "" 2
 408:FreeRTOS/portable/GCC/ARM_CM3/port.c **** 	(																	\
 409:FreeRTOS/portable/GCC/ARM_CM3/port.c **** 		"	mrs r0, basepri											\n" \
 410:FreeRTOS/portable/GCC/ARM_CM3/port.c **** 		"	mov r1, %0												\n"	\
 411:FreeRTOS/portable/GCC/ARM_CM3/port.c **** 		"	msr basepri, r1											\n" \
 412:FreeRTOS/portable/GCC/ARM_CM3/port.c **** 		"	bx lr													\n" \
 413:FreeRTOS/portable/GCC/ARM_CM3/port.c **** 		:: "i" ( configMAX_SYSCALL_INTERRUPT_PRIORITY ) : "r0", "r1"	\
 414:FreeRTOS/portable/GCC/ARM_CM3/port.c **** 	);
 415:FreeRTOS/portable/GCC/ARM_CM3/port.c **** 
 416:FreeRTOS/portable/GCC/ARM_CM3/port.c **** 	/* This return will not be reached but is necessary to prevent compiler
 417:FreeRTOS/portable/GCC/ARM_CM3/port.c **** 	warnings. */
 418:FreeRTOS/portable/GCC/ARM_CM3/port.c **** 	return 0;
 629              		.loc 1 418 0
 630              		.thumb
 631              		.syntax unified
 632 000e 0023     		movs	r3, #0	@ D.4637,
 419:FreeRTOS/portable/GCC/ARM_CM3/port.c **** }
 633              		.loc 1 419 0
 634 0010 1846     		mov	r0, r3	@, <retval>
 635              		.cfi_endproc
 636              	.LFE10:
 637              		.size	ulPortSetInterruptMask, .-ulPortSetInterruptMask
 638 0012 00BF     		.section	.text.vPortClearInterruptMask,"ax",%progbits
 639              		.align	2
 640              		.global	vPortClearInterruptMask
 641              		.thumb
 642              		.thumb_func
 643              		.type	vPortClearInterruptMask, %function
 644              	vPortClearInterruptMask:
 645              	.LFB11:
 420:FreeRTOS/portable/GCC/ARM_CM3/port.c **** /*-----------------------------------------------------------*/
 421:FreeRTOS/portable/GCC/ARM_CM3/port.c **** 
 422:FreeRTOS/portable/GCC/ARM_CM3/port.c **** __attribute__(( naked )) void vPortClearInterruptMask( uint32_t ulNewMaskValue )
 423:FreeRTOS/portable/GCC/ARM_CM3/port.c **** {
 646              		.loc 1 423 0
 647              		.cfi_startproc
 648              		@ Naked Function: prologue and epilogue provided by programmer.
 649              		@ args = 0, pretend = 0, frame = 0
 650              		@ frame_needed = 1, uses_anonymous_args = 0
 424:FreeRTOS/portable/GCC/ARM_CM3/port.c **** 	__asm volatile													\
 651              		.loc 1 424 0
 652              		.syntax unified
 653              	@ 424 "FreeRTOS/portable/GCC/ARM_CM3/port.c" 1
 654 0000 80F31188 			msr basepri, r0										
 655 0004 7047     		bx lr												
 656              	
 657              	@ 0 "" 2
 425:FreeRTOS/portable/GCC/ARM_CM3/port.c **** 	(																\
ARM GAS  C:\Users\STUDENT\AppData\Local\Temp\cc98amK8.s 			page 20


 426:FreeRTOS/portable/GCC/ARM_CM3/port.c **** 		"	msr basepri, r0										\n"	\
 427:FreeRTOS/portable/GCC/ARM_CM3/port.c **** 		"	bx lr												\n" \
 428:FreeRTOS/portable/GCC/ARM_CM3/port.c **** 		:::"r0"														\
 429:FreeRTOS/portable/GCC/ARM_CM3/port.c **** 	);
 430:FreeRTOS/portable/GCC/ARM_CM3/port.c **** 
 431:FreeRTOS/portable/GCC/ARM_CM3/port.c **** 	/* Just to avoid compiler warnings. */
 432:FreeRTOS/portable/GCC/ARM_CM3/port.c **** 	( void ) ulNewMaskValue;
 433:FreeRTOS/portable/GCC/ARM_CM3/port.c **** }
 658              		.loc 1 433 0
 659              		.thumb
 660              		.syntax unified
 661 0006 00BF     		nop
 662              		.cfi_endproc
 663              	.LFE11:
 664              		.size	vPortClearInterruptMask, .-vPortClearInterruptMask
 665              		.section	.text.xPortPendSVHandler,"ax",%progbits
 666              		.align	2
 667              		.global	xPortPendSVHandler
 668              		.thumb
 669              		.thumb_func
 670              		.type	xPortPendSVHandler, %function
 671              	xPortPendSVHandler:
 672              	.LFB12:
 434:FreeRTOS/portable/GCC/ARM_CM3/port.c **** /*-----------------------------------------------------------*/
 435:FreeRTOS/portable/GCC/ARM_CM3/port.c **** 
 436:FreeRTOS/portable/GCC/ARM_CM3/port.c **** void xPortPendSVHandler( void )
 437:FreeRTOS/portable/GCC/ARM_CM3/port.c **** {
 673              		.loc 1 437 0
 674              		.cfi_startproc
 675              		@ Naked Function: prologue and epilogue provided by programmer.
 676              		@ args = 0, pretend = 0, frame = 0
 677              		@ frame_needed = 1, uses_anonymous_args = 0
 438:FreeRTOS/portable/GCC/ARM_CM3/port.c **** 	/* This is a naked function. */
 439:FreeRTOS/portable/GCC/ARM_CM3/port.c **** 
 440:FreeRTOS/portable/GCC/ARM_CM3/port.c **** 	__asm volatile
 678              		.loc 1 440 0
 679              		.syntax unified
 680              	@ 440 "FreeRTOS/portable/GCC/ARM_CM3/port.c" 1
 681 0000 EFF30980 			mrs r0, psp							
 682 0004 BFF36F8F 		isb									
 683              											
 684 0008 0D4B     		ldr	r3, pxCurrentTCBConst			
 685 000a 1A68     		ldr	r2, [r3]						
 686              											
 687 000c 20E9F00F 		stmdb r0!, {r4-r11}					
 688 0010 1060     		str r0, [r2]						
 689              											
 690 0012 2DE90840 		stmdb sp!, {r3, r14}				
 691 0016 4FF02800 		mov r0, #40								@
 692 001a 80F31188 		msr basepri, r0						
 693 001e FFF7FEFF 		bl vTaskSwitchContext				
 694 0022 4FF00000 		mov r0, #0							
 695 0026 80F31188 		msr basepri, r0						
 696 002a BDE80840 		ldmia sp!, {r3, r14}				
 697              											
 698 002e 1968     		ldr r1, [r3]						
 699 0030 0868     		ldr r0, [r1]						
ARM GAS  C:\Users\STUDENT\AppData\Local\Temp\cc98amK8.s 			page 21


 700 0032 B0E8F00F 		ldmia r0!, {r4-r11}					
 701 0036 80F30988 		msr psp, r0							
 702 003a BFF36F8F 		isb									
 703 003e 7047     		bx r14								
 704              											
 705              		.align 2							
 706 0040 00000000 	pxCurrentTCBConst: .word pxCurrentTCB	
 707              	
 708              	@ 0 "" 2
 441:FreeRTOS/portable/GCC/ARM_CM3/port.c **** 	(
 442:FreeRTOS/portable/GCC/ARM_CM3/port.c **** 	"	mrs r0, psp							\n"
 443:FreeRTOS/portable/GCC/ARM_CM3/port.c **** 	"	isb									\n"
 444:FreeRTOS/portable/GCC/ARM_CM3/port.c **** 	"										\n"
 445:FreeRTOS/portable/GCC/ARM_CM3/port.c **** 	"	ldr	r3, pxCurrentTCBConst			\n" /* Get the location of the current TCB. */
 446:FreeRTOS/portable/GCC/ARM_CM3/port.c **** 	"	ldr	r2, [r3]						\n"
 447:FreeRTOS/portable/GCC/ARM_CM3/port.c **** 	"										\n"
 448:FreeRTOS/portable/GCC/ARM_CM3/port.c **** 	"	stmdb r0!, {r4-r11}					\n" /* Save the remaining registers. */
 449:FreeRTOS/portable/GCC/ARM_CM3/port.c **** 	"	str r0, [r2]						\n" /* Save the new top of stack into the first member of the TCB. */
 450:FreeRTOS/portable/GCC/ARM_CM3/port.c **** 	"										\n"
 451:FreeRTOS/portable/GCC/ARM_CM3/port.c **** 	"	stmdb sp!, {r3, r14}				\n"
 452:FreeRTOS/portable/GCC/ARM_CM3/port.c **** 	"	mov r0, %0							\n"
 453:FreeRTOS/portable/GCC/ARM_CM3/port.c **** 	"	msr basepri, r0						\n"
 454:FreeRTOS/portable/GCC/ARM_CM3/port.c **** 	"	bl vTaskSwitchContext				\n"
 455:FreeRTOS/portable/GCC/ARM_CM3/port.c **** 	"	mov r0, #0							\n"
 456:FreeRTOS/portable/GCC/ARM_CM3/port.c **** 	"	msr basepri, r0						\n"
 457:FreeRTOS/portable/GCC/ARM_CM3/port.c **** 	"	ldmia sp!, {r3, r14}				\n"
 458:FreeRTOS/portable/GCC/ARM_CM3/port.c **** 	"										\n"	/* Restore the context, including the critical nesting count. */
 459:FreeRTOS/portable/GCC/ARM_CM3/port.c **** 	"	ldr r1, [r3]						\n"
 460:FreeRTOS/portable/GCC/ARM_CM3/port.c **** 	"	ldr r0, [r1]						\n" /* The first item in pxCurrentTCB is the task top of stack. */
 461:FreeRTOS/portable/GCC/ARM_CM3/port.c **** 	"	ldmia r0!, {r4-r11}					\n" /* Pop the registers. */
 462:FreeRTOS/portable/GCC/ARM_CM3/port.c **** 	"	msr psp, r0							\n"
 463:FreeRTOS/portable/GCC/ARM_CM3/port.c **** 	"	isb									\n"
 464:FreeRTOS/portable/GCC/ARM_CM3/port.c **** 	"	bx r14								\n"
 465:FreeRTOS/portable/GCC/ARM_CM3/port.c **** 	"										\n"
 466:FreeRTOS/portable/GCC/ARM_CM3/port.c **** 	"	.align 2							\n"
 467:FreeRTOS/portable/GCC/ARM_CM3/port.c **** 	"pxCurrentTCBConst: .word pxCurrentTCB	\n"
 468:FreeRTOS/portable/GCC/ARM_CM3/port.c **** 	::"i"(configMAX_SYSCALL_INTERRUPT_PRIORITY)
 469:FreeRTOS/portable/GCC/ARM_CM3/port.c **** 	);
 470:FreeRTOS/portable/GCC/ARM_CM3/port.c **** }
 709              		.loc 1 470 0
 710              		.thumb
 711              		.syntax unified
 712 0044 00BF     		nop
 713              		.cfi_endproc
 714              	.LFE12:
 715              		.size	xPortPendSVHandler, .-xPortPendSVHandler
 716 0046 00BF     		.section	.text.xPortSysTickHandler,"ax",%progbits
 717              		.align	2
 718              		.global	xPortSysTickHandler
 719              		.thumb
 720              		.thumb_func
 721              		.type	xPortSysTickHandler, %function
 722              	xPortSysTickHandler:
 723              	.LFB13:
 471:FreeRTOS/portable/GCC/ARM_CM3/port.c **** /*-----------------------------------------------------------*/
 472:FreeRTOS/portable/GCC/ARM_CM3/port.c **** 
 473:FreeRTOS/portable/GCC/ARM_CM3/port.c **** void xPortSysTickHandler( void )
ARM GAS  C:\Users\STUDENT\AppData\Local\Temp\cc98amK8.s 			page 22


 474:FreeRTOS/portable/GCC/ARM_CM3/port.c **** {
 724              		.loc 1 474 0
 725              		.cfi_startproc
 726              		@ args = 0, pretend = 0, frame = 0
 727              		@ frame_needed = 1, uses_anonymous_args = 0
 728 0000 80B5     		push	{r7, lr}	@
 729              		.cfi_def_cfa_offset 8
 730              		.cfi_offset 7, -8
 731              		.cfi_offset 14, -4
 732 0002 00AF     		add	r7, sp, #0	@,,
 733              		.cfi_def_cfa_register 7
 475:FreeRTOS/portable/GCC/ARM_CM3/port.c **** 	/* The SysTick runs at the lowest interrupt priority, so when this interrupt
 476:FreeRTOS/portable/GCC/ARM_CM3/port.c **** 	executes all interrupts must be unmasked.  There is therefore no need to
 477:FreeRTOS/portable/GCC/ARM_CM3/port.c **** 	save and then restore the interrupt mask value as its value is already
 478:FreeRTOS/portable/GCC/ARM_CM3/port.c **** 	known. */
 479:FreeRTOS/portable/GCC/ARM_CM3/port.c **** 	( void ) portSET_INTERRUPT_MASK_FROM_ISR();
 734              		.loc 1 479 0
 735 0004 FFF7FEFF 		bl	ulPortSetInterruptMask	@
 480:FreeRTOS/portable/GCC/ARM_CM3/port.c **** 	{
 481:FreeRTOS/portable/GCC/ARM_CM3/port.c **** 		/* Increment the RTOS tick. */
 482:FreeRTOS/portable/GCC/ARM_CM3/port.c **** 		if( xTaskIncrementTick() != pdFALSE )
 736              		.loc 1 482 0
 737 0008 FFF7FEFF 		bl	xTaskIncrementTick	@
 738 000c 0346     		mov	r3, r0	@ D.4638,
 739 000e 002B     		cmp	r3, #0	@ D.4638,
 740 0010 03D0     		beq	.L46	@,
 483:FreeRTOS/portable/GCC/ARM_CM3/port.c **** 		{
 484:FreeRTOS/portable/GCC/ARM_CM3/port.c **** 			/* A context switch is required.  Context switching is performed in
 485:FreeRTOS/portable/GCC/ARM_CM3/port.c **** 			the PendSV interrupt.  Pend the PendSV interrupt. */
 486:FreeRTOS/portable/GCC/ARM_CM3/port.c **** 			portNVIC_INT_CTRL_REG = portNVIC_PENDSVSET_BIT;
 741              		.loc 1 486 0
 742 0012 044B     		ldr	r3, .L47	@ D.4639,
 743 0014 4FF08052 		mov	r2, #268435456	@ tmp112,
 744 0018 1A60     		str	r2, [r3]	@ tmp112, *_6
 745              	.L46:
 487:FreeRTOS/portable/GCC/ARM_CM3/port.c **** 		}
 488:FreeRTOS/portable/GCC/ARM_CM3/port.c **** 	}
 489:FreeRTOS/portable/GCC/ARM_CM3/port.c **** 	portCLEAR_INTERRUPT_MASK_FROM_ISR( 0 );
 746              		.loc 1 489 0
 747 001a 0020     		movs	r0, #0	@,
 748 001c FFF7FEFF 		bl	vPortClearInterruptMask	@
 490:FreeRTOS/portable/GCC/ARM_CM3/port.c **** }
 749              		.loc 1 490 0
 750 0020 00BF     		nop
 751 0022 80BD     		pop	{r7, pc}	@
 752              	.L48:
 753              		.align	2
 754              	.L47:
 755 0024 04ED00E0 		.word	-536810236
 756              		.cfi_endproc
 757              	.LFE13:
 758              		.size	xPortSysTickHandler, .-xPortSysTickHandler
 759              		.section	.text.vPortSetupTimerInterrupt,"ax",%progbits
 760              		.align	2
 761              		.weak	vPortSetupTimerInterrupt
 762              		.thumb
 763              		.thumb_func
ARM GAS  C:\Users\STUDENT\AppData\Local\Temp\cc98amK8.s 			page 23


 764              		.type	vPortSetupTimerInterrupt, %function
 765              	vPortSetupTimerInterrupt:
 766              	.LFB14:
 491:FreeRTOS/portable/GCC/ARM_CM3/port.c **** /*-----------------------------------------------------------*/
 492:FreeRTOS/portable/GCC/ARM_CM3/port.c **** 
 493:FreeRTOS/portable/GCC/ARM_CM3/port.c **** #if configUSE_TICKLESS_IDLE == 1
 494:FreeRTOS/portable/GCC/ARM_CM3/port.c **** 
 495:FreeRTOS/portable/GCC/ARM_CM3/port.c **** 	__attribute__((weak)) void vPortSuppressTicksAndSleep( TickType_t xExpectedIdleTime )
 496:FreeRTOS/portable/GCC/ARM_CM3/port.c **** 	{
 497:FreeRTOS/portable/GCC/ARM_CM3/port.c **** 	uint32_t ulReloadValue, ulCompleteTickPeriods, ulCompletedSysTickDecrements, ulSysTickCTRL;
 498:FreeRTOS/portable/GCC/ARM_CM3/port.c **** 	TickType_t xModifiableIdleTime;
 499:FreeRTOS/portable/GCC/ARM_CM3/port.c **** 
 500:FreeRTOS/portable/GCC/ARM_CM3/port.c **** 		/* Make sure the SysTick reload value does not overflow the counter. */
 501:FreeRTOS/portable/GCC/ARM_CM3/port.c **** 		if( xExpectedIdleTime > xMaximumPossibleSuppressedTicks )
 502:FreeRTOS/portable/GCC/ARM_CM3/port.c **** 		{
 503:FreeRTOS/portable/GCC/ARM_CM3/port.c **** 			xExpectedIdleTime = xMaximumPossibleSuppressedTicks;
 504:FreeRTOS/portable/GCC/ARM_CM3/port.c **** 		}
 505:FreeRTOS/portable/GCC/ARM_CM3/port.c **** 
 506:FreeRTOS/portable/GCC/ARM_CM3/port.c **** 		/* Stop the SysTick momentarily.  The time the SysTick is stopped for
 507:FreeRTOS/portable/GCC/ARM_CM3/port.c **** 		is accounted for as best it can be, but using the tickless mode will
 508:FreeRTOS/portable/GCC/ARM_CM3/port.c **** 		inevitably result in some tiny drift of the time maintained by the
 509:FreeRTOS/portable/GCC/ARM_CM3/port.c **** 		kernel with respect to calendar time. */
 510:FreeRTOS/portable/GCC/ARM_CM3/port.c **** 		portNVIC_SYSTICK_CTRL_REG &= ~portNVIC_SYSTICK_ENABLE_BIT;
 511:FreeRTOS/portable/GCC/ARM_CM3/port.c **** 
 512:FreeRTOS/portable/GCC/ARM_CM3/port.c **** 		/* Calculate the reload value required to wait xExpectedIdleTime
 513:FreeRTOS/portable/GCC/ARM_CM3/port.c **** 		tick periods.  -1 is used because this code will execute part way
 514:FreeRTOS/portable/GCC/ARM_CM3/port.c **** 		through one of the tick periods. */
 515:FreeRTOS/portable/GCC/ARM_CM3/port.c **** 		ulReloadValue = portNVIC_SYSTICK_CURRENT_VALUE_REG + ( ulTimerCountsForOneTick * ( xExpectedIdleT
 516:FreeRTOS/portable/GCC/ARM_CM3/port.c **** 		if( ulReloadValue > ulStoppedTimerCompensation )
 517:FreeRTOS/portable/GCC/ARM_CM3/port.c **** 		{
 518:FreeRTOS/portable/GCC/ARM_CM3/port.c **** 			ulReloadValue -= ulStoppedTimerCompensation;
 519:FreeRTOS/portable/GCC/ARM_CM3/port.c **** 		}
 520:FreeRTOS/portable/GCC/ARM_CM3/port.c **** 
 521:FreeRTOS/portable/GCC/ARM_CM3/port.c **** 		/* Enter a critical section but don't use the taskENTER_CRITICAL()
 522:FreeRTOS/portable/GCC/ARM_CM3/port.c **** 		method as that will mask interrupts that should exit sleep mode. */
 523:FreeRTOS/portable/GCC/ARM_CM3/port.c **** 		__asm volatile( "cpsid i" );
 524:FreeRTOS/portable/GCC/ARM_CM3/port.c **** 
 525:FreeRTOS/portable/GCC/ARM_CM3/port.c **** 		/* If a context switch is pending or a task is waiting for the scheduler
 526:FreeRTOS/portable/GCC/ARM_CM3/port.c **** 		to be unsuspended then abandon the low power entry. */
 527:FreeRTOS/portable/GCC/ARM_CM3/port.c **** 		if( eTaskConfirmSleepModeStatus() == eAbortSleep )
 528:FreeRTOS/portable/GCC/ARM_CM3/port.c **** 		{
 529:FreeRTOS/portable/GCC/ARM_CM3/port.c **** 			/* Restart from whatever is left in the count register to complete
 530:FreeRTOS/portable/GCC/ARM_CM3/port.c **** 			this tick period. */
 531:FreeRTOS/portable/GCC/ARM_CM3/port.c **** 			portNVIC_SYSTICK_LOAD_REG = portNVIC_SYSTICK_CURRENT_VALUE_REG;
 532:FreeRTOS/portable/GCC/ARM_CM3/port.c **** 
 533:FreeRTOS/portable/GCC/ARM_CM3/port.c **** 			/* Restart SysTick. */
 534:FreeRTOS/portable/GCC/ARM_CM3/port.c **** 			portNVIC_SYSTICK_CTRL_REG |= portNVIC_SYSTICK_ENABLE_BIT;
 535:FreeRTOS/portable/GCC/ARM_CM3/port.c **** 
 536:FreeRTOS/portable/GCC/ARM_CM3/port.c **** 			/* Reset the reload register to the value required for normal tick
 537:FreeRTOS/portable/GCC/ARM_CM3/port.c **** 			periods. */
 538:FreeRTOS/portable/GCC/ARM_CM3/port.c **** 			portNVIC_SYSTICK_LOAD_REG = ulTimerCountsForOneTick - 1UL;
 539:FreeRTOS/portable/GCC/ARM_CM3/port.c **** 
 540:FreeRTOS/portable/GCC/ARM_CM3/port.c **** 			/* Re-enable interrupts - see comments above the cpsid instruction()
 541:FreeRTOS/portable/GCC/ARM_CM3/port.c **** 			above. */
 542:FreeRTOS/portable/GCC/ARM_CM3/port.c **** 			__asm volatile( "cpsie i" );
 543:FreeRTOS/portable/GCC/ARM_CM3/port.c **** 		}
 544:FreeRTOS/portable/GCC/ARM_CM3/port.c **** 		else
ARM GAS  C:\Users\STUDENT\AppData\Local\Temp\cc98amK8.s 			page 24


 545:FreeRTOS/portable/GCC/ARM_CM3/port.c **** 		{
 546:FreeRTOS/portable/GCC/ARM_CM3/port.c **** 			/* Set the new reload value. */
 547:FreeRTOS/portable/GCC/ARM_CM3/port.c **** 			portNVIC_SYSTICK_LOAD_REG = ulReloadValue;
 548:FreeRTOS/portable/GCC/ARM_CM3/port.c **** 
 549:FreeRTOS/portable/GCC/ARM_CM3/port.c **** 			/* Clear the SysTick count flag and set the count value back to
 550:FreeRTOS/portable/GCC/ARM_CM3/port.c **** 			zero. */
 551:FreeRTOS/portable/GCC/ARM_CM3/port.c **** 			portNVIC_SYSTICK_CURRENT_VALUE_REG = 0UL;
 552:FreeRTOS/portable/GCC/ARM_CM3/port.c **** 
 553:FreeRTOS/portable/GCC/ARM_CM3/port.c **** 			/* Restart SysTick. */
 554:FreeRTOS/portable/GCC/ARM_CM3/port.c **** 			portNVIC_SYSTICK_CTRL_REG |= portNVIC_SYSTICK_ENABLE_BIT;
 555:FreeRTOS/portable/GCC/ARM_CM3/port.c **** 
 556:FreeRTOS/portable/GCC/ARM_CM3/port.c **** 			/* Sleep until something happens.  configPRE_SLEEP_PROCESSING() can
 557:FreeRTOS/portable/GCC/ARM_CM3/port.c **** 			set its parameter to 0 to indicate that its implementation contains
 558:FreeRTOS/portable/GCC/ARM_CM3/port.c **** 			its own wait for interrupt or wait for event instruction, and so wfi
 559:FreeRTOS/portable/GCC/ARM_CM3/port.c **** 			should not be executed again.  However, the original expected idle
 560:FreeRTOS/portable/GCC/ARM_CM3/port.c **** 			time variable must remain unmodified, so a copy is taken. */
 561:FreeRTOS/portable/GCC/ARM_CM3/port.c **** 			xModifiableIdleTime = xExpectedIdleTime;
 562:FreeRTOS/portable/GCC/ARM_CM3/port.c **** 			configPRE_SLEEP_PROCESSING( xModifiableIdleTime );
 563:FreeRTOS/portable/GCC/ARM_CM3/port.c **** 			if( xModifiableIdleTime > 0 )
 564:FreeRTOS/portable/GCC/ARM_CM3/port.c **** 			{
 565:FreeRTOS/portable/GCC/ARM_CM3/port.c **** 				__asm volatile( "dsb" );
 566:FreeRTOS/portable/GCC/ARM_CM3/port.c **** 				__asm volatile( "wfi" );
 567:FreeRTOS/portable/GCC/ARM_CM3/port.c **** 				__asm volatile( "isb" );
 568:FreeRTOS/portable/GCC/ARM_CM3/port.c **** 			}
 569:FreeRTOS/portable/GCC/ARM_CM3/port.c **** 			configPOST_SLEEP_PROCESSING( xExpectedIdleTime );
 570:FreeRTOS/portable/GCC/ARM_CM3/port.c **** 
 571:FreeRTOS/portable/GCC/ARM_CM3/port.c **** 			/* Stop SysTick.  Again, the time the SysTick is stopped for is
 572:FreeRTOS/portable/GCC/ARM_CM3/port.c **** 			accounted for as best it can be, but using the tickless mode will
 573:FreeRTOS/portable/GCC/ARM_CM3/port.c **** 			inevitably result in some tiny drift of the time maintained by the
 574:FreeRTOS/portable/GCC/ARM_CM3/port.c **** 			kernel with respect to calendar time. */
 575:FreeRTOS/portable/GCC/ARM_CM3/port.c **** 			ulSysTickCTRL = portNVIC_SYSTICK_CTRL_REG;
 576:FreeRTOS/portable/GCC/ARM_CM3/port.c **** 			portNVIC_SYSTICK_CTRL_REG = ( ulSysTickCTRL & ~portNVIC_SYSTICK_ENABLE_BIT );
 577:FreeRTOS/portable/GCC/ARM_CM3/port.c **** 
 578:FreeRTOS/portable/GCC/ARM_CM3/port.c **** 			/* Re-enable interrupts - see comments above the cpsid instruction()
 579:FreeRTOS/portable/GCC/ARM_CM3/port.c **** 			above. */
 580:FreeRTOS/portable/GCC/ARM_CM3/port.c **** 			__asm volatile( "cpsie i" );
 581:FreeRTOS/portable/GCC/ARM_CM3/port.c **** 
 582:FreeRTOS/portable/GCC/ARM_CM3/port.c **** 			if( ( ulSysTickCTRL & portNVIC_SYSTICK_COUNT_FLAG_BIT ) != 0 )
 583:FreeRTOS/portable/GCC/ARM_CM3/port.c **** 			{
 584:FreeRTOS/portable/GCC/ARM_CM3/port.c **** 				uint32_t ulCalculatedLoadValue;
 585:FreeRTOS/portable/GCC/ARM_CM3/port.c **** 
 586:FreeRTOS/portable/GCC/ARM_CM3/port.c **** 				/* The tick interrupt has already executed, and the SysTick
 587:FreeRTOS/portable/GCC/ARM_CM3/port.c **** 				count reloaded with ulReloadValue.  Reset the
 588:FreeRTOS/portable/GCC/ARM_CM3/port.c **** 				portNVIC_SYSTICK_LOAD_REG with whatever remains of this tick
 589:FreeRTOS/portable/GCC/ARM_CM3/port.c **** 				period. */
 590:FreeRTOS/portable/GCC/ARM_CM3/port.c **** 				ulCalculatedLoadValue = ( ulTimerCountsForOneTick - 1UL ) - ( ulReloadValue - portNVIC_SYSTICK_
 591:FreeRTOS/portable/GCC/ARM_CM3/port.c **** 
 592:FreeRTOS/portable/GCC/ARM_CM3/port.c **** 				/* Don't allow a tiny value, or values that have somehow
 593:FreeRTOS/portable/GCC/ARM_CM3/port.c **** 				underflowed because the post sleep hook did something
 594:FreeRTOS/portable/GCC/ARM_CM3/port.c **** 				that took too long. */
 595:FreeRTOS/portable/GCC/ARM_CM3/port.c **** 				if( ( ulCalculatedLoadValue < ulStoppedTimerCompensation ) || ( ulCalculatedLoadValue > ulTimer
 596:FreeRTOS/portable/GCC/ARM_CM3/port.c **** 				{
 597:FreeRTOS/portable/GCC/ARM_CM3/port.c **** 					ulCalculatedLoadValue = ( ulTimerCountsForOneTick - 1UL );
 598:FreeRTOS/portable/GCC/ARM_CM3/port.c **** 				}
 599:FreeRTOS/portable/GCC/ARM_CM3/port.c **** 
 600:FreeRTOS/portable/GCC/ARM_CM3/port.c **** 				portNVIC_SYSTICK_LOAD_REG = ulCalculatedLoadValue;
 601:FreeRTOS/portable/GCC/ARM_CM3/port.c **** 
ARM GAS  C:\Users\STUDENT\AppData\Local\Temp\cc98amK8.s 			page 25


 602:FreeRTOS/portable/GCC/ARM_CM3/port.c **** 				/* The tick interrupt handler will already have pended the tick
 603:FreeRTOS/portable/GCC/ARM_CM3/port.c **** 				processing in the kernel.  As the pending tick will be
 604:FreeRTOS/portable/GCC/ARM_CM3/port.c **** 				processed as soon as this function exits, the tick value
 605:FreeRTOS/portable/GCC/ARM_CM3/port.c **** 				maintained by the tick is stepped forward by one less than the
 606:FreeRTOS/portable/GCC/ARM_CM3/port.c **** 				time spent waiting. */
 607:FreeRTOS/portable/GCC/ARM_CM3/port.c **** 				ulCompleteTickPeriods = xExpectedIdleTime - 1UL;
 608:FreeRTOS/portable/GCC/ARM_CM3/port.c **** 			}
 609:FreeRTOS/portable/GCC/ARM_CM3/port.c **** 			else
 610:FreeRTOS/portable/GCC/ARM_CM3/port.c **** 			{
 611:FreeRTOS/portable/GCC/ARM_CM3/port.c **** 				/* Something other than the tick interrupt ended the sleep.
 612:FreeRTOS/portable/GCC/ARM_CM3/port.c **** 				Work out how long the sleep lasted rounded to complete tick
 613:FreeRTOS/portable/GCC/ARM_CM3/port.c **** 				periods (not the ulReload value which accounted for part
 614:FreeRTOS/portable/GCC/ARM_CM3/port.c **** 				ticks). */
 615:FreeRTOS/portable/GCC/ARM_CM3/port.c **** 				ulCompletedSysTickDecrements = ( xExpectedIdleTime * ulTimerCountsForOneTick ) - portNVIC_SYSTI
 616:FreeRTOS/portable/GCC/ARM_CM3/port.c **** 
 617:FreeRTOS/portable/GCC/ARM_CM3/port.c **** 				/* How many complete tick periods passed while the processor
 618:FreeRTOS/portable/GCC/ARM_CM3/port.c **** 				was waiting? */
 619:FreeRTOS/portable/GCC/ARM_CM3/port.c **** 				ulCompleteTickPeriods = ulCompletedSysTickDecrements / ulTimerCountsForOneTick;
 620:FreeRTOS/portable/GCC/ARM_CM3/port.c **** 
 621:FreeRTOS/portable/GCC/ARM_CM3/port.c **** 				/* The reload value is set to whatever fraction of a single tick
 622:FreeRTOS/portable/GCC/ARM_CM3/port.c **** 				period remains. */
 623:FreeRTOS/portable/GCC/ARM_CM3/port.c **** 				portNVIC_SYSTICK_LOAD_REG = ( ( ulCompleteTickPeriods + 1 ) * ulTimerCountsForOneTick ) - ulCom
 624:FreeRTOS/portable/GCC/ARM_CM3/port.c **** 			}
 625:FreeRTOS/portable/GCC/ARM_CM3/port.c **** 
 626:FreeRTOS/portable/GCC/ARM_CM3/port.c **** 			/* Restart SysTick so it runs from portNVIC_SYSTICK_LOAD_REG
 627:FreeRTOS/portable/GCC/ARM_CM3/port.c **** 			again, then set portNVIC_SYSTICK_LOAD_REG back to its standard
 628:FreeRTOS/portable/GCC/ARM_CM3/port.c **** 			value.  The critical section is used to ensure the tick interrupt
 629:FreeRTOS/portable/GCC/ARM_CM3/port.c **** 			can only execute once in the case that the reload register is near
 630:FreeRTOS/portable/GCC/ARM_CM3/port.c **** 			zero. */
 631:FreeRTOS/portable/GCC/ARM_CM3/port.c **** 			portNVIC_SYSTICK_CURRENT_VALUE_REG = 0UL;
 632:FreeRTOS/portable/GCC/ARM_CM3/port.c **** 			portENTER_CRITICAL();
 633:FreeRTOS/portable/GCC/ARM_CM3/port.c **** 			{
 634:FreeRTOS/portable/GCC/ARM_CM3/port.c **** 				portNVIC_SYSTICK_CTRL_REG |= portNVIC_SYSTICK_ENABLE_BIT;
 635:FreeRTOS/portable/GCC/ARM_CM3/port.c **** 				vTaskStepTick( ulCompleteTickPeriods );
 636:FreeRTOS/portable/GCC/ARM_CM3/port.c **** 				portNVIC_SYSTICK_LOAD_REG = ulTimerCountsForOneTick - 1UL;
 637:FreeRTOS/portable/GCC/ARM_CM3/port.c **** 			}
 638:FreeRTOS/portable/GCC/ARM_CM3/port.c **** 			portEXIT_CRITICAL();
 639:FreeRTOS/portable/GCC/ARM_CM3/port.c **** 		}
 640:FreeRTOS/portable/GCC/ARM_CM3/port.c **** 	}
 641:FreeRTOS/portable/GCC/ARM_CM3/port.c **** 
 642:FreeRTOS/portable/GCC/ARM_CM3/port.c **** #endif /* #if configUSE_TICKLESS_IDLE */
 643:FreeRTOS/portable/GCC/ARM_CM3/port.c **** /*-----------------------------------------------------------*/
 644:FreeRTOS/portable/GCC/ARM_CM3/port.c **** 
 645:FreeRTOS/portable/GCC/ARM_CM3/port.c **** /*
 646:FreeRTOS/portable/GCC/ARM_CM3/port.c ****  * Setup the systick timer to generate the tick interrupts at the required
 647:FreeRTOS/portable/GCC/ARM_CM3/port.c ****  * frequency.
 648:FreeRTOS/portable/GCC/ARM_CM3/port.c ****  */
 649:FreeRTOS/portable/GCC/ARM_CM3/port.c **** __attribute__(( weak )) void vPortSetupTimerInterrupt( void )
 650:FreeRTOS/portable/GCC/ARM_CM3/port.c **** {
 767              		.loc 1 650 0
 768              		.cfi_startproc
 769              		@ args = 0, pretend = 0, frame = 0
 770              		@ frame_needed = 1, uses_anonymous_args = 0
 771              		@ link register save eliminated.
 772 0000 80B4     		push	{r7}	@
 773              		.cfi_def_cfa_offset 4
 774              		.cfi_offset 7, -4
ARM GAS  C:\Users\STUDENT\AppData\Local\Temp\cc98amK8.s 			page 26


 775 0002 00AF     		add	r7, sp, #0	@,,
 776              		.cfi_def_cfa_register 7
 651:FreeRTOS/portable/GCC/ARM_CM3/port.c **** 	/* Calculate the constants required to configure the tick interrupt. */
 652:FreeRTOS/portable/GCC/ARM_CM3/port.c **** 	#if configUSE_TICKLESS_IDLE == 1
 653:FreeRTOS/portable/GCC/ARM_CM3/port.c **** 	{
 654:FreeRTOS/portable/GCC/ARM_CM3/port.c **** 		ulTimerCountsForOneTick = ( configSYSTICK_CLOCK_HZ / configTICK_RATE_HZ );
 655:FreeRTOS/portable/GCC/ARM_CM3/port.c **** 		xMaximumPossibleSuppressedTicks = portMAX_24_BIT_NUMBER / ulTimerCountsForOneTick;
 656:FreeRTOS/portable/GCC/ARM_CM3/port.c **** 		ulStoppedTimerCompensation = portMISSED_COUNTS_FACTOR / ( configCPU_CLOCK_HZ / configSYSTICK_CLOC
 657:FreeRTOS/portable/GCC/ARM_CM3/port.c **** 	}
 658:FreeRTOS/portable/GCC/ARM_CM3/port.c **** 	#endif /* configUSE_TICKLESS_IDLE */
 659:FreeRTOS/portable/GCC/ARM_CM3/port.c **** 
 660:FreeRTOS/portable/GCC/ARM_CM3/port.c **** 	/* Configure SysTick to interrupt at the requested rate. */
 661:FreeRTOS/portable/GCC/ARM_CM3/port.c **** 	portNVIC_SYSTICK_LOAD_REG = ( configSYSTICK_CLOCK_HZ / configTICK_RATE_HZ ) - 1UL;
 777              		.loc 1 661 0
 778 0004 044B     		ldr	r3, .L50	@ D.4640,
 779 0006 054A     		ldr	r2, .L50+4	@ tmp112,
 780 0008 1A60     		str	r2, [r3]	@ tmp112, *_1
 662:FreeRTOS/portable/GCC/ARM_CM3/port.c **** 	portNVIC_SYSTICK_CTRL_REG = ( portNVIC_SYSTICK_CLK_BIT | portNVIC_SYSTICK_INT_BIT | portNVIC_SYSTI
 781              		.loc 1 662 0
 782 000a 054B     		ldr	r3, .L50+8	@ D.4640,
 783 000c 0722     		movs	r2, #7	@ tmp113,
 784 000e 1A60     		str	r2, [r3]	@ tmp113, *_4
 663:FreeRTOS/portable/GCC/ARM_CM3/port.c **** }
 785              		.loc 1 663 0
 786 0010 00BF     		nop
 787 0012 BD46     		mov	sp, r7	@,
 788              		.cfi_def_cfa_register 13
 789              		@ sp needed	@
 790 0014 80BC     		pop	{r7}	@
 791              		.cfi_restore 7
 792              		.cfi_def_cfa_offset 0
 793 0016 7047     		bx	lr	@
 794              	.L51:
 795              		.align	2
 796              	.L50:
 797 0018 14E000E0 		.word	-536813548
 798 001c 9F860100 		.word	99999
 799 0020 10E000E0 		.word	-536813552
 800              		.cfi_endproc
 801              	.LFE14:
 802              		.size	vPortSetupTimerInterrupt, .-vPortSetupTimerInterrupt
 803              		.section	.text.vPortValidateInterruptPriority,"ax",%progbits
 804              		.align	2
 805              		.global	vPortValidateInterruptPriority
 806              		.thumb
 807              		.thumb_func
 808              		.type	vPortValidateInterruptPriority, %function
 809              	vPortValidateInterruptPriority:
 810              	.LFB15:
 664:FreeRTOS/portable/GCC/ARM_CM3/port.c **** /*-----------------------------------------------------------*/
 665:FreeRTOS/portable/GCC/ARM_CM3/port.c **** 
 666:FreeRTOS/portable/GCC/ARM_CM3/port.c **** #if( configASSERT_DEFINED == 1 )
 667:FreeRTOS/portable/GCC/ARM_CM3/port.c **** 
 668:FreeRTOS/portable/GCC/ARM_CM3/port.c **** 	void vPortValidateInterruptPriority( void )
 669:FreeRTOS/portable/GCC/ARM_CM3/port.c **** 	{
 811              		.loc 1 669 0
 812              		.cfi_startproc
ARM GAS  C:\Users\STUDENT\AppData\Local\Temp\cc98amK8.s 			page 27


 813              		@ args = 0, pretend = 0, frame = 8
 814              		@ frame_needed = 1, uses_anonymous_args = 0
 815 0000 80B5     		push	{r7, lr}	@
 816              		.cfi_def_cfa_offset 8
 817              		.cfi_offset 7, -8
 818              		.cfi_offset 14, -4
 819 0002 82B0     		sub	sp, sp, #8	@,,
 820              		.cfi_def_cfa_offset 16
 821 0004 00AF     		add	r7, sp, #0	@,,
 822              		.cfi_def_cfa_register 7
 670:FreeRTOS/portable/GCC/ARM_CM3/port.c **** 	uint32_t ulCurrentInterrupt;
 671:FreeRTOS/portable/GCC/ARM_CM3/port.c **** 	uint8_t ucCurrentPriority;
 672:FreeRTOS/portable/GCC/ARM_CM3/port.c **** 
 673:FreeRTOS/portable/GCC/ARM_CM3/port.c **** 		/* Obtain the number of the currently executing interrupt. */
 674:FreeRTOS/portable/GCC/ARM_CM3/port.c **** 		__asm volatile( "mrs %0, ipsr" : "=r"( ulCurrentInterrupt ) );
 823              		.loc 1 674 0
 824              		.syntax unified
 825              	@ 674 "FreeRTOS/portable/GCC/ARM_CM3/port.c" 1
 826 0006 EFF30583 		mrs r3, ipsr	@ ulCurrentInterrupt
 827              	@ 0 "" 2
 828              		.thumb
 829              		.syntax unified
 830 000a 7B60     		str	r3, [r7, #4]	@ ulCurrentInterrupt, ulCurrentInterrupt
 675:FreeRTOS/portable/GCC/ARM_CM3/port.c **** 
 676:FreeRTOS/portable/GCC/ARM_CM3/port.c **** 		/* Is the interrupt number a user defined interrupt? */
 677:FreeRTOS/portable/GCC/ARM_CM3/port.c **** 		if( ulCurrentInterrupt >= portFIRST_USER_INTERRUPT_NUMBER )
 831              		.loc 1 677 0
 832 000c 7B68     		ldr	r3, [r7, #4]	@ tmp118, ulCurrentInterrupt
 833 000e 0F2B     		cmp	r3, #15	@ tmp118,
 834 0010 0CD9     		bls	.L53	@,
 678:FreeRTOS/portable/GCC/ARM_CM3/port.c **** 		{
 679:FreeRTOS/portable/GCC/ARM_CM3/port.c **** 			/* Look up the interrupt's priority. */
 680:FreeRTOS/portable/GCC/ARM_CM3/port.c **** 			ucCurrentPriority = pcInterruptPriorityRegisters[ ulCurrentInterrupt ];
 835              		.loc 1 680 0
 836 0012 0E4A     		ldr	r2, .L58	@ D.4641,
 837 0014 7B68     		ldr	r3, [r7, #4]	@ tmp119, ulCurrentInterrupt
 838 0016 1344     		add	r3, r3, r2	@ D.4641, D.4641
 839 0018 1B78     		ldrb	r3, [r3]	@ tmp120, *_3
 840 001a FB70     		strb	r3, [r7, #3]	@ tmp120, ucCurrentPriority
 681:FreeRTOS/portable/GCC/ARM_CM3/port.c **** 
 682:FreeRTOS/portable/GCC/ARM_CM3/port.c **** 			/* The following assertion will fail if a service routine (ISR) for
 683:FreeRTOS/portable/GCC/ARM_CM3/port.c **** 			an interrupt that has been assigned a priority above
 684:FreeRTOS/portable/GCC/ARM_CM3/port.c **** 			configMAX_SYSCALL_INTERRUPT_PRIORITY calls an ISR safe FreeRTOS API
 685:FreeRTOS/portable/GCC/ARM_CM3/port.c **** 			function.  ISR safe FreeRTOS API functions must *only* be called
 686:FreeRTOS/portable/GCC/ARM_CM3/port.c **** 			from interrupts that have been assigned a priority at or below
 687:FreeRTOS/portable/GCC/ARM_CM3/port.c **** 			configMAX_SYSCALL_INTERRUPT_PRIORITY.
 688:FreeRTOS/portable/GCC/ARM_CM3/port.c **** 
 689:FreeRTOS/portable/GCC/ARM_CM3/port.c **** 			Numerically low interrupt priority numbers represent logically high
 690:FreeRTOS/portable/GCC/ARM_CM3/port.c **** 			interrupt priorities, therefore the priority of the interrupt must
 691:FreeRTOS/portable/GCC/ARM_CM3/port.c **** 			be set to a value equal to or numerically *higher* than
 692:FreeRTOS/portable/GCC/ARM_CM3/port.c **** 			configMAX_SYSCALL_INTERRUPT_PRIORITY.
 693:FreeRTOS/portable/GCC/ARM_CM3/port.c **** 
 694:FreeRTOS/portable/GCC/ARM_CM3/port.c **** 			Interrupts that	use the FreeRTOS API must not be left at their
 695:FreeRTOS/portable/GCC/ARM_CM3/port.c **** 			default priority of	zero as that is the highest possible priority,
 696:FreeRTOS/portable/GCC/ARM_CM3/port.c **** 			which is guaranteed to be above configMAX_SYSCALL_INTERRUPT_PRIORITY,
 697:FreeRTOS/portable/GCC/ARM_CM3/port.c **** 			and	therefore also guaranteed to be invalid.
 698:FreeRTOS/portable/GCC/ARM_CM3/port.c **** 
ARM GAS  C:\Users\STUDENT\AppData\Local\Temp\cc98amK8.s 			page 28


 699:FreeRTOS/portable/GCC/ARM_CM3/port.c **** 			FreeRTOS maintains separate thread and ISR API functions to ensure
 700:FreeRTOS/portable/GCC/ARM_CM3/port.c **** 			interrupt entry is as fast and simple as possible.
 701:FreeRTOS/portable/GCC/ARM_CM3/port.c **** 
 702:FreeRTOS/portable/GCC/ARM_CM3/port.c **** 			The following links provide detailed information:
 703:FreeRTOS/portable/GCC/ARM_CM3/port.c **** 			http://www.freertos.org/RTOS-Cortex-M3-M4.html
 704:FreeRTOS/portable/GCC/ARM_CM3/port.c **** 			http://www.freertos.org/FAQHelp.html */
 705:FreeRTOS/portable/GCC/ARM_CM3/port.c **** 			configASSERT( ucCurrentPriority >= ucMaxSysCallPriority );
 841              		.loc 1 705 0
 842 001c 0C4B     		ldr	r3, .L58+4	@ tmp121,
 843 001e 1B78     		ldrb	r3, [r3]	@ zero_extendqisi2	@ D.4642, ucMaxSysCallPriority
 844 0020 FA78     		ldrb	r2, [r7, #3]	@ zero_extendqisi2	@ tmp122, ucCurrentPriority
 845 0022 9A42     		cmp	r2, r3	@ tmp122, D.4642
 846 0024 02D2     		bcs	.L53	@,
 847              		.loc 1 705 0 is_stmt 0 discriminator 1
 848 0026 FFF7FEFF 		bl	ulPortSetInterruptMask	@
 849              	.L54:
 850 002a FEE7     		b	.L54	@
 851              	.L53:
 706:FreeRTOS/portable/GCC/ARM_CM3/port.c **** 		}
 707:FreeRTOS/portable/GCC/ARM_CM3/port.c **** 
 708:FreeRTOS/portable/GCC/ARM_CM3/port.c **** 		/* Priority grouping:  The interrupt controller (NVIC) allows the bits
 709:FreeRTOS/portable/GCC/ARM_CM3/port.c **** 		that define each interrupt's priority to be split between bits that
 710:FreeRTOS/portable/GCC/ARM_CM3/port.c **** 		define the interrupt's pre-emption priority bits and bits that define
 711:FreeRTOS/portable/GCC/ARM_CM3/port.c **** 		the interrupt's sub-priority.  For simplicity all bits must be defined
 712:FreeRTOS/portable/GCC/ARM_CM3/port.c **** 		to be pre-emption priority bits.  The following assertion will fail if
 713:FreeRTOS/portable/GCC/ARM_CM3/port.c **** 		this is not the case (if some bits represent a sub-priority).
 714:FreeRTOS/portable/GCC/ARM_CM3/port.c **** 
 715:FreeRTOS/portable/GCC/ARM_CM3/port.c **** 		If the application only uses CMSIS libraries for interrupt
 716:FreeRTOS/portable/GCC/ARM_CM3/port.c **** 		configuration then the correct setting can be achieved on all Cortex-M
 717:FreeRTOS/portable/GCC/ARM_CM3/port.c **** 		devices by calling NVIC_SetPriorityGrouping( 0 ); before starting the
 718:FreeRTOS/portable/GCC/ARM_CM3/port.c **** 		scheduler.  Note however that some vendor specific peripheral libraries
 719:FreeRTOS/portable/GCC/ARM_CM3/port.c **** 		assume a non-zero priority group setting, in which cases using a value
 720:FreeRTOS/portable/GCC/ARM_CM3/port.c **** 		of zero will result in unpredicable behaviour. */
 721:FreeRTOS/portable/GCC/ARM_CM3/port.c **** 		configASSERT( ( portAIRCR_REG & portPRIORITY_GROUP_MASK ) <= ulMaxPRIGROUPValue );
 852              		.loc 1 721 0 is_stmt 1
 853 002c 094B     		ldr	r3, .L58+8	@ D.4643,
 854 002e 1B68     		ldr	r3, [r3]	@ D.4644, *_8
 855 0030 03F4E062 		and	r2, r3, #1792	@ D.4644, D.4644,
 856 0034 084B     		ldr	r3, .L58+12	@ tmp123,
 857 0036 1B68     		ldr	r3, [r3]	@ D.4644, ulMaxPRIGROUPValue
 858 0038 9A42     		cmp	r2, r3	@ D.4644, D.4644
 859 003a 02D9     		bls	.L57	@,
 860              		.loc 1 721 0 is_stmt 0 discriminator 1
 861 003c FFF7FEFF 		bl	ulPortSetInterruptMask	@
 862              	.L56:
 863              		.loc 1 721 0 discriminator 2
 864 0040 FEE7     		b	.L56	@
 865              	.L57:
 722:FreeRTOS/portable/GCC/ARM_CM3/port.c **** 	}
 866              		.loc 1 722 0 is_stmt 1
 867 0042 00BF     		nop
 868 0044 0837     		adds	r7, r7, #8	@,,
 869              		.cfi_def_cfa_offset 8
 870 0046 BD46     		mov	sp, r7	@,
 871              		.cfi_def_cfa_register 13
 872              		@ sp needed	@
 873 0048 80BD     		pop	{r7, pc}	@
ARM GAS  C:\Users\STUDENT\AppData\Local\Temp\cc98amK8.s 			page 29


 874              	.L59:
 875 004a 00BF     		.align	2
 876              	.L58:
 877 004c F0E300E0 		.word	-536812560
 878 0050 00000000 		.word	ucMaxSysCallPriority
 879 0054 0CED00E0 		.word	-536810228
 880 0058 00000000 		.word	ulMaxPRIGROUPValue
 881              		.cfi_endproc
 882              	.LFE15:
 883              		.size	vPortValidateInterruptPriority, .-vPortValidateInterruptPriority
 884              		.text
 885              	.Letext0:
 886              		.file 2 "c:\\program files (x86)\\gnu tools arm embedded\\5.4 2016q3\\arm-none-eabi\\include\\mach
 887              		.file 3 "c:\\program files (x86)\\gnu tools arm embedded\\5.4 2016q3\\arm-none-eabi\\include\\sys\
 888              		.file 4 "FreeRTOS/include/projdefs.h"
 889              		.file 5 "FreeRTOS/portable/GCC/ARM_CM3/portmacro.h"