ARM GAS  C:\Users\COSMIN~1.MAR\AppData\Local\Temp\cc5hxLYL.s 			page 1


   1              		.syntax unified
   2              		.cpu cortex-m3
   3              		.fpu softvfp
   4              		.eabi_attribute 20, 1	@ Tag_ABI_FP_denormal
   5              		.eabi_attribute 21, 1	@ Tag_ABI_FP_exceptions
   6              		.eabi_attribute 23, 3	@ Tag_ABI_FP_number_model
   7              		.eabi_attribute 24, 1	@ Tag_ABI_align8_needed
   8              		.eabi_attribute 25, 1	@ Tag_ABI_align8_preserved
   9              		.eabi_attribute 26, 1	@ Tag_ABI_enum_size
  10              		.eabi_attribute 30, 6	@ Tag_ABI_optimization_goals
  11              		.eabi_attribute 34, 1	@ Tag_CPU_unaligned_access
  12              		.eabi_attribute 18, 4	@ Tag_ABI_PCS_wchar_t
  13              		.file	"queue.c"
  14              	@ GNU C (GNU Tools for ARM Embedded Processors) version 4.9.3 20150303 (release) [ARM/embedded-4_9-
  15              	@	compiled by GNU C version 4.7.4, GMP version 4.3.2, MPFR version 2.4.2, MPC version 0.8.1
  16              	@ GGC heuristics: --param ggc-min-expand=100 --param ggc-min-heapsize=131072
  17              	@ options passed:  -I . -I config -I system -I core -I drivers -I FreeRTOS
  18              	@ -I FreeRTOS/include -I FreeRTOS/portable/GCC/ARM_CM3 -I FreeRTOS/portable
  19              	@ -I tasks/rc_task_leds -I modules/rc_leds -I drivers/rc_system
  20              	@ -I drivers/rc_gpio -I drivers/rc_uart -I drivers/rc_pinsel
  21              	@ -I drivers/rc_timer -I drivers/rc_adc -imultilib armv7-m
  22              	@ -iprefix c:\gnu tools arm embedded\4.9 2015q1\bin\../lib/gcc/arm-none-eabi/4.9.3/
  23              	@ -isysroot c:\gnu tools arm embedded\4.9 2015q1\bin\../arm-none-eabi
  24              	@ -MD out/queue.d -MF out/queue.d -MP -MQ out/queue.o -D__USES_INITFINI__
  25              	@ FreeRTOS/queue.c -mcpu=cortex-m3 -mthumb -auxbase-strip out/queue.o -g
  26              	@ -ggdb3 -O0 -Wall -Wstrict-prototypes -Wextra -std=gnu90
  27              	@ -ffunction-sections -fdata-sections -fverbose-asm
  28              	@ options enabled:  -faggressive-loop-optimizations -fauto-inc-dec -fcommon
  29              	@ -fdata-sections -fdelete-null-pointer-checks -fdwarf2-cfi-asm
  30              	@ -fearly-inlining -feliminate-unused-debug-types -ffunction-cse
  31              	@ -ffunction-sections -fgcse-lm -fgnu-runtime -fgnu-unique -fident
  32              	@ -finline-atomics -fira-hoist-pressure -fira-share-save-slots
  33              	@ -fira-share-spill-slots -fivopts -fkeep-static-consts
  34              	@ -fleading-underscore -flifetime-dse -fmath-errno -fmerge-debug-strings
  35              	@ -fpeephole -fprefetch-loop-arrays -freg-struct-return
  36              	@ -fsched-critical-path-heuristic -fsched-dep-count-heuristic
  37              	@ -fsched-group-heuristic -fsched-interblock -fsched-last-insn-heuristic
  38              	@ -fsched-rank-heuristic -fsched-spec -fsched-spec-insn-heuristic
  39              	@ -fsched-stalled-insns-dep -fshow-column -fsigned-zeros
  40              	@ -fsplit-ivs-in-unroller -fstrict-volatile-bitfields -fsync-libcalls
  41              	@ -ftrapping-math -ftree-coalesce-vars -ftree-cselim -ftree-forwprop
  42              	@ -ftree-loop-if-convert -ftree-loop-im -ftree-loop-ivcanon
  43              	@ -ftree-loop-optimize -ftree-parallelize-loops= -ftree-phiprop
  44              	@ -ftree-reassoc -ftree-scev-cprop -funit-at-a-time -fverbose-asm
  45              	@ -fzero-initialized-in-bss -mfix-cortex-m3-ldrd -mlittle-endian -mlra
  46              	@ -mpic-data-is-text-relative -msched-prolog -mthumb -munaligned-access
  47              	@ -mvectorize-with-neon-quad
  48              	
  49              		.text
  50              	.Ltext0:
  51              		.cfi_sections	.debug_frame
  52              		.comm	xQueueRegistry,80,4
  53              		.section	.text.xQueueGenericReset,"ax",%progbits
  54              		.align	2
  55              		.global	xQueueGenericReset
  56              		.thumb
  57              		.thumb_func
ARM GAS  C:\Users\COSMIN~1.MAR\AppData\Local\Temp\cc5hxLYL.s 			page 2


  58              		.type	xQueueGenericReset, %function
  59              	xQueueGenericReset:
  60              	.LFB1:
  61              		.file 1 "FreeRTOS/queue.c"
   1:FreeRTOS/queue.c **** /*
   2:FreeRTOS/queue.c ****     FreeRTOS V8.1.2 - Copyright (C) 2014 Real Time Engineers Ltd.
   3:FreeRTOS/queue.c ****     All rights reserved
   4:FreeRTOS/queue.c **** 
   5:FreeRTOS/queue.c ****     VISIT http://www.FreeRTOS.org TO ENSURE YOU ARE USING THE LATEST VERSION.
   6:FreeRTOS/queue.c **** 
   7:FreeRTOS/queue.c ****     ***************************************************************************
   8:FreeRTOS/queue.c ****      *                                                                       *
   9:FreeRTOS/queue.c ****      *    FreeRTOS provides completely free yet professionally developed,    *
  10:FreeRTOS/queue.c ****      *    robust, strictly quality controlled, supported, and cross          *
  11:FreeRTOS/queue.c ****      *    platform software that has become a de facto standard.             *
  12:FreeRTOS/queue.c ****      *                                                                       *
  13:FreeRTOS/queue.c ****      *    Help yourself get started quickly and support the FreeRTOS         *
  14:FreeRTOS/queue.c ****      *    project by purchasing a FreeRTOS tutorial book, reference          *
  15:FreeRTOS/queue.c ****      *    manual, or both from: http://www.FreeRTOS.org/Documentation        *
  16:FreeRTOS/queue.c ****      *                                                                       *
  17:FreeRTOS/queue.c ****      *    Thank you!                                                         *
  18:FreeRTOS/queue.c ****      *                                                                       *
  19:FreeRTOS/queue.c ****     ***************************************************************************
  20:FreeRTOS/queue.c **** 
  21:FreeRTOS/queue.c ****     This file is part of the FreeRTOS distribution.
  22:FreeRTOS/queue.c **** 
  23:FreeRTOS/queue.c ****     FreeRTOS is free software; you can redistribute it and/or modify it under
  24:FreeRTOS/queue.c ****     the terms of the GNU General Public License (version 2) as published by the
  25:FreeRTOS/queue.c ****     Free Software Foundation >>!AND MODIFIED BY!<< the FreeRTOS exception.
  26:FreeRTOS/queue.c **** 
  27:FreeRTOS/queue.c ****     >>!   NOTE: The modification to the GPL is included to allow you to     !<<
  28:FreeRTOS/queue.c ****     >>!   distribute a combined work that includes FreeRTOS without being   !<<
  29:FreeRTOS/queue.c ****     >>!   obliged to provide the source code for proprietary components     !<<
  30:FreeRTOS/queue.c ****     >>!   outside of the FreeRTOS kernel.                                   !<<
  31:FreeRTOS/queue.c **** 
  32:FreeRTOS/queue.c ****     FreeRTOS is distributed in the hope that it will be useful, but WITHOUT ANY
  33:FreeRTOS/queue.c ****     WARRANTY; without even the implied warranty of MERCHANTABILITY or FITNESS
  34:FreeRTOS/queue.c ****     FOR A PARTICULAR PURPOSE.  Full license text is available from the following
  35:FreeRTOS/queue.c ****     link: http://www.freertos.org/a00114.html
  36:FreeRTOS/queue.c **** 
  37:FreeRTOS/queue.c ****     1 tab == 4 spaces!
  38:FreeRTOS/queue.c **** 
  39:FreeRTOS/queue.c ****     ***************************************************************************
  40:FreeRTOS/queue.c ****      *                                                                       *
  41:FreeRTOS/queue.c ****      *    Having a problem?  Start by reading the FAQ "My application does   *
  42:FreeRTOS/queue.c ****      *    not run, what could be wrong?"                                     *
  43:FreeRTOS/queue.c ****      *                                                                       *
  44:FreeRTOS/queue.c ****      *    http://www.FreeRTOS.org/FAQHelp.html                               *
  45:FreeRTOS/queue.c ****      *                                                                       *
  46:FreeRTOS/queue.c ****     ***************************************************************************
  47:FreeRTOS/queue.c **** 
  48:FreeRTOS/queue.c ****     http://www.FreeRTOS.org - Documentation, books, training, latest versions,
  49:FreeRTOS/queue.c ****     license and Real Time Engineers Ltd. contact details.
  50:FreeRTOS/queue.c **** 
  51:FreeRTOS/queue.c ****     http://www.FreeRTOS.org/plus - A selection of FreeRTOS ecosystem products,
  52:FreeRTOS/queue.c ****     including FreeRTOS+Trace - an indispensable productivity tool, a DOS
  53:FreeRTOS/queue.c ****     compatible FAT file system, and our tiny thread aware UDP/IP stack.
ARM GAS  C:\Users\COSMIN~1.MAR\AppData\Local\Temp\cc5hxLYL.s 			page 3


  54:FreeRTOS/queue.c **** 
  55:FreeRTOS/queue.c ****     http://www.OpenRTOS.com - Real Time Engineers ltd license FreeRTOS to High
  56:FreeRTOS/queue.c ****     Integrity Systems to sell under the OpenRTOS brand.  Low cost OpenRTOS
  57:FreeRTOS/queue.c ****     licenses offer ticketed support, indemnification and middleware.
  58:FreeRTOS/queue.c **** 
  59:FreeRTOS/queue.c ****     http://www.SafeRTOS.com - High Integrity Systems also provide a safety
  60:FreeRTOS/queue.c ****     engineered and independently SIL3 certified version for use in safety and
  61:FreeRTOS/queue.c ****     mission critical applications that require provable dependability.
  62:FreeRTOS/queue.c **** 
  63:FreeRTOS/queue.c ****     1 tab == 4 spaces!
  64:FreeRTOS/queue.c **** */
  65:FreeRTOS/queue.c **** 
  66:FreeRTOS/queue.c **** #include <stdlib.h>
  67:FreeRTOS/queue.c **** #include <string.h>
  68:FreeRTOS/queue.c **** 
  69:FreeRTOS/queue.c **** /* Defining MPU_WRAPPERS_INCLUDED_FROM_API_FILE prevents task.h from redefining
  70:FreeRTOS/queue.c **** all the API functions to use the MPU wrappers.  That should only be done when
  71:FreeRTOS/queue.c **** task.h is included from an application file. */
  72:FreeRTOS/queue.c **** #define MPU_WRAPPERS_INCLUDED_FROM_API_FILE
  73:FreeRTOS/queue.c **** 
  74:FreeRTOS/queue.c **** #include "FreeRTOS.h"
  75:FreeRTOS/queue.c **** #include "task.h"
  76:FreeRTOS/queue.c **** #include "queue.h"
  77:FreeRTOS/queue.c **** 
  78:FreeRTOS/queue.c **** #if ( configUSE_CO_ROUTINES == 1 )
  79:FreeRTOS/queue.c **** 	#include "croutine.h"
  80:FreeRTOS/queue.c **** #endif
  81:FreeRTOS/queue.c **** 
  82:FreeRTOS/queue.c **** /* Lint e961 and e750 are suppressed as a MISRA exception justified because the
  83:FreeRTOS/queue.c **** MPU ports require MPU_WRAPPERS_INCLUDED_FROM_API_FILE to be defined for the
  84:FreeRTOS/queue.c **** header files above, but not in this file, in order to generate the correct
  85:FreeRTOS/queue.c **** privileged Vs unprivileged linkage and placement. */
  86:FreeRTOS/queue.c **** #undef MPU_WRAPPERS_INCLUDED_FROM_API_FILE /*lint !e961 !e750. */
  87:FreeRTOS/queue.c **** 
  88:FreeRTOS/queue.c **** 
  89:FreeRTOS/queue.c **** /* Constants used with the xRxLock and xTxLock structure members. */
  90:FreeRTOS/queue.c **** #define queueUNLOCKED					( ( BaseT_t ) -1 )
  91:FreeRTOS/queue.c **** #define queueLOCKED_UNMODIFIED			( ( BaseT_t ) 0 )
  92:FreeRTOS/queue.c **** 
  93:FreeRTOS/queue.c **** /* When the Queue_t structure is used to represent a base queue its pcHead and
  94:FreeRTOS/queue.c **** pcTail members are used as pointers into the queue storage area.  When the
  95:FreeRTOS/queue.c **** Queue_t structure is used to represent a mutex pcHead and pcTail pointers are
  96:FreeRTOS/queue.c **** not necessary, and the pcHead pointer is set to NULL to indicate that the
  97:FreeRTOS/queue.c **** pcTail pointer actually points to the mutex holder (if any).  Map alternative
  98:FreeRTOS/queue.c **** names to the pcHead and pcTail structure members to ensure the readability of
  99:FreeRTOS/queue.c **** the code is maintained despite this dual use of two structure members.  An
 100:FreeRTOS/queue.c **** alternative implementation would be to use a union, but use of a union is
 101:FreeRTOS/queue.c **** against the coding standard (although an exception to the standard has been
 102:FreeRTOS/queue.c **** permitted where the dual use also significantly changes the type of the
 103:FreeRTOS/queue.c **** structure member). */
 104:FreeRTOS/queue.c **** #define pxMutexHolder					pcTail
 105:FreeRTOS/queue.c **** #define uxQueueType						pcHead
 106:FreeRTOS/queue.c **** #define queueQUEUE_IS_MUTEX				NULL
 107:FreeRTOS/queue.c **** 
 108:FreeRTOS/queue.c **** /* Semaphores do not actually store or copy data, so have an item size of
 109:FreeRTOS/queue.c **** zero. */
 110:FreeRTOS/queue.c **** #define queueSEMAPHORE_QUEUE_ITEM_LENGTH ( ( UBaseT_t ) 0 )
ARM GAS  C:\Users\COSMIN~1.MAR\AppData\Local\Temp\cc5hxLYL.s 			page 4


 111:FreeRTOS/queue.c **** #define queueMUTEX_GIVE_BLOCK_TIME		 ( ( TickT_t ) 0U )
 112:FreeRTOS/queue.c **** 
 113:FreeRTOS/queue.c **** #if( configUSE_PREEMPTION == 0 )
 114:FreeRTOS/queue.c **** 	/* If the cooperative scheduler is being used then a yield should not be
 115:FreeRTOS/queue.c **** 	performed just because a higher priority task has been woken. */
 116:FreeRTOS/queue.c **** 	#define queueYIELD_IF_USING_PREEMPTION()
 117:FreeRTOS/queue.c **** #else
 118:FreeRTOS/queue.c **** 	#define queueYIELD_IF_USING_PREEMPTION() portYIELD_WITHIN_API()
 119:FreeRTOS/queue.c **** #endif
 120:FreeRTOS/queue.c **** 
 121:FreeRTOS/queue.c **** /*
 122:FreeRTOS/queue.c ****  * Definition of the queue used by the scheduler.
 123:FreeRTOS/queue.c ****  * Items are queued by copy, not reference.
 124:FreeRTOS/queue.c ****  */
 125:FreeRTOS/queue.c **** typedef struct QueueDefinition
 126:FreeRTOS/queue.c **** {
 127:FreeRTOS/queue.c **** 	int8_t *pcHead;					/*< Points to the beginning of the queue storage area. */
 128:FreeRTOS/queue.c **** 	int8_t *pcTail;					/*< Points to the byte at the end of the queue storage area.  Once more byte i
 129:FreeRTOS/queue.c **** 	int8_t *pcWriteTo;				/*< Points to the free next place in the storage area. */
 130:FreeRTOS/queue.c **** 
 131:FreeRTOS/queue.c **** 	union							/* Use of a union is an exception to the coding standard to ensure two mutually exclus
 132:FreeRTOS/queue.c **** 	{
 133:FreeRTOS/queue.c **** 		int8_t *pcReadFrom;			/*< Points to the last place that a queued item was read from when the stru
 134:FreeRTOS/queue.c **** 		UBaseT_t uxRecursiveCallCount;/*< Maintains a count of the number of times a recursive mutex has 
 135:FreeRTOS/queue.c **** 	} u;
 136:FreeRTOS/queue.c **** 
 137:FreeRTOS/queue.c **** 	List_t xTasksWaitingToSend;		/*< List of tasks that are blocked waiting to post onto this queue.  
 138:FreeRTOS/queue.c **** 	List_t xTasksWaitingToReceive;	/*< List of tasks that are blocked waiting to read from this queue.
 139:FreeRTOS/queue.c **** 
 140:FreeRTOS/queue.c **** 	volatile UBaseT_t uxMessagesWaiting;/*< The number of items currently in the queue. */
 141:FreeRTOS/queue.c **** 	UBaseT_t uxLength;			/*< The length of the queue defined as the number of items it will hold, not 
 142:FreeRTOS/queue.c **** 	UBaseT_t uxItemSize;			/*< The size of each items that the queue will hold. */
 143:FreeRTOS/queue.c **** 
 144:FreeRTOS/queue.c **** 	volatile BaseT_t xRxLock;	/*< Stores the number of items received from the queue (removed from the
 145:FreeRTOS/queue.c **** 	volatile BaseT_t xTxLock;	/*< Stores the number of items transmitted to the queue (added to the qu
 146:FreeRTOS/queue.c **** 
 147:FreeRTOS/queue.c **** 	#if ( configUSE_TRACE_FACILITY == 1 )
 148:FreeRTOS/queue.c **** 		UBaseT_t uxQueueNumber;
 149:FreeRTOS/queue.c **** 		uint8_t ucQueueType;
 150:FreeRTOS/queue.c **** 	#endif
 151:FreeRTOS/queue.c **** 
 152:FreeRTOS/queue.c **** 	#if ( configUSE_QUEUE_SETS == 1 )
 153:FreeRTOS/queue.c **** 		struct QueueDefinition *pxQueueSetContainer;
 154:FreeRTOS/queue.c **** 	#endif
 155:FreeRTOS/queue.c **** 
 156:FreeRTOS/queue.c **** } xQUEUE;
 157:FreeRTOS/queue.c **** 
 158:FreeRTOS/queue.c **** /* The old xQUEUE name is maintained above then typedefed to the new Queue_t
 159:FreeRTOS/queue.c **** name below to enable the use of older kernel aware debuggers. */
 160:FreeRTOS/queue.c **** typedef xQUEUE Queue_t;
 161:FreeRTOS/queue.c **** 
 162:FreeRTOS/queue.c **** /*-----------------------------------------------------------*/
 163:FreeRTOS/queue.c **** 
 164:FreeRTOS/queue.c **** /*
 165:FreeRTOS/queue.c ****  * The queue registry is just a means for kernel aware debuggers to locate
 166:FreeRTOS/queue.c ****  * queue structures.  It has no other purpose so is an optional component.
 167:FreeRTOS/queue.c ****  */
ARM GAS  C:\Users\COSMIN~1.MAR\AppData\Local\Temp\cc5hxLYL.s 			page 5


 168:FreeRTOS/queue.c **** #if ( configQUEUE_REGISTRY_SIZE > 0 )
 169:FreeRTOS/queue.c **** 
 170:FreeRTOS/queue.c **** 	/* The type stored within the queue registry array.  This allows a name
 171:FreeRTOS/queue.c **** 	to be assigned to each queue making kernel aware debugging a little
 172:FreeRTOS/queue.c **** 	more user friendly. */
 173:FreeRTOS/queue.c **** 	typedef struct QUEUE_REGISTRY_ITEM
 174:FreeRTOS/queue.c **** 	{
 175:FreeRTOS/queue.c **** 		const char *pcQueueName; /*lint !e971 Unqualified char types are allowed for strings and single c
 176:FreeRTOS/queue.c **** 		QueueHandle_t xHandle;
 177:FreeRTOS/queue.c **** 	} xQueueRegistryItem;
 178:FreeRTOS/queue.c **** 
 179:FreeRTOS/queue.c **** 	/* The old xQueueRegistryItem name is maintained above then typedefed to the
 180:FreeRTOS/queue.c **** 	new xQueueRegistryItem name below to enable the use of older kernel aware
 181:FreeRTOS/queue.c **** 	debuggers. */
 182:FreeRTOS/queue.c **** 	typedef xQueueRegistryItem QueueRegistryItem_t;
 183:FreeRTOS/queue.c **** 
 184:FreeRTOS/queue.c **** 	/* The queue registry is simply an array of QueueRegistryItem_t structures.
 185:FreeRTOS/queue.c **** 	The pcQueueName member of a structure being NULL is indicative of the
 186:FreeRTOS/queue.c **** 	array position being vacant. */
 187:FreeRTOS/queue.c **** 	QueueRegistryItem_t xQueueRegistry[ configQUEUE_REGISTRY_SIZE ];
 188:FreeRTOS/queue.c **** 
 189:FreeRTOS/queue.c **** #endif /* configQUEUE_REGISTRY_SIZE */
 190:FreeRTOS/queue.c **** 
 191:FreeRTOS/queue.c **** /*
 192:FreeRTOS/queue.c ****  * Unlocks a queue locked by a call to prvLockQueue.  Locking a queue does not
 193:FreeRTOS/queue.c ****  * prevent an ISR from adding or removing items to the queue, but does prevent
 194:FreeRTOS/queue.c ****  * an ISR from removing tasks from the queue event lists.  If an ISR finds a
 195:FreeRTOS/queue.c ****  * queue is locked it will instead increment the appropriate queue lock count
 196:FreeRTOS/queue.c ****  * to indicate that a task may require unblocking.  When the queue in unlocked
 197:FreeRTOS/queue.c ****  * these lock counts are inspected, and the appropriate action taken.
 198:FreeRTOS/queue.c ****  */
 199:FreeRTOS/queue.c **** static void prvUnlockQueue( Queue_t * const pxQueue ) PRIVILEGED_FUNCTION;
 200:FreeRTOS/queue.c **** 
 201:FreeRTOS/queue.c **** /*
 202:FreeRTOS/queue.c ****  * Uses a critical section to determine if there is any data in a queue.
 203:FreeRTOS/queue.c ****  *
 204:FreeRTOS/queue.c ****  * @return pdTRUE if the queue contains no items, otherwise pdFALSE.
 205:FreeRTOS/queue.c ****  */
 206:FreeRTOS/queue.c **** static BaseT_t prvIsQueueEmpty( const Queue_t *pxQueue ) PRIVILEGED_FUNCTION;
 207:FreeRTOS/queue.c **** 
 208:FreeRTOS/queue.c **** /*
 209:FreeRTOS/queue.c ****  * Uses a critical section to determine if there is any space in a queue.
 210:FreeRTOS/queue.c ****  *
 211:FreeRTOS/queue.c ****  * @return pdTRUE if there is no space, otherwise pdFALSE;
 212:FreeRTOS/queue.c ****  */
 213:FreeRTOS/queue.c **** static BaseT_t prvIsQueueFull( const Queue_t *pxQueue ) PRIVILEGED_FUNCTION;
 214:FreeRTOS/queue.c **** 
 215:FreeRTOS/queue.c **** /*
 216:FreeRTOS/queue.c ****  * Copies an item into the queue, either at the front of the queue or the
 217:FreeRTOS/queue.c ****  * back of the queue.
 218:FreeRTOS/queue.c ****  */
 219:FreeRTOS/queue.c **** static BaseT_t prvCopyDataToQueue( Queue_t * const pxQueue, const void *pvItemToQueue, const BaseT_
 220:FreeRTOS/queue.c **** 
 221:FreeRTOS/queue.c **** /*
 222:FreeRTOS/queue.c ****  * Copies an item out of a queue.
 223:FreeRTOS/queue.c ****  */
 224:FreeRTOS/queue.c **** static void prvCopyDataFromQueue( Queue_t * const pxQueue, void * const pvBuffer ) PRIVILEGED_FUNCT
ARM GAS  C:\Users\COSMIN~1.MAR\AppData\Local\Temp\cc5hxLYL.s 			page 6


 225:FreeRTOS/queue.c **** 
 226:FreeRTOS/queue.c **** #if ( configUSE_QUEUE_SETS == 1 )
 227:FreeRTOS/queue.c **** 	/*
 228:FreeRTOS/queue.c **** 	 * Checks to see if a queue is a member of a queue set, and if so, notifies
 229:FreeRTOS/queue.c **** 	 * the queue set that the queue contains data.
 230:FreeRTOS/queue.c **** 	 */
 231:FreeRTOS/queue.c **** 	static BaseT_t prvNotifyQueueSetContainer( const Queue_t * const pxQueue, const BaseT_t xCopyPosit
 232:FreeRTOS/queue.c **** #endif
 233:FreeRTOS/queue.c **** 
 234:FreeRTOS/queue.c **** /*-----------------------------------------------------------*/
 235:FreeRTOS/queue.c **** 
 236:FreeRTOS/queue.c **** /*
 237:FreeRTOS/queue.c ****  * Macro to mark a queue as locked.  Locking a queue prevents an ISR from
 238:FreeRTOS/queue.c ****  * accessing the queue event lists.
 239:FreeRTOS/queue.c ****  */
 240:FreeRTOS/queue.c **** #define prvLockQueue( pxQueue )								\
 241:FreeRTOS/queue.c **** 	taskENTER_CRITICAL();									\
 242:FreeRTOS/queue.c **** 	{														\
 243:FreeRTOS/queue.c **** 		if( ( pxQueue )->xRxLock == queueUNLOCKED )			\
 244:FreeRTOS/queue.c **** 		{													\
 245:FreeRTOS/queue.c **** 			( pxQueue )->xRxLock = queueLOCKED_UNMODIFIED;	\
 246:FreeRTOS/queue.c **** 		}													\
 247:FreeRTOS/queue.c **** 		if( ( pxQueue )->xTxLock == queueUNLOCKED )			\
 248:FreeRTOS/queue.c **** 		{													\
 249:FreeRTOS/queue.c **** 			( pxQueue )->xTxLock = queueLOCKED_UNMODIFIED;	\
 250:FreeRTOS/queue.c **** 		}													\
 251:FreeRTOS/queue.c **** 	}														\
 252:FreeRTOS/queue.c **** 	taskEXIT_CRITICAL()
 253:FreeRTOS/queue.c **** /*-----------------------------------------------------------*/
 254:FreeRTOS/queue.c **** 
 255:FreeRTOS/queue.c **** BaseT_t xQueueGenericReset( QueueHandle_t xQueue, BaseT_t xNewQueue )
 256:FreeRTOS/queue.c **** {
  62              		.loc 1 256 0
  63              		.cfi_startproc
  64              		@ args = 0, pretend = 0, frame = 16
  65              		@ frame_needed = 1, uses_anonymous_args = 0
  66 0000 80B5     		push	{r7, lr}	@
  67              		.cfi_def_cfa_offset 8
  68              		.cfi_offset 7, -8
  69              		.cfi_offset 14, -4
  70 0002 84B0     		sub	sp, sp, #16	@,,
  71              		.cfi_def_cfa_offset 24
  72 0004 00AF     		add	r7, sp, #0	@,,
  73              		.cfi_def_cfa_register 7
  74 0006 7860     		str	r0, [r7, #4]	@ xQueue, xQueue
  75 0008 3960     		str	r1, [r7]	@ xNewQueue, xNewQueue
 257:FreeRTOS/queue.c **** Queue_t * const pxQueue = ( Queue_t * ) xQueue;
  76              		.loc 1 257 0
  77 000a 7B68     		ldr	r3, [r7, #4]	@ tmp129, xQueue
  78 000c FB60     		str	r3, [r7, #12]	@ tmp129, pxQueue
 258:FreeRTOS/queue.c **** 
 259:FreeRTOS/queue.c **** 	configASSERT( pxQueue );
  79              		.loc 1 259 0
  80 000e FB68     		ldr	r3, [r7, #12]	@ tmp130, pxQueue
  81 0010 002B     		cmp	r3, #0	@ tmp130,
  82 0012 02D1     		bne	.L2	@,
  83              		.loc 1 259 0 is_stmt 0 discriminator 1
ARM GAS  C:\Users\COSMIN~1.MAR\AppData\Local\Temp\cc5hxLYL.s 			page 7


  84 0014 FFF7FEFF 		bl	ulPortSetInterruptMask	@
  85              	.L3:
  86 0018 FEE7     		b	.L3	@
  87              	.L2:
 260:FreeRTOS/queue.c **** 
 261:FreeRTOS/queue.c **** 	taskENTER_CRITICAL();
  88              		.loc 1 261 0 is_stmt 1
  89 001a FFF7FEFF 		bl	vPortEnterCritical	@
 262:FreeRTOS/queue.c **** 	{
 263:FreeRTOS/queue.c **** 		pxQueue->pcTail = pxQueue->pcHead + ( pxQueue->uxLength * pxQueue->uxItemSize );
  90              		.loc 1 263 0
  91 001e FB68     		ldr	r3, [r7, #12]	@ tmp131, pxQueue
  92 0020 1A68     		ldr	r2, [r3]	@ D.5940, pxQueue_2->pcHead
  93 0022 FB68     		ldr	r3, [r7, #12]	@ tmp132, pxQueue
  94 0024 DB6B     		ldr	r3, [r3, #60]	@ D.5941, pxQueue_2->uxLength
  95 0026 F968     		ldr	r1, [r7, #12]	@ tmp133, pxQueue
  96 0028 096C     		ldr	r1, [r1, #64]	@ D.5941, pxQueue_2->uxItemSize
  97 002a 01FB03F3 		mul	r3, r1, r3	@ D.5941, D.5941, D.5941
  98 002e 1A44     		add	r2, r2, r3	@ D.5940, D.5941
  99 0030 FB68     		ldr	r3, [r7, #12]	@ tmp134, pxQueue
 100 0032 5A60     		str	r2, [r3, #4]	@ D.5940, pxQueue_2->pcTail
 264:FreeRTOS/queue.c **** 		pxQueue->uxMessagesWaiting = ( UBaseT_t ) 0U;
 101              		.loc 1 264 0
 102 0034 FB68     		ldr	r3, [r7, #12]	@ tmp135, pxQueue
 103 0036 0022     		movs	r2, #0	@ tmp136,
 104 0038 9A63     		str	r2, [r3, #56]	@ tmp136, pxQueue_2->uxMessagesWaiting
 265:FreeRTOS/queue.c **** 		pxQueue->pcWriteTo = pxQueue->pcHead;
 105              		.loc 1 265 0
 106 003a FB68     		ldr	r3, [r7, #12]	@ tmp137, pxQueue
 107 003c 1A68     		ldr	r2, [r3]	@ D.5940, pxQueue_2->pcHead
 108 003e FB68     		ldr	r3, [r7, #12]	@ tmp138, pxQueue
 109 0040 9A60     		str	r2, [r3, #8]	@ D.5940, pxQueue_2->pcWriteTo
 266:FreeRTOS/queue.c **** 		pxQueue->u.pcReadFrom = pxQueue->pcHead + ( ( pxQueue->uxLength - ( UBaseT_t ) 1U ) * pxQueue->ux
 110              		.loc 1 266 0
 111 0042 FB68     		ldr	r3, [r7, #12]	@ tmp139, pxQueue
 112 0044 1A68     		ldr	r2, [r3]	@ D.5940, pxQueue_2->pcHead
 113 0046 FB68     		ldr	r3, [r7, #12]	@ tmp140, pxQueue
 114 0048 DB6B     		ldr	r3, [r3, #60]	@ D.5941, pxQueue_2->uxLength
 115 004a 013B     		subs	r3, r3, #1	@ D.5941, D.5941,
 116 004c F968     		ldr	r1, [r7, #12]	@ tmp141, pxQueue
 117 004e 096C     		ldr	r1, [r1, #64]	@ D.5941, pxQueue_2->uxItemSize
 118 0050 01FB03F3 		mul	r3, r1, r3	@ D.5941, D.5941, D.5941
 119 0054 1A44     		add	r2, r2, r3	@ D.5940, D.5941
 120 0056 FB68     		ldr	r3, [r7, #12]	@ tmp142, pxQueue
 121 0058 DA60     		str	r2, [r3, #12]	@ D.5940, pxQueue_2->u.pcReadFrom
 267:FreeRTOS/queue.c **** 		pxQueue->xRxLock = queueUNLOCKED;
 122              		.loc 1 267 0
 123 005a FB68     		ldr	r3, [r7, #12]	@ tmp143, pxQueue
 124 005c 4FF0FF32 		mov	r2, #-1	@ tmp144,
 125 0060 5A64     		str	r2, [r3, #68]	@ tmp144, pxQueue_2->xRxLock
 268:FreeRTOS/queue.c **** 		pxQueue->xTxLock = queueUNLOCKED;
 126              		.loc 1 268 0
 127 0062 FB68     		ldr	r3, [r7, #12]	@ tmp145, pxQueue
 128 0064 4FF0FF32 		mov	r2, #-1	@ tmp146,
 129 0068 9A64     		str	r2, [r3, #72]	@ tmp146, pxQueue_2->xTxLock
 269:FreeRTOS/queue.c **** 
 270:FreeRTOS/queue.c **** 		if( xNewQueue == pdFALSE )
ARM GAS  C:\Users\COSMIN~1.MAR\AppData\Local\Temp\cc5hxLYL.s 			page 8


 130              		.loc 1 270 0
 131 006a 3B68     		ldr	r3, [r7]	@ tmp147, xNewQueue
 132 006c 002B     		cmp	r3, #0	@ tmp147,
 133 006e 0ED1     		bne	.L4	@,
 271:FreeRTOS/queue.c **** 		{
 272:FreeRTOS/queue.c **** 			/* If there are tasks blocked waiting to read from the queue, then
 273:FreeRTOS/queue.c **** 			the tasks will remain blocked as after this function exits the queue
 274:FreeRTOS/queue.c **** 			will still be empty.  If there are tasks blocked waiting to write to
 275:FreeRTOS/queue.c **** 			the queue, then one should be unblocked as after this function exits
 276:FreeRTOS/queue.c **** 			it will be possible to write to it. */
 277:FreeRTOS/queue.c **** 			if( listLIST_IS_EMPTY( &( pxQueue->xTasksWaitingToSend ) ) == pdFALSE )
 134              		.loc 1 277 0
 135 0070 FB68     		ldr	r3, [r7, #12]	@ tmp148, pxQueue
 136 0072 1B69     		ldr	r3, [r3, #16]	@ D.5941, pxQueue_2->xTasksWaitingToSend.uxNumberOfItems
 137 0074 002B     		cmp	r3, #0	@ D.5941,
 138 0076 14D0     		beq	.L5	@,
 278:FreeRTOS/queue.c **** 			{
 279:FreeRTOS/queue.c **** 				if( xTaskRemoveFromEventList( &( pxQueue->xTasksWaitingToSend ) ) == pdTRUE )
 139              		.loc 1 279 0
 140 0078 FB68     		ldr	r3, [r7, #12]	@ tmp149, pxQueue
 141 007a 1033     		adds	r3, r3, #16	@ D.5942, tmp149,
 142 007c 1846     		mov	r0, r3	@, D.5942
 143 007e FFF7FEFF 		bl	xTaskRemoveFromEventList	@
 144 0082 0346     		mov	r3, r0	@ D.5943,
 145 0084 012B     		cmp	r3, #1	@ D.5943,
 146 0086 0CD1     		bne	.L5	@,
 280:FreeRTOS/queue.c **** 				{
 281:FreeRTOS/queue.c **** 					queueYIELD_IF_USING_PREEMPTION();
 147              		.loc 1 281 0
 148 0088 FFF7FEFF 		bl	vPortYield	@
 149 008c 09E0     		b	.L5	@
 150              	.L4:
 282:FreeRTOS/queue.c **** 				}
 283:FreeRTOS/queue.c **** 				else
 284:FreeRTOS/queue.c **** 				{
 285:FreeRTOS/queue.c **** 					mtCOVERAGE_TEST_MARKER();
 286:FreeRTOS/queue.c **** 				}
 287:FreeRTOS/queue.c **** 			}
 288:FreeRTOS/queue.c **** 			else
 289:FreeRTOS/queue.c **** 			{
 290:FreeRTOS/queue.c **** 				mtCOVERAGE_TEST_MARKER();
 291:FreeRTOS/queue.c **** 			}
 292:FreeRTOS/queue.c **** 		}
 293:FreeRTOS/queue.c **** 		else
 294:FreeRTOS/queue.c **** 		{
 295:FreeRTOS/queue.c **** 			/* Ensure the event queues start in the correct state. */
 296:FreeRTOS/queue.c **** 			vListInitialise( &( pxQueue->xTasksWaitingToSend ) );
 151              		.loc 1 296 0
 152 008e FB68     		ldr	r3, [r7, #12]	@ tmp150, pxQueue
 153 0090 1033     		adds	r3, r3, #16	@ D.5942, tmp150,
 154 0092 1846     		mov	r0, r3	@, D.5942
 155 0094 FFF7FEFF 		bl	vListInitialise	@
 297:FreeRTOS/queue.c **** 			vListInitialise( &( pxQueue->xTasksWaitingToReceive ) );
 156              		.loc 1 297 0
 157 0098 FB68     		ldr	r3, [r7, #12]	@ tmp151, pxQueue
 158 009a 2433     		adds	r3, r3, #36	@ D.5942, tmp151,
 159 009c 1846     		mov	r0, r3	@, D.5942
ARM GAS  C:\Users\COSMIN~1.MAR\AppData\Local\Temp\cc5hxLYL.s 			page 9


 160 009e FFF7FEFF 		bl	vListInitialise	@
 161              	.L5:
 298:FreeRTOS/queue.c **** 		}
 299:FreeRTOS/queue.c **** 	}
 300:FreeRTOS/queue.c **** 	taskEXIT_CRITICAL();
 162              		.loc 1 300 0
 163 00a2 FFF7FEFF 		bl	vPortExitCritical	@
 301:FreeRTOS/queue.c **** 
 302:FreeRTOS/queue.c **** 	/* A value is returned for calling semantic consistency with previous
 303:FreeRTOS/queue.c **** 	versions. */
 304:FreeRTOS/queue.c **** 	return pdPASS;
 164              		.loc 1 304 0
 165 00a6 0123     		movs	r3, #1	@ D.5944,
 305:FreeRTOS/queue.c **** }
 166              		.loc 1 305 0
 167 00a8 1846     		mov	r0, r3	@, <retval>
 168 00aa 1037     		adds	r7, r7, #16	@,,
 169              		.cfi_def_cfa_offset 8
 170 00ac BD46     		mov	sp, r7	@,
 171              		.cfi_def_cfa_register 13
 172              		@ sp needed	@
 173 00ae 80BD     		pop	{r7, pc}	@
 174              		.cfi_endproc
 175              	.LFE1:
 176              		.size	xQueueGenericReset, .-xQueueGenericReset
 177              		.section	.text.xQueueGenericCreate,"ax",%progbits
 178              		.align	2
 179              		.global	xQueueGenericCreate
 180              		.thumb
 181              		.thumb_func
 182              		.type	xQueueGenericCreate, %function
 183              	xQueueGenericCreate:
 184              	.LFB2:
 306:FreeRTOS/queue.c **** /*-----------------------------------------------------------*/
 307:FreeRTOS/queue.c **** 
 308:FreeRTOS/queue.c **** QueueHandle_t xQueueGenericCreate( const UBaseT_t uxQueueLength, const UBaseT_t uxItemSize, const u
 309:FreeRTOS/queue.c **** {
 185              		.loc 1 309 0
 186              		.cfi_startproc
 187              		@ args = 0, pretend = 0, frame = 32
 188              		@ frame_needed = 1, uses_anonymous_args = 0
 189 0000 80B5     		push	{r7, lr}	@
 190              		.cfi_def_cfa_offset 8
 191              		.cfi_offset 7, -8
 192              		.cfi_offset 14, -4
 193 0002 88B0     		sub	sp, sp, #32	@,,
 194              		.cfi_def_cfa_offset 40
 195 0004 00AF     		add	r7, sp, #0	@,,
 196              		.cfi_def_cfa_register 7
 197 0006 F860     		str	r0, [r7, #12]	@ uxQueueLength, uxQueueLength
 198 0008 B960     		str	r1, [r7, #8]	@ uxItemSize, uxItemSize
 199 000a 1346     		mov	r3, r2	@ tmp115, ucQueueType
 200 000c FB71     		strb	r3, [r7, #7]	@ tmp116, ucQueueType
 310:FreeRTOS/queue.c **** Queue_t *pxNewQueue;
 311:FreeRTOS/queue.c **** size_t xQueueSizeInBytes;
 312:FreeRTOS/queue.c **** QueueHandle_t xReturn = NULL;
 201              		.loc 1 312 0
ARM GAS  C:\Users\COSMIN~1.MAR\AppData\Local\Temp\cc5hxLYL.s 			page 10


 202 000e 0023     		movs	r3, #0	@ tmp117,
 203 0010 FB61     		str	r3, [r7, #28]	@ tmp117, xReturn
 313:FreeRTOS/queue.c **** 
 314:FreeRTOS/queue.c **** 	/* Remove compiler warnings about unused parameters should
 315:FreeRTOS/queue.c **** 	configUSE_TRACE_FACILITY not be set to 1. */
 316:FreeRTOS/queue.c **** 	( void ) ucQueueType;
 317:FreeRTOS/queue.c **** 
 318:FreeRTOS/queue.c **** 	/* Allocate the new queue structure. */
 319:FreeRTOS/queue.c **** 	if( uxQueueLength > ( UBaseT_t ) 0 )
 204              		.loc 1 319 0
 205 0012 FB68     		ldr	r3, [r7, #12]	@ tmp118, uxQueueLength
 206 0014 002B     		cmp	r3, #0	@ tmp118,
 207 0016 2AD0     		beq	.L8	@,
 320:FreeRTOS/queue.c **** 	{
 321:FreeRTOS/queue.c **** 		pxNewQueue = ( Queue_t * ) pvPortMalloc( sizeof( Queue_t ) );
 208              		.loc 1 321 0
 209 0018 5420     		movs	r0, #84	@,
 210 001a FFF7FEFF 		bl	pvPortMalloc	@
 211 001e B861     		str	r0, [r7, #24]	@, pxNewQueue
 322:FreeRTOS/queue.c **** 		if( pxNewQueue != NULL )
 212              		.loc 1 322 0
 213 0020 BB69     		ldr	r3, [r7, #24]	@ tmp119, pxNewQueue
 214 0022 002B     		cmp	r3, #0	@ tmp119,
 215 0024 23D0     		beq	.L8	@,
 323:FreeRTOS/queue.c **** 		{
 324:FreeRTOS/queue.c **** 			/* Create the list of pointers to queue items.  The queue is one byte
 325:FreeRTOS/queue.c **** 			longer than asked for to make wrap checking easier/faster. */
 326:FreeRTOS/queue.c **** 			xQueueSizeInBytes = ( size_t ) ( uxQueueLength * uxItemSize ) + ( size_t ) 1; /*lint !e961 MISRA
 216              		.loc 1 326 0
 217 0026 FB68     		ldr	r3, [r7, #12]	@ tmp120, uxQueueLength
 218 0028 BA68     		ldr	r2, [r7, #8]	@ tmp121, uxItemSize
 219 002a 02FB03F3 		mul	r3, r2, r3	@ D.5945, tmp121, tmp120
 220 002e 0133     		adds	r3, r3, #1	@ tmp122, D.5945,
 221 0030 7B61     		str	r3, [r7, #20]	@ tmp122, xQueueSizeInBytes
 327:FreeRTOS/queue.c **** 
 328:FreeRTOS/queue.c **** 			pxNewQueue->pcHead = ( int8_t * ) pvPortMalloc( xQueueSizeInBytes );
 222              		.loc 1 328 0
 223 0032 7869     		ldr	r0, [r7, #20]	@, xQueueSizeInBytes
 224 0034 FFF7FEFF 		bl	pvPortMalloc	@
 225 0038 0246     		mov	r2, r0	@ D.5946,
 226 003a BB69     		ldr	r3, [r7, #24]	@ tmp123, pxNewQueue
 227 003c 1A60     		str	r2, [r3]	@ D.5946, pxNewQueue_5->pcHead
 329:FreeRTOS/queue.c **** 			if( pxNewQueue->pcHead != NULL )
 228              		.loc 1 329 0
 229 003e BB69     		ldr	r3, [r7, #24]	@ tmp124, pxNewQueue
 230 0040 1B68     		ldr	r3, [r3]	@ D.5947, pxNewQueue_5->pcHead
 231 0042 002B     		cmp	r3, #0	@ D.5947,
 232 0044 10D0     		beq	.L9	@,
 330:FreeRTOS/queue.c **** 			{
 331:FreeRTOS/queue.c **** 				/* Initialise the queue members as described above where the
 332:FreeRTOS/queue.c **** 				queue type is defined. */
 333:FreeRTOS/queue.c **** 				pxNewQueue->uxLength = uxQueueLength;
 233              		.loc 1 333 0
 234 0046 BB69     		ldr	r3, [r7, #24]	@ tmp125, pxNewQueue
 235 0048 FA68     		ldr	r2, [r7, #12]	@ tmp126, uxQueueLength
 236 004a DA63     		str	r2, [r3, #60]	@ tmp126, pxNewQueue_5->uxLength
 334:FreeRTOS/queue.c **** 				pxNewQueue->uxItemSize = uxItemSize;
ARM GAS  C:\Users\COSMIN~1.MAR\AppData\Local\Temp\cc5hxLYL.s 			page 11


 237              		.loc 1 334 0
 238 004c BB69     		ldr	r3, [r7, #24]	@ tmp127, pxNewQueue
 239 004e BA68     		ldr	r2, [r7, #8]	@ tmp128, uxItemSize
 240 0050 1A64     		str	r2, [r3, #64]	@ tmp128, pxNewQueue_5->uxItemSize
 335:FreeRTOS/queue.c **** 				( void ) xQueueGenericReset( pxNewQueue, pdTRUE );
 241              		.loc 1 335 0
 242 0052 B869     		ldr	r0, [r7, #24]	@, pxNewQueue
 243 0054 0121     		movs	r1, #1	@,
 244 0056 FFF7FEFF 		bl	xQueueGenericReset	@
 336:FreeRTOS/queue.c **** 
 337:FreeRTOS/queue.c **** 				#if ( configUSE_TRACE_FACILITY == 1 )
 338:FreeRTOS/queue.c **** 				{
 339:FreeRTOS/queue.c **** 					pxNewQueue->ucQueueType = ucQueueType;
 245              		.loc 1 339 0
 246 005a BB69     		ldr	r3, [r7, #24]	@ tmp129, pxNewQueue
 247 005c FA79     		ldrb	r2, [r7, #7]	@ tmp130, ucQueueType
 248 005e 83F85020 		strb	r2, [r3, #80]	@ tmp130, pxNewQueue_5->ucQueueType
 340:FreeRTOS/queue.c **** 				}
 341:FreeRTOS/queue.c **** 				#endif /* configUSE_TRACE_FACILITY */
 342:FreeRTOS/queue.c **** 
 343:FreeRTOS/queue.c **** 				#if( configUSE_QUEUE_SETS == 1 )
 344:FreeRTOS/queue.c **** 				{
 345:FreeRTOS/queue.c **** 					pxNewQueue->pxQueueSetContainer = NULL;
 346:FreeRTOS/queue.c **** 				}
 347:FreeRTOS/queue.c **** 				#endif /* configUSE_QUEUE_SETS */
 348:FreeRTOS/queue.c **** 
 349:FreeRTOS/queue.c **** 				traceQUEUE_CREATE( pxNewQueue );
 350:FreeRTOS/queue.c **** 				xReturn = pxNewQueue;
 249              		.loc 1 350 0
 250 0062 BB69     		ldr	r3, [r7, #24]	@ tmp131, pxNewQueue
 251 0064 FB61     		str	r3, [r7, #28]	@ tmp131, xReturn
 252 0066 02E0     		b	.L8	@
 253              	.L9:
 351:FreeRTOS/queue.c **** 			}
 352:FreeRTOS/queue.c **** 			else
 353:FreeRTOS/queue.c **** 			{
 354:FreeRTOS/queue.c **** 				traceQUEUE_CREATE_FAILED( ucQueueType );
 355:FreeRTOS/queue.c **** 				vPortFree( pxNewQueue );
 254              		.loc 1 355 0
 255 0068 B869     		ldr	r0, [r7, #24]	@, pxNewQueue
 256 006a FFF7FEFF 		bl	vPortFree	@
 257              	.L8:
 356:FreeRTOS/queue.c **** 			}
 357:FreeRTOS/queue.c **** 		}
 358:FreeRTOS/queue.c **** 		else
 359:FreeRTOS/queue.c **** 		{
 360:FreeRTOS/queue.c **** 			mtCOVERAGE_TEST_MARKER();
 361:FreeRTOS/queue.c **** 		}
 362:FreeRTOS/queue.c **** 	}
 363:FreeRTOS/queue.c **** 	else
 364:FreeRTOS/queue.c **** 	{
 365:FreeRTOS/queue.c **** 		mtCOVERAGE_TEST_MARKER();
 366:FreeRTOS/queue.c **** 	}
 367:FreeRTOS/queue.c **** 
 368:FreeRTOS/queue.c **** 	configASSERT( xReturn );
 258              		.loc 1 368 0
 259 006e FB69     		ldr	r3, [r7, #28]	@ tmp132, xReturn
ARM GAS  C:\Users\COSMIN~1.MAR\AppData\Local\Temp\cc5hxLYL.s 			page 12


 260 0070 002B     		cmp	r3, #0	@ tmp132,
 261 0072 02D1     		bne	.L11	@,
 262              		.loc 1 368 0 is_stmt 0 discriminator 1
 263 0074 FFF7FEFF 		bl	ulPortSetInterruptMask	@
 264              	.L12:
 265              		.loc 1 368 0 discriminator 2
 266 0078 FEE7     		b	.L12	@
 267              	.L11:
 369:FreeRTOS/queue.c **** 
 370:FreeRTOS/queue.c **** 	return xReturn;
 268              		.loc 1 370 0 is_stmt 1
 269 007a FB69     		ldr	r3, [r7, #28]	@ D.5948, xReturn
 371:FreeRTOS/queue.c **** }
 270              		.loc 1 371 0
 271 007c 1846     		mov	r0, r3	@, <retval>
 272 007e 2037     		adds	r7, r7, #32	@,,
 273              		.cfi_def_cfa_offset 8
 274 0080 BD46     		mov	sp, r7	@,
 275              		.cfi_def_cfa_register 13
 276              		@ sp needed	@
 277 0082 80BD     		pop	{r7, pc}	@
 278              		.cfi_endproc
 279              	.LFE2:
 280              		.size	xQueueGenericCreate, .-xQueueGenericCreate
 281              		.section	.text.xQueueCreateMutex,"ax",%progbits
 282              		.align	2
 283              		.global	xQueueCreateMutex
 284              		.thumb
 285              		.thumb_func
 286              		.type	xQueueCreateMutex, %function
 287              	xQueueCreateMutex:
 288              	.LFB3:
 372:FreeRTOS/queue.c **** /*-----------------------------------------------------------*/
 373:FreeRTOS/queue.c **** 
 374:FreeRTOS/queue.c **** #if ( configUSE_MUTEXES == 1 )
 375:FreeRTOS/queue.c **** 
 376:FreeRTOS/queue.c **** 	QueueHandle_t xQueueCreateMutex( const uint8_t ucQueueType )
 377:FreeRTOS/queue.c **** 	{
 289              		.loc 1 377 0
 290              		.cfi_startproc
 291              		@ args = 0, pretend = 0, frame = 16
 292              		@ frame_needed = 1, uses_anonymous_args = 0
 293 0000 80B5     		push	{r7, lr}	@
 294              		.cfi_def_cfa_offset 8
 295              		.cfi_offset 7, -8
 296              		.cfi_offset 14, -4
 297 0002 84B0     		sub	sp, sp, #16	@,,
 298              		.cfi_def_cfa_offset 24
 299 0004 00AF     		add	r7, sp, #0	@,,
 300              		.cfi_def_cfa_register 7
 301 0006 0346     		mov	r3, r0	@ tmp114, ucQueueType
 302 0008 FB71     		strb	r3, [r7, #7]	@ tmp115, ucQueueType
 378:FreeRTOS/queue.c **** 	Queue_t *pxNewQueue;
 379:FreeRTOS/queue.c **** 
 380:FreeRTOS/queue.c **** 		/* Prevent compiler warnings about unused parameters if
 381:FreeRTOS/queue.c **** 		configUSE_TRACE_FACILITY does not equal 1. */
 382:FreeRTOS/queue.c **** 		( void ) ucQueueType;
ARM GAS  C:\Users\COSMIN~1.MAR\AppData\Local\Temp\cc5hxLYL.s 			page 13


 383:FreeRTOS/queue.c **** 
 384:FreeRTOS/queue.c **** 		/* Allocate the new queue structure. */
 385:FreeRTOS/queue.c **** 		pxNewQueue = ( Queue_t * ) pvPortMalloc( sizeof( Queue_t ) );
 303              		.loc 1 385 0
 304 000a 5420     		movs	r0, #84	@,
 305 000c FFF7FEFF 		bl	pvPortMalloc	@
 306 0010 F860     		str	r0, [r7, #12]	@, pxNewQueue
 386:FreeRTOS/queue.c **** 		if( pxNewQueue != NULL )
 307              		.loc 1 386 0
 308 0012 FB68     		ldr	r3, [r7, #12]	@ tmp116, pxNewQueue
 309 0014 002B     		cmp	r3, #0	@ tmp116,
 310 0016 30D0     		beq	.L15	@,
 387:FreeRTOS/queue.c **** 		{
 388:FreeRTOS/queue.c **** 			/* Information required for priority inheritance. */
 389:FreeRTOS/queue.c **** 			pxNewQueue->pxMutexHolder = NULL;
 311              		.loc 1 389 0
 312 0018 FB68     		ldr	r3, [r7, #12]	@ tmp117, pxNewQueue
 313 001a 0022     		movs	r2, #0	@ tmp118,
 314 001c 5A60     		str	r2, [r3, #4]	@ tmp118, pxNewQueue_1->pcTail
 390:FreeRTOS/queue.c **** 			pxNewQueue->uxQueueType = queueQUEUE_IS_MUTEX;
 315              		.loc 1 390 0
 316 001e FB68     		ldr	r3, [r7, #12]	@ tmp119, pxNewQueue
 317 0020 0022     		movs	r2, #0	@ tmp120,
 318 0022 1A60     		str	r2, [r3]	@ tmp120, pxNewQueue_1->pcHead
 391:FreeRTOS/queue.c **** 
 392:FreeRTOS/queue.c **** 			/* Queues used as a mutex no data is actually copied into or out
 393:FreeRTOS/queue.c **** 			of the queue. */
 394:FreeRTOS/queue.c **** 			pxNewQueue->pcWriteTo = NULL;
 319              		.loc 1 394 0
 320 0024 FB68     		ldr	r3, [r7, #12]	@ tmp121, pxNewQueue
 321 0026 0022     		movs	r2, #0	@ tmp122,
 322 0028 9A60     		str	r2, [r3, #8]	@ tmp122, pxNewQueue_1->pcWriteTo
 395:FreeRTOS/queue.c **** 			pxNewQueue->u.pcReadFrom = NULL;
 323              		.loc 1 395 0
 324 002a FB68     		ldr	r3, [r7, #12]	@ tmp123, pxNewQueue
 325 002c 0022     		movs	r2, #0	@ tmp124,
 326 002e DA60     		str	r2, [r3, #12]	@ tmp124, pxNewQueue_1->u.pcReadFrom
 396:FreeRTOS/queue.c **** 
 397:FreeRTOS/queue.c **** 			/* Each mutex has a length of 1 (like a binary semaphore) and
 398:FreeRTOS/queue.c **** 			an item size of 0 as nothing is actually copied into or out
 399:FreeRTOS/queue.c **** 			of the mutex. */
 400:FreeRTOS/queue.c **** 			pxNewQueue->uxMessagesWaiting = ( UBaseT_t ) 0U;
 327              		.loc 1 400 0
 328 0030 FB68     		ldr	r3, [r7, #12]	@ tmp125, pxNewQueue
 329 0032 0022     		movs	r2, #0	@ tmp126,
 330 0034 9A63     		str	r2, [r3, #56]	@ tmp126, pxNewQueue_1->uxMessagesWaiting
 401:FreeRTOS/queue.c **** 			pxNewQueue->uxLength = ( UBaseT_t ) 1U;
 331              		.loc 1 401 0
 332 0036 FB68     		ldr	r3, [r7, #12]	@ tmp127, pxNewQueue
 333 0038 0122     		movs	r2, #1	@ tmp128,
 334 003a DA63     		str	r2, [r3, #60]	@ tmp128, pxNewQueue_1->uxLength
 402:FreeRTOS/queue.c **** 			pxNewQueue->uxItemSize = ( UBaseT_t ) 0U;
 335              		.loc 1 402 0
 336 003c FB68     		ldr	r3, [r7, #12]	@ tmp129, pxNewQueue
 337 003e 0022     		movs	r2, #0	@ tmp130,
 338 0040 1A64     		str	r2, [r3, #64]	@ tmp130, pxNewQueue_1->uxItemSize
 403:FreeRTOS/queue.c **** 			pxNewQueue->xRxLock = queueUNLOCKED;
ARM GAS  C:\Users\COSMIN~1.MAR\AppData\Local\Temp\cc5hxLYL.s 			page 14


 339              		.loc 1 403 0
 340 0042 FB68     		ldr	r3, [r7, #12]	@ tmp131, pxNewQueue
 341 0044 4FF0FF32 		mov	r2, #-1	@ tmp132,
 342 0048 5A64     		str	r2, [r3, #68]	@ tmp132, pxNewQueue_1->xRxLock
 404:FreeRTOS/queue.c **** 			pxNewQueue->xTxLock = queueUNLOCKED;
 343              		.loc 1 404 0
 344 004a FB68     		ldr	r3, [r7, #12]	@ tmp133, pxNewQueue
 345 004c 4FF0FF32 		mov	r2, #-1	@ tmp134,
 346 0050 9A64     		str	r2, [r3, #72]	@ tmp134, pxNewQueue_1->xTxLock
 405:FreeRTOS/queue.c **** 
 406:FreeRTOS/queue.c **** 			#if ( configUSE_TRACE_FACILITY == 1 )
 407:FreeRTOS/queue.c **** 			{
 408:FreeRTOS/queue.c **** 				pxNewQueue->ucQueueType = ucQueueType;
 347              		.loc 1 408 0
 348 0052 FB68     		ldr	r3, [r7, #12]	@ tmp135, pxNewQueue
 349 0054 FA79     		ldrb	r2, [r7, #7]	@ tmp136, ucQueueType
 350 0056 83F85020 		strb	r2, [r3, #80]	@ tmp136, pxNewQueue_1->ucQueueType
 409:FreeRTOS/queue.c **** 			}
 410:FreeRTOS/queue.c **** 			#endif
 411:FreeRTOS/queue.c **** 
 412:FreeRTOS/queue.c **** 			#if ( configUSE_QUEUE_SETS == 1 )
 413:FreeRTOS/queue.c **** 			{
 414:FreeRTOS/queue.c **** 				pxNewQueue->pxQueueSetContainer = NULL;
 415:FreeRTOS/queue.c **** 			}
 416:FreeRTOS/queue.c **** 			#endif
 417:FreeRTOS/queue.c **** 
 418:FreeRTOS/queue.c **** 			/* Ensure the event queues start with the correct state. */
 419:FreeRTOS/queue.c **** 			vListInitialise( &( pxNewQueue->xTasksWaitingToSend ) );
 351              		.loc 1 419 0
 352 005a FB68     		ldr	r3, [r7, #12]	@ tmp137, pxNewQueue
 353 005c 1033     		adds	r3, r3, #16	@ D.5949, tmp137,
 354 005e 1846     		mov	r0, r3	@, D.5949
 355 0060 FFF7FEFF 		bl	vListInitialise	@
 420:FreeRTOS/queue.c **** 			vListInitialise( &( pxNewQueue->xTasksWaitingToReceive ) );
 356              		.loc 1 420 0
 357 0064 FB68     		ldr	r3, [r7, #12]	@ tmp138, pxNewQueue
 358 0066 2433     		adds	r3, r3, #36	@ D.5949, tmp138,
 359 0068 1846     		mov	r0, r3	@, D.5949
 360 006a FFF7FEFF 		bl	vListInitialise	@
 421:FreeRTOS/queue.c **** 
 422:FreeRTOS/queue.c **** 			traceCREATE_MUTEX( pxNewQueue );
 423:FreeRTOS/queue.c **** 
 424:FreeRTOS/queue.c **** 			/* Start with the semaphore in the expected state. */
 425:FreeRTOS/queue.c **** 			( void ) xQueueGenericSend( pxNewQueue, NULL, ( TickT_t ) 0U, queueSEND_TO_BACK );
 361              		.loc 1 425 0
 362 006e F868     		ldr	r0, [r7, #12]	@, pxNewQueue
 363 0070 0021     		movs	r1, #0	@,
 364 0072 0022     		movs	r2, #0	@,
 365 0074 0023     		movs	r3, #0	@,
 366 0076 FFF7FEFF 		bl	xQueueGenericSend	@
 367              	.L15:
 426:FreeRTOS/queue.c **** 		}
 427:FreeRTOS/queue.c **** 		else
 428:FreeRTOS/queue.c **** 		{
 429:FreeRTOS/queue.c **** 			traceCREATE_MUTEX_FAILED();
 430:FreeRTOS/queue.c **** 		}
 431:FreeRTOS/queue.c **** 
ARM GAS  C:\Users\COSMIN~1.MAR\AppData\Local\Temp\cc5hxLYL.s 			page 15


 432:FreeRTOS/queue.c **** 		configASSERT( pxNewQueue );
 368              		.loc 1 432 0
 369 007a FB68     		ldr	r3, [r7, #12]	@ tmp139, pxNewQueue
 370 007c 002B     		cmp	r3, #0	@ tmp139,
 371 007e 02D1     		bne	.L16	@,
 372              		.loc 1 432 0 is_stmt 0 discriminator 1
 373 0080 FFF7FEFF 		bl	ulPortSetInterruptMask	@
 374              	.L17:
 375 0084 FEE7     		b	.L17	@
 376              	.L16:
 433:FreeRTOS/queue.c **** 		return pxNewQueue;
 377              		.loc 1 433 0 is_stmt 1
 378 0086 FB68     		ldr	r3, [r7, #12]	@ D.5950, pxNewQueue
 434:FreeRTOS/queue.c **** 	}
 379              		.loc 1 434 0
 380 0088 1846     		mov	r0, r3	@, <retval>
 381 008a 1037     		adds	r7, r7, #16	@,,
 382              		.cfi_def_cfa_offset 8
 383 008c BD46     		mov	sp, r7	@,
 384              		.cfi_def_cfa_register 13
 385              		@ sp needed	@
 386 008e 80BD     		pop	{r7, pc}	@
 387              		.cfi_endproc
 388              	.LFE3:
 389              		.size	xQueueCreateMutex, .-xQueueCreateMutex
 390              		.section	.text.xQueueGiveMutexRecursive,"ax",%progbits
 391              		.align	2
 392              		.global	xQueueGiveMutexRecursive
 393              		.thumb
 394              		.thumb_func
 395              		.type	xQueueGiveMutexRecursive, %function
 396              	xQueueGiveMutexRecursive:
 397              	.LFB4:
 435:FreeRTOS/queue.c **** 
 436:FreeRTOS/queue.c **** #endif /* configUSE_MUTEXES */
 437:FreeRTOS/queue.c **** /*-----------------------------------------------------------*/
 438:FreeRTOS/queue.c **** 
 439:FreeRTOS/queue.c **** #if ( ( configUSE_MUTEXES == 1 ) && ( INCLUDE_xSemaphoreGetMutexHolder == 1 ) )
 440:FreeRTOS/queue.c **** 
 441:FreeRTOS/queue.c **** 	void* xQueueGetMutexHolder( QueueHandle_t xSemaphore )
 442:FreeRTOS/queue.c **** 	{
 443:FreeRTOS/queue.c **** 	void *pxReturn;
 444:FreeRTOS/queue.c **** 
 445:FreeRTOS/queue.c **** 		/* This function is called by xSemaphoreGetMutexHolder(), and should not
 446:FreeRTOS/queue.c **** 		be called directly.  Note:  This is a good way of determining if the
 447:FreeRTOS/queue.c **** 		calling task is the mutex holder, but not a good way of determining the
 448:FreeRTOS/queue.c **** 		identity of the mutex holder, as the holder may change between the
 449:FreeRTOS/queue.c **** 		following critical section exiting and the function returning. */
 450:FreeRTOS/queue.c **** 		taskENTER_CRITICAL();
 451:FreeRTOS/queue.c **** 		{
 452:FreeRTOS/queue.c **** 			if( ( ( Queue_t * ) xSemaphore )->uxQueueType == queueQUEUE_IS_MUTEX )
 453:FreeRTOS/queue.c **** 			{
 454:FreeRTOS/queue.c **** 				pxReturn = ( void * ) ( ( Queue_t * ) xSemaphore )->pxMutexHolder;
 455:FreeRTOS/queue.c **** 			}
 456:FreeRTOS/queue.c **** 			else
 457:FreeRTOS/queue.c **** 			{
 458:FreeRTOS/queue.c **** 				pxReturn = NULL;
ARM GAS  C:\Users\COSMIN~1.MAR\AppData\Local\Temp\cc5hxLYL.s 			page 16


 459:FreeRTOS/queue.c **** 			}
 460:FreeRTOS/queue.c **** 		}
 461:FreeRTOS/queue.c **** 		taskEXIT_CRITICAL();
 462:FreeRTOS/queue.c **** 
 463:FreeRTOS/queue.c **** 		return pxReturn;
 464:FreeRTOS/queue.c **** 	} /*lint !e818 xSemaphore cannot be a pointer to const because it is a typedef. */
 465:FreeRTOS/queue.c **** 
 466:FreeRTOS/queue.c **** #endif
 467:FreeRTOS/queue.c **** /*-----------------------------------------------------------*/
 468:FreeRTOS/queue.c **** 
 469:FreeRTOS/queue.c **** #if ( configUSE_RECURSIVE_MUTEXES == 1 )
 470:FreeRTOS/queue.c **** 
 471:FreeRTOS/queue.c **** 	BaseT_t xQueueGiveMutexRecursive( QueueHandle_t xMutex )
 472:FreeRTOS/queue.c **** 	{
 398              		.loc 1 472 0
 399              		.cfi_startproc
 400              		@ args = 0, pretend = 0, frame = 16
 401              		@ frame_needed = 1, uses_anonymous_args = 0
 402 0000 90B5     		push	{r4, r7, lr}	@
 403              		.cfi_def_cfa_offset 12
 404              		.cfi_offset 4, -12
 405              		.cfi_offset 7, -8
 406              		.cfi_offset 14, -4
 407 0002 85B0     		sub	sp, sp, #20	@,,
 408              		.cfi_def_cfa_offset 32
 409 0004 00AF     		add	r7, sp, #0	@,,
 410              		.cfi_def_cfa_register 7
 411 0006 7860     		str	r0, [r7, #4]	@ xMutex, xMutex
 473:FreeRTOS/queue.c **** 	BaseT_t xReturn;
 474:FreeRTOS/queue.c **** 	Queue_t * const pxMutex = ( Queue_t * ) xMutex;
 412              		.loc 1 474 0
 413 0008 7B68     		ldr	r3, [r7, #4]	@ tmp117, xMutex
 414 000a BB60     		str	r3, [r7, #8]	@ tmp117, pxMutex
 475:FreeRTOS/queue.c **** 
 476:FreeRTOS/queue.c **** 		configASSERT( pxMutex );
 415              		.loc 1 476 0
 416 000c BB68     		ldr	r3, [r7, #8]	@ tmp118, pxMutex
 417 000e 002B     		cmp	r3, #0	@ tmp118,
 418 0010 02D1     		bne	.L20	@,
 419              		.loc 1 476 0 is_stmt 0 discriminator 1
 420 0012 FFF7FEFF 		bl	ulPortSetInterruptMask	@
 421              	.L21:
 422 0016 FEE7     		b	.L21	@
 423              	.L20:
 477:FreeRTOS/queue.c **** 
 478:FreeRTOS/queue.c **** 		/* If this is the task that holds the mutex then pxMutexHolder will not
 479:FreeRTOS/queue.c **** 		change outside of this task.  If this task does not hold the mutex then
 480:FreeRTOS/queue.c **** 		pxMutexHolder can never coincidentally equal the tasks handle, and as
 481:FreeRTOS/queue.c **** 		this is the only condition we are interested in it does not matter if
 482:FreeRTOS/queue.c **** 		pxMutexHolder is accessed simultaneously by another task.  Therefore no
 483:FreeRTOS/queue.c **** 		mutual exclusion is required to test the pxMutexHolder variable. */
 484:FreeRTOS/queue.c **** 		if( pxMutex->pxMutexHolder == ( void * ) xTaskGetCurrentTaskHandle() ) /*lint !e961 Not a redunda
 424              		.loc 1 484 0 is_stmt 1
 425 0018 BB68     		ldr	r3, [r7, #8]	@ tmp119, pxMutex
 426 001a 5C68     		ldr	r4, [r3, #4]	@ D.5951, pxMutex_3->pcTail
 427 001c FFF7FEFF 		bl	xTaskGetCurrentTaskHandle	@
 428 0020 0346     		mov	r3, r0	@ D.5952,
ARM GAS  C:\Users\COSMIN~1.MAR\AppData\Local\Temp\cc5hxLYL.s 			page 17


 429 0022 9C42     		cmp	r4, r3	@ D.5951, D.5952
 430 0024 11D1     		bne	.L22	@,
 485:FreeRTOS/queue.c **** 		{
 486:FreeRTOS/queue.c **** 			traceGIVE_MUTEX_RECURSIVE( pxMutex );
 487:FreeRTOS/queue.c **** 
 488:FreeRTOS/queue.c **** 			/* uxRecursiveCallCount cannot be zero if pxMutexHolder is equal to
 489:FreeRTOS/queue.c **** 			the task handle, therefore no underflow check is required.  Also,
 490:FreeRTOS/queue.c **** 			uxRecursiveCallCount is only modified by the mutex holder, and as
 491:FreeRTOS/queue.c **** 			there can only be one, no mutual exclusion is required to modify the
 492:FreeRTOS/queue.c **** 			uxRecursiveCallCount member. */
 493:FreeRTOS/queue.c **** 			( pxMutex->u.uxRecursiveCallCount )--;
 431              		.loc 1 493 0
 432 0026 BB68     		ldr	r3, [r7, #8]	@ tmp120, pxMutex
 433 0028 DB68     		ldr	r3, [r3, #12]	@ D.5953, pxMutex_3->u.uxRecursiveCallCount
 434 002a 5A1E     		subs	r2, r3, #1	@ D.5953, D.5953,
 435 002c BB68     		ldr	r3, [r7, #8]	@ tmp121, pxMutex
 436 002e DA60     		str	r2, [r3, #12]	@ D.5953, pxMutex_3->u.uxRecursiveCallCount
 494:FreeRTOS/queue.c **** 
 495:FreeRTOS/queue.c **** 			/* Have we unwound the call count? */
 496:FreeRTOS/queue.c **** 			if( pxMutex->u.uxRecursiveCallCount == ( UBaseT_t ) 0 )
 437              		.loc 1 496 0
 438 0030 BB68     		ldr	r3, [r7, #8]	@ tmp122, pxMutex
 439 0032 DB68     		ldr	r3, [r3, #12]	@ D.5953, pxMutex_3->u.uxRecursiveCallCount
 440 0034 002B     		cmp	r3, #0	@ D.5953,
 441 0036 05D1     		bne	.L23	@,
 497:FreeRTOS/queue.c **** 			{
 498:FreeRTOS/queue.c **** 				/* Return the mutex.  This will automatically unblock any other
 499:FreeRTOS/queue.c **** 				task that might be waiting to access the mutex. */
 500:FreeRTOS/queue.c **** 				( void ) xQueueGenericSend( pxMutex, NULL, queueMUTEX_GIVE_BLOCK_TIME, queueSEND_TO_BACK );
 442              		.loc 1 500 0
 443 0038 B868     		ldr	r0, [r7, #8]	@, pxMutex
 444 003a 0021     		movs	r1, #0	@,
 445 003c 0022     		movs	r2, #0	@,
 446 003e 0023     		movs	r3, #0	@,
 447 0040 FFF7FEFF 		bl	xQueueGenericSend	@
 448              	.L23:
 501:FreeRTOS/queue.c **** 			}
 502:FreeRTOS/queue.c **** 			else
 503:FreeRTOS/queue.c **** 			{
 504:FreeRTOS/queue.c **** 				mtCOVERAGE_TEST_MARKER();
 505:FreeRTOS/queue.c **** 			}
 506:FreeRTOS/queue.c **** 
 507:FreeRTOS/queue.c **** 			xReturn = pdPASS;
 449              		.loc 1 507 0
 450 0044 0123     		movs	r3, #1	@ tmp123,
 451 0046 FB60     		str	r3, [r7, #12]	@ tmp123, xReturn
 452 0048 01E0     		b	.L24	@
 453              	.L22:
 508:FreeRTOS/queue.c **** 		}
 509:FreeRTOS/queue.c **** 		else
 510:FreeRTOS/queue.c **** 		{
 511:FreeRTOS/queue.c **** 			/* The mutex cannot be given because the calling task is not the
 512:FreeRTOS/queue.c **** 			holder. */
 513:FreeRTOS/queue.c **** 			xReturn = pdFAIL;
 454              		.loc 1 513 0
 455 004a 0023     		movs	r3, #0	@ tmp124,
 456 004c FB60     		str	r3, [r7, #12]	@ tmp124, xReturn
ARM GAS  C:\Users\COSMIN~1.MAR\AppData\Local\Temp\cc5hxLYL.s 			page 18


 457              	.L24:
 514:FreeRTOS/queue.c **** 
 515:FreeRTOS/queue.c **** 			traceGIVE_MUTEX_RECURSIVE_FAILED( pxMutex );
 516:FreeRTOS/queue.c **** 		}
 517:FreeRTOS/queue.c **** 
 518:FreeRTOS/queue.c **** 		return xReturn;
 458              		.loc 1 518 0
 459 004e FB68     		ldr	r3, [r7, #12]	@ D.5954, xReturn
 519:FreeRTOS/queue.c **** 	}
 460              		.loc 1 519 0
 461 0050 1846     		mov	r0, r3	@, <retval>
 462 0052 1437     		adds	r7, r7, #20	@,,
 463              		.cfi_def_cfa_offset 12
 464 0054 BD46     		mov	sp, r7	@,
 465              		.cfi_def_cfa_register 13
 466              		@ sp needed	@
 467 0056 90BD     		pop	{r4, r7, pc}	@
 468              		.cfi_endproc
 469              	.LFE4:
 470              		.size	xQueueGiveMutexRecursive, .-xQueueGiveMutexRecursive
 471              		.section	.text.xQueueTakeMutexRecursive,"ax",%progbits
 472              		.align	2
 473              		.global	xQueueTakeMutexRecursive
 474              		.thumb
 475              		.thumb_func
 476              		.type	xQueueTakeMutexRecursive, %function
 477              	xQueueTakeMutexRecursive:
 478              	.LFB5:
 520:FreeRTOS/queue.c **** 
 521:FreeRTOS/queue.c **** #endif /* configUSE_RECURSIVE_MUTEXES */
 522:FreeRTOS/queue.c **** /*-----------------------------------------------------------*/
 523:FreeRTOS/queue.c **** 
 524:FreeRTOS/queue.c **** #if ( configUSE_RECURSIVE_MUTEXES == 1 )
 525:FreeRTOS/queue.c **** 
 526:FreeRTOS/queue.c **** 	BaseT_t xQueueTakeMutexRecursive( QueueHandle_t xMutex, TickT_t xTicksToWait )
 527:FreeRTOS/queue.c **** 	{
 479              		.loc 1 527 0
 480              		.cfi_startproc
 481              		@ args = 0, pretend = 0, frame = 16
 482              		@ frame_needed = 1, uses_anonymous_args = 0
 483 0000 90B5     		push	{r4, r7, lr}	@
 484              		.cfi_def_cfa_offset 12
 485              		.cfi_offset 4, -12
 486              		.cfi_offset 7, -8
 487              		.cfi_offset 14, -4
 488 0002 85B0     		sub	sp, sp, #20	@,,
 489              		.cfi_def_cfa_offset 32
 490 0004 00AF     		add	r7, sp, #0	@,,
 491              		.cfi_def_cfa_register 7
 492 0006 7860     		str	r0, [r7, #4]	@ xMutex, xMutex
 493 0008 3960     		str	r1, [r7]	@ xTicksToWait, xTicksToWait
 528:FreeRTOS/queue.c **** 	BaseT_t xReturn;
 529:FreeRTOS/queue.c **** 	Queue_t * const pxMutex = ( Queue_t * ) xMutex;
 494              		.loc 1 529 0
 495 000a 7B68     		ldr	r3, [r7, #4]	@ tmp118, xMutex
 496 000c BB60     		str	r3, [r7, #8]	@ tmp118, pxMutex
 530:FreeRTOS/queue.c **** 
ARM GAS  C:\Users\COSMIN~1.MAR\AppData\Local\Temp\cc5hxLYL.s 			page 19


 531:FreeRTOS/queue.c **** 		configASSERT( pxMutex );
 497              		.loc 1 531 0
 498 000e BB68     		ldr	r3, [r7, #8]	@ tmp119, pxMutex
 499 0010 002B     		cmp	r3, #0	@ tmp119,
 500 0012 02D1     		bne	.L27	@,
 501              		.loc 1 531 0 is_stmt 0 discriminator 1
 502 0014 FFF7FEFF 		bl	ulPortSetInterruptMask	@
 503              	.L28:
 504 0018 FEE7     		b	.L28	@
 505              	.L27:
 532:FreeRTOS/queue.c **** 
 533:FreeRTOS/queue.c **** 		/* Comments regarding mutual exclusion as per those within
 534:FreeRTOS/queue.c **** 		xQueueGiveMutexRecursive(). */
 535:FreeRTOS/queue.c **** 
 536:FreeRTOS/queue.c **** 		traceTAKE_MUTEX_RECURSIVE( pxMutex );
 537:FreeRTOS/queue.c **** 
 538:FreeRTOS/queue.c **** 		if( pxMutex->pxMutexHolder == ( void * ) xTaskGetCurrentTaskHandle() ) /*lint !e961 Cast is not r
 506              		.loc 1 538 0 is_stmt 1
 507 001a BB68     		ldr	r3, [r7, #8]	@ tmp120, pxMutex
 508 001c 5C68     		ldr	r4, [r3, #4]	@ D.5955, pxMutex_3->pcTail
 509 001e FFF7FEFF 		bl	xTaskGetCurrentTaskHandle	@
 510 0022 0346     		mov	r3, r0	@ D.5956,
 511 0024 9C42     		cmp	r4, r3	@ D.5955, D.5956
 512 0026 07D1     		bne	.L29	@,
 539:FreeRTOS/queue.c **** 		{
 540:FreeRTOS/queue.c **** 			( pxMutex->u.uxRecursiveCallCount )++;
 513              		.loc 1 540 0
 514 0028 BB68     		ldr	r3, [r7, #8]	@ tmp121, pxMutex
 515 002a DB68     		ldr	r3, [r3, #12]	@ D.5957, pxMutex_3->u.uxRecursiveCallCount
 516 002c 5A1C     		adds	r2, r3, #1	@ D.5957, D.5957,
 517 002e BB68     		ldr	r3, [r7, #8]	@ tmp122, pxMutex
 518 0030 DA60     		str	r2, [r3, #12]	@ D.5957, pxMutex_3->u.uxRecursiveCallCount
 541:FreeRTOS/queue.c **** 			xReturn = pdPASS;
 519              		.loc 1 541 0
 520 0032 0123     		movs	r3, #1	@ tmp123,
 521 0034 FB60     		str	r3, [r7, #12]	@ tmp123, xReturn
 522 0036 0EE0     		b	.L30	@
 523              	.L29:
 542:FreeRTOS/queue.c **** 		}
 543:FreeRTOS/queue.c **** 		else
 544:FreeRTOS/queue.c **** 		{
 545:FreeRTOS/queue.c **** 			xReturn = xQueueGenericReceive( pxMutex, NULL, xTicksToWait, pdFALSE );
 524              		.loc 1 545 0
 525 0038 B868     		ldr	r0, [r7, #8]	@, pxMutex
 526 003a 0021     		movs	r1, #0	@,
 527 003c 3A68     		ldr	r2, [r7]	@, xTicksToWait
 528 003e 0023     		movs	r3, #0	@,
 529 0040 FFF7FEFF 		bl	xQueueGenericReceive	@
 530 0044 F860     		str	r0, [r7, #12]	@, xReturn
 546:FreeRTOS/queue.c **** 
 547:FreeRTOS/queue.c **** 			/* pdPASS will only be returned if the mutex was successfully
 548:FreeRTOS/queue.c **** 			obtained.  The calling task may have entered the Blocked state
 549:FreeRTOS/queue.c **** 			before reaching here. */
 550:FreeRTOS/queue.c **** 			if( xReturn == pdPASS )
 531              		.loc 1 550 0
 532 0046 FB68     		ldr	r3, [r7, #12]	@ tmp124, xReturn
 533 0048 012B     		cmp	r3, #1	@ tmp124,
ARM GAS  C:\Users\COSMIN~1.MAR\AppData\Local\Temp\cc5hxLYL.s 			page 20


 534 004a 04D1     		bne	.L30	@,
 551:FreeRTOS/queue.c **** 			{
 552:FreeRTOS/queue.c **** 				( pxMutex->u.uxRecursiveCallCount )++;
 535              		.loc 1 552 0
 536 004c BB68     		ldr	r3, [r7, #8]	@ tmp125, pxMutex
 537 004e DB68     		ldr	r3, [r3, #12]	@ D.5957, pxMutex_3->u.uxRecursiveCallCount
 538 0050 5A1C     		adds	r2, r3, #1	@ D.5957, D.5957,
 539 0052 BB68     		ldr	r3, [r7, #8]	@ tmp126, pxMutex
 540 0054 DA60     		str	r2, [r3, #12]	@ D.5957, pxMutex_3->u.uxRecursiveCallCount
 541              	.L30:
 553:FreeRTOS/queue.c **** 			}
 554:FreeRTOS/queue.c **** 			else
 555:FreeRTOS/queue.c **** 			{
 556:FreeRTOS/queue.c **** 				traceTAKE_MUTEX_RECURSIVE_FAILED( pxMutex );
 557:FreeRTOS/queue.c **** 			}
 558:FreeRTOS/queue.c **** 		}
 559:FreeRTOS/queue.c **** 
 560:FreeRTOS/queue.c **** 		return xReturn;
 542              		.loc 1 560 0
 543 0056 FB68     		ldr	r3, [r7, #12]	@ D.5958, xReturn
 561:FreeRTOS/queue.c **** 	}
 544              		.loc 1 561 0
 545 0058 1846     		mov	r0, r3	@, <retval>
 546 005a 1437     		adds	r7, r7, #20	@,,
 547              		.cfi_def_cfa_offset 12
 548 005c BD46     		mov	sp, r7	@,
 549              		.cfi_def_cfa_register 13
 550              		@ sp needed	@
 551 005e 90BD     		pop	{r4, r7, pc}	@
 552              		.cfi_endproc
 553              	.LFE5:
 554              		.size	xQueueTakeMutexRecursive, .-xQueueTakeMutexRecursive
 555              		.section	.text.xQueueCreateCountingSemaphore,"ax",%progbits
 556              		.align	2
 557              		.global	xQueueCreateCountingSemaphore
 558              		.thumb
 559              		.thumb_func
 560              		.type	xQueueCreateCountingSemaphore, %function
 561              	xQueueCreateCountingSemaphore:
 562              	.LFB6:
 562:FreeRTOS/queue.c **** 
 563:FreeRTOS/queue.c **** #endif /* configUSE_RECURSIVE_MUTEXES */
 564:FreeRTOS/queue.c **** /*-----------------------------------------------------------*/
 565:FreeRTOS/queue.c **** 
 566:FreeRTOS/queue.c **** #if ( configUSE_COUNTING_SEMAPHORES == 1 )
 567:FreeRTOS/queue.c **** 
 568:FreeRTOS/queue.c **** 	QueueHandle_t xQueueCreateCountingSemaphore( const UBaseT_t uxMaxCount, const UBaseT_t uxInitialCo
 569:FreeRTOS/queue.c **** 	{
 563              		.loc 1 569 0
 564              		.cfi_startproc
 565              		@ args = 0, pretend = 0, frame = 16
 566              		@ frame_needed = 1, uses_anonymous_args = 0
 567 0000 80B5     		push	{r7, lr}	@
 568              		.cfi_def_cfa_offset 8
 569              		.cfi_offset 7, -8
 570              		.cfi_offset 14, -4
 571 0002 84B0     		sub	sp, sp, #16	@,,
ARM GAS  C:\Users\COSMIN~1.MAR\AppData\Local\Temp\cc5hxLYL.s 			page 21


 572              		.cfi_def_cfa_offset 24
 573 0004 00AF     		add	r7, sp, #0	@,,
 574              		.cfi_def_cfa_register 7
 575 0006 7860     		str	r0, [r7, #4]	@ uxMaxCount, uxMaxCount
 576 0008 3960     		str	r1, [r7]	@ uxInitialCount, uxInitialCount
 570:FreeRTOS/queue.c **** 	QueueHandle_t xHandle;
 571:FreeRTOS/queue.c **** 
 572:FreeRTOS/queue.c **** 		configASSERT( uxMaxCount != 0 );
 577              		.loc 1 572 0
 578 000a 7B68     		ldr	r3, [r7, #4]	@ tmp112, uxMaxCount
 579 000c 002B     		cmp	r3, #0	@ tmp112,
 580 000e 02D1     		bne	.L33	@,
 581              		.loc 1 572 0 is_stmt 0 discriminator 1
 582 0010 FFF7FEFF 		bl	ulPortSetInterruptMask	@
 583              	.L34:
 584 0014 FEE7     		b	.L34	@
 585              	.L33:
 573:FreeRTOS/queue.c **** 		configASSERT( uxInitialCount <= uxMaxCount );
 586              		.loc 1 573 0 is_stmt 1
 587 0016 3A68     		ldr	r2, [r7]	@ tmp113, uxInitialCount
 588 0018 7B68     		ldr	r3, [r7, #4]	@ tmp114, uxMaxCount
 589 001a 9A42     		cmp	r2, r3	@ tmp113, tmp114
 590 001c 02D9     		bls	.L35	@,
 591              		.loc 1 573 0 is_stmt 0 discriminator 1
 592 001e FFF7FEFF 		bl	ulPortSetInterruptMask	@
 593              	.L36:
 594              		.loc 1 573 0 discriminator 2
 595 0022 FEE7     		b	.L36	@
 596              	.L35:
 574:FreeRTOS/queue.c **** 
 575:FreeRTOS/queue.c **** 		xHandle = xQueueGenericCreate( uxMaxCount, queueSEMAPHORE_QUEUE_ITEM_LENGTH, queueQUEUE_TYPE_COUN
 597              		.loc 1 575 0 is_stmt 1
 598 0024 7868     		ldr	r0, [r7, #4]	@, uxMaxCount
 599 0026 0021     		movs	r1, #0	@,
 600 0028 0222     		movs	r2, #2	@,
 601 002a FFF7FEFF 		bl	xQueueGenericCreate	@
 602 002e F860     		str	r0, [r7, #12]	@, xHandle
 576:FreeRTOS/queue.c **** 
 577:FreeRTOS/queue.c **** 		if( xHandle != NULL )
 603              		.loc 1 577 0
 604 0030 FB68     		ldr	r3, [r7, #12]	@ tmp115, xHandle
 605 0032 002B     		cmp	r3, #0	@ tmp115,
 606 0034 02D0     		beq	.L37	@,
 578:FreeRTOS/queue.c **** 		{
 579:FreeRTOS/queue.c **** 			( ( Queue_t * ) xHandle )->uxMessagesWaiting = uxInitialCount;
 607              		.loc 1 579 0
 608 0036 FB68     		ldr	r3, [r7, #12]	@ tmp116, xHandle
 609 0038 3A68     		ldr	r2, [r7]	@ tmp117, uxInitialCount
 610 003a 9A63     		str	r2, [r3, #56]	@ tmp117, MEM[(struct Queue_t *)xHandle_3].uxMessagesWaiting
 611              	.L37:
 580:FreeRTOS/queue.c **** 
 581:FreeRTOS/queue.c **** 			traceCREATE_COUNTING_SEMAPHORE();
 582:FreeRTOS/queue.c **** 		}
 583:FreeRTOS/queue.c **** 		else
 584:FreeRTOS/queue.c **** 		{
 585:FreeRTOS/queue.c **** 			traceCREATE_COUNTING_SEMAPHORE_FAILED();
 586:FreeRTOS/queue.c **** 		}
ARM GAS  C:\Users\COSMIN~1.MAR\AppData\Local\Temp\cc5hxLYL.s 			page 22


 587:FreeRTOS/queue.c **** 
 588:FreeRTOS/queue.c **** 		configASSERT( xHandle );
 612              		.loc 1 588 0
 613 003c FB68     		ldr	r3, [r7, #12]	@ tmp118, xHandle
 614 003e 002B     		cmp	r3, #0	@ tmp118,
 615 0040 02D1     		bne	.L38	@,
 616              		.loc 1 588 0 is_stmt 0 discriminator 1
 617 0042 FFF7FEFF 		bl	ulPortSetInterruptMask	@
 618              	.L39:
 619              		.loc 1 588 0 discriminator 3
 620 0046 FEE7     		b	.L39	@
 621              	.L38:
 589:FreeRTOS/queue.c **** 		return xHandle;
 622              		.loc 1 589 0 is_stmt 1
 623 0048 FB68     		ldr	r3, [r7, #12]	@ D.5959, xHandle
 590:FreeRTOS/queue.c **** 	}
 624              		.loc 1 590 0
 625 004a 1846     		mov	r0, r3	@, <retval>
 626 004c 1037     		adds	r7, r7, #16	@,,
 627              		.cfi_def_cfa_offset 8
 628 004e BD46     		mov	sp, r7	@,
 629              		.cfi_def_cfa_register 13
 630              		@ sp needed	@
 631 0050 80BD     		pop	{r7, pc}	@
 632              		.cfi_endproc
 633              	.LFE6:
 634              		.size	xQueueCreateCountingSemaphore, .-xQueueCreateCountingSemaphore
 635 0052 00BF     		.section	.text.xQueueGenericSend,"ax",%progbits
 636              		.align	2
 637              		.global	xQueueGenericSend
 638              		.thumb
 639              		.thumb_func
 640              		.type	xQueueGenericSend, %function
 641              	xQueueGenericSend:
 642              	.LFB7:
 591:FreeRTOS/queue.c **** 
 592:FreeRTOS/queue.c **** #endif /* configUSE_COUNTING_SEMAPHORES */
 593:FreeRTOS/queue.c **** /*-----------------------------------------------------------*/
 594:FreeRTOS/queue.c **** 
 595:FreeRTOS/queue.c **** BaseT_t xQueueGenericSend( QueueHandle_t xQueue, const void * const pvItemToQueue, TickT_t xTicksTo
 596:FreeRTOS/queue.c **** {
 643              		.loc 1 596 0
 644              		.cfi_startproc
 645              		@ args = 0, pretend = 0, frame = 40
 646              		@ frame_needed = 1, uses_anonymous_args = 0
 647 0000 80B5     		push	{r7, lr}	@
 648              		.cfi_def_cfa_offset 8
 649              		.cfi_offset 7, -8
 650              		.cfi_offset 14, -4
 651 0002 8AB0     		sub	sp, sp, #40	@,,
 652              		.cfi_def_cfa_offset 48
 653 0004 00AF     		add	r7, sp, #0	@,,
 654              		.cfi_def_cfa_register 7
 655 0006 F860     		str	r0, [r7, #12]	@ xQueue, xQueue
 656 0008 B960     		str	r1, [r7, #8]	@ pvItemToQueue, pvItemToQueue
 657 000a 7A60     		str	r2, [r7, #4]	@ xTicksToWait, xTicksToWait
 658 000c 3B60     		str	r3, [r7]	@ xCopyPosition, xCopyPosition
ARM GAS  C:\Users\COSMIN~1.MAR\AppData\Local\Temp\cc5hxLYL.s 			page 23


 597:FreeRTOS/queue.c **** BaseT_t xEntryTimeSet = pdFALSE, xYieldRequired;
 659              		.loc 1 597 0
 660 000e 0023     		movs	r3, #0	@ tmp129,
 661 0010 7B62     		str	r3, [r7, #36]	@ tmp129, xEntryTimeSet
 598:FreeRTOS/queue.c **** TimeOut_t xTimeOut;
 599:FreeRTOS/queue.c **** Queue_t * const pxQueue = ( Queue_t * ) xQueue;
 662              		.loc 1 599 0
 663 0012 FB68     		ldr	r3, [r7, #12]	@ tmp130, xQueue
 664 0014 3B62     		str	r3, [r7, #32]	@ tmp130, pxQueue
 600:FreeRTOS/queue.c **** 
 601:FreeRTOS/queue.c **** 	configASSERT( pxQueue );
 665              		.loc 1 601 0
 666 0016 3B6A     		ldr	r3, [r7, #32]	@ tmp131, pxQueue
 667 0018 002B     		cmp	r3, #0	@ tmp131,
 668 001a 02D1     		bne	.L42	@,
 669              		.loc 1 601 0 is_stmt 0 discriminator 1
 670 001c FFF7FEFF 		bl	ulPortSetInterruptMask	@
 671              	.L43:
 672 0020 FEE7     		b	.L43	@
 673              	.L42:
 602:FreeRTOS/queue.c **** 	configASSERT( !( ( pvItemToQueue == NULL ) && ( pxQueue->uxItemSize != ( UBaseT_t ) 0U ) ) );
 674              		.loc 1 602 0 is_stmt 1
 675 0022 BB68     		ldr	r3, [r7, #8]	@ tmp132, pvItemToQueue
 676 0024 002B     		cmp	r3, #0	@ tmp132,
 677 0026 03D1     		bne	.L44	@,
 678              		.loc 1 602 0 is_stmt 0 discriminator 2
 679 0028 3B6A     		ldr	r3, [r7, #32]	@ tmp133, pxQueue
 680 002a 1B6C     		ldr	r3, [r3, #64]	@ D.5962, pxQueue_8->uxItemSize
 681 002c 002B     		cmp	r3, #0	@ D.5962,
 682 002e 01D1     		bne	.L45	@,
 683              	.L44:
 684              		.loc 1 602 0 discriminator 3
 685 0030 0123     		movs	r3, #1	@ D.5960,
 686 0032 00E0     		b	.L46	@
 687              	.L45:
 688              		.loc 1 602 0 discriminator 4
 689 0034 0023     		movs	r3, #0	@ D.5960,
 690              	.L46:
 691              		.loc 1 602 0 discriminator 6
 692 0036 002B     		cmp	r3, #0	@ D.5960,
 693 0038 02D1     		bne	.L47	@,
 694              		.loc 1 602 0 discriminator 7
 695 003a FFF7FEFF 		bl	ulPortSetInterruptMask	@
 696              	.L48:
 697              		.loc 1 602 0 discriminator 2
 698 003e FEE7     		b	.L48	@
 699              	.L47:
 603:FreeRTOS/queue.c **** 	configASSERT( !( ( xCopyPosition == queueOVERWRITE ) && ( pxQueue->uxLength != 1 ) ) );
 700              		.loc 1 603 0 is_stmt 1
 701 0040 3B68     		ldr	r3, [r7]	@ tmp134, xCopyPosition
 702 0042 022B     		cmp	r3, #2	@ tmp134,
 703 0044 03D1     		bne	.L49	@,
 704              		.loc 1 603 0 is_stmt 0 discriminator 2
 705 0046 3B6A     		ldr	r3, [r7, #32]	@ tmp135, pxQueue
 706 0048 DB6B     		ldr	r3, [r3, #60]	@ D.5962, pxQueue_8->uxLength
 707 004a 012B     		cmp	r3, #1	@ D.5962,
 708 004c 01D1     		bne	.L50	@,
ARM GAS  C:\Users\COSMIN~1.MAR\AppData\Local\Temp\cc5hxLYL.s 			page 24


 709              	.L49:
 710              		.loc 1 603 0 discriminator 3
 711 004e 0123     		movs	r3, #1	@ D.5960,
 712 0050 00E0     		b	.L51	@
 713              	.L50:
 714              		.loc 1 603 0 discriminator 4
 715 0052 0023     		movs	r3, #0	@ D.5960,
 716              	.L51:
 717              		.loc 1 603 0 discriminator 6
 718 0054 002B     		cmp	r3, #0	@ D.5960,
 719 0056 02D1     		bne	.L52	@,
 720              		.loc 1 603 0 discriminator 7
 721 0058 FFF7FEFF 		bl	ulPortSetInterruptMask	@
 722              	.L53:
 723              		.loc 1 603 0 discriminator 3
 724 005c FEE7     		b	.L53	@
 725              	.L52:
 604:FreeRTOS/queue.c **** 	#if ( ( INCLUDE_xTaskGetSchedulerState == 1 ) || ( configUSE_TIMERS == 1 ) )
 605:FreeRTOS/queue.c **** 	{
 606:FreeRTOS/queue.c **** 		configASSERT( !( ( xTaskGetSchedulerState() == taskSCHEDULER_SUSPENDED ) && ( xTicksToWait != 0 )
 607:FreeRTOS/queue.c **** 	}
 608:FreeRTOS/queue.c **** 	#endif
 609:FreeRTOS/queue.c **** 
 610:FreeRTOS/queue.c **** 
 611:FreeRTOS/queue.c **** 	/* This function relaxes the coding standard somewhat to allow return
 612:FreeRTOS/queue.c **** 	statements within the function itself.  This is done in the interest
 613:FreeRTOS/queue.c **** 	of execution time efficiency. */
 614:FreeRTOS/queue.c **** 	for( ;; )
 615:FreeRTOS/queue.c **** 	{
 616:FreeRTOS/queue.c **** 		taskENTER_CRITICAL();
 726              		.loc 1 616 0 is_stmt 1
 727 005e FFF7FEFF 		bl	vPortEnterCritical	@
 617:FreeRTOS/queue.c **** 		{
 618:FreeRTOS/queue.c **** 			/* Is there room on the queue now?  The running task must be
 619:FreeRTOS/queue.c **** 			the highest priority task wanting to access the queue.  If
 620:FreeRTOS/queue.c **** 			the head item in the queue is to be overwritten then it does
 621:FreeRTOS/queue.c **** 			not matter if the queue is full. */
 622:FreeRTOS/queue.c **** 			if( ( pxQueue->uxMessagesWaiting < pxQueue->uxLength ) || ( xCopyPosition == queueOVERWRITE ) )
 728              		.loc 1 622 0
 729 0062 3B6A     		ldr	r3, [r7, #32]	@ tmp136, pxQueue
 730 0064 9A6B     		ldr	r2, [r3, #56]	@ D.5962, pxQueue_8->uxMessagesWaiting
 731 0066 3B6A     		ldr	r3, [r7, #32]	@ tmp137, pxQueue
 732 0068 DB6B     		ldr	r3, [r3, #60]	@ D.5962, pxQueue_8->uxLength
 733 006a 9A42     		cmp	r2, r3	@ D.5962, D.5962
 734 006c 02D3     		bcc	.L54	@,
 735              		.loc 1 622 0 is_stmt 0 discriminator 1
 736 006e 3B68     		ldr	r3, [r7]	@ tmp138, xCopyPosition
 737 0070 022B     		cmp	r3, #2	@ tmp138,
 738 0072 1DD1     		bne	.L55	@,
 739              	.L54:
 623:FreeRTOS/queue.c **** 			{
 624:FreeRTOS/queue.c **** 				traceQUEUE_SEND( pxQueue );
 625:FreeRTOS/queue.c **** 				xYieldRequired = prvCopyDataToQueue( pxQueue, pvItemToQueue, xCopyPosition );
 740              		.loc 1 625 0 is_stmt 1
 741 0074 386A     		ldr	r0, [r7, #32]	@, pxQueue
 742 0076 B968     		ldr	r1, [r7, #8]	@, pvItemToQueue
 743 0078 3A68     		ldr	r2, [r7]	@, xCopyPosition
ARM GAS  C:\Users\COSMIN~1.MAR\AppData\Local\Temp\cc5hxLYL.s 			page 25


 744 007a FFF7FEFF 		bl	prvCopyDataToQueue	@
 745 007e F861     		str	r0, [r7, #28]	@, xYieldRequired
 626:FreeRTOS/queue.c **** 
 627:FreeRTOS/queue.c **** 				#if ( configUSE_QUEUE_SETS == 1 )
 628:FreeRTOS/queue.c **** 				{
 629:FreeRTOS/queue.c **** 					if( pxQueue->pxQueueSetContainer != NULL )
 630:FreeRTOS/queue.c **** 					{
 631:FreeRTOS/queue.c **** 						if( prvNotifyQueueSetContainer( pxQueue, xCopyPosition ) == pdTRUE )
 632:FreeRTOS/queue.c **** 						{
 633:FreeRTOS/queue.c **** 							/* The queue is a member of a queue set, and posting
 634:FreeRTOS/queue.c **** 							to the queue set caused a higher priority task to
 635:FreeRTOS/queue.c **** 							unblock. A context switch is required. */
 636:FreeRTOS/queue.c **** 							queueYIELD_IF_USING_PREEMPTION();
 637:FreeRTOS/queue.c **** 						}
 638:FreeRTOS/queue.c **** 						else
 639:FreeRTOS/queue.c **** 						{
 640:FreeRTOS/queue.c **** 							mtCOVERAGE_TEST_MARKER();
 641:FreeRTOS/queue.c **** 						}
 642:FreeRTOS/queue.c **** 					}
 643:FreeRTOS/queue.c **** 					else
 644:FreeRTOS/queue.c **** 					{
 645:FreeRTOS/queue.c **** 						/* If there was a task waiting for data to arrive on the
 646:FreeRTOS/queue.c **** 						queue then unblock it now. */
 647:FreeRTOS/queue.c **** 						if( listLIST_IS_EMPTY( &( pxQueue->xTasksWaitingToReceive ) ) == pdFALSE )
 648:FreeRTOS/queue.c **** 						{
 649:FreeRTOS/queue.c **** 							if( xTaskRemoveFromEventList( &( pxQueue->xTasksWaitingToReceive ) ) == pdTRUE )
 650:FreeRTOS/queue.c **** 							{
 651:FreeRTOS/queue.c **** 								/* The unblocked task has a priority higher than
 652:FreeRTOS/queue.c **** 								our own so yield immediately.  Yes it is ok to
 653:FreeRTOS/queue.c **** 								do this from within the critical section - the
 654:FreeRTOS/queue.c **** 								kernel takes care of that. */
 655:FreeRTOS/queue.c **** 								queueYIELD_IF_USING_PREEMPTION();
 656:FreeRTOS/queue.c **** 							}
 657:FreeRTOS/queue.c **** 							else
 658:FreeRTOS/queue.c **** 							{
 659:FreeRTOS/queue.c **** 								mtCOVERAGE_TEST_MARKER();
 660:FreeRTOS/queue.c **** 							}
 661:FreeRTOS/queue.c **** 						}
 662:FreeRTOS/queue.c **** 						else if( xYieldRequired != pdFALSE )
 663:FreeRTOS/queue.c **** 						{
 664:FreeRTOS/queue.c **** 							/* This path is a special case that will only get
 665:FreeRTOS/queue.c **** 							executed if the task was holding multiple mutexes
 666:FreeRTOS/queue.c **** 							and the mutexes were given back in an order that is
 667:FreeRTOS/queue.c **** 							different to that in which they were taken. */
 668:FreeRTOS/queue.c **** 							queueYIELD_IF_USING_PREEMPTION();
 669:FreeRTOS/queue.c **** 						}
 670:FreeRTOS/queue.c **** 						else
 671:FreeRTOS/queue.c **** 						{
 672:FreeRTOS/queue.c **** 							mtCOVERAGE_TEST_MARKER();
 673:FreeRTOS/queue.c **** 						}
 674:FreeRTOS/queue.c **** 					}
 675:FreeRTOS/queue.c **** 				}
 676:FreeRTOS/queue.c **** 				#else /* configUSE_QUEUE_SETS */
 677:FreeRTOS/queue.c **** 				{
 678:FreeRTOS/queue.c **** 					/* If there was a task waiting for data to arrive on the
 679:FreeRTOS/queue.c **** 					queue then unblock it now. */
 680:FreeRTOS/queue.c **** 					if( listLIST_IS_EMPTY( &( pxQueue->xTasksWaitingToReceive ) ) == pdFALSE )
ARM GAS  C:\Users\COSMIN~1.MAR\AppData\Local\Temp\cc5hxLYL.s 			page 26


 746              		.loc 1 680 0
 747 0080 3B6A     		ldr	r3, [r7, #32]	@ tmp139, pxQueue
 748 0082 5B6A     		ldr	r3, [r3, #36]	@ D.5962, pxQueue_8->xTasksWaitingToReceive.uxNumberOfItems
 749 0084 002B     		cmp	r3, #0	@ D.5962,
 750 0086 0AD0     		beq	.L56	@,
 681:FreeRTOS/queue.c **** 					{
 682:FreeRTOS/queue.c **** 						if( xTaskRemoveFromEventList( &( pxQueue->xTasksWaitingToReceive ) ) == pdTRUE )
 751              		.loc 1 682 0
 752 0088 3B6A     		ldr	r3, [r7, #32]	@ tmp140, pxQueue
 753 008a 2433     		adds	r3, r3, #36	@ D.5964, tmp140,
 754 008c 1846     		mov	r0, r3	@, D.5964
 755 008e FFF7FEFF 		bl	xTaskRemoveFromEventList	@
 756 0092 0346     		mov	r3, r0	@ D.5963,
 757 0094 012B     		cmp	r3, #1	@ D.5963,
 758 0096 07D1     		bne	.L57	@,
 683:FreeRTOS/queue.c **** 						{
 684:FreeRTOS/queue.c **** 							/* The unblocked task has a priority higher than
 685:FreeRTOS/queue.c **** 							our own so yield immediately.  Yes it is ok to do
 686:FreeRTOS/queue.c **** 							this from within the critical section - the kernel
 687:FreeRTOS/queue.c **** 							takes care of that. */
 688:FreeRTOS/queue.c **** 							queueYIELD_IF_USING_PREEMPTION();
 759              		.loc 1 688 0
 760 0098 FFF7FEFF 		bl	vPortYield	@
 761 009c 04E0     		b	.L57	@
 762              	.L56:
 689:FreeRTOS/queue.c **** 						}
 690:FreeRTOS/queue.c **** 						else
 691:FreeRTOS/queue.c **** 						{
 692:FreeRTOS/queue.c **** 							mtCOVERAGE_TEST_MARKER();
 693:FreeRTOS/queue.c **** 						}
 694:FreeRTOS/queue.c **** 					}
 695:FreeRTOS/queue.c **** 					else if( xYieldRequired != pdFALSE )
 763              		.loc 1 695 0
 764 009e FB69     		ldr	r3, [r7, #28]	@ tmp141, xYieldRequired
 765 00a0 002B     		cmp	r3, #0	@ tmp141,
 766 00a2 01D0     		beq	.L57	@,
 696:FreeRTOS/queue.c **** 					{
 697:FreeRTOS/queue.c **** 						/* This path is a special case that will only get
 698:FreeRTOS/queue.c **** 						executed if the task was holding multiple mutexes and
 699:FreeRTOS/queue.c **** 						the mutexes were given back in an order that is
 700:FreeRTOS/queue.c **** 						different to that in which they were taken. */
 701:FreeRTOS/queue.c **** 						queueYIELD_IF_USING_PREEMPTION();
 767              		.loc 1 701 0
 768 00a4 FFF7FEFF 		bl	vPortYield	@
 769              	.L57:
 702:FreeRTOS/queue.c **** 					}
 703:FreeRTOS/queue.c **** 					else
 704:FreeRTOS/queue.c **** 					{
 705:FreeRTOS/queue.c **** 						mtCOVERAGE_TEST_MARKER();
 706:FreeRTOS/queue.c **** 					}
 707:FreeRTOS/queue.c **** 				}
 708:FreeRTOS/queue.c **** 				#endif /* configUSE_QUEUE_SETS */
 709:FreeRTOS/queue.c **** 
 710:FreeRTOS/queue.c **** 				taskEXIT_CRITICAL();
 770              		.loc 1 710 0
 771 00a8 FFF7FEFF 		bl	vPortExitCritical	@
 711:FreeRTOS/queue.c **** 				return pdPASS;
ARM GAS  C:\Users\COSMIN~1.MAR\AppData\Local\Temp\cc5hxLYL.s 			page 27


 772              		.loc 1 711 0
 773 00ac 0123     		movs	r3, #1	@ D.5961,
 774 00ae 59E0     		b	.L68	@
 775              	.L55:
 712:FreeRTOS/queue.c **** 			}
 713:FreeRTOS/queue.c **** 			else
 714:FreeRTOS/queue.c **** 			{
 715:FreeRTOS/queue.c **** 				if( xTicksToWait == ( TickT_t ) 0 )
 776              		.loc 1 715 0
 777 00b0 7B68     		ldr	r3, [r7, #4]	@ D.5962, xTicksToWait
 778 00b2 002B     		cmp	r3, #0	@ D.5962,
 779 00b4 03D1     		bne	.L59	@,
 716:FreeRTOS/queue.c **** 				{
 717:FreeRTOS/queue.c **** 					/* The queue was full and no block time is specified (or
 718:FreeRTOS/queue.c **** 					the block time has expired) so leave now. */
 719:FreeRTOS/queue.c **** 					taskEXIT_CRITICAL();
 780              		.loc 1 719 0
 781 00b6 FFF7FEFF 		bl	vPortExitCritical	@
 720:FreeRTOS/queue.c **** 
 721:FreeRTOS/queue.c **** 					/* Return to the original privilege level before exiting
 722:FreeRTOS/queue.c **** 					the function. */
 723:FreeRTOS/queue.c **** 					traceQUEUE_SEND_FAILED( pxQueue );
 724:FreeRTOS/queue.c **** 					return errQUEUE_FULL;
 782              		.loc 1 724 0
 783 00ba 0023     		movs	r3, #0	@ D.5961,
 784 00bc 52E0     		b	.L68	@
 785              	.L59:
 725:FreeRTOS/queue.c **** 				}
 726:FreeRTOS/queue.c **** 				else if( xEntryTimeSet == pdFALSE )
 786              		.loc 1 726 0
 787 00be 7B6A     		ldr	r3, [r7, #36]	@ tmp142, xEntryTimeSet
 788 00c0 002B     		cmp	r3, #0	@ tmp142,
 789 00c2 06D1     		bne	.L60	@,
 727:FreeRTOS/queue.c **** 				{
 728:FreeRTOS/queue.c **** 					/* The queue was full and a block time was specified so
 729:FreeRTOS/queue.c **** 					configure the timeout structure. */
 730:FreeRTOS/queue.c **** 					vTaskSetTimeOutState( &xTimeOut );
 790              		.loc 1 730 0
 791 00c4 07F11403 		add	r3, r7, #20	@ tmp143,,
 792 00c8 1846     		mov	r0, r3	@, tmp143
 793 00ca FFF7FEFF 		bl	vTaskSetTimeOutState	@
 731:FreeRTOS/queue.c **** 					xEntryTimeSet = pdTRUE;
 794              		.loc 1 731 0
 795 00ce 0123     		movs	r3, #1	@ tmp144,
 796 00d0 7B62     		str	r3, [r7, #36]	@ tmp144, xEntryTimeSet
 797              	.L60:
 732:FreeRTOS/queue.c **** 				}
 733:FreeRTOS/queue.c **** 				else
 734:FreeRTOS/queue.c **** 				{
 735:FreeRTOS/queue.c **** 					/* Entry time was already set. */
 736:FreeRTOS/queue.c **** 					mtCOVERAGE_TEST_MARKER();
 737:FreeRTOS/queue.c **** 				}
 738:FreeRTOS/queue.c **** 			}
 739:FreeRTOS/queue.c **** 		}
 740:FreeRTOS/queue.c **** 		taskEXIT_CRITICAL();
 798              		.loc 1 740 0
 799 00d2 FFF7FEFF 		bl	vPortExitCritical	@
ARM GAS  C:\Users\COSMIN~1.MAR\AppData\Local\Temp\cc5hxLYL.s 			page 28


 741:FreeRTOS/queue.c **** 
 742:FreeRTOS/queue.c **** 		/* Interrupts and other tasks can send to and receive from the queue
 743:FreeRTOS/queue.c **** 		now the critical section has been exited. */
 744:FreeRTOS/queue.c **** 
 745:FreeRTOS/queue.c **** 		vTaskSuspendAll();
 800              		.loc 1 745 0
 801 00d6 FFF7FEFF 		bl	vTaskSuspendAll	@
 746:FreeRTOS/queue.c **** 		prvLockQueue( pxQueue );
 802              		.loc 1 746 0
 803 00da FFF7FEFF 		bl	vPortEnterCritical	@
 804 00de 3B6A     		ldr	r3, [r7, #32]	@ tmp145, pxQueue
 805 00e0 5B6C     		ldr	r3, [r3, #68]	@ D.5963, pxQueue_8->xRxLock
 806 00e2 B3F1FF3F 		cmp	r3, #-1	@ D.5963,
 807 00e6 02D1     		bne	.L61	@,
 808              		.loc 1 746 0 is_stmt 0 discriminator 1
 809 00e8 3B6A     		ldr	r3, [r7, #32]	@ tmp146, pxQueue
 810 00ea 0022     		movs	r2, #0	@ tmp147,
 811 00ec 5A64     		str	r2, [r3, #68]	@ tmp147, pxQueue_8->xRxLock
 812              	.L61:
 813              		.loc 1 746 0 discriminator 3
 814 00ee 3B6A     		ldr	r3, [r7, #32]	@ tmp148, pxQueue
 815 00f0 9B6C     		ldr	r3, [r3, #72]	@ D.5963, pxQueue_8->xTxLock
 816 00f2 B3F1FF3F 		cmp	r3, #-1	@ D.5963,
 817 00f6 02D1     		bne	.L62	@,
 818              		.loc 1 746 0 discriminator 4
 819 00f8 3B6A     		ldr	r3, [r7, #32]	@ tmp149, pxQueue
 820 00fa 0022     		movs	r2, #0	@ tmp150,
 821 00fc 9A64     		str	r2, [r3, #72]	@ tmp150, pxQueue_8->xTxLock
 822              	.L62:
 823              		.loc 1 746 0 discriminator 6
 824 00fe FFF7FEFF 		bl	vPortExitCritical	@
 747:FreeRTOS/queue.c **** 
 748:FreeRTOS/queue.c **** 		/* Update the timeout state to see if it has expired yet. */
 749:FreeRTOS/queue.c **** 		if( xTaskCheckForTimeOut( &xTimeOut, &xTicksToWait ) == pdFALSE )
 825              		.loc 1 749 0 is_stmt 1 discriminator 6
 826 0102 07F11402 		add	r2, r7, #20	@ tmp151,,
 827 0106 3B1D     		adds	r3, r7, #4	@ tmp152,,
 828 0108 1046     		mov	r0, r2	@, tmp151
 829 010a 1946     		mov	r1, r3	@, tmp152
 830 010c FFF7FEFF 		bl	xTaskCheckForTimeOut	@
 831 0110 0346     		mov	r3, r0	@ D.5963,
 832 0112 002B     		cmp	r3, #0	@ D.5963,
 833 0114 1ED1     		bne	.L63	@,
 750:FreeRTOS/queue.c **** 		{
 751:FreeRTOS/queue.c **** 			if( prvIsQueueFull( pxQueue ) != pdFALSE )
 834              		.loc 1 751 0
 835 0116 386A     		ldr	r0, [r7, #32]	@, pxQueue
 836 0118 FFF7FEFF 		bl	prvIsQueueFull	@
 837 011c 0346     		mov	r3, r0	@ D.5963,
 838 011e 002B     		cmp	r3, #0	@ D.5963,
 839 0120 12D0     		beq	.L64	@,
 752:FreeRTOS/queue.c **** 			{
 753:FreeRTOS/queue.c **** 				traceBLOCKING_ON_QUEUE_SEND( pxQueue );
 754:FreeRTOS/queue.c **** 				vTaskPlaceOnEventList( &( pxQueue->xTasksWaitingToSend ), xTicksToWait );
 840              		.loc 1 754 0
 841 0122 3B6A     		ldr	r3, [r7, #32]	@ tmp153, pxQueue
 842 0124 03F11002 		add	r2, r3, #16	@ D.5964, tmp153,
ARM GAS  C:\Users\COSMIN~1.MAR\AppData\Local\Temp\cc5hxLYL.s 			page 29


 843 0128 7B68     		ldr	r3, [r7, #4]	@ D.5962, xTicksToWait
 844 012a 1046     		mov	r0, r2	@, D.5964
 845 012c 1946     		mov	r1, r3	@, D.5962
 846 012e FFF7FEFF 		bl	vTaskPlaceOnEventList	@
 755:FreeRTOS/queue.c **** 
 756:FreeRTOS/queue.c **** 				/* Unlocking the queue means queue events can effect the
 757:FreeRTOS/queue.c **** 				event list.  It is possible	that interrupts occurring now
 758:FreeRTOS/queue.c **** 				remove this task from the event	list again - but as the
 759:FreeRTOS/queue.c **** 				scheduler is suspended the task will go onto the pending
 760:FreeRTOS/queue.c **** 				ready last instead of the actual ready list. */
 761:FreeRTOS/queue.c **** 				prvUnlockQueue( pxQueue );
 847              		.loc 1 761 0
 848 0132 386A     		ldr	r0, [r7, #32]	@, pxQueue
 849 0134 FFF7FEFF 		bl	prvUnlockQueue	@
 762:FreeRTOS/queue.c **** 
 763:FreeRTOS/queue.c **** 				/* Resuming the scheduler will move tasks from the pending
 764:FreeRTOS/queue.c **** 				ready list into the ready list - so it is feasible that this
 765:FreeRTOS/queue.c **** 				task is already in a ready list before it yields - in which
 766:FreeRTOS/queue.c **** 				case the yield will not cause a context switch unless there
 767:FreeRTOS/queue.c **** 				is also a higher priority task in the pending ready list. */
 768:FreeRTOS/queue.c **** 				if( xTaskResumeAll() == pdFALSE )
 850              		.loc 1 768 0
 851 0138 FFF7FEFF 		bl	xTaskResumeAll	@
 852 013c 0346     		mov	r3, r0	@ D.5963,
 853 013e 002B     		cmp	r3, #0	@ D.5963,
 854 0140 0FD1     		bne	.L67	@,
 769:FreeRTOS/queue.c **** 				{
 770:FreeRTOS/queue.c **** 					portYIELD_WITHIN_API();
 855              		.loc 1 770 0
 856 0142 FFF7FEFF 		bl	vPortYield	@
 857 0146 0CE0     		b	.L67	@
 858              	.L64:
 771:FreeRTOS/queue.c **** 				}
 772:FreeRTOS/queue.c **** 			}
 773:FreeRTOS/queue.c **** 			else
 774:FreeRTOS/queue.c **** 			{
 775:FreeRTOS/queue.c **** 				/* Try again. */
 776:FreeRTOS/queue.c **** 				prvUnlockQueue( pxQueue );
 859              		.loc 1 776 0
 860 0148 386A     		ldr	r0, [r7, #32]	@, pxQueue
 861 014a FFF7FEFF 		bl	prvUnlockQueue	@
 777:FreeRTOS/queue.c **** 				( void ) xTaskResumeAll();
 862              		.loc 1 777 0
 863 014e FFF7FEFF 		bl	xTaskResumeAll	@
 864 0152 84E7     		b	.L52	@
 865              	.L63:
 778:FreeRTOS/queue.c **** 			}
 779:FreeRTOS/queue.c **** 		}
 780:FreeRTOS/queue.c **** 		else
 781:FreeRTOS/queue.c **** 		{
 782:FreeRTOS/queue.c **** 			/* The timeout has expired. */
 783:FreeRTOS/queue.c **** 			prvUnlockQueue( pxQueue );
 866              		.loc 1 783 0
 867 0154 386A     		ldr	r0, [r7, #32]	@, pxQueue
 868 0156 FFF7FEFF 		bl	prvUnlockQueue	@
 784:FreeRTOS/queue.c **** 			( void ) xTaskResumeAll();
 869              		.loc 1 784 0
ARM GAS  C:\Users\COSMIN~1.MAR\AppData\Local\Temp\cc5hxLYL.s 			page 30


 870 015a FFF7FEFF 		bl	xTaskResumeAll	@
 785:FreeRTOS/queue.c **** 
 786:FreeRTOS/queue.c **** 			/* Return to the original privilege level before exiting the
 787:FreeRTOS/queue.c **** 			function. */
 788:FreeRTOS/queue.c **** 			traceQUEUE_SEND_FAILED( pxQueue );
 789:FreeRTOS/queue.c **** 			return errQUEUE_FULL;
 871              		.loc 1 789 0
 872 015e 0023     		movs	r3, #0	@ D.5961,
 873 0160 00E0     		b	.L68	@
 874              	.L67:
 790:FreeRTOS/queue.c **** 		}
 791:FreeRTOS/queue.c **** 	}
 875              		.loc 1 791 0 discriminator 5
 876 0162 7CE7     		b	.L52	@
 877              	.L68:
 792:FreeRTOS/queue.c **** }
 878              		.loc 1 792 0 discriminator 6
 879 0164 1846     		mov	r0, r3	@, <retval>
 880 0166 2837     		adds	r7, r7, #40	@,,
 881              		.cfi_def_cfa_offset 8
 882 0168 BD46     		mov	sp, r7	@,
 883              		.cfi_def_cfa_register 13
 884              		@ sp needed	@
 885 016a 80BD     		pop	{r7, pc}	@
 886              		.cfi_endproc
 887              	.LFE7:
 888              		.size	xQueueGenericSend, .-xQueueGenericSend
 889              		.section	.text.xQueueGenericSendFromISR,"ax",%progbits
 890              		.align	2
 891              		.global	xQueueGenericSendFromISR
 892              		.thumb
 893              		.thumb_func
 894              		.type	xQueueGenericSendFromISR, %function
 895              	xQueueGenericSendFromISR:
 896              	.LFB8:
 793:FreeRTOS/queue.c **** /*-----------------------------------------------------------*/
 794:FreeRTOS/queue.c **** 
 795:FreeRTOS/queue.c **** #if ( configUSE_ALTERNATIVE_API == 1 )
 796:FreeRTOS/queue.c **** 
 797:FreeRTOS/queue.c **** 	BaseT_t xQueueAltGenericSend( QueueHandle_t xQueue, const void * const pvItemToQueue, TickT_t xTic
 798:FreeRTOS/queue.c **** 	{
 799:FreeRTOS/queue.c **** 	BaseT_t xEntryTimeSet = pdFALSE;
 800:FreeRTOS/queue.c **** 	TimeOut_t xTimeOut;
 801:FreeRTOS/queue.c **** 	Queue_t * const pxQueue = ( Queue_t * ) xQueue;
 802:FreeRTOS/queue.c **** 
 803:FreeRTOS/queue.c **** 		configASSERT( pxQueue );
 804:FreeRTOS/queue.c **** 		configASSERT( !( ( pvItemToQueue == NULL ) && ( pxQueue->uxItemSize != ( UBaseT_t ) 0U ) ) );
 805:FreeRTOS/queue.c **** 
 806:FreeRTOS/queue.c **** 		for( ;; )
 807:FreeRTOS/queue.c **** 		{
 808:FreeRTOS/queue.c **** 			taskENTER_CRITICAL();
 809:FreeRTOS/queue.c **** 			{
 810:FreeRTOS/queue.c **** 				/* Is there room on the queue now?  To be running we must be
 811:FreeRTOS/queue.c **** 				the highest priority task wanting to access the queue. */
 812:FreeRTOS/queue.c **** 				if( pxQueue->uxMessagesWaiting < pxQueue->uxLength )
 813:FreeRTOS/queue.c **** 				{
 814:FreeRTOS/queue.c **** 					traceQUEUE_SEND( pxQueue );
ARM GAS  C:\Users\COSMIN~1.MAR\AppData\Local\Temp\cc5hxLYL.s 			page 31


 815:FreeRTOS/queue.c **** 					prvCopyDataToQueue( pxQueue, pvItemToQueue, xCopyPosition );
 816:FreeRTOS/queue.c **** 
 817:FreeRTOS/queue.c **** 					/* If there was a task waiting for data to arrive on the
 818:FreeRTOS/queue.c **** 					queue then unblock it now. */
 819:FreeRTOS/queue.c **** 					if( listLIST_IS_EMPTY( &( pxQueue->xTasksWaitingToReceive ) ) == pdFALSE )
 820:FreeRTOS/queue.c **** 					{
 821:FreeRTOS/queue.c **** 						if( xTaskRemoveFromEventList( &( pxQueue->xTasksWaitingToReceive ) ) == pdTRUE )
 822:FreeRTOS/queue.c **** 						{
 823:FreeRTOS/queue.c **** 							/* The unblocked task has a priority higher than
 824:FreeRTOS/queue.c **** 							our own so yield immediately. */
 825:FreeRTOS/queue.c **** 							portYIELD_WITHIN_API();
 826:FreeRTOS/queue.c **** 						}
 827:FreeRTOS/queue.c **** 						else
 828:FreeRTOS/queue.c **** 						{
 829:FreeRTOS/queue.c **** 							mtCOVERAGE_TEST_MARKER();
 830:FreeRTOS/queue.c **** 						}
 831:FreeRTOS/queue.c **** 					}
 832:FreeRTOS/queue.c **** 					else
 833:FreeRTOS/queue.c **** 					{
 834:FreeRTOS/queue.c **** 						mtCOVERAGE_TEST_MARKER();
 835:FreeRTOS/queue.c **** 					}
 836:FreeRTOS/queue.c **** 
 837:FreeRTOS/queue.c **** 					taskEXIT_CRITICAL();
 838:FreeRTOS/queue.c **** 					return pdPASS;
 839:FreeRTOS/queue.c **** 				}
 840:FreeRTOS/queue.c **** 				else
 841:FreeRTOS/queue.c **** 				{
 842:FreeRTOS/queue.c **** 					if( xTicksToWait == ( TickT_t ) 0 )
 843:FreeRTOS/queue.c **** 					{
 844:FreeRTOS/queue.c **** 						taskEXIT_CRITICAL();
 845:FreeRTOS/queue.c **** 						return errQUEUE_FULL;
 846:FreeRTOS/queue.c **** 					}
 847:FreeRTOS/queue.c **** 					else if( xEntryTimeSet == pdFALSE )
 848:FreeRTOS/queue.c **** 					{
 849:FreeRTOS/queue.c **** 						vTaskSetTimeOutState( &xTimeOut );
 850:FreeRTOS/queue.c **** 						xEntryTimeSet = pdTRUE;
 851:FreeRTOS/queue.c **** 					}
 852:FreeRTOS/queue.c **** 				}
 853:FreeRTOS/queue.c **** 			}
 854:FreeRTOS/queue.c **** 			taskEXIT_CRITICAL();
 855:FreeRTOS/queue.c **** 
 856:FreeRTOS/queue.c **** 			taskENTER_CRITICAL();
 857:FreeRTOS/queue.c **** 			{
 858:FreeRTOS/queue.c **** 				if( xTaskCheckForTimeOut( &xTimeOut, &xTicksToWait ) == pdFALSE )
 859:FreeRTOS/queue.c **** 				{
 860:FreeRTOS/queue.c **** 					if( prvIsQueueFull( pxQueue ) != pdFALSE )
 861:FreeRTOS/queue.c **** 					{
 862:FreeRTOS/queue.c **** 						traceBLOCKING_ON_QUEUE_SEND( pxQueue );
 863:FreeRTOS/queue.c **** 						vTaskPlaceOnEventList( &( pxQueue->xTasksWaitingToSend ), xTicksToWait );
 864:FreeRTOS/queue.c **** 						portYIELD_WITHIN_API();
 865:FreeRTOS/queue.c **** 					}
 866:FreeRTOS/queue.c **** 					else
 867:FreeRTOS/queue.c **** 					{
 868:FreeRTOS/queue.c **** 						mtCOVERAGE_TEST_MARKER();
 869:FreeRTOS/queue.c **** 					}
 870:FreeRTOS/queue.c **** 				}
 871:FreeRTOS/queue.c **** 				else
ARM GAS  C:\Users\COSMIN~1.MAR\AppData\Local\Temp\cc5hxLYL.s 			page 32


 872:FreeRTOS/queue.c **** 				{
 873:FreeRTOS/queue.c **** 					taskEXIT_CRITICAL();
 874:FreeRTOS/queue.c **** 					traceQUEUE_SEND_FAILED( pxQueue );
 875:FreeRTOS/queue.c **** 					return errQUEUE_FULL;
 876:FreeRTOS/queue.c **** 				}
 877:FreeRTOS/queue.c **** 			}
 878:FreeRTOS/queue.c **** 			taskEXIT_CRITICAL();
 879:FreeRTOS/queue.c **** 		}
 880:FreeRTOS/queue.c **** 	}
 881:FreeRTOS/queue.c **** 
 882:FreeRTOS/queue.c **** #endif /* configUSE_ALTERNATIVE_API */
 883:FreeRTOS/queue.c **** /*-----------------------------------------------------------*/
 884:FreeRTOS/queue.c **** 
 885:FreeRTOS/queue.c **** #if ( configUSE_ALTERNATIVE_API == 1 )
 886:FreeRTOS/queue.c **** 
 887:FreeRTOS/queue.c **** 	BaseT_t xQueueAltGenericReceive( QueueHandle_t xQueue, void * const pvBuffer, TickT_t xTicksToWait
 888:FreeRTOS/queue.c **** 	{
 889:FreeRTOS/queue.c **** 	BaseT_t xEntryTimeSet = pdFALSE;
 890:FreeRTOS/queue.c **** 	TimeOut_t xTimeOut;
 891:FreeRTOS/queue.c **** 	int8_t *pcOriginalReadPosition;
 892:FreeRTOS/queue.c **** 	Queue_t * const pxQueue = ( Queue_t * ) xQueue;
 893:FreeRTOS/queue.c **** 
 894:FreeRTOS/queue.c **** 		configASSERT( pxQueue );
 895:FreeRTOS/queue.c **** 		configASSERT( !( ( pvBuffer == NULL ) && ( pxQueue->uxItemSize != ( UBaseT_t ) 0U ) ) );
 896:FreeRTOS/queue.c **** 
 897:FreeRTOS/queue.c **** 		for( ;; )
 898:FreeRTOS/queue.c **** 		{
 899:FreeRTOS/queue.c **** 			taskENTER_CRITICAL();
 900:FreeRTOS/queue.c **** 			{
 901:FreeRTOS/queue.c **** 				if( pxQueue->uxMessagesWaiting > ( UBaseT_t ) 0 )
 902:FreeRTOS/queue.c **** 				{
 903:FreeRTOS/queue.c **** 					/* Remember our read position in case we are just peeking. */
 904:FreeRTOS/queue.c **** 					pcOriginalReadPosition = pxQueue->u.pcReadFrom;
 905:FreeRTOS/queue.c **** 
 906:FreeRTOS/queue.c **** 					prvCopyDataFromQueue( pxQueue, pvBuffer );
 907:FreeRTOS/queue.c **** 
 908:FreeRTOS/queue.c **** 					if( xJustPeeking == pdFALSE )
 909:FreeRTOS/queue.c **** 					{
 910:FreeRTOS/queue.c **** 						traceQUEUE_RECEIVE( pxQueue );
 911:FreeRTOS/queue.c **** 
 912:FreeRTOS/queue.c **** 						/* Data is actually being removed (not just peeked). */
 913:FreeRTOS/queue.c **** 						--( pxQueue->uxMessagesWaiting );
 914:FreeRTOS/queue.c **** 
 915:FreeRTOS/queue.c **** 						#if ( configUSE_MUTEXES == 1 )
 916:FreeRTOS/queue.c **** 						{
 917:FreeRTOS/queue.c **** 							if( pxQueue->uxQueueType == queueQUEUE_IS_MUTEX )
 918:FreeRTOS/queue.c **** 							{
 919:FreeRTOS/queue.c **** 								/* Record the information required to implement
 920:FreeRTOS/queue.c **** 								priority inheritance should it become necessary. */
 921:FreeRTOS/queue.c **** 								pxQueue->pxMutexHolder = ( int8_t * ) xTaskGetCurrentTaskHandle();
 922:FreeRTOS/queue.c **** 							}
 923:FreeRTOS/queue.c **** 							else
 924:FreeRTOS/queue.c **** 							{
 925:FreeRTOS/queue.c **** 								mtCOVERAGE_TEST_MARKER();
 926:FreeRTOS/queue.c **** 							}
 927:FreeRTOS/queue.c **** 						}
 928:FreeRTOS/queue.c **** 						#endif
ARM GAS  C:\Users\COSMIN~1.MAR\AppData\Local\Temp\cc5hxLYL.s 			page 33


 929:FreeRTOS/queue.c **** 
 930:FreeRTOS/queue.c **** 						if( listLIST_IS_EMPTY( &( pxQueue->xTasksWaitingToSend ) ) == pdFALSE )
 931:FreeRTOS/queue.c **** 						{
 932:FreeRTOS/queue.c **** 							if( xTaskRemoveFromEventList( &( pxQueue->xTasksWaitingToSend ) ) == pdTRUE )
 933:FreeRTOS/queue.c **** 							{
 934:FreeRTOS/queue.c **** 								portYIELD_WITHIN_API();
 935:FreeRTOS/queue.c **** 							}
 936:FreeRTOS/queue.c **** 							else
 937:FreeRTOS/queue.c **** 							{
 938:FreeRTOS/queue.c **** 								mtCOVERAGE_TEST_MARKER();
 939:FreeRTOS/queue.c **** 							}
 940:FreeRTOS/queue.c **** 						}
 941:FreeRTOS/queue.c **** 					}
 942:FreeRTOS/queue.c **** 					else
 943:FreeRTOS/queue.c **** 					{
 944:FreeRTOS/queue.c **** 						traceQUEUE_PEEK( pxQueue );
 945:FreeRTOS/queue.c **** 
 946:FreeRTOS/queue.c **** 						/* We are not removing the data, so reset our read
 947:FreeRTOS/queue.c **** 						pointer. */
 948:FreeRTOS/queue.c **** 						pxQueue->u.pcReadFrom = pcOriginalReadPosition;
 949:FreeRTOS/queue.c **** 
 950:FreeRTOS/queue.c **** 						/* The data is being left in the queue, so see if there are
 951:FreeRTOS/queue.c **** 						any other tasks waiting for the data. */
 952:FreeRTOS/queue.c **** 						if( listLIST_IS_EMPTY( &( pxQueue->xTasksWaitingToReceive ) ) == pdFALSE )
 953:FreeRTOS/queue.c **** 						{
 954:FreeRTOS/queue.c **** 							/* Tasks that are removed from the event list will get added to
 955:FreeRTOS/queue.c **** 							the pending ready list as the scheduler is still suspended. */
 956:FreeRTOS/queue.c **** 							if( xTaskRemoveFromEventList( &( pxQueue->xTasksWaitingToReceive ) ) != pdFALSE )
 957:FreeRTOS/queue.c **** 							{
 958:FreeRTOS/queue.c **** 								/* The task waiting has a higher priority than this task. */
 959:FreeRTOS/queue.c **** 								portYIELD_WITHIN_API();
 960:FreeRTOS/queue.c **** 							}
 961:FreeRTOS/queue.c **** 							else
 962:FreeRTOS/queue.c **** 							{
 963:FreeRTOS/queue.c **** 								mtCOVERAGE_TEST_MARKER();
 964:FreeRTOS/queue.c **** 							}
 965:FreeRTOS/queue.c **** 						}
 966:FreeRTOS/queue.c **** 						else
 967:FreeRTOS/queue.c **** 						{
 968:FreeRTOS/queue.c **** 							mtCOVERAGE_TEST_MARKER();
 969:FreeRTOS/queue.c **** 						}
 970:FreeRTOS/queue.c **** 					}
 971:FreeRTOS/queue.c **** 
 972:FreeRTOS/queue.c **** 					taskEXIT_CRITICAL();
 973:FreeRTOS/queue.c **** 					return pdPASS;
 974:FreeRTOS/queue.c **** 				}
 975:FreeRTOS/queue.c **** 				else
 976:FreeRTOS/queue.c **** 				{
 977:FreeRTOS/queue.c **** 					if( xTicksToWait == ( TickT_t ) 0 )
 978:FreeRTOS/queue.c **** 					{
 979:FreeRTOS/queue.c **** 						taskEXIT_CRITICAL();
 980:FreeRTOS/queue.c **** 						traceQUEUE_RECEIVE_FAILED( pxQueue );
 981:FreeRTOS/queue.c **** 						return errQUEUE_EMPTY;
 982:FreeRTOS/queue.c **** 					}
 983:FreeRTOS/queue.c **** 					else if( xEntryTimeSet == pdFALSE )
 984:FreeRTOS/queue.c **** 					{
 985:FreeRTOS/queue.c **** 						vTaskSetTimeOutState( &xTimeOut );
ARM GAS  C:\Users\COSMIN~1.MAR\AppData\Local\Temp\cc5hxLYL.s 			page 34


 986:FreeRTOS/queue.c **** 						xEntryTimeSet = pdTRUE;
 987:FreeRTOS/queue.c **** 					}
 988:FreeRTOS/queue.c **** 				}
 989:FreeRTOS/queue.c **** 			}
 990:FreeRTOS/queue.c **** 			taskEXIT_CRITICAL();
 991:FreeRTOS/queue.c **** 
 992:FreeRTOS/queue.c **** 			taskENTER_CRITICAL();
 993:FreeRTOS/queue.c **** 			{
 994:FreeRTOS/queue.c **** 				if( xTaskCheckForTimeOut( &xTimeOut, &xTicksToWait ) == pdFALSE )
 995:FreeRTOS/queue.c **** 				{
 996:FreeRTOS/queue.c **** 					if( prvIsQueueEmpty( pxQueue ) != pdFALSE )
 997:FreeRTOS/queue.c **** 					{
 998:FreeRTOS/queue.c **** 						traceBLOCKING_ON_QUEUE_RECEIVE( pxQueue );
 999:FreeRTOS/queue.c **** 
1000:FreeRTOS/queue.c **** 						#if ( configUSE_MUTEXES == 1 )
1001:FreeRTOS/queue.c **** 						{
1002:FreeRTOS/queue.c **** 							if( pxQueue->uxQueueType == queueQUEUE_IS_MUTEX )
1003:FreeRTOS/queue.c **** 							{
1004:FreeRTOS/queue.c **** 								taskENTER_CRITICAL();
1005:FreeRTOS/queue.c **** 								{
1006:FreeRTOS/queue.c **** 									vTaskPriorityInherit( ( void * ) pxQueue->pxMutexHolder );
1007:FreeRTOS/queue.c **** 								}
1008:FreeRTOS/queue.c **** 								taskEXIT_CRITICAL();
1009:FreeRTOS/queue.c **** 							}
1010:FreeRTOS/queue.c **** 							else
1011:FreeRTOS/queue.c **** 							{
1012:FreeRTOS/queue.c **** 								mtCOVERAGE_TEST_MARKER();
1013:FreeRTOS/queue.c **** 							}
1014:FreeRTOS/queue.c **** 						}
1015:FreeRTOS/queue.c **** 						#endif
1016:FreeRTOS/queue.c **** 
1017:FreeRTOS/queue.c **** 						vTaskPlaceOnEventList( &( pxQueue->xTasksWaitingToReceive ), xTicksToWait );
1018:FreeRTOS/queue.c **** 						portYIELD_WITHIN_API();
1019:FreeRTOS/queue.c **** 					}
1020:FreeRTOS/queue.c **** 					else
1021:FreeRTOS/queue.c **** 					{
1022:FreeRTOS/queue.c **** 						mtCOVERAGE_TEST_MARKER();
1023:FreeRTOS/queue.c **** 					}
1024:FreeRTOS/queue.c **** 				}
1025:FreeRTOS/queue.c **** 				else
1026:FreeRTOS/queue.c **** 				{
1027:FreeRTOS/queue.c **** 					taskEXIT_CRITICAL();
1028:FreeRTOS/queue.c **** 					traceQUEUE_RECEIVE_FAILED( pxQueue );
1029:FreeRTOS/queue.c **** 					return errQUEUE_EMPTY;
1030:FreeRTOS/queue.c **** 				}
1031:FreeRTOS/queue.c **** 			}
1032:FreeRTOS/queue.c **** 			taskEXIT_CRITICAL();
1033:FreeRTOS/queue.c **** 		}
1034:FreeRTOS/queue.c **** 	}
1035:FreeRTOS/queue.c **** 
1036:FreeRTOS/queue.c **** 
1037:FreeRTOS/queue.c **** #endif /* configUSE_ALTERNATIVE_API */
1038:FreeRTOS/queue.c **** /*-----------------------------------------------------------*/
1039:FreeRTOS/queue.c **** 
1040:FreeRTOS/queue.c **** BaseT_t xQueueGenericSendFromISR( QueueHandle_t xQueue, const void * const pvItemToQueue, BaseT_t *
1041:FreeRTOS/queue.c **** {
 897              		.loc 1 1041 0
ARM GAS  C:\Users\COSMIN~1.MAR\AppData\Local\Temp\cc5hxLYL.s 			page 35


 898              		.cfi_startproc
 899              		@ args = 0, pretend = 0, frame = 32
 900              		@ frame_needed = 1, uses_anonymous_args = 0
 901 0000 80B5     		push	{r7, lr}	@
 902              		.cfi_def_cfa_offset 8
 903              		.cfi_offset 7, -8
 904              		.cfi_offset 14, -4
 905 0002 88B0     		sub	sp, sp, #32	@,,
 906              		.cfi_def_cfa_offset 40
 907 0004 00AF     		add	r7, sp, #0	@,,
 908              		.cfi_def_cfa_register 7
 909 0006 F860     		str	r0, [r7, #12]	@ xQueue, xQueue
 910 0008 B960     		str	r1, [r7, #8]	@ pvItemToQueue, pvItemToQueue
 911 000a 7A60     		str	r2, [r7, #4]	@ pxHigherPriorityTaskWoken, pxHigherPriorityTaskWoken
 912 000c 3B60     		str	r3, [r7]	@ xCopyPosition, xCopyPosition
1042:FreeRTOS/queue.c **** BaseT_t xReturn;
1043:FreeRTOS/queue.c **** UBaseT_t uxSavedInterruptStatus;
1044:FreeRTOS/queue.c **** Queue_t * const pxQueue = ( Queue_t * ) xQueue;
 913              		.loc 1 1044 0
 914 000e FB68     		ldr	r3, [r7, #12]	@ tmp125, xQueue
 915 0010 BB61     		str	r3, [r7, #24]	@ tmp125, pxQueue
1045:FreeRTOS/queue.c **** 
1046:FreeRTOS/queue.c **** 	configASSERT( pxQueue );
 916              		.loc 1 1046 0
 917 0012 BB69     		ldr	r3, [r7, #24]	@ tmp126, pxQueue
 918 0014 002B     		cmp	r3, #0	@ tmp126,
 919 0016 02D1     		bne	.L70	@,
 920              		.loc 1 1046 0 is_stmt 0 discriminator 1
 921 0018 FFF7FEFF 		bl	ulPortSetInterruptMask	@
 922              	.L71:
 923 001c FEE7     		b	.L71	@
 924              	.L70:
1047:FreeRTOS/queue.c **** 	configASSERT( !( ( pvItemToQueue == NULL ) && ( pxQueue->uxItemSize != ( UBaseT_t ) 0U ) ) );
 925              		.loc 1 1047 0 is_stmt 1
 926 001e BB68     		ldr	r3, [r7, #8]	@ tmp127, pvItemToQueue
 927 0020 002B     		cmp	r3, #0	@ tmp127,
 928 0022 03D1     		bne	.L72	@,
 929              		.loc 1 1047 0 is_stmt 0 discriminator 2
 930 0024 BB69     		ldr	r3, [r7, #24]	@ tmp128, pxQueue
 931 0026 1B6C     		ldr	r3, [r3, #64]	@ D.5966, pxQueue_5->uxItemSize
 932 0028 002B     		cmp	r3, #0	@ D.5966,
 933 002a 01D1     		bne	.L73	@,
 934              	.L72:
 935              		.loc 1 1047 0 discriminator 3
 936 002c 0123     		movs	r3, #1	@ D.5965,
 937 002e 00E0     		b	.L74	@
 938              	.L73:
 939              		.loc 1 1047 0 discriminator 4
 940 0030 0023     		movs	r3, #0	@ D.5965,
 941              	.L74:
 942              		.loc 1 1047 0 discriminator 6
 943 0032 002B     		cmp	r3, #0	@ D.5965,
 944 0034 02D1     		bne	.L75	@,
 945              		.loc 1 1047 0 discriminator 7
 946 0036 FFF7FEFF 		bl	ulPortSetInterruptMask	@
 947              	.L76:
 948              		.loc 1 1047 0 discriminator 2
ARM GAS  C:\Users\COSMIN~1.MAR\AppData\Local\Temp\cc5hxLYL.s 			page 36


 949 003a FEE7     		b	.L76	@
 950              	.L75:
1048:FreeRTOS/queue.c **** 	configASSERT( !( ( xCopyPosition == queueOVERWRITE ) && ( pxQueue->uxLength != 1 ) ) );
 951              		.loc 1 1048 0 is_stmt 1
 952 003c 3B68     		ldr	r3, [r7]	@ tmp129, xCopyPosition
 953 003e 022B     		cmp	r3, #2	@ tmp129,
 954 0040 03D1     		bne	.L77	@,
 955              		.loc 1 1048 0 is_stmt 0 discriminator 2
 956 0042 BB69     		ldr	r3, [r7, #24]	@ tmp130, pxQueue
 957 0044 DB6B     		ldr	r3, [r3, #60]	@ D.5966, pxQueue_5->uxLength
 958 0046 012B     		cmp	r3, #1	@ D.5966,
 959 0048 01D1     		bne	.L78	@,
 960              	.L77:
 961              		.loc 1 1048 0 discriminator 3
 962 004a 0123     		movs	r3, #1	@ D.5965,
 963 004c 00E0     		b	.L79	@
 964              	.L78:
 965              		.loc 1 1048 0 discriminator 4
 966 004e 0023     		movs	r3, #0	@ D.5965,
 967              	.L79:
 968              		.loc 1 1048 0 discriminator 6
 969 0050 002B     		cmp	r3, #0	@ D.5965,
 970 0052 02D1     		bne	.L80	@,
 971              		.loc 1 1048 0 discriminator 7
 972 0054 FFF7FEFF 		bl	ulPortSetInterruptMask	@
 973              	.L81:
 974              		.loc 1 1048 0 discriminator 3
 975 0058 FEE7     		b	.L81	@
 976              	.L80:
1049:FreeRTOS/queue.c **** 
1050:FreeRTOS/queue.c **** 	/* RTOS ports that support interrupt nesting have the concept of a maximum
1051:FreeRTOS/queue.c **** 	system call (or maximum API call) interrupt priority.  Interrupts that are
1052:FreeRTOS/queue.c **** 	above the maximum system call priority are kept permanently enabled, even
1053:FreeRTOS/queue.c **** 	when the RTOS kernel is in a critical section, but cannot make any calls to
1054:FreeRTOS/queue.c **** 	FreeRTOS API functions.  If configASSERT() is defined in FreeRTOSConfig.h
1055:FreeRTOS/queue.c **** 	then portASSERT_IF_INTERRUPT_PRIORITY_INVALID() will result in an assertion
1056:FreeRTOS/queue.c **** 	failure if a FreeRTOS API function is called from an interrupt that has been
1057:FreeRTOS/queue.c **** 	assigned a priority above the configured maximum system call priority.
1058:FreeRTOS/queue.c **** 	Only FreeRTOS functions that end in FromISR can be called from interrupts
1059:FreeRTOS/queue.c **** 	that have been assigned a priority at or (logically) below the maximum
1060:FreeRTOS/queue.c **** 	system call	interrupt priority.  FreeRTOS maintains a separate interrupt
1061:FreeRTOS/queue.c **** 	safe API to ensure interrupt entry is as fast and as simple as possible.
1062:FreeRTOS/queue.c **** 	More information (albeit Cortex-M specific) is provided on the following
1063:FreeRTOS/queue.c **** 	link: http://www.freertos.org/RTOS-Cortex-M3-M4.html */
1064:FreeRTOS/queue.c **** 	portASSERT_IF_INTERRUPT_PRIORITY_INVALID();
 977              		.loc 1 1064 0 is_stmt 1
 978 005a FFF7FEFF 		bl	vPortValidateInterruptPriority	@
1065:FreeRTOS/queue.c **** 
1066:FreeRTOS/queue.c **** 	/* Similar to xQueueGenericSend, except without blocking if there is no room
1067:FreeRTOS/queue.c **** 	in the queue.  Also don't directly wake a task that was blocked on a queue
1068:FreeRTOS/queue.c **** 	read, instead return a flag to say whether a context switch is required or
1069:FreeRTOS/queue.c **** 	not (i.e. has a task with a higher priority than us been woken by this
1070:FreeRTOS/queue.c **** 	post). */
1071:FreeRTOS/queue.c **** 	uxSavedInterruptStatus = portSET_INTERRUPT_MASK_FROM_ISR();
 979              		.loc 1 1071 0
 980 005e FFF7FEFF 		bl	ulPortSetInterruptMask	@
 981 0062 7861     		str	r0, [r7, #20]	@, uxSavedInterruptStatus
ARM GAS  C:\Users\COSMIN~1.MAR\AppData\Local\Temp\cc5hxLYL.s 			page 37


1072:FreeRTOS/queue.c **** 	{
1073:FreeRTOS/queue.c **** 		if( ( pxQueue->uxMessagesWaiting < pxQueue->uxLength ) || ( xCopyPosition == queueOVERWRITE ) )
 982              		.loc 1 1073 0
 983 0064 BB69     		ldr	r3, [r7, #24]	@ tmp131, pxQueue
 984 0066 9A6B     		ldr	r2, [r3, #56]	@ D.5966, pxQueue_5->uxMessagesWaiting
 985 0068 BB69     		ldr	r3, [r7, #24]	@ tmp132, pxQueue
 986 006a DB6B     		ldr	r3, [r3, #60]	@ D.5966, pxQueue_5->uxLength
 987 006c 9A42     		cmp	r2, r3	@ D.5966, D.5966
 988 006e 02D3     		bcc	.L82	@,
 989              		.loc 1 1073 0 is_stmt 0 discriminator 1
 990 0070 3B68     		ldr	r3, [r7]	@ tmp133, xCopyPosition
 991 0072 022B     		cmp	r3, #2	@ tmp133,
 992 0074 2DD1     		bne	.L83	@,
 993              	.L82:
1074:FreeRTOS/queue.c **** 		{
1075:FreeRTOS/queue.c **** 			traceQUEUE_SEND_FROM_ISR( pxQueue );
1076:FreeRTOS/queue.c **** 
1077:FreeRTOS/queue.c **** 			if( prvCopyDataToQueue( pxQueue, pvItemToQueue, xCopyPosition ) != pdFALSE )
 994              		.loc 1 1077 0 is_stmt 1
 995 0076 B869     		ldr	r0, [r7, #24]	@, pxQueue
 996 0078 B968     		ldr	r1, [r7, #8]	@, pvItemToQueue
 997 007a 3A68     		ldr	r2, [r7]	@, xCopyPosition
 998 007c FFF7FEFF 		bl	prvCopyDataToQueue	@
 999 0080 0346     		mov	r3, r0	@ D.5967,
 1000 0082 002B     		cmp	r3, #0	@ D.5967,
 1001 0084 05D0     		beq	.L84	@,
1078:FreeRTOS/queue.c **** 			{
1079:FreeRTOS/queue.c **** 				/* This is a special case that can only be executed if a task
1080:FreeRTOS/queue.c **** 				holds multiple mutexes and then gives the mutexes back in an
1081:FreeRTOS/queue.c **** 				order that is different to that in which they were taken. */
1082:FreeRTOS/queue.c **** 				if( pxHigherPriorityTaskWoken != NULL )
 1002              		.loc 1 1082 0
 1003 0086 7B68     		ldr	r3, [r7, #4]	@ tmp134, pxHigherPriorityTaskWoken
 1004 0088 002B     		cmp	r3, #0	@ tmp134,
 1005 008a 02D0     		beq	.L84	@,
1083:FreeRTOS/queue.c **** 				{
1084:FreeRTOS/queue.c **** 					*pxHigherPriorityTaskWoken = pdTRUE;
 1006              		.loc 1 1084 0
 1007 008c 7B68     		ldr	r3, [r7, #4]	@ tmp135, pxHigherPriorityTaskWoken
 1008 008e 0122     		movs	r2, #1	@ tmp136,
 1009 0090 1A60     		str	r2, [r3]	@ tmp136, *pxHigherPriorityTaskWoken_19(D)
 1010              	.L84:
1085:FreeRTOS/queue.c **** 				}
1086:FreeRTOS/queue.c **** 				else
1087:FreeRTOS/queue.c **** 				{
1088:FreeRTOS/queue.c **** 					mtCOVERAGE_TEST_MARKER();
1089:FreeRTOS/queue.c **** 				}
1090:FreeRTOS/queue.c **** 			}
1091:FreeRTOS/queue.c **** 
1092:FreeRTOS/queue.c **** 			/* The event list is not altered if the queue is locked.  This will
1093:FreeRTOS/queue.c **** 			be done when the queue is unlocked later. */
1094:FreeRTOS/queue.c **** 			if( pxQueue->xTxLock == queueUNLOCKED )
 1011              		.loc 1 1094 0
 1012 0092 BB69     		ldr	r3, [r7, #24]	@ tmp137, pxQueue
 1013 0094 9B6C     		ldr	r3, [r3, #72]	@ D.5967, pxQueue_5->xTxLock
 1014 0096 B3F1FF3F 		cmp	r3, #-1	@ D.5967,
 1015 009a 12D1     		bne	.L85	@,
ARM GAS  C:\Users\COSMIN~1.MAR\AppData\Local\Temp\cc5hxLYL.s 			page 38


1095:FreeRTOS/queue.c **** 			{
1096:FreeRTOS/queue.c **** 				#if ( configUSE_QUEUE_SETS == 1 )
1097:FreeRTOS/queue.c **** 				{
1098:FreeRTOS/queue.c **** 					if( pxQueue->pxQueueSetContainer != NULL )
1099:FreeRTOS/queue.c **** 					{
1100:FreeRTOS/queue.c **** 						if( prvNotifyQueueSetContainer( pxQueue, xCopyPosition ) == pdTRUE )
1101:FreeRTOS/queue.c **** 						{
1102:FreeRTOS/queue.c **** 							/* The queue is a member of a queue set, and posting
1103:FreeRTOS/queue.c **** 							to the queue set caused a higher priority task to
1104:FreeRTOS/queue.c **** 							unblock.  A context switch is required. */
1105:FreeRTOS/queue.c **** 							if( pxHigherPriorityTaskWoken != NULL )
1106:FreeRTOS/queue.c **** 							{
1107:FreeRTOS/queue.c **** 								*pxHigherPriorityTaskWoken = pdTRUE;
1108:FreeRTOS/queue.c **** 							}
1109:FreeRTOS/queue.c **** 							else
1110:FreeRTOS/queue.c **** 							{
1111:FreeRTOS/queue.c **** 								mtCOVERAGE_TEST_MARKER();
1112:FreeRTOS/queue.c **** 							}
1113:FreeRTOS/queue.c **** 						}
1114:FreeRTOS/queue.c **** 						else
1115:FreeRTOS/queue.c **** 						{
1116:FreeRTOS/queue.c **** 							mtCOVERAGE_TEST_MARKER();
1117:FreeRTOS/queue.c **** 						}
1118:FreeRTOS/queue.c **** 					}
1119:FreeRTOS/queue.c **** 					else
1120:FreeRTOS/queue.c **** 					{
1121:FreeRTOS/queue.c **** 						if( listLIST_IS_EMPTY( &( pxQueue->xTasksWaitingToReceive ) ) == pdFALSE )
1122:FreeRTOS/queue.c **** 						{
1123:FreeRTOS/queue.c **** 							if( xTaskRemoveFromEventList( &( pxQueue->xTasksWaitingToReceive ) ) != pdFALSE )
1124:FreeRTOS/queue.c **** 							{
1125:FreeRTOS/queue.c **** 								/* The task waiting has a higher priority so
1126:FreeRTOS/queue.c **** 								record that a context switch is required. */
1127:FreeRTOS/queue.c **** 								if( pxHigherPriorityTaskWoken != NULL )
1128:FreeRTOS/queue.c **** 								{
1129:FreeRTOS/queue.c **** 									*pxHigherPriorityTaskWoken = pdTRUE;
1130:FreeRTOS/queue.c **** 								}
1131:FreeRTOS/queue.c **** 								else
1132:FreeRTOS/queue.c **** 								{
1133:FreeRTOS/queue.c **** 									mtCOVERAGE_TEST_MARKER();
1134:FreeRTOS/queue.c **** 								}
1135:FreeRTOS/queue.c **** 							}
1136:FreeRTOS/queue.c **** 							else
1137:FreeRTOS/queue.c **** 							{
1138:FreeRTOS/queue.c **** 								mtCOVERAGE_TEST_MARKER();
1139:FreeRTOS/queue.c **** 							}
1140:FreeRTOS/queue.c **** 						}
1141:FreeRTOS/queue.c **** 						else
1142:FreeRTOS/queue.c **** 						{
1143:FreeRTOS/queue.c **** 							mtCOVERAGE_TEST_MARKER();
1144:FreeRTOS/queue.c **** 						}
1145:FreeRTOS/queue.c **** 					}
1146:FreeRTOS/queue.c **** 				}
1147:FreeRTOS/queue.c **** 				#else /* configUSE_QUEUE_SETS */
1148:FreeRTOS/queue.c **** 				{
1149:FreeRTOS/queue.c **** 					if( listLIST_IS_EMPTY( &( pxQueue->xTasksWaitingToReceive ) ) == pdFALSE )
 1016              		.loc 1 1149 0
 1017 009c BB69     		ldr	r3, [r7, #24]	@ tmp138, pxQueue
ARM GAS  C:\Users\COSMIN~1.MAR\AppData\Local\Temp\cc5hxLYL.s 			page 39


 1018 009e 5B6A     		ldr	r3, [r3, #36]	@ D.5966, pxQueue_5->xTasksWaitingToReceive.uxNumberOfItems
 1019 00a0 002B     		cmp	r3, #0	@ D.5966,
 1020 00a2 13D0     		beq	.L86	@,
1150:FreeRTOS/queue.c **** 					{
1151:FreeRTOS/queue.c **** 						if( xTaskRemoveFromEventList( &( pxQueue->xTasksWaitingToReceive ) ) != pdFALSE )
 1021              		.loc 1 1151 0
 1022 00a4 BB69     		ldr	r3, [r7, #24]	@ tmp139, pxQueue
 1023 00a6 2433     		adds	r3, r3, #36	@ D.5968, tmp139,
 1024 00a8 1846     		mov	r0, r3	@, D.5968
 1025 00aa FFF7FEFF 		bl	xTaskRemoveFromEventList	@
 1026 00ae 0346     		mov	r3, r0	@ D.5967,
 1027 00b0 002B     		cmp	r3, #0	@ D.5967,
 1028 00b2 0BD0     		beq	.L86	@,
1152:FreeRTOS/queue.c **** 						{
1153:FreeRTOS/queue.c **** 							/* The task waiting has a higher priority so record that a
1154:FreeRTOS/queue.c **** 							context	switch is required. */
1155:FreeRTOS/queue.c **** 							if( pxHigherPriorityTaskWoken != NULL )
 1029              		.loc 1 1155 0
 1030 00b4 7B68     		ldr	r3, [r7, #4]	@ tmp140, pxHigherPriorityTaskWoken
 1031 00b6 002B     		cmp	r3, #0	@ tmp140,
 1032 00b8 08D0     		beq	.L86	@,
1156:FreeRTOS/queue.c **** 							{
1157:FreeRTOS/queue.c **** 								*pxHigherPriorityTaskWoken = pdTRUE;
 1033              		.loc 1 1157 0
 1034 00ba 7B68     		ldr	r3, [r7, #4]	@ tmp141, pxHigherPriorityTaskWoken
 1035 00bc 0122     		movs	r2, #1	@ tmp142,
 1036 00be 1A60     		str	r2, [r3]	@ tmp142, *pxHigherPriorityTaskWoken_19(D)
 1037 00c0 04E0     		b	.L86	@
 1038              	.L85:
1158:FreeRTOS/queue.c **** 							}
1159:FreeRTOS/queue.c **** 							else
1160:FreeRTOS/queue.c **** 							{
1161:FreeRTOS/queue.c **** 								mtCOVERAGE_TEST_MARKER();
1162:FreeRTOS/queue.c **** 							}
1163:FreeRTOS/queue.c **** 						}
1164:FreeRTOS/queue.c **** 						else
1165:FreeRTOS/queue.c **** 						{
1166:FreeRTOS/queue.c **** 							mtCOVERAGE_TEST_MARKER();
1167:FreeRTOS/queue.c **** 						}
1168:FreeRTOS/queue.c **** 					}
1169:FreeRTOS/queue.c **** 					else
1170:FreeRTOS/queue.c **** 					{
1171:FreeRTOS/queue.c **** 						mtCOVERAGE_TEST_MARKER();
1172:FreeRTOS/queue.c **** 					}
1173:FreeRTOS/queue.c **** 				}
1174:FreeRTOS/queue.c **** 				#endif /* configUSE_QUEUE_SETS */
1175:FreeRTOS/queue.c **** 			}
1176:FreeRTOS/queue.c **** 			else
1177:FreeRTOS/queue.c **** 			{
1178:FreeRTOS/queue.c **** 				/* Increment the lock count so the task that unlocks the queue
1179:FreeRTOS/queue.c **** 				knows that data was posted while it was locked. */
1180:FreeRTOS/queue.c **** 				++( pxQueue->xTxLock );
 1039              		.loc 1 1180 0
 1040 00c2 BB69     		ldr	r3, [r7, #24]	@ tmp143, pxQueue
 1041 00c4 9B6C     		ldr	r3, [r3, #72]	@ D.5967, pxQueue_5->xTxLock
 1042 00c6 5A1C     		adds	r2, r3, #1	@ D.5967, D.5967,
 1043 00c8 BB69     		ldr	r3, [r7, #24]	@ tmp144, pxQueue
ARM GAS  C:\Users\COSMIN~1.MAR\AppData\Local\Temp\cc5hxLYL.s 			page 40


 1044 00ca 9A64     		str	r2, [r3, #72]	@ D.5967, pxQueue_5->xTxLock
 1045              	.L86:
1181:FreeRTOS/queue.c **** 			}
1182:FreeRTOS/queue.c **** 
1183:FreeRTOS/queue.c **** 			xReturn = pdPASS;
 1046              		.loc 1 1183 0
 1047 00cc 0123     		movs	r3, #1	@ tmp145,
 1048 00ce FB61     		str	r3, [r7, #28]	@ tmp145, xReturn
 1049 00d0 01E0     		b	.L87	@
 1050              	.L83:
1184:FreeRTOS/queue.c **** 		}
1185:FreeRTOS/queue.c **** 		else
1186:FreeRTOS/queue.c **** 		{
1187:FreeRTOS/queue.c **** 			traceQUEUE_SEND_FROM_ISR_FAILED( pxQueue );
1188:FreeRTOS/queue.c **** 			xReturn = errQUEUE_FULL;
 1051              		.loc 1 1188 0
 1052 00d2 0023     		movs	r3, #0	@ tmp146,
 1053 00d4 FB61     		str	r3, [r7, #28]	@ tmp146, xReturn
 1054              	.L87:
1189:FreeRTOS/queue.c **** 		}
1190:FreeRTOS/queue.c **** 	}
1191:FreeRTOS/queue.c **** 	portCLEAR_INTERRUPT_MASK_FROM_ISR( uxSavedInterruptStatus );
 1055              		.loc 1 1191 0
 1056 00d6 7869     		ldr	r0, [r7, #20]	@, uxSavedInterruptStatus
 1057 00d8 FFF7FEFF 		bl	vPortClearInterruptMask	@
1192:FreeRTOS/queue.c **** 
1193:FreeRTOS/queue.c **** 	return xReturn;
 1058              		.loc 1 1193 0
 1059 00dc FB69     		ldr	r3, [r7, #28]	@ D.5969, xReturn
1194:FreeRTOS/queue.c **** }
 1060              		.loc 1 1194 0
 1061 00de 1846     		mov	r0, r3	@, <retval>
 1062 00e0 2037     		adds	r7, r7, #32	@,,
 1063              		.cfi_def_cfa_offset 8
 1064 00e2 BD46     		mov	sp, r7	@,
 1065              		.cfi_def_cfa_register 13
 1066              		@ sp needed	@
 1067 00e4 80BD     		pop	{r7, pc}	@
 1068              		.cfi_endproc
 1069              	.LFE8:
 1070              		.size	xQueueGenericSendFromISR, .-xQueueGenericSendFromISR
 1071 00e6 00BF     		.section	.text.xQueueGenericReceive,"ax",%progbits
 1072              		.align	2
 1073              		.global	xQueueGenericReceive
 1074              		.thumb
 1075              		.thumb_func
 1076              		.type	xQueueGenericReceive, %function
 1077              	xQueueGenericReceive:
 1078              	.LFB9:
1195:FreeRTOS/queue.c **** /*-----------------------------------------------------------*/
1196:FreeRTOS/queue.c **** 
1197:FreeRTOS/queue.c **** BaseT_t xQueueGenericReceive( QueueHandle_t xQueue, void * const pvBuffer, TickT_t xTicksToWait, co
1198:FreeRTOS/queue.c **** {
 1079              		.loc 1 1198 0
 1080              		.cfi_startproc
 1081              		@ args = 0, pretend = 0, frame = 40
 1082              		@ frame_needed = 1, uses_anonymous_args = 0
ARM GAS  C:\Users\COSMIN~1.MAR\AppData\Local\Temp\cc5hxLYL.s 			page 41


 1083 0000 80B5     		push	{r7, lr}	@
 1084              		.cfi_def_cfa_offset 8
 1085              		.cfi_offset 7, -8
 1086              		.cfi_offset 14, -4
 1087 0002 8AB0     		sub	sp, sp, #40	@,,
 1088              		.cfi_def_cfa_offset 48
 1089 0004 00AF     		add	r7, sp, #0	@,,
 1090              		.cfi_def_cfa_register 7
 1091 0006 F860     		str	r0, [r7, #12]	@ xQueue, xQueue
 1092 0008 B960     		str	r1, [r7, #8]	@ pvBuffer, pvBuffer
 1093 000a 7A60     		str	r2, [r7, #4]	@ xTicksToWait, xTicksToWait
 1094 000c 3B60     		str	r3, [r7]	@ xJustPeeking, xJustPeeking
1199:FreeRTOS/queue.c **** BaseT_t xEntryTimeSet = pdFALSE;
 1095              		.loc 1 1199 0
 1096 000e 0023     		movs	r3, #0	@ tmp135,
 1097 0010 7B62     		str	r3, [r7, #36]	@ tmp135, xEntryTimeSet
1200:FreeRTOS/queue.c **** TimeOut_t xTimeOut;
1201:FreeRTOS/queue.c **** int8_t *pcOriginalReadPosition;
1202:FreeRTOS/queue.c **** Queue_t * const pxQueue = ( Queue_t * ) xQueue;
 1098              		.loc 1 1202 0
 1099 0012 FB68     		ldr	r3, [r7, #12]	@ tmp136, xQueue
 1100 0014 3B62     		str	r3, [r7, #32]	@ tmp136, pxQueue
1203:FreeRTOS/queue.c **** 
1204:FreeRTOS/queue.c **** 	configASSERT( pxQueue );
 1101              		.loc 1 1204 0
 1102 0016 3B6A     		ldr	r3, [r7, #32]	@ tmp137, pxQueue
 1103 0018 002B     		cmp	r3, #0	@ tmp137,
 1104 001a 02D1     		bne	.L90	@,
 1105              		.loc 1 1204 0 is_stmt 0 discriminator 1
 1106 001c FFF7FEFF 		bl	ulPortSetInterruptMask	@
 1107              	.L91:
 1108 0020 FEE7     		b	.L91	@
 1109              	.L90:
1205:FreeRTOS/queue.c **** 	configASSERT( !( ( pvBuffer == NULL ) && ( pxQueue->uxItemSize != ( UBaseT_t ) 0U ) ) );
 1110              		.loc 1 1205 0 is_stmt 1
 1111 0022 BB68     		ldr	r3, [r7, #8]	@ tmp138, pvBuffer
 1112 0024 002B     		cmp	r3, #0	@ tmp138,
 1113 0026 03D1     		bne	.L92	@,
 1114              		.loc 1 1205 0 is_stmt 0 discriminator 2
 1115 0028 3B6A     		ldr	r3, [r7, #32]	@ tmp139, pxQueue
 1116 002a 1B6C     		ldr	r3, [r3, #64]	@ D.5972, pxQueue_7->uxItemSize
 1117 002c 002B     		cmp	r3, #0	@ D.5972,
 1118 002e 01D1     		bne	.L93	@,
 1119              	.L92:
 1120              		.loc 1 1205 0 discriminator 3
 1121 0030 0123     		movs	r3, #1	@ D.5970,
 1122 0032 00E0     		b	.L94	@
 1123              	.L93:
 1124              		.loc 1 1205 0 discriminator 4
 1125 0034 0023     		movs	r3, #0	@ D.5970,
 1126              	.L94:
 1127              		.loc 1 1205 0 discriminator 6
 1128 0036 002B     		cmp	r3, #0	@ D.5970,
 1129 0038 02D1     		bne	.L95	@,
 1130              		.loc 1 1205 0 discriminator 7
 1131 003a FFF7FEFF 		bl	ulPortSetInterruptMask	@
 1132              	.L96:
ARM GAS  C:\Users\COSMIN~1.MAR\AppData\Local\Temp\cc5hxLYL.s 			page 42


 1133              		.loc 1 1205 0 discriminator 2
 1134 003e FEE7     		b	.L96	@
 1135              	.L95:
1206:FreeRTOS/queue.c **** 	#if ( ( INCLUDE_xTaskGetSchedulerState == 1 ) || ( configUSE_TIMERS == 1 ) )
1207:FreeRTOS/queue.c **** 	{
1208:FreeRTOS/queue.c **** 		configASSERT( !( ( xTaskGetSchedulerState() == taskSCHEDULER_SUSPENDED ) && ( xTicksToWait != 0 )
1209:FreeRTOS/queue.c **** 	}
1210:FreeRTOS/queue.c **** 	#endif
1211:FreeRTOS/queue.c **** 
1212:FreeRTOS/queue.c **** 	/* This function relaxes the coding standard somewhat to allow return
1213:FreeRTOS/queue.c **** 	statements within the function itself.  This is done in the interest
1214:FreeRTOS/queue.c **** 	of execution time efficiency. */
1215:FreeRTOS/queue.c **** 
1216:FreeRTOS/queue.c **** 	for( ;; )
1217:FreeRTOS/queue.c **** 	{
1218:FreeRTOS/queue.c **** 		taskENTER_CRITICAL();
 1136              		.loc 1 1218 0 is_stmt 1
 1137 0040 FFF7FEFF 		bl	vPortEnterCritical	@
1219:FreeRTOS/queue.c **** 		{
1220:FreeRTOS/queue.c **** 			/* Is there data in the queue now?  To be running we must be
1221:FreeRTOS/queue.c **** 			the highest priority task wanting to access the queue. */
1222:FreeRTOS/queue.c **** 			if( pxQueue->uxMessagesWaiting > ( UBaseT_t ) 0 )
 1138              		.loc 1 1222 0
 1139 0044 3B6A     		ldr	r3, [r7, #32]	@ tmp140, pxQueue
 1140 0046 9B6B     		ldr	r3, [r3, #56]	@ D.5972, pxQueue_7->uxMessagesWaiting
 1141 0048 002B     		cmp	r3, #0	@ D.5972,
 1142 004a 3BD0     		beq	.L97	@,
1223:FreeRTOS/queue.c **** 			{
1224:FreeRTOS/queue.c **** 				/* Remember the read position in case the queue is only being
1225:FreeRTOS/queue.c **** 				peeked. */
1226:FreeRTOS/queue.c **** 				pcOriginalReadPosition = pxQueue->u.pcReadFrom;
 1143              		.loc 1 1226 0
 1144 004c 3B6A     		ldr	r3, [r7, #32]	@ tmp141, pxQueue
 1145 004e DB68     		ldr	r3, [r3, #12]	@ tmp142, pxQueue_7->u.pcReadFrom
 1146 0050 FB61     		str	r3, [r7, #28]	@ tmp142, pcOriginalReadPosition
1227:FreeRTOS/queue.c **** 
1228:FreeRTOS/queue.c **** 				prvCopyDataFromQueue( pxQueue, pvBuffer );
 1147              		.loc 1 1228 0
 1148 0052 386A     		ldr	r0, [r7, #32]	@, pxQueue
 1149 0054 B968     		ldr	r1, [r7, #8]	@, pvBuffer
 1150 0056 FFF7FEFF 		bl	prvCopyDataFromQueue	@
1229:FreeRTOS/queue.c **** 
1230:FreeRTOS/queue.c **** 				if( xJustPeeking == pdFALSE )
 1151              		.loc 1 1230 0
 1152 005a 3B68     		ldr	r3, [r7]	@ tmp143, xJustPeeking
 1153 005c 002B     		cmp	r3, #0	@ tmp143,
 1154 005e 1CD1     		bne	.L98	@,
1231:FreeRTOS/queue.c **** 				{
1232:FreeRTOS/queue.c **** 					traceQUEUE_RECEIVE( pxQueue );
1233:FreeRTOS/queue.c **** 
1234:FreeRTOS/queue.c **** 					/* Actually removing data, not just peeking. */
1235:FreeRTOS/queue.c **** 					--( pxQueue->uxMessagesWaiting );
 1155              		.loc 1 1235 0
 1156 0060 3B6A     		ldr	r3, [r7, #32]	@ tmp144, pxQueue
 1157 0062 9B6B     		ldr	r3, [r3, #56]	@ D.5972, pxQueue_7->uxMessagesWaiting
 1158 0064 5A1E     		subs	r2, r3, #1	@ D.5972, D.5972,
 1159 0066 3B6A     		ldr	r3, [r7, #32]	@ tmp145, pxQueue
ARM GAS  C:\Users\COSMIN~1.MAR\AppData\Local\Temp\cc5hxLYL.s 			page 43


 1160 0068 9A63     		str	r2, [r3, #56]	@ D.5972, pxQueue_7->uxMessagesWaiting
1236:FreeRTOS/queue.c **** 
1237:FreeRTOS/queue.c **** 					#if ( configUSE_MUTEXES == 1 )
1238:FreeRTOS/queue.c **** 					{
1239:FreeRTOS/queue.c **** 						if( pxQueue->uxQueueType == queueQUEUE_IS_MUTEX )
 1161              		.loc 1 1239 0
 1162 006a 3B6A     		ldr	r3, [r7, #32]	@ tmp146, pxQueue
 1163 006c 1B68     		ldr	r3, [r3]	@ D.5974, pxQueue_7->pcHead
 1164 006e 002B     		cmp	r3, #0	@ D.5974,
 1165 0070 04D1     		bne	.L99	@,
1240:FreeRTOS/queue.c **** 						{
1241:FreeRTOS/queue.c **** 							/* Record the information required to implement
1242:FreeRTOS/queue.c **** 							priority inheritance should it become necessary. */
1243:FreeRTOS/queue.c **** 							pxQueue->pxMutexHolder = ( int8_t * ) pvTaskIncrementMutexHeldCount(); /*lint !e961 Cast is 
 1166              		.loc 1 1243 0
 1167 0072 FFF7FEFF 		bl	pvTaskIncrementMutexHeldCount	@
 1168 0076 0246     		mov	r2, r0	@ D.5976,
 1169 0078 3B6A     		ldr	r3, [r7, #32]	@ tmp147, pxQueue
 1170 007a 5A60     		str	r2, [r3, #4]	@ D.5976, pxQueue_7->pcTail
 1171              	.L99:
1244:FreeRTOS/queue.c **** 						}
1245:FreeRTOS/queue.c **** 						else
1246:FreeRTOS/queue.c **** 						{
1247:FreeRTOS/queue.c **** 							mtCOVERAGE_TEST_MARKER();
1248:FreeRTOS/queue.c **** 						}
1249:FreeRTOS/queue.c **** 					}
1250:FreeRTOS/queue.c **** 					#endif /* configUSE_MUTEXES */
1251:FreeRTOS/queue.c **** 
1252:FreeRTOS/queue.c **** 					if( listLIST_IS_EMPTY( &( pxQueue->xTasksWaitingToSend ) ) == pdFALSE )
 1172              		.loc 1 1252 0
 1173 007c 3B6A     		ldr	r3, [r7, #32]	@ tmp148, pxQueue
 1174 007e 1B69     		ldr	r3, [r3, #16]	@ D.5972, pxQueue_7->xTasksWaitingToSend.uxNumberOfItems
 1175 0080 002B     		cmp	r3, #0	@ D.5972,
 1176 0082 1BD0     		beq	.L100	@,
1253:FreeRTOS/queue.c **** 					{
1254:FreeRTOS/queue.c **** 						if( xTaskRemoveFromEventList( &( pxQueue->xTasksWaitingToSend ) ) == pdTRUE )
 1177              		.loc 1 1254 0
 1178 0084 3B6A     		ldr	r3, [r7, #32]	@ tmp149, pxQueue
 1179 0086 1033     		adds	r3, r3, #16	@ D.5975, tmp149,
 1180 0088 1846     		mov	r0, r3	@, D.5975
 1181 008a FFF7FEFF 		bl	xTaskRemoveFromEventList	@
 1182 008e 0346     		mov	r3, r0	@ D.5973,
 1183 0090 012B     		cmp	r3, #1	@ D.5973,
 1184 0092 13D1     		bne	.L100	@,
1255:FreeRTOS/queue.c **** 						{
1256:FreeRTOS/queue.c **** 							queueYIELD_IF_USING_PREEMPTION();
 1185              		.loc 1 1256 0
 1186 0094 FFF7FEFF 		bl	vPortYield	@
 1187 0098 10E0     		b	.L100	@
 1188              	.L98:
1257:FreeRTOS/queue.c **** 						}
1258:FreeRTOS/queue.c **** 						else
1259:FreeRTOS/queue.c **** 						{
1260:FreeRTOS/queue.c **** 							mtCOVERAGE_TEST_MARKER();
1261:FreeRTOS/queue.c **** 						}
1262:FreeRTOS/queue.c **** 					}
1263:FreeRTOS/queue.c **** 					else
ARM GAS  C:\Users\COSMIN~1.MAR\AppData\Local\Temp\cc5hxLYL.s 			page 44


1264:FreeRTOS/queue.c **** 					{
1265:FreeRTOS/queue.c **** 						mtCOVERAGE_TEST_MARKER();
1266:FreeRTOS/queue.c **** 					}
1267:FreeRTOS/queue.c **** 				}
1268:FreeRTOS/queue.c **** 				else
1269:FreeRTOS/queue.c **** 				{
1270:FreeRTOS/queue.c **** 					traceQUEUE_PEEK( pxQueue );
1271:FreeRTOS/queue.c **** 
1272:FreeRTOS/queue.c **** 					/* The data is not being removed, so reset the read
1273:FreeRTOS/queue.c **** 					pointer. */
1274:FreeRTOS/queue.c **** 					pxQueue->u.pcReadFrom = pcOriginalReadPosition;
 1189              		.loc 1 1274 0
 1190 009a 3B6A     		ldr	r3, [r7, #32]	@ tmp150, pxQueue
 1191 009c FA69     		ldr	r2, [r7, #28]	@ tmp151, pcOriginalReadPosition
 1192 009e DA60     		str	r2, [r3, #12]	@ tmp151, pxQueue_7->u.pcReadFrom
1275:FreeRTOS/queue.c **** 
1276:FreeRTOS/queue.c **** 					/* The data is being left in the queue, so see if there are
1277:FreeRTOS/queue.c **** 					any other tasks waiting for the data. */
1278:FreeRTOS/queue.c **** 					if( listLIST_IS_EMPTY( &( pxQueue->xTasksWaitingToReceive ) ) == pdFALSE )
 1193              		.loc 1 1278 0
 1194 00a0 3B6A     		ldr	r3, [r7, #32]	@ tmp152, pxQueue
 1195 00a2 5B6A     		ldr	r3, [r3, #36]	@ D.5972, pxQueue_7->xTasksWaitingToReceive.uxNumberOfItems
 1196 00a4 002B     		cmp	r3, #0	@ D.5972,
 1197 00a6 09D0     		beq	.L100	@,
1279:FreeRTOS/queue.c **** 					{
1280:FreeRTOS/queue.c **** 						/* Tasks that are removed from the event list will get added to
1281:FreeRTOS/queue.c **** 						the pending ready list as the scheduler is still suspended. */
1282:FreeRTOS/queue.c **** 						if( xTaskRemoveFromEventList( &( pxQueue->xTasksWaitingToReceive ) ) != pdFALSE )
 1198              		.loc 1 1282 0
 1199 00a8 3B6A     		ldr	r3, [r7, #32]	@ tmp153, pxQueue
 1200 00aa 2433     		adds	r3, r3, #36	@ D.5975, tmp153,
 1201 00ac 1846     		mov	r0, r3	@, D.5975
 1202 00ae FFF7FEFF 		bl	xTaskRemoveFromEventList	@
 1203 00b2 0346     		mov	r3, r0	@ D.5973,
 1204 00b4 002B     		cmp	r3, #0	@ D.5973,
 1205 00b6 01D0     		beq	.L100	@,
1283:FreeRTOS/queue.c **** 						{
1284:FreeRTOS/queue.c **** 							/* The task waiting has a higher priority than this task. */
1285:FreeRTOS/queue.c **** 							queueYIELD_IF_USING_PREEMPTION();
 1206              		.loc 1 1285 0
 1207 00b8 FFF7FEFF 		bl	vPortYield	@
 1208              	.L100:
1286:FreeRTOS/queue.c **** 						}
1287:FreeRTOS/queue.c **** 						else
1288:FreeRTOS/queue.c **** 						{
1289:FreeRTOS/queue.c **** 							mtCOVERAGE_TEST_MARKER();
1290:FreeRTOS/queue.c **** 						}
1291:FreeRTOS/queue.c **** 					}
1292:FreeRTOS/queue.c **** 					else
1293:FreeRTOS/queue.c **** 					{
1294:FreeRTOS/queue.c **** 						mtCOVERAGE_TEST_MARKER();
1295:FreeRTOS/queue.c **** 					}
1296:FreeRTOS/queue.c **** 				}
1297:FreeRTOS/queue.c **** 
1298:FreeRTOS/queue.c **** 				taskEXIT_CRITICAL();
 1209              		.loc 1 1298 0
 1210 00bc FFF7FEFF 		bl	vPortExitCritical	@
ARM GAS  C:\Users\COSMIN~1.MAR\AppData\Local\Temp\cc5hxLYL.s 			page 45


1299:FreeRTOS/queue.c **** 				return pdPASS;
 1211              		.loc 1 1299 0
 1212 00c0 0123     		movs	r3, #1	@ D.5971,
 1213 00c2 66E0     		b	.L111	@
 1214              	.L97:
1300:FreeRTOS/queue.c **** 			}
1301:FreeRTOS/queue.c **** 			else
1302:FreeRTOS/queue.c **** 			{
1303:FreeRTOS/queue.c **** 				if( xTicksToWait == ( TickT_t ) 0 )
 1215              		.loc 1 1303 0
 1216 00c4 7B68     		ldr	r3, [r7, #4]	@ D.5972, xTicksToWait
 1217 00c6 002B     		cmp	r3, #0	@ D.5972,
 1218 00c8 03D1     		bne	.L102	@,
1304:FreeRTOS/queue.c **** 				{
1305:FreeRTOS/queue.c **** 					/* The queue was empty and no block time is specified (or
1306:FreeRTOS/queue.c **** 					the block time has expired) so leave now. */
1307:FreeRTOS/queue.c **** 					taskEXIT_CRITICAL();
 1219              		.loc 1 1307 0
 1220 00ca FFF7FEFF 		bl	vPortExitCritical	@
1308:FreeRTOS/queue.c **** 					traceQUEUE_RECEIVE_FAILED( pxQueue );
1309:FreeRTOS/queue.c **** 					return errQUEUE_EMPTY;
 1221              		.loc 1 1309 0
 1222 00ce 0023     		movs	r3, #0	@ D.5971,
 1223 00d0 5FE0     		b	.L111	@
 1224              	.L102:
1310:FreeRTOS/queue.c **** 				}
1311:FreeRTOS/queue.c **** 				else if( xEntryTimeSet == pdFALSE )
 1225              		.loc 1 1311 0
 1226 00d2 7B6A     		ldr	r3, [r7, #36]	@ tmp154, xEntryTimeSet
 1227 00d4 002B     		cmp	r3, #0	@ tmp154,
 1228 00d6 06D1     		bne	.L103	@,
1312:FreeRTOS/queue.c **** 				{
1313:FreeRTOS/queue.c **** 					/* The queue was empty and a block time was specified so
1314:FreeRTOS/queue.c **** 					configure the timeout structure. */
1315:FreeRTOS/queue.c **** 					vTaskSetTimeOutState( &xTimeOut );
 1229              		.loc 1 1315 0
 1230 00d8 07F11403 		add	r3, r7, #20	@ tmp155,,
 1231 00dc 1846     		mov	r0, r3	@, tmp155
 1232 00de FFF7FEFF 		bl	vTaskSetTimeOutState	@
1316:FreeRTOS/queue.c **** 					xEntryTimeSet = pdTRUE;
 1233              		.loc 1 1316 0
 1234 00e2 0123     		movs	r3, #1	@ tmp156,
 1235 00e4 7B62     		str	r3, [r7, #36]	@ tmp156, xEntryTimeSet
 1236              	.L103:
1317:FreeRTOS/queue.c **** 				}
1318:FreeRTOS/queue.c **** 				else
1319:FreeRTOS/queue.c **** 				{
1320:FreeRTOS/queue.c **** 					/* Entry time was already set. */
1321:FreeRTOS/queue.c **** 					mtCOVERAGE_TEST_MARKER();
1322:FreeRTOS/queue.c **** 				}
1323:FreeRTOS/queue.c **** 			}
1324:FreeRTOS/queue.c **** 		}
1325:FreeRTOS/queue.c **** 		taskEXIT_CRITICAL();
 1237              		.loc 1 1325 0
 1238 00e6 FFF7FEFF 		bl	vPortExitCritical	@
1326:FreeRTOS/queue.c **** 
1327:FreeRTOS/queue.c **** 		/* Interrupts and other tasks can send to and receive from the queue
ARM GAS  C:\Users\COSMIN~1.MAR\AppData\Local\Temp\cc5hxLYL.s 			page 46


1328:FreeRTOS/queue.c **** 		now the critical section has been exited. */
1329:FreeRTOS/queue.c **** 
1330:FreeRTOS/queue.c **** 		vTaskSuspendAll();
 1239              		.loc 1 1330 0
 1240 00ea FFF7FEFF 		bl	vTaskSuspendAll	@
1331:FreeRTOS/queue.c **** 		prvLockQueue( pxQueue );
 1241              		.loc 1 1331 0
 1242 00ee FFF7FEFF 		bl	vPortEnterCritical	@
 1243 00f2 3B6A     		ldr	r3, [r7, #32]	@ tmp157, pxQueue
 1244 00f4 5B6C     		ldr	r3, [r3, #68]	@ D.5973, pxQueue_7->xRxLock
 1245 00f6 B3F1FF3F 		cmp	r3, #-1	@ D.5973,
 1246 00fa 02D1     		bne	.L104	@,
 1247              		.loc 1 1331 0 is_stmt 0 discriminator 1
 1248 00fc 3B6A     		ldr	r3, [r7, #32]	@ tmp158, pxQueue
 1249 00fe 0022     		movs	r2, #0	@ tmp159,
 1250 0100 5A64     		str	r2, [r3, #68]	@ tmp159, pxQueue_7->xRxLock
 1251              	.L104:
 1252              		.loc 1 1331 0 discriminator 3
 1253 0102 3B6A     		ldr	r3, [r7, #32]	@ tmp160, pxQueue
 1254 0104 9B6C     		ldr	r3, [r3, #72]	@ D.5973, pxQueue_7->xTxLock
 1255 0106 B3F1FF3F 		cmp	r3, #-1	@ D.5973,
 1256 010a 02D1     		bne	.L105	@,
 1257              		.loc 1 1331 0 discriminator 4
 1258 010c 3B6A     		ldr	r3, [r7, #32]	@ tmp161, pxQueue
 1259 010e 0022     		movs	r2, #0	@ tmp162,
 1260 0110 9A64     		str	r2, [r3, #72]	@ tmp162, pxQueue_7->xTxLock
 1261              	.L105:
 1262              		.loc 1 1331 0 discriminator 6
 1263 0112 FFF7FEFF 		bl	vPortExitCritical	@
1332:FreeRTOS/queue.c **** 
1333:FreeRTOS/queue.c **** 		/* Update the timeout state to see if it has expired yet. */
1334:FreeRTOS/queue.c **** 		if( xTaskCheckForTimeOut( &xTimeOut, &xTicksToWait ) == pdFALSE )
 1264              		.loc 1 1334 0 is_stmt 1 discriminator 6
 1265 0116 07F11402 		add	r2, r7, #20	@ tmp163,,
 1266 011a 3B1D     		adds	r3, r7, #4	@ tmp164,,
 1267 011c 1046     		mov	r0, r2	@, tmp163
 1268 011e 1946     		mov	r1, r3	@, tmp164
 1269 0120 FFF7FEFF 		bl	xTaskCheckForTimeOut	@
 1270 0124 0346     		mov	r3, r0	@ D.5973,
 1271 0126 002B     		cmp	r3, #0	@ D.5973,
 1272 0128 2BD1     		bne	.L106	@,
1335:FreeRTOS/queue.c **** 		{
1336:FreeRTOS/queue.c **** 			if( prvIsQueueEmpty( pxQueue ) != pdFALSE )
 1273              		.loc 1 1336 0
 1274 012a 386A     		ldr	r0, [r7, #32]	@, pxQueue
 1275 012c FFF7FEFF 		bl	prvIsQueueEmpty	@
 1276 0130 0346     		mov	r3, r0	@ D.5973,
 1277 0132 002B     		cmp	r3, #0	@ D.5973,
 1278 0134 1FD0     		beq	.L107	@,
1337:FreeRTOS/queue.c **** 			{
1338:FreeRTOS/queue.c **** 				traceBLOCKING_ON_QUEUE_RECEIVE( pxQueue );
1339:FreeRTOS/queue.c **** 
1340:FreeRTOS/queue.c **** 				#if ( configUSE_MUTEXES == 1 )
1341:FreeRTOS/queue.c **** 				{
1342:FreeRTOS/queue.c **** 					if( pxQueue->uxQueueType == queueQUEUE_IS_MUTEX )
 1279              		.loc 1 1342 0
 1280 0136 3B6A     		ldr	r3, [r7, #32]	@ tmp165, pxQueue
ARM GAS  C:\Users\COSMIN~1.MAR\AppData\Local\Temp\cc5hxLYL.s 			page 47


 1281 0138 1B68     		ldr	r3, [r3]	@ D.5974, pxQueue_7->pcHead
 1282 013a 002B     		cmp	r3, #0	@ D.5974,
 1283 013c 08D1     		bne	.L108	@,
1343:FreeRTOS/queue.c **** 					{
1344:FreeRTOS/queue.c **** 						taskENTER_CRITICAL();
 1284              		.loc 1 1344 0
 1285 013e FFF7FEFF 		bl	vPortEnterCritical	@
1345:FreeRTOS/queue.c **** 						{
1346:FreeRTOS/queue.c **** 							vTaskPriorityInherit( ( void * ) pxQueue->pxMutexHolder );
 1286              		.loc 1 1346 0
 1287 0142 3B6A     		ldr	r3, [r7, #32]	@ tmp166, pxQueue
 1288 0144 5B68     		ldr	r3, [r3, #4]	@ D.5974, pxQueue_7->pcTail
 1289 0146 1846     		mov	r0, r3	@, D.5974
 1290 0148 FFF7FEFF 		bl	vTaskPriorityInherit	@
1347:FreeRTOS/queue.c **** 						}
1348:FreeRTOS/queue.c **** 						taskEXIT_CRITICAL();
 1291              		.loc 1 1348 0
 1292 014c FFF7FEFF 		bl	vPortExitCritical	@
 1293              	.L108:
1349:FreeRTOS/queue.c **** 					}
1350:FreeRTOS/queue.c **** 					else
1351:FreeRTOS/queue.c **** 					{
1352:FreeRTOS/queue.c **** 						mtCOVERAGE_TEST_MARKER();
1353:FreeRTOS/queue.c **** 					}
1354:FreeRTOS/queue.c **** 				}
1355:FreeRTOS/queue.c **** 				#endif
1356:FreeRTOS/queue.c **** 
1357:FreeRTOS/queue.c **** 				vTaskPlaceOnEventList( &( pxQueue->xTasksWaitingToReceive ), xTicksToWait );
 1294              		.loc 1 1357 0
 1295 0150 3B6A     		ldr	r3, [r7, #32]	@ tmp167, pxQueue
 1296 0152 03F12402 		add	r2, r3, #36	@ D.5975, tmp167,
 1297 0156 7B68     		ldr	r3, [r7, #4]	@ D.5972, xTicksToWait
 1298 0158 1046     		mov	r0, r2	@, D.5975
 1299 015a 1946     		mov	r1, r3	@, D.5972
 1300 015c FFF7FEFF 		bl	vTaskPlaceOnEventList	@
1358:FreeRTOS/queue.c **** 				prvUnlockQueue( pxQueue );
 1301              		.loc 1 1358 0
 1302 0160 386A     		ldr	r0, [r7, #32]	@, pxQueue
 1303 0162 FFF7FEFF 		bl	prvUnlockQueue	@
1359:FreeRTOS/queue.c **** 				if( xTaskResumeAll() == pdFALSE )
 1304              		.loc 1 1359 0
 1305 0166 FFF7FEFF 		bl	xTaskResumeAll	@
 1306 016a 0346     		mov	r3, r0	@ D.5973,
 1307 016c 002B     		cmp	r3, #0	@ D.5973,
 1308 016e 0FD1     		bne	.L110	@,
1360:FreeRTOS/queue.c **** 				{
1361:FreeRTOS/queue.c **** 					portYIELD_WITHIN_API();
 1309              		.loc 1 1361 0
 1310 0170 FFF7FEFF 		bl	vPortYield	@
 1311 0174 0CE0     		b	.L110	@
 1312              	.L107:
1362:FreeRTOS/queue.c **** 				}
1363:FreeRTOS/queue.c **** 				else
1364:FreeRTOS/queue.c **** 				{
1365:FreeRTOS/queue.c **** 					mtCOVERAGE_TEST_MARKER();
1366:FreeRTOS/queue.c **** 				}
1367:FreeRTOS/queue.c **** 			}
ARM GAS  C:\Users\COSMIN~1.MAR\AppData\Local\Temp\cc5hxLYL.s 			page 48


1368:FreeRTOS/queue.c **** 			else
1369:FreeRTOS/queue.c **** 			{
1370:FreeRTOS/queue.c **** 				/* Try again. */
1371:FreeRTOS/queue.c **** 				prvUnlockQueue( pxQueue );
 1313              		.loc 1 1371 0
 1314 0176 386A     		ldr	r0, [r7, #32]	@, pxQueue
 1315 0178 FFF7FEFF 		bl	prvUnlockQueue	@
1372:FreeRTOS/queue.c **** 				( void ) xTaskResumeAll();
 1316              		.loc 1 1372 0
 1317 017c FFF7FEFF 		bl	xTaskResumeAll	@
 1318 0180 5EE7     		b	.L95	@
 1319              	.L106:
1373:FreeRTOS/queue.c **** 			}
1374:FreeRTOS/queue.c **** 		}
1375:FreeRTOS/queue.c **** 		else
1376:FreeRTOS/queue.c **** 		{
1377:FreeRTOS/queue.c **** 			prvUnlockQueue( pxQueue );
 1320              		.loc 1 1377 0
 1321 0182 386A     		ldr	r0, [r7, #32]	@, pxQueue
 1322 0184 FFF7FEFF 		bl	prvUnlockQueue	@
1378:FreeRTOS/queue.c **** 			( void ) xTaskResumeAll();
 1323              		.loc 1 1378 0
 1324 0188 FFF7FEFF 		bl	xTaskResumeAll	@
1379:FreeRTOS/queue.c **** 			traceQUEUE_RECEIVE_FAILED( pxQueue );
1380:FreeRTOS/queue.c **** 			return errQUEUE_EMPTY;
 1325              		.loc 1 1380 0
 1326 018c 0023     		movs	r3, #0	@ D.5971,
 1327 018e 00E0     		b	.L111	@
 1328              	.L110:
1381:FreeRTOS/queue.c **** 		}
1382:FreeRTOS/queue.c **** 	}
 1329              		.loc 1 1382 0 discriminator 5
 1330 0190 56E7     		b	.L95	@
 1331              	.L111:
1383:FreeRTOS/queue.c **** }
 1332              		.loc 1 1383 0 discriminator 6
 1333 0192 1846     		mov	r0, r3	@, <retval>
 1334 0194 2837     		adds	r7, r7, #40	@,,
 1335              		.cfi_def_cfa_offset 8
 1336 0196 BD46     		mov	sp, r7	@,
 1337              		.cfi_def_cfa_register 13
 1338              		@ sp needed	@
 1339 0198 80BD     		pop	{r7, pc}	@
 1340              		.cfi_endproc
 1341              	.LFE9:
 1342              		.size	xQueueGenericReceive, .-xQueueGenericReceive
 1343 019a 00BF     		.section	.text.xQueueReceiveFromISR,"ax",%progbits
 1344              		.align	2
 1345              		.global	xQueueReceiveFromISR
 1346              		.thumb
 1347              		.thumb_func
 1348              		.type	xQueueReceiveFromISR, %function
 1349              	xQueueReceiveFromISR:
 1350              	.LFB10:
1384:FreeRTOS/queue.c **** /*-----------------------------------------------------------*/
1385:FreeRTOS/queue.c **** 
1386:FreeRTOS/queue.c **** BaseT_t xQueueReceiveFromISR( QueueHandle_t xQueue, void * const pvBuffer, BaseT_t * const pxHigher
ARM GAS  C:\Users\COSMIN~1.MAR\AppData\Local\Temp\cc5hxLYL.s 			page 49


1387:FreeRTOS/queue.c **** {
 1351              		.loc 1 1387 0
 1352              		.cfi_startproc
 1353              		@ args = 0, pretend = 0, frame = 32
 1354              		@ frame_needed = 1, uses_anonymous_args = 0
 1355 0000 80B5     		push	{r7, lr}	@
 1356              		.cfi_def_cfa_offset 8
 1357              		.cfi_offset 7, -8
 1358              		.cfi_offset 14, -4
 1359 0002 88B0     		sub	sp, sp, #32	@,,
 1360              		.cfi_def_cfa_offset 40
 1361 0004 00AF     		add	r7, sp, #0	@,,
 1362              		.cfi_def_cfa_register 7
 1363 0006 F860     		str	r0, [r7, #12]	@ xQueue, xQueue
 1364 0008 B960     		str	r1, [r7, #8]	@ pvBuffer, pvBuffer
 1365 000a 7A60     		str	r2, [r7, #4]	@ pxHigherPriorityTaskWoken, pxHigherPriorityTaskWoken
1388:FreeRTOS/queue.c **** BaseT_t xReturn;
1389:FreeRTOS/queue.c **** UBaseT_t uxSavedInterruptStatus;
1390:FreeRTOS/queue.c **** Queue_t * const pxQueue = ( Queue_t * ) xQueue;
 1366              		.loc 1 1390 0
 1367 000c FB68     		ldr	r3, [r7, #12]	@ tmp123, xQueue
 1368 000e BB61     		str	r3, [r7, #24]	@ tmp123, pxQueue
1391:FreeRTOS/queue.c **** 
1392:FreeRTOS/queue.c **** 	configASSERT( pxQueue );
 1369              		.loc 1 1392 0
 1370 0010 BB69     		ldr	r3, [r7, #24]	@ tmp124, pxQueue
 1371 0012 002B     		cmp	r3, #0	@ tmp124,
 1372 0014 02D1     		bne	.L113	@,
 1373              		.loc 1 1392 0 is_stmt 0 discriminator 1
 1374 0016 FFF7FEFF 		bl	ulPortSetInterruptMask	@
 1375              	.L114:
 1376 001a FEE7     		b	.L114	@
 1377              	.L113:
1393:FreeRTOS/queue.c **** 	configASSERT( !( ( pvBuffer == NULL ) && ( pxQueue->uxItemSize != ( UBaseT_t ) 0U ) ) );
 1378              		.loc 1 1393 0 is_stmt 1
 1379 001c BB68     		ldr	r3, [r7, #8]	@ tmp125, pvBuffer
 1380 001e 002B     		cmp	r3, #0	@ tmp125,
 1381 0020 03D1     		bne	.L115	@,
 1382              		.loc 1 1393 0 is_stmt 0 discriminator 2
 1383 0022 BB69     		ldr	r3, [r7, #24]	@ tmp126, pxQueue
 1384 0024 1B6C     		ldr	r3, [r3, #64]	@ D.5978, pxQueue_4->uxItemSize
 1385 0026 002B     		cmp	r3, #0	@ D.5978,
 1386 0028 01D1     		bne	.L116	@,
 1387              	.L115:
 1388              		.loc 1 1393 0 discriminator 3
 1389 002a 0123     		movs	r3, #1	@ D.5977,
 1390 002c 00E0     		b	.L117	@
 1391              	.L116:
 1392              		.loc 1 1393 0 discriminator 4
 1393 002e 0023     		movs	r3, #0	@ D.5977,
 1394              	.L117:
 1395              		.loc 1 1393 0 discriminator 6
 1396 0030 002B     		cmp	r3, #0	@ D.5977,
 1397 0032 02D1     		bne	.L118	@,
 1398              		.loc 1 1393 0 discriminator 7
 1399 0034 FFF7FEFF 		bl	ulPortSetInterruptMask	@
 1400              	.L119:
ARM GAS  C:\Users\COSMIN~1.MAR\AppData\Local\Temp\cc5hxLYL.s 			page 50


 1401              		.loc 1 1393 0 discriminator 2
 1402 0038 FEE7     		b	.L119	@
 1403              	.L118:
1394:FreeRTOS/queue.c **** 
1395:FreeRTOS/queue.c **** 	/* RTOS ports that support interrupt nesting have the concept of a maximum
1396:FreeRTOS/queue.c **** 	system call (or maximum API call) interrupt priority.  Interrupts that are
1397:FreeRTOS/queue.c **** 	above the maximum system call priority are kept permanently enabled, even
1398:FreeRTOS/queue.c **** 	when the RTOS kernel is in a critical section, but cannot make any calls to
1399:FreeRTOS/queue.c **** 	FreeRTOS API functions.  If configASSERT() is defined in FreeRTOSConfig.h
1400:FreeRTOS/queue.c **** 	then portASSERT_IF_INTERRUPT_PRIORITY_INVALID() will result in an assertion
1401:FreeRTOS/queue.c **** 	failure if a FreeRTOS API function is called from an interrupt that has been
1402:FreeRTOS/queue.c **** 	assigned a priority above the configured maximum system call priority.
1403:FreeRTOS/queue.c **** 	Only FreeRTOS functions that end in FromISR can be called from interrupts
1404:FreeRTOS/queue.c **** 	that have been assigned a priority at or (logically) below the maximum
1405:FreeRTOS/queue.c **** 	system call	interrupt priority.  FreeRTOS maintains a separate interrupt
1406:FreeRTOS/queue.c **** 	safe API to ensure interrupt entry is as fast and as simple as possible.
1407:FreeRTOS/queue.c **** 	More information (albeit Cortex-M specific) is provided on the following
1408:FreeRTOS/queue.c **** 	link: http://www.freertos.org/RTOS-Cortex-M3-M4.html */
1409:FreeRTOS/queue.c **** 	portASSERT_IF_INTERRUPT_PRIORITY_INVALID();
 1404              		.loc 1 1409 0 is_stmt 1
 1405 003a FFF7FEFF 		bl	vPortValidateInterruptPriority	@
1410:FreeRTOS/queue.c **** 
1411:FreeRTOS/queue.c **** 	uxSavedInterruptStatus = portSET_INTERRUPT_MASK_FROM_ISR();
 1406              		.loc 1 1411 0
 1407 003e FFF7FEFF 		bl	ulPortSetInterruptMask	@
 1408 0042 7861     		str	r0, [r7, #20]	@, uxSavedInterruptStatus
1412:FreeRTOS/queue.c **** 	{
1413:FreeRTOS/queue.c **** 		/* Cannot block in an ISR, so check there is data available. */
1414:FreeRTOS/queue.c **** 		if( pxQueue->uxMessagesWaiting > ( UBaseT_t ) 0 )
 1409              		.loc 1 1414 0
 1410 0044 BB69     		ldr	r3, [r7, #24]	@ tmp127, pxQueue
 1411 0046 9B6B     		ldr	r3, [r3, #56]	@ D.5978, pxQueue_4->uxMessagesWaiting
 1412 0048 002B     		cmp	r3, #0	@ D.5978,
 1413 004a 28D0     		beq	.L120	@,
1415:FreeRTOS/queue.c **** 		{
1416:FreeRTOS/queue.c **** 			traceQUEUE_RECEIVE_FROM_ISR( pxQueue );
1417:FreeRTOS/queue.c **** 
1418:FreeRTOS/queue.c **** 			prvCopyDataFromQueue( pxQueue, pvBuffer );
 1414              		.loc 1 1418 0
 1415 004c B869     		ldr	r0, [r7, #24]	@, pxQueue
 1416 004e B968     		ldr	r1, [r7, #8]	@, pvBuffer
 1417 0050 FFF7FEFF 		bl	prvCopyDataFromQueue	@
1419:FreeRTOS/queue.c **** 			--( pxQueue->uxMessagesWaiting );
 1418              		.loc 1 1419 0
 1419 0054 BB69     		ldr	r3, [r7, #24]	@ tmp128, pxQueue
 1420 0056 9B6B     		ldr	r3, [r3, #56]	@ D.5978, pxQueue_4->uxMessagesWaiting
 1421 0058 5A1E     		subs	r2, r3, #1	@ D.5978, D.5978,
 1422 005a BB69     		ldr	r3, [r7, #24]	@ tmp129, pxQueue
 1423 005c 9A63     		str	r2, [r3, #56]	@ D.5978, pxQueue_4->uxMessagesWaiting
1420:FreeRTOS/queue.c **** 
1421:FreeRTOS/queue.c **** 			/* If the queue is locked the event list will not be modified.
1422:FreeRTOS/queue.c **** 			Instead update the lock count so the task that unlocks the queue
1423:FreeRTOS/queue.c **** 			will know that an ISR has removed data while the queue was
1424:FreeRTOS/queue.c **** 			locked. */
1425:FreeRTOS/queue.c **** 			if( pxQueue->xRxLock == queueUNLOCKED )
 1424              		.loc 1 1425 0
 1425 005e BB69     		ldr	r3, [r7, #24]	@ tmp130, pxQueue
ARM GAS  C:\Users\COSMIN~1.MAR\AppData\Local\Temp\cc5hxLYL.s 			page 51


 1426 0060 5B6C     		ldr	r3, [r3, #68]	@ D.5979, pxQueue_4->xRxLock
 1427 0062 B3F1FF3F 		cmp	r3, #-1	@ D.5979,
 1428 0066 12D1     		bne	.L121	@,
1426:FreeRTOS/queue.c **** 			{
1427:FreeRTOS/queue.c **** 				if( listLIST_IS_EMPTY( &( pxQueue->xTasksWaitingToSend ) ) == pdFALSE )
 1429              		.loc 1 1427 0
 1430 0068 BB69     		ldr	r3, [r7, #24]	@ tmp131, pxQueue
 1431 006a 1B69     		ldr	r3, [r3, #16]	@ D.5978, pxQueue_4->xTasksWaitingToSend.uxNumberOfItems
 1432 006c 002B     		cmp	r3, #0	@ D.5978,
 1433 006e 13D0     		beq	.L122	@,
1428:FreeRTOS/queue.c **** 				{
1429:FreeRTOS/queue.c **** 					if( xTaskRemoveFromEventList( &( pxQueue->xTasksWaitingToSend ) ) != pdFALSE )
 1434              		.loc 1 1429 0
 1435 0070 BB69     		ldr	r3, [r7, #24]	@ tmp132, pxQueue
 1436 0072 1033     		adds	r3, r3, #16	@ D.5980, tmp132,
 1437 0074 1846     		mov	r0, r3	@, D.5980
 1438 0076 FFF7FEFF 		bl	xTaskRemoveFromEventList	@
 1439 007a 0346     		mov	r3, r0	@ D.5979,
 1440 007c 002B     		cmp	r3, #0	@ D.5979,
 1441 007e 0BD0     		beq	.L122	@,
1430:FreeRTOS/queue.c **** 					{
1431:FreeRTOS/queue.c **** 						/* The task waiting has a higher priority than us so
1432:FreeRTOS/queue.c **** 						force a context switch. */
1433:FreeRTOS/queue.c **** 						if( pxHigherPriorityTaskWoken != NULL )
 1442              		.loc 1 1433 0
 1443 0080 7B68     		ldr	r3, [r7, #4]	@ tmp133, pxHigherPriorityTaskWoken
 1444 0082 002B     		cmp	r3, #0	@ tmp133,
 1445 0084 08D0     		beq	.L122	@,
1434:FreeRTOS/queue.c **** 						{
1435:FreeRTOS/queue.c **** 							*pxHigherPriorityTaskWoken = pdTRUE;
 1446              		.loc 1 1435 0
 1447 0086 7B68     		ldr	r3, [r7, #4]	@ tmp134, pxHigherPriorityTaskWoken
 1448 0088 0122     		movs	r2, #1	@ tmp135,
 1449 008a 1A60     		str	r2, [r3]	@ tmp135, *pxHigherPriorityTaskWoken_17(D)
 1450 008c 04E0     		b	.L122	@
 1451              	.L121:
1436:FreeRTOS/queue.c **** 						}
1437:FreeRTOS/queue.c **** 						else
1438:FreeRTOS/queue.c **** 						{
1439:FreeRTOS/queue.c **** 							mtCOVERAGE_TEST_MARKER();
1440:FreeRTOS/queue.c **** 						}
1441:FreeRTOS/queue.c **** 					}
1442:FreeRTOS/queue.c **** 					else
1443:FreeRTOS/queue.c **** 					{
1444:FreeRTOS/queue.c **** 						mtCOVERAGE_TEST_MARKER();
1445:FreeRTOS/queue.c **** 					}
1446:FreeRTOS/queue.c **** 				}
1447:FreeRTOS/queue.c **** 				else
1448:FreeRTOS/queue.c **** 				{
1449:FreeRTOS/queue.c **** 					mtCOVERAGE_TEST_MARKER();
1450:FreeRTOS/queue.c **** 				}
1451:FreeRTOS/queue.c **** 			}
1452:FreeRTOS/queue.c **** 			else
1453:FreeRTOS/queue.c **** 			{
1454:FreeRTOS/queue.c **** 				/* Increment the lock count so the task that unlocks the queue
1455:FreeRTOS/queue.c **** 				knows that data was removed while it was locked. */
1456:FreeRTOS/queue.c **** 				++( pxQueue->xRxLock );
ARM GAS  C:\Users\COSMIN~1.MAR\AppData\Local\Temp\cc5hxLYL.s 			page 52


 1452              		.loc 1 1456 0
 1453 008e BB69     		ldr	r3, [r7, #24]	@ tmp136, pxQueue
 1454 0090 5B6C     		ldr	r3, [r3, #68]	@ D.5979, pxQueue_4->xRxLock
 1455 0092 5A1C     		adds	r2, r3, #1	@ D.5979, D.5979,
 1456 0094 BB69     		ldr	r3, [r7, #24]	@ tmp137, pxQueue
 1457 0096 5A64     		str	r2, [r3, #68]	@ D.5979, pxQueue_4->xRxLock
 1458              	.L122:
1457:FreeRTOS/queue.c **** 			}
1458:FreeRTOS/queue.c **** 
1459:FreeRTOS/queue.c **** 			xReturn = pdPASS;
 1459              		.loc 1 1459 0
 1460 0098 0123     		movs	r3, #1	@ tmp138,
 1461 009a FB61     		str	r3, [r7, #28]	@ tmp138, xReturn
 1462 009c 01E0     		b	.L123	@
 1463              	.L120:
1460:FreeRTOS/queue.c **** 		}
1461:FreeRTOS/queue.c **** 		else
1462:FreeRTOS/queue.c **** 		{
1463:FreeRTOS/queue.c **** 			xReturn = pdFAIL;
 1464              		.loc 1 1463 0
 1465 009e 0023     		movs	r3, #0	@ tmp139,
 1466 00a0 FB61     		str	r3, [r7, #28]	@ tmp139, xReturn
 1467              	.L123:
1464:FreeRTOS/queue.c **** 			traceQUEUE_RECEIVE_FROM_ISR_FAILED( pxQueue );
1465:FreeRTOS/queue.c **** 		}
1466:FreeRTOS/queue.c **** 	}
1467:FreeRTOS/queue.c **** 	portCLEAR_INTERRUPT_MASK_FROM_ISR( uxSavedInterruptStatus );
 1468              		.loc 1 1467 0
 1469 00a2 7869     		ldr	r0, [r7, #20]	@, uxSavedInterruptStatus
 1470 00a4 FFF7FEFF 		bl	vPortClearInterruptMask	@
1468:FreeRTOS/queue.c **** 
1469:FreeRTOS/queue.c **** 	return xReturn;
 1471              		.loc 1 1469 0
 1472 00a8 FB69     		ldr	r3, [r7, #28]	@ D.5981, xReturn
1470:FreeRTOS/queue.c **** }
 1473              		.loc 1 1470 0
 1474 00aa 1846     		mov	r0, r3	@, <retval>
 1475 00ac 2037     		adds	r7, r7, #32	@,,
 1476              		.cfi_def_cfa_offset 8
 1477 00ae BD46     		mov	sp, r7	@,
 1478              		.cfi_def_cfa_register 13
 1479              		@ sp needed	@
 1480 00b0 80BD     		pop	{r7, pc}	@
 1481              		.cfi_endproc
 1482              	.LFE10:
 1483              		.size	xQueueReceiveFromISR, .-xQueueReceiveFromISR
 1484 00b2 00BF     		.section	.text.xQueuePeekFromISR,"ax",%progbits
 1485              		.align	2
 1486              		.global	xQueuePeekFromISR
 1487              		.thumb
 1488              		.thumb_func
 1489              		.type	xQueuePeekFromISR, %function
 1490              	xQueuePeekFromISR:
 1491              	.LFB11:
1471:FreeRTOS/queue.c **** /*-----------------------------------------------------------*/
1472:FreeRTOS/queue.c **** 
1473:FreeRTOS/queue.c **** BaseT_t xQueuePeekFromISR( QueueHandle_t xQueue,  void * const pvBuffer )
ARM GAS  C:\Users\COSMIN~1.MAR\AppData\Local\Temp\cc5hxLYL.s 			page 53


1474:FreeRTOS/queue.c **** {
 1492              		.loc 1 1474 0
 1493              		.cfi_startproc
 1494              		@ args = 0, pretend = 0, frame = 24
 1495              		@ frame_needed = 1, uses_anonymous_args = 0
 1496 0000 80B5     		push	{r7, lr}	@
 1497              		.cfi_def_cfa_offset 8
 1498              		.cfi_offset 7, -8
 1499              		.cfi_offset 14, -4
 1500 0002 86B0     		sub	sp, sp, #24	@,,
 1501              		.cfi_def_cfa_offset 32
 1502 0004 00AF     		add	r7, sp, #0	@,,
 1503              		.cfi_def_cfa_register 7
 1504 0006 7860     		str	r0, [r7, #4]	@ xQueue, xQueue
 1505 0008 3960     		str	r1, [r7]	@ pvBuffer, pvBuffer
1475:FreeRTOS/queue.c **** BaseT_t xReturn;
1476:FreeRTOS/queue.c **** UBaseT_t uxSavedInterruptStatus;
1477:FreeRTOS/queue.c **** int8_t *pcOriginalReadPosition;
1478:FreeRTOS/queue.c **** Queue_t * const pxQueue = ( Queue_t * ) xQueue;
 1506              		.loc 1 1478 0
 1507 000a 7B68     		ldr	r3, [r7, #4]	@ tmp115, xQueue
 1508 000c 3B61     		str	r3, [r7, #16]	@ tmp115, pxQueue
1479:FreeRTOS/queue.c **** 
1480:FreeRTOS/queue.c **** 	configASSERT( pxQueue );
 1509              		.loc 1 1480 0
 1510 000e 3B69     		ldr	r3, [r7, #16]	@ tmp116, pxQueue
 1511 0010 002B     		cmp	r3, #0	@ tmp116,
 1512 0012 02D1     		bne	.L126	@,
 1513              		.loc 1 1480 0 is_stmt 0 discriminator 1
 1514 0014 FFF7FEFF 		bl	ulPortSetInterruptMask	@
 1515              	.L127:
 1516 0018 FEE7     		b	.L127	@
 1517              	.L126:
1481:FreeRTOS/queue.c **** 	configASSERT( !( ( pvBuffer == NULL ) && ( pxQueue->uxItemSize != ( UBaseT_t ) 0U ) ) );
 1518              		.loc 1 1481 0 is_stmt 1
 1519 001a 3B68     		ldr	r3, [r7]	@ tmp117, pvBuffer
 1520 001c 002B     		cmp	r3, #0	@ tmp117,
 1521 001e 03D1     		bne	.L128	@,
 1522              		.loc 1 1481 0 is_stmt 0 discriminator 2
 1523 0020 3B69     		ldr	r3, [r7, #16]	@ tmp118, pxQueue
 1524 0022 1B6C     		ldr	r3, [r3, #64]	@ D.5983, pxQueue_4->uxItemSize
 1525 0024 002B     		cmp	r3, #0	@ D.5983,
 1526 0026 01D1     		bne	.L129	@,
 1527              	.L128:
 1528              		.loc 1 1481 0 discriminator 3
 1529 0028 0123     		movs	r3, #1	@ D.5982,
 1530 002a 00E0     		b	.L130	@
 1531              	.L129:
 1532              		.loc 1 1481 0 discriminator 4
 1533 002c 0023     		movs	r3, #0	@ D.5982,
 1534              	.L130:
 1535              		.loc 1 1481 0 discriminator 6
 1536 002e 002B     		cmp	r3, #0	@ D.5982,
 1537 0030 02D1     		bne	.L131	@,
 1538              		.loc 1 1481 0 discriminator 7
 1539 0032 FFF7FEFF 		bl	ulPortSetInterruptMask	@
 1540              	.L132:
ARM GAS  C:\Users\COSMIN~1.MAR\AppData\Local\Temp\cc5hxLYL.s 			page 54


 1541              		.loc 1 1481 0 discriminator 2
 1542 0036 FEE7     		b	.L132	@
 1543              	.L131:
1482:FreeRTOS/queue.c **** 
1483:FreeRTOS/queue.c **** 	/* RTOS ports that support interrupt nesting have the concept of a maximum
1484:FreeRTOS/queue.c **** 	system call (or maximum API call) interrupt priority.  Interrupts that are
1485:FreeRTOS/queue.c **** 	above the maximum system call priority are kept permanently enabled, even
1486:FreeRTOS/queue.c **** 	when the RTOS kernel is in a critical section, but cannot make any calls to
1487:FreeRTOS/queue.c **** 	FreeRTOS API functions.  If configASSERT() is defined in FreeRTOSConfig.h
1488:FreeRTOS/queue.c **** 	then portASSERT_IF_INTERRUPT_PRIORITY_INVALID() will result in an assertion
1489:FreeRTOS/queue.c **** 	failure if a FreeRTOS API function is called from an interrupt that has been
1490:FreeRTOS/queue.c **** 	assigned a priority above the configured maximum system call priority.
1491:FreeRTOS/queue.c **** 	Only FreeRTOS functions that end in FromISR can be called from interrupts
1492:FreeRTOS/queue.c **** 	that have been assigned a priority at or (logically) below the maximum
1493:FreeRTOS/queue.c **** 	system call	interrupt priority.  FreeRTOS maintains a separate interrupt
1494:FreeRTOS/queue.c **** 	safe API to ensure interrupt entry is as fast and as simple as possible.
1495:FreeRTOS/queue.c **** 	More information (albeit Cortex-M specific) is provided on the following
1496:FreeRTOS/queue.c **** 	link: http://www.freertos.org/RTOS-Cortex-M3-M4.html */
1497:FreeRTOS/queue.c **** 	portASSERT_IF_INTERRUPT_PRIORITY_INVALID();
 1544              		.loc 1 1497 0 is_stmt 1
 1545 0038 FFF7FEFF 		bl	vPortValidateInterruptPriority	@
1498:FreeRTOS/queue.c **** 
1499:FreeRTOS/queue.c **** 	uxSavedInterruptStatus = portSET_INTERRUPT_MASK_FROM_ISR();
 1546              		.loc 1 1499 0
 1547 003c FFF7FEFF 		bl	ulPortSetInterruptMask	@
 1548 0040 F860     		str	r0, [r7, #12]	@, uxSavedInterruptStatus
1500:FreeRTOS/queue.c **** 	{
1501:FreeRTOS/queue.c **** 		/* Cannot block in an ISR, so check there is data available. */
1502:FreeRTOS/queue.c **** 		if( pxQueue->uxMessagesWaiting > ( UBaseT_t ) 0 )
 1549              		.loc 1 1502 0
 1550 0042 3B69     		ldr	r3, [r7, #16]	@ tmp119, pxQueue
 1551 0044 9B6B     		ldr	r3, [r3, #56]	@ D.5983, pxQueue_4->uxMessagesWaiting
 1552 0046 002B     		cmp	r3, #0	@ D.5983,
 1553 0048 0CD0     		beq	.L133	@,
1503:FreeRTOS/queue.c **** 		{
1504:FreeRTOS/queue.c **** 			traceQUEUE_PEEK_FROM_ISR( pxQueue );
1505:FreeRTOS/queue.c **** 
1506:FreeRTOS/queue.c **** 			/* Remember the read position so it can be reset as nothing is
1507:FreeRTOS/queue.c **** 			actually being removed from the queue. */
1508:FreeRTOS/queue.c **** 			pcOriginalReadPosition = pxQueue->u.pcReadFrom;
 1554              		.loc 1 1508 0
 1555 004a 3B69     		ldr	r3, [r7, #16]	@ tmp120, pxQueue
 1556 004c DB68     		ldr	r3, [r3, #12]	@ tmp121, pxQueue_4->u.pcReadFrom
 1557 004e BB60     		str	r3, [r7, #8]	@ tmp121, pcOriginalReadPosition
1509:FreeRTOS/queue.c **** 			prvCopyDataFromQueue( pxQueue, pvBuffer );
 1558              		.loc 1 1509 0
 1559 0050 3869     		ldr	r0, [r7, #16]	@, pxQueue
 1560 0052 3968     		ldr	r1, [r7]	@, pvBuffer
 1561 0054 FFF7FEFF 		bl	prvCopyDataFromQueue	@
1510:FreeRTOS/queue.c **** 			pxQueue->u.pcReadFrom = pcOriginalReadPosition;
 1562              		.loc 1 1510 0
 1563 0058 3B69     		ldr	r3, [r7, #16]	@ tmp122, pxQueue
 1564 005a BA68     		ldr	r2, [r7, #8]	@ tmp123, pcOriginalReadPosition
 1565 005c DA60     		str	r2, [r3, #12]	@ tmp123, pxQueue_4->u.pcReadFrom
1511:FreeRTOS/queue.c **** 
1512:FreeRTOS/queue.c **** 			xReturn = pdPASS;
 1566              		.loc 1 1512 0
ARM GAS  C:\Users\COSMIN~1.MAR\AppData\Local\Temp\cc5hxLYL.s 			page 55


 1567 005e 0123     		movs	r3, #1	@ tmp124,
 1568 0060 7B61     		str	r3, [r7, #20]	@ tmp124, xReturn
 1569 0062 01E0     		b	.L134	@
 1570              	.L133:
1513:FreeRTOS/queue.c **** 		}
1514:FreeRTOS/queue.c **** 		else
1515:FreeRTOS/queue.c **** 		{
1516:FreeRTOS/queue.c **** 			xReturn = pdFAIL;
 1571              		.loc 1 1516 0
 1572 0064 0023     		movs	r3, #0	@ tmp125,
 1573 0066 7B61     		str	r3, [r7, #20]	@ tmp125, xReturn
 1574              	.L134:
1517:FreeRTOS/queue.c **** 			traceQUEUE_PEEK_FROM_ISR_FAILED( pxQueue );
1518:FreeRTOS/queue.c **** 		}
1519:FreeRTOS/queue.c **** 	}
1520:FreeRTOS/queue.c **** 	portCLEAR_INTERRUPT_MASK_FROM_ISR( uxSavedInterruptStatus );
 1575              		.loc 1 1520 0
 1576 0068 F868     		ldr	r0, [r7, #12]	@, uxSavedInterruptStatus
 1577 006a FFF7FEFF 		bl	vPortClearInterruptMask	@
1521:FreeRTOS/queue.c **** 
1522:FreeRTOS/queue.c **** 	return xReturn;
 1578              		.loc 1 1522 0
 1579 006e 7B69     		ldr	r3, [r7, #20]	@ D.5984, xReturn
1523:FreeRTOS/queue.c **** }
 1580              		.loc 1 1523 0
 1581 0070 1846     		mov	r0, r3	@, <retval>
 1582 0072 1837     		adds	r7, r7, #24	@,,
 1583              		.cfi_def_cfa_offset 8
 1584 0074 BD46     		mov	sp, r7	@,
 1585              		.cfi_def_cfa_register 13
 1586              		@ sp needed	@
 1587 0076 80BD     		pop	{r7, pc}	@
 1588              		.cfi_endproc
 1589              	.LFE11:
 1590              		.size	xQueuePeekFromISR, .-xQueuePeekFromISR
 1591              		.section	.text.uxQueueMessagesWaiting,"ax",%progbits
 1592              		.align	2
 1593              		.global	uxQueueMessagesWaiting
 1594              		.thumb
 1595              		.thumb_func
 1596              		.type	uxQueueMessagesWaiting, %function
 1597              	uxQueueMessagesWaiting:
 1598              	.LFB12:
1524:FreeRTOS/queue.c **** /*-----------------------------------------------------------*/
1525:FreeRTOS/queue.c **** 
1526:FreeRTOS/queue.c **** UBaseT_t uxQueueMessagesWaiting( const QueueHandle_t xQueue )
1527:FreeRTOS/queue.c **** {
 1599              		.loc 1 1527 0
 1600              		.cfi_startproc
 1601              		@ args = 0, pretend = 0, frame = 16
 1602              		@ frame_needed = 1, uses_anonymous_args = 0
 1603 0000 80B5     		push	{r7, lr}	@
 1604              		.cfi_def_cfa_offset 8
 1605              		.cfi_offset 7, -8
 1606              		.cfi_offset 14, -4
 1607 0002 84B0     		sub	sp, sp, #16	@,,
 1608              		.cfi_def_cfa_offset 24
ARM GAS  C:\Users\COSMIN~1.MAR\AppData\Local\Temp\cc5hxLYL.s 			page 56


 1609 0004 00AF     		add	r7, sp, #0	@,,
 1610              		.cfi_def_cfa_register 7
 1611 0006 7860     		str	r0, [r7, #4]	@ xQueue, xQueue
1528:FreeRTOS/queue.c **** UBaseT_t uxReturn;
1529:FreeRTOS/queue.c **** 
1530:FreeRTOS/queue.c **** 	configASSERT( xQueue );
 1612              		.loc 1 1530 0
 1613 0008 7B68     		ldr	r3, [r7, #4]	@ tmp112, xQueue
 1614 000a 002B     		cmp	r3, #0	@ tmp112,
 1615 000c 02D1     		bne	.L137	@,
 1616              		.loc 1 1530 0 is_stmt 0 discriminator 1
 1617 000e FFF7FEFF 		bl	ulPortSetInterruptMask	@
 1618              	.L138:
 1619 0012 FEE7     		b	.L138	@
 1620              	.L137:
1531:FreeRTOS/queue.c **** 
1532:FreeRTOS/queue.c **** 	taskENTER_CRITICAL();
 1621              		.loc 1 1532 0 is_stmt 1
 1622 0014 FFF7FEFF 		bl	vPortEnterCritical	@
1533:FreeRTOS/queue.c **** 	{
1534:FreeRTOS/queue.c **** 		uxReturn = ( ( Queue_t * ) xQueue )->uxMessagesWaiting;
 1623              		.loc 1 1534 0
 1624 0018 7B68     		ldr	r3, [r7, #4]	@ tmp113, xQueue
 1625 001a 9B6B     		ldr	r3, [r3, #56]	@ tmp114, MEM[(struct Queue_t *)xQueue_1(D)].uxMessagesWaiting
 1626 001c FB60     		str	r3, [r7, #12]	@ tmp114, uxReturn
1535:FreeRTOS/queue.c **** 	}
1536:FreeRTOS/queue.c **** 	taskEXIT_CRITICAL();
 1627              		.loc 1 1536 0
 1628 001e FFF7FEFF 		bl	vPortExitCritical	@
1537:FreeRTOS/queue.c **** 
1538:FreeRTOS/queue.c **** 	return uxReturn;
 1629              		.loc 1 1538 0
 1630 0022 FB68     		ldr	r3, [r7, #12]	@ D.5985, uxReturn
1539:FreeRTOS/queue.c **** } /*lint !e818 Pointer cannot be declared const as xQueue is a typedef not pointer. */
 1631              		.loc 1 1539 0
 1632 0024 1846     		mov	r0, r3	@, <retval>
 1633 0026 1037     		adds	r7, r7, #16	@,,
 1634              		.cfi_def_cfa_offset 8
 1635 0028 BD46     		mov	sp, r7	@,
 1636              		.cfi_def_cfa_register 13
 1637              		@ sp needed	@
 1638 002a 80BD     		pop	{r7, pc}	@
 1639              		.cfi_endproc
 1640              	.LFE12:
 1641              		.size	uxQueueMessagesWaiting, .-uxQueueMessagesWaiting
 1642              		.section	.text.uxQueueSpacesAvailable,"ax",%progbits
 1643              		.align	2
 1644              		.global	uxQueueSpacesAvailable
 1645              		.thumb
 1646              		.thumb_func
 1647              		.type	uxQueueSpacesAvailable, %function
 1648              	uxQueueSpacesAvailable:
 1649              	.LFB13:
1540:FreeRTOS/queue.c **** /*-----------------------------------------------------------*/
1541:FreeRTOS/queue.c **** 
1542:FreeRTOS/queue.c **** UBaseT_t uxQueueSpacesAvailable( const QueueHandle_t xQueue )
1543:FreeRTOS/queue.c **** {
ARM GAS  C:\Users\COSMIN~1.MAR\AppData\Local\Temp\cc5hxLYL.s 			page 57


 1650              		.loc 1 1543 0
 1651              		.cfi_startproc
 1652              		@ args = 0, pretend = 0, frame = 16
 1653              		@ frame_needed = 1, uses_anonymous_args = 0
 1654 0000 80B5     		push	{r7, lr}	@
 1655              		.cfi_def_cfa_offset 8
 1656              		.cfi_offset 7, -8
 1657              		.cfi_offset 14, -4
 1658 0002 84B0     		sub	sp, sp, #16	@,,
 1659              		.cfi_def_cfa_offset 24
 1660 0004 00AF     		add	r7, sp, #0	@,,
 1661              		.cfi_def_cfa_register 7
 1662 0006 7860     		str	r0, [r7, #4]	@ xQueue, xQueue
1544:FreeRTOS/queue.c **** UBaseT_t uxReturn;
1545:FreeRTOS/queue.c **** Queue_t *pxQueue;
1546:FreeRTOS/queue.c **** 
1547:FreeRTOS/queue.c **** 	pxQueue = ( Queue_t * ) xQueue;
 1663              		.loc 1 1547 0
 1664 0008 7B68     		ldr	r3, [r7, #4]	@ tmp114, xQueue
 1665 000a FB60     		str	r3, [r7, #12]	@ tmp114, pxQueue
1548:FreeRTOS/queue.c **** 	configASSERT( pxQueue );
 1666              		.loc 1 1548 0
 1667 000c FB68     		ldr	r3, [r7, #12]	@ tmp115, pxQueue
 1668 000e 002B     		cmp	r3, #0	@ tmp115,
 1669 0010 02D1     		bne	.L141	@,
 1670              		.loc 1 1548 0 is_stmt 0 discriminator 1
 1671 0012 FFF7FEFF 		bl	ulPortSetInterruptMask	@
 1672              	.L142:
 1673 0016 FEE7     		b	.L142	@
 1674              	.L141:
1549:FreeRTOS/queue.c **** 
1550:FreeRTOS/queue.c **** 	taskENTER_CRITICAL();
 1675              		.loc 1 1550 0 is_stmt 1
 1676 0018 FFF7FEFF 		bl	vPortEnterCritical	@
1551:FreeRTOS/queue.c **** 	{
1552:FreeRTOS/queue.c **** 		uxReturn = pxQueue->uxLength - pxQueue->uxMessagesWaiting;
 1677              		.loc 1 1552 0
 1678 001c FB68     		ldr	r3, [r7, #12]	@ tmp116, pxQueue
 1679 001e DA6B     		ldr	r2, [r3, #60]	@ D.5986, pxQueue_2->uxLength
 1680 0020 FB68     		ldr	r3, [r7, #12]	@ tmp117, pxQueue
 1681 0022 9B6B     		ldr	r3, [r3, #56]	@ D.5986, pxQueue_2->uxMessagesWaiting
 1682 0024 D31A     		subs	r3, r2, r3	@ tmp118, D.5986, D.5986
 1683 0026 BB60     		str	r3, [r7, #8]	@ tmp118, uxReturn
1553:FreeRTOS/queue.c **** 	}
1554:FreeRTOS/queue.c **** 	taskEXIT_CRITICAL();
 1684              		.loc 1 1554 0
 1685 0028 FFF7FEFF 		bl	vPortExitCritical	@
1555:FreeRTOS/queue.c **** 
1556:FreeRTOS/queue.c **** 	return uxReturn;
 1686              		.loc 1 1556 0
 1687 002c BB68     		ldr	r3, [r7, #8]	@ D.5987, uxReturn
1557:FreeRTOS/queue.c **** } /*lint !e818 Pointer cannot be declared const as xQueue is a typedef not pointer. */
 1688              		.loc 1 1557 0
 1689 002e 1846     		mov	r0, r3	@, <retval>
 1690 0030 1037     		adds	r7, r7, #16	@,,
 1691              		.cfi_def_cfa_offset 8
 1692 0032 BD46     		mov	sp, r7	@,
ARM GAS  C:\Users\COSMIN~1.MAR\AppData\Local\Temp\cc5hxLYL.s 			page 58


 1693              		.cfi_def_cfa_register 13
 1694              		@ sp needed	@
 1695 0034 80BD     		pop	{r7, pc}	@
 1696              		.cfi_endproc
 1697              	.LFE13:
 1698              		.size	uxQueueSpacesAvailable, .-uxQueueSpacesAvailable
 1699 0036 00BF     		.section	.text.uxQueueMessagesWaitingFromISR,"ax",%progbits
 1700              		.align	2
 1701              		.global	uxQueueMessagesWaitingFromISR
 1702              		.thumb
 1703              		.thumb_func
 1704              		.type	uxQueueMessagesWaitingFromISR, %function
 1705              	uxQueueMessagesWaitingFromISR:
 1706              	.LFB14:
1558:FreeRTOS/queue.c **** /*-----------------------------------------------------------*/
1559:FreeRTOS/queue.c **** 
1560:FreeRTOS/queue.c **** UBaseT_t uxQueueMessagesWaitingFromISR( const QueueHandle_t xQueue )
1561:FreeRTOS/queue.c **** {
 1707              		.loc 1 1561 0
 1708              		.cfi_startproc
 1709              		@ args = 0, pretend = 0, frame = 16
 1710              		@ frame_needed = 1, uses_anonymous_args = 0
 1711 0000 80B5     		push	{r7, lr}	@
 1712              		.cfi_def_cfa_offset 8
 1713              		.cfi_offset 7, -8
 1714              		.cfi_offset 14, -4
 1715 0002 84B0     		sub	sp, sp, #16	@,,
 1716              		.cfi_def_cfa_offset 24
 1717 0004 00AF     		add	r7, sp, #0	@,,
 1718              		.cfi_def_cfa_register 7
 1719 0006 7860     		str	r0, [r7, #4]	@ xQueue, xQueue
1562:FreeRTOS/queue.c **** UBaseT_t uxReturn;
1563:FreeRTOS/queue.c **** 
1564:FreeRTOS/queue.c **** 	configASSERT( xQueue );
 1720              		.loc 1 1564 0
 1721 0008 7B68     		ldr	r3, [r7, #4]	@ tmp112, xQueue
 1722 000a 002B     		cmp	r3, #0	@ tmp112,
 1723 000c 02D1     		bne	.L145	@,
 1724              		.loc 1 1564 0 is_stmt 0 discriminator 1
 1725 000e FFF7FEFF 		bl	ulPortSetInterruptMask	@
 1726              	.L146:
 1727 0012 FEE7     		b	.L146	@
 1728              	.L145:
1565:FreeRTOS/queue.c **** 
1566:FreeRTOS/queue.c **** 	uxReturn = ( ( Queue_t * ) xQueue )->uxMessagesWaiting;
 1729              		.loc 1 1566 0 is_stmt 1
 1730 0014 7B68     		ldr	r3, [r7, #4]	@ tmp113, xQueue
 1731 0016 9B6B     		ldr	r3, [r3, #56]	@ tmp114, MEM[(struct Queue_t *)xQueue_1(D)].uxMessagesWaiting
 1732 0018 FB60     		str	r3, [r7, #12]	@ tmp114, uxReturn
1567:FreeRTOS/queue.c **** 
1568:FreeRTOS/queue.c **** 	return uxReturn;
 1733              		.loc 1 1568 0
 1734 001a FB68     		ldr	r3, [r7, #12]	@ D.5988, uxReturn
1569:FreeRTOS/queue.c **** } /*lint !e818 Pointer cannot be declared const as xQueue is a typedef not pointer. */
 1735              		.loc 1 1569 0
 1736 001c 1846     		mov	r0, r3	@, <retval>
 1737 001e 1037     		adds	r7, r7, #16	@,,
ARM GAS  C:\Users\COSMIN~1.MAR\AppData\Local\Temp\cc5hxLYL.s 			page 59


 1738              		.cfi_def_cfa_offset 8
 1739 0020 BD46     		mov	sp, r7	@,
 1740              		.cfi_def_cfa_register 13
 1741              		@ sp needed	@
 1742 0022 80BD     		pop	{r7, pc}	@
 1743              		.cfi_endproc
 1744              	.LFE14:
 1745              		.size	uxQueueMessagesWaitingFromISR, .-uxQueueMessagesWaitingFromISR
 1746              		.section	.text.vQueueDelete,"ax",%progbits
 1747              		.align	2
 1748              		.global	vQueueDelete
 1749              		.thumb
 1750              		.thumb_func
 1751              		.type	vQueueDelete, %function
 1752              	vQueueDelete:
 1753              	.LFB15:
1570:FreeRTOS/queue.c **** /*-----------------------------------------------------------*/
1571:FreeRTOS/queue.c **** 
1572:FreeRTOS/queue.c **** void vQueueDelete( QueueHandle_t xQueue )
1573:FreeRTOS/queue.c **** {
 1754              		.loc 1 1573 0
 1755              		.cfi_startproc
 1756              		@ args = 0, pretend = 0, frame = 16
 1757              		@ frame_needed = 1, uses_anonymous_args = 0
 1758 0000 80B5     		push	{r7, lr}	@
 1759              		.cfi_def_cfa_offset 8
 1760              		.cfi_offset 7, -8
 1761              		.cfi_offset 14, -4
 1762 0002 84B0     		sub	sp, sp, #16	@,,
 1763              		.cfi_def_cfa_offset 24
 1764 0004 00AF     		add	r7, sp, #0	@,,
 1765              		.cfi_def_cfa_register 7
 1766 0006 7860     		str	r0, [r7, #4]	@ xQueue, xQueue
1574:FreeRTOS/queue.c **** Queue_t * const pxQueue = ( Queue_t * ) xQueue;
 1767              		.loc 1 1574 0
 1768 0008 7B68     		ldr	r3, [r7, #4]	@ tmp112, xQueue
 1769 000a FB60     		str	r3, [r7, #12]	@ tmp112, pxQueue
1575:FreeRTOS/queue.c **** 
1576:FreeRTOS/queue.c **** 	configASSERT( pxQueue );
 1770              		.loc 1 1576 0
 1771 000c FB68     		ldr	r3, [r7, #12]	@ tmp113, pxQueue
 1772 000e 002B     		cmp	r3, #0	@ tmp113,
 1773 0010 02D1     		bne	.L149	@,
 1774              		.loc 1 1576 0 is_stmt 0 discriminator 1
 1775 0012 FFF7FEFF 		bl	ulPortSetInterruptMask	@
 1776              	.L150:
 1777 0016 FEE7     		b	.L150	@
 1778              	.L149:
1577:FreeRTOS/queue.c **** 
1578:FreeRTOS/queue.c **** 	traceQUEUE_DELETE( pxQueue );
1579:FreeRTOS/queue.c **** 	#if ( configQUEUE_REGISTRY_SIZE > 0 )
1580:FreeRTOS/queue.c **** 	{
1581:FreeRTOS/queue.c **** 		vQueueUnregisterQueue( pxQueue );
 1779              		.loc 1 1581 0 is_stmt 1
 1780 0018 F868     		ldr	r0, [r7, #12]	@, pxQueue
 1781 001a FFF7FEFF 		bl	vQueueUnregisterQueue	@
1582:FreeRTOS/queue.c **** 	}
ARM GAS  C:\Users\COSMIN~1.MAR\AppData\Local\Temp\cc5hxLYL.s 			page 60


1583:FreeRTOS/queue.c **** 	#endif
1584:FreeRTOS/queue.c **** 	if( pxQueue->pcHead != NULL )
 1782              		.loc 1 1584 0
 1783 001e FB68     		ldr	r3, [r7, #12]	@ tmp114, pxQueue
 1784 0020 1B68     		ldr	r3, [r3]	@ D.5989, pxQueue_2->pcHead
 1785 0022 002B     		cmp	r3, #0	@ D.5989,
 1786 0024 04D0     		beq	.L151	@,
1585:FreeRTOS/queue.c **** 	{
1586:FreeRTOS/queue.c **** 		vPortFree( pxQueue->pcHead );
 1787              		.loc 1 1586 0
 1788 0026 FB68     		ldr	r3, [r7, #12]	@ tmp115, pxQueue
 1789 0028 1B68     		ldr	r3, [r3]	@ D.5989, pxQueue_2->pcHead
 1790 002a 1846     		mov	r0, r3	@, D.5989
 1791 002c FFF7FEFF 		bl	vPortFree	@
 1792              	.L151:
1587:FreeRTOS/queue.c **** 	}
1588:FreeRTOS/queue.c **** 	vPortFree( pxQueue );
 1793              		.loc 1 1588 0
 1794 0030 F868     		ldr	r0, [r7, #12]	@, pxQueue
 1795 0032 FFF7FEFF 		bl	vPortFree	@
1589:FreeRTOS/queue.c **** }
 1796              		.loc 1 1589 0
 1797 0036 1037     		adds	r7, r7, #16	@,,
 1798              		.cfi_def_cfa_offset 8
 1799 0038 BD46     		mov	sp, r7	@,
 1800              		.cfi_def_cfa_register 13
 1801              		@ sp needed	@
 1802 003a 80BD     		pop	{r7, pc}	@
 1803              		.cfi_endproc
 1804              	.LFE15:
 1805              		.size	vQueueDelete, .-vQueueDelete
 1806              		.section	.text.uxQueueGetQueueNumber,"ax",%progbits
 1807              		.align	2
 1808              		.global	uxQueueGetQueueNumber
 1809              		.thumb
 1810              		.thumb_func
 1811              		.type	uxQueueGetQueueNumber, %function
 1812              	uxQueueGetQueueNumber:
 1813              	.LFB16:
1590:FreeRTOS/queue.c **** /*-----------------------------------------------------------*/
1591:FreeRTOS/queue.c **** 
1592:FreeRTOS/queue.c **** #if ( configUSE_TRACE_FACILITY == 1 )
1593:FreeRTOS/queue.c **** 
1594:FreeRTOS/queue.c **** 	UBaseT_t uxQueueGetQueueNumber( QueueHandle_t xQueue )
1595:FreeRTOS/queue.c **** 	{
 1814              		.loc 1 1595 0
 1815              		.cfi_startproc
 1816              		@ args = 0, pretend = 0, frame = 8
 1817              		@ frame_needed = 1, uses_anonymous_args = 0
 1818              		@ link register save eliminated.
 1819 0000 80B4     		push	{r7}	@
 1820              		.cfi_def_cfa_offset 4
 1821              		.cfi_offset 7, -4
 1822 0002 83B0     		sub	sp, sp, #12	@,,
 1823              		.cfi_def_cfa_offset 16
 1824 0004 00AF     		add	r7, sp, #0	@,,
 1825              		.cfi_def_cfa_register 7
ARM GAS  C:\Users\COSMIN~1.MAR\AppData\Local\Temp\cc5hxLYL.s 			page 61


 1826 0006 7860     		str	r0, [r7, #4]	@ xQueue, xQueue
1596:FreeRTOS/queue.c **** 		return ( ( Queue_t * ) xQueue )->uxQueueNumber;
 1827              		.loc 1 1596 0
 1828 0008 7B68     		ldr	r3, [r7, #4]	@ tmp112, xQueue
 1829 000a DB6C     		ldr	r3, [r3, #76]	@ D.5990, MEM[(struct Queue_t *)xQueue_1(D)].uxQueueNumber
1597:FreeRTOS/queue.c **** 	}
 1830              		.loc 1 1597 0
 1831 000c 1846     		mov	r0, r3	@, <retval>
 1832 000e 0C37     		adds	r7, r7, #12	@,,
 1833              		.cfi_def_cfa_offset 4
 1834 0010 BD46     		mov	sp, r7	@,
 1835              		.cfi_def_cfa_register 13
 1836              		@ sp needed	@
 1837 0012 5DF8047B 		ldr	r7, [sp], #4	@,
 1838              		.cfi_restore 7
 1839              		.cfi_def_cfa_offset 0
 1840 0016 7047     		bx	lr	@
 1841              		.cfi_endproc
 1842              	.LFE16:
 1843              		.size	uxQueueGetQueueNumber, .-uxQueueGetQueueNumber
 1844              		.section	.text.vQueueSetQueueNumber,"ax",%progbits
 1845              		.align	2
 1846              		.global	vQueueSetQueueNumber
 1847              		.thumb
 1848              		.thumb_func
 1849              		.type	vQueueSetQueueNumber, %function
 1850              	vQueueSetQueueNumber:
 1851              	.LFB17:
1598:FreeRTOS/queue.c **** 
1599:FreeRTOS/queue.c **** #endif /* configUSE_TRACE_FACILITY */
1600:FreeRTOS/queue.c **** /*-----------------------------------------------------------*/
1601:FreeRTOS/queue.c **** 
1602:FreeRTOS/queue.c **** #if ( configUSE_TRACE_FACILITY == 1 )
1603:FreeRTOS/queue.c **** 
1604:FreeRTOS/queue.c **** 	void vQueueSetQueueNumber( QueueHandle_t xQueue, UBaseT_t uxQueueNumber )
1605:FreeRTOS/queue.c **** 	{
 1852              		.loc 1 1605 0
 1853              		.cfi_startproc
 1854              		@ args = 0, pretend = 0, frame = 8
 1855              		@ frame_needed = 1, uses_anonymous_args = 0
 1856              		@ link register save eliminated.
 1857 0000 80B4     		push	{r7}	@
 1858              		.cfi_def_cfa_offset 4
 1859              		.cfi_offset 7, -4
 1860 0002 83B0     		sub	sp, sp, #12	@,,
 1861              		.cfi_def_cfa_offset 16
 1862 0004 00AF     		add	r7, sp, #0	@,,
 1863              		.cfi_def_cfa_register 7
 1864 0006 7860     		str	r0, [r7, #4]	@ xQueue, xQueue
 1865 0008 3960     		str	r1, [r7]	@ uxQueueNumber, uxQueueNumber
1606:FreeRTOS/queue.c **** 		( ( Queue_t * ) xQueue )->uxQueueNumber = uxQueueNumber;
 1866              		.loc 1 1606 0
 1867 000a 7B68     		ldr	r3, [r7, #4]	@ tmp110, xQueue
 1868 000c 3A68     		ldr	r2, [r7]	@ tmp111, uxQueueNumber
 1869 000e DA64     		str	r2, [r3, #76]	@ tmp111, MEM[(struct Queue_t *)xQueue_1(D)].uxQueueNumber
1607:FreeRTOS/queue.c **** 	}
 1870              		.loc 1 1607 0
ARM GAS  C:\Users\COSMIN~1.MAR\AppData\Local\Temp\cc5hxLYL.s 			page 62


 1871 0010 0C37     		adds	r7, r7, #12	@,,
 1872              		.cfi_def_cfa_offset 4
 1873 0012 BD46     		mov	sp, r7	@,
 1874              		.cfi_def_cfa_register 13
 1875              		@ sp needed	@
 1876 0014 5DF8047B 		ldr	r7, [sp], #4	@,
 1877              		.cfi_restore 7
 1878              		.cfi_def_cfa_offset 0
 1879 0018 7047     		bx	lr	@
 1880              		.cfi_endproc
 1881              	.LFE17:
 1882              		.size	vQueueSetQueueNumber, .-vQueueSetQueueNumber
 1883 001a 00BF     		.section	.text.ucQueueGetQueueType,"ax",%progbits
 1884              		.align	2
 1885              		.global	ucQueueGetQueueType
 1886              		.thumb
 1887              		.thumb_func
 1888              		.type	ucQueueGetQueueType, %function
 1889              	ucQueueGetQueueType:
 1890              	.LFB18:
1608:FreeRTOS/queue.c **** 
1609:FreeRTOS/queue.c **** #endif /* configUSE_TRACE_FACILITY */
1610:FreeRTOS/queue.c **** /*-----------------------------------------------------------*/
1611:FreeRTOS/queue.c **** 
1612:FreeRTOS/queue.c **** #if ( configUSE_TRACE_FACILITY == 1 )
1613:FreeRTOS/queue.c **** 
1614:FreeRTOS/queue.c **** 	uint8_t ucQueueGetQueueType( QueueHandle_t xQueue )
1615:FreeRTOS/queue.c **** 	{
 1891              		.loc 1 1615 0
 1892              		.cfi_startproc
 1893              		@ args = 0, pretend = 0, frame = 8
 1894              		@ frame_needed = 1, uses_anonymous_args = 0
 1895              		@ link register save eliminated.
 1896 0000 80B4     		push	{r7}	@
 1897              		.cfi_def_cfa_offset 4
 1898              		.cfi_offset 7, -4
 1899 0002 83B0     		sub	sp, sp, #12	@,,
 1900              		.cfi_def_cfa_offset 16
 1901 0004 00AF     		add	r7, sp, #0	@,,
 1902              		.cfi_def_cfa_register 7
 1903 0006 7860     		str	r0, [r7, #4]	@ xQueue, xQueue
1616:FreeRTOS/queue.c **** 		return ( ( Queue_t * ) xQueue )->ucQueueType;
 1904              		.loc 1 1616 0
 1905 0008 7B68     		ldr	r3, [r7, #4]	@ tmp112, xQueue
 1906 000a 93F85030 		ldrb	r3, [r3, #80]	@ zero_extendqisi2	@ D.5991, MEM[(struct Queue_t *)xQueue_1(D)].ucQueueType
1617:FreeRTOS/queue.c **** 	}
 1907              		.loc 1 1617 0
 1908 000e 1846     		mov	r0, r3	@, <retval>
 1909 0010 0C37     		adds	r7, r7, #12	@,,
 1910              		.cfi_def_cfa_offset 4
 1911 0012 BD46     		mov	sp, r7	@,
 1912              		.cfi_def_cfa_register 13
 1913              		@ sp needed	@
 1914 0014 5DF8047B 		ldr	r7, [sp], #4	@,
 1915              		.cfi_restore 7
 1916              		.cfi_def_cfa_offset 0
 1917 0018 7047     		bx	lr	@
ARM GAS  C:\Users\COSMIN~1.MAR\AppData\Local\Temp\cc5hxLYL.s 			page 63


 1918              		.cfi_endproc
 1919              	.LFE18:
 1920              		.size	ucQueueGetQueueType, .-ucQueueGetQueueType
 1921 001a 00BF     		.section	.text.prvCopyDataToQueue,"ax",%progbits
 1922              		.align	2
 1923              		.thumb
 1924              		.thumb_func
 1925              		.type	prvCopyDataToQueue, %function
 1926              	prvCopyDataToQueue:
 1927              	.LFB19:
1618:FreeRTOS/queue.c **** 
1619:FreeRTOS/queue.c **** #endif /* configUSE_TRACE_FACILITY */
1620:FreeRTOS/queue.c **** /*-----------------------------------------------------------*/
1621:FreeRTOS/queue.c **** 
1622:FreeRTOS/queue.c **** static BaseT_t prvCopyDataToQueue( Queue_t * const pxQueue, const void *pvItemToQueue, const BaseT_
1623:FreeRTOS/queue.c **** {
 1928              		.loc 1 1623 0
 1929              		.cfi_startproc
 1930              		@ args = 0, pretend = 0, frame = 24
 1931              		@ frame_needed = 1, uses_anonymous_args = 0
 1932 0000 80B5     		push	{r7, lr}	@
 1933              		.cfi_def_cfa_offset 8
 1934              		.cfi_offset 7, -8
 1935              		.cfi_offset 14, -4
 1936 0002 86B0     		sub	sp, sp, #24	@,,
 1937              		.cfi_def_cfa_offset 32
 1938 0004 00AF     		add	r7, sp, #0	@,,
 1939              		.cfi_def_cfa_register 7
 1940 0006 F860     		str	r0, [r7, #12]	@ pxQueue, pxQueue
 1941 0008 B960     		str	r1, [r7, #8]	@ pvItemToQueue, pvItemToQueue
 1942 000a 7A60     		str	r2, [r7, #4]	@ xPosition, xPosition
1624:FreeRTOS/queue.c **** BaseT_t xReturn = pdFALSE;
 1943              		.loc 1 1624 0
 1944 000c 0023     		movs	r3, #0	@ tmp140,
 1945 000e 7B61     		str	r3, [r7, #20]	@ tmp140, xReturn
1625:FreeRTOS/queue.c **** 
1626:FreeRTOS/queue.c **** 	if( pxQueue->uxItemSize == ( UBaseT_t ) 0 )
 1946              		.loc 1 1626 0
 1947 0010 FB68     		ldr	r3, [r7, #12]	@ tmp141, pxQueue
 1948 0012 1B6C     		ldr	r3, [r3, #64]	@ D.5992, pxQueue_3(D)->uxItemSize
 1949 0014 002B     		cmp	r3, #0	@ D.5992,
 1950 0016 0DD1     		bne	.L158	@,
1627:FreeRTOS/queue.c **** 	{
1628:FreeRTOS/queue.c **** 		#if ( configUSE_MUTEXES == 1 )
1629:FreeRTOS/queue.c **** 		{
1630:FreeRTOS/queue.c **** 			if( pxQueue->uxQueueType == queueQUEUE_IS_MUTEX )
 1951              		.loc 1 1630 0
 1952 0018 FB68     		ldr	r3, [r7, #12]	@ tmp142, pxQueue
 1953 001a 1B68     		ldr	r3, [r3]	@ D.5993, pxQueue_3(D)->pcHead
 1954 001c 002B     		cmp	r3, #0	@ D.5993,
 1955 001e 52D1     		bne	.L159	@,
1631:FreeRTOS/queue.c **** 			{
1632:FreeRTOS/queue.c **** 				/* The mutex is no longer being held. */
1633:FreeRTOS/queue.c **** 				xReturn = xTaskPriorityDisinherit( ( void * ) pxQueue->pxMutexHolder );
 1956              		.loc 1 1633 0
 1957 0020 FB68     		ldr	r3, [r7, #12]	@ tmp143, pxQueue
 1958 0022 5B68     		ldr	r3, [r3, #4]	@ D.5993, pxQueue_3(D)->pcTail
ARM GAS  C:\Users\COSMIN~1.MAR\AppData\Local\Temp\cc5hxLYL.s 			page 64


 1959 0024 1846     		mov	r0, r3	@, D.5993
 1960 0026 FFF7FEFF 		bl	xTaskPriorityDisinherit	@
 1961 002a 7861     		str	r0, [r7, #20]	@, xReturn
1634:FreeRTOS/queue.c **** 				pxQueue->pxMutexHolder = NULL;
 1962              		.loc 1 1634 0
 1963 002c FB68     		ldr	r3, [r7, #12]	@ tmp144, pxQueue
 1964 002e 0022     		movs	r2, #0	@ tmp145,
 1965 0030 5A60     		str	r2, [r3, #4]	@ tmp145, pxQueue_3(D)->pcTail
 1966 0032 48E0     		b	.L159	@
 1967              	.L158:
1635:FreeRTOS/queue.c **** 			}
1636:FreeRTOS/queue.c **** 			else
1637:FreeRTOS/queue.c **** 			{
1638:FreeRTOS/queue.c **** 				mtCOVERAGE_TEST_MARKER();
1639:FreeRTOS/queue.c **** 			}
1640:FreeRTOS/queue.c **** 		}
1641:FreeRTOS/queue.c **** 		#endif /* configUSE_MUTEXES */
1642:FreeRTOS/queue.c **** 	}
1643:FreeRTOS/queue.c **** 	else if( xPosition == queueSEND_TO_BACK )
 1968              		.loc 1 1643 0
 1969 0034 7B68     		ldr	r3, [r7, #4]	@ tmp146, xPosition
 1970 0036 002B     		cmp	r3, #0	@ tmp146,
 1971 0038 1AD1     		bne	.L160	@,
1644:FreeRTOS/queue.c **** 	{
1645:FreeRTOS/queue.c **** 		( void ) memcpy( ( void * ) pxQueue->pcWriteTo, pvItemToQueue, ( size_t ) pxQueue->uxItemSize ); 
 1972              		.loc 1 1645 0
 1973 003a FB68     		ldr	r3, [r7, #12]	@ tmp147, pxQueue
 1974 003c 9A68     		ldr	r2, [r3, #8]	@ D.5993, pxQueue_3(D)->pcWriteTo
 1975 003e FB68     		ldr	r3, [r7, #12]	@ tmp148, pxQueue
 1976 0040 1B6C     		ldr	r3, [r3, #64]	@ D.5992, pxQueue_3(D)->uxItemSize
 1977 0042 1046     		mov	r0, r2	@, D.5993
 1978 0044 B968     		ldr	r1, [r7, #8]	@, pvItemToQueue
 1979 0046 1A46     		mov	r2, r3	@, D.5992
 1980 0048 FFF7FEFF 		bl	memcpy	@
1646:FreeRTOS/queue.c **** 		pxQueue->pcWriteTo += pxQueue->uxItemSize;
 1981              		.loc 1 1646 0
 1982 004c FB68     		ldr	r3, [r7, #12]	@ tmp149, pxQueue
 1983 004e 9A68     		ldr	r2, [r3, #8]	@ D.5993, pxQueue_3(D)->pcWriteTo
 1984 0050 FB68     		ldr	r3, [r7, #12]	@ tmp150, pxQueue
 1985 0052 1B6C     		ldr	r3, [r3, #64]	@ D.5992, pxQueue_3(D)->uxItemSize
 1986 0054 1A44     		add	r2, r2, r3	@ D.5993, D.5992
 1987 0056 FB68     		ldr	r3, [r7, #12]	@ tmp151, pxQueue
 1988 0058 9A60     		str	r2, [r3, #8]	@ D.5993, pxQueue_3(D)->pcWriteTo
1647:FreeRTOS/queue.c **** 		if( pxQueue->pcWriteTo >= pxQueue->pcTail ) /*lint !e946 MISRA exception justified as comparison 
 1989              		.loc 1 1647 0
 1990 005a FB68     		ldr	r3, [r7, #12]	@ tmp152, pxQueue
 1991 005c 9A68     		ldr	r2, [r3, #8]	@ D.5993, pxQueue_3(D)->pcWriteTo
 1992 005e FB68     		ldr	r3, [r7, #12]	@ tmp153, pxQueue
 1993 0060 5B68     		ldr	r3, [r3, #4]	@ D.5993, pxQueue_3(D)->pcTail
 1994 0062 9A42     		cmp	r2, r3	@ D.5993, D.5993
 1995 0064 2FD3     		bcc	.L159	@,
1648:FreeRTOS/queue.c **** 		{
1649:FreeRTOS/queue.c **** 			pxQueue->pcWriteTo = pxQueue->pcHead;
 1996              		.loc 1 1649 0
 1997 0066 FB68     		ldr	r3, [r7, #12]	@ tmp154, pxQueue
 1998 0068 1A68     		ldr	r2, [r3]	@ D.5993, pxQueue_3(D)->pcHead
 1999 006a FB68     		ldr	r3, [r7, #12]	@ tmp155, pxQueue
ARM GAS  C:\Users\COSMIN~1.MAR\AppData\Local\Temp\cc5hxLYL.s 			page 65


 2000 006c 9A60     		str	r2, [r3, #8]	@ D.5993, pxQueue_3(D)->pcWriteTo
 2001 006e 2AE0     		b	.L159	@
 2002              	.L160:
1650:FreeRTOS/queue.c **** 		}
1651:FreeRTOS/queue.c **** 		else
1652:FreeRTOS/queue.c **** 		{
1653:FreeRTOS/queue.c **** 			mtCOVERAGE_TEST_MARKER();
1654:FreeRTOS/queue.c **** 		}
1655:FreeRTOS/queue.c **** 	}
1656:FreeRTOS/queue.c **** 	else
1657:FreeRTOS/queue.c **** 	{
1658:FreeRTOS/queue.c **** 		( void ) memcpy( ( void * ) pxQueue->u.pcReadFrom, pvItemToQueue, ( size_t ) pxQueue->uxItemSize 
 2003              		.loc 1 1658 0
 2004 0070 FB68     		ldr	r3, [r7, #12]	@ tmp156, pxQueue
 2005 0072 DA68     		ldr	r2, [r3, #12]	@ D.5993, pxQueue_3(D)->u.pcReadFrom
 2006 0074 FB68     		ldr	r3, [r7, #12]	@ tmp157, pxQueue
 2007 0076 1B6C     		ldr	r3, [r3, #64]	@ D.5992, pxQueue_3(D)->uxItemSize
 2008 0078 1046     		mov	r0, r2	@, D.5993
 2009 007a B968     		ldr	r1, [r7, #8]	@, pvItemToQueue
 2010 007c 1A46     		mov	r2, r3	@, D.5992
 2011 007e FFF7FEFF 		bl	memcpy	@
1659:FreeRTOS/queue.c **** 		pxQueue->u.pcReadFrom -= pxQueue->uxItemSize;
 2012              		.loc 1 1659 0
 2013 0082 FB68     		ldr	r3, [r7, #12]	@ tmp158, pxQueue
 2014 0084 DA68     		ldr	r2, [r3, #12]	@ D.5993, pxQueue_3(D)->u.pcReadFrom
 2015 0086 FB68     		ldr	r3, [r7, #12]	@ tmp159, pxQueue
 2016 0088 1B6C     		ldr	r3, [r3, #64]	@ D.5992, pxQueue_3(D)->uxItemSize
 2017 008a 5B42     		negs	r3, r3	@ D.5994, D.5992
 2018 008c 1A44     		add	r2, r2, r3	@ D.5993, D.5994
 2019 008e FB68     		ldr	r3, [r7, #12]	@ tmp160, pxQueue
 2020 0090 DA60     		str	r2, [r3, #12]	@ D.5993, pxQueue_3(D)->u.pcReadFrom
1660:FreeRTOS/queue.c **** 		if( pxQueue->u.pcReadFrom < pxQueue->pcHead ) /*lint !e946 MISRA exception justified as compariso
 2021              		.loc 1 1660 0
 2022 0092 FB68     		ldr	r3, [r7, #12]	@ tmp161, pxQueue
 2023 0094 DA68     		ldr	r2, [r3, #12]	@ D.5993, pxQueue_3(D)->u.pcReadFrom
 2024 0096 FB68     		ldr	r3, [r7, #12]	@ tmp162, pxQueue
 2025 0098 1B68     		ldr	r3, [r3]	@ D.5993, pxQueue_3(D)->pcHead
 2026 009a 9A42     		cmp	r2, r3	@ D.5993, D.5993
 2027 009c 07D2     		bcs	.L161	@,
1661:FreeRTOS/queue.c **** 		{
1662:FreeRTOS/queue.c **** 			pxQueue->u.pcReadFrom = ( pxQueue->pcTail - pxQueue->uxItemSize );
 2028              		.loc 1 1662 0
 2029 009e FB68     		ldr	r3, [r7, #12]	@ tmp163, pxQueue
 2030 00a0 5A68     		ldr	r2, [r3, #4]	@ D.5993, pxQueue_3(D)->pcTail
 2031 00a2 FB68     		ldr	r3, [r7, #12]	@ tmp164, pxQueue
 2032 00a4 1B6C     		ldr	r3, [r3, #64]	@ D.5992, pxQueue_3(D)->uxItemSize
 2033 00a6 5B42     		negs	r3, r3	@ D.5994, D.5992
 2034 00a8 1A44     		add	r2, r2, r3	@ D.5993, D.5994
 2035 00aa FB68     		ldr	r3, [r7, #12]	@ tmp165, pxQueue
 2036 00ac DA60     		str	r2, [r3, #12]	@ D.5993, pxQueue_3(D)->u.pcReadFrom
 2037              	.L161:
1663:FreeRTOS/queue.c **** 		}
1664:FreeRTOS/queue.c **** 		else
1665:FreeRTOS/queue.c **** 		{
1666:FreeRTOS/queue.c **** 			mtCOVERAGE_TEST_MARKER();
1667:FreeRTOS/queue.c **** 		}
1668:FreeRTOS/queue.c **** 
ARM GAS  C:\Users\COSMIN~1.MAR\AppData\Local\Temp\cc5hxLYL.s 			page 66


1669:FreeRTOS/queue.c **** 		if( xPosition == queueOVERWRITE )
 2038              		.loc 1 1669 0
 2039 00ae 7B68     		ldr	r3, [r7, #4]	@ tmp166, xPosition
 2040 00b0 022B     		cmp	r3, #2	@ tmp166,
 2041 00b2 08D1     		bne	.L159	@,
1670:FreeRTOS/queue.c **** 		{
1671:FreeRTOS/queue.c **** 			if( pxQueue->uxMessagesWaiting > ( UBaseT_t ) 0 )
 2042              		.loc 1 1671 0
 2043 00b4 FB68     		ldr	r3, [r7, #12]	@ tmp167, pxQueue
 2044 00b6 9B6B     		ldr	r3, [r3, #56]	@ D.5992, pxQueue_3(D)->uxMessagesWaiting
 2045 00b8 002B     		cmp	r3, #0	@ D.5992,
 2046 00ba 04D0     		beq	.L159	@,
1672:FreeRTOS/queue.c **** 			{
1673:FreeRTOS/queue.c **** 				/* An item is not being added but overwritten, so subtract
1674:FreeRTOS/queue.c **** 				one from the recorded number of items in the queue so when
1675:FreeRTOS/queue.c **** 				one is added again below the number of recorded items remains
1676:FreeRTOS/queue.c **** 				correct. */
1677:FreeRTOS/queue.c **** 				--( pxQueue->uxMessagesWaiting );
 2047              		.loc 1 1677 0
 2048 00bc FB68     		ldr	r3, [r7, #12]	@ tmp168, pxQueue
 2049 00be 9B6B     		ldr	r3, [r3, #56]	@ D.5992, pxQueue_3(D)->uxMessagesWaiting
 2050 00c0 5A1E     		subs	r2, r3, #1	@ D.5992, D.5992,
 2051 00c2 FB68     		ldr	r3, [r7, #12]	@ tmp169, pxQueue
 2052 00c4 9A63     		str	r2, [r3, #56]	@ D.5992, pxQueue_3(D)->uxMessagesWaiting
 2053              	.L159:
1678:FreeRTOS/queue.c **** 			}
1679:FreeRTOS/queue.c **** 			else
1680:FreeRTOS/queue.c **** 			{
1681:FreeRTOS/queue.c **** 				mtCOVERAGE_TEST_MARKER();
1682:FreeRTOS/queue.c **** 			}
1683:FreeRTOS/queue.c **** 		}
1684:FreeRTOS/queue.c **** 		else
1685:FreeRTOS/queue.c **** 		{
1686:FreeRTOS/queue.c **** 			mtCOVERAGE_TEST_MARKER();
1687:FreeRTOS/queue.c **** 		}
1688:FreeRTOS/queue.c **** 	}
1689:FreeRTOS/queue.c **** 
1690:FreeRTOS/queue.c **** 	++( pxQueue->uxMessagesWaiting );
 2054              		.loc 1 1690 0
 2055 00c6 FB68     		ldr	r3, [r7, #12]	@ tmp170, pxQueue
 2056 00c8 9B6B     		ldr	r3, [r3, #56]	@ D.5992, pxQueue_3(D)->uxMessagesWaiting
 2057 00ca 5A1C     		adds	r2, r3, #1	@ D.5992, D.5992,
 2058 00cc FB68     		ldr	r3, [r7, #12]	@ tmp171, pxQueue
 2059 00ce 9A63     		str	r2, [r3, #56]	@ D.5992, pxQueue_3(D)->uxMessagesWaiting
1691:FreeRTOS/queue.c **** 
1692:FreeRTOS/queue.c **** 	return xReturn;
 2060              		.loc 1 1692 0
 2061 00d0 7B69     		ldr	r3, [r7, #20]	@ D.5995, xReturn
1693:FreeRTOS/queue.c **** }
 2062              		.loc 1 1693 0
 2063 00d2 1846     		mov	r0, r3	@, <retval>
 2064 00d4 1837     		adds	r7, r7, #24	@,,
 2065              		.cfi_def_cfa_offset 8
 2066 00d6 BD46     		mov	sp, r7	@,
 2067              		.cfi_def_cfa_register 13
 2068              		@ sp needed	@
 2069 00d8 80BD     		pop	{r7, pc}	@
ARM GAS  C:\Users\COSMIN~1.MAR\AppData\Local\Temp\cc5hxLYL.s 			page 67


 2070              		.cfi_endproc
 2071              	.LFE19:
 2072              		.size	prvCopyDataToQueue, .-prvCopyDataToQueue
 2073 00da 00BF     		.section	.text.prvCopyDataFromQueue,"ax",%progbits
 2074              		.align	2
 2075              		.thumb
 2076              		.thumb_func
 2077              		.type	prvCopyDataFromQueue, %function
 2078              	prvCopyDataFromQueue:
 2079              	.LFB20:
1694:FreeRTOS/queue.c **** /*-----------------------------------------------------------*/
1695:FreeRTOS/queue.c **** 
1696:FreeRTOS/queue.c **** static void prvCopyDataFromQueue( Queue_t * const pxQueue, void * const pvBuffer )
1697:FreeRTOS/queue.c **** {
 2080              		.loc 1 1697 0
 2081              		.cfi_startproc
 2082              		@ args = 0, pretend = 0, frame = 8
 2083              		@ frame_needed = 1, uses_anonymous_args = 0
 2084 0000 80B5     		push	{r7, lr}	@
 2085              		.cfi_def_cfa_offset 8
 2086              		.cfi_offset 7, -8
 2087              		.cfi_offset 14, -4
 2088 0002 82B0     		sub	sp, sp, #8	@,,
 2089              		.cfi_def_cfa_offset 16
 2090 0004 00AF     		add	r7, sp, #0	@,,
 2091              		.cfi_def_cfa_register 7
 2092 0006 7860     		str	r0, [r7, #4]	@ pxQueue, pxQueue
 2093 0008 3960     		str	r1, [r7]	@ pvBuffer, pvBuffer
1698:FreeRTOS/queue.c **** 	if( pxQueue->uxItemSize != ( UBaseT_t ) 0 )
 2094              		.loc 1 1698 0
 2095 000a 7B68     		ldr	r3, [r7, #4]	@ tmp119, pxQueue
 2096 000c 1B6C     		ldr	r3, [r3, #64]	@ D.5996, pxQueue_1(D)->uxItemSize
 2097 000e 002B     		cmp	r3, #0	@ D.5996,
 2098 0010 19D0     		beq	.L163	@,
1699:FreeRTOS/queue.c **** 	{
1700:FreeRTOS/queue.c **** 		pxQueue->u.pcReadFrom += pxQueue->uxItemSize;
 2099              		.loc 1 1700 0
 2100 0012 7B68     		ldr	r3, [r7, #4]	@ tmp120, pxQueue
 2101 0014 DA68     		ldr	r2, [r3, #12]	@ D.5997, pxQueue_1(D)->u.pcReadFrom
 2102 0016 7B68     		ldr	r3, [r7, #4]	@ tmp121, pxQueue
 2103 0018 1B6C     		ldr	r3, [r3, #64]	@ D.5996, pxQueue_1(D)->uxItemSize
 2104 001a 1A44     		add	r2, r2, r3	@ D.5997, D.5996
 2105 001c 7B68     		ldr	r3, [r7, #4]	@ tmp122, pxQueue
 2106 001e DA60     		str	r2, [r3, #12]	@ D.5997, pxQueue_1(D)->u.pcReadFrom
1701:FreeRTOS/queue.c **** 		if( pxQueue->u.pcReadFrom >= pxQueue->pcTail ) /*lint !e946 MISRA exception justified as use of t
 2107              		.loc 1 1701 0
 2108 0020 7B68     		ldr	r3, [r7, #4]	@ tmp123, pxQueue
 2109 0022 DA68     		ldr	r2, [r3, #12]	@ D.5997, pxQueue_1(D)->u.pcReadFrom
 2110 0024 7B68     		ldr	r3, [r7, #4]	@ tmp124, pxQueue
 2111 0026 5B68     		ldr	r3, [r3, #4]	@ D.5997, pxQueue_1(D)->pcTail
 2112 0028 9A42     		cmp	r2, r3	@ D.5997, D.5997
 2113 002a 03D3     		bcc	.L165	@,
1702:FreeRTOS/queue.c **** 		{
1703:FreeRTOS/queue.c **** 			pxQueue->u.pcReadFrom = pxQueue->pcHead;
 2114              		.loc 1 1703 0
 2115 002c 7B68     		ldr	r3, [r7, #4]	@ tmp125, pxQueue
 2116 002e 1A68     		ldr	r2, [r3]	@ D.5997, pxQueue_1(D)->pcHead
ARM GAS  C:\Users\COSMIN~1.MAR\AppData\Local\Temp\cc5hxLYL.s 			page 68


 2117 0030 7B68     		ldr	r3, [r7, #4]	@ tmp126, pxQueue
 2118 0032 DA60     		str	r2, [r3, #12]	@ D.5997, pxQueue_1(D)->u.pcReadFrom
 2119              	.L165:
1704:FreeRTOS/queue.c **** 		}
1705:FreeRTOS/queue.c **** 		else
1706:FreeRTOS/queue.c **** 		{
1707:FreeRTOS/queue.c **** 			mtCOVERAGE_TEST_MARKER();
1708:FreeRTOS/queue.c **** 		}
1709:FreeRTOS/queue.c **** 		( void ) memcpy( ( void * ) pvBuffer, ( void * ) pxQueue->u.pcReadFrom, ( size_t ) pxQueue->uxIte
 2120              		.loc 1 1709 0
 2121 0034 7B68     		ldr	r3, [r7, #4]	@ tmp127, pxQueue
 2122 0036 DA68     		ldr	r2, [r3, #12]	@ D.5997, pxQueue_1(D)->u.pcReadFrom
 2123 0038 7B68     		ldr	r3, [r7, #4]	@ tmp128, pxQueue
 2124 003a 1B6C     		ldr	r3, [r3, #64]	@ D.5996, pxQueue_1(D)->uxItemSize
 2125 003c 3868     		ldr	r0, [r7]	@, pvBuffer
 2126 003e 1146     		mov	r1, r2	@, D.5997
 2127 0040 1A46     		mov	r2, r3	@, D.5996
 2128 0042 FFF7FEFF 		bl	memcpy	@
 2129              	.L163:
1710:FreeRTOS/queue.c **** 	}
1711:FreeRTOS/queue.c **** }
 2130              		.loc 1 1711 0
 2131 0046 0837     		adds	r7, r7, #8	@,,
 2132              		.cfi_def_cfa_offset 8
 2133 0048 BD46     		mov	sp, r7	@,
 2134              		.cfi_def_cfa_register 13
 2135              		@ sp needed	@
 2136 004a 80BD     		pop	{r7, pc}	@
 2137              		.cfi_endproc
 2138              	.LFE20:
 2139              		.size	prvCopyDataFromQueue, .-prvCopyDataFromQueue
 2140              		.section	.text.prvUnlockQueue,"ax",%progbits
 2141              		.align	2
 2142              		.thumb
 2143              		.thumb_func
 2144              		.type	prvUnlockQueue, %function
 2145              	prvUnlockQueue:
 2146              	.LFB21:
1712:FreeRTOS/queue.c **** /*-----------------------------------------------------------*/
1713:FreeRTOS/queue.c **** 
1714:FreeRTOS/queue.c **** static void prvUnlockQueue( Queue_t * const pxQueue )
1715:FreeRTOS/queue.c **** {
 2147              		.loc 1 1715 0
 2148              		.cfi_startproc
 2149              		@ args = 0, pretend = 0, frame = 8
 2150              		@ frame_needed = 1, uses_anonymous_args = 0
 2151 0000 80B5     		push	{r7, lr}	@
 2152              		.cfi_def_cfa_offset 8
 2153              		.cfi_offset 7, -8
 2154              		.cfi_offset 14, -4
 2155 0002 82B0     		sub	sp, sp, #8	@,,
 2156              		.cfi_def_cfa_offset 16
 2157 0004 00AF     		add	r7, sp, #0	@,,
 2158              		.cfi_def_cfa_register 7
 2159 0006 7860     		str	r0, [r7, #4]	@ pxQueue, pxQueue
1716:FreeRTOS/queue.c **** 	/* THIS FUNCTION MUST BE CALLED WITH THE SCHEDULER SUSPENDED. */
1717:FreeRTOS/queue.c **** 
ARM GAS  C:\Users\COSMIN~1.MAR\AppData\Local\Temp\cc5hxLYL.s 			page 69


1718:FreeRTOS/queue.c **** 	/* The lock counts contains the number of extra data items placed or
1719:FreeRTOS/queue.c **** 	removed from the queue while the queue was locked.  When a queue is
1720:FreeRTOS/queue.c **** 	locked items can be added or removed, but the event lists cannot be
1721:FreeRTOS/queue.c **** 	updated. */
1722:FreeRTOS/queue.c **** 	taskENTER_CRITICAL();
 2160              		.loc 1 1722 0
 2161 0008 FFF7FEFF 		bl	vPortEnterCritical	@
1723:FreeRTOS/queue.c **** 	{
1724:FreeRTOS/queue.c **** 		/* See if data was added to the queue while it was locked. */
1725:FreeRTOS/queue.c **** 		while( pxQueue->xTxLock > queueLOCKED_UNMODIFIED )
 2162              		.loc 1 1725 0
 2163 000c 14E0     		b	.L167	@
 2164              	.L171:
1726:FreeRTOS/queue.c **** 		{
1727:FreeRTOS/queue.c **** 			/* Data was posted while the queue was locked.  Are any tasks
1728:FreeRTOS/queue.c **** 			blocked waiting for data to become available? */
1729:FreeRTOS/queue.c **** 			#if ( configUSE_QUEUE_SETS == 1 )
1730:FreeRTOS/queue.c **** 			{
1731:FreeRTOS/queue.c **** 				if( pxQueue->pxQueueSetContainer != NULL )
1732:FreeRTOS/queue.c **** 				{
1733:FreeRTOS/queue.c **** 					if( prvNotifyQueueSetContainer( pxQueue, queueSEND_TO_BACK ) == pdTRUE )
1734:FreeRTOS/queue.c **** 					{
1735:FreeRTOS/queue.c **** 						/* The queue is a member of a queue set, and posting to
1736:FreeRTOS/queue.c **** 						the queue set caused a higher priority task to unblock.
1737:FreeRTOS/queue.c **** 						A context switch is required. */
1738:FreeRTOS/queue.c **** 						vTaskMissedYield();
1739:FreeRTOS/queue.c **** 					}
1740:FreeRTOS/queue.c **** 					else
1741:FreeRTOS/queue.c **** 					{
1742:FreeRTOS/queue.c **** 						mtCOVERAGE_TEST_MARKER();
1743:FreeRTOS/queue.c **** 					}
1744:FreeRTOS/queue.c **** 				}
1745:FreeRTOS/queue.c **** 				else
1746:FreeRTOS/queue.c **** 				{
1747:FreeRTOS/queue.c **** 					/* Tasks that are removed from the event list will get added to
1748:FreeRTOS/queue.c **** 					the pending ready list as the scheduler is still suspended. */
1749:FreeRTOS/queue.c **** 					if( listLIST_IS_EMPTY( &( pxQueue->xTasksWaitingToReceive ) ) == pdFALSE )
1750:FreeRTOS/queue.c **** 					{
1751:FreeRTOS/queue.c **** 						if( xTaskRemoveFromEventList( &( pxQueue->xTasksWaitingToReceive ) ) != pdFALSE )
1752:FreeRTOS/queue.c **** 						{
1753:FreeRTOS/queue.c **** 							/* The task waiting has a higher priority so record that a
1754:FreeRTOS/queue.c **** 							context	switch is required. */
1755:FreeRTOS/queue.c **** 							vTaskMissedYield();
1756:FreeRTOS/queue.c **** 						}
1757:FreeRTOS/queue.c **** 						else
1758:FreeRTOS/queue.c **** 						{
1759:FreeRTOS/queue.c **** 							mtCOVERAGE_TEST_MARKER();
1760:FreeRTOS/queue.c **** 						}
1761:FreeRTOS/queue.c **** 					}
1762:FreeRTOS/queue.c **** 					else
1763:FreeRTOS/queue.c **** 					{
1764:FreeRTOS/queue.c **** 						break;
1765:FreeRTOS/queue.c **** 					}
1766:FreeRTOS/queue.c **** 				}
1767:FreeRTOS/queue.c **** 			}
1768:FreeRTOS/queue.c **** 			#else /* configUSE_QUEUE_SETS */
1769:FreeRTOS/queue.c **** 			{
ARM GAS  C:\Users\COSMIN~1.MAR\AppData\Local\Temp\cc5hxLYL.s 			page 70


1770:FreeRTOS/queue.c **** 				/* Tasks that are removed from the event list will get added to
1771:FreeRTOS/queue.c **** 				the pending ready list as the scheduler is still suspended. */
1772:FreeRTOS/queue.c **** 				if( listLIST_IS_EMPTY( &( pxQueue->xTasksWaitingToReceive ) ) == pdFALSE )
 2165              		.loc 1 1772 0
 2166 000e 7B68     		ldr	r3, [r7, #4]	@ tmp122, pxQueue
 2167 0010 5B6A     		ldr	r3, [r3, #36]	@ D.5999, pxQueue_1(D)->xTasksWaitingToReceive.uxNumberOfItems
 2168 0012 002B     		cmp	r3, #0	@ D.5999,
 2169 0014 0AD0     		beq	.L168	@,
1773:FreeRTOS/queue.c **** 				{
1774:FreeRTOS/queue.c **** 					if( xTaskRemoveFromEventList( &( pxQueue->xTasksWaitingToReceive ) ) != pdFALSE )
 2170              		.loc 1 1774 0
 2171 0016 7B68     		ldr	r3, [r7, #4]	@ tmp123, pxQueue
 2172 0018 2433     		adds	r3, r3, #36	@ D.6000, tmp123,
 2173 001a 1846     		mov	r0, r3	@, D.6000
 2174 001c FFF7FEFF 		bl	xTaskRemoveFromEventList	@
 2175 0020 0346     		mov	r3, r0	@ D.5998,
 2176 0022 002B     		cmp	r3, #0	@ D.5998,
 2177 0024 03D0     		beq	.L169	@,
1775:FreeRTOS/queue.c **** 					{
1776:FreeRTOS/queue.c **** 						/* The task waiting has a higher priority so record that a
1777:FreeRTOS/queue.c **** 						context	switch is required. */
1778:FreeRTOS/queue.c **** 						vTaskMissedYield();
 2178              		.loc 1 1778 0
 2179 0026 FFF7FEFF 		bl	vTaskMissedYield	@
 2180 002a 00E0     		b	.L169	@
 2181              	.L168:
1779:FreeRTOS/queue.c **** 					}
1780:FreeRTOS/queue.c **** 					else
1781:FreeRTOS/queue.c **** 					{
1782:FreeRTOS/queue.c **** 						mtCOVERAGE_TEST_MARKER();
1783:FreeRTOS/queue.c **** 					}
1784:FreeRTOS/queue.c **** 				}
1785:FreeRTOS/queue.c **** 				else
1786:FreeRTOS/queue.c **** 				{
1787:FreeRTOS/queue.c **** 					break;
 2182              		.loc 1 1787 0
 2183 002c 08E0     		b	.L170	@
 2184              	.L169:
1788:FreeRTOS/queue.c **** 				}
1789:FreeRTOS/queue.c **** 			}
1790:FreeRTOS/queue.c **** 			#endif /* configUSE_QUEUE_SETS */
1791:FreeRTOS/queue.c **** 
1792:FreeRTOS/queue.c **** 			--( pxQueue->xTxLock );
 2185              		.loc 1 1792 0
 2186 002e 7B68     		ldr	r3, [r7, #4]	@ tmp124, pxQueue
 2187 0030 9B6C     		ldr	r3, [r3, #72]	@ D.5998, pxQueue_1(D)->xTxLock
 2188 0032 5A1E     		subs	r2, r3, #1	@ D.5998, D.5998,
 2189 0034 7B68     		ldr	r3, [r7, #4]	@ tmp125, pxQueue
 2190 0036 9A64     		str	r2, [r3, #72]	@ D.5998, pxQueue_1(D)->xTxLock
 2191              	.L167:
1725:FreeRTOS/queue.c **** 		{
 2192              		.loc 1 1725 0
 2193 0038 7B68     		ldr	r3, [r7, #4]	@ tmp126, pxQueue
 2194 003a 9B6C     		ldr	r3, [r3, #72]	@ D.5998, pxQueue_1(D)->xTxLock
 2195 003c 002B     		cmp	r3, #0	@ D.5998,
 2196 003e E6DC     		bgt	.L171	@,
 2197              	.L170:
ARM GAS  C:\Users\COSMIN~1.MAR\AppData\Local\Temp\cc5hxLYL.s 			page 71


1793:FreeRTOS/queue.c **** 		}
1794:FreeRTOS/queue.c **** 
1795:FreeRTOS/queue.c **** 		pxQueue->xTxLock = queueUNLOCKED;
 2198              		.loc 1 1795 0
 2199 0040 7B68     		ldr	r3, [r7, #4]	@ tmp127, pxQueue
 2200 0042 4FF0FF32 		mov	r2, #-1	@ tmp128,
 2201 0046 9A64     		str	r2, [r3, #72]	@ tmp128, pxQueue_1(D)->xTxLock
1796:FreeRTOS/queue.c **** 	}
1797:FreeRTOS/queue.c **** 	taskEXIT_CRITICAL();
 2202              		.loc 1 1797 0
 2203 0048 FFF7FEFF 		bl	vPortExitCritical	@
1798:FreeRTOS/queue.c **** 
1799:FreeRTOS/queue.c **** 	/* Do the same for the Rx lock. */
1800:FreeRTOS/queue.c **** 	taskENTER_CRITICAL();
 2204              		.loc 1 1800 0
 2205 004c FFF7FEFF 		bl	vPortEnterCritical	@
1801:FreeRTOS/queue.c **** 	{
1802:FreeRTOS/queue.c **** 		while( pxQueue->xRxLock > queueLOCKED_UNMODIFIED )
 2206              		.loc 1 1802 0
 2207 0050 14E0     		b	.L172	@
 2208              	.L176:
1803:FreeRTOS/queue.c **** 		{
1804:FreeRTOS/queue.c **** 			if( listLIST_IS_EMPTY( &( pxQueue->xTasksWaitingToSend ) ) == pdFALSE )
 2209              		.loc 1 1804 0
 2210 0052 7B68     		ldr	r3, [r7, #4]	@ tmp129, pxQueue
 2211 0054 1B69     		ldr	r3, [r3, #16]	@ D.5999, pxQueue_1(D)->xTasksWaitingToSend.uxNumberOfItems
 2212 0056 002B     		cmp	r3, #0	@ D.5999,
 2213 0058 0FD0     		beq	.L173	@,
1805:FreeRTOS/queue.c **** 			{
1806:FreeRTOS/queue.c **** 				if( xTaskRemoveFromEventList( &( pxQueue->xTasksWaitingToSend ) ) != pdFALSE )
 2214              		.loc 1 1806 0
 2215 005a 7B68     		ldr	r3, [r7, #4]	@ tmp130, pxQueue
 2216 005c 1033     		adds	r3, r3, #16	@ D.6000, tmp130,
 2217 005e 1846     		mov	r0, r3	@, D.6000
 2218 0060 FFF7FEFF 		bl	xTaskRemoveFromEventList	@
 2219 0064 0346     		mov	r3, r0	@ D.5998,
 2220 0066 002B     		cmp	r3, #0	@ D.5998,
 2221 0068 01D0     		beq	.L174	@,
1807:FreeRTOS/queue.c **** 				{
1808:FreeRTOS/queue.c **** 					vTaskMissedYield();
 2222              		.loc 1 1808 0
 2223 006a FFF7FEFF 		bl	vTaskMissedYield	@
 2224              	.L174:
1809:FreeRTOS/queue.c **** 				}
1810:FreeRTOS/queue.c **** 				else
1811:FreeRTOS/queue.c **** 				{
1812:FreeRTOS/queue.c **** 					mtCOVERAGE_TEST_MARKER();
1813:FreeRTOS/queue.c **** 				}
1814:FreeRTOS/queue.c **** 
1815:FreeRTOS/queue.c **** 				--( pxQueue->xRxLock );
 2225              		.loc 1 1815 0
 2226 006e 7B68     		ldr	r3, [r7, #4]	@ tmp131, pxQueue
 2227 0070 5B6C     		ldr	r3, [r3, #68]	@ D.5998, pxQueue_1(D)->xRxLock
 2228 0072 5A1E     		subs	r2, r3, #1	@ D.5998, D.5998,
 2229 0074 7B68     		ldr	r3, [r7, #4]	@ tmp132, pxQueue
 2230 0076 5A64     		str	r2, [r3, #68]	@ D.5998, pxQueue_1(D)->xRxLock
 2231 0078 00E0     		b	.L172	@
ARM GAS  C:\Users\COSMIN~1.MAR\AppData\Local\Temp\cc5hxLYL.s 			page 72


 2232              	.L173:
1816:FreeRTOS/queue.c **** 			}
1817:FreeRTOS/queue.c **** 			else
1818:FreeRTOS/queue.c **** 			{
1819:FreeRTOS/queue.c **** 				break;
 2233              		.loc 1 1819 0
 2234 007a 03E0     		b	.L175	@
 2235              	.L172:
1802:FreeRTOS/queue.c **** 		{
 2236              		.loc 1 1802 0
 2237 007c 7B68     		ldr	r3, [r7, #4]	@ tmp133, pxQueue
 2238 007e 5B6C     		ldr	r3, [r3, #68]	@ D.5998, pxQueue_1(D)->xRxLock
 2239 0080 002B     		cmp	r3, #0	@ D.5998,
 2240 0082 E6DC     		bgt	.L176	@,
 2241              	.L175:
1820:FreeRTOS/queue.c **** 			}
1821:FreeRTOS/queue.c **** 		}
1822:FreeRTOS/queue.c **** 
1823:FreeRTOS/queue.c **** 		pxQueue->xRxLock = queueUNLOCKED;
 2242              		.loc 1 1823 0
 2243 0084 7B68     		ldr	r3, [r7, #4]	@ tmp134, pxQueue
 2244 0086 4FF0FF32 		mov	r2, #-1	@ tmp135,
 2245 008a 5A64     		str	r2, [r3, #68]	@ tmp135, pxQueue_1(D)->xRxLock
1824:FreeRTOS/queue.c **** 	}
1825:FreeRTOS/queue.c **** 	taskEXIT_CRITICAL();
 2246              		.loc 1 1825 0
 2247 008c FFF7FEFF 		bl	vPortExitCritical	@
1826:FreeRTOS/queue.c **** }
 2248              		.loc 1 1826 0
 2249 0090 0837     		adds	r7, r7, #8	@,,
 2250              		.cfi_def_cfa_offset 8
 2251 0092 BD46     		mov	sp, r7	@,
 2252              		.cfi_def_cfa_register 13
 2253              		@ sp needed	@
 2254 0094 80BD     		pop	{r7, pc}	@
 2255              		.cfi_endproc
 2256              	.LFE21:
 2257              		.size	prvUnlockQueue, .-prvUnlockQueue
 2258 0096 00BF     		.section	.text.prvIsQueueEmpty,"ax",%progbits
 2259              		.align	2
 2260              		.thumb
 2261              		.thumb_func
 2262              		.type	prvIsQueueEmpty, %function
 2263              	prvIsQueueEmpty:
 2264              	.LFB22:
1827:FreeRTOS/queue.c **** /*-----------------------------------------------------------*/
1828:FreeRTOS/queue.c **** 
1829:FreeRTOS/queue.c **** static BaseT_t prvIsQueueEmpty( const Queue_t *pxQueue )
1830:FreeRTOS/queue.c **** {
 2265              		.loc 1 1830 0
 2266              		.cfi_startproc
 2267              		@ args = 0, pretend = 0, frame = 16
 2268              		@ frame_needed = 1, uses_anonymous_args = 0
 2269 0000 80B5     		push	{r7, lr}	@
 2270              		.cfi_def_cfa_offset 8
 2271              		.cfi_offset 7, -8
 2272              		.cfi_offset 14, -4
ARM GAS  C:\Users\COSMIN~1.MAR\AppData\Local\Temp\cc5hxLYL.s 			page 73


 2273 0002 84B0     		sub	sp, sp, #16	@,,
 2274              		.cfi_def_cfa_offset 24
 2275 0004 00AF     		add	r7, sp, #0	@,,
 2276              		.cfi_def_cfa_register 7
 2277 0006 7860     		str	r0, [r7, #4]	@ pxQueue, pxQueue
1831:FreeRTOS/queue.c **** BaseT_t xReturn;
1832:FreeRTOS/queue.c **** 
1833:FreeRTOS/queue.c **** 	taskENTER_CRITICAL();
 2278              		.loc 1 1833 0
 2279 0008 FFF7FEFF 		bl	vPortEnterCritical	@
1834:FreeRTOS/queue.c **** 	{
1835:FreeRTOS/queue.c **** 		if( pxQueue->uxMessagesWaiting == ( UBaseT_t )  0 )
 2280              		.loc 1 1835 0
 2281 000c 7B68     		ldr	r3, [r7, #4]	@ tmp113, pxQueue
 2282 000e 9B6B     		ldr	r3, [r3, #56]	@ D.6001, pxQueue_2(D)->uxMessagesWaiting
 2283 0010 002B     		cmp	r3, #0	@ D.6001,
 2284 0012 02D1     		bne	.L178	@,
1836:FreeRTOS/queue.c **** 		{
1837:FreeRTOS/queue.c **** 			xReturn = pdTRUE;
 2285              		.loc 1 1837 0
 2286 0014 0123     		movs	r3, #1	@ tmp114,
 2287 0016 FB60     		str	r3, [r7, #12]	@ tmp114, xReturn
 2288 0018 01E0     		b	.L179	@
 2289              	.L178:
1838:FreeRTOS/queue.c **** 		}
1839:FreeRTOS/queue.c **** 		else
1840:FreeRTOS/queue.c **** 		{
1841:FreeRTOS/queue.c **** 			xReturn = pdFALSE;
 2290              		.loc 1 1841 0
 2291 001a 0023     		movs	r3, #0	@ tmp115,
 2292 001c FB60     		str	r3, [r7, #12]	@ tmp115, xReturn
 2293              	.L179:
1842:FreeRTOS/queue.c **** 		}
1843:FreeRTOS/queue.c **** 	}
1844:FreeRTOS/queue.c **** 	taskEXIT_CRITICAL();
 2294              		.loc 1 1844 0
 2295 001e FFF7FEFF 		bl	vPortExitCritical	@
1845:FreeRTOS/queue.c **** 
1846:FreeRTOS/queue.c **** 	return xReturn;
 2296              		.loc 1 1846 0
 2297 0022 FB68     		ldr	r3, [r7, #12]	@ D.6002, xReturn
1847:FreeRTOS/queue.c **** }
 2298              		.loc 1 1847 0
 2299 0024 1846     		mov	r0, r3	@, <retval>
 2300 0026 1037     		adds	r7, r7, #16	@,,
 2301              		.cfi_def_cfa_offset 8
 2302 0028 BD46     		mov	sp, r7	@,
 2303              		.cfi_def_cfa_register 13
 2304              		@ sp needed	@
 2305 002a 80BD     		pop	{r7, pc}	@
 2306              		.cfi_endproc
 2307              	.LFE22:
 2308              		.size	prvIsQueueEmpty, .-prvIsQueueEmpty
 2309              		.section	.text.xQueueIsQueueEmptyFromISR,"ax",%progbits
 2310              		.align	2
 2311              		.global	xQueueIsQueueEmptyFromISR
 2312              		.thumb
ARM GAS  C:\Users\COSMIN~1.MAR\AppData\Local\Temp\cc5hxLYL.s 			page 74


 2313              		.thumb_func
 2314              		.type	xQueueIsQueueEmptyFromISR, %function
 2315              	xQueueIsQueueEmptyFromISR:
 2316              	.LFB23:
1848:FreeRTOS/queue.c **** /*-----------------------------------------------------------*/
1849:FreeRTOS/queue.c **** 
1850:FreeRTOS/queue.c **** BaseT_t xQueueIsQueueEmptyFromISR( const QueueHandle_t xQueue )
1851:FreeRTOS/queue.c **** {
 2317              		.loc 1 1851 0
 2318              		.cfi_startproc
 2319              		@ args = 0, pretend = 0, frame = 16
 2320              		@ frame_needed = 1, uses_anonymous_args = 0
 2321 0000 80B5     		push	{r7, lr}	@
 2322              		.cfi_def_cfa_offset 8
 2323              		.cfi_offset 7, -8
 2324              		.cfi_offset 14, -4
 2325 0002 84B0     		sub	sp, sp, #16	@,,
 2326              		.cfi_def_cfa_offset 24
 2327 0004 00AF     		add	r7, sp, #0	@,,
 2328              		.cfi_def_cfa_register 7
 2329 0006 7860     		str	r0, [r7, #4]	@ xQueue, xQueue
1852:FreeRTOS/queue.c **** BaseT_t xReturn;
1853:FreeRTOS/queue.c **** 
1854:FreeRTOS/queue.c **** 	configASSERT( xQueue );
 2330              		.loc 1 1854 0
 2331 0008 7B68     		ldr	r3, [r7, #4]	@ tmp113, xQueue
 2332 000a 002B     		cmp	r3, #0	@ tmp113,
 2333 000c 02D1     		bne	.L182	@,
 2334              		.loc 1 1854 0 is_stmt 0 discriminator 1
 2335 000e FFF7FEFF 		bl	ulPortSetInterruptMask	@
 2336              	.L183:
 2337 0012 FEE7     		b	.L183	@
 2338              	.L182:
1855:FreeRTOS/queue.c **** 	if( ( ( Queue_t * ) xQueue )->uxMessagesWaiting == ( UBaseT_t ) 0 )
 2339              		.loc 1 1855 0 is_stmt 1
 2340 0014 7B68     		ldr	r3, [r7, #4]	@ tmp114, xQueue
 2341 0016 9B6B     		ldr	r3, [r3, #56]	@ D.6003, MEM[(struct Queue_t *)xQueue_2(D)].uxMessagesWaiting
 2342 0018 002B     		cmp	r3, #0	@ D.6003,
 2343 001a 02D1     		bne	.L184	@,
1856:FreeRTOS/queue.c **** 	{
1857:FreeRTOS/queue.c **** 		xReturn = pdTRUE;
 2344              		.loc 1 1857 0
 2345 001c 0123     		movs	r3, #1	@ tmp115,
 2346 001e FB60     		str	r3, [r7, #12]	@ tmp115, xReturn
 2347 0020 01E0     		b	.L185	@
 2348              	.L184:
1858:FreeRTOS/queue.c **** 	}
1859:FreeRTOS/queue.c **** 	else
1860:FreeRTOS/queue.c **** 	{
1861:FreeRTOS/queue.c **** 		xReturn = pdFALSE;
 2349              		.loc 1 1861 0
 2350 0022 0023     		movs	r3, #0	@ tmp116,
 2351 0024 FB60     		str	r3, [r7, #12]	@ tmp116, xReturn
 2352              	.L185:
1862:FreeRTOS/queue.c **** 	}
1863:FreeRTOS/queue.c **** 
1864:FreeRTOS/queue.c **** 	return xReturn;
ARM GAS  C:\Users\COSMIN~1.MAR\AppData\Local\Temp\cc5hxLYL.s 			page 75


 2353              		.loc 1 1864 0
 2354 0026 FB68     		ldr	r3, [r7, #12]	@ D.6004, xReturn
1865:FreeRTOS/queue.c **** } /*lint !e818 xQueue could not be pointer to const because it is a typedef. */
 2355              		.loc 1 1865 0
 2356 0028 1846     		mov	r0, r3	@, <retval>
 2357 002a 1037     		adds	r7, r7, #16	@,,
 2358              		.cfi_def_cfa_offset 8
 2359 002c BD46     		mov	sp, r7	@,
 2360              		.cfi_def_cfa_register 13
 2361              		@ sp needed	@
 2362 002e 80BD     		pop	{r7, pc}	@
 2363              		.cfi_endproc
 2364              	.LFE23:
 2365              		.size	xQueueIsQueueEmptyFromISR, .-xQueueIsQueueEmptyFromISR
 2366              		.section	.text.prvIsQueueFull,"ax",%progbits
 2367              		.align	2
 2368              		.thumb
 2369              		.thumb_func
 2370              		.type	prvIsQueueFull, %function
 2371              	prvIsQueueFull:
 2372              	.LFB24:
1866:FreeRTOS/queue.c **** /*-----------------------------------------------------------*/
1867:FreeRTOS/queue.c **** 
1868:FreeRTOS/queue.c **** static BaseT_t prvIsQueueFull( const Queue_t *pxQueue )
1869:FreeRTOS/queue.c **** {
 2373              		.loc 1 1869 0
 2374              		.cfi_startproc
 2375              		@ args = 0, pretend = 0, frame = 16
 2376              		@ frame_needed = 1, uses_anonymous_args = 0
 2377 0000 80B5     		push	{r7, lr}	@
 2378              		.cfi_def_cfa_offset 8
 2379              		.cfi_offset 7, -8
 2380              		.cfi_offset 14, -4
 2381 0002 84B0     		sub	sp, sp, #16	@,,
 2382              		.cfi_def_cfa_offset 24
 2383 0004 00AF     		add	r7, sp, #0	@,,
 2384              		.cfi_def_cfa_register 7
 2385 0006 7860     		str	r0, [r7, #4]	@ pxQueue, pxQueue
1870:FreeRTOS/queue.c **** BaseT_t xReturn;
1871:FreeRTOS/queue.c **** 
1872:FreeRTOS/queue.c **** 	taskENTER_CRITICAL();
 2386              		.loc 1 1872 0
 2387 0008 FFF7FEFF 		bl	vPortEnterCritical	@
1873:FreeRTOS/queue.c **** 	{
1874:FreeRTOS/queue.c **** 		if( pxQueue->uxMessagesWaiting == pxQueue->uxLength )
 2388              		.loc 1 1874 0
 2389 000c 7B68     		ldr	r3, [r7, #4]	@ tmp114, pxQueue
 2390 000e 9A6B     		ldr	r2, [r3, #56]	@ D.6005, pxQueue_2(D)->uxMessagesWaiting
 2391 0010 7B68     		ldr	r3, [r7, #4]	@ tmp115, pxQueue
 2392 0012 DB6B     		ldr	r3, [r3, #60]	@ D.6005, pxQueue_2(D)->uxLength
 2393 0014 9A42     		cmp	r2, r3	@ D.6005, D.6005
 2394 0016 02D1     		bne	.L188	@,
1875:FreeRTOS/queue.c **** 		{
1876:FreeRTOS/queue.c **** 			xReturn = pdTRUE;
 2395              		.loc 1 1876 0
 2396 0018 0123     		movs	r3, #1	@ tmp116,
 2397 001a FB60     		str	r3, [r7, #12]	@ tmp116, xReturn
ARM GAS  C:\Users\COSMIN~1.MAR\AppData\Local\Temp\cc5hxLYL.s 			page 76


 2398 001c 01E0     		b	.L189	@
 2399              	.L188:
1877:FreeRTOS/queue.c **** 		}
1878:FreeRTOS/queue.c **** 		else
1879:FreeRTOS/queue.c **** 		{
1880:FreeRTOS/queue.c **** 			xReturn = pdFALSE;
 2400              		.loc 1 1880 0
 2401 001e 0023     		movs	r3, #0	@ tmp117,
 2402 0020 FB60     		str	r3, [r7, #12]	@ tmp117, xReturn
 2403              	.L189:
1881:FreeRTOS/queue.c **** 		}
1882:FreeRTOS/queue.c **** 	}
1883:FreeRTOS/queue.c **** 	taskEXIT_CRITICAL();
 2404              		.loc 1 1883 0
 2405 0022 FFF7FEFF 		bl	vPortExitCritical	@
1884:FreeRTOS/queue.c **** 
1885:FreeRTOS/queue.c **** 	return xReturn;
 2406              		.loc 1 1885 0
 2407 0026 FB68     		ldr	r3, [r7, #12]	@ D.6006, xReturn
1886:FreeRTOS/queue.c **** }
 2408              		.loc 1 1886 0
 2409 0028 1846     		mov	r0, r3	@, <retval>
 2410 002a 1037     		adds	r7, r7, #16	@,,
 2411              		.cfi_def_cfa_offset 8
 2412 002c BD46     		mov	sp, r7	@,
 2413              		.cfi_def_cfa_register 13
 2414              		@ sp needed	@
 2415 002e 80BD     		pop	{r7, pc}	@
 2416              		.cfi_endproc
 2417              	.LFE24:
 2418              		.size	prvIsQueueFull, .-prvIsQueueFull
 2419              		.section	.text.xQueueIsQueueFullFromISR,"ax",%progbits
 2420              		.align	2
 2421              		.global	xQueueIsQueueFullFromISR
 2422              		.thumb
 2423              		.thumb_func
 2424              		.type	xQueueIsQueueFullFromISR, %function
 2425              	xQueueIsQueueFullFromISR:
 2426              	.LFB25:
1887:FreeRTOS/queue.c **** /*-----------------------------------------------------------*/
1888:FreeRTOS/queue.c **** 
1889:FreeRTOS/queue.c **** BaseT_t xQueueIsQueueFullFromISR( const QueueHandle_t xQueue )
1890:FreeRTOS/queue.c **** {
 2427              		.loc 1 1890 0
 2428              		.cfi_startproc
 2429              		@ args = 0, pretend = 0, frame = 16
 2430              		@ frame_needed = 1, uses_anonymous_args = 0
 2431 0000 80B5     		push	{r7, lr}	@
 2432              		.cfi_def_cfa_offset 8
 2433              		.cfi_offset 7, -8
 2434              		.cfi_offset 14, -4
 2435 0002 84B0     		sub	sp, sp, #16	@,,
 2436              		.cfi_def_cfa_offset 24
 2437 0004 00AF     		add	r7, sp, #0	@,,
 2438              		.cfi_def_cfa_register 7
 2439 0006 7860     		str	r0, [r7, #4]	@ xQueue, xQueue
1891:FreeRTOS/queue.c **** BaseT_t xReturn;
ARM GAS  C:\Users\COSMIN~1.MAR\AppData\Local\Temp\cc5hxLYL.s 			page 77


1892:FreeRTOS/queue.c **** 
1893:FreeRTOS/queue.c **** 	configASSERT( xQueue );
 2440              		.loc 1 1893 0
 2441 0008 7B68     		ldr	r3, [r7, #4]	@ tmp114, xQueue
 2442 000a 002B     		cmp	r3, #0	@ tmp114,
 2443 000c 02D1     		bne	.L192	@,
 2444              		.loc 1 1893 0 is_stmt 0 discriminator 1
 2445 000e FFF7FEFF 		bl	ulPortSetInterruptMask	@
 2446              	.L193:
 2447 0012 FEE7     		b	.L193	@
 2448              	.L192:
1894:FreeRTOS/queue.c **** 	if( ( ( Queue_t * ) xQueue )->uxMessagesWaiting == ( ( Queue_t * ) xQueue )->uxLength )
 2449              		.loc 1 1894 0 is_stmt 1
 2450 0014 7B68     		ldr	r3, [r7, #4]	@ tmp115, xQueue
 2451 0016 9A6B     		ldr	r2, [r3, #56]	@ D.6007, MEM[(struct Queue_t *)xQueue_2(D)].uxMessagesWaiting
 2452 0018 7B68     		ldr	r3, [r7, #4]	@ tmp116, xQueue
 2453 001a DB6B     		ldr	r3, [r3, #60]	@ D.6007, MEM[(struct Queue_t *)xQueue_2(D)].uxLength
 2454 001c 9A42     		cmp	r2, r3	@ D.6007, D.6007
 2455 001e 02D1     		bne	.L194	@,
1895:FreeRTOS/queue.c **** 	{
1896:FreeRTOS/queue.c **** 		xReturn = pdTRUE;
 2456              		.loc 1 1896 0
 2457 0020 0123     		movs	r3, #1	@ tmp117,
 2458 0022 FB60     		str	r3, [r7, #12]	@ tmp117, xReturn
 2459 0024 01E0     		b	.L195	@
 2460              	.L194:
1897:FreeRTOS/queue.c **** 	}
1898:FreeRTOS/queue.c **** 	else
1899:FreeRTOS/queue.c **** 	{
1900:FreeRTOS/queue.c **** 		xReturn = pdFALSE;
 2461              		.loc 1 1900 0
 2462 0026 0023     		movs	r3, #0	@ tmp118,
 2463 0028 FB60     		str	r3, [r7, #12]	@ tmp118, xReturn
 2464              	.L195:
1901:FreeRTOS/queue.c **** 	}
1902:FreeRTOS/queue.c **** 
1903:FreeRTOS/queue.c **** 	return xReturn;
 2465              		.loc 1 1903 0
 2466 002a FB68     		ldr	r3, [r7, #12]	@ D.6008, xReturn
1904:FreeRTOS/queue.c **** } /*lint !e818 xQueue could not be pointer to const because it is a typedef. */
 2467              		.loc 1 1904 0
 2468 002c 1846     		mov	r0, r3	@, <retval>
 2469 002e 1037     		adds	r7, r7, #16	@,,
 2470              		.cfi_def_cfa_offset 8
 2471 0030 BD46     		mov	sp, r7	@,
 2472              		.cfi_def_cfa_register 13
 2473              		@ sp needed	@
 2474 0032 80BD     		pop	{r7, pc}	@
 2475              		.cfi_endproc
 2476              	.LFE25:
 2477              		.size	xQueueIsQueueFullFromISR, .-xQueueIsQueueFullFromISR
 2478              		.section	.text.vQueueAddToRegistry,"ax",%progbits
 2479              		.align	2
 2480              		.global	vQueueAddToRegistry
 2481              		.thumb
 2482              		.thumb_func
 2483              		.type	vQueueAddToRegistry, %function
ARM GAS  C:\Users\COSMIN~1.MAR\AppData\Local\Temp\cc5hxLYL.s 			page 78


 2484              	vQueueAddToRegistry:
 2485              	.LFB26:
1905:FreeRTOS/queue.c **** /*-----------------------------------------------------------*/
1906:FreeRTOS/queue.c **** 
1907:FreeRTOS/queue.c **** #if ( configUSE_CO_ROUTINES == 1 )
1908:FreeRTOS/queue.c **** 
1909:FreeRTOS/queue.c **** 	BaseT_t xQueueCRSend( QueueHandle_t xQueue, const void *pvItemToQueue, TickT_t xTicksToWait )
1910:FreeRTOS/queue.c **** 	{
1911:FreeRTOS/queue.c **** 	BaseT_t xReturn;
1912:FreeRTOS/queue.c **** 	Queue_t * const pxQueue = ( Queue_t * ) xQueue;
1913:FreeRTOS/queue.c **** 
1914:FreeRTOS/queue.c **** 		/* If the queue is already full we may have to block.  A critical section
1915:FreeRTOS/queue.c **** 		is required to prevent an interrupt removing something from the queue
1916:FreeRTOS/queue.c **** 		between the check to see if the queue is full and blocking on the queue. */
1917:FreeRTOS/queue.c **** 		portDISABLE_INTERRUPTS();
1918:FreeRTOS/queue.c **** 		{
1919:FreeRTOS/queue.c **** 			if( prvIsQueueFull( pxQueue ) != pdFALSE )
1920:FreeRTOS/queue.c **** 			{
1921:FreeRTOS/queue.c **** 				/* The queue is full - do we want to block or just leave without
1922:FreeRTOS/queue.c **** 				posting? */
1923:FreeRTOS/queue.c **** 				if( xTicksToWait > ( TickT_t ) 0 )
1924:FreeRTOS/queue.c **** 				{
1925:FreeRTOS/queue.c **** 					/* As this is called from a coroutine we cannot block directly, but
1926:FreeRTOS/queue.c **** 					return indicating that we need to block. */
1927:FreeRTOS/queue.c **** 					vCoRoutineAddToDelayedList( xTicksToWait, &( pxQueue->xTasksWaitingToSend ) );
1928:FreeRTOS/queue.c **** 					portENABLE_INTERRUPTS();
1929:FreeRTOS/queue.c **** 					return errQUEUE_BLOCKED;
1930:FreeRTOS/queue.c **** 				}
1931:FreeRTOS/queue.c **** 				else
1932:FreeRTOS/queue.c **** 				{
1933:FreeRTOS/queue.c **** 					portENABLE_INTERRUPTS();
1934:FreeRTOS/queue.c **** 					return errQUEUE_FULL;
1935:FreeRTOS/queue.c **** 				}
1936:FreeRTOS/queue.c **** 			}
1937:FreeRTOS/queue.c **** 		}
1938:FreeRTOS/queue.c **** 		portENABLE_INTERRUPTS();
1939:FreeRTOS/queue.c **** 
1940:FreeRTOS/queue.c **** 		portDISABLE_INTERRUPTS();
1941:FreeRTOS/queue.c **** 		{
1942:FreeRTOS/queue.c **** 			if( pxQueue->uxMessagesWaiting < pxQueue->uxLength )
1943:FreeRTOS/queue.c **** 			{
1944:FreeRTOS/queue.c **** 				/* There is room in the queue, copy the data into the queue. */
1945:FreeRTOS/queue.c **** 				prvCopyDataToQueue( pxQueue, pvItemToQueue, queueSEND_TO_BACK );
1946:FreeRTOS/queue.c **** 				xReturn = pdPASS;
1947:FreeRTOS/queue.c **** 
1948:FreeRTOS/queue.c **** 				/* Were any co-routines waiting for data to become available? */
1949:FreeRTOS/queue.c **** 				if( listLIST_IS_EMPTY( &( pxQueue->xTasksWaitingToReceive ) ) == pdFALSE )
1950:FreeRTOS/queue.c **** 				{
1951:FreeRTOS/queue.c **** 					/* In this instance the co-routine could be placed directly
1952:FreeRTOS/queue.c **** 					into the ready list as we are within a critical section.
1953:FreeRTOS/queue.c **** 					Instead the same pending ready list mechanism is used as if
1954:FreeRTOS/queue.c **** 					the event were caused from within an interrupt. */
1955:FreeRTOS/queue.c **** 					if( xCoRoutineRemoveFromEventList( &( pxQueue->xTasksWaitingToReceive ) ) != pdFALSE )
1956:FreeRTOS/queue.c **** 					{
1957:FreeRTOS/queue.c **** 						/* The co-routine waiting has a higher priority so record
1958:FreeRTOS/queue.c **** 						that a yield might be appropriate. */
1959:FreeRTOS/queue.c **** 						xReturn = errQUEUE_YIELD;
ARM GAS  C:\Users\COSMIN~1.MAR\AppData\Local\Temp\cc5hxLYL.s 			page 79


1960:FreeRTOS/queue.c **** 					}
1961:FreeRTOS/queue.c **** 					else
1962:FreeRTOS/queue.c **** 					{
1963:FreeRTOS/queue.c **** 						mtCOVERAGE_TEST_MARKER();
1964:FreeRTOS/queue.c **** 					}
1965:FreeRTOS/queue.c **** 				}
1966:FreeRTOS/queue.c **** 				else
1967:FreeRTOS/queue.c **** 				{
1968:FreeRTOS/queue.c **** 					mtCOVERAGE_TEST_MARKER();
1969:FreeRTOS/queue.c **** 				}
1970:FreeRTOS/queue.c **** 			}
1971:FreeRTOS/queue.c **** 			else
1972:FreeRTOS/queue.c **** 			{
1973:FreeRTOS/queue.c **** 				xReturn = errQUEUE_FULL;
1974:FreeRTOS/queue.c **** 			}
1975:FreeRTOS/queue.c **** 		}
1976:FreeRTOS/queue.c **** 		portENABLE_INTERRUPTS();
1977:FreeRTOS/queue.c **** 
1978:FreeRTOS/queue.c **** 		return xReturn;
1979:FreeRTOS/queue.c **** 	}
1980:FreeRTOS/queue.c **** 
1981:FreeRTOS/queue.c **** #endif /* configUSE_CO_ROUTINES */
1982:FreeRTOS/queue.c **** /*-----------------------------------------------------------*/
1983:FreeRTOS/queue.c **** 
1984:FreeRTOS/queue.c **** #if ( configUSE_CO_ROUTINES == 1 )
1985:FreeRTOS/queue.c **** 
1986:FreeRTOS/queue.c **** 	BaseT_t xQueueCRReceive( QueueHandle_t xQueue, void *pvBuffer, TickT_t xTicksToWait )
1987:FreeRTOS/queue.c **** 	{
1988:FreeRTOS/queue.c **** 	BaseT_t xReturn;
1989:FreeRTOS/queue.c **** 	Queue_t * const pxQueue = ( Queue_t * ) xQueue;
1990:FreeRTOS/queue.c **** 
1991:FreeRTOS/queue.c **** 		/* If the queue is already empty we may have to block.  A critical section
1992:FreeRTOS/queue.c **** 		is required to prevent an interrupt adding something to the queue
1993:FreeRTOS/queue.c **** 		between the check to see if the queue is empty and blocking on the queue. */
1994:FreeRTOS/queue.c **** 		portDISABLE_INTERRUPTS();
1995:FreeRTOS/queue.c **** 		{
1996:FreeRTOS/queue.c **** 			if( pxQueue->uxMessagesWaiting == ( UBaseT_t ) 0 )
1997:FreeRTOS/queue.c **** 			{
1998:FreeRTOS/queue.c **** 				/* There are no messages in the queue, do we want to block or just
1999:FreeRTOS/queue.c **** 				leave with nothing? */
2000:FreeRTOS/queue.c **** 				if( xTicksToWait > ( TickT_t ) 0 )
2001:FreeRTOS/queue.c **** 				{
2002:FreeRTOS/queue.c **** 					/* As this is a co-routine we cannot block directly, but return
2003:FreeRTOS/queue.c **** 					indicating that we need to block. */
2004:FreeRTOS/queue.c **** 					vCoRoutineAddToDelayedList( xTicksToWait, &( pxQueue->xTasksWaitingToReceive ) );
2005:FreeRTOS/queue.c **** 					portENABLE_INTERRUPTS();
2006:FreeRTOS/queue.c **** 					return errQUEUE_BLOCKED;
2007:FreeRTOS/queue.c **** 				}
2008:FreeRTOS/queue.c **** 				else
2009:FreeRTOS/queue.c **** 				{
2010:FreeRTOS/queue.c **** 					portENABLE_INTERRUPTS();
2011:FreeRTOS/queue.c **** 					return errQUEUE_FULL;
2012:FreeRTOS/queue.c **** 				}
2013:FreeRTOS/queue.c **** 			}
2014:FreeRTOS/queue.c **** 			else
2015:FreeRTOS/queue.c **** 			{
2016:FreeRTOS/queue.c **** 				mtCOVERAGE_TEST_MARKER();
ARM GAS  C:\Users\COSMIN~1.MAR\AppData\Local\Temp\cc5hxLYL.s 			page 80


2017:FreeRTOS/queue.c **** 			}
2018:FreeRTOS/queue.c **** 		}
2019:FreeRTOS/queue.c **** 		portENABLE_INTERRUPTS();
2020:FreeRTOS/queue.c **** 
2021:FreeRTOS/queue.c **** 		portDISABLE_INTERRUPTS();
2022:FreeRTOS/queue.c **** 		{
2023:FreeRTOS/queue.c **** 			if( pxQueue->uxMessagesWaiting > ( UBaseT_t ) 0 )
2024:FreeRTOS/queue.c **** 			{
2025:FreeRTOS/queue.c **** 				/* Data is available from the queue. */
2026:FreeRTOS/queue.c **** 				pxQueue->u.pcReadFrom += pxQueue->uxItemSize;
2027:FreeRTOS/queue.c **** 				if( pxQueue->u.pcReadFrom >= pxQueue->pcTail )
2028:FreeRTOS/queue.c **** 				{
2029:FreeRTOS/queue.c **** 					pxQueue->u.pcReadFrom = pxQueue->pcHead;
2030:FreeRTOS/queue.c **** 				}
2031:FreeRTOS/queue.c **** 				else
2032:FreeRTOS/queue.c **** 				{
2033:FreeRTOS/queue.c **** 					mtCOVERAGE_TEST_MARKER();
2034:FreeRTOS/queue.c **** 				}
2035:FreeRTOS/queue.c **** 				--( pxQueue->uxMessagesWaiting );
2036:FreeRTOS/queue.c **** 				( void ) memcpy( ( void * ) pvBuffer, ( void * ) pxQueue->u.pcReadFrom, ( unsigned ) pxQueue->u
2037:FreeRTOS/queue.c **** 
2038:FreeRTOS/queue.c **** 				xReturn = pdPASS;
2039:FreeRTOS/queue.c **** 
2040:FreeRTOS/queue.c **** 				/* Were any co-routines waiting for space to become available? */
2041:FreeRTOS/queue.c **** 				if( listLIST_IS_EMPTY( &( pxQueue->xTasksWaitingToSend ) ) == pdFALSE )
2042:FreeRTOS/queue.c **** 				{
2043:FreeRTOS/queue.c **** 					/* In this instance the co-routine could be placed directly
2044:FreeRTOS/queue.c **** 					into the ready list as we are within a critical section.
2045:FreeRTOS/queue.c **** 					Instead the same pending ready list mechanism is used as if
2046:FreeRTOS/queue.c **** 					the event were caused from within an interrupt. */
2047:FreeRTOS/queue.c **** 					if( xCoRoutineRemoveFromEventList( &( pxQueue->xTasksWaitingToSend ) ) != pdFALSE )
2048:FreeRTOS/queue.c **** 					{
2049:FreeRTOS/queue.c **** 						xReturn = errQUEUE_YIELD;
2050:FreeRTOS/queue.c **** 					}
2051:FreeRTOS/queue.c **** 					else
2052:FreeRTOS/queue.c **** 					{
2053:FreeRTOS/queue.c **** 						mtCOVERAGE_TEST_MARKER();
2054:FreeRTOS/queue.c **** 					}
2055:FreeRTOS/queue.c **** 				}
2056:FreeRTOS/queue.c **** 				else
2057:FreeRTOS/queue.c **** 				{
2058:FreeRTOS/queue.c **** 					mtCOVERAGE_TEST_MARKER();
2059:FreeRTOS/queue.c **** 				}
2060:FreeRTOS/queue.c **** 			}
2061:FreeRTOS/queue.c **** 			else
2062:FreeRTOS/queue.c **** 			{
2063:FreeRTOS/queue.c **** 				xReturn = pdFAIL;
2064:FreeRTOS/queue.c **** 			}
2065:FreeRTOS/queue.c **** 		}
2066:FreeRTOS/queue.c **** 		portENABLE_INTERRUPTS();
2067:FreeRTOS/queue.c **** 
2068:FreeRTOS/queue.c **** 		return xReturn;
2069:FreeRTOS/queue.c **** 	}
2070:FreeRTOS/queue.c **** 
2071:FreeRTOS/queue.c **** #endif /* configUSE_CO_ROUTINES */
2072:FreeRTOS/queue.c **** /*-----------------------------------------------------------*/
2073:FreeRTOS/queue.c **** 
ARM GAS  C:\Users\COSMIN~1.MAR\AppData\Local\Temp\cc5hxLYL.s 			page 81


2074:FreeRTOS/queue.c **** #if ( configUSE_CO_ROUTINES == 1 )
2075:FreeRTOS/queue.c **** 
2076:FreeRTOS/queue.c **** 	BaseT_t xQueueCRSendFromISR( QueueHandle_t xQueue, const void *pvItemToQueue, BaseT_t xCoRoutinePr
2077:FreeRTOS/queue.c **** 	{
2078:FreeRTOS/queue.c **** 	Queue_t * const pxQueue = ( Queue_t * ) xQueue;
2079:FreeRTOS/queue.c **** 
2080:FreeRTOS/queue.c **** 		/* Cannot block within an ISR so if there is no space on the queue then
2081:FreeRTOS/queue.c **** 		exit without doing anything. */
2082:FreeRTOS/queue.c **** 		if( pxQueue->uxMessagesWaiting < pxQueue->uxLength )
2083:FreeRTOS/queue.c **** 		{
2084:FreeRTOS/queue.c **** 			prvCopyDataToQueue( pxQueue, pvItemToQueue, queueSEND_TO_BACK );
2085:FreeRTOS/queue.c **** 
2086:FreeRTOS/queue.c **** 			/* We only want to wake one co-routine per ISR, so check that a
2087:FreeRTOS/queue.c **** 			co-routine has not already been woken. */
2088:FreeRTOS/queue.c **** 			if( xCoRoutinePreviouslyWoken == pdFALSE )
2089:FreeRTOS/queue.c **** 			{
2090:FreeRTOS/queue.c **** 				if( listLIST_IS_EMPTY( &( pxQueue->xTasksWaitingToReceive ) ) == pdFALSE )
2091:FreeRTOS/queue.c **** 				{
2092:FreeRTOS/queue.c **** 					if( xCoRoutineRemoveFromEventList( &( pxQueue->xTasksWaitingToReceive ) ) != pdFALSE )
2093:FreeRTOS/queue.c **** 					{
2094:FreeRTOS/queue.c **** 						return pdTRUE;
2095:FreeRTOS/queue.c **** 					}
2096:FreeRTOS/queue.c **** 					else
2097:FreeRTOS/queue.c **** 					{
2098:FreeRTOS/queue.c **** 						mtCOVERAGE_TEST_MARKER();
2099:FreeRTOS/queue.c **** 					}
2100:FreeRTOS/queue.c **** 				}
2101:FreeRTOS/queue.c **** 				else
2102:FreeRTOS/queue.c **** 				{
2103:FreeRTOS/queue.c **** 					mtCOVERAGE_TEST_MARKER();
2104:FreeRTOS/queue.c **** 				}
2105:FreeRTOS/queue.c **** 			}
2106:FreeRTOS/queue.c **** 			else
2107:FreeRTOS/queue.c **** 			{
2108:FreeRTOS/queue.c **** 				mtCOVERAGE_TEST_MARKER();
2109:FreeRTOS/queue.c **** 			}
2110:FreeRTOS/queue.c **** 		}
2111:FreeRTOS/queue.c **** 		else
2112:FreeRTOS/queue.c **** 		{
2113:FreeRTOS/queue.c **** 			mtCOVERAGE_TEST_MARKER();
2114:FreeRTOS/queue.c **** 		}
2115:FreeRTOS/queue.c **** 
2116:FreeRTOS/queue.c **** 		return xCoRoutinePreviouslyWoken;
2117:FreeRTOS/queue.c **** 	}
2118:FreeRTOS/queue.c **** 
2119:FreeRTOS/queue.c **** #endif /* configUSE_CO_ROUTINES */
2120:FreeRTOS/queue.c **** /*-----------------------------------------------------------*/
2121:FreeRTOS/queue.c **** 
2122:FreeRTOS/queue.c **** #if ( configUSE_CO_ROUTINES == 1 )
2123:FreeRTOS/queue.c **** 
2124:FreeRTOS/queue.c **** 	BaseT_t xQueueCRReceiveFromISR( QueueHandle_t xQueue, void *pvBuffer, BaseT_t *pxCoRoutineWoken )
2125:FreeRTOS/queue.c **** 	{
2126:FreeRTOS/queue.c **** 	BaseT_t xReturn;
2127:FreeRTOS/queue.c **** 	Queue_t * const pxQueue = ( Queue_t * ) xQueue;
2128:FreeRTOS/queue.c **** 
2129:FreeRTOS/queue.c **** 		/* We cannot block from an ISR, so check there is data available. If
2130:FreeRTOS/queue.c **** 		not then just leave without doing anything. */
ARM GAS  C:\Users\COSMIN~1.MAR\AppData\Local\Temp\cc5hxLYL.s 			page 82


2131:FreeRTOS/queue.c **** 		if( pxQueue->uxMessagesWaiting > ( UBaseT_t ) 0 )
2132:FreeRTOS/queue.c **** 		{
2133:FreeRTOS/queue.c **** 			/* Copy the data from the queue. */
2134:FreeRTOS/queue.c **** 			pxQueue->u.pcReadFrom += pxQueue->uxItemSize;
2135:FreeRTOS/queue.c **** 			if( pxQueue->u.pcReadFrom >= pxQueue->pcTail )
2136:FreeRTOS/queue.c **** 			{
2137:FreeRTOS/queue.c **** 				pxQueue->u.pcReadFrom = pxQueue->pcHead;
2138:FreeRTOS/queue.c **** 			}
2139:FreeRTOS/queue.c **** 			else
2140:FreeRTOS/queue.c **** 			{
2141:FreeRTOS/queue.c **** 				mtCOVERAGE_TEST_MARKER();
2142:FreeRTOS/queue.c **** 			}
2143:FreeRTOS/queue.c **** 			--( pxQueue->uxMessagesWaiting );
2144:FreeRTOS/queue.c **** 			( void ) memcpy( ( void * ) pvBuffer, ( void * ) pxQueue->u.pcReadFrom, ( unsigned ) pxQueue->ux
2145:FreeRTOS/queue.c **** 
2146:FreeRTOS/queue.c **** 			if( ( *pxCoRoutineWoken ) == pdFALSE )
2147:FreeRTOS/queue.c **** 			{
2148:FreeRTOS/queue.c **** 				if( listLIST_IS_EMPTY( &( pxQueue->xTasksWaitingToSend ) ) == pdFALSE )
2149:FreeRTOS/queue.c **** 				{
2150:FreeRTOS/queue.c **** 					if( xCoRoutineRemoveFromEventList( &( pxQueue->xTasksWaitingToSend ) ) != pdFALSE )
2151:FreeRTOS/queue.c **** 					{
2152:FreeRTOS/queue.c **** 						*pxCoRoutineWoken = pdTRUE;
2153:FreeRTOS/queue.c **** 					}
2154:FreeRTOS/queue.c **** 					else
2155:FreeRTOS/queue.c **** 					{
2156:FreeRTOS/queue.c **** 						mtCOVERAGE_TEST_MARKER();
2157:FreeRTOS/queue.c **** 					}
2158:FreeRTOS/queue.c **** 				}
2159:FreeRTOS/queue.c **** 				else
2160:FreeRTOS/queue.c **** 				{
2161:FreeRTOS/queue.c **** 					mtCOVERAGE_TEST_MARKER();
2162:FreeRTOS/queue.c **** 				}
2163:FreeRTOS/queue.c **** 			}
2164:FreeRTOS/queue.c **** 			else
2165:FreeRTOS/queue.c **** 			{
2166:FreeRTOS/queue.c **** 				mtCOVERAGE_TEST_MARKER();
2167:FreeRTOS/queue.c **** 			}
2168:FreeRTOS/queue.c **** 
2169:FreeRTOS/queue.c **** 			xReturn = pdPASS;
2170:FreeRTOS/queue.c **** 		}
2171:FreeRTOS/queue.c **** 		else
2172:FreeRTOS/queue.c **** 		{
2173:FreeRTOS/queue.c **** 			xReturn = pdFAIL;
2174:FreeRTOS/queue.c **** 		}
2175:FreeRTOS/queue.c **** 
2176:FreeRTOS/queue.c **** 		return xReturn;
2177:FreeRTOS/queue.c **** 	}
2178:FreeRTOS/queue.c **** 
2179:FreeRTOS/queue.c **** #endif /* configUSE_CO_ROUTINES */
2180:FreeRTOS/queue.c **** /*-----------------------------------------------------------*/
2181:FreeRTOS/queue.c **** 
2182:FreeRTOS/queue.c **** #if ( configQUEUE_REGISTRY_SIZE > 0 )
2183:FreeRTOS/queue.c **** 
2184:FreeRTOS/queue.c **** 	void vQueueAddToRegistry( QueueHandle_t xQueue, const char *pcQueueName ) /*lint !e971 Unqualified
2185:FreeRTOS/queue.c **** 	{
 2486              		.loc 1 2185 0
 2487              		.cfi_startproc
ARM GAS  C:\Users\COSMIN~1.MAR\AppData\Local\Temp\cc5hxLYL.s 			page 83


 2488              		@ args = 0, pretend = 0, frame = 16
 2489              		@ frame_needed = 1, uses_anonymous_args = 0
 2490              		@ link register save eliminated.
 2491 0000 80B4     		push	{r7}	@
 2492              		.cfi_def_cfa_offset 4
 2493              		.cfi_offset 7, -4
 2494 0002 85B0     		sub	sp, sp, #20	@,,
 2495              		.cfi_def_cfa_offset 24
 2496 0004 00AF     		add	r7, sp, #0	@,,
 2497              		.cfi_def_cfa_register 7
 2498 0006 7860     		str	r0, [r7, #4]	@ xQueue, xQueue
 2499 0008 3960     		str	r1, [r7]	@ pcQueueName, pcQueueName
2186:FreeRTOS/queue.c **** 	UBaseT_t ux;
2187:FreeRTOS/queue.c **** 
2188:FreeRTOS/queue.c **** 		/* See if there is an empty space in the registry.  A NULL name denotes
2189:FreeRTOS/queue.c **** 		a free slot. */
2190:FreeRTOS/queue.c **** 		for( ux = ( UBaseT_t ) 0U; ux < ( UBaseT_t ) configQUEUE_REGISTRY_SIZE; ux++ )
 2500              		.loc 1 2190 0
 2501 000a 0023     		movs	r3, #0	@ tmp111,
 2502 000c FB60     		str	r3, [r7, #12]	@ tmp111, ux
 2503 000e 14E0     		b	.L198	@
 2504              	.L201:
2191:FreeRTOS/queue.c **** 		{
2192:FreeRTOS/queue.c **** 			if( xQueueRegistry[ ux ].pcQueueName == NULL )
 2505              		.loc 1 2192 0
 2506 0010 0E4A     		ldr	r2, .L202	@ tmp112,
