ARM GAS  C:\Users\STUDENT\AppData\Local\Temp\cc8Rqz9J.s 			page 1


   1              		.syntax unified
   2              		.cpu cortex-m3
   3              		.fpu softvfp
   4              		.eabi_attribute 20, 1	@ Tag_ABI_FP_denormal
   5              		.eabi_attribute 21, 1	@ Tag_ABI_FP_exceptions
   6              		.eabi_attribute 23, 3	@ Tag_ABI_FP_number_model
   7              		.eabi_attribute 24, 1	@ Tag_ABI_align8_needed
   8              		.eabi_attribute 25, 1	@ Tag_ABI_align8_preserved
   9              		.eabi_attribute 26, 1	@ Tag_ABI_enum_size
  10              		.eabi_attribute 30, 6	@ Tag_ABI_optimization_goals
  11              		.eabi_attribute 34, 1	@ Tag_CPU_unaligned_access
  12              		.eabi_attribute 18, 4	@ Tag_ABI_PCS_wchar_t
  13              		.file	"rc_pinsel.c"
  14              	@ GNU C89 (GNU Tools for ARM Embedded Processors) version 5.4.1 20160919 (release) [ARM/embedded-5-
  15              	@	compiled by GNU C version 4.7.4, GMP version 4.3.2, MPFR version 2.4.2, MPC version 0.8.1
  16              	@ GGC heuristics: --param ggc-min-expand=100 --param ggc-min-heapsize=131072
  17              	@ options passed:  -I . -I config -I system -I core -I drivers -I FreeRTOS
  18              	@ -I FreeRTOS/include -I FreeRTOS/portable/GCC/ARM_CM3 -I FreeRTOS/portable
  19              	@ -I tasks/rc_task_leds -I modules/rc_leds -I drivers/rc_system
  20              	@ -I drivers/rc_gpio -I drivers/rc_uart -I drivers/rc_pinsel
  21              	@ -I drivers/rc_timer -I drivers/rc_adc -imultilib armv7-m
  22              	@ -iprefix c:\program files (x86)\gnu tools arm embedded\5.4 2016q3\bin\../lib/gcc/arm-none-eabi/5.
  23              	@ -isysroot c:\program files (x86)\gnu tools arm embedded\5.4 2016q3\bin\../arm-none-eabi
  24              	@ -MD out/rc_pinsel.d -MF out/rc_pinsel.d -MP -MQ out/rc_pinsel.o
  25              	@ -D__USES_INITFINI__ drivers/rc_pinsel/rc_pinsel.c -mcpu=cortex-m3 -mthumb
  26              	@ -auxbase-strip out/rc_pinsel.o -g -ggdb3 -O0 -Wall -Wstrict-prototypes
  27              	@ -Wextra -std=gnu90 -ffunction-sections -fdata-sections -fverbose-asm
  28              	@ options enabled:  -faggressive-loop-optimizations -fauto-inc-dec
  29              	@ -fchkp-check-incomplete-type -fchkp-check-read -fchkp-check-write
  30              	@ -fchkp-instrument-calls -fchkp-narrow-bounds -fchkp-optimize
  31              	@ -fchkp-store-bounds -fchkp-use-static-bounds
  32              	@ -fchkp-use-static-const-bounds -fchkp-use-wrappers -fcommon
  33              	@ -fdata-sections -fdelete-null-pointer-checks -fdwarf2-cfi-asm
  34              	@ -fearly-inlining -feliminate-unused-debug-types -ffunction-cse
  35              	@ -ffunction-sections -fgcse-lm -fgnu-runtime -fgnu-unique -fident
  36              	@ -finline-atomics -fira-hoist-pressure -fira-share-save-slots
  37              	@ -fira-share-spill-slots -fivopts -fkeep-static-consts
  38              	@ -fleading-underscore -flifetime-dse -flto-odr-type-merging -fmath-errno
  39              	@ -fmerge-debug-strings -fpeephole -fprefetch-loop-arrays
  40              	@ -freg-struct-return -fsched-critical-path-heuristic
  41              	@ -fsched-dep-count-heuristic -fsched-group-heuristic -fsched-interblock
  42              	@ -fsched-last-insn-heuristic -fsched-rank-heuristic -fsched-spec
  43              	@ -fsched-spec-insn-heuristic -fsched-stalled-insns-dep
  44              	@ -fsemantic-interposition -fshow-column -fsigned-zeros
  45              	@ -fsplit-ivs-in-unroller -fstdarg-opt -fstrict-volatile-bitfields
  46              	@ -fsync-libcalls -ftrapping-math -ftree-coalesce-vars -ftree-cselim
  47              	@ -ftree-forwprop -ftree-loop-if-convert -ftree-loop-im -ftree-loop-ivcanon
  48              	@ -ftree-loop-optimize -ftree-parallelize-loops= -ftree-phiprop
  49              	@ -ftree-reassoc -ftree-scev-cprop -funit-at-a-time -fverbose-asm
  50              	@ -fzero-initialized-in-bss -masm-syntax-unified -mfix-cortex-m3-ldrd
  51              	@ -mlittle-endian -mpic-data-is-text-relative -msched-prolog -mthumb
  52              	@ -munaligned-access -mvectorize-with-neon-quad
  53              	
  54              		.text
  55              	.Ltext0:
  56              		.cfi_sections	.debug_frame
  57              		.section	.text.rcpinsel_SetPinFunction,"ax",%progbits
ARM GAS  C:\Users\STUDENT\AppData\Local\Temp\cc8Rqz9J.s 			page 2


  58              		.align	2
  59              		.global	rcpinsel_SetPinFunction
  60              		.thumb
  61              		.thumb_func
  62              		.type	rcpinsel_SetPinFunction, %function
  63              	rcpinsel_SetPinFunction:
  64              	.LFB55:
  65              		.file 1 "drivers/rc_pinsel/rc_pinsel.c"
   1:drivers/rc_pinsel/rc_pinsel.c **** /**
   2:drivers/rc_pinsel/rc_pinsel.c ****  * \file	rc_pinsel.c
   3:drivers/rc_pinsel/rc_pinsel.c ****  * \brief	Pin selection functions
   4:drivers/rc_pinsel/rc_pinsel.c ****  * \details	Implements the functions which configures pins selection
   5:drivers/rc_pinsel/rc_pinsel.c ****  * \author	Cosmin Marcu
   6:drivers/rc_pinsel/rc_pinsel.c ****  * \date	12.06.2015
   7:drivers/rc_pinsel/rc_pinsel.c ****  * \version 1.0.1
   8:drivers/rc_pinsel/rc_pinsel.c ****  */
   9:drivers/rc_pinsel/rc_pinsel.c **** 
  10:drivers/rc_pinsel/rc_pinsel.c **** /* Includes */
  11:drivers/rc_pinsel/rc_pinsel.c **** #include "rc_pinsel.h"
  12:drivers/rc_pinsel/rc_pinsel.c **** 
  13:drivers/rc_pinsel/rc_pinsel.c **** /* Begin functions implementation */
  14:drivers/rc_pinsel/rc_pinsel.c **** 
  15:drivers/rc_pinsel/rc_pinsel.c **** /** \defgroup rc_pinsel Pin selection driver
  16:drivers/rc_pinsel/rc_pinsel.c ****   Contains the functions to set the pins attributes
  17:drivers/rc_pinsel/rc_pinsel.c **** */
  18:drivers/rc_pinsel/rc_pinsel.c **** 
  19:drivers/rc_pinsel/rc_pinsel.c **** /**
  20:drivers/rc_pinsel/rc_pinsel.c ****  * \ingroup  rc_pinsel
  21:drivers/rc_pinsel/rc_pinsel.c ****  * \defgroup Pinsel_functions Pin Selection Functions
  22:drivers/rc_pinsel/rc_pinsel.c ****  *  Functions definitions for the pin selection attributes
  23:drivers/rc_pinsel/rc_pinsel.c ****  *  @{
  24:drivers/rc_pinsel/rc_pinsel.c ****  */
  25:drivers/rc_pinsel/rc_pinsel.c **** /* Pinsel functions group: */
  26:drivers/rc_pinsel/rc_pinsel.c **** /**
  27:drivers/rc_pinsel/rc_pinsel.c ****  * \brief	Setup the pin selection function
  28:drivers/rc_pinsel/rc_pinsel.c ****  * \param	le_Port		Port number
  29:drivers/rc_pinsel/rc_pinsel.c ****  * \param	le_Pin		Pin number
  30:drivers/rc_pinsel/rc_pinsel.c ****  * \param	le_Function	Pin function number
  31:drivers/rc_pinsel/rc_pinsel.c ****  * \return 	none
  32:drivers/rc_pinsel/rc_pinsel.c ****  */
  33:drivers/rc_pinsel/rc_pinsel.c **** void rcpinsel_SetPinFunction(T_E_RC_IOPORTS le_Port, T_E_RC_IOPINS le_Pin, T_E_RCPINSEL_FUNC le_Fun
  34:drivers/rc_pinsel/rc_pinsel.c **** {
  66              		.loc 1 34 0
  67              		.cfi_startproc
  68              		@ args = 0, pretend = 0, frame = 8
  69              		@ frame_needed = 1, uses_anonymous_args = 0
  70 0000 80B5     		push	{r7, lr}	@
  71              		.cfi_def_cfa_offset 8
  72              		.cfi_offset 7, -8
  73              		.cfi_offset 14, -4
  74 0002 82B0     		sub	sp, sp, #8	@,,
  75              		.cfi_def_cfa_offset 16
  76 0004 00AF     		add	r7, sp, #0	@,,
  77              		.cfi_def_cfa_register 7
  78 0006 0346     		mov	r3, r0	@ tmp110, le_Port
  79 0008 FB71     		strb	r3, [r7, #7]	@ tmp111, le_Port
  80 000a 0B46     		mov	r3, r1	@ tmp113, tmp112
ARM GAS  C:\Users\STUDENT\AppData\Local\Temp\cc8Rqz9J.s 			page 3


  81 000c BB71     		strb	r3, [r7, #6]	@ tmp113, le_Pin
  82 000e 1346     		mov	r3, r2	@ tmp115, tmp114
  83 0010 7B71     		strb	r3, [r7, #5]	@ tmp115, le_Function
  35:drivers/rc_pinsel/rc_pinsel.c **** 	PINSEL_SetPinFunc((T_UBYTE)le_Port, (T_UBYTE)le_Pin, (T_UBYTE)le_Function);
  84              		.loc 1 35 0
  85 0012 7A79     		ldrb	r2, [r7, #5]	@ zero_extendqisi2	@ tmp116, le_Function
  86 0014 B979     		ldrb	r1, [r7, #6]	@ zero_extendqisi2	@ tmp117, le_Pin
  87 0016 FB79     		ldrb	r3, [r7, #7]	@ zero_extendqisi2	@ tmp118, le_Port
  88 0018 1846     		mov	r0, r3	@, tmp118
  89 001a FFF7FEFF 		bl	PINSEL_SetPinFunc	@
  36:drivers/rc_pinsel/rc_pinsel.c **** }
  90              		.loc 1 36 0
  91 001e 00BF     		nop
  92 0020 0837     		adds	r7, r7, #8	@,,
  93              		.cfi_def_cfa_offset 8
  94 0022 BD46     		mov	sp, r7	@,
  95              		.cfi_def_cfa_register 13
  96              		@ sp needed	@
  97 0024 80BD     		pop	{r7, pc}	@
  98              		.cfi_endproc
  99              	.LFE55:
 100              		.size	rcpinsel_SetPinFunction, .-rcpinsel_SetPinFunction
 101 0026 00BF     		.section	.text.rcpinsel_ConfigTraceFunction,"ax",%progbits
 102              		.align	2
 103              		.global	rcpinsel_ConfigTraceFunction
 104              		.thumb
 105              		.thumb_func
 106              		.type	rcpinsel_ConfigTraceFunction, %function
 107              	rcpinsel_ConfigTraceFunction:
 108              	.LFB56:
  37:drivers/rc_pinsel/rc_pinsel.c **** 
  38:drivers/rc_pinsel/rc_pinsel.c **** /**
  39:drivers/rc_pinsel/rc_pinsel.c ****  * \brief	Enable/Disable the trace function
  40:drivers/rc_pinsel/rc_pinsel.c ****  * \param	le_State	State of the trace function
  41:drivers/rc_pinsel/rc_pinsel.c ****  * \return 	none
  42:drivers/rc_pinsel/rc_pinsel.c ****  */
  43:drivers/rc_pinsel/rc_pinsel.c **** void rcpinsel_ConfigTraceFunction(T_E_RC_ENABLE le_State)
  44:drivers/rc_pinsel/rc_pinsel.c **** {
 109              		.loc 1 44 0
 110              		.cfi_startproc
 111              		@ args = 0, pretend = 0, frame = 8
 112              		@ frame_needed = 1, uses_anonymous_args = 0
 113 0000 80B5     		push	{r7, lr}	@
 114              		.cfi_def_cfa_offset 8
 115              		.cfi_offset 7, -8
 116              		.cfi_offset 14, -4
 117 0002 82B0     		sub	sp, sp, #8	@,,
 118              		.cfi_def_cfa_offset 16
 119 0004 00AF     		add	r7, sp, #0	@,,
 120              		.cfi_def_cfa_register 7
 121 0006 0346     		mov	r3, r0	@ tmp110, le_State
 122 0008 FB71     		strb	r3, [r7, #7]	@ tmp111, le_State
  45:drivers/rc_pinsel/rc_pinsel.c **** 	PINSEL_ConfigTraceFunc((T_UBYTE)le_State);
 123              		.loc 1 45 0
 124 000a FB79     		ldrb	r3, [r7, #7]	@ zero_extendqisi2	@ tmp112, le_State
 125 000c 1846     		mov	r0, r3	@, tmp112
 126 000e FFF7FEFF 		bl	PINSEL_ConfigTraceFunc	@
ARM GAS  C:\Users\STUDENT\AppData\Local\Temp\cc8Rqz9J.s 			page 4


  46:drivers/rc_pinsel/rc_pinsel.c **** }
 127              		.loc 1 46 0
 128 0012 00BF     		nop
 129 0014 0837     		adds	r7, r7, #8	@,,
 130              		.cfi_def_cfa_offset 8
 131 0016 BD46     		mov	sp, r7	@,
 132              		.cfi_def_cfa_register 13
 133              		@ sp needed	@
 134 0018 80BD     		pop	{r7, pc}	@
 135              		.cfi_endproc
 136              	.LFE56:
 137              		.size	rcpinsel_ConfigTraceFunction, .-rcpinsel_ConfigTraceFunction
 138 001a 00BF     		.section	.text.rcpinsel_SetResistorMode,"ax",%progbits
 139              		.align	2
 140              		.global	rcpinsel_SetResistorMode
 141              		.thumb
 142              		.thumb_func
 143              		.type	rcpinsel_SetResistorMode, %function
 144              	rcpinsel_SetResistorMode:
 145              	.LFB57:
  47:drivers/rc_pinsel/rc_pinsel.c **** 
  48:drivers/rc_pinsel/rc_pinsel.c **** /**
  49:drivers/rc_pinsel/rc_pinsel.c ****  * \brief	Setup the pin resistor mode
  50:drivers/rc_pinsel/rc_pinsel.c ****  * \param	le_Port		Port number
  51:drivers/rc_pinsel/rc_pinsel.c ****  * \param	le_Pin		Pin number
  52:drivers/rc_pinsel/rc_pinsel.c ****  * \param	le_Mode		Resistor mode (pullup, tri-state, pulldown)
  53:drivers/rc_pinsel/rc_pinsel.c ****  * \return 	none
  54:drivers/rc_pinsel/rc_pinsel.c ****  */
  55:drivers/rc_pinsel/rc_pinsel.c **** void rcpinsel_SetResistorMode(T_E_RC_IOPORTS le_Port, T_E_RC_IOPINS le_Pin, T_E_RCPINSEL_MODE le_Mo
  56:drivers/rc_pinsel/rc_pinsel.c **** {
 146              		.loc 1 56 0
 147              		.cfi_startproc
 148              		@ args = 0, pretend = 0, frame = 8
 149              		@ frame_needed = 1, uses_anonymous_args = 0
 150 0000 80B5     		push	{r7, lr}	@
 151              		.cfi_def_cfa_offset 8
 152              		.cfi_offset 7, -8
 153              		.cfi_offset 14, -4
 154 0002 82B0     		sub	sp, sp, #8	@,,
 155              		.cfi_def_cfa_offset 16
 156 0004 00AF     		add	r7, sp, #0	@,,
 157              		.cfi_def_cfa_register 7
 158 0006 0346     		mov	r3, r0	@ tmp110, le_Port
 159 0008 FB71     		strb	r3, [r7, #7]	@ tmp111, le_Port
 160 000a 0B46     		mov	r3, r1	@ tmp113, tmp112
 161 000c BB71     		strb	r3, [r7, #6]	@ tmp113, le_Pin
 162 000e 1346     		mov	r3, r2	@ tmp115, tmp114
 163 0010 7B71     		strb	r3, [r7, #5]	@ tmp115, le_Mode
  57:drivers/rc_pinsel/rc_pinsel.c **** 	PINSEL_SetResistorMode((T_UBYTE)le_Port, (T_UBYTE)le_Pin, (T_UBYTE)le_Mode);
 164              		.loc 1 57 0
 165 0012 7A79     		ldrb	r2, [r7, #5]	@ zero_extendqisi2	@ tmp116, le_Mode
 166 0014 B979     		ldrb	r1, [r7, #6]	@ zero_extendqisi2	@ tmp117, le_Pin
 167 0016 FB79     		ldrb	r3, [r7, #7]	@ zero_extendqisi2	@ tmp118, le_Port
 168 0018 1846     		mov	r0, r3	@, tmp118
 169 001a FFF7FEFF 		bl	PINSEL_SetResistorMode	@
  58:drivers/rc_pinsel/rc_pinsel.c **** }
 170              		.loc 1 58 0
ARM GAS  C:\Users\STUDENT\AppData\Local\Temp\cc8Rqz9J.s 			page 5


 171 001e 00BF     		nop
 172 0020 0837     		adds	r7, r7, #8	@,,
 173              		.cfi_def_cfa_offset 8
 174 0022 BD46     		mov	sp, r7	@,
 175              		.cfi_def_cfa_register 13
 176              		@ sp needed	@
 177 0024 80BD     		pop	{r7, pc}	@
 178              		.cfi_endproc
 179              	.LFE57:
 180              		.size	rcpinsel_SetResistorMode, .-rcpinsel_SetResistorMode
 181 0026 00BF     		.section	.text.rcpinsel_SetDrainMode,"ax",%progbits
 182              		.align	2
 183              		.global	rcpinsel_SetDrainMode
 184              		.thumb
 185              		.thumb_func
 186              		.type	rcpinsel_SetDrainMode, %function
 187              	rcpinsel_SetDrainMode:
 188              	.LFB58:
  59:drivers/rc_pinsel/rc_pinsel.c **** 
  60:drivers/rc_pinsel/rc_pinsel.c **** /**
  61:drivers/rc_pinsel/rc_pinsel.c ****  * \brief	Setup the pin drain mode
  62:drivers/rc_pinsel/rc_pinsel.c ****  * \param	le_Port		Port number
  63:drivers/rc_pinsel/rc_pinsel.c ****  * \param	le_Pin		Pin number
  64:drivers/rc_pinsel/rc_pinsel.c ****  * \param	le_Drain	Drain mode (Normal or Open)
  65:drivers/rc_pinsel/rc_pinsel.c ****  * \return 	none
  66:drivers/rc_pinsel/rc_pinsel.c ****  */
  67:drivers/rc_pinsel/rc_pinsel.c **** void rcpinsel_SetDrainMode(T_E_RC_IOPORTS le_Port, T_E_RC_IOPINS le_Pin, T_E_RCPINSEL_DRAIN le_Drai
  68:drivers/rc_pinsel/rc_pinsel.c **** {
 189              		.loc 1 68 0
 190              		.cfi_startproc
 191              		@ args = 0, pretend = 0, frame = 8
 192              		@ frame_needed = 1, uses_anonymous_args = 0
 193 0000 80B5     		push	{r7, lr}	@
 194              		.cfi_def_cfa_offset 8
 195              		.cfi_offset 7, -8
 196              		.cfi_offset 14, -4
 197 0002 82B0     		sub	sp, sp, #8	@,,
 198              		.cfi_def_cfa_offset 16
 199 0004 00AF     		add	r7, sp, #0	@,,
 200              		.cfi_def_cfa_register 7
 201 0006 0346     		mov	r3, r0	@ tmp110, le_Port
 202 0008 FB71     		strb	r3, [r7, #7]	@ tmp111, le_Port
 203 000a 0B46     		mov	r3, r1	@ tmp113, tmp112
 204 000c BB71     		strb	r3, [r7, #6]	@ tmp113, le_Pin
 205 000e 1346     		mov	r3, r2	@ tmp115, tmp114
 206 0010 7B71     		strb	r3, [r7, #5]	@ tmp115, le_Drain
  69:drivers/rc_pinsel/rc_pinsel.c **** 	PINSEL_SetOpenDrainMode((T_UBYTE)le_Port, (T_UBYTE)le_Pin, (T_UBYTE)le_Drain);
 207              		.loc 1 69 0
 208 0012 7A79     		ldrb	r2, [r7, #5]	@ zero_extendqisi2	@ tmp116, le_Drain
 209 0014 B979     		ldrb	r1, [r7, #6]	@ zero_extendqisi2	@ tmp117, le_Pin
 210 0016 FB79     		ldrb	r3, [r7, #7]	@ zero_extendqisi2	@ tmp118, le_Port
 211 0018 1846     		mov	r0, r3	@, tmp118
 212 001a FFF7FEFF 		bl	PINSEL_SetOpenDrainMode	@
  70:drivers/rc_pinsel/rc_pinsel.c **** }
 213              		.loc 1 70 0
 214 001e 00BF     		nop
 215 0020 0837     		adds	r7, r7, #8	@,,
ARM GAS  C:\Users\STUDENT\AppData\Local\Temp\cc8Rqz9J.s 			page 6


 216              		.cfi_def_cfa_offset 8
 217 0022 BD46     		mov	sp, r7	@,
 218              		.cfi_def_cfa_register 13
 219              		@ sp needed	@
 220 0024 80BD     		pop	{r7, pc}	@
 221              		.cfi_endproc
 222              	.LFE58:
 223              		.size	rcpinsel_SetDrainMode, .-rcpinsel_SetDrainMode
 224 0026 00BF     		.section	.text.rcpinsel_ConfigPin,"ax",%progbits
 225              		.align	2
 226              		.global	rcpinsel_ConfigPin
 227              		.thumb
 228              		.thumb_func
 229              		.type	rcpinsel_ConfigPin, %function
 230              	rcpinsel_ConfigPin:
 231              	.LFB59:
  71:drivers/rc_pinsel/rc_pinsel.c **** 
  72:drivers/rc_pinsel/rc_pinsel.c **** /**
  73:drivers/rc_pinsel/rc_pinsel.c ****  * \brief	Configure Pin specific parameters
  74:drivers/rc_pinsel/rc_pinsel.c ****  * \param	ls_Config	Pin configuration structure
  75:drivers/rc_pinsel/rc_pinsel.c ****  * \return 	none
  76:drivers/rc_pinsel/rc_pinsel.c ****  */
  77:drivers/rc_pinsel/rc_pinsel.c **** void rcpinsel_ConfigPin(T_RCPINSEL_CFG ls_Config)
  78:drivers/rc_pinsel/rc_pinsel.c **** {
 232              		.loc 1 78 0
 233              		.cfi_startproc
 234              		@ args = 0, pretend = 0, frame = 16
 235              		@ frame_needed = 1, uses_anonymous_args = 0
 236 0000 80B5     		push	{r7, lr}	@
 237              		.cfi_def_cfa_offset 8
 238              		.cfi_offset 7, -8
 239              		.cfi_offset 14, -4
 240 0002 84B0     		sub	sp, sp, #16	@,,
 241              		.cfi_def_cfa_offset 24
 242 0004 00AF     		add	r7, sp, #0	@,,
 243              		.cfi_def_cfa_register 7
 244 0006 3B46     		mov	r3, r7	@ tmp115,
 245 0008 83E80300 		stmia	r3, {r0, r1}	@ tmp115,,
  79:drivers/rc_pinsel/rc_pinsel.c **** 	PINSEL_CFG_Type ls_Pinsel_Config[1u];
  80:drivers/rc_pinsel/rc_pinsel.c **** 	/* Fill PINSEL configuration structure */
  81:drivers/rc_pinsel/rc_pinsel.c **** 	ls_Pinsel_Config[0].Portnum = ls_Config.e_Port;
 246              		.loc 1 81 0
 247 000c 3B78     		ldrb	r3, [r7]	@ zero_extendqisi2	@ D.5534, ls_Config.e_Port
 248 000e 3B72     		strb	r3, [r7, #8]	@ tmp116, ls_Pinsel_Config[0].Portnum
  82:drivers/rc_pinsel/rc_pinsel.c **** 	ls_Pinsel_Config[0].Pinnum = ls_Config.e_Pin;
 249              		.loc 1 82 0
 250 0010 7B78     		ldrb	r3, [r7, #1]	@ zero_extendqisi2	@ D.5535, ls_Config.e_Pin
 251 0012 7B72     		strb	r3, [r7, #9]	@ tmp117, ls_Pinsel_Config[0].Pinnum
  83:drivers/rc_pinsel/rc_pinsel.c **** 	ls_Pinsel_Config[0].Funcnum = ls_Config.e_Function;
 252              		.loc 1 83 0
 253 0014 BB78     		ldrb	r3, [r7, #2]	@ zero_extendqisi2	@ D.5536, ls_Config.e_Function
 254 0016 BB72     		strb	r3, [r7, #10]	@ tmp118, ls_Pinsel_Config[0].Funcnum
  84:drivers/rc_pinsel/rc_pinsel.c **** 	ls_Pinsel_Config[0].Pinmode = ls_Config.e_Mode;
 255              		.loc 1 84 0
 256 0018 FB78     		ldrb	r3, [r7, #3]	@ zero_extendqisi2	@ D.5537, ls_Config.e_Mode
 257 001a FB72     		strb	r3, [r7, #11]	@ tmp119, ls_Pinsel_Config[0].Pinmode
  85:drivers/rc_pinsel/rc_pinsel.c **** 	ls_Pinsel_Config[0].OpenDrain = ls_Config.e_Drain;
ARM GAS  C:\Users\STUDENT\AppData\Local\Temp\cc8Rqz9J.s 			page 7


 258              		.loc 1 85 0
 259 001c 3B79     		ldrb	r3, [r7, #4]	@ zero_extendqisi2	@ D.5538, ls_Config.e_Drain
 260 001e 3B73     		strb	r3, [r7, #12]	@ tmp120, ls_Pinsel_Config[0].OpenDrain
  86:drivers/rc_pinsel/rc_pinsel.c **** 	/* Call driver initializer */
  87:drivers/rc_pinsel/rc_pinsel.c **** 	PINSEL_ConfigPin(ls_Pinsel_Config);
 261              		.loc 1 87 0
 262 0020 07F10803 		add	r3, r7, #8	@ tmp121,,
 263 0024 1846     		mov	r0, r3	@, tmp121
 264 0026 FFF7FEFF 		bl	PINSEL_ConfigPin	@
  88:drivers/rc_pinsel/rc_pinsel.c **** }
 265              		.loc 1 88 0
 266 002a 00BF     		nop
 267 002c 1037     		adds	r7, r7, #16	@,,
 268              		.cfi_def_cfa_offset 8
 269 002e BD46     		mov	sp, r7	@,
 270              		.cfi_def_cfa_register 13
 271              		@ sp needed	@
 272 0030 80BD     		pop	{r7, pc}	@
 273              		.cfi_endproc
 274              	.LFE59:
 275              		.size	rcpinsel_ConfigPin, .-rcpinsel_ConfigPin
 276 0032 00BF     		.text
 277              	.Letext0:
 278              		.file 2 "c:\\program files (x86)\\gnu tools arm embedded\\5.4 2016q3\\arm-none-eabi\\include\\mach
 279              		.file 3 "c:\\program files (x86)\\gnu tools arm embedded\\5.4 2016q3\\arm-none-eabi\\include\\sys\
 280              		.file 4 "config/rc_stdtypedefs.h"
 281              		.file 5 "core/lpc17xx_pinsel.h"
 282              		.file 6 "drivers/rc_pinsel/rc_pinsel.h"
 283              		.file 7 "system/core_cm3.h"