ARM GAS  C:\Users\COSMIN~1.MAR\AppData\Local\Temp\ccvw7JOW.s 			page 1


   1              		.syntax unified
   2              		.cpu cortex-m3
   3              		.fpu softvfp
   4              		.eabi_attribute 20, 1	@ Tag_ABI_FP_denormal
   5              		.eabi_attribute 21, 1	@ Tag_ABI_FP_exceptions
   6              		.eabi_attribute 23, 3	@ Tag_ABI_FP_number_model
   7              		.eabi_attribute 24, 1	@ Tag_ABI_align8_needed
   8              		.eabi_attribute 25, 1	@ Tag_ABI_align8_preserved
   9              		.eabi_attribute 26, 1	@ Tag_ABI_enum_size
  10              		.eabi_attribute 30, 6	@ Tag_ABI_optimization_goals
  11              		.eabi_attribute 34, 1	@ Tag_CPU_unaligned_access
  12              		.eabi_attribute 18, 4	@ Tag_ABI_PCS_wchar_t
  13              		.file	"rc_scheduler.c"
  14              	@ GNU C (GNU Tools for ARM Embedded Processors) version 4.9.3 20150303 (release) [ARM/embedded-4_9-
  15              	@	compiled by GNU C version 4.7.4, GMP version 4.3.2, MPFR version 2.4.2, MPC version 0.8.1
  16              	@ GGC heuristics: --param ggc-min-expand=100 --param ggc-min-heapsize=131072
  17              	@ options passed:  -I . -I config -I system -I core -I drivers -I FreeRTOS
  18              	@ -I FreeRTOS/include -I FreeRTOS/portable/GCC/ARM_CM3 -I FreeRTOS/portable
  19              	@ -I tasks/rc_task_leds -I tasks/rc_task_xbee -I modules/rc_leds
  20              	@ -I modules/rc_xbee -I modules/rc_scheduler -I drivers/rc_system
  21              	@ -I drivers/rc_gpio -I drivers/rc_uart -I drivers/rc_pinsel
  22              	@ -I drivers/rc_timer -I drivers/rc_adc -imultilib armv7-m
  23              	@ -iprefix c:\gnu tools arm embedded\4.9 2015q1\bin\../lib/gcc/arm-none-eabi/4.9.3/
  24              	@ -isysroot c:\gnu tools arm embedded\4.9 2015q1\bin\../arm-none-eabi
  25              	@ -MD out/rc_scheduler.d -MF out/rc_scheduler.d -MP -MQ out/rc_scheduler.o
  26              	@ -D__USES_INITFINI__ modules/rc_scheduler/rc_scheduler.c -mcpu=cortex-m3
  27              	@ -mthumb -auxbase-strip out/rc_scheduler.o -g -ggdb3 -O0 -Wall
  28              	@ -Wstrict-prototypes -Wextra -std=gnu90 -ffunction-sections
  29              	@ -fdata-sections -fverbose-asm
  30              	@ options enabled:  -faggressive-loop-optimizations -fauto-inc-dec -fcommon
  31              	@ -fdata-sections -fdelete-null-pointer-checks -fdwarf2-cfi-asm
  32              	@ -fearly-inlining -feliminate-unused-debug-types -ffunction-cse
  33              	@ -ffunction-sections -fgcse-lm -fgnu-runtime -fgnu-unique -fident
  34              	@ -finline-atomics -fira-hoist-pressure -fira-share-save-slots
  35              	@ -fira-share-spill-slots -fivopts -fkeep-static-consts
  36              	@ -fleading-underscore -flifetime-dse -fmath-errno -fmerge-debug-strings
  37              	@ -fpeephole -fprefetch-loop-arrays -freg-struct-return
  38              	@ -fsched-critical-path-heuristic -fsched-dep-count-heuristic
  39              	@ -fsched-group-heuristic -fsched-interblock -fsched-last-insn-heuristic
  40              	@ -fsched-rank-heuristic -fsched-spec -fsched-spec-insn-heuristic
  41              	@ -fsched-stalled-insns-dep -fshow-column -fsigned-zeros
  42              	@ -fsplit-ivs-in-unroller -fstrict-volatile-bitfields -fsync-libcalls
  43              	@ -ftrapping-math -ftree-coalesce-vars -ftree-cselim -ftree-forwprop
  44              	@ -ftree-loop-if-convert -ftree-loop-im -ftree-loop-ivcanon
  45              	@ -ftree-loop-optimize -ftree-parallelize-loops= -ftree-phiprop
  46              	@ -ftree-reassoc -ftree-scev-cprop -funit-at-a-time -fverbose-asm
  47              	@ -fzero-initialized-in-bss -mfix-cortex-m3-ldrd -mlittle-endian -mlra
  48              	@ -mpic-data-is-text-relative -msched-prolog -mthumb -munaligned-access
  49              	@ -mvectorize-with-neon-quad
  50              	
  51              		.text
  52              	.Ltext0:
  53              		.cfi_sections	.debug_frame
  54              		.section	.text.NVIC_EnableIRQ,"ax",%progbits
  55              		.align	2
  56              		.thumb
  57              		.thumb_func
ARM GAS  C:\Users\COSMIN~1.MAR\AppData\Local\Temp\ccvw7JOW.s 			page 2


  58              		.type	NVIC_EnableIRQ, %function
  59              	NVIC_EnableIRQ:
  60              	.LFB40:
  61              		.file 1 "system/core_cm3.h"
   1:system/core_cm3.h **** /**************************************************************************//**
   2:system/core_cm3.h ****  * @file     core_cm3.h
   3:system/core_cm3.h ****  * @brief    CMSIS Cortex-M3 Core Peripheral Access Layer Header File
   4:system/core_cm3.h ****  * @version  V2.01
   5:system/core_cm3.h ****  * @date     06. December 2010
   6:system/core_cm3.h ****  *
   7:system/core_cm3.h ****  * @note
   8:system/core_cm3.h ****  * Copyright (C) 2009-2010 ARM Limited. All rights reserved.
   9:system/core_cm3.h ****  *
  10:system/core_cm3.h ****  * @par
  11:system/core_cm3.h ****  * ARM Limited (ARM) is supplying this software for use with Cortex-M
  12:system/core_cm3.h ****  * processor based microcontrollers.  This file can be freely distributed
  13:system/core_cm3.h ****  * within development tools that are supporting such ARM based processors.
  14:system/core_cm3.h ****  *
  15:system/core_cm3.h ****  * @par
  16:system/core_cm3.h ****  * THIS SOFTWARE IS PROVIDED "AS IS".  NO WARRANTIES, WHETHER EXPRESS, IMPLIED
  17:system/core_cm3.h ****  * OR STATUTORY, INCLUDING, BUT NOT LIMITED TO, IMPLIED WARRANTIES OF
  18:system/core_cm3.h ****  * MERCHANTABILITY AND FITNESS FOR A PARTICULAR PURPOSE APPLY TO THIS SOFTWARE.
  19:system/core_cm3.h ****  * ARM SHALL NOT, IN ANY CIRCUMSTANCES, BE LIABLE FOR SPECIAL, INCIDENTAL, OR
  20:system/core_cm3.h ****  * CONSEQUENTIAL DAMAGES, FOR ANY REASON WHATSOEVER.
  21:system/core_cm3.h ****  *
  22:system/core_cm3.h ****  ******************************************************************************/
  23:system/core_cm3.h **** #if defined ( __ICCARM__ )
  24:system/core_cm3.h ****  #pragma system_include  /* treat file as system include file for MISRA check */
  25:system/core_cm3.h **** #endif
  26:system/core_cm3.h **** 
  27:system/core_cm3.h **** #ifdef __cplusplus
  28:system/core_cm3.h ****  extern "C" {
  29:system/core_cm3.h **** #endif
  30:system/core_cm3.h **** 
  31:system/core_cm3.h **** #ifndef __CORE_CM3_H_GENERIC
  32:system/core_cm3.h **** #define __CORE_CM3_H_GENERIC
  33:system/core_cm3.h **** 
  34:system/core_cm3.h **** /** @addtogroup CMSIS_core_LintCinfiguration CMSIS Core Lint Configuration
  35:system/core_cm3.h ****   List of Lint messages which will be suppressed and not shown:
  36:system/core_cm3.h ****     - not yet checked
  37:system/core_cm3.h ****   .
  38:system/core_cm3.h ****   Note:  To re-enable a Message, insert a space before 'lint' *
  39:system/core_cm3.h **** 
  40:system/core_cm3.h ****  */
  41:system/core_cm3.h **** 
  42:system/core_cm3.h **** 
  43:system/core_cm3.h **** /*******************************************************************************
  44:system/core_cm3.h ****  *                 CMSIS definitions
  45:system/core_cm3.h ****  ******************************************************************************/
  46:system/core_cm3.h **** /** @addtogroup CMSIS_core_definitions CMSIS Core Definitions
  47:system/core_cm3.h ****   This file defines all structures and symbols for CMSIS core:
  48:system/core_cm3.h ****    - CMSIS version number
  49:system/core_cm3.h ****    - Cortex-M core
  50:system/core_cm3.h ****    - Cortex-M core Revision Number
  51:system/core_cm3.h ****   @{
  52:system/core_cm3.h ****  */
  53:system/core_cm3.h **** 
ARM GAS  C:\Users\COSMIN~1.MAR\AppData\Local\Temp\ccvw7JOW.s 			page 3


  54:system/core_cm3.h **** /*  CMSIS CM3 definitions */
  55:system/core_cm3.h **** #define __CM3_CMSIS_VERSION_MAIN  (0x02)                                                       /*!<
  56:system/core_cm3.h **** #define __CM3_CMSIS_VERSION_SUB   (0x00)                                                       /*!<
  57:system/core_cm3.h **** #define __CM3_CMSIS_VERSION       ((__CM3_CMSIS_VERSION_MAIN << 16) | __CM3_CMSIS_VERSION_SUB) /*!<
  58:system/core_cm3.h **** 
  59:system/core_cm3.h **** #define __CORTEX_M                (0x03)                                                       /*!<
  60:system/core_cm3.h **** 
  61:system/core_cm3.h **** 
  62:system/core_cm3.h **** #if defined ( __CC_ARM   )
  63:system/core_cm3.h ****   #define __ASM            __asm                                      /*!< asm keyword for ARM Comp
  64:system/core_cm3.h ****   #define __INLINE         __inline                                   /*!< inline keyword for ARM C
  65:system/core_cm3.h **** 
  66:system/core_cm3.h **** #elif defined ( __ICCARM__ )
  67:system/core_cm3.h ****   #define __ASM           __asm                                       /*!< asm keyword for IAR Comp
  68:system/core_cm3.h ****   #define __INLINE        inline                                      /*!< inline keyword for IAR C
  69:system/core_cm3.h **** 
  70:system/core_cm3.h **** #elif defined   (  __GNUC__  )
  71:system/core_cm3.h ****   #define __ASM            __asm                                      /*!< asm keyword for GNU Comp
  72:system/core_cm3.h ****   #define __INLINE         inline                                     /*!< inline keyword for GNU C
  73:system/core_cm3.h **** 
  74:system/core_cm3.h **** #elif defined   (  __TASKING__  )
  75:system/core_cm3.h ****   #define __ASM            __asm                                      /*!< asm keyword for TASKING 
  76:system/core_cm3.h ****   #define __INLINE         inline                                     /*!< inline keyword for TASKI
  77:system/core_cm3.h **** 
  78:system/core_cm3.h **** #endif
  79:system/core_cm3.h **** 
  80:system/core_cm3.h **** #include <stdint.h>                      /*!< standard types definitions                      */
  81:system/core_cm3.h **** #include "core_cmInstr.h"                /*!< Core Instruction Access                         */
  82:system/core_cm3.h **** #include "core_cmFunc.h"                 /*!< Core Function Access                            */
  83:system/core_cm3.h **** 
  84:system/core_cm3.h **** #endif /* __CORE_CM3_H_GENERIC */
  85:system/core_cm3.h **** 
  86:system/core_cm3.h **** 
  87:system/core_cm3.h **** #ifndef __CMSIS_GENERIC
  88:system/core_cm3.h **** 
  89:system/core_cm3.h **** #ifndef __CORE_CM3_H_DEPENDANT
  90:system/core_cm3.h **** #define __CORE_CM3_H_DEPENDANT
  91:system/core_cm3.h **** 
  92:system/core_cm3.h **** /* IO definitions (access restrictions to peripheral registers) */
  93:system/core_cm3.h **** #ifdef __cplusplus
  94:system/core_cm3.h ****   #define     __I     volatile           /*!< defines 'read only' permissions                 */
  95:system/core_cm3.h **** #else
  96:system/core_cm3.h ****   #define     __I     volatile const     /*!< defines 'read only' permissions                 */
  97:system/core_cm3.h **** #endif
  98:system/core_cm3.h **** #define     __O     volatile             /*!< defines 'write only' permissions                */
  99:system/core_cm3.h **** #define     __IO    volatile             /*!< defines 'read / write' permissions              */
 100:system/core_cm3.h **** 
 101:system/core_cm3.h **** /*@} end of group CMSIS_core_definitions */
 102:system/core_cm3.h **** 
 103:system/core_cm3.h **** 
 104:system/core_cm3.h **** 
 105:system/core_cm3.h **** /*******************************************************************************
 106:system/core_cm3.h ****  *                 Register Abstraction
 107:system/core_cm3.h ****  ******************************************************************************/
 108:system/core_cm3.h **** /** @addtogroup CMSIS_core_register CMSIS Core Register
 109:system/core_cm3.h ****   Core Register contain:
 110:system/core_cm3.h ****   - Core Register
ARM GAS  C:\Users\COSMIN~1.MAR\AppData\Local\Temp\ccvw7JOW.s 			page 4


 111:system/core_cm3.h ****   - Core NVIC Register
 112:system/core_cm3.h ****   - Core SCB Register
 113:system/core_cm3.h ****   - Core SysTick Register
 114:system/core_cm3.h ****   - Core Debug Register
 115:system/core_cm3.h ****   - Core MPU Register
 116:system/core_cm3.h **** */
 117:system/core_cm3.h **** 
 118:system/core_cm3.h **** /** \ingroup  CMSIS_core_register
 119:system/core_cm3.h ****     \defgroup CMSIS_CORE CMSIS Core
 120:system/core_cm3.h ****   Type definitions for the Cortex-M Core Registers
 121:system/core_cm3.h ****   @{
 122:system/core_cm3.h ****  */
 123:system/core_cm3.h **** 
 124:system/core_cm3.h **** /** \brief  Union type to access the Application Program Status Register (APSR).
 125:system/core_cm3.h ****  */
 126:system/core_cm3.h **** typedef union
 127:system/core_cm3.h **** {
 128:system/core_cm3.h ****   struct
 129:system/core_cm3.h ****   {
 130:system/core_cm3.h **** #if (__CORTEX_M != 0x04)
 131:system/core_cm3.h ****     uint32_t _reserved0:27;              /*!< bit:  0..26  Reserved                           */
 132:system/core_cm3.h **** #else
 133:system/core_cm3.h ****     uint32_t _reserved0:16;              /*!< bit:  0..15  Reserved                           */
 134:system/core_cm3.h ****     uint32_t GE:4;                       /*!< bit: 16..19  Greater than or Equal flags        */
 135:system/core_cm3.h ****     uint32_t _reserved1:7;               /*!< bit: 20..26  Reserved                           */
 136:system/core_cm3.h **** #endif
 137:system/core_cm3.h ****     uint32_t Q:1;                        /*!< bit:     27  Saturation condition flag          */
 138:system/core_cm3.h ****     uint32_t V:1;                        /*!< bit:     28  Overflow condition code flag       */
 139:system/core_cm3.h ****     uint32_t C:1;                        /*!< bit:     29  Carry condition code flag          */
 140:system/core_cm3.h ****     uint32_t Z:1;                        /*!< bit:     30  Zero condition code flag           */
 141:system/core_cm3.h ****     uint32_t N:1;                        /*!< bit:     31  Negative condition code flag       */
 142:system/core_cm3.h ****   } b;                                   /*!< Structure used for bit  access                  */
 143:system/core_cm3.h ****   uint32_t w;                            /*!< Type      used for word access                  */
 144:system/core_cm3.h **** } APSR_Type;
 145:system/core_cm3.h **** 
 146:system/core_cm3.h **** 
 147:system/core_cm3.h **** /** \brief  Union type to access the Interrupt Program Status Register (IPSR).
 148:system/core_cm3.h ****  */
 149:system/core_cm3.h **** typedef union
 150:system/core_cm3.h **** {
 151:system/core_cm3.h ****   struct
 152:system/core_cm3.h ****   {
 153:system/core_cm3.h ****     uint32_t ISR:9;                      /*!< bit:  0.. 8  Exception number                   */
 154:system/core_cm3.h ****     uint32_t _reserved0:23;              /*!< bit:  9..31  Reserved                           */
 155:system/core_cm3.h ****   } b;                                   /*!< Structure used for bit  access                  */
 156:system/core_cm3.h ****   uint32_t w;                            /*!< Type      used for word access                  */
 157:system/core_cm3.h **** } IPSR_Type;
 158:system/core_cm3.h **** 
 159:system/core_cm3.h **** 
 160:system/core_cm3.h **** /** \brief  Union type to access the Special-Purpose Program Status Registers (xPSR).
 161:system/core_cm3.h ****  */
 162:system/core_cm3.h **** typedef union
 163:system/core_cm3.h **** {
 164:system/core_cm3.h ****   struct
 165:system/core_cm3.h ****   {
 166:system/core_cm3.h ****     uint32_t ISR:9;                      /*!< bit:  0.. 8  Exception number                   */
 167:system/core_cm3.h **** #if (__CORTEX_M != 0x04)
ARM GAS  C:\Users\COSMIN~1.MAR\AppData\Local\Temp\ccvw7JOW.s 			page 5


 168:system/core_cm3.h ****     uint32_t _reserved0:15;              /*!< bit:  9..23  Reserved                           */
 169:system/core_cm3.h **** #else
 170:system/core_cm3.h ****     uint32_t _reserved0:7;               /*!< bit:  9..15  Reserved                           */
 171:system/core_cm3.h ****     uint32_t GE:4;                       /*!< bit: 16..19  Greater than or Equal flags        */
 172:system/core_cm3.h ****     uint32_t _reserved1:4;               /*!< bit: 20..23  Reserved                           */
 173:system/core_cm3.h **** #endif
 174:system/core_cm3.h ****     uint32_t T:1;                        /*!< bit:     24  Thumb bit        (read 0)          */
 175:system/core_cm3.h ****     uint32_t IT:2;                       /*!< bit: 25..26  saved IT state   (read 0)          */
 176:system/core_cm3.h ****     uint32_t Q:1;                        /*!< bit:     27  Saturation condition flag          */
 177:system/core_cm3.h ****     uint32_t V:1;                        /*!< bit:     28  Overflow condition code flag       */
 178:system/core_cm3.h ****     uint32_t C:1;                        /*!< bit:     29  Carry condition code flag          */
 179:system/core_cm3.h ****     uint32_t Z:1;                        /*!< bit:     30  Zero condition code flag           */
 180:system/core_cm3.h ****     uint32_t N:1;                        /*!< bit:     31  Negative condition code flag       */
 181:system/core_cm3.h ****   } b;                                   /*!< Structure used for bit  access                  */
 182:system/core_cm3.h ****   uint32_t w;                            /*!< Type      used for word access                  */
 183:system/core_cm3.h **** } xPSR_Type;
 184:system/core_cm3.h **** 
 185:system/core_cm3.h **** 
 186:system/core_cm3.h **** /** \brief  Union type to access the Control Registers (CONTROL).
 187:system/core_cm3.h ****  */
 188:system/core_cm3.h **** typedef union
 189:system/core_cm3.h **** {
 190:system/core_cm3.h ****   struct
 191:system/core_cm3.h ****   {
 192:system/core_cm3.h ****     uint32_t nPRIV:1;                    /*!< bit:      0  Execution privilege in Thread mode */
 193:system/core_cm3.h ****     uint32_t SPSEL:1;                    /*!< bit:      1  Stack to be used                   */
 194:system/core_cm3.h ****     uint32_t FPCA:1;                     /*!< bit:      2  FP extension active flag           */
 195:system/core_cm3.h ****     uint32_t _reserved0:29;              /*!< bit:  3..31  Reserved                           */
 196:system/core_cm3.h ****   } b;                                   /*!< Structure used for bit  access                  */
 197:system/core_cm3.h ****   uint32_t w;                            /*!< Type      used for word access                  */
 198:system/core_cm3.h **** } CONTROL_Type;
 199:system/core_cm3.h **** 
 200:system/core_cm3.h **** /*@} end of group CMSIS_CORE */
 201:system/core_cm3.h **** 
 202:system/core_cm3.h **** 
 203:system/core_cm3.h **** /** \ingroup  CMSIS_core_register
 204:system/core_cm3.h ****     \defgroup CMSIS_NVIC CMSIS NVIC
 205:system/core_cm3.h ****   Type definitions for the Cortex-M NVIC Registers
 206:system/core_cm3.h ****   @{
 207:system/core_cm3.h ****  */
 208:system/core_cm3.h **** 
 209:system/core_cm3.h **** /** \brief  Structure type to access the Nested Vectored Interrupt Controller (NVIC).
 210:system/core_cm3.h ****  */
 211:system/core_cm3.h **** typedef struct
 212:system/core_cm3.h **** {
 213:system/core_cm3.h ****   __IO uint32_t ISER[8];                 /*!< Offset: 0x000 (R/W)  Interrupt Set Enable Register   
 214:system/core_cm3.h ****        uint32_t RESERVED0[24];
 215:system/core_cm3.h ****   __IO uint32_t ICER[8];                 /*!< Offset: 0x080 (R/W)  Interrupt Clear Enable Register 
 216:system/core_cm3.h ****        uint32_t RSERVED1[24];
 217:system/core_cm3.h ****   __IO uint32_t ISPR[8];                 /*!< Offset: 0x100 (R/W)  Interrupt Set Pending Register  
 218:system/core_cm3.h ****        uint32_t RESERVED2[24];
 219:system/core_cm3.h ****   __IO uint32_t ICPR[8];                 /*!< Offset: 0x180 (R/W)  Interrupt Clear Pending Register
 220:system/core_cm3.h ****        uint32_t RESERVED3[24];
 221:system/core_cm3.h ****   __IO uint32_t IABR[8];                 /*!< Offset: 0x200 (R/W)  Interrupt Active bit Register   
 222:system/core_cm3.h ****        uint32_t RESERVED4[56];
 223:system/core_cm3.h ****   __IO uint8_t  IP[240];                 /*!< Offset: 0x300 (R/W)  Interrupt Priority Register (8Bi
 224:system/core_cm3.h ****        uint32_t RESERVED5[644];
ARM GAS  C:\Users\COSMIN~1.MAR\AppData\Local\Temp\ccvw7JOW.s 			page 6


 225:system/core_cm3.h ****   __O  uint32_t STIR;                    /*!< Offset: 0xE00 ( /W)  Software Trigger Interrupt Regis
 226:system/core_cm3.h **** }  NVIC_Type;
 227:system/core_cm3.h **** 
 228:system/core_cm3.h **** /*@} end of group CMSIS_NVIC */
 229:system/core_cm3.h **** 
 230:system/core_cm3.h **** 
 231:system/core_cm3.h **** /** \ingroup  CMSIS_core_register
 232:system/core_cm3.h ****     \defgroup CMSIS_SCB CMSIS SCB
 233:system/core_cm3.h ****   Type definitions for the Cortex-M System Control Block Registers
 234:system/core_cm3.h ****   @{
 235:system/core_cm3.h ****  */
 236:system/core_cm3.h **** 
 237:system/core_cm3.h **** /** \brief  Structure type to access the System Control Block (SCB).
 238:system/core_cm3.h ****  */
 239:system/core_cm3.h **** typedef struct
 240:system/core_cm3.h **** {
 241:system/core_cm3.h ****   __I  uint32_t CPUID;                   /*!< Offset: 0x000 (R/ )  CPU ID Base Register            
 242:system/core_cm3.h ****   __IO uint32_t ICSR;                    /*!< Offset: 0x004 (R/W)  Interrupt Control State Register
 243:system/core_cm3.h ****   __IO uint32_t VTOR;                    /*!< Offset: 0x008 (R/W)  Vector Table Offset Register    
 244:system/core_cm3.h ****   __IO uint32_t AIRCR;                   /*!< Offset: 0x00C (R/W)  Application Interrupt / Reset Co
 245:system/core_cm3.h ****   __IO uint32_t SCR;                     /*!< Offset: 0x010 (R/W)  System Control Register         
 246:system/core_cm3.h ****   __IO uint32_t CCR;                     /*!< Offset: 0x014 (R/W)  Configuration Control Register  
 247:system/core_cm3.h ****   __IO uint8_t  SHP[12];                 /*!< Offset: 0x018 (R/W)  System Handlers Priority Registe
 248:system/core_cm3.h ****   __IO uint32_t SHCSR;                   /*!< Offset: 0x024 (R/W)  System Handler Control and State
 249:system/core_cm3.h ****   __IO uint32_t CFSR;                    /*!< Offset: 0x028 (R/W)  Configurable Fault Status Regist
 250:system/core_cm3.h ****   __IO uint32_t HFSR;                    /*!< Offset: 0x02C (R/W)  Hard Fault Status Register      
 251:system/core_cm3.h ****   __IO uint32_t DFSR;                    /*!< Offset: 0x030 (R/W)  Debug Fault Status Register     
 252:system/core_cm3.h ****   __IO uint32_t MMFAR;                   /*!< Offset: 0x034 (R/W)  Mem Manage Address Register     
 253:system/core_cm3.h ****   __IO uint32_t BFAR;                    /*!< Offset: 0x038 (R/W)  Bus Fault Address Register      
 254:system/core_cm3.h ****   __IO uint32_t AFSR;                    /*!< Offset: 0x03C (R/W)  Auxiliary Fault Status Register 
 255:system/core_cm3.h ****   __I  uint32_t PFR[2];                  /*!< Offset: 0x040 (R/ )  Processor Feature Register      
 256:system/core_cm3.h ****   __I  uint32_t DFR;                     /*!< Offset: 0x048 (R/ )  Debug Feature Register          
 257:system/core_cm3.h ****   __I  uint32_t ADR;                     /*!< Offset: 0x04C (R/ )  Auxiliary Feature Register      
 258:system/core_cm3.h ****   __I  uint32_t MMFR[4];                 /*!< Offset: 0x050 (R/ )  Memory Model Feature Register   
 259:system/core_cm3.h ****   __I  uint32_t ISAR[5];                 /*!< Offset: 0x060 (R/ )  ISA Feature Register            
 260:system/core_cm3.h **** } SCB_Type;
 261:system/core_cm3.h **** 
 262:system/core_cm3.h **** /* SCB CPUID Register Definitions */
 263:system/core_cm3.h **** #define SCB_CPUID_IMPLEMENTER_Pos          24                                             /*!< SCB 
 264:system/core_cm3.h **** #define SCB_CPUID_IMPLEMENTER_Msk          (0xFFUL << SCB_CPUID_IMPLEMENTER_Pos)          /*!< SCB 
 265:system/core_cm3.h **** 
 266:system/core_cm3.h **** #define SCB_CPUID_VARIANT_Pos              20                                             /*!< SCB 
 267:system/core_cm3.h **** #define SCB_CPUID_VARIANT_Msk              (0xFUL << SCB_CPUID_VARIANT_Pos)               /*!< SCB 
 268:system/core_cm3.h **** 
 269:system/core_cm3.h **** #define SCB_CPUID_PARTNO_Pos                4                                             /*!< SCB 
 270:system/core_cm3.h **** #define SCB_CPUID_PARTNO_Msk               (0xFFFUL << SCB_CPUID_PARTNO_Pos)              /*!< SCB 
 271:system/core_cm3.h **** 
 272:system/core_cm3.h **** #define SCB_CPUID_REVISION_Pos              0                                             /*!< SCB 
 273:system/core_cm3.h **** #define SCB_CPUID_REVISION_Msk             (0xFUL << SCB_CPUID_REVISION_Pos)              /*!< SCB 
 274:system/core_cm3.h **** 
 275:system/core_cm3.h **** /* SCB Interrupt Control State Register Definitions */
 276:system/core_cm3.h **** #define SCB_ICSR_NMIPENDSET_Pos            31                                             /*!< SCB 
 277:system/core_cm3.h **** #define SCB_ICSR_NMIPENDSET_Msk            (1UL << SCB_ICSR_NMIPENDSET_Pos)               /*!< SCB 
 278:system/core_cm3.h **** 
 279:system/core_cm3.h **** #define SCB_ICSR_PENDSVSET_Pos             28                                             /*!< SCB 
 280:system/core_cm3.h **** #define SCB_ICSR_PENDSVSET_Msk             (1UL << SCB_ICSR_PENDSVSET_Pos)                /*!< SCB 
 281:system/core_cm3.h **** 
ARM GAS  C:\Users\COSMIN~1.MAR\AppData\Local\Temp\ccvw7JOW.s 			page 7


 282:system/core_cm3.h **** #define SCB_ICSR_PENDSVCLR_Pos             27                                             /*!< SCB 
 283:system/core_cm3.h **** #define SCB_ICSR_PENDSVCLR_Msk             (1UL << SCB_ICSR_PENDSVCLR_Pos)                /*!< SCB 
 284:system/core_cm3.h **** 
 285:system/core_cm3.h **** #define SCB_ICSR_PENDSTSET_Pos             26                                             /*!< SCB 
 286:system/core_cm3.h **** #define SCB_ICSR_PENDSTSET_Msk             (1UL << SCB_ICSR_PENDSTSET_Pos)                /*!< SCB 
 287:system/core_cm3.h **** 
 288:system/core_cm3.h **** #define SCB_ICSR_PENDSTCLR_Pos             25                                             /*!< SCB 
 289:system/core_cm3.h **** #define SCB_ICSR_PENDSTCLR_Msk             (1UL << SCB_ICSR_PENDSTCLR_Pos)                /*!< SCB 
 290:system/core_cm3.h **** 
 291:system/core_cm3.h **** #define SCB_ICSR_ISRPREEMPT_Pos            23                                             /*!< SCB 
 292:system/core_cm3.h **** #define SCB_ICSR_ISRPREEMPT_Msk            (1UL << SCB_ICSR_ISRPREEMPT_Pos)               /*!< SCB 
 293:system/core_cm3.h **** 
 294:system/core_cm3.h **** #define SCB_ICSR_ISRPENDING_Pos            22                                             /*!< SCB 
 295:system/core_cm3.h **** #define SCB_ICSR_ISRPENDING_Msk            (1UL << SCB_ICSR_ISRPENDING_Pos)               /*!< SCB 
 296:system/core_cm3.h **** 
 297:system/core_cm3.h **** #define SCB_ICSR_VECTPENDING_Pos           12                                             /*!< SCB 
 298:system/core_cm3.h **** #define SCB_ICSR_VECTPENDING_Msk           (0x1FFUL << SCB_ICSR_VECTPENDING_Pos)          /*!< SCB 
 299:system/core_cm3.h **** 
 300:system/core_cm3.h **** #define SCB_ICSR_RETTOBASE_Pos             11                                             /*!< SCB 
 301:system/core_cm3.h **** #define SCB_ICSR_RETTOBASE_Msk             (1UL << SCB_ICSR_RETTOBASE_Pos)                /*!< SCB 
 302:system/core_cm3.h **** 
 303:system/core_cm3.h **** #define SCB_ICSR_VECTACTIVE_Pos             0                                             /*!< SCB 
 304:system/core_cm3.h **** #define SCB_ICSR_VECTACTIVE_Msk            (0x1FFUL << SCB_ICSR_VECTACTIVE_Pos)           /*!< SCB 
 305:system/core_cm3.h **** 
 306:system/core_cm3.h **** /* SCB Interrupt Control State Register Definitions */
 307:system/core_cm3.h **** #define SCB_VTOR_TBLBASE_Pos               29                                             /*!< SCB 
 308:system/core_cm3.h **** #define SCB_VTOR_TBLBASE_Msk               (1UL << SCB_VTOR_TBLBASE_Pos)                  /*!< SCB 
 309:system/core_cm3.h **** 
 310:system/core_cm3.h **** #define SCB_VTOR_TBLOFF_Pos                 7                                             /*!< SCB 
 311:system/core_cm3.h **** #define SCB_VTOR_TBLOFF_Msk                (0x3FFFFFUL << SCB_VTOR_TBLOFF_Pos)            /*!< SCB 
 312:system/core_cm3.h **** 
 313:system/core_cm3.h **** /* SCB Application Interrupt and Reset Control Register Definitions */
 314:system/core_cm3.h **** #define SCB_AIRCR_VECTKEY_Pos              16                                             /*!< SCB 
 315:system/core_cm3.h **** #define SCB_AIRCR_VECTKEY_Msk              (0xFFFFUL << SCB_AIRCR_VECTKEY_Pos)            /*!< SCB 
 316:system/core_cm3.h **** 
 317:system/core_cm3.h **** #define SCB_AIRCR_VECTKEYSTAT_Pos          16                                             /*!< SCB 
 318:system/core_cm3.h **** #define SCB_AIRCR_VECTKEYSTAT_Msk          (0xFFFFUL << SCB_AIRCR_VECTKEYSTAT_Pos)        /*!< SCB 
 319:system/core_cm3.h **** 
 320:system/core_cm3.h **** #define SCB_AIRCR_ENDIANESS_Pos            15                                             /*!< SCB 
 321:system/core_cm3.h **** #define SCB_AIRCR_ENDIANESS_Msk            (1UL << SCB_AIRCR_ENDIANESS_Pos)               /*!< SCB 
 322:system/core_cm3.h **** 
 323:system/core_cm3.h **** #define SCB_AIRCR_PRIGROUP_Pos              8                                             /*!< SCB 
 324:system/core_cm3.h **** #define SCB_AIRCR_PRIGROUP_Msk             (7UL << SCB_AIRCR_PRIGROUP_Pos)                /*!< SCB 
 325:system/core_cm3.h **** 
 326:system/core_cm3.h **** #define SCB_AIRCR_SYSRESETREQ_Pos           2                                             /*!< SCB 
 327:system/core_cm3.h **** #define SCB_AIRCR_SYSRESETREQ_Msk          (1UL << SCB_AIRCR_SYSRESETREQ_Pos)             /*!< SCB 
 328:system/core_cm3.h **** 
 329:system/core_cm3.h **** #define SCB_AIRCR_VECTCLRACTIVE_Pos         1                                             /*!< SCB 
 330:system/core_cm3.h **** #define SCB_AIRCR_VECTCLRACTIVE_Msk        (1UL << SCB_AIRCR_VECTCLRACTIVE_Pos)           /*!< SCB 
 331:system/core_cm3.h **** 
 332:system/core_cm3.h **** #define SCB_AIRCR_VECTRESET_Pos             0                                             /*!< SCB 
 333:system/core_cm3.h **** #define SCB_AIRCR_VECTRESET_Msk            (1UL << SCB_AIRCR_VECTRESET_Pos)               /*!< SCB 
 334:system/core_cm3.h **** 
 335:system/core_cm3.h **** /* SCB System Control Register Definitions */
 336:system/core_cm3.h **** #define SCB_SCR_SEVONPEND_Pos               4                                             /*!< SCB 
 337:system/core_cm3.h **** #define SCB_SCR_SEVONPEND_Msk              (1UL << SCB_SCR_SEVONPEND_Pos)                 /*!< SCB 
 338:system/core_cm3.h **** 
ARM GAS  C:\Users\COSMIN~1.MAR\AppData\Local\Temp\ccvw7JOW.s 			page 8


 339:system/core_cm3.h **** #define SCB_SCR_SLEEPDEEP_Pos               2                                             /*!< SCB 
 340:system/core_cm3.h **** #define SCB_SCR_SLEEPDEEP_Msk              (1UL << SCB_SCR_SLEEPDEEP_Pos)                 /*!< SCB 
 341:system/core_cm3.h **** 
 342:system/core_cm3.h **** #define SCB_SCR_SLEEPONEXIT_Pos             1                                             /*!< SCB 
 343:system/core_cm3.h **** #define SCB_SCR_SLEEPONEXIT_Msk            (1UL << SCB_SCR_SLEEPONEXIT_Pos)               /*!< SCB 
 344:system/core_cm3.h **** 
 345:system/core_cm3.h **** /* SCB Configuration Control Register Definitions */
 346:system/core_cm3.h **** #define SCB_CCR_STKALIGN_Pos                9                                             /*!< SCB 
 347:system/core_cm3.h **** #define SCB_CCR_STKALIGN_Msk               (1UL << SCB_CCR_STKALIGN_Pos)                  /*!< SCB 
 348:system/core_cm3.h **** 
 349:system/core_cm3.h **** #define SCB_CCR_BFHFNMIGN_Pos               8                                             /*!< SCB 
 350:system/core_cm3.h **** #define SCB_CCR_BFHFNMIGN_Msk              (1UL << SCB_CCR_BFHFNMIGN_Pos)                 /*!< SCB 
 351:system/core_cm3.h **** 
 352:system/core_cm3.h **** #define SCB_CCR_DIV_0_TRP_Pos               4                                             /*!< SCB 
 353:system/core_cm3.h **** #define SCB_CCR_DIV_0_TRP_Msk              (1UL << SCB_CCR_DIV_0_TRP_Pos)                 /*!< SCB 
 354:system/core_cm3.h **** 
 355:system/core_cm3.h **** #define SCB_CCR_UNALIGN_TRP_Pos             3                                             /*!< SCB 
 356:system/core_cm3.h **** #define SCB_CCR_UNALIGN_TRP_Msk            (1UL << SCB_CCR_UNALIGN_TRP_Pos)               /*!< SCB 
 357:system/core_cm3.h **** 
 358:system/core_cm3.h **** #define SCB_CCR_USERSETMPEND_Pos            1                                             /*!< SCB 
 359:system/core_cm3.h **** #define SCB_CCR_USERSETMPEND_Msk           (1UL << SCB_CCR_USERSETMPEND_Pos)              /*!< SCB 
 360:system/core_cm3.h **** 
 361:system/core_cm3.h **** #define SCB_CCR_NONBASETHRDENA_Pos          0                                             /*!< SCB 
 362:system/core_cm3.h **** #define SCB_CCR_NONBASETHRDENA_Msk         (1UL << SCB_CCR_NONBASETHRDENA_Pos)            /*!< SCB 
 363:system/core_cm3.h **** 
 364:system/core_cm3.h **** /* SCB System Handler Control and State Register Definitions */
 365:system/core_cm3.h **** #define SCB_SHCSR_USGFAULTENA_Pos          18                                             /*!< SCB 
 366:system/core_cm3.h **** #define SCB_SHCSR_USGFAULTENA_Msk          (1UL << SCB_SHCSR_USGFAULTENA_Pos)             /*!< SCB 
 367:system/core_cm3.h **** 
 368:system/core_cm3.h **** #define SCB_SHCSR_BUSFAULTENA_Pos          17                                             /*!< SCB 
 369:system/core_cm3.h **** #define SCB_SHCSR_BUSFAULTENA_Msk          (1UL << SCB_SHCSR_BUSFAULTENA_Pos)             /*!< SCB 
 370:system/core_cm3.h **** 
 371:system/core_cm3.h **** #define SCB_SHCSR_MEMFAULTENA_Pos          16                                             /*!< SCB 
 372:system/core_cm3.h **** #define SCB_SHCSR_MEMFAULTENA_Msk          (1UL << SCB_SHCSR_MEMFAULTENA_Pos)             /*!< SCB 
 373:system/core_cm3.h **** 
 374:system/core_cm3.h **** #define SCB_SHCSR_SVCALLPENDED_Pos         15                                             /*!< SCB 
 375:system/core_cm3.h **** #define SCB_SHCSR_SVCALLPENDED_Msk         (1UL << SCB_SHCSR_SVCALLPENDED_Pos)            /*!< SCB 
 376:system/core_cm3.h **** 
 377:system/core_cm3.h **** #define SCB_SHCSR_BUSFAULTPENDED_Pos       14                                             /*!< SCB 
 378:system/core_cm3.h **** #define SCB_SHCSR_BUSFAULTPENDED_Msk       (1UL << SCB_SHCSR_BUSFAULTPENDED_Pos)          /*!< SCB 
 379:system/core_cm3.h **** 
 380:system/core_cm3.h **** #define SCB_SHCSR_MEMFAULTPENDED_Pos       13                                             /*!< SCB 
 381:system/core_cm3.h **** #define SCB_SHCSR_MEMFAULTPENDED_Msk       (1UL << SCB_SHCSR_MEMFAULTPENDED_Pos)          /*!< SCB 
 382:system/core_cm3.h **** 
 383:system/core_cm3.h **** #define SCB_SHCSR_USGFAULTPENDED_Pos       12                                             /*!< SCB 
 384:system/core_cm3.h **** #define SCB_SHCSR_USGFAULTPENDED_Msk       (1UL << SCB_SHCSR_USGFAULTPENDED_Pos)          /*!< SCB 
 385:system/core_cm3.h **** 
 386:system/core_cm3.h **** #define SCB_SHCSR_SYSTICKACT_Pos           11                                             /*!< SCB 
 387:system/core_cm3.h **** #define SCB_SHCSR_SYSTICKACT_Msk           (1UL << SCB_SHCSR_SYSTICKACT_Pos)              /*!< SCB 
 388:system/core_cm3.h **** 
 389:system/core_cm3.h **** #define SCB_SHCSR_PENDSVACT_Pos            10                                             /*!< SCB 
 390:system/core_cm3.h **** #define SCB_SHCSR_PENDSVACT_Msk            (1UL << SCB_SHCSR_PENDSVACT_Pos)               /*!< SCB 
 391:system/core_cm3.h **** 
 392:system/core_cm3.h **** #define SCB_SHCSR_MONITORACT_Pos            8                                             /*!< SCB 
 393:system/core_cm3.h **** #define SCB_SHCSR_MONITORACT_Msk           (1UL << SCB_SHCSR_MONITORACT_Pos)              /*!< SCB 
 394:system/core_cm3.h **** 
 395:system/core_cm3.h **** #define SCB_SHCSR_SVCALLACT_Pos             7                                             /*!< SCB 
ARM GAS  C:\Users\COSMIN~1.MAR\AppData\Local\Temp\ccvw7JOW.s 			page 9


 396:system/core_cm3.h **** #define SCB_SHCSR_SVCALLACT_Msk            (1UL << SCB_SHCSR_SVCALLACT_Pos)               /*!< SCB 
 397:system/core_cm3.h **** 
 398:system/core_cm3.h **** #define SCB_SHCSR_USGFAULTACT_Pos           3                                             /*!< SCB 
 399:system/core_cm3.h **** #define SCB_SHCSR_USGFAULTACT_Msk          (1UL << SCB_SHCSR_USGFAULTACT_Pos)             /*!< SCB 
 400:system/core_cm3.h **** 
 401:system/core_cm3.h **** #define SCB_SHCSR_BUSFAULTACT_Pos           1                                             /*!< SCB 
 402:system/core_cm3.h **** #define SCB_SHCSR_BUSFAULTACT_Msk          (1UL << SCB_SHCSR_BUSFAULTACT_Pos)             /*!< SCB 
 403:system/core_cm3.h **** 
 404:system/core_cm3.h **** #define SCB_SHCSR_MEMFAULTACT_Pos           0                                             /*!< SCB 
 405:system/core_cm3.h **** #define SCB_SHCSR_MEMFAULTACT_Msk          (1UL << SCB_SHCSR_MEMFAULTACT_Pos)             /*!< SCB 
 406:system/core_cm3.h **** 
 407:system/core_cm3.h **** /* SCB Configurable Fault Status Registers Definitions */
 408:system/core_cm3.h **** #define SCB_CFSR_USGFAULTSR_Pos            16                                             /*!< SCB 
 409:system/core_cm3.h **** #define SCB_CFSR_USGFAULTSR_Msk            (0xFFFFUL << SCB_CFSR_USGFAULTSR_Pos)          /*!< SCB 
 410:system/core_cm3.h **** 
 411:system/core_cm3.h **** #define SCB_CFSR_BUSFAULTSR_Pos             8                                             /*!< SCB 
 412:system/core_cm3.h **** #define SCB_CFSR_BUSFAULTSR_Msk            (0xFFUL << SCB_CFSR_BUSFAULTSR_Pos)            /*!< SCB 
 413:system/core_cm3.h **** 
 414:system/core_cm3.h **** #define SCB_CFSR_MEMFAULTSR_Pos             0                                             /*!< SCB 
 415:system/core_cm3.h **** #define SCB_CFSR_MEMFAULTSR_Msk            (0xFFUL << SCB_CFSR_MEMFAULTSR_Pos)            /*!< SCB 
 416:system/core_cm3.h **** 
 417:system/core_cm3.h **** /* SCB Hard Fault Status Registers Definitions */
 418:system/core_cm3.h **** #define SCB_HFSR_DEBUGEVT_Pos              31                                             /*!< SCB 
 419:system/core_cm3.h **** #define SCB_HFSR_DEBUGEVT_Msk              (1UL << SCB_HFSR_DEBUGEVT_Pos)                 /*!< SCB 
 420:system/core_cm3.h **** 
 421:system/core_cm3.h **** #define SCB_HFSR_FORCED_Pos                30                                             /*!< SCB 
 422:system/core_cm3.h **** #define SCB_HFSR_FORCED_Msk                (1UL << SCB_HFSR_FORCED_Pos)                   /*!< SCB 
 423:system/core_cm3.h **** 
 424:system/core_cm3.h **** #define SCB_HFSR_VECTTBL_Pos                1                                             /*!< SCB 
 425:system/core_cm3.h **** #define SCB_HFSR_VECTTBL_Msk               (1UL << SCB_HFSR_VECTTBL_Pos)                  /*!< SCB 
 426:system/core_cm3.h **** 
 427:system/core_cm3.h **** /* SCB Debug Fault Status Register Definitions */
 428:system/core_cm3.h **** #define SCB_DFSR_EXTERNAL_Pos               4                                             /*!< SCB 
 429:system/core_cm3.h **** #define SCB_DFSR_EXTERNAL_Msk              (1UL << SCB_DFSR_EXTERNAL_Pos)                 /*!< SCB 
 430:system/core_cm3.h **** 
 431:system/core_cm3.h **** #define SCB_DFSR_VCATCH_Pos                 3                                             /*!< SCB 
 432:system/core_cm3.h **** #define SCB_DFSR_VCATCH_Msk                (1UL << SCB_DFSR_VCATCH_Pos)                   /*!< SCB 
 433:system/core_cm3.h **** 
 434:system/core_cm3.h **** #define SCB_DFSR_DWTTRAP_Pos                2                                             /*!< SCB 
 435:system/core_cm3.h **** #define SCB_DFSR_DWTTRAP_Msk               (1UL << SCB_DFSR_DWTTRAP_Pos)                  /*!< SCB 
 436:system/core_cm3.h **** 
 437:system/core_cm3.h **** #define SCB_DFSR_BKPT_Pos                   1                                             /*!< SCB 
 438:system/core_cm3.h **** #define SCB_DFSR_BKPT_Msk                  (1UL << SCB_DFSR_BKPT_Pos)                     /*!< SCB 
 439:system/core_cm3.h **** 
 440:system/core_cm3.h **** #define SCB_DFSR_HALTED_Pos                 0                                             /*!< SCB 
 441:system/core_cm3.h **** #define SCB_DFSR_HALTED_Msk                (1UL << SCB_DFSR_HALTED_Pos)                   /*!< SCB 
 442:system/core_cm3.h **** 
 443:system/core_cm3.h **** /*@} end of group CMSIS_SCB */
 444:system/core_cm3.h **** 
 445:system/core_cm3.h **** 
 446:system/core_cm3.h **** /** \ingroup  CMSIS_core_register
 447:system/core_cm3.h ****     \defgroup CMSIS_SysTick CMSIS SysTick
 448:system/core_cm3.h ****   Type definitions for the Cortex-M System Timer Registers
 449:system/core_cm3.h ****   @{
 450:system/core_cm3.h ****  */
 451:system/core_cm3.h **** 
 452:system/core_cm3.h **** /** \brief  Structure type to access the System Timer (SysTick).
ARM GAS  C:\Users\COSMIN~1.MAR\AppData\Local\Temp\ccvw7JOW.s 			page 10


 453:system/core_cm3.h ****  */
 454:system/core_cm3.h **** typedef struct
 455:system/core_cm3.h **** {
 456:system/core_cm3.h ****   __IO uint32_t CTRL;                    /*!< Offset: 0x000 (R/W)  SysTick Control and Status Regis
 457:system/core_cm3.h ****   __IO uint32_t LOAD;                    /*!< Offset: 0x004 (R/W)  SysTick Reload Value Register   
 458:system/core_cm3.h ****   __IO uint32_t VAL;                     /*!< Offset: 0x008 (R/W)  SysTick Current Value Register  
 459:system/core_cm3.h ****   __I  uint32_t CALIB;                   /*!< Offset: 0x00C (R/ )  SysTick Calibration Register    
 460:system/core_cm3.h **** } SysTick_Type;
 461:system/core_cm3.h **** 
 462:system/core_cm3.h **** /* SysTick Control / Status Register Definitions */
 463:system/core_cm3.h **** #define SysTick_CTRL_COUNTFLAG_Pos         16                                             /*!< SysT
 464:system/core_cm3.h **** #define SysTick_CTRL_COUNTFLAG_Msk         (1UL << SysTick_CTRL_COUNTFLAG_Pos)            /*!< SysT
 465:system/core_cm3.h **** 
 466:system/core_cm3.h **** #define SysTick_CTRL_CLKSOURCE_Pos          2                                             /*!< SysT
 467:system/core_cm3.h **** #define SysTick_CTRL_CLKSOURCE_Msk         (1UL << SysTick_CTRL_CLKSOURCE_Pos)            /*!< SysT
 468:system/core_cm3.h **** 
 469:system/core_cm3.h **** #define SysTick_CTRL_TICKINT_Pos            1                                             /*!< SysT
 470:system/core_cm3.h **** #define SysTick_CTRL_TICKINT_Msk           (1UL << SysTick_CTRL_TICKINT_Pos)              /*!< SysT
 471:system/core_cm3.h **** 
 472:system/core_cm3.h **** #define SysTick_CTRL_ENABLE_Pos             0                                             /*!< SysT
 473:system/core_cm3.h **** #define SysTick_CTRL_ENABLE_Msk            (1UL << SysTick_CTRL_ENABLE_Pos)               /*!< SysT
 474:system/core_cm3.h **** 
 475:system/core_cm3.h **** /* SysTick Reload Register Definitions */
 476:system/core_cm3.h **** #define SysTick_LOAD_RELOAD_Pos             0                                             /*!< SysT
 477:system/core_cm3.h **** #define SysTick_LOAD_RELOAD_Msk            (0xFFFFFFUL << SysTick_LOAD_RELOAD_Pos)        /*!< SysT
 478:system/core_cm3.h **** 
 479:system/core_cm3.h **** /* SysTick Current Register Definitions */
 480:system/core_cm3.h **** #define SysTick_VAL_CURRENT_Pos             0                                             /*!< SysT
 481:system/core_cm3.h **** #define SysTick_VAL_CURRENT_Msk            (0xFFFFFFUL << SysTick_VAL_CURRENT_Pos)        /*!< SysT
 482:system/core_cm3.h **** 
 483:system/core_cm3.h **** /* SysTick Calibration Register Definitions */
 484:system/core_cm3.h **** #define SysTick_CALIB_NOREF_Pos            31                                             /*!< SysT
 485:system/core_cm3.h **** #define SysTick_CALIB_NOREF_Msk            (1UL << SysTick_CALIB_NOREF_Pos)               /*!< SysT
 486:system/core_cm3.h **** 
 487:system/core_cm3.h **** #define SysTick_CALIB_SKEW_Pos             30                                             /*!< SysT
 488:system/core_cm3.h **** #define SysTick_CALIB_SKEW_Msk             (1UL << SysTick_CALIB_SKEW_Pos)                /*!< SysT
 489:system/core_cm3.h **** 
 490:system/core_cm3.h **** #define SysTick_CALIB_TENMS_Pos             0                                             /*!< SysT
 491:system/core_cm3.h **** #define SysTick_CALIB_TENMS_Msk            (0xFFFFFFUL << SysTick_VAL_CURRENT_Pos)        /*!< SysT
 492:system/core_cm3.h **** 
 493:system/core_cm3.h **** /*@} end of group CMSIS_SysTick */
 494:system/core_cm3.h **** 
 495:system/core_cm3.h **** 
 496:system/core_cm3.h **** /** \ingroup  CMSIS_core_register
 497:system/core_cm3.h ****     \defgroup CMSIS_ITM CMSIS ITM
 498:system/core_cm3.h ****   Type definitions for the Cortex-M Instrumentation Trace Macrocell (ITM)
 499:system/core_cm3.h ****   @{
 500:system/core_cm3.h ****  */
 501:system/core_cm3.h **** 
 502:system/core_cm3.h **** /** \brief  Structure type to access the Instrumentation Trace Macrocell Register (ITM).
 503:system/core_cm3.h ****  */
 504:system/core_cm3.h **** typedef struct
 505:system/core_cm3.h **** {
 506:system/core_cm3.h ****   __O  union
 507:system/core_cm3.h ****   {
 508:system/core_cm3.h ****     __O  uint8_t    u8;                  /*!< Offset: 0x000 ( /W)  ITM Stimulus Port 8-bit         
 509:system/core_cm3.h ****     __O  uint16_t   u16;                 /*!< Offset: 0x000 ( /W)  ITM Stimulus Port 16-bit        
ARM GAS  C:\Users\COSMIN~1.MAR\AppData\Local\Temp\ccvw7JOW.s 			page 11


 510:system/core_cm3.h ****     __O  uint32_t   u32;                 /*!< Offset: 0x000 ( /W)  ITM Stimulus Port 32-bit        
 511:system/core_cm3.h ****   }  PORT [32];                          /*!< Offset: 0x000 ( /W)  ITM Stimulus Port Registers     
 512:system/core_cm3.h ****        uint32_t RESERVED0[864];
 513:system/core_cm3.h ****   __IO uint32_t TER;                     /*!< Offset:       (R/W)  ITM Trace Enable Register       
 514:system/core_cm3.h ****        uint32_t RESERVED1[15];
 515:system/core_cm3.h ****   __IO uint32_t TPR;                     /*!< Offset:       (R/W)  ITM Trace Privilege Register    
 516:system/core_cm3.h ****        uint32_t RESERVED2[15];
 517:system/core_cm3.h ****   __IO uint32_t TCR;                     /*!< Offset:       (R/W)  ITM Trace Control Register      
 518:system/core_cm3.h ****        uint32_t RESERVED3[29];
 519:system/core_cm3.h ****   __IO uint32_t IWR;                     /*!< Offset:       (R/W)  ITM Integration Write Register  
 520:system/core_cm3.h ****   __IO uint32_t IRR;                     /*!< Offset:       (R/W)  ITM Integration Read Register   
 521:system/core_cm3.h ****   __IO uint32_t IMCR;                    /*!< Offset:       (R/W)  ITM Integration Mode Control Reg
 522:system/core_cm3.h ****        uint32_t RESERVED4[43];
 523:system/core_cm3.h ****   __IO uint32_t LAR;                     /*!< Offset:       (R/W)  ITM Lock Access Register        
 524:system/core_cm3.h ****   __IO uint32_t LSR;                     /*!< Offset:       (R/W)  ITM Lock Status Register        
 525:system/core_cm3.h ****        uint32_t RESERVED5[6];
 526:system/core_cm3.h ****   __I  uint32_t PID4;                    /*!< Offset:       (R/ )  ITM Peripheral Identification Re
 527:system/core_cm3.h ****   __I  uint32_t PID5;                    /*!< Offset:       (R/ )  ITM Peripheral Identification Re
 528:system/core_cm3.h ****   __I  uint32_t PID6;                    /*!< Offset:       (R/ )  ITM Peripheral Identification Re
 529:system/core_cm3.h ****   __I  uint32_t PID7;                    /*!< Offset:       (R/ )  ITM Peripheral Identification Re
 530:system/core_cm3.h ****   __I  uint32_t PID0;                    /*!< Offset:       (R/ )  ITM Peripheral Identification Re
 531:system/core_cm3.h ****   __I  uint32_t PID1;                    /*!< Offset:       (R/ )  ITM Peripheral Identification Re
 532:system/core_cm3.h ****   __I  uint32_t PID2;                    /*!< Offset:       (R/ )  ITM Peripheral Identification Re
 533:system/core_cm3.h ****   __I  uint32_t PID3;                    /*!< Offset:       (R/ )  ITM Peripheral Identification Re
 534:system/core_cm3.h ****   __I  uint32_t CID0;                    /*!< Offset:       (R/ )  ITM Component  Identification Re
 535:system/core_cm3.h ****   __I  uint32_t CID1;                    /*!< Offset:       (R/ )  ITM Component  Identification Re
 536:system/core_cm3.h ****   __I  uint32_t CID2;                    /*!< Offset:       (R/ )  ITM Component  Identification Re
 537:system/core_cm3.h ****   __I  uint32_t CID3;                    /*!< Offset:       (R/ )  ITM Component  Identification Re
 538:system/core_cm3.h **** } ITM_Type;
 539:system/core_cm3.h **** 
 540:system/core_cm3.h **** /* ITM Trace Privilege Register Definitions */
 541:system/core_cm3.h **** #define ITM_TPR_PRIVMASK_Pos                0                                             /*!< ITM 
 542:system/core_cm3.h **** #define ITM_TPR_PRIVMASK_Msk               (0xFUL << ITM_TPR_PRIVMASK_Pos)                /*!< ITM 
 543:system/core_cm3.h **** 
 544:system/core_cm3.h **** /* ITM Trace Control Register Definitions */
 545:system/core_cm3.h **** #define ITM_TCR_BUSY_Pos                   23                                             /*!< ITM 
 546:system/core_cm3.h **** #define ITM_TCR_BUSY_Msk                   (1UL << ITM_TCR_BUSY_Pos)                      /*!< ITM 
 547:system/core_cm3.h **** 
 548:system/core_cm3.h **** #define ITM_TCR_ATBID_Pos                  16                                             /*!< ITM 
 549:system/core_cm3.h **** #define ITM_TCR_ATBID_Msk                  (0x7FUL << ITM_TCR_ATBID_Pos)                  /*!< ITM 
 550:system/core_cm3.h **** 
 551:system/core_cm3.h **** #define ITM_TCR_TSPrescale_Pos              8                                             /*!< ITM 
 552:system/core_cm3.h **** #define ITM_TCR_TSPrescale_Msk             (3UL << ITM_TCR_TSPrescale_Pos)                /*!< ITM 
 553:system/core_cm3.h **** 
 554:system/core_cm3.h **** #define ITM_TCR_SWOENA_Pos                  4                                             /*!< ITM 
 555:system/core_cm3.h **** #define ITM_TCR_SWOENA_Msk                 (1UL << ITM_TCR_SWOENA_Pos)                    /*!< ITM 
 556:system/core_cm3.h **** 
 557:system/core_cm3.h **** #define ITM_TCR_DWTENA_Pos                  3                                             /*!< ITM 
 558:system/core_cm3.h **** #define ITM_TCR_DWTENA_Msk                 (1UL << ITM_TCR_DWTENA_Pos)                    /*!< ITM 
 559:system/core_cm3.h **** 
 560:system/core_cm3.h **** #define ITM_TCR_SYNCENA_Pos                 2                                             /*!< ITM 
 561:system/core_cm3.h **** #define ITM_TCR_SYNCENA_Msk                (1UL << ITM_TCR_SYNCENA_Pos)                   /*!< ITM 
 562:system/core_cm3.h **** 
 563:system/core_cm3.h **** #define ITM_TCR_TSENA_Pos                   1                                             /*!< ITM 
 564:system/core_cm3.h **** #define ITM_TCR_TSENA_Msk                  (1UL << ITM_TCR_TSENA_Pos)                     /*!< ITM 
 565:system/core_cm3.h **** 
 566:system/core_cm3.h **** #define ITM_TCR_ITMENA_Pos                  0                                             /*!< ITM 
ARM GAS  C:\Users\COSMIN~1.MAR\AppData\Local\Temp\ccvw7JOW.s 			page 12


 567:system/core_cm3.h **** #define ITM_TCR_ITMENA_Msk                 (1UL << ITM_TCR_ITMENA_Pos)                    /*!< ITM 
 568:system/core_cm3.h **** 
 569:system/core_cm3.h **** /* ITM Integration Write Register Definitions */
 570:system/core_cm3.h **** #define ITM_IWR_ATVALIDM_Pos                0                                             /*!< ITM 
 571:system/core_cm3.h **** #define ITM_IWR_ATVALIDM_Msk               (1UL << ITM_IWR_ATVALIDM_Pos)                  /*!< ITM 
 572:system/core_cm3.h **** 
 573:system/core_cm3.h **** /* ITM Integration Read Register Definitions */
 574:system/core_cm3.h **** #define ITM_IRR_ATREADYM_Pos                0                                             /*!< ITM 
 575:system/core_cm3.h **** #define ITM_IRR_ATREADYM_Msk               (1UL << ITM_IRR_ATREADYM_Pos)                  /*!< ITM 
 576:system/core_cm3.h **** 
 577:system/core_cm3.h **** /* ITM Integration Mode Control Register Definitions */
 578:system/core_cm3.h **** #define ITM_IMCR_INTEGRATION_Pos            0                                             /*!< ITM 
 579:system/core_cm3.h **** #define ITM_IMCR_INTEGRATION_Msk           (1UL << ITM_IMCR_INTEGRATION_Pos)              /*!< ITM 
 580:system/core_cm3.h **** 
 581:system/core_cm3.h **** /* ITM Lock Status Register Definitions */
 582:system/core_cm3.h **** #define ITM_LSR_ByteAcc_Pos                 2                                             /*!< ITM 
 583:system/core_cm3.h **** #define ITM_LSR_ByteAcc_Msk                (1UL << ITM_LSR_ByteAcc_Pos)                   /*!< ITM 
 584:system/core_cm3.h **** 
 585:system/core_cm3.h **** #define ITM_LSR_Access_Pos                  1                                             /*!< ITM 
 586:system/core_cm3.h **** #define ITM_LSR_Access_Msk                 (1UL << ITM_LSR_Access_Pos)                    /*!< ITM 
 587:system/core_cm3.h **** 
 588:system/core_cm3.h **** #define ITM_LSR_Present_Pos                 0                                             /*!< ITM 
 589:system/core_cm3.h **** #define ITM_LSR_Present_Msk                (1UL << ITM_LSR_Present_Pos)                   /*!< ITM 
 590:system/core_cm3.h **** 
 591:system/core_cm3.h **** /*@}*/ /* end of group CMSIS_ITM */
 592:system/core_cm3.h **** 
 593:system/core_cm3.h **** 
 594:system/core_cm3.h **** /** \ingroup  CMSIS_core_register
 595:system/core_cm3.h ****     \defgroup CMSIS_InterruptType CMSIS Interrupt Type
 596:system/core_cm3.h ****   Type definitions for the Cortex-M Interrupt Type Register
 597:system/core_cm3.h ****   @{
 598:system/core_cm3.h ****  */
 599:system/core_cm3.h **** 
 600:system/core_cm3.h **** /** \brief  Structure type to access the Interrupt Type Register.
 601:system/core_cm3.h ****  */
 602:system/core_cm3.h **** typedef struct
 603:system/core_cm3.h **** {
 604:system/core_cm3.h ****        uint32_t RESERVED0;
 605:system/core_cm3.h ****   __I  uint32_t ICTR;                    /*!< Offset: 0x004 (R/ )  Interrupt Control Type Register 
 606:system/core_cm3.h **** #if ((defined __CM3_REV) && (__CM3_REV >= 0x200))
 607:system/core_cm3.h ****   __IO uint32_t ACTLR;                   /*!< Offset: 0x008 (R/W)  Auxiliary Control Register      
 608:system/core_cm3.h **** #else
 609:system/core_cm3.h ****        uint32_t RESERVED1;
 610:system/core_cm3.h **** #endif
 611:system/core_cm3.h **** } InterruptType_Type;
 612:system/core_cm3.h **** 
 613:system/core_cm3.h **** /* Interrupt Controller Type Register Definitions */
 614:system/core_cm3.h **** #define IntType_ICTR_INTLINESNUM_Pos  0                                                   /*!< Inte
 615:system/core_cm3.h **** #define IntType_ICTR_INTLINESNUM_Msk (0x1FUL << IntType_ICTR_INTLINESNUM_Pos)             /*!< Inte
 616:system/core_cm3.h **** 
 617:system/core_cm3.h **** /* Auxiliary Control Register Definitions */
 618:system/core_cm3.h **** #define IntType_ACTLR_DISFOLD_Pos     2                                                   /*!< Inte
 619:system/core_cm3.h **** #define IntType_ACTLR_DISFOLD_Msk    (1UL << IntType_ACTLR_DISFOLD_Pos)                   /*!< Inte
 620:system/core_cm3.h **** 
 621:system/core_cm3.h **** #define IntType_ACTLR_DISDEFWBUF_Pos  1                                                   /*!< Inte
 622:system/core_cm3.h **** #define IntType_ACTLR_DISDEFWBUF_Msk (1UL << IntType_ACTLR_DISDEFWBUF_Pos)                /*!< Inte
 623:system/core_cm3.h **** 
ARM GAS  C:\Users\COSMIN~1.MAR\AppData\Local\Temp\ccvw7JOW.s 			page 13


 624:system/core_cm3.h **** #define IntType_ACTLR_DISMCYCINT_Pos  0                                                   /*!< Inte
 625:system/core_cm3.h **** #define IntType_ACTLR_DISMCYCINT_Msk (1UL << IntType_ACTLR_DISMCYCINT_Pos)                /*!< Inte
 626:system/core_cm3.h **** 
 627:system/core_cm3.h **** /*@}*/ /* end of group CMSIS_InterruptType */
 628:system/core_cm3.h **** 
 629:system/core_cm3.h **** 
 630:system/core_cm3.h **** #if (__MPU_PRESENT == 1)
 631:system/core_cm3.h **** /** \ingroup  CMSIS_core_register
 632:system/core_cm3.h ****     \defgroup CMSIS_MPU CMSIS MPU
 633:system/core_cm3.h ****   Type definitions for the Cortex-M Memory Protection Unit (MPU)
 634:system/core_cm3.h ****   @{
 635:system/core_cm3.h ****  */
 636:system/core_cm3.h **** 
 637:system/core_cm3.h **** /** \brief  Structure type to access the Memory Protection Unit (MPU).
 638:system/core_cm3.h ****  */
 639:system/core_cm3.h **** typedef struct
 640:system/core_cm3.h **** {
 641:system/core_cm3.h ****   __I  uint32_t TYPE;                    /*!< Offset: 0x000 (R/ )  MPU Type Register               
 642:system/core_cm3.h ****   __IO uint32_t CTRL;                    /*!< Offset: 0x004 (R/W)  MPU Control Register            
 643:system/core_cm3.h ****   __IO uint32_t RNR;                     /*!< Offset: 0x008 (R/W)  MPU Region RNRber Register      
 644:system/core_cm3.h ****   __IO uint32_t RBAR;                    /*!< Offset: 0x00C (R/W)  MPU Region Base Address Register
 645:system/core_cm3.h ****   __IO uint32_t RASR;                    /*!< Offset: 0x010 (R/W)  MPU Region Attribute and Size Re
 646:system/core_cm3.h ****   __IO uint32_t RBAR_A1;                 /*!< Offset: 0x014 (R/W)  MPU Alias 1 Region Base Address 
 647:system/core_cm3.h ****   __IO uint32_t RASR_A1;                 /*!< Offset: 0x018 (R/W)  MPU Alias 1 Region Attribute and
 648:system/core_cm3.h ****   __IO uint32_t RBAR_A2;                 /*!< Offset: 0x01C (R/W)  MPU Alias 2 Region Base Address 
 649:system/core_cm3.h ****   __IO uint32_t RASR_A2;                 /*!< Offset: 0x020 (R/W)  MPU Alias 2 Region Attribute and
 650:system/core_cm3.h ****   __IO uint32_t RBAR_A3;                 /*!< Offset: 0x024 (R/W)  MPU Alias 3 Region Base Address 
 651:system/core_cm3.h ****   __IO uint32_t RASR_A3;                 /*!< Offset: 0x028 (R/W)  MPU Alias 3 Region Attribute and
 652:system/core_cm3.h **** } MPU_Type;
 653:system/core_cm3.h **** 
 654:system/core_cm3.h **** /* MPU Type Register */
 655:system/core_cm3.h **** #define MPU_TYPE_IREGION_Pos               16                                             /*!< MPU 
 656:system/core_cm3.h **** #define MPU_TYPE_IREGION_Msk               (0xFFUL << MPU_TYPE_IREGION_Pos)               /*!< MPU 
 657:system/core_cm3.h **** 
 658:system/core_cm3.h **** #define MPU_TYPE_DREGION_Pos                8                                             /*!< MPU 
 659:system/core_cm3.h **** #define MPU_TYPE_DREGION_Msk               (0xFFUL << MPU_TYPE_DREGION_Pos)               /*!< MPU 
 660:system/core_cm3.h **** 
 661:system/core_cm3.h **** #define MPU_TYPE_SEPARATE_Pos               0                                             /*!< MPU 
 662:system/core_cm3.h **** #define MPU_TYPE_SEPARATE_Msk              (1UL << MPU_TYPE_SEPARATE_Pos)                 /*!< MPU 
 663:system/core_cm3.h **** 
 664:system/core_cm3.h **** /* MPU Control Register */
 665:system/core_cm3.h **** #define MPU_CTRL_PRIVDEFENA_Pos             2                                             /*!< MPU 
 666:system/core_cm3.h **** #define MPU_CTRL_PRIVDEFENA_Msk            (1UL << MPU_CTRL_PRIVDEFENA_Pos)               /*!< MPU 
 667:system/core_cm3.h **** 
 668:system/core_cm3.h **** #define MPU_CTRL_HFNMIENA_Pos               1                                             /*!< MPU 
 669:system/core_cm3.h **** #define MPU_CTRL_HFNMIENA_Msk              (1UL << MPU_CTRL_HFNMIENA_Pos)                 /*!< MPU 
 670:system/core_cm3.h **** 
 671:system/core_cm3.h **** #define MPU_CTRL_ENABLE_Pos                 0                                             /*!< MPU 
 672:system/core_cm3.h **** #define MPU_CTRL_ENABLE_Msk                (1UL << MPU_CTRL_ENABLE_Pos)                   /*!< MPU 
 673:system/core_cm3.h **** 
 674:system/core_cm3.h **** /* MPU Region Number Register */
 675:system/core_cm3.h **** #define MPU_RNR_REGION_Pos                  0                                             /*!< MPU 
 676:system/core_cm3.h **** #define MPU_RNR_REGION_Msk                 (0xFFUL << MPU_RNR_REGION_Pos)                 /*!< MPU 
 677:system/core_cm3.h **** 
 678:system/core_cm3.h **** /* MPU Region Base Address Register */
 679:system/core_cm3.h **** #define MPU_RBAR_ADDR_Pos                   5                                             /*!< MPU 
 680:system/core_cm3.h **** #define MPU_RBAR_ADDR_Msk                  (0x7FFFFFFUL << MPU_RBAR_ADDR_Pos)             /*!< MPU 
ARM GAS  C:\Users\COSMIN~1.MAR\AppData\Local\Temp\ccvw7JOW.s 			page 14


 681:system/core_cm3.h **** 
 682:system/core_cm3.h **** #define MPU_RBAR_VALID_Pos                  4                                             /*!< MPU 
 683:system/core_cm3.h **** #define MPU_RBAR_VALID_Msk                 (1UL << MPU_RBAR_VALID_Pos)                    /*!< MPU 
 684:system/core_cm3.h **** 
 685:system/core_cm3.h **** #define MPU_RBAR_REGION_Pos                 0                                             /*!< MPU 
 686:system/core_cm3.h **** #define MPU_RBAR_REGION_Msk                (0xFUL << MPU_RBAR_REGION_Pos)                 /*!< MPU 
 687:system/core_cm3.h **** 
 688:system/core_cm3.h **** /* MPU Region Attribute and Size Register */
 689:system/core_cm3.h **** #define MPU_RASR_XN_Pos                    28                                             /*!< MPU 
 690:system/core_cm3.h **** #define MPU_RASR_XN_Msk                    (1UL << MPU_RASR_XN_Pos)                       /*!< MPU 
 691:system/core_cm3.h **** 
 692:system/core_cm3.h **** #define MPU_RASR_AP_Pos                    24                                             /*!< MPU 
 693:system/core_cm3.h **** #define MPU_RASR_AP_Msk                    (7UL << MPU_RASR_AP_Pos)                       /*!< MPU 
 694:system/core_cm3.h **** 
 695:system/core_cm3.h **** #define MPU_RASR_TEX_Pos                   19                                             /*!< MPU 
 696:system/core_cm3.h **** #define MPU_RASR_TEX_Msk                   (7UL << MPU_RASR_TEX_Pos)                      /*!< MPU 
 697:system/core_cm3.h **** 
 698:system/core_cm3.h **** #define MPU_RASR_S_Pos                     18                                             /*!< MPU 
 699:system/core_cm3.h **** #define MPU_RASR_S_Msk                     (1UL << MPU_RASR_S_Pos)                        /*!< MPU 
 700:system/core_cm3.h **** 
 701:system/core_cm3.h **** #define MPU_RASR_C_Pos                     17                                             /*!< MPU 
 702:system/core_cm3.h **** #define MPU_RASR_C_Msk                     (1UL << MPU_RASR_C_Pos)                        /*!< MPU 
 703:system/core_cm3.h **** 
 704:system/core_cm3.h **** #define MPU_RASR_B_Pos                     16                                             /*!< MPU 
 705:system/core_cm3.h **** #define MPU_RASR_B_Msk                     (1UL << MPU_RASR_B_Pos)                        /*!< MPU 
 706:system/core_cm3.h **** 
 707:system/core_cm3.h **** #define MPU_RASR_SRD_Pos                    8                                             /*!< MPU 
 708:system/core_cm3.h **** #define MPU_RASR_SRD_Msk                   (0xFFUL << MPU_RASR_SRD_Pos)                   /*!< MPU 
 709:system/core_cm3.h **** 
 710:system/core_cm3.h **** #define MPU_RASR_SIZE_Pos                   1                                             /*!< MPU 
 711:system/core_cm3.h **** #define MPU_RASR_SIZE_Msk                  (0x1FUL << MPU_RASR_SIZE_Pos)                  /*!< MPU 
 712:system/core_cm3.h **** 
 713:system/core_cm3.h **** #define MPU_RASR_ENA_Pos                     0                                            /*!< MPU 
 714:system/core_cm3.h **** #define MPU_RASR_ENA_Msk                    (0x1UL << MPU_RASR_ENA_Pos)                   /*!< MPU 
 715:system/core_cm3.h **** 
 716:system/core_cm3.h **** /*@} end of group CMSIS_MPU */
 717:system/core_cm3.h **** #endif
 718:system/core_cm3.h **** 
 719:system/core_cm3.h **** 
 720:system/core_cm3.h **** /** \ingroup  CMSIS_core_register
 721:system/core_cm3.h ****     \defgroup CMSIS_CoreDebug CMSIS Core Debug
 722:system/core_cm3.h ****   Type definitions for the Cortex-M Core Debug Registers
 723:system/core_cm3.h ****   @{
 724:system/core_cm3.h ****  */
 725:system/core_cm3.h **** 
 726:system/core_cm3.h **** /** \brief  Structure type to access the Core Debug Register (CoreDebug).
 727:system/core_cm3.h ****  */
 728:system/core_cm3.h **** typedef struct
 729:system/core_cm3.h **** {
 730:system/core_cm3.h ****   __IO uint32_t DHCSR;                   /*!< Offset: 0x000 (R/W)  Debug Halting Control and Status
 731:system/core_cm3.h ****   __O  uint32_t DCRSR;                   /*!< Offset: 0x004 ( /W)  Debug Core Register Selector Reg
 732:system/core_cm3.h ****   __IO uint32_t DCRDR;                   /*!< Offset: 0x008 (R/W)  Debug Core Register Data Registe
 733:system/core_cm3.h ****   __IO uint32_t DEMCR;                   /*!< Offset: 0x00C (R/W)  Debug Exception and Monitor Cont
 734:system/core_cm3.h **** } CoreDebug_Type;
 735:system/core_cm3.h **** 
 736:system/core_cm3.h **** /* Debug Halting Control and Status Register */
 737:system/core_cm3.h **** #define CoreDebug_DHCSR_DBGKEY_Pos         16                                             /*!< Core
ARM GAS  C:\Users\COSMIN~1.MAR\AppData\Local\Temp\ccvw7JOW.s 			page 15


 738:system/core_cm3.h **** #define CoreDebug_DHCSR_DBGKEY_Msk         (0xFFFFUL << CoreDebug_DHCSR_DBGKEY_Pos)       /*!< Core
 739:system/core_cm3.h **** 
 740:system/core_cm3.h **** #define CoreDebug_DHCSR_S_RESET_ST_Pos     25                                             /*!< Core
 741:system/core_cm3.h **** #define CoreDebug_DHCSR_S_RESET_ST_Msk     (1UL << CoreDebug_DHCSR_S_RESET_ST_Pos)        /*!< Core
 742:system/core_cm3.h **** 
 743:system/core_cm3.h **** #define CoreDebug_DHCSR_S_RETIRE_ST_Pos    24                                             /*!< Core
 744:system/core_cm3.h **** #define CoreDebug_DHCSR_S_RETIRE_ST_Msk    (1UL << CoreDebug_DHCSR_S_RETIRE_ST_Pos)       /*!< Core
 745:system/core_cm3.h **** 
 746:system/core_cm3.h **** #define CoreDebug_DHCSR_S_LOCKUP_Pos       19                                             /*!< Core
 747:system/core_cm3.h **** #define CoreDebug_DHCSR_S_LOCKUP_Msk       (1UL << CoreDebug_DHCSR_S_LOCKUP_Pos)          /*!< Core
 748:system/core_cm3.h **** 
 749:system/core_cm3.h **** #define CoreDebug_DHCSR_S_SLEEP_Pos        18                                             /*!< Core
 750:system/core_cm3.h **** #define CoreDebug_DHCSR_S_SLEEP_Msk        (1UL << CoreDebug_DHCSR_S_SLEEP_Pos)           /*!< Core
 751:system/core_cm3.h **** 
 752:system/core_cm3.h **** #define CoreDebug_DHCSR_S_HALT_Pos         17                                             /*!< Core
 753:system/core_cm3.h **** #define CoreDebug_DHCSR_S_HALT_Msk         (1UL << CoreDebug_DHCSR_S_HALT_Pos)            /*!< Core
 754:system/core_cm3.h **** 
 755:system/core_cm3.h **** #define CoreDebug_DHCSR_S_REGRDY_Pos       16                                             /*!< Core
 756:system/core_cm3.h **** #define CoreDebug_DHCSR_S_REGRDY_Msk       (1UL << CoreDebug_DHCSR_S_REGRDY_Pos)          /*!< Core
 757:system/core_cm3.h **** 
 758:system/core_cm3.h **** #define CoreDebug_DHCSR_C_SNAPSTALL_Pos     5                                             /*!< Core
 759:system/core_cm3.h **** #define CoreDebug_DHCSR_C_SNAPSTALL_Msk    (1UL << CoreDebug_DHCSR_C_SNAPSTALL_Pos)       /*!< Core
 760:system/core_cm3.h **** 
 761:system/core_cm3.h **** #define CoreDebug_DHCSR_C_MASKINTS_Pos      3                                             /*!< Core
 762:system/core_cm3.h **** #define CoreDebug_DHCSR_C_MASKINTS_Msk     (1UL << CoreDebug_DHCSR_C_MASKINTS_Pos)        /*!< Core
 763:system/core_cm3.h **** 
 764:system/core_cm3.h **** #define CoreDebug_DHCSR_C_STEP_Pos          2                                             /*!< Core
 765:system/core_cm3.h **** #define CoreDebug_DHCSR_C_STEP_Msk         (1UL << CoreDebug_DHCSR_C_STEP_Pos)            /*!< Core
 766:system/core_cm3.h **** 
 767:system/core_cm3.h **** #define CoreDebug_DHCSR_C_HALT_Pos          1                                             /*!< Core
 768:system/core_cm3.h **** #define CoreDebug_DHCSR_C_HALT_Msk         (1UL << CoreDebug_DHCSR_C_HALT_Pos)            /*!< Core
 769:system/core_cm3.h **** 
 770:system/core_cm3.h **** #define CoreDebug_DHCSR_C_DEBUGEN_Pos       0                                             /*!< Core
 771:system/core_cm3.h **** #define CoreDebug_DHCSR_C_DEBUGEN_Msk      (1UL << CoreDebug_DHCSR_C_DEBUGEN_Pos)         /*!< Core
 772:system/core_cm3.h **** 
 773:system/core_cm3.h **** /* Debug Core Register Selector Register */
 774:system/core_cm3.h **** #define CoreDebug_DCRSR_REGWnR_Pos         16                                             /*!< Core
 775:system/core_cm3.h **** #define CoreDebug_DCRSR_REGWnR_Msk         (1UL << CoreDebug_DCRSR_REGWnR_Pos)            /*!< Core
 776:system/core_cm3.h **** 
 777:system/core_cm3.h **** #define CoreDebug_DCRSR_REGSEL_Pos          0                                             /*!< Core
 778:system/core_cm3.h **** #define CoreDebug_DCRSR_REGSEL_Msk         (0x1FUL << CoreDebug_DCRSR_REGSEL_Pos)         /*!< Core
 779:system/core_cm3.h **** 
 780:system/core_cm3.h **** /* Debug Exception and Monitor Control Register */
 781:system/core_cm3.h **** #define CoreDebug_DEMCR_TRCENA_Pos         24                                             /*!< Core
 782:system/core_cm3.h **** #define CoreDebug_DEMCR_TRCENA_Msk         (1UL << CoreDebug_DEMCR_TRCENA_Pos)            /*!< Core
 783:system/core_cm3.h **** 
 784:system/core_cm3.h **** #define CoreDebug_DEMCR_MON_REQ_Pos        19                                             /*!< Core
 785:system/core_cm3.h **** #define CoreDebug_DEMCR_MON_REQ_Msk        (1UL << CoreDebug_DEMCR_MON_REQ_Pos)           /*!< Core
 786:system/core_cm3.h **** 
 787:system/core_cm3.h **** #define CoreDebug_DEMCR_MON_STEP_Pos       18                                             /*!< Core
 788:system/core_cm3.h **** #define CoreDebug_DEMCR_MON_STEP_Msk       (1UL << CoreDebug_DEMCR_MON_STEP_Pos)          /*!< Core
 789:system/core_cm3.h **** 
 790:system/core_cm3.h **** #define CoreDebug_DEMCR_MON_PEND_Pos       17                                             /*!< Core
 791:system/core_cm3.h **** #define CoreDebug_DEMCR_MON_PEND_Msk       (1UL << CoreDebug_DEMCR_MON_PEND_Pos)          /*!< Core
 792:system/core_cm3.h **** 
 793:system/core_cm3.h **** #define CoreDebug_DEMCR_MON_EN_Pos         16                                             /*!< Core
 794:system/core_cm3.h **** #define CoreDebug_DEMCR_MON_EN_Msk         (1UL << CoreDebug_DEMCR_MON_EN_Pos)            /*!< Core
ARM GAS  C:\Users\COSMIN~1.MAR\AppData\Local\Temp\ccvw7JOW.s 			page 16


 795:system/core_cm3.h **** 
 796:system/core_cm3.h **** #define CoreDebug_DEMCR_VC_HARDERR_Pos     10                                             /*!< Core
 797:system/core_cm3.h **** #define CoreDebug_DEMCR_VC_HARDERR_Msk     (1UL << CoreDebug_DEMCR_VC_HARDERR_Pos)        /*!< Core
 798:system/core_cm3.h **** 
 799:system/core_cm3.h **** #define CoreDebug_DEMCR_VC_INTERR_Pos       9                                             /*!< Core
 800:system/core_cm3.h **** #define CoreDebug_DEMCR_VC_INTERR_Msk      (1UL << CoreDebug_DEMCR_VC_INTERR_Pos)         /*!< Core
 801:system/core_cm3.h **** 
 802:system/core_cm3.h **** #define CoreDebug_DEMCR_VC_BUSERR_Pos       8                                             /*!< Core
 803:system/core_cm3.h **** #define CoreDebug_DEMCR_VC_BUSERR_Msk      (1UL << CoreDebug_DEMCR_VC_BUSERR_Pos)         /*!< Core
 804:system/core_cm3.h **** 
 805:system/core_cm3.h **** #define CoreDebug_DEMCR_VC_STATERR_Pos      7                                             /*!< Core
 806:system/core_cm3.h **** #define CoreDebug_DEMCR_VC_STATERR_Msk     (1UL << CoreDebug_DEMCR_VC_STATERR_Pos)        /*!< Core
 807:system/core_cm3.h **** 
 808:system/core_cm3.h **** #define CoreDebug_DEMCR_VC_CHKERR_Pos       6                                             /*!< Core
 809:system/core_cm3.h **** #define CoreDebug_DEMCR_VC_CHKERR_Msk      (1UL << CoreDebug_DEMCR_VC_CHKERR_Pos)         /*!< Core
 810:system/core_cm3.h **** 
 811:system/core_cm3.h **** #define CoreDebug_DEMCR_VC_NOCPERR_Pos      5                                             /*!< Core
 812:system/core_cm3.h **** #define CoreDebug_DEMCR_VC_NOCPERR_Msk     (1UL << CoreDebug_DEMCR_VC_NOCPERR_Pos)        /*!< Core
 813:system/core_cm3.h **** 
 814:system/core_cm3.h **** #define CoreDebug_DEMCR_VC_MMERR_Pos        4                                             /*!< Core
 815:system/core_cm3.h **** #define CoreDebug_DEMCR_VC_MMERR_Msk       (1UL << CoreDebug_DEMCR_VC_MMERR_Pos)          /*!< Core
 816:system/core_cm3.h **** 
 817:system/core_cm3.h **** #define CoreDebug_DEMCR_VC_CORERESET_Pos    0                                             /*!< Core
 818:system/core_cm3.h **** #define CoreDebug_DEMCR_VC_CORERESET_Msk   (1UL << CoreDebug_DEMCR_VC_CORERESET_Pos)      /*!< Core
 819:system/core_cm3.h **** 
 820:system/core_cm3.h **** /*@} end of group CMSIS_CoreDebug */
 821:system/core_cm3.h **** 
 822:system/core_cm3.h **** 
 823:system/core_cm3.h **** /** \ingroup  CMSIS_core_register
 824:system/core_cm3.h ****   @{
 825:system/core_cm3.h ****  */
 826:system/core_cm3.h **** 
 827:system/core_cm3.h **** /* Memory mapping of Cortex-M3 Hardware */
 828:system/core_cm3.h **** #define SCS_BASE            (0xE000E000UL)                            /*!< System Control Space Bas
 829:system/core_cm3.h **** #define ITM_BASE            (0xE0000000UL)                            /*!< ITM Base Address        
 830:system/core_cm3.h **** #define CoreDebug_BASE      (0xE000EDF0UL)                            /*!< Core Debug Base Address 
 831:system/core_cm3.h **** #define SysTick_BASE        (SCS_BASE +  0x0010UL)                    /*!< SysTick Base Address    
 832:system/core_cm3.h **** #define NVIC_BASE           (SCS_BASE +  0x0100UL)                    /*!< NVIC Base Address       
 833:system/core_cm3.h **** #define SCB_BASE            (SCS_BASE +  0x0D00UL)                    /*!< System Control Block Bas
 834:system/core_cm3.h **** 
 835:system/core_cm3.h **** #define InterruptType       ((InterruptType_Type *) SCS_BASE)         /*!< Interrupt Type Register 
 836:system/core_cm3.h **** #define SCB                 ((SCB_Type *)           SCB_BASE)         /*!< SCB configuration struct
 837:system/core_cm3.h **** #define SysTick             ((SysTick_Type *)       SysTick_BASE)     /*!< SysTick configuration st
 838:system/core_cm3.h **** #define NVIC                ((NVIC_Type *)          NVIC_BASE)        /*!< NVIC configuration struc
 839:system/core_cm3.h **** #define ITM                 ((ITM_Type *)           ITM_BASE)         /*!< ITM configuration struct
 840:system/core_cm3.h **** #define CoreDebug           ((CoreDebug_Type *)     CoreDebug_BASE)   /*!< Core Debug configuration
 841:system/core_cm3.h **** 
 842:system/core_cm3.h **** #if (__MPU_PRESENT == 1)
 843:system/core_cm3.h ****   #define MPU_BASE          (SCS_BASE +  0x0D90UL)                    /*!< Memory Protection Unit  
 844:system/core_cm3.h ****   #define MPU               ((MPU_Type*)            MPU_BASE)         /*!< Memory Protection Unit  
 845:system/core_cm3.h **** #endif
 846:system/core_cm3.h **** 
 847:system/core_cm3.h **** /*@} */
 848:system/core_cm3.h **** 
 849:system/core_cm3.h **** 
 850:system/core_cm3.h **** 
 851:system/core_cm3.h **** /*******************************************************************************
ARM GAS  C:\Users\COSMIN~1.MAR\AppData\Local\Temp\ccvw7JOW.s 			page 17


 852:system/core_cm3.h ****  *                Hardware Abstraction Layer
 853:system/core_cm3.h ****  ******************************************************************************/
 854:system/core_cm3.h **** /** \addtogroup CMSIS_Core_FunctionInterface CMSIS Core Function Interface
 855:system/core_cm3.h ****   Core Function Interface contains:
 856:system/core_cm3.h ****   - Core NVIC Functions
 857:system/core_cm3.h ****   - Core SysTick Functions
 858:system/core_cm3.h ****   - Core Debug Functions
 859:system/core_cm3.h ****   - Core Register Access Functions
 860:system/core_cm3.h **** */
 861:system/core_cm3.h **** 
 862:system/core_cm3.h **** 
 863:system/core_cm3.h **** 
 864:system/core_cm3.h **** /* ##########################   NVIC functions  #################################### */
 865:system/core_cm3.h **** /** \ingroup  CMSIS_Core_FunctionInterface
 866:system/core_cm3.h ****     \defgroup CMSIS_Core_NVICFunctions CMSIS Core NVIC Functions
 867:system/core_cm3.h ****   @{
 868:system/core_cm3.h ****  */
 869:system/core_cm3.h **** /** @addtogroup CMSIS_Core_NVICFunctions
 870:system/core_cm3.h ****  * @{
 871:system/core_cm3.h ****  */
 872:system/core_cm3.h **** /** \brief  Set Priority Grouping
 873:system/core_cm3.h **** 
 874:system/core_cm3.h ****   This function sets the priority grouping field using the required unlock sequence.
 875:system/core_cm3.h ****   The parameter PriorityGroup is assigned to the field SCB->AIRCR [10:8] PRIGROUP field.
 876:system/core_cm3.h ****   Only values from 0..7 are used.
 877:system/core_cm3.h ****   In case of a conflict between priority grouping and available
 878:system/core_cm3.h ****   priority bits (__NVIC_PRIO_BITS) the smallest possible priority group is set.
 879:system/core_cm3.h **** 
 880:system/core_cm3.h ****     \param [in]      PriorityGroup  Priority grouping field
 881:system/core_cm3.h ****  */
 882:system/core_cm3.h **** static __INLINE void NVIC_SetPriorityGrouping(uint32_t PriorityGroup)
 883:system/core_cm3.h **** {
 884:system/core_cm3.h ****   uint32_t reg_value;
 885:system/core_cm3.h ****   uint32_t PriorityGroupTmp = (PriorityGroup & 0x07);                         /* only values 0..7 a
 886:system/core_cm3.h **** 
 887:system/core_cm3.h ****   reg_value  =  SCB->AIRCR;                                                   /* read old register 
 888:system/core_cm3.h ****   reg_value &= ~(SCB_AIRCR_VECTKEY_Msk | SCB_AIRCR_PRIGROUP_Msk);             /* clear bits to chan
 889:system/core_cm3.h ****   reg_value  =  (reg_value                       |
 890:system/core_cm3.h ****                 (0x5FA << SCB_AIRCR_VECTKEY_Pos) |
 891:system/core_cm3.h ****                 (PriorityGroupTmp << 8));                                     /* Insert write key a
 892:system/core_cm3.h ****   SCB->AIRCR =  reg_value;
 893:system/core_cm3.h **** }
 894:system/core_cm3.h **** 
 895:system/core_cm3.h **** 
 896:system/core_cm3.h **** /** \brief  Get Priority Grouping
 897:system/core_cm3.h **** 
 898:system/core_cm3.h ****   This function gets the priority grouping from NVIC Interrupt Controller.
 899:system/core_cm3.h ****   Priority grouping is SCB->AIRCR [10:8] PRIGROUP field.
 900:system/core_cm3.h **** 
 901:system/core_cm3.h ****     \return                Priority grouping field
 902:system/core_cm3.h ****  */
 903:system/core_cm3.h **** static __INLINE uint32_t NVIC_GetPriorityGrouping(void)
 904:system/core_cm3.h **** {
 905:system/core_cm3.h ****   return ((SCB->AIRCR & SCB_AIRCR_PRIGROUP_Msk) >> SCB_AIRCR_PRIGROUP_Pos);   /* read priority grou
 906:system/core_cm3.h **** }
 907:system/core_cm3.h **** 
 908:system/core_cm3.h **** 
ARM GAS  C:\Users\COSMIN~1.MAR\AppData\Local\Temp\ccvw7JOW.s 			page 18


 909:system/core_cm3.h **** /** \brief  Enable External Interrupt
 910:system/core_cm3.h **** 
 911:system/core_cm3.h ****     This function enables a device specific interupt in the NVIC interrupt controller.
 912:system/core_cm3.h ****     The interrupt number cannot be a negative value.
 913:system/core_cm3.h **** 
 914:system/core_cm3.h ****     \param [in]      IRQn  Number of the external interrupt to enable
 915:system/core_cm3.h ****  */
 916:system/core_cm3.h **** static __INLINE void NVIC_EnableIRQ(IRQn_Type IRQn)
 917:system/core_cm3.h **** {
  62              		.loc 1 917 0
  63              		.cfi_startproc
  64              		@ args = 0, pretend = 0, frame = 8
  65              		@ frame_needed = 1, uses_anonymous_args = 0
  66              		@ link register save eliminated.
  67 0000 80B4     		push	{r7}	@
  68              		.cfi_def_cfa_offset 4
  69              		.cfi_offset 7, -4
  70 0002 83B0     		sub	sp, sp, #12	@,,
  71              		.cfi_def_cfa_offset 16
  72 0004 00AF     		add	r7, sp, #0	@,,
  73              		.cfi_def_cfa_register 7
  74 0006 0346     		mov	r3, r0	@ tmp118, IRQn
  75 0008 FB71     		strb	r3, [r7, #7]	@ tmp119, IRQn
 918:system/core_cm3.h ****   NVIC->ISER[((uint32_t)(IRQn) >> 5)] = (1 << ((uint32_t)(IRQn) & 0x1F)); /* enable interrupt */
  76              		.loc 1 918 0
  77 000a 0849     		ldr	r1, .L2	@ D.5900,
  78 000c 97F90730 		ldrsb	r3, [r7, #7]	@ D.5901, IRQn
  79 0010 5B09     		lsrs	r3, r3, #5	@ D.5901, D.5901,
  80 0012 FA79     		ldrb	r2, [r7, #7]	@ zero_extendqisi2	@ D.5902, IRQn
  81 0014 02F01F02 		and	r2, r2, #31	@ D.5903, D.5903,
  82 0018 0120     		movs	r0, #1	@ tmp120,
  83 001a 00FA02F2 		lsl	r2, r0, r2	@ D.5903, tmp120, D.5903
  84 001e 41F82320 		str	r2, [r1, r3, lsl #2]	@ D.5901, _1->ISER
 919:system/core_cm3.h **** }
  85              		.loc 1 919 0
  86 0022 0C37     		adds	r7, r7, #12	@,,
  87              		.cfi_def_cfa_offset 4
  88 0024 BD46     		mov	sp, r7	@,
  89              		.cfi_def_cfa_register 13
  90              		@ sp needed	@
  91 0026 5DF8047B 		ldr	r7, [sp], #4	@,
  92              		.cfi_restore 7
  93              		.cfi_def_cfa_offset 0
  94 002a 7047     		bx	lr	@
  95              	.L3:
  96              		.align	2
  97              	.L2:
  98 002c 00E100E0 		.word	-536813312
  99              		.cfi_endproc
 100              	.LFE40:
 101              		.size	NVIC_EnableIRQ, .-NVIC_EnableIRQ
 102              		.section	.text.NVIC_SetPriority,"ax",%progbits
 103              		.align	2
 104              		.thumb
 105              		.thumb_func
 106              		.type	NVIC_SetPriority, %function
 107              	NVIC_SetPriority:
ARM GAS  C:\Users\COSMIN~1.MAR\AppData\Local\Temp\ccvw7JOW.s 			page 19


 108              	.LFB46:
 920:system/core_cm3.h **** 
 921:system/core_cm3.h **** 
 922:system/core_cm3.h **** /** \brief  Disable External Interrupt
 923:system/core_cm3.h **** 
 924:system/core_cm3.h ****     This function disables a device specific interupt in the NVIC interrupt controller.
 925:system/core_cm3.h ****     The interrupt number cannot be a negative value.
 926:system/core_cm3.h **** 
 927:system/core_cm3.h ****     \param [in]      IRQn  Number of the external interrupt to disable
 928:system/core_cm3.h ****  */
 929:system/core_cm3.h **** static __INLINE void NVIC_DisableIRQ(IRQn_Type IRQn)
 930:system/core_cm3.h **** {
 931:system/core_cm3.h ****   NVIC->ICER[((uint32_t)(IRQn) >> 5)] = (1 << ((uint32_t)(IRQn) & 0x1F)); /* disable interrupt */
 932:system/core_cm3.h **** }
 933:system/core_cm3.h **** 
 934:system/core_cm3.h **** 
 935:system/core_cm3.h **** /** \brief  Get Pending Interrupt
 936:system/core_cm3.h **** 
 937:system/core_cm3.h ****     This function reads the pending register in the NVIC and returns the pending bit
 938:system/core_cm3.h ****     for the specified interrupt.
 939:system/core_cm3.h **** 
 940:system/core_cm3.h ****     \param [in]      IRQn  Number of the interrupt for get pending
 941:system/core_cm3.h ****     \return             0  Interrupt status is not pending
 942:system/core_cm3.h ****     \return             1  Interrupt status is pending
 943:system/core_cm3.h ****  */
 944:system/core_cm3.h **** static __INLINE uint32_t NVIC_GetPendingIRQ(IRQn_Type IRQn)
 945:system/core_cm3.h **** {
 946:system/core_cm3.h ****   return((uint32_t) ((NVIC->ISPR[(uint32_t)(IRQn) >> 5] & (1 << ((uint32_t)(IRQn) & 0x1F)))?1:0)); 
 947:system/core_cm3.h **** }
 948:system/core_cm3.h **** 
 949:system/core_cm3.h **** 
 950:system/core_cm3.h **** /** \brief  Set Pending Interrupt
 951:system/core_cm3.h **** 
 952:system/core_cm3.h ****     This function sets the pending bit for the specified interrupt.
 953:system/core_cm3.h ****     The interrupt number cannot be a negative value.
 954:system/core_cm3.h **** 
 955:system/core_cm3.h ****     \param [in]      IRQn  Number of the interrupt for set pending
 956:system/core_cm3.h ****  */
 957:system/core_cm3.h **** static __INLINE void NVIC_SetPendingIRQ(IRQn_Type IRQn)
 958:system/core_cm3.h **** {
 959:system/core_cm3.h ****   NVIC->ISPR[((uint32_t)(IRQn) >> 5)] = (1 << ((uint32_t)(IRQn) & 0x1F)); /* set interrupt pending 
 960:system/core_cm3.h **** }
 961:system/core_cm3.h **** 
 962:system/core_cm3.h **** 
 963:system/core_cm3.h **** /** \brief  Clear Pending Interrupt
 964:system/core_cm3.h **** 
 965:system/core_cm3.h ****     This function clears the pending bit for the specified interrupt.
 966:system/core_cm3.h ****     The interrupt number cannot be a negative value.
 967:system/core_cm3.h **** 
 968:system/core_cm3.h ****     \param [in]      IRQn  Number of the interrupt for clear pending
 969:system/core_cm3.h ****  */
 970:system/core_cm3.h **** static __INLINE void NVIC_ClearPendingIRQ(IRQn_Type IRQn)
 971:system/core_cm3.h **** {
 972:system/core_cm3.h ****   NVIC->ICPR[((uint32_t)(IRQn) >> 5)] = (1 << ((uint32_t)(IRQn) & 0x1F)); /* Clear pending interrup
 973:system/core_cm3.h **** }
 974:system/core_cm3.h **** 
 975:system/core_cm3.h **** 
ARM GAS  C:\Users\COSMIN~1.MAR\AppData\Local\Temp\ccvw7JOW.s 			page 20


 976:system/core_cm3.h **** /** \brief  Get Active Interrupt
 977:system/core_cm3.h **** 
 978:system/core_cm3.h ****     This function reads the active register in NVIC and returns the active bit.
 979:system/core_cm3.h ****     \param [in]      IRQn  Number of the interrupt for get active
 980:system/core_cm3.h ****     \return             0  Interrupt status is not active
 981:system/core_cm3.h ****     \return             1  Interrupt status is active
 982:system/core_cm3.h ****  */
 983:system/core_cm3.h **** static __INLINE uint32_t NVIC_GetActive(IRQn_Type IRQn)
 984:system/core_cm3.h **** {
 985:system/core_cm3.h ****   return((uint32_t)((NVIC->IABR[(uint32_t)(IRQn) >> 5] & (1 << ((uint32_t)(IRQn) & 0x1F)))?1:0)); /
 986:system/core_cm3.h **** }
 987:system/core_cm3.h **** 
 988:system/core_cm3.h **** 
 989:system/core_cm3.h **** /** \brief  Set Interrupt Priority
 990:system/core_cm3.h **** 
 991:system/core_cm3.h ****     This function sets the priority for the specified interrupt. The interrupt
 992:system/core_cm3.h ****     number can be positive to specify an external (device specific)
 993:system/core_cm3.h ****     interrupt, or negative to specify an internal (core) interrupt.
 994:system/core_cm3.h **** 
 995:system/core_cm3.h ****     Note: The priority cannot be set for every core interrupt.
 996:system/core_cm3.h **** 
 997:system/core_cm3.h ****     \param [in]      IRQn  Number of the interrupt for set priority
 998:system/core_cm3.h ****     \param [in]  priority  Priority to set
 999:system/core_cm3.h ****  */
1000:system/core_cm3.h **** static __INLINE void NVIC_SetPriority(IRQn_Type IRQn, uint32_t priority)
1001:system/core_cm3.h **** {
 109              		.loc 1 1001 0
 110              		.cfi_startproc
 111              		@ args = 0, pretend = 0, frame = 8
 112              		@ frame_needed = 1, uses_anonymous_args = 0
 113              		@ link register save eliminated.
 114 0000 80B4     		push	{r7}	@
 115              		.cfi_def_cfa_offset 4
 116              		.cfi_offset 7, -4
 117 0002 83B0     		sub	sp, sp, #12	@,,
 118              		.cfi_def_cfa_offset 16
 119 0004 00AF     		add	r7, sp, #0	@,,
 120              		.cfi_def_cfa_register 7
 121 0006 0346     		mov	r3, r0	@ tmp121, IRQn
 122 0008 3960     		str	r1, [r7]	@ priority, priority
 123 000a FB71     		strb	r3, [r7, #7]	@ tmp122, IRQn
1002:system/core_cm3.h ****   if(IRQn < 0) {
 124              		.loc 1 1002 0
 125 000c 97F90730 		ldrsb	r3, [r7, #7]	@ tmp123, IRQn
 126 0010 002B     		cmp	r3, #0	@ tmp123,
 127 0012 0BDA     		bge	.L5	@,
1003:system/core_cm3.h ****     SCB->SHP[((uint32_t)(IRQn) & 0xF)-4] = ((priority << (8 - __NVIC_PRIO_BITS)) & 0xff); } /* set 
 128              		.loc 1 1003 0
 129 0014 0D49     		ldr	r1, .L7	@ D.5904,
 130 0016 FB79     		ldrb	r3, [r7, #7]	@ zero_extendqisi2	@ D.5905, IRQn
 131 0018 03F00F03 		and	r3, r3, #15	@ D.5906, D.5906,
 132 001c 043B     		subs	r3, r3, #4	@ D.5906, D.5906,
 133 001e 3A68     		ldr	r2, [r7]	@ tmp124, priority
 134 0020 D2B2     		uxtb	r2, r2	@ D.5907, tmp124
 135 0022 D200     		lsls	r2, r2, #3	@ tmp125, D.5907,
 136 0024 D2B2     		uxtb	r2, r2	@ D.5907, tmp125
 137 0026 0B44     		add	r3, r3, r1	@ tmp126, D.5904
ARM GAS  C:\Users\COSMIN~1.MAR\AppData\Local\Temp\ccvw7JOW.s 			page 21


 138 0028 1A76     		strb	r2, [r3, #24]	@ tmp127, _2->SHP
 139 002a 09E0     		b	.L4	@
 140              	.L5:
1004:system/core_cm3.h ****   else {
1005:system/core_cm3.h ****     NVIC->IP[(uint32_t)(IRQn)] = ((priority << (8 - __NVIC_PRIO_BITS)) & 0xff);    }        /* set 
 141              		.loc 1 1005 0
 142 002c 0849     		ldr	r1, .L7+4	@ D.5908,
 143 002e 97F90730 		ldrsb	r3, [r7, #7]	@ D.5906, IRQn
 144 0032 3A68     		ldr	r2, [r7]	@ tmp128, priority
 145 0034 D2B2     		uxtb	r2, r2	@ D.5907, tmp128
 146 0036 D200     		lsls	r2, r2, #3	@ tmp129, D.5907,
 147 0038 D2B2     		uxtb	r2, r2	@ D.5907, tmp129
 148 003a 0B44     		add	r3, r3, r1	@ tmp130, D.5908
 149 003c 83F80023 		strb	r2, [r3, #768]	@ tmp131, _10->IP
 150              	.L4:
1006:system/core_cm3.h **** }
 151              		.loc 1 1006 0
 152 0040 0C37     		adds	r7, r7, #12	@,,
 153              		.cfi_def_cfa_offset 4
 154 0042 BD46     		mov	sp, r7	@,
 155              		.cfi_def_cfa_register 13
 156              		@ sp needed	@
 157 0044 5DF8047B 		ldr	r7, [sp], #4	@,
 158              		.cfi_restore 7
 159              		.cfi_def_cfa_offset 0
 160 0048 7047     		bx	lr	@
 161              	.L8:
 162 004a 00BF     		.align	2
 163              	.L7:
 164 004c 00ED00E0 		.word	-536810240
 165 0050 00E100E0 		.word	-536813312
 166              		.cfi_endproc
 167              	.LFE46:
 168              		.size	NVIC_SetPriority, .-NVIC_SetPriority
 169              		.section	.bss.ls_PinselConfig,"aw",%nobits
 170              		.align	2
 171              		.type	ls_PinselConfig, %object
 172              		.size	ls_PinselConfig, 5
 173              	ls_PinselConfig:
 174 0000 00000000 		.space	5
 174      00
 175 0005 000000   		.section	.bss.ls_TimerConfig,"aw",%nobits
 176              		.align	2
 177              		.type	ls_TimerConfig, %object
 178              		.size	ls_TimerConfig, 8
 179              	ls_TimerConfig:
 180 0000 00000000 		.space	8
 180      00000000 
 181              		.section	.bss.ls_MatchConfig,"aw",%nobits
 182              		.align	2
 183              		.type	ls_MatchConfig, %object
 184              		.size	ls_MatchConfig, 12
 185              	ls_MatchConfig:
 186 0000 00000000 		.space	12
 186      00000000 
 186      00000000 
 187              		.section	.text.rcscheduler_Timer0_IRQHandler,"ax",%progbits
ARM GAS  C:\Users\COSMIN~1.MAR\AppData\Local\Temp\ccvw7JOW.s 			page 22


 188              		.align	2
 189              		.global	rcscheduler_Timer0_IRQHandler
 190              		.thumb
 191              		.thumb_func
 192              		.type	rcscheduler_Timer0_IRQHandler, %function
 193              	rcscheduler_Timer0_IRQHandler:
 194              	.LFB55:
 195              		.file 2 "modules/rc_scheduler/rc_scheduler.c"
   1:modules/rc_scheduler/rc_scheduler.c **** /**
   2:modules/rc_scheduler/rc_scheduler.c ****  * \file	rc_scheduler.c
   3:modules/rc_scheduler/rc_scheduler.c ****  * \brief	Virtual timer functions
   4:modules/rc_scheduler/rc_scheduler.c ****  * \details	Implements the functions for periodical actions
   5:modules/rc_scheduler/rc_scheduler.c ****  * \author	Cosmin Marcu
   6:modules/rc_scheduler/rc_scheduler.c ****  * \date	Jun 23, 2015
   7:modules/rc_scheduler/rc_scheduler.c ****  * \version 1.0.1
   8:modules/rc_scheduler/rc_scheduler.c ****  */
   9:modules/rc_scheduler/rc_scheduler.c **** 
  10:modules/rc_scheduler/rc_scheduler.c **** /* Includes */
  11:modules/rc_scheduler/rc_scheduler.c **** #include "rc_scheduler.h"
  12:modules/rc_scheduler/rc_scheduler.c **** #include "rc_timer.h"
  13:modules/rc_scheduler/rc_scheduler.c **** 
  14:modules/rc_scheduler/rc_scheduler.c **** /* Include module headers */
  15:modules/rc_scheduler/rc_scheduler.c **** #include "rc_xbee.h"
  16:modules/rc_scheduler/rc_scheduler.c **** 
  17:modules/rc_scheduler/rc_scheduler.c **** PRIVATE_DATA T_RCPINSEL_CFG ls_PinselConfig;							//!< Timer pins config structure
  18:modules/rc_scheduler/rc_scheduler.c **** PRIVATE_DATA T_RCTMR_TIMER_CONFIG ls_TimerConfig;						//!< Timer attributes config structure
  19:modules/rc_scheduler/rc_scheduler.c **** PRIVATE_DATA T_RCTMR_MATCH_CONFIG ls_MatchConfig;						//!< Timer match config structure
  20:modules/rc_scheduler/rc_scheduler.c **** /**
  21:modules/rc_scheduler/rc_scheduler.c ****  * \ingroup  rc_scheduler
  22:modules/rc_scheduler/rc_scheduler.c ****  * \defgroup scheduler_functions Scheduler Functions
  23:modules/rc_scheduler/rc_scheduler.c ****  *  Functions definitions for periodical actions
  24:modules/rc_scheduler/rc_scheduler.c ****  *  @{
  25:modules/rc_scheduler/rc_scheduler.c ****  */
  26:modules/rc_scheduler/rc_scheduler.c **** 
  27:modules/rc_scheduler/rc_scheduler.c **** /* IRQ Handers */
  28:modules/rc_scheduler/rc_scheduler.c **** /**
  29:modules/rc_scheduler/rc_scheduler.c ****  * @brief 	Timer0 interrupt handler
  30:modules/rc_scheduler/rc_scheduler.c ****  * @details TBD.
  31:modules/rc_scheduler/rc_scheduler.c ****  */
  32:modules/rc_scheduler/rc_scheduler.c **** void rcscheduler_Timer0_IRQHandler(void)
  33:modules/rc_scheduler/rc_scheduler.c **** {
 196              		.loc 2 33 0
 197              		.cfi_startproc
 198              		@ args = 0, pretend = 0, frame = 0
 199              		@ frame_needed = 1, uses_anonymous_args = 0
 200 0000 80B5     		push	{r7, lr}	@
 201              		.cfi_def_cfa_offset 8
 202              		.cfi_offset 7, -8
 203              		.cfi_offset 14, -4
 204 0002 00AF     		add	r7, sp, #0	@,,
 205              		.cfi_def_cfa_register 7
  34:modules/rc_scheduler/rc_scheduler.c **** 	if (rctimer_GetTimerInterruptStatus(RCSCHEDULER_TIMER_PORT, E_RCTMR_IRQ_MR1)== E_RC_ON)
 206              		.loc 2 34 0
 207 0004 4FF04020 		mov	r0, #1073758208	@,
 208 0008 0121     		movs	r1, #1	@,
 209 000a FFF7FEFF 		bl	rctimer_GetTimerInterruptStatus	@
 210 000e 0346     		mov	r3, r0	@ tmp111,
ARM GAS  C:\Users\COSMIN~1.MAR\AppData\Local\Temp\ccvw7JOW.s 			page 23


 211 0010 012B     		cmp	r3, #1	@ D.5909,
 212 0012 01D1     		bne	.L10	@,
  35:modules/rc_scheduler/rc_scheduler.c **** 	{
  36:modules/rc_scheduler/rc_scheduler.c **** 		//TODO: Add a list of callback functions
  37:modules/rc_scheduler/rc_scheduler.c **** 		/* Call XBee task scheduler */
  38:modules/rc_scheduler/rc_scheduler.c **** 		rcxb_PeriodicalTask();
 213              		.loc 2 38 0
 214 0014 FFF7FEFF 		bl	rcxb_PeriodicalTask	@
 215              	.L10:
  39:modules/rc_scheduler/rc_scheduler.c **** 	}
  40:modules/rc_scheduler/rc_scheduler.c **** 	rctimer_ClearTimerInterrupt(RCSCHEDULER_TIMER_PORT, E_RCTMR_IRQ_MR1);
 216              		.loc 2 40 0
 217 0018 4FF04020 		mov	r0, #1073758208	@,
 218 001c 0121     		movs	r1, #1	@,
 219 001e FFF7FEFF 		bl	rctimer_ClearTimerInterrupt	@
  41:modules/rc_scheduler/rc_scheduler.c **** 	rctimer_ResetCounter(RCSCHEDULER_TIMER_PORT);
 220              		.loc 2 41 0
 221 0022 4FF04020 		mov	r0, #1073758208	@,
 222 0026 FFF7FEFF 		bl	rctimer_ResetCounter	@
  42:modules/rc_scheduler/rc_scheduler.c **** }
 223              		.loc 2 42 0
 224 002a 80BD     		pop	{r7, pc}	@
 225              		.cfi_endproc
 226              	.LFE55:
 227              		.size	rcscheduler_Timer0_IRQHandler, .-rcscheduler_Timer0_IRQHandler
 228              		.section	.text.rcscheduler_Init,"ax",%progbits
 229              		.align	2
 230              		.global	rcscheduler_Init
 231              		.thumb
 232              		.thumb_func
 233              		.type	rcscheduler_Init, %function
 234              	rcscheduler_Init:
 235              	.LFB56:
  43:modules/rc_scheduler/rc_scheduler.c **** 
  44:modules/rc_scheduler/rc_scheduler.c **** /**
  45:modules/rc_scheduler/rc_scheduler.c ****  * \brief	Initializes scheduler/timers
  46:modules/rc_scheduler/rc_scheduler.c ****  * \return 	none
  47:modules/rc_scheduler/rc_scheduler.c ****  */
  48:modules/rc_scheduler/rc_scheduler.c **** void rcscheduler_Init(void)
  49:modules/rc_scheduler/rc_scheduler.c **** {
 236              		.loc 2 49 0
 237              		.cfi_startproc
 238              		@ args = 0, pretend = 0, frame = 0
 239              		@ frame_needed = 1, uses_anonymous_args = 0
 240 0000 80B5     		push	{r7, lr}	@
 241              		.cfi_def_cfa_offset 8
 242              		.cfi_offset 7, -8
 243              		.cfi_offset 14, -4
 244 0002 00AF     		add	r7, sp, #0	@,,
 245              		.cfi_def_cfa_register 7
  50:modules/rc_scheduler/rc_scheduler.c **** 
  51:modules/rc_scheduler/rc_scheduler.c **** 	/* Configure Timer Port pins */
  52:modules/rc_scheduler/rc_scheduler.c **** 	ls_PinselConfig.e_Port = E_RC_IOPORT1;
 246              		.loc 2 52 0
 247 0004 224B     		ldr	r3, .L12	@ tmp110,
 248 0006 0122     		movs	r2, #1	@ tmp111,
 249 0008 1A70     		strb	r2, [r3]	@ tmp112, ls_PinselConfig.e_Port
ARM GAS  C:\Users\COSMIN~1.MAR\AppData\Local\Temp\ccvw7JOW.s 			page 24


  53:modules/rc_scheduler/rc_scheduler.c **** 	ls_PinselConfig.e_Function = E_RCPINSEL_FUNC3;
 250              		.loc 2 53 0
 251 000a 214B     		ldr	r3, .L12	@ tmp113,
 252 000c 0322     		movs	r2, #3	@ tmp114,
 253 000e 9A70     		strb	r2, [r3, #2]	@ tmp115, ls_PinselConfig.e_Function
  54:modules/rc_scheduler/rc_scheduler.c **** 	ls_PinselConfig.e_Pin = E_RC_IOPIN29;
 254              		.loc 2 54 0
 255 0010 1F4B     		ldr	r3, .L12	@ tmp116,
 256 0012 1D22     		movs	r2, #29	@ tmp117,
 257 0014 5A70     		strb	r2, [r3, #1]	@ tmp118, ls_PinselConfig.e_Pin
  55:modules/rc_scheduler/rc_scheduler.c **** 	ls_PinselConfig.e_Mode = E_RCPINSEL_MODE_PULLUP;
 258              		.loc 2 55 0
 259 0016 1E4B     		ldr	r3, .L12	@ tmp119,
 260 0018 0022     		movs	r2, #0	@ tmp120,
 261 001a DA70     		strb	r2, [r3, #3]	@ tmp121, ls_PinselConfig.e_Mode
  56:modules/rc_scheduler/rc_scheduler.c **** 	ls_PinselConfig.e_Drain = E_RCPINSEL_DRAIN_NORMAL;
 262              		.loc 2 56 0
 263 001c 1C4B     		ldr	r3, .L12	@ tmp122,
 264 001e 0022     		movs	r2, #0	@ tmp123,
 265 0020 1A71     		strb	r2, [r3, #4]	@ tmp124, ls_PinselConfig.e_Drain
  57:modules/rc_scheduler/rc_scheduler.c **** 	/* Configure pin 1.28 */
  58:modules/rc_scheduler/rc_scheduler.c **** 	rcpinsel_ConfigPin(ls_PinselConfig);
 266              		.loc 2 58 0
 267 0022 1B4B     		ldr	r3, .L12	@ tmp125,
 268 0024 93E80300 		ldmia	r3, {r0, r1}	@ tmp125,,
 269 0028 FFF7FEFF 		bl	rcpinsel_ConfigPin	@
  59:modules/rc_scheduler/rc_scheduler.c **** 
  60:modules/rc_scheduler/rc_scheduler.c **** 	/* Initialize timer configuration structure */
  61:modules/rc_scheduler/rc_scheduler.c **** 	ls_TimerConfig.ub_PrescaleOption = E_RCTMR_PRESCALE_USVAL;
 270              		.loc 2 61 0
 271 002c 194B     		ldr	r3, .L12+4	@ tmp126,
 272 002e 0122     		movs	r2, #1	@ tmp127,
 273 0030 1A70     		strb	r2, [r3]	@ tmp128, ls_TimerConfig.ub_PrescaleOption
  62:modules/rc_scheduler/rc_scheduler.c **** 	ls_TimerConfig.ul_PrescaleValue = RCSCHEDULER_PRESCALE_VALUE;
 274              		.loc 2 62 0
 275 0032 184B     		ldr	r3, .L12+4	@ tmp129,
 276 0034 4FF47A72 		mov	r2, #1000	@ tmp130,
 277 0038 5A60     		str	r2, [r3, #4]	@ tmp130, ls_TimerConfig.ul_PrescaleValue
  63:modules/rc_scheduler/rc_scheduler.c **** 
  64:modules/rc_scheduler/rc_scheduler.c **** 	/* Initialize match configuration structure */
  65:modules/rc_scheduler/rc_scheduler.c **** 	ls_MatchConfig.e_MatchChannel = E_RCTMR_MATCH1;
 278              		.loc 2 65 0
 279 003a 174B     		ldr	r3, .L12+8	@ tmp131,
 280 003c 0122     		movs	r2, #1	@ tmp132,
 281 003e 1A70     		strb	r2, [r3]	@ tmp133, ls_MatchConfig.e_MatchChannel
  66:modules/rc_scheduler/rc_scheduler.c **** 	ls_MatchConfig.e_IRQOnMatch = E_RC_ENABLE;
 282              		.loc 2 66 0
 283 0040 154B     		ldr	r3, .L12+8	@ tmp134,
 284 0042 0122     		movs	r2, #1	@ tmp135,
 285 0044 5A70     		strb	r2, [r3, #1]	@ tmp136, ls_MatchConfig.e_IRQOnMatch
  67:modules/rc_scheduler/rc_scheduler.c **** 	ls_MatchConfig.e_ResetOnMatch = E_RC_ENABLE;
 286              		.loc 2 67 0
 287 0046 144B     		ldr	r3, .L12+8	@ tmp137,
 288 0048 0122     		movs	r2, #1	@ tmp138,
 289 004a DA70     		strb	r2, [r3, #3]	@ tmp139, ls_MatchConfig.e_ResetOnMatch
  68:modules/rc_scheduler/rc_scheduler.c **** 	ls_MatchConfig.e_StopOnMatch = E_RC_DISABLE;
 290              		.loc 2 68 0
ARM GAS  C:\Users\COSMIN~1.MAR\AppData\Local\Temp\ccvw7JOW.s 			page 25


 291 004c 124B     		ldr	r3, .L12+8	@ tmp140,
 292 004e 0022     		movs	r2, #0	@ tmp141,
 293 0050 9A70     		strb	r2, [r3, #2]	@ tmp142, ls_MatchConfig.e_StopOnMatch
  69:modules/rc_scheduler/rc_scheduler.c **** 	ls_MatchConfig.e_ExtMatch = E_RCTMR_EXTMATCH_NONE;
 294              		.loc 2 69 0
 295 0052 114B     		ldr	r3, .L12+8	@ tmp143,
 296 0054 0022     		movs	r2, #0	@ tmp144,
 297 0056 1A71     		strb	r2, [r3, #4]	@ tmp145, ls_MatchConfig.e_ExtMatch
  70:modules/rc_scheduler/rc_scheduler.c **** 	ls_MatchConfig.ul_MatchValue = RCSCHEDULER_MATCH0_VALUE;
 298              		.loc 2 70 0
 299 0058 0F4B     		ldr	r3, .L12+8	@ tmp146,
 300 005a 0A22     		movs	r2, #10	@ tmp147,
 301 005c 9A60     		str	r2, [r3, #8]	@ tmp147, ls_MatchConfig.ul_MatchValue
  71:modules/rc_scheduler/rc_scheduler.c **** 
  72:modules/rc_scheduler/rc_scheduler.c **** 	/* Initialize Timer */
  73:modules/rc_scheduler/rc_scheduler.c **** 	rctimer_Init(RCSCHEDULER_TIMER_PORT, E_RCTMR_MODE_TIMER, &ls_TimerConfig);
 302              		.loc 2 73 0
 303 005e 4FF04020 		mov	r0, #1073758208	@,
 304 0062 0021     		movs	r1, #0	@,
 305 0064 0B4A     		ldr	r2, .L12+4	@,
 306 0066 FFF7FEFF 		bl	rctimer_Init	@
  74:modules/rc_scheduler/rc_scheduler.c **** 	/* Configure timer match */
  75:modules/rc_scheduler/rc_scheduler.c **** 	rctimer_ConfigMatch(RCSCHEDULER_TIMER_PORT, ls_MatchConfig);
 307              		.loc 2 75 0
 308 006a 0B4B     		ldr	r3, .L12+8	@ tmp148,
 309 006c 4FF04020 		mov	r0, #1073758208	@,
 310 0070 0ECB     		ldmia	r3, {r1, r2, r3}	@ tmp148,,,
 311 0072 FFF7FEFF 		bl	rctimer_ConfigMatch	@
  76:modules/rc_scheduler/rc_scheduler.c **** 	/* Set IRQ priority */
  77:modules/rc_scheduler/rc_scheduler.c **** 	NVIC_SetPriority(TIMER0_IRQn, ((0x01<<3)|0x02));
 312              		.loc 2 77 0
 313 0076 0120     		movs	r0, #1	@,
 314 0078 0A21     		movs	r1, #10	@,
 315 007a FFF7FEFF 		bl	NVIC_SetPriority	@
  78:modules/rc_scheduler/rc_scheduler.c **** 	/* Enable Timer 0 port interrupt */
  79:modules/rc_scheduler/rc_scheduler.c **** 	RC_ENABLE_IRQ(TIMER0_IRQn);
 316              		.loc 2 79 0
 317 007e 0120     		movs	r0, #1	@,
 318 0080 FFF7FEFF 		bl	NVIC_EnableIRQ	@
  80:modules/rc_scheduler/rc_scheduler.c **** 	rctimer_SetTimerState(RCSCHEDULER_TIMER_PORT, E_RC_ENABLE);
 319              		.loc 2 80 0
 320 0084 4FF04020 		mov	r0, #1073758208	@,
 321 0088 0121     		movs	r1, #1	@,
 322 008a FFF7FEFF 		bl	rctimer_SetTimerState	@
  81:modules/rc_scheduler/rc_scheduler.c **** }
 323              		.loc 2 81 0
 324 008e 80BD     		pop	{r7, pc}	@
 325              	.L13:
 326              		.align	2
 327              	.L12:
 328 0090 00000000 		.word	ls_PinselConfig
 329 0094 00000000 		.word	ls_TimerConfig
 330 0098 00000000 		.word	ls_MatchConfig
 331              		.cfi_endproc
 332              	.LFE56:
 333              		.size	rcscheduler_Init, .-rcscheduler_Init
 334              		.text
ARM GAS  C:\Users\COSMIN~1.MAR\AppData\Local\Temp\ccvw7JOW.s 			page 26


 335              	.Letext0:
 336              		.file 3 "system/LPC17xx.h"
 337              		.file 4 "c:\\gnu tools arm embedded\\4.9 2015q1\\arm-none-eabi\\include\\machine\\_default_types.h
 338              		.file 5 "c:\\gnu tools arm embedded\\4.9 2015q1\\arm-none-eabi\\include\\stdint.h"
 339              		.file 6 "config/rc_stdtypedefs.h"
 340              		.file 7 "drivers/rc_timer/rc_timer.h"
 341              		.file 8 "drivers/rc_pinsel/rc_pinsel.h"