ARM GAS  C:\Users\STUDENT\AppData\Local\Temp\ccYC452r.s 			page 1


   1              		.syntax unified
   2              		.cpu cortex-m3
   3              		.fpu softvfp
   4              		.eabi_attribute 20, 1	@ Tag_ABI_FP_denormal
   5              		.eabi_attribute 21, 1	@ Tag_ABI_FP_exceptions
   6              		.eabi_attribute 23, 3	@ Tag_ABI_FP_number_model
   7              		.eabi_attribute 24, 1	@ Tag_ABI_align8_needed
   8              		.eabi_attribute 25, 1	@ Tag_ABI_align8_preserved
   9              		.eabi_attribute 26, 1	@ Tag_ABI_enum_size
  10              		.eabi_attribute 30, 6	@ Tag_ABI_optimization_goals
  11              		.eabi_attribute 34, 1	@ Tag_CPU_unaligned_access
  12              		.eabi_attribute 18, 4	@ Tag_ABI_PCS_wchar_t
  13              		.file	"rc_system.c"
  14              	@ GNU C89 (GNU Tools for ARM Embedded Processors) version 5.4.1 20160919 (release) [ARM/embedded-5-
  15              	@	compiled by GNU C version 4.7.4, GMP version 4.3.2, MPFR version 2.4.2, MPC version 0.8.1
  16              	@ GGC heuristics: --param ggc-min-expand=100 --param ggc-min-heapsize=131072
  17              	@ options passed:  -I . -I config -I system -I core -I drivers -I FreeRTOS
  18              	@ -I FreeRTOS/include -I FreeRTOS/portable/GCC/ARM_CM3 -I FreeRTOS/portable
  19              	@ -I tasks/rc_task_leds -I modules/rc_leds -I drivers/rc_system
  20              	@ -I drivers/rc_gpio -I drivers/rc_uart -I drivers/rc_pinsel
  21              	@ -I drivers/rc_timer -I drivers/rc_adc -imultilib armv7-m
  22              	@ -iprefix c:\program files (x86)\gnu tools arm embedded\5.4 2016q3\bin\../lib/gcc/arm-none-eabi/5.
  23              	@ -isysroot c:\program files (x86)\gnu tools arm embedded\5.4 2016q3\bin\../arm-none-eabi
  24              	@ -MD out/rc_system.d -MF out/rc_system.d -MP -MQ out/rc_system.o
  25              	@ -D__USES_INITFINI__ drivers/rc_system/rc_system.c -mcpu=cortex-m3 -mthumb
  26              	@ -auxbase-strip out/rc_system.o -g -ggdb3 -O0 -Wall -Wstrict-prototypes
  27              	@ -Wextra -std=gnu90 -ffunction-sections -fdata-sections -fverbose-asm
  28              	@ options enabled:  -faggressive-loop-optimizations -fauto-inc-dec
  29              	@ -fchkp-check-incomplete-type -fchkp-check-read -fchkp-check-write
  30              	@ -fchkp-instrument-calls -fchkp-narrow-bounds -fchkp-optimize
  31              	@ -fchkp-store-bounds -fchkp-use-static-bounds
  32              	@ -fchkp-use-static-const-bounds -fchkp-use-wrappers -fcommon
  33              	@ -fdata-sections -fdelete-null-pointer-checks -fdwarf2-cfi-asm
  34              	@ -fearly-inlining -feliminate-unused-debug-types -ffunction-cse
  35              	@ -ffunction-sections -fgcse-lm -fgnu-runtime -fgnu-unique -fident
  36              	@ -finline-atomics -fira-hoist-pressure -fira-share-save-slots
  37              	@ -fira-share-spill-slots -fivopts -fkeep-static-consts
  38              	@ -fleading-underscore -flifetime-dse -flto-odr-type-merging -fmath-errno
  39              	@ -fmerge-debug-strings -fpeephole -fprefetch-loop-arrays
  40              	@ -freg-struct-return -fsched-critical-path-heuristic
  41              	@ -fsched-dep-count-heuristic -fsched-group-heuristic -fsched-interblock
  42              	@ -fsched-last-insn-heuristic -fsched-rank-heuristic -fsched-spec
  43              	@ -fsched-spec-insn-heuristic -fsched-stalled-insns-dep
  44              	@ -fsemantic-interposition -fshow-column -fsigned-zeros
  45              	@ -fsplit-ivs-in-unroller -fstdarg-opt -fstrict-volatile-bitfields
  46              	@ -fsync-libcalls -ftrapping-math -ftree-coalesce-vars -ftree-cselim
  47              	@ -ftree-forwprop -ftree-loop-if-convert -ftree-loop-im -ftree-loop-ivcanon
  48              	@ -ftree-loop-optimize -ftree-parallelize-loops= -ftree-phiprop
  49              	@ -ftree-reassoc -ftree-scev-cprop -funit-at-a-time -fverbose-asm
  50              	@ -fzero-initialized-in-bss -masm-syntax-unified -mfix-cortex-m3-ldrd
  51              	@ -mlittle-endian -mpic-data-is-text-relative -msched-prolog -mthumb
  52              	@ -munaligned-access -mvectorize-with-neon-quad
  53              	
  54              		.text
  55              	.Ltext0:
  56              		.cfi_sections	.debug_frame
  57              		.section	.text.rcsys_Init,"ax",%progbits
ARM GAS  C:\Users\STUDENT\AppData\Local\Temp\ccYC452r.s 			page 2


  58              		.align	2
  59              		.global	rcsys_Init
  60              		.thumb
  61              		.thumb_func
  62              		.type	rcsys_Init, %function
  63              	rcsys_Init:
  64              	.LFB55:
  65              		.file 1 "drivers/rc_system/rc_system.c"
   1:drivers/rc_system/rc_system.c **** /**
   2:drivers/rc_system/rc_system.c ****  * \file	rc_system.c
   3:drivers/rc_system/rc_system.c ****  * \brief	Implements the interface functions with the core system
   4:drivers/rc_system/rc_system.c ****  * \details	Implements the functions which configures the core system
   5:drivers/rc_system/rc_system.c ****  * \author	Cosmin Marcu
   6:drivers/rc_system/rc_system.c ****  * \date	29.05.2015
   7:drivers/rc_system/rc_system.c ****  * \version 1.0.1
   8:drivers/rc_system/rc_system.c ****  */
   9:drivers/rc_system/rc_system.c **** 
  10:drivers/rc_system/rc_system.c **** /* Includes */
  11:drivers/rc_system/rc_system.c **** #include "system_LPC17xx.h"
  12:drivers/rc_system/rc_system.c **** #include "rc_stdtypedefs.h"
  13:drivers/rc_system/rc_system.c **** 
  14:drivers/rc_system/rc_system.c **** /* Begin functions implementation */
  15:drivers/rc_system/rc_system.c **** 
  16:drivers/rc_system/rc_system.c **** /** \defgroup rc_system System access driver
  17:drivers/rc_system/rc_system.c ****   Contains the functions to set and access the system core
  18:drivers/rc_system/rc_system.c **** */
  19:drivers/rc_system/rc_system.c **** 
  20:drivers/rc_system/rc_system.c **** /**
  21:drivers/rc_system/rc_system.c ****  * \ingroup  rc_system
  22:drivers/rc_system/rc_system.c ****  * \defgroup System_functions System Functions
  23:drivers/rc_system/rc_system.c ****  *  Functions definitions for the System setup
  24:drivers/rc_system/rc_system.c ****  *  @{
  25:drivers/rc_system/rc_system.c ****  */
  26:drivers/rc_system/rc_system.c **** /* System functions group: */
  27:drivers/rc_system/rc_system.c **** /**
  28:drivers/rc_system/rc_system.c ****  * \brief	Initialize the System
  29:drivers/rc_system/rc_system.c ****  * \return 	none
  30:drivers/rc_system/rc_system.c ****  */
  31:drivers/rc_system/rc_system.c **** void rcsys_Init(void)
  32:drivers/rc_system/rc_system.c **** {
  66              		.loc 1 32 0
  67              		.cfi_startproc
  68              		@ args = 0, pretend = 0, frame = 0
  69              		@ frame_needed = 1, uses_anonymous_args = 0
  70 0000 80B5     		push	{r7, lr}	@
  71              		.cfi_def_cfa_offset 8
  72              		.cfi_offset 7, -8
  73              		.cfi_offset 14, -4
  74 0002 00AF     		add	r7, sp, #0	@,,
  75              		.cfi_def_cfa_register 7
  33:drivers/rc_system/rc_system.c **** 	SystemInit();
  76              		.loc 1 33 0
  77 0004 FFF7FEFF 		bl	SystemInit	@
  34:drivers/rc_system/rc_system.c **** }
  78              		.loc 1 34 0
  79 0008 00BF     		nop
  80 000a 80BD     		pop	{r7, pc}	@
ARM GAS  C:\Users\STUDENT\AppData\Local\Temp\ccYC452r.s 			page 3


  81              		.cfi_endproc
  82              	.LFE55:
  83              		.size	rcsys_Init, .-rcsys_Init
  84              		.section	.text.rcsys_CoreClockUpdate,"ax",%progbits
  85              		.align	2
  86              		.global	rcsys_CoreClockUpdate
  87              		.thumb
  88              		.thumb_func
  89              		.type	rcsys_CoreClockUpdate, %function
  90              	rcsys_CoreClockUpdate:
  91              	.LFB56:
  35:drivers/rc_system/rc_system.c **** 
  36:drivers/rc_system/rc_system.c **** /**
  37:drivers/rc_system/rc_system.c ****  * \brief	Updated the Core Clock
  38:drivers/rc_system/rc_system.c ****  * \return 	none
  39:drivers/rc_system/rc_system.c ****  */
  40:drivers/rc_system/rc_system.c **** void rcsys_CoreClockUpdate(void)
  41:drivers/rc_system/rc_system.c **** {
  92              		.loc 1 41 0
  93              		.cfi_startproc
  94              		@ args = 0, pretend = 0, frame = 0
  95              		@ frame_needed = 1, uses_anonymous_args = 0
  96 0000 80B5     		push	{r7, lr}	@
  97              		.cfi_def_cfa_offset 8
  98              		.cfi_offset 7, -8
  99              		.cfi_offset 14, -4
 100 0002 00AF     		add	r7, sp, #0	@,,
 101              		.cfi_def_cfa_register 7
  42:drivers/rc_system/rc_system.c **** 	SystemCoreClockUpdate();
 102              		.loc 1 42 0
 103 0004 FFF7FEFF 		bl	SystemCoreClockUpdate	@
  43:drivers/rc_system/rc_system.c **** }
 104              		.loc 1 43 0
 105 0008 00BF     		nop
 106 000a 80BD     		pop	{r7, pc}	@
 107              		.cfi_endproc
 108              	.LFE56:
 109              		.size	rcsys_CoreClockUpdate, .-rcsys_CoreClockUpdate
 110              		.section	.text.rcsys_EnterProtectedMode,"ax",%progbits
 111              		.align	2
 112              		.global	rcsys_EnterProtectedMode
 113              		.thumb
 114              		.thumb_func
 115              		.type	rcsys_EnterProtectedMode, %function
 116              	rcsys_EnterProtectedMode:
 117              	.LFB57:
  44:drivers/rc_system/rc_system.c **** 
  45:drivers/rc_system/rc_system.c **** /**
  46:drivers/rc_system/rc_system.c ****  * \brief	Disable interrupts
  47:drivers/rc_system/rc_system.c ****  * \return 	none
  48:drivers/rc_system/rc_system.c ****  */
  49:drivers/rc_system/rc_system.c **** void rcsys_EnterProtectedMode(void)
  50:drivers/rc_system/rc_system.c **** {
 118              		.loc 1 50 0
 119              		.cfi_startproc
 120              		@ args = 0, pretend = 0, frame = 0
 121              		@ frame_needed = 1, uses_anonymous_args = 0
ARM GAS  C:\Users\STUDENT\AppData\Local\Temp\ccYC452r.s 			page 4


 122              		@ link register save eliminated.
 123 0000 80B4     		push	{r7}	@
 124              		.cfi_def_cfa_offset 4
 125              		.cfi_offset 7, -4
 126 0002 00AF     		add	r7, sp, #0	@,,
 127              		.cfi_def_cfa_register 7
 128              	.LBB6:
 129              	.LBB7:
 130              		.file 2 "system/core_cmFunc.h"
   1:system/core_cmFunc.h **** /**************************************************************************//**
   2:system/core_cmFunc.h ****  * @file     core_cmFunc.h
   3:system/core_cmFunc.h ****  * @brief    CMSIS Cortex-M Core Function Access Header File
   4:system/core_cmFunc.h ****  * @version  V2.01
   5:system/core_cmFunc.h ****  * @date     06. December 2010
   6:system/core_cmFunc.h ****  *
   7:system/core_cmFunc.h ****  * @note
   8:system/core_cmFunc.h ****  * Copyright (C) 2009-2010 ARM Limited. All rights reserved.
   9:system/core_cmFunc.h ****  *
  10:system/core_cmFunc.h ****  * @par
  11:system/core_cmFunc.h ****  * ARM Limited (ARM) is supplying this software for use with Cortex-M 
  12:system/core_cmFunc.h ****  * processor based microcontrollers.  This file can be freely distributed 
  13:system/core_cmFunc.h ****  * within development tools that are supporting such ARM based processors. 
  14:system/core_cmFunc.h ****  *
  15:system/core_cmFunc.h ****  * @par
  16:system/core_cmFunc.h ****  * THIS SOFTWARE IS PROVIDED "AS IS".  NO WARRANTIES, WHETHER EXPRESS, IMPLIED
  17:system/core_cmFunc.h ****  * OR STATUTORY, INCLUDING, BUT NOT LIMITED TO, IMPLIED WARRANTIES OF
  18:system/core_cmFunc.h ****  * MERCHANTABILITY AND FITNESS FOR A PARTICULAR PURPOSE APPLY TO THIS SOFTWARE.
  19:system/core_cmFunc.h ****  * ARM SHALL NOT, IN ANY CIRCUMSTANCES, BE LIABLE FOR SPECIAL, INCIDENTAL, OR
  20:system/core_cmFunc.h ****  * CONSEQUENTIAL DAMAGES, FOR ANY REASON WHATSOEVER.
  21:system/core_cmFunc.h ****  *
  22:system/core_cmFunc.h ****  ******************************************************************************/
  23:system/core_cmFunc.h **** 
  24:system/core_cmFunc.h **** #ifndef __CORE_CMFUNC_H__
  25:system/core_cmFunc.h **** #define __CORE_CMFUNC_H__
  26:system/core_cmFunc.h **** 
  27:system/core_cmFunc.h **** /* ###########################  Core Function Access  ########################### */
  28:system/core_cmFunc.h **** /** \ingroup  CMSIS_Core_FunctionInterface   
  29:system/core_cmFunc.h ****     \defgroup CMSIS_Core_RegAccFunctions CMSIS Core Register Access Functions
  30:system/core_cmFunc.h ****   @{
  31:system/core_cmFunc.h ****  */
  32:system/core_cmFunc.h **** 
  33:system/core_cmFunc.h **** #if defined ( __CC_ARM   ) /*------------------ RealView Compiler ----------------*/
  34:system/core_cmFunc.h **** /* ARM armcc specific functions */
  35:system/core_cmFunc.h **** 
  36:system/core_cmFunc.h **** /* intrinsic void __enable_irq();     */
  37:system/core_cmFunc.h **** /* intrinsic void __disable_irq();    */
  38:system/core_cmFunc.h **** 
  39:system/core_cmFunc.h **** /** \brief  Get Control Register
  40:system/core_cmFunc.h **** 
  41:system/core_cmFunc.h ****     This function returns the content of the Control Register.
  42:system/core_cmFunc.h **** 
  43:system/core_cmFunc.h ****     \return               Control Register value
  44:system/core_cmFunc.h ****  */
  45:system/core_cmFunc.h **** #if       (__ARMCC_VERSION <  400000)
  46:system/core_cmFunc.h **** extern          uint32_t __get_CONTROL(void);
  47:system/core_cmFunc.h **** #else  /* (__ARMCC_VERSION >= 400000) */
  48:system/core_cmFunc.h **** static __INLINE uint32_t __get_CONTROL(void)
ARM GAS  C:\Users\STUDENT\AppData\Local\Temp\ccYC452r.s 			page 5


  49:system/core_cmFunc.h **** {
  50:system/core_cmFunc.h ****   register uint32_t __regControl         __ASM("control");
  51:system/core_cmFunc.h ****   return(__regControl);
  52:system/core_cmFunc.h **** }
  53:system/core_cmFunc.h **** #endif /*  __ARMCC_VERSION  */ 
  54:system/core_cmFunc.h **** 
  55:system/core_cmFunc.h **** 
  56:system/core_cmFunc.h **** /** \brief  Set Control Register
  57:system/core_cmFunc.h **** 
  58:system/core_cmFunc.h ****     This function writes the given value to the Control Register.
  59:system/core_cmFunc.h **** 
  60:system/core_cmFunc.h ****     \param [in]    control  Control Register value to set
  61:system/core_cmFunc.h ****  */
  62:system/core_cmFunc.h **** #if       (__ARMCC_VERSION <  400000)
  63:system/core_cmFunc.h **** extern          void __set_CONTROL(uint32_t control);
  64:system/core_cmFunc.h **** #else  /* (__ARMCC_VERSION >= 400000) */
  65:system/core_cmFunc.h **** static __INLINE void __set_CONTROL(uint32_t control)
  66:system/core_cmFunc.h **** {
  67:system/core_cmFunc.h ****   register uint32_t __regControl         __ASM("control");
  68:system/core_cmFunc.h ****   __regControl = control;
  69:system/core_cmFunc.h **** }
  70:system/core_cmFunc.h **** #endif /*  __ARMCC_VERSION  */ 
  71:system/core_cmFunc.h **** 
  72:system/core_cmFunc.h **** 
  73:system/core_cmFunc.h **** /** \brief  Get ISPR Register
  74:system/core_cmFunc.h **** 
  75:system/core_cmFunc.h ****     This function returns the content of the ISPR Register.
  76:system/core_cmFunc.h **** 
  77:system/core_cmFunc.h ****     \return               ISPR Register value
  78:system/core_cmFunc.h ****  */
  79:system/core_cmFunc.h **** #if       (__ARMCC_VERSION <  400000)
  80:system/core_cmFunc.h **** extern          uint32_t __get_IPSR(void);
  81:system/core_cmFunc.h **** #else  /* (__ARMCC_VERSION >= 400000) */
  82:system/core_cmFunc.h **** static __INLINE uint32_t __get_IPSR(void)
  83:system/core_cmFunc.h **** {
  84:system/core_cmFunc.h ****   register uint32_t __regIPSR          __ASM("ipsr");
  85:system/core_cmFunc.h ****   return(__regIPSR);
  86:system/core_cmFunc.h **** }
  87:system/core_cmFunc.h **** #endif /*  __ARMCC_VERSION  */ 
  88:system/core_cmFunc.h **** 
  89:system/core_cmFunc.h **** 
  90:system/core_cmFunc.h **** /** \brief  Get APSR Register
  91:system/core_cmFunc.h **** 
  92:system/core_cmFunc.h ****     This function returns the content of the APSR Register.
  93:system/core_cmFunc.h **** 
  94:system/core_cmFunc.h ****     \return               APSR Register value
  95:system/core_cmFunc.h ****  */
  96:system/core_cmFunc.h **** #if       (__ARMCC_VERSION <  400000)
  97:system/core_cmFunc.h **** extern          uint32_t __get_APSR(void);
  98:system/core_cmFunc.h **** #else  /* (__ARMCC_VERSION >= 400000) */
  99:system/core_cmFunc.h **** static __INLINE uint32_t __get_APSR(void)
 100:system/core_cmFunc.h **** {
 101:system/core_cmFunc.h ****   register uint32_t __regAPSR          __ASM("apsr");
 102:system/core_cmFunc.h ****   return(__regAPSR);
 103:system/core_cmFunc.h **** }
 104:system/core_cmFunc.h **** #endif /*  __ARMCC_VERSION  */ 
 105:system/core_cmFunc.h **** 
ARM GAS  C:\Users\STUDENT\AppData\Local\Temp\ccYC452r.s 			page 6


 106:system/core_cmFunc.h **** 
 107:system/core_cmFunc.h **** /** \brief  Get xPSR Register
 108:system/core_cmFunc.h **** 
 109:system/core_cmFunc.h ****     This function returns the content of the xPSR Register.
 110:system/core_cmFunc.h **** 
 111:system/core_cmFunc.h ****     \return               xPSR Register value
 112:system/core_cmFunc.h ****  */
 113:system/core_cmFunc.h **** #if       (__ARMCC_VERSION <  400000)
 114:system/core_cmFunc.h **** extern          uint32_t __get_xPSR(void);
 115:system/core_cmFunc.h **** #else  /* (__ARMCC_VERSION >= 400000) */
 116:system/core_cmFunc.h **** static __INLINE uint32_t __get_xPSR(void)
 117:system/core_cmFunc.h **** {
 118:system/core_cmFunc.h ****   register uint32_t __regXPSR          __ASM("xpsr");
 119:system/core_cmFunc.h ****   return(__regXPSR);
 120:system/core_cmFunc.h **** }
 121:system/core_cmFunc.h **** #endif /*  __ARMCC_VERSION  */ 
 122:system/core_cmFunc.h **** 
 123:system/core_cmFunc.h **** 
 124:system/core_cmFunc.h **** /** \brief  Get Process Stack Pointer
 125:system/core_cmFunc.h **** 
 126:system/core_cmFunc.h ****     This function returns the current value of the Process Stack Pointer (PSP).
 127:system/core_cmFunc.h **** 
 128:system/core_cmFunc.h ****     \return               PSP Register value
 129:system/core_cmFunc.h ****  */
 130:system/core_cmFunc.h **** #if       (__ARMCC_VERSION <  400000)
 131:system/core_cmFunc.h **** extern          uint32_t __get_PSP(void);
 132:system/core_cmFunc.h **** #else  /* (__ARMCC_VERSION >= 400000) */
 133:system/core_cmFunc.h **** static __INLINE uint32_t __get_PSP(void)
 134:system/core_cmFunc.h **** {
 135:system/core_cmFunc.h ****   register uint32_t __regProcessStackPointer  __ASM("psp");
 136:system/core_cmFunc.h ****   return(__regProcessStackPointer);
 137:system/core_cmFunc.h **** }
 138:system/core_cmFunc.h **** #endif /*  __ARMCC_VERSION  */ 
 139:system/core_cmFunc.h **** 
 140:system/core_cmFunc.h **** 
 141:system/core_cmFunc.h **** /** \brief  Set Process Stack Pointer
 142:system/core_cmFunc.h **** 
 143:system/core_cmFunc.h ****     This function assigns the given value to the Process Stack Pointer (PSP).
 144:system/core_cmFunc.h **** 
 145:system/core_cmFunc.h ****     \param [in]    topOfProcStack  Process Stack Pointer value to set
 146:system/core_cmFunc.h ****  */
 147:system/core_cmFunc.h **** #if       (__ARMCC_VERSION <  400000)
 148:system/core_cmFunc.h **** extern          void __set_PSP(uint32_t topOfProcStack);
 149:system/core_cmFunc.h **** #else  /* (__ARMCC_VERSION >= 400000) */
 150:system/core_cmFunc.h **** static __INLINE void __set_PSP(uint32_t topOfProcStack)
 151:system/core_cmFunc.h **** {
 152:system/core_cmFunc.h ****   register uint32_t __regProcessStackPointer  __ASM("psp");
 153:system/core_cmFunc.h ****   __regProcessStackPointer = topOfProcStack;
 154:system/core_cmFunc.h **** }
 155:system/core_cmFunc.h **** #endif /*  __ARMCC_VERSION  */ 
 156:system/core_cmFunc.h **** 
 157:system/core_cmFunc.h **** 
 158:system/core_cmFunc.h **** /** \brief  Get Main Stack Pointer
 159:system/core_cmFunc.h **** 
 160:system/core_cmFunc.h ****     This function returns the current value of the Main Stack Pointer (MSP).
 161:system/core_cmFunc.h **** 
 162:system/core_cmFunc.h ****     \return               MSP Register value
ARM GAS  C:\Users\STUDENT\AppData\Local\Temp\ccYC452r.s 			page 7


 163:system/core_cmFunc.h ****  */
 164:system/core_cmFunc.h **** #if       (__ARMCC_VERSION <  400000)
 165:system/core_cmFunc.h **** extern          uint32_t __get_MSP(void);
 166:system/core_cmFunc.h **** #else  /* (__ARMCC_VERSION >= 400000) */
 167:system/core_cmFunc.h **** static __INLINE uint32_t __get_MSP(void)
 168:system/core_cmFunc.h **** {
 169:system/core_cmFunc.h ****   register uint32_t __regMainStackPointer     __ASM("msp");
 170:system/core_cmFunc.h ****   return(__regMainStackPointer);
 171:system/core_cmFunc.h **** }
 172:system/core_cmFunc.h **** #endif /*  __ARMCC_VERSION  */ 
 173:system/core_cmFunc.h **** 
 174:system/core_cmFunc.h **** 
 175:system/core_cmFunc.h **** /** \brief  Set Main Stack Pointer
 176:system/core_cmFunc.h **** 
 177:system/core_cmFunc.h ****     This function assigns the given value to the Main Stack Pointer (MSP).
 178:system/core_cmFunc.h **** 
 179:system/core_cmFunc.h ****     \param [in]    topOfMainStack  Main Stack Pointer value to set
 180:system/core_cmFunc.h ****  */
 181:system/core_cmFunc.h **** #if       (__ARMCC_VERSION <  400000)
 182:system/core_cmFunc.h **** extern          void __set_MSP(uint32_t topOfMainStack);
 183:system/core_cmFunc.h **** #else  /* (__ARMCC_VERSION >= 400000) */
 184:system/core_cmFunc.h **** static __INLINE void __set_MSP(uint32_t topOfMainStack)
 185:system/core_cmFunc.h **** {
 186:system/core_cmFunc.h ****   register uint32_t __regMainStackPointer     __ASM("msp");
 187:system/core_cmFunc.h ****   __regMainStackPointer = topOfMainStack;
 188:system/core_cmFunc.h **** }
 189:system/core_cmFunc.h **** #endif /*  __ARMCC_VERSION  */ 
 190:system/core_cmFunc.h **** 
 191:system/core_cmFunc.h **** 
 192:system/core_cmFunc.h **** /** \brief  Get Priority Mask
 193:system/core_cmFunc.h **** 
 194:system/core_cmFunc.h ****     This function returns the current state of the priority mask bit from the Priority Mask Registe
 195:system/core_cmFunc.h **** 
 196:system/core_cmFunc.h ****     \return               Priority Mask value
 197:system/core_cmFunc.h ****  */
 198:system/core_cmFunc.h **** #if       (__ARMCC_VERSION <  400000)
 199:system/core_cmFunc.h **** extern          uint32_t __get_PRIMASK(void);
 200:system/core_cmFunc.h **** #else  /* (__ARMCC_VERSION >= 400000) */
 201:system/core_cmFunc.h **** static __INLINE uint32_t __get_PRIMASK(void)
 202:system/core_cmFunc.h **** {
 203:system/core_cmFunc.h ****   register uint32_t __regPriMask         __ASM("primask");
 204:system/core_cmFunc.h ****   return(__regPriMask);
 205:system/core_cmFunc.h **** }
 206:system/core_cmFunc.h **** #endif /*  __ARMCC_VERSION  */ 
 207:system/core_cmFunc.h **** 
 208:system/core_cmFunc.h **** 
 209:system/core_cmFunc.h **** /** \brief  Set Priority Mask
 210:system/core_cmFunc.h **** 
 211:system/core_cmFunc.h ****     This function assigns the given value to the Priority Mask Register.
 212:system/core_cmFunc.h **** 
 213:system/core_cmFunc.h ****     \param [in]    priMask  Priority Mask
 214:system/core_cmFunc.h ****  */
 215:system/core_cmFunc.h **** #if       (__ARMCC_VERSION <  400000)
 216:system/core_cmFunc.h **** extern          void __set_PRIMASK(uint32_t priMask);
 217:system/core_cmFunc.h **** #else  /* (__ARMCC_VERSION >= 400000) */
 218:system/core_cmFunc.h **** static __INLINE void __set_PRIMASK(uint32_t priMask)
 219:system/core_cmFunc.h **** {
ARM GAS  C:\Users\STUDENT\AppData\Local\Temp\ccYC452r.s 			page 8


 220:system/core_cmFunc.h ****   register uint32_t __regPriMask         __ASM("primask");
 221:system/core_cmFunc.h ****   __regPriMask = (priMask);
 222:system/core_cmFunc.h **** }
 223:system/core_cmFunc.h **** #endif /*  __ARMCC_VERSION  */ 
 224:system/core_cmFunc.h ****  
 225:system/core_cmFunc.h **** 
 226:system/core_cmFunc.h **** #if       (__CORTEX_M >= 0x03)
 227:system/core_cmFunc.h **** 
 228:system/core_cmFunc.h **** /** \brief  Enable FIQ
 229:system/core_cmFunc.h **** 
 230:system/core_cmFunc.h ****     This function enables FIQ interrupts by clearing the F-bit in the CPSR.
 231:system/core_cmFunc.h ****     Can only be executed in Privileged modes.
 232:system/core_cmFunc.h ****  */
 233:system/core_cmFunc.h **** #define __enable_fault_irq                __enable_fiq
 234:system/core_cmFunc.h **** 
 235:system/core_cmFunc.h **** 
 236:system/core_cmFunc.h **** /** \brief  Disable FIQ
 237:system/core_cmFunc.h **** 
 238:system/core_cmFunc.h ****     This function disables FIQ interrupts by setting the F-bit in the CPSR.
 239:system/core_cmFunc.h ****     Can only be executed in Privileged modes.
 240:system/core_cmFunc.h ****  */
 241:system/core_cmFunc.h **** #define __disable_fault_irq               __disable_fiq
 242:system/core_cmFunc.h **** 
 243:system/core_cmFunc.h **** 
 244:system/core_cmFunc.h **** /** \brief  Get Base Priority
 245:system/core_cmFunc.h **** 
 246:system/core_cmFunc.h ****     This function returns the current value of the Base Priority register.
 247:system/core_cmFunc.h **** 
 248:system/core_cmFunc.h ****     \return               Base Priority register value
 249:system/core_cmFunc.h ****  */
 250:system/core_cmFunc.h **** #if       (__ARMCC_VERSION <  400000)
 251:system/core_cmFunc.h **** extern          uint32_t __get_BASEPRI(void);
 252:system/core_cmFunc.h **** #else  /* (__ARMCC_VERSION >= 400000) */
 253:system/core_cmFunc.h **** static __INLINE uint32_t  __get_BASEPRI(void)
 254:system/core_cmFunc.h **** {
 255:system/core_cmFunc.h ****   register uint32_t __regBasePri         __ASM("basepri");
 256:system/core_cmFunc.h ****   return(__regBasePri);
 257:system/core_cmFunc.h **** }
 258:system/core_cmFunc.h **** #endif /*  __ARMCC_VERSION  */ 
 259:system/core_cmFunc.h **** 
 260:system/core_cmFunc.h **** 
 261:system/core_cmFunc.h **** /** \brief  Set Base Priority
 262:system/core_cmFunc.h **** 
 263:system/core_cmFunc.h ****     This function assigns the given value to the Base Priority register.
 264:system/core_cmFunc.h **** 
 265:system/core_cmFunc.h ****     \param [in]    basePri  Base Priority value to set
 266:system/core_cmFunc.h ****  */
 267:system/core_cmFunc.h **** #if       (__ARMCC_VERSION <  400000)
 268:system/core_cmFunc.h **** extern          void __set_BASEPRI(uint32_t basePri);
 269:system/core_cmFunc.h **** #else  /* (__ARMCC_VERSION >= 400000) */
 270:system/core_cmFunc.h **** static __INLINE void __set_BASEPRI(uint32_t basePri)
 271:system/core_cmFunc.h **** {
 272:system/core_cmFunc.h ****   register uint32_t __regBasePri         __ASM("basepri");
 273:system/core_cmFunc.h ****   __regBasePri = (basePri & 0xff);
 274:system/core_cmFunc.h **** }
 275:system/core_cmFunc.h **** #endif /*  __ARMCC_VERSION  */ 
 276:system/core_cmFunc.h ****  
ARM GAS  C:\Users\STUDENT\AppData\Local\Temp\ccYC452r.s 			page 9


 277:system/core_cmFunc.h **** 
 278:system/core_cmFunc.h **** /** \brief  Get Fault Mask
 279:system/core_cmFunc.h **** 
 280:system/core_cmFunc.h ****     This function returns the current value of the Fault Mask register.
 281:system/core_cmFunc.h **** 
 282:system/core_cmFunc.h ****     \return               Fault Mask register value
 283:system/core_cmFunc.h ****  */
 284:system/core_cmFunc.h **** #if       (__ARMCC_VERSION <  400000)
 285:system/core_cmFunc.h **** extern          uint32_t __get_FAULTMASK(void);
 286:system/core_cmFunc.h **** #else  /* (__ARMCC_VERSION >= 400000) */
 287:system/core_cmFunc.h **** static __INLINE uint32_t __get_FAULTMASK(void)
 288:system/core_cmFunc.h **** {
 289:system/core_cmFunc.h ****   register uint32_t __regFaultMask       __ASM("faultmask");
 290:system/core_cmFunc.h ****   return(__regFaultMask);
 291:system/core_cmFunc.h **** }
 292:system/core_cmFunc.h **** #endif /*  __ARMCC_VERSION  */ 
 293:system/core_cmFunc.h **** 
 294:system/core_cmFunc.h **** 
 295:system/core_cmFunc.h **** /** \brief  Set Fault Mask
 296:system/core_cmFunc.h **** 
 297:system/core_cmFunc.h ****     This function assigns the given value to the Fault Mask register.
 298:system/core_cmFunc.h **** 
 299:system/core_cmFunc.h ****     \param [in]    faultMask  Fault Mask value to set
 300:system/core_cmFunc.h ****  */
 301:system/core_cmFunc.h **** #if       (__ARMCC_VERSION <  400000)
 302:system/core_cmFunc.h **** extern          void __set_FAULTMASK(uint32_t faultMask);
 303:system/core_cmFunc.h **** #else  /* (__ARMCC_VERSION >= 400000) */
 304:system/core_cmFunc.h **** static __INLINE void __set_FAULTMASK(uint32_t faultMask)
 305:system/core_cmFunc.h **** {
 306:system/core_cmFunc.h ****   register uint32_t __regFaultMask       __ASM("faultmask");
 307:system/core_cmFunc.h ****   __regFaultMask = (faultMask & 1);
 308:system/core_cmFunc.h **** }
 309:system/core_cmFunc.h **** #endif /*  __ARMCC_VERSION  */ 
 310:system/core_cmFunc.h **** 
 311:system/core_cmFunc.h **** #endif /* (__CORTEX_M >= 0x03) */
 312:system/core_cmFunc.h **** 
 313:system/core_cmFunc.h **** 
 314:system/core_cmFunc.h **** #if       (__CORTEX_M == 0x04)
 315:system/core_cmFunc.h **** 
 316:system/core_cmFunc.h **** /** \brief  Get FPSCR
 317:system/core_cmFunc.h **** 
 318:system/core_cmFunc.h ****     This function returns the current value of the Floating Point Status/Control register.
 319:system/core_cmFunc.h **** 
 320:system/core_cmFunc.h ****     \return               Floating Point Status/Control register value
 321:system/core_cmFunc.h ****  */
 322:system/core_cmFunc.h **** static __INLINE uint32_t __get_FPSCR(void)
 323:system/core_cmFunc.h **** {
 324:system/core_cmFunc.h **** #if (__FPU_PRESENT == 1)
 325:system/core_cmFunc.h ****   register uint32_t __regfpscr         __ASM("fpscr");
 326:system/core_cmFunc.h ****   return(__regfpscr);
 327:system/core_cmFunc.h **** #else
 328:system/core_cmFunc.h ****    return(0);
 329:system/core_cmFunc.h **** #endif
 330:system/core_cmFunc.h **** }
 331:system/core_cmFunc.h **** 
 332:system/core_cmFunc.h **** 
 333:system/core_cmFunc.h **** /** \brief  Set FPSCR
ARM GAS  C:\Users\STUDENT\AppData\Local\Temp\ccYC452r.s 			page 10


 334:system/core_cmFunc.h **** 
 335:system/core_cmFunc.h ****     This function assigns the given value to the Floating Point Status/Control register.
 336:system/core_cmFunc.h **** 
 337:system/core_cmFunc.h ****     \param [in]    fpscr  Floating Point Status/Control value to set
 338:system/core_cmFunc.h ****  */
 339:system/core_cmFunc.h **** static __INLINE void __set_FPSCR(uint32_t fpscr)
 340:system/core_cmFunc.h **** {
 341:system/core_cmFunc.h **** #if (__FPU_PRESENT == 1)
 342:system/core_cmFunc.h ****   register uint32_t __regfpscr         __ASM("fpscr");
 343:system/core_cmFunc.h ****   __regfpscr = (fpscr);
 344:system/core_cmFunc.h **** #endif
 345:system/core_cmFunc.h **** }
 346:system/core_cmFunc.h **** 
 347:system/core_cmFunc.h **** #endif /* (__CORTEX_M == 0x04) */
 348:system/core_cmFunc.h **** 
 349:system/core_cmFunc.h **** 
 350:system/core_cmFunc.h ****  #elif (defined (__ICCARM__)) /*---------------- ICC Compiler ---------------------*/
 351:system/core_cmFunc.h **** /* IAR iccarm specific functions */
 352:system/core_cmFunc.h **** 
 353:system/core_cmFunc.h **** #if defined (__ICCARM__)
 354:system/core_cmFunc.h ****   #include <intrinsics.h>                     /* IAR Intrinsics   */
 355:system/core_cmFunc.h **** #endif
 356:system/core_cmFunc.h **** 
 357:system/core_cmFunc.h **** #pragma diag_suppress=Pe940
 358:system/core_cmFunc.h **** 
 359:system/core_cmFunc.h **** /** \brief  Enable IRQ Interrupts
 360:system/core_cmFunc.h **** 
 361:system/core_cmFunc.h ****   This function enables IRQ interrupts by clearing the I-bit in the CPSR.
 362:system/core_cmFunc.h ****   Can only be executed in Privileged modes.
 363:system/core_cmFunc.h ****  */
 364:system/core_cmFunc.h **** #define __enable_irq                              __enable_interrupt
 365:system/core_cmFunc.h **** 
 366:system/core_cmFunc.h **** 
 367:system/core_cmFunc.h **** /** \brief  Disable IRQ Interrupts
 368:system/core_cmFunc.h **** 
 369:system/core_cmFunc.h ****   This function disables IRQ interrupts by setting the I-bit in the CPSR.
 370:system/core_cmFunc.h ****   Can only be executed in Privileged modes.
 371:system/core_cmFunc.h ****  */
 372:system/core_cmFunc.h **** #define __disable_irq                             __disable_interrupt
 373:system/core_cmFunc.h **** 
 374:system/core_cmFunc.h **** 
 375:system/core_cmFunc.h **** /* intrinsic unsigned long __get_CONTROL( void ); (see intrinsic.h) */
 376:system/core_cmFunc.h **** /* intrinsic void __set_CONTROL( unsigned long ); (see intrinsic.h) */
 377:system/core_cmFunc.h **** 
 378:system/core_cmFunc.h **** 
 379:system/core_cmFunc.h **** /** \brief  Get ISPR Register
 380:system/core_cmFunc.h **** 
 381:system/core_cmFunc.h ****     This function returns the content of the ISPR Register.
 382:system/core_cmFunc.h **** 
 383:system/core_cmFunc.h ****     \return               ISPR Register value
 384:system/core_cmFunc.h ****  */
 385:system/core_cmFunc.h **** static uint32_t __get_IPSR(void)
 386:system/core_cmFunc.h **** {
 387:system/core_cmFunc.h ****   __ASM("mrs r0, ipsr");
 388:system/core_cmFunc.h **** }
 389:system/core_cmFunc.h **** 
 390:system/core_cmFunc.h **** 
ARM GAS  C:\Users\STUDENT\AppData\Local\Temp\ccYC452r.s 			page 11


 391:system/core_cmFunc.h **** /** \brief  Get APSR Register
 392:system/core_cmFunc.h **** 
 393:system/core_cmFunc.h ****     This function returns the content of the APSR Register.
 394:system/core_cmFunc.h **** 
 395:system/core_cmFunc.h ****     \return               APSR Register value
 396:system/core_cmFunc.h ****  */
 397:system/core_cmFunc.h **** static uint32_t __get_APSR(void)
 398:system/core_cmFunc.h **** {
 399:system/core_cmFunc.h ****   __ASM("mrs r0, apsr");
 400:system/core_cmFunc.h **** }
 401:system/core_cmFunc.h **** 
 402:system/core_cmFunc.h **** 
 403:system/core_cmFunc.h **** /** \brief  Get xPSR Register
 404:system/core_cmFunc.h **** 
 405:system/core_cmFunc.h ****     This function returns the content of the xPSR Register.
 406:system/core_cmFunc.h **** 
 407:system/core_cmFunc.h ****     \return               xPSR Register value
 408:system/core_cmFunc.h ****  */
 409:system/core_cmFunc.h **** static uint32_t __get_xPSR(void)
 410:system/core_cmFunc.h **** {
 411:system/core_cmFunc.h ****   __ASM("mrs r0, psr");           // assembler does not know "xpsr"
 412:system/core_cmFunc.h **** }
 413:system/core_cmFunc.h **** 
 414:system/core_cmFunc.h **** 
 415:system/core_cmFunc.h **** /** \brief  Get Process Stack Pointer
 416:system/core_cmFunc.h **** 
 417:system/core_cmFunc.h ****     This function returns the current value of the Process Stack Pointer (PSP).
 418:system/core_cmFunc.h **** 
 419:system/core_cmFunc.h ****     \return               PSP Register value
 420:system/core_cmFunc.h ****  */
 421:system/core_cmFunc.h **** static uint32_t __get_PSP(void)
 422:system/core_cmFunc.h **** {
 423:system/core_cmFunc.h ****   __ASM("mrs r0, psp");
 424:system/core_cmFunc.h **** }
 425:system/core_cmFunc.h ****  
 426:system/core_cmFunc.h **** 
 427:system/core_cmFunc.h **** /** \brief  Set Process Stack Pointer
 428:system/core_cmFunc.h **** 
 429:system/core_cmFunc.h ****     This function assigns the given value to the Process Stack Pointer (PSP).
 430:system/core_cmFunc.h **** 
 431:system/core_cmFunc.h ****     \param [in]    topOfProcStack  Process Stack Pointer value to set
 432:system/core_cmFunc.h ****  */
 433:system/core_cmFunc.h **** static void __set_PSP(uint32_t topOfProcStack)
 434:system/core_cmFunc.h **** {
 435:system/core_cmFunc.h ****   __ASM("msr psp, r0");
 436:system/core_cmFunc.h **** }
 437:system/core_cmFunc.h **** 
 438:system/core_cmFunc.h **** 
 439:system/core_cmFunc.h **** /** \brief  Get Main Stack Pointer
 440:system/core_cmFunc.h **** 
 441:system/core_cmFunc.h ****     This function returns the current value of the Main Stack Pointer (MSP).
 442:system/core_cmFunc.h **** 
 443:system/core_cmFunc.h ****     \return               MSP Register value
 444:system/core_cmFunc.h ****  */
 445:system/core_cmFunc.h **** static uint32_t __get_MSP(void)
 446:system/core_cmFunc.h **** {
 447:system/core_cmFunc.h ****   __ASM("mrs r0, msp");
ARM GAS  C:\Users\STUDENT\AppData\Local\Temp\ccYC452r.s 			page 12


 448:system/core_cmFunc.h **** }
 449:system/core_cmFunc.h ****  
 450:system/core_cmFunc.h **** 
 451:system/core_cmFunc.h **** /** \brief  Set Main Stack Pointer
 452:system/core_cmFunc.h **** 
 453:system/core_cmFunc.h ****     This function assigns the given value to the Main Stack Pointer (MSP).
 454:system/core_cmFunc.h **** 
 455:system/core_cmFunc.h ****     \param [in]    topOfMainStack  Main Stack Pointer value to set
 456:system/core_cmFunc.h ****  */
 457:system/core_cmFunc.h **** static void __set_MSP(uint32_t topOfMainStack)
 458:system/core_cmFunc.h **** {
 459:system/core_cmFunc.h ****   __ASM("msr msp, r0");
 460:system/core_cmFunc.h **** }
 461:system/core_cmFunc.h ****  
 462:system/core_cmFunc.h **** 
 463:system/core_cmFunc.h **** /* intrinsic unsigned long __get_PRIMASK( void ); (see intrinsic.h) */
 464:system/core_cmFunc.h **** /* intrinsic void __set_PRIMASK( unsigned long ); (see intrinsic.h) */
 465:system/core_cmFunc.h ****  
 466:system/core_cmFunc.h **** 
 467:system/core_cmFunc.h **** #if       (__CORTEX_M >= 0x03)
 468:system/core_cmFunc.h **** 
 469:system/core_cmFunc.h **** /** \brief  Enable FIQ
 470:system/core_cmFunc.h **** 
 471:system/core_cmFunc.h ****     This function enables FIQ interrupts by clearing the F-bit in the CPSR.
 472:system/core_cmFunc.h ****     Can only be executed in Privileged modes.
 473:system/core_cmFunc.h ****  */
 474:system/core_cmFunc.h **** static __INLINE void __enable_fault_irq(void)
 475:system/core_cmFunc.h **** {
 476:system/core_cmFunc.h ****   __ASM ("cpsie f");
 477:system/core_cmFunc.h **** }
 478:system/core_cmFunc.h **** 
 479:system/core_cmFunc.h **** 
 480:system/core_cmFunc.h **** /** \brief  Disable FIQ
 481:system/core_cmFunc.h **** 
 482:system/core_cmFunc.h ****     This function disables FIQ interrupts by setting the F-bit in the CPSR.
 483:system/core_cmFunc.h ****     Can only be executed in Privileged modes.
 484:system/core_cmFunc.h ****  */
 485:system/core_cmFunc.h **** static __INLINE void __disable_fault_irq(void)
 486:system/core_cmFunc.h **** {
 487:system/core_cmFunc.h ****   __ASM ("cpsid f");
 488:system/core_cmFunc.h **** }
 489:system/core_cmFunc.h **** 
 490:system/core_cmFunc.h **** 
 491:system/core_cmFunc.h **** /* intrinsic unsigned long __get_BASEPRI( void );   (see intrinsic.h) */
 492:system/core_cmFunc.h **** /* intrinsic void __set_BASEPRI( unsigned long );   (see intrinsic.h) */
 493:system/core_cmFunc.h **** /* intrinsic unsigned long __get_FAULTMASK( void ); (see intrinsic.h) */
 494:system/core_cmFunc.h **** /* intrinsic void __set_FAULTMASK(unsigned long);   (see intrinsic.h) */
 495:system/core_cmFunc.h **** 
 496:system/core_cmFunc.h **** #endif /* (__CORTEX_M >= 0x03) */
 497:system/core_cmFunc.h **** 
 498:system/core_cmFunc.h **** 
 499:system/core_cmFunc.h **** #if       (__CORTEX_M == 0x04)
 500:system/core_cmFunc.h **** 
 501:system/core_cmFunc.h **** /** \brief  Get FPSCR
 502:system/core_cmFunc.h **** 
 503:system/core_cmFunc.h ****     This function returns the current value of the Floating Point Status/Control register.
 504:system/core_cmFunc.h **** 
ARM GAS  C:\Users\STUDENT\AppData\Local\Temp\ccYC452r.s 			page 13


 505:system/core_cmFunc.h ****     \return               Floating Point Status/Control register value
 506:system/core_cmFunc.h ****  */
 507:system/core_cmFunc.h **** static uint32_t __get_FPSCR(void)
 508:system/core_cmFunc.h **** {
 509:system/core_cmFunc.h **** #if (__FPU_PRESENT == 1)
 510:system/core_cmFunc.h ****   __ASM("vmrs r0, fpscr"); 
 511:system/core_cmFunc.h **** #else
 512:system/core_cmFunc.h ****   return(0);
 513:system/core_cmFunc.h **** #endif
 514:system/core_cmFunc.h **** }
 515:system/core_cmFunc.h **** 
 516:system/core_cmFunc.h **** 
 517:system/core_cmFunc.h **** /** \brief  Set FPSCR
 518:system/core_cmFunc.h **** 
 519:system/core_cmFunc.h ****     This function assigns the given value to the Floating Point Status/Control register.
 520:system/core_cmFunc.h **** 
 521:system/core_cmFunc.h ****     \param [in]    fpscr  Floating Point Status/Control value to set
 522:system/core_cmFunc.h ****  */
 523:system/core_cmFunc.h **** static void __set_FPSCR(uint32_t fpscr)
 524:system/core_cmFunc.h **** {
 525:system/core_cmFunc.h **** #if (__FPU_PRESENT == 1)
 526:system/core_cmFunc.h ****   __ASM("vmsr fpscr, r0");
 527:system/core_cmFunc.h **** #endif
 528:system/core_cmFunc.h **** }
 529:system/core_cmFunc.h **** 
 530:system/core_cmFunc.h **** #endif /* (__CORTEX_M == 0x04) */
 531:system/core_cmFunc.h **** 
 532:system/core_cmFunc.h **** #pragma diag_default=Pe940
 533:system/core_cmFunc.h **** 
 534:system/core_cmFunc.h **** 
 535:system/core_cmFunc.h **** #elif (defined (__GNUC__)) /*------------------ GNU Compiler ---------------------*/
 536:system/core_cmFunc.h **** /* GNU gcc specific functions */
 537:system/core_cmFunc.h **** 
 538:system/core_cmFunc.h **** /** \brief  Enable IRQ Interrupts
 539:system/core_cmFunc.h **** 
 540:system/core_cmFunc.h ****   This function enables IRQ interrupts by clearing the I-bit in the CPSR.
 541:system/core_cmFunc.h ****   Can only be executed in Privileged modes.
 542:system/core_cmFunc.h ****  */
 543:system/core_cmFunc.h **** __attribute__( ( always_inline ) ) static __INLINE void __enable_irq(void)
 544:system/core_cmFunc.h **** {
 545:system/core_cmFunc.h ****   __ASM volatile ("cpsie i");
 546:system/core_cmFunc.h **** }
 547:system/core_cmFunc.h **** 
 548:system/core_cmFunc.h **** 
 549:system/core_cmFunc.h **** /** \brief  Disable IRQ Interrupts
 550:system/core_cmFunc.h **** 
 551:system/core_cmFunc.h ****   This function disables IRQ interrupts by setting the I-bit in the CPSR.
 552:system/core_cmFunc.h ****   Can only be executed in Privileged modes.
 553:system/core_cmFunc.h ****  */
 554:system/core_cmFunc.h **** __attribute__( ( always_inline ) ) static __INLINE void __disable_irq(void)
 555:system/core_cmFunc.h **** {
 556:system/core_cmFunc.h ****   __ASM volatile ("cpsid i");
 131              		.loc 2 556 0
 132              		.syntax unified
 133              	@ 556 "system/core_cmFunc.h" 1
 134 0004 72B6     		cpsid i
 135              	@ 0 "" 2
ARM GAS  C:\Users\STUDENT\AppData\Local\Temp\ccYC452r.s 			page 14


 136              		.thumb
 137              		.syntax unified
 138              	.LBE7:
 139              	.LBE6:
  51:drivers/rc_system/rc_system.c **** 	__disable_irq();
  52:drivers/rc_system/rc_system.c **** }
 140              		.loc 1 52 0
 141 0006 00BF     		nop
 142 0008 BD46     		mov	sp, r7	@,
 143              		.cfi_def_cfa_register 13
 144              		@ sp needed	@
 145 000a 80BC     		pop	{r7}	@
 146              		.cfi_restore 7
 147              		.cfi_def_cfa_offset 0
 148 000c 7047     		bx	lr	@
 149              		.cfi_endproc
 150              	.LFE57:
 151              		.size	rcsys_EnterProtectedMode, .-rcsys_EnterProtectedMode
 152 000e 00BF     		.section	.text.rcsys_LeaveProtectedMode,"ax",%progbits
 153              		.align	2
 154              		.global	rcsys_LeaveProtectedMode
 155              		.thumb
 156              		.thumb_func
 157              		.type	rcsys_LeaveProtectedMode, %function
 158              	rcsys_LeaveProtectedMode:
 159              	.LFB58:
  53:drivers/rc_system/rc_system.c **** 
  54:drivers/rc_system/rc_system.c **** /**
  55:drivers/rc_system/rc_system.c ****  * \brief	Enable interrupts
  56:drivers/rc_system/rc_system.c ****  * \return 	none
  57:drivers/rc_system/rc_system.c ****  */
  58:drivers/rc_system/rc_system.c **** void rcsys_LeaveProtectedMode(void)
  59:drivers/rc_system/rc_system.c **** {
 160              		.loc 1 59 0
 161              		.cfi_startproc
 162              		@ args = 0, pretend = 0, frame = 0
 163              		@ frame_needed = 1, uses_anonymous_args = 0
 164              		@ link register save eliminated.
 165 0000 80B4     		push	{r7}	@
 166              		.cfi_def_cfa_offset 4
 167              		.cfi_offset 7, -4
 168 0002 00AF     		add	r7, sp, #0	@,,
 169              		.cfi_def_cfa_register 7
 170              	.LBB8:
 171              	.LBB9:
 545:system/core_cmFunc.h **** }
 172              		.loc 2 545 0
 173              		.syntax unified
 174              	@ 545 "system/core_cmFunc.h" 1
 175 0004 62B6     		cpsie i
 176              	@ 0 "" 2
 177              		.thumb
 178              		.syntax unified
 179              	.LBE9:
 180              	.LBE8:
  60:drivers/rc_system/rc_system.c **** 	__enable_irq();
  61:drivers/rc_system/rc_system.c **** }
ARM GAS  C:\Users\STUDENT\AppData\Local\Temp\ccYC452r.s 			page 15


 181              		.loc 1 61 0
 182 0006 00BF     		nop
 183 0008 BD46     		mov	sp, r7	@,
 184              		.cfi_def_cfa_register 13
 185              		@ sp needed	@
 186 000a 80BC     		pop	{r7}	@
 187              		.cfi_restore 7
 188              		.cfi_def_cfa_offset 0
 189 000c 7047     		bx	lr	@
 190              		.cfi_endproc
 191              	.LFE58:
 192              		.size	rcsys_LeaveProtectedMode, .-rcsys_LeaveProtectedMode
 193 000e 00BF     		.text
 194              	.Letext0:
 195              		.file 3 "c:\\program files (x86)\\gnu tools arm embedded\\5.4 2016q3\\arm-none-eabi\\include\\mach
 196              		.file 4 "c:\\program files (x86)\\gnu tools arm embedded\\5.4 2016q3\\arm-none-eabi\\include\\sys\
 197              		.file 5 "system/core_cm3.h"