ARM GAS  C:\Users\COSMIN~1.MAR\AppData\Local\Temp\ccGK5BHe.s 			page 1


   1              		.syntax unified
   2              		.cpu cortex-m3
   3              		.fpu softvfp
   4              		.eabi_attribute 20, 1	@ Tag_ABI_FP_denormal
   5              		.eabi_attribute 21, 1	@ Tag_ABI_FP_exceptions
   6              		.eabi_attribute 23, 3	@ Tag_ABI_FP_number_model
   7              		.eabi_attribute 24, 1	@ Tag_ABI_align8_needed
   8              		.eabi_attribute 25, 1	@ Tag_ABI_align8_preserved
   9              		.eabi_attribute 26, 1	@ Tag_ABI_enum_size
  10              		.eabi_attribute 30, 6	@ Tag_ABI_optimization_goals
  11              		.eabi_attribute 34, 1	@ Tag_CPU_unaligned_access
  12              		.eabi_attribute 18, 4	@ Tag_ABI_PCS_wchar_t
  13              		.file	"rc_task_xbee.c"
  14              	@ GNU C (GNU Tools for ARM Embedded Processors) version 4.9.3 20150303 (release) [ARM/embedded-4_9-
  15              	@	compiled by GNU C version 4.7.4, GMP version 4.3.2, MPFR version 2.4.2, MPC version 0.8.1
  16              	@ GGC heuristics: --param ggc-min-expand=100 --param ggc-min-heapsize=131072
  17              	@ options passed:  -I . -I config -I system -I core -I drivers -I FreeRTOS
  18              	@ -I FreeRTOS/include -I FreeRTOS/portable/GCC/ARM_CM3 -I FreeRTOS/portable
  19              	@ -I tasks/rc_task_leds -I tasks/rc_task_xbee -I modules/rc_leds
  20              	@ -I modules/rc_xbee -I modules/rc_scheduler -I drivers/rc_system
  21              	@ -I drivers/rc_gpio -I drivers/rc_uart -I drivers/rc_pinsel
  22              	@ -I drivers/rc_timer -I drivers/rc_adc -imultilib armv7-m
  23              	@ -iprefix c:\gnu tools arm embedded\4.9 2015q1\bin\../lib/gcc/arm-none-eabi/4.9.3/
  24              	@ -isysroot c:\gnu tools arm embedded\4.9 2015q1\bin\../arm-none-eabi
  25              	@ -MD out/rc_task_xbee.d -MF out/rc_task_xbee.d -MP -MQ out/rc_task_xbee.o
  26              	@ -D__USES_INITFINI__ tasks/rc_task_xbee/rc_task_xbee.c -mcpu=cortex-m3
  27              	@ -mthumb -auxbase-strip out/rc_task_xbee.o -g -ggdb3 -O0 -Wall
  28              	@ -Wstrict-prototypes -Wextra -std=gnu90 -ffunction-sections
  29              	@ -fdata-sections -fverbose-asm
  30              	@ options enabled:  -faggressive-loop-optimizations -fauto-inc-dec -fcommon
  31              	@ -fdata-sections -fdelete-null-pointer-checks -fdwarf2-cfi-asm
  32              	@ -fearly-inlining -feliminate-unused-debug-types -ffunction-cse
  33              	@ -ffunction-sections -fgcse-lm -fgnu-runtime -fgnu-unique -fident
  34              	@ -finline-atomics -fira-hoist-pressure -fira-share-save-slots
  35              	@ -fira-share-spill-slots -fivopts -fkeep-static-consts
  36              	@ -fleading-underscore -flifetime-dse -fmath-errno -fmerge-debug-strings
  37              	@ -fpeephole -fprefetch-loop-arrays -freg-struct-return
  38              	@ -fsched-critical-path-heuristic -fsched-dep-count-heuristic
  39              	@ -fsched-group-heuristic -fsched-interblock -fsched-last-insn-heuristic
  40              	@ -fsched-rank-heuristic -fsched-spec -fsched-spec-insn-heuristic
  41              	@ -fsched-stalled-insns-dep -fshow-column -fsigned-zeros
  42              	@ -fsplit-ivs-in-unroller -fstrict-volatile-bitfields -fsync-libcalls
  43              	@ -ftrapping-math -ftree-coalesce-vars -ftree-cselim -ftree-forwprop
  44              	@ -ftree-loop-if-convert -ftree-loop-im -ftree-loop-ivcanon
  45              	@ -ftree-loop-optimize -ftree-parallelize-loops= -ftree-phiprop
  46              	@ -ftree-reassoc -ftree-scev-cprop -funit-at-a-time -fverbose-asm
  47              	@ -fzero-initialized-in-bss -mfix-cortex-m3-ldrd -mlittle-endian -mlra
  48              	@ -mpic-data-is-text-relative -msched-prolog -mthumb -munaligned-access
  49              	@ -mvectorize-with-neon-quad
  50              	
  51              		.text
  52              	.Ltext0:
  53              		.cfi_sections	.debug_frame
  54              		.comm	xHandleXBee,4,4
  55              		.section	.text.rctask_XBee,"ax",%progbits
  56              		.align	2
  57              		.global	rctask_XBee
ARM GAS  C:\Users\COSMIN~1.MAR\AppData\Local\Temp\ccGK5BHe.s 			page 2


  58              		.thumb
  59              		.thumb_func
  60              		.type	rctask_XBee, %function
  61              	rctask_XBee:
  62              	.LFB56:
  63              		.file 1 "tasks/rc_task_xbee/rc_task_xbee.c"
   1:tasks/rc_task_xbee/rc_task_xbee.c **** /**
   2:tasks/rc_task_xbee/rc_task_xbee.c ****  * \file	rc_task_xbee.c
   3:tasks/rc_task_xbee/rc_task_xbee.c ****  * \brief	XBee task
   4:tasks/rc_task_xbee/rc_task_xbee.c ****  * \details	Implements XBee functions
   5:tasks/rc_task_xbee/rc_task_xbee.c ****  * \author	Cosmin Marcu
   6:tasks/rc_task_xbee/rc_task_xbee.c ****  * \date	May 28, 2015
   7:tasks/rc_task_xbee/rc_task_xbee.c ****  * \version 1.0.1
   8:tasks/rc_task_xbee/rc_task_xbee.c ****  */
   9:tasks/rc_task_xbee/rc_task_xbee.c **** 
  10:tasks/rc_task_xbee/rc_task_xbee.c **** /* System and general headers */
  11:tasks/rc_task_xbee/rc_task_xbee.c **** #include "rc_task_xbee.h"
  12:tasks/rc_task_xbee/rc_task_xbee.c **** 
  13:tasks/rc_task_xbee/rc_task_xbee.c **** #include "../../modules/rc_leds/rc_leds.h"
  14:tasks/rc_task_xbee/rc_task_xbee.c **** #include "rc_stdtypedefs.h"
  15:tasks/rc_task_xbee/rc_task_xbee.c **** #include "rc_board.h"
  16:tasks/rc_task_xbee/rc_task_xbee.c **** #include "rc_gpio.h"
  17:tasks/rc_task_xbee/rc_task_xbee.c **** #include "rc_uart.h"
  18:tasks/rc_task_xbee/rc_task_xbee.c **** #include "rc_xbee.h"
  19:tasks/rc_task_xbee/rc_task_xbee.c **** #include "lpc17xx_uart.h"
  20:tasks/rc_task_xbee/rc_task_xbee.c **** 
  21:tasks/rc_task_xbee/rc_task_xbee.c **** //PRIVATE_DATA T_E_RCLEDS_STATE re_rcleds_state;
  22:tasks/rc_task_xbee/rc_task_xbee.c **** 
  23:tasks/rc_task_xbee/rc_task_xbee.c **** /**
  24:tasks/rc_task_xbee/rc_task_xbee.c ****  * \ingroup  rc_task_xbee
  25:tasks/rc_task_xbee/rc_task_xbee.c ****  * \defgroup Task_XBee_functions XBee task
  26:tasks/rc_task_xbee/rc_task_xbee.c ****  *  FreeRTOS task for XBee
  27:tasks/rc_task_xbee/rc_task_xbee.c ****  *  @{
  28:tasks/rc_task_xbee/rc_task_xbee.c ****  */
  29:tasks/rc_task_xbee/rc_task_xbee.c **** 
  30:tasks/rc_task_xbee/rc_task_xbee.c **** /**
  31:tasks/rc_task_xbee/rc_task_xbee.c **** * \brief 	RTOS XBee task
  32:tasks/rc_task_xbee/rc_task_xbee.c **** * \details 	TBD.
  33:tasks/rc_task_xbee/rc_task_xbee.c **** */
  34:tasks/rc_task_xbee/rc_task_xbee.c **** void rctask_XBee(void *pvParameters)
  35:tasks/rc_task_xbee/rc_task_xbee.c **** {
  64              		.loc 1 35 0
  65              		.cfi_startproc
  66              		@ args = 0, pretend = 0, frame = 8
  67              		@ frame_needed = 1, uses_anonymous_args = 0
  68 0000 80B5     		push	{r7, lr}	@
  69              		.cfi_def_cfa_offset 8
  70              		.cfi_offset 7, -8
  71              		.cfi_offset 14, -4
  72 0002 82B0     		sub	sp, sp, #8	@,,
  73              		.cfi_def_cfa_offset 16
  74 0004 00AF     		add	r7, sp, #0	@,,
  75              		.cfi_def_cfa_register 7
  76 0006 7860     		str	r0, [r7, #4]	@ pvParameters, pvParameters
  77              	.L2:
  36:tasks/rc_task_xbee/rc_task_xbee.c **** //	T_UBYTE laub_ATNJ[9u] =  {0x7E, 0x00, 0x05, 0x08, 0x01, 0x4E, 0x4A, 0xFF, 0x5F };
  37:tasks/rc_task_xbee/rc_task_xbee.c **** //	T_UBYTE laub_ATMY[8u] = {0x7Eu, 0x00u, 0x04u, 0x08u, 0x01u, 0x4Du, 0x59u, 0x50u};
ARM GAS  C:\Users\COSMIN~1.MAR\AppData\Local\Temp\ccGK5BHe.s 			page 3


  38:tasks/rc_task_xbee/rc_task_xbee.c **** //	T_UBYTE laub_ATSH[8u] = {0x7Eu, 0x00u, 0x04u, 0x08u, 0x02u, 0x53u, 0x48u, 0x5Au};
  39:tasks/rc_task_xbee/rc_task_xbee.c **** //	T_UBYTE laub_ATSL[8u] = {0x7Eu, 0x00u, 0x04u, 0x08u, 0x03u, 0x53u, 0x4Cu, 0x55u};
  40:tasks/rc_task_xbee/rc_task_xbee.c **** //	T_UBYTE laub_ATND[8u] = {0x7Eu, 0x00u, 0x04u, 0x08u, 0x04u, 0x4Eu, 0x44u, 0x61u};
  41:tasks/rc_task_xbee/rc_task_xbee.c **** //	T_UBYTE laub_ATSC[9] = { 0x7Eu, 0x00u, 0x05u, 0x08u, 0x01u, 0x53u, 0x43u, 0x32u, 0x2Eu};
  42:tasks/rc_task_xbee/rc_task_xbee.c **** //	T_UBYTE laub_ApiHello[29] = {0x7Eu, 0x00u, 0x19u, 0x11u, 0x01u, 0x00u, 0x00u, 0x00u, 0x00u, 0x00
  43:tasks/rc_task_xbee/rc_task_xbee.c **** //	T_UBYTE laub_Rx[RCXB_RX_BUFFER_SIZE];
  44:tasks/rc_task_xbee/rc_task_xbee.c **** //	re_rcleds_state = E_RCLEDS_STATE_NONE;
  45:tasks/rc_task_xbee/rc_task_xbee.c **** //	T_E_RC_ERROR le_TransmitStatus = E_RC_ERROR;
  46:tasks/rc_task_xbee/rc_task_xbee.c **** //
  47:tasks/rc_task_xbee/rc_task_xbee.c **** //	if (NULL == pvParameters) {};	//avoid compiler warning
  48:tasks/rc_task_xbee/rc_task_xbee.c **** //	rcuart_Send(RC_XB_PORT, laub_ATSC, sizeof(laub_ATSC), E_RCUART_TRANSFER_NONBLOCKING);
  49:tasks/rc_task_xbee/rc_task_xbee.c **** 	while(1)
  50:tasks/rc_task_xbee/rc_task_xbee.c **** 	{
  51:tasks/rc_task_xbee/rc_task_xbee.c **** //		vTaskDelay(10);
  52:tasks/rc_task_xbee/rc_task_xbee.c **** //		/* Get current xbee module state */
  53:tasks/rc_task_xbee/rc_task_xbee.c **** //		//TODO: state reading should be protected. TBD.
  54:tasks/rc_task_xbee/rc_task_xbee.c **** //		if(E_RCXB_STATE_WAIT_DATA_PROCESS == rcxb_GetState())
  55:tasks/rc_task_xbee/rc_task_xbee.c **** //		{
  56:tasks/rc_task_xbee/rc_task_xbee.c **** //			if (E_RC_SUCCESS == rcxb_ReadRxBuffer(laub_Rx))
  57:tasks/rc_task_xbee/rc_task_xbee.c **** //			{
  58:tasks/rc_task_xbee/rc_task_xbee.c **** //				switch(laub_Rx[RCXB_COMMAND_OFFSET])
  59:tasks/rc_task_xbee/rc_task_xbee.c **** //				{
  60:tasks/rc_task_xbee/rc_task_xbee.c **** //				case 0x80:
  61:tasks/rc_task_xbee/rc_task_xbee.c **** //					break;
  62:tasks/rc_task_xbee/rc_task_xbee.c **** //				case 0x88:
  63:tasks/rc_task_xbee/rc_task_xbee.c **** //					re_rcleds_state = E_RCLEDS_STATE_WAIT_CMDMODE_ACK;
  64:tasks/rc_task_xbee/rc_task_xbee.c **** //					break;
  65:tasks/rc_task_xbee/rc_task_xbee.c **** //				case 0x90: //API Explicit Response
  66:tasks/rc_task_xbee/rc_task_xbee.c **** //					le_TransmitStatus = rcuart_Send(RC_XB_PORT, laub_ApiHello, sizeof(laub_ApiHello), E_RCUART_T
  67:tasks/rc_task_xbee/rc_task_xbee.c **** //					/* Led1 state */
  68:tasks/rc_task_xbee/rc_task_xbee.c **** //					if (0x01u == laub_Rx[15])
  69:tasks/rc_task_xbee/rc_task_xbee.c **** //					{
  70:tasks/rc_task_xbee/rc_task_xbee.c **** //						rcgpio_ClearPin(RC_RGBLEDS_PORT, RC_RGBLED1_RED_PIN);
  71:tasks/rc_task_xbee/rc_task_xbee.c **** //					}
  72:tasks/rc_task_xbee/rc_task_xbee.c **** //					else
  73:tasks/rc_task_xbee/rc_task_xbee.c **** //					{
  74:tasks/rc_task_xbee/rc_task_xbee.c **** //						rcgpio_SetPin(RC_RGBLEDS_PORT, RC_RGBLED1_RED_PIN);
  75:tasks/rc_task_xbee/rc_task_xbee.c **** //					}
  76:tasks/rc_task_xbee/rc_task_xbee.c **** //
  77:tasks/rc_task_xbee/rc_task_xbee.c **** //					/* Led2 state */
  78:tasks/rc_task_xbee/rc_task_xbee.c **** //					if (0x01u == laub_Rx[16])
  79:tasks/rc_task_xbee/rc_task_xbee.c **** //					{
  80:tasks/rc_task_xbee/rc_task_xbee.c **** //						rcgpio_ClearPin(RC_RGBLEDS_PORT, RC_RGBLED2_RED_PIN);
  81:tasks/rc_task_xbee/rc_task_xbee.c **** //					}
  82:tasks/rc_task_xbee/rc_task_xbee.c **** //					else
  83:tasks/rc_task_xbee/rc_task_xbee.c **** //					{
  84:tasks/rc_task_xbee/rc_task_xbee.c **** //						rcgpio_SetPin(RC_RGBLEDS_PORT, RC_RGBLED2_RED_PIN);
  85:tasks/rc_task_xbee/rc_task_xbee.c **** //					}
  86:tasks/rc_task_xbee/rc_task_xbee.c **** //					break;
  87:tasks/rc_task_xbee/rc_task_xbee.c **** //				default:
  88:tasks/rc_task_xbee/rc_task_xbee.c **** //					re_rcleds_state = E_RCLEDS_STATE_NONE;
  89:tasks/rc_task_xbee/rc_task_xbee.c **** //					break;
  90:tasks/rc_task_xbee/rc_task_xbee.c **** //				}
  91:tasks/rc_task_xbee/rc_task_xbee.c **** //			}
  92:tasks/rc_task_xbee/rc_task_xbee.c **** //		}
  93:tasks/rc_task_xbee/rc_task_xbee.c **** //		switch(re_rcleds_state)
  94:tasks/rc_task_xbee/rc_task_xbee.c **** //		{
ARM GAS  C:\Users\COSMIN~1.MAR\AppData\Local\Temp\ccGK5BHe.s 			page 4


  95:tasks/rc_task_xbee/rc_task_xbee.c **** //		case E_RCLEDS_STATE_NONE:
  96:tasks/rc_task_xbee/rc_task_xbee.c **** //			rcuart_Send(RC_XB_PORT, laub_ATMY, sizeof(laub_ATMY), E_RCUART_TRANSFER_NONBLOCKING);
  97:tasks/rc_task_xbee/rc_task_xbee.c **** //			vTaskDelay(4000);
  98:tasks/rc_task_xbee/rc_task_xbee.c **** //			if (E_RC_SUCCESS == rcxb_ReadRxBuffer(laub_Rx))
  99:tasks/rc_task_xbee/rc_task_xbee.c **** //			{
 100:tasks/rc_task_xbee/rc_task_xbee.c **** //				switch(laub_Rx[RCXB_COMMAND_OFFSET])
 101:tasks/rc_task_xbee/rc_task_xbee.c **** //				{
 102:tasks/rc_task_xbee/rc_task_xbee.c **** //				case 0x80:
 103:tasks/rc_task_xbee/rc_task_xbee.c **** //					break;
 104:tasks/rc_task_xbee/rc_task_xbee.c **** //				case 0x88:
 105:tasks/rc_task_xbee/rc_task_xbee.c **** //					re_rcleds_state = E_RCLEDS_STATE_WAIT_CMDMODE_ACK;
 106:tasks/rc_task_xbee/rc_task_xbee.c **** //					break;
 107:tasks/rc_task_xbee/rc_task_xbee.c **** //				default:
 108:tasks/rc_task_xbee/rc_task_xbee.c **** //					break;
 109:tasks/rc_task_xbee/rc_task_xbee.c **** //				}
 110:tasks/rc_task_xbee/rc_task_xbee.c **** //			}
 111:tasks/rc_task_xbee/rc_task_xbee.c **** //			break;
 112:tasks/rc_task_xbee/rc_task_xbee.c **** //		case E_RCLEDS_STATE_WAIT_CMDMODE_ACK:
 113:tasks/rc_task_xbee/rc_task_xbee.c **** //			rcuart_Send(RC_XB_PORT, laub_ATSL, sizeof(laub_ATSL), E_RCUART_TRANSFER_NONBLOCKING);
 114:tasks/rc_task_xbee/rc_task_xbee.c **** //			vTaskDelay(5040);
 115:tasks/rc_task_xbee/rc_task_xbee.c **** //			if (E_RC_SUCCESS == rcxb_ReadRxBuffer(laub_Rx))
 116:tasks/rc_task_xbee/rc_task_xbee.c **** //			{
 117:tasks/rc_task_xbee/rc_task_xbee.c **** //				switch(laub_Rx[RCXB_COMMAND_OFFSET])
 118:tasks/rc_task_xbee/rc_task_xbee.c **** //				{
 119:tasks/rc_task_xbee/rc_task_xbee.c **** //				case 0x80:
 120:tasks/rc_task_xbee/rc_task_xbee.c **** //					break;
 121:tasks/rc_task_xbee/rc_task_xbee.c **** //				case 0x88:
 122:tasks/rc_task_xbee/rc_task_xbee.c **** //					re_rcleds_state = E_RCLEDS_STATE_NONE;
 123:tasks/rc_task_xbee/rc_task_xbee.c **** //					break;
 124:tasks/rc_task_xbee/rc_task_xbee.c **** //				default:
 125:tasks/rc_task_xbee/rc_task_xbee.c **** //					break;
 126:tasks/rc_task_xbee/rc_task_xbee.c **** //				}
 127:tasks/rc_task_xbee/rc_task_xbee.c **** //			}
 128:tasks/rc_task_xbee/rc_task_xbee.c **** //			break;
 129:tasks/rc_task_xbee/rc_task_xbee.c **** //		default:
 130:tasks/rc_task_xbee/rc_task_xbee.c **** //			break;
 131:tasks/rc_task_xbee/rc_task_xbee.c **** //		}
 132:tasks/rc_task_xbee/rc_task_xbee.c **** 		vTaskDelay(100);
  78              		.loc 1 132 0 discriminator 1
  79 0008 6420     		movs	r0, #100	@,
  80 000a FFF7FEFF 		bl	vTaskDelay	@
 133:tasks/rc_task_xbee/rc_task_xbee.c **** 
 134:tasks/rc_task_xbee/rc_task_xbee.c **** 	}
  81              		.loc 1 134 0 discriminator 1
  82 000e FBE7     		b	.L2	@
  83              		.cfi_endproc
  84              	.LFE56:
  85              		.size	rctask_XBee, .-rctask_XBee
  86              		.text
  87              	.Letext0:
  88              		.file 2 "c:\\gnu tools arm embedded\\4.9 2015q1\\arm-none-eabi\\include\\machine\\_default_types.h
  89              		.file 3 "c:\\gnu tools arm embedded\\4.9 2015q1\\arm-none-eabi\\include\\stdint.h"
  90              		.file 4 "FreeRTOS/include/task.h"
  91              		.file 5 "tasks/rc_task_xbee/rc_task_xbee.h"
  92              		.file 6 "system/core_cm3.h"