ARM GAS  C:\Users\COSMIN~1.MAR\AppData\Local\Temp\ccLX1cSp.s 			page 1


   1              		.syntax unified
   2              		.cpu cortex-m3
   3              		.fpu softvfp
   4              		.eabi_attribute 20, 1	@ Tag_ABI_FP_denormal
   5              		.eabi_attribute 21, 1	@ Tag_ABI_FP_exceptions
   6              		.eabi_attribute 23, 3	@ Tag_ABI_FP_number_model
   7              		.eabi_attribute 24, 1	@ Tag_ABI_align8_needed
   8              		.eabi_attribute 25, 1	@ Tag_ABI_align8_preserved
   9              		.eabi_attribute 26, 1	@ Tag_ABI_enum_size
  10              		.eabi_attribute 30, 6	@ Tag_ABI_optimization_goals
  11              		.eabi_attribute 34, 1	@ Tag_CPU_unaligned_access
  12              		.eabi_attribute 18, 4	@ Tag_ABI_PCS_wchar_t
  13              		.file	"rc_timer.c"
  14              	@ GNU C (GNU Tools for ARM Embedded Processors) version 4.9.3 20150303 (release) [ARM/embedded-4_9-
  15              	@	compiled by GNU C version 4.7.4, GMP version 4.3.2, MPFR version 2.4.2, MPC version 0.8.1
  16              	@ GGC heuristics: --param ggc-min-expand=100 --param ggc-min-heapsize=131072
  17              	@ options passed:  -I . -I config -I system -I core -I drivers -I FreeRTOS
  18              	@ -I FreeRTOS/include -I FreeRTOS/portable/GCC/ARM_CM3 -I FreeRTOS/portable
  19              	@ -I tasks/rc_task_leds -I modules/rc_leds -I drivers/rc_system
  20              	@ -I drivers/rc_gpio -I drivers/rc_uart -I drivers/rc_pinsel
  21              	@ -I drivers/rc_timer -I drivers/rc_adc -imultilib armv7-m
  22              	@ -iprefix c:\gnu tools arm embedded\4.9 2015q1\bin\../lib/gcc/arm-none-eabi/4.9.3/
  23              	@ -isysroot c:\gnu tools arm embedded\4.9 2015q1\bin\../arm-none-eabi
  24              	@ -MD out/rc_timer.d -MF out/rc_timer.d -MP -MQ out/rc_timer.o
  25              	@ -D__USES_INITFINI__ drivers/rc_timer/rc_timer.c -mcpu=cortex-m3 -mthumb
  26              	@ -auxbase-strip out/rc_timer.o -g -ggdb3 -O0 -Wall -Wstrict-prototypes
  27              	@ -Wextra -std=gnu90 -ffunction-sections -fdata-sections -fverbose-asm
  28              	@ options enabled:  -faggressive-loop-optimizations -fauto-inc-dec -fcommon
  29              	@ -fdata-sections -fdelete-null-pointer-checks -fdwarf2-cfi-asm
  30              	@ -fearly-inlining -feliminate-unused-debug-types -ffunction-cse
  31              	@ -ffunction-sections -fgcse-lm -fgnu-runtime -fgnu-unique -fident
  32              	@ -finline-atomics -fira-hoist-pressure -fira-share-save-slots
  33              	@ -fira-share-spill-slots -fivopts -fkeep-static-consts
  34              	@ -fleading-underscore -flifetime-dse -fmath-errno -fmerge-debug-strings
  35              	@ -fpeephole -fprefetch-loop-arrays -freg-struct-return
  36              	@ -fsched-critical-path-heuristic -fsched-dep-count-heuristic
  37              	@ -fsched-group-heuristic -fsched-interblock -fsched-last-insn-heuristic
  38              	@ -fsched-rank-heuristic -fsched-spec -fsched-spec-insn-heuristic
  39              	@ -fsched-stalled-insns-dep -fshow-column -fsigned-zeros
  40              	@ -fsplit-ivs-in-unroller -fstrict-volatile-bitfields -fsync-libcalls
  41              	@ -ftrapping-math -ftree-coalesce-vars -ftree-cselim -ftree-forwprop
  42              	@ -ftree-loop-if-convert -ftree-loop-im -ftree-loop-ivcanon
  43              	@ -ftree-loop-optimize -ftree-parallelize-loops= -ftree-phiprop
  44              	@ -ftree-reassoc -ftree-scev-cprop -funit-at-a-time -fverbose-asm
  45              	@ -fzero-initialized-in-bss -mfix-cortex-m3-ldrd -mlittle-endian -mlra
  46              	@ -mpic-data-is-text-relative -msched-prolog -mthumb -munaligned-access
  47              	@ -mvectorize-with-neon-quad
  48              	
  49              		.text
  50              	.Ltext0:
  51              		.cfi_sections	.debug_frame
  52              		.section	.text.rctimer_Init,"ax",%progbits
  53              		.align	2
  54              		.global	rctimer_Init
  55              		.thumb
  56              		.thumb_func
  57              		.type	rctimer_Init, %function
ARM GAS  C:\Users\COSMIN~1.MAR\AppData\Local\Temp\ccLX1cSp.s 			page 2


  58              	rctimer_Init:
  59              	.LFB55:
  60              		.file 1 "drivers/rc_timer/rc_timer.c"
   1:drivers/rc_timer/rc_timer.c **** /**
   2:drivers/rc_timer/rc_timer.c ****  * \file	rc_timer.c
   3:drivers/rc_timer/rc_timer.c ****  * \brief	Timer configuration functions
   4:drivers/rc_timer/rc_timer.c ****  * \details	Implements the functions for Timer configuration
   5:drivers/rc_timer/rc_timer.c ****  * \author	Cosmin Marcu
   6:drivers/rc_timer/rc_timer.c ****  * \date	19.06.2015
   7:drivers/rc_timer/rc_timer.c ****  * \version 1.0.1
   8:drivers/rc_timer/rc_timer.c ****  */
   9:drivers/rc_timer/rc_timer.c **** 
  10:drivers/rc_timer/rc_timer.c **** /* Includes */
  11:drivers/rc_timer/rc_timer.c **** #include "rc_timer.h"
  12:drivers/rc_timer/rc_timer.c **** #include "lpc17xx_timer.h"
  13:drivers/rc_timer/rc_timer.c **** 
  14:drivers/rc_timer/rc_timer.c **** /* Begin functions implementation */
  15:drivers/rc_timer/rc_timer.c **** 
  16:drivers/rc_timer/rc_timer.c **** /** \defgroup rc_timer Timer driver
  17:drivers/rc_timer/rc_timer.c ****   Contains the functions to set the Timers attributes
  18:drivers/rc_timer/rc_timer.c **** */
  19:drivers/rc_timer/rc_timer.c **** 
  20:drivers/rc_timer/rc_timer.c **** /**
  21:drivers/rc_timer/rc_timer.c ****  * \ingroup  rc_timer
  22:drivers/rc_timer/rc_timer.c ****  * \defgroup Timer_functions Timer Functions
  23:drivers/rc_timer/rc_timer.c ****  *  Functions definitions for the timer attributes
  24:drivers/rc_timer/rc_timer.c ****  *  @{
  25:drivers/rc_timer/rc_timer.c ****  */
  26:drivers/rc_timer/rc_timer.c **** /* Timer functions group: */
  27:drivers/rc_timer/rc_timer.c **** /**
  28:drivers/rc_timer/rc_timer.c ****  * \brief 	Initializes Timer.
  29:drivers/rc_timer/rc_timer.c ****  * \param	ps_Timer	Pointer to LPC_TIMx structure
  30:drivers/rc_timer/rc_timer.c ****  * \param	le_Mode		Timer mode (Timer or Counter)
  31:drivers/rc_timer/rc_timer.c ****  * \param	ps_Config	Pointer to config structure
  32:drivers/rc_timer/rc_timer.c ****  * \return	none
  33:drivers/rc_timer/rc_timer.c ****  */
  34:drivers/rc_timer/rc_timer.c **** void rctimer_Init(T_RCTMR_PORT *ps_Timer, T_E_RCTMR_MODE le_Mode, void *ps_Config)
  35:drivers/rc_timer/rc_timer.c **** {
  61              		.loc 1 35 0
  62              		.cfi_startproc
  63              		@ args = 0, pretend = 0, frame = 16
  64              		@ frame_needed = 1, uses_anonymous_args = 0
  65 0000 80B5     		push	{r7, lr}	@
  66              		.cfi_def_cfa_offset 8
  67              		.cfi_offset 7, -8
  68              		.cfi_offset 14, -4
  69 0002 84B0     		sub	sp, sp, #16	@,,
  70              		.cfi_def_cfa_offset 24
  71 0004 00AF     		add	r7, sp, #0	@,,
  72              		.cfi_def_cfa_register 7
  73 0006 F860     		str	r0, [r7, #12]	@ ps_Timer, ps_Timer
  74 0008 0B46     		mov	r3, r1	@ tmp110, le_Mode
  75 000a 7A60     		str	r2, [r7, #4]	@ ps_Config, ps_Config
  76 000c FB72     		strb	r3, [r7, #11]	@ tmp111, le_Mode
  36:drivers/rc_timer/rc_timer.c **** 	TIM_Init(ps_Timer, le_Mode, ps_Config);
  77              		.loc 1 36 0
  78 000e FB7A     		ldrb	r3, [r7, #11]	@ zero_extendqisi2	@ tmp112, le_Mode
ARM GAS  C:\Users\COSMIN~1.MAR\AppData\Local\Temp\ccLX1cSp.s 			page 3


  79 0010 F868     		ldr	r0, [r7, #12]	@, ps_Timer
  80 0012 1946     		mov	r1, r3	@, tmp112
  81 0014 7A68     		ldr	r2, [r7, #4]	@, ps_Config
  82 0016 FFF7FEFF 		bl	TIM_Init	@
  37:drivers/rc_timer/rc_timer.c **** }
  83              		.loc 1 37 0
  84 001a 1037     		adds	r7, r7, #16	@,,
  85              		.cfi_def_cfa_offset 8
  86 001c BD46     		mov	sp, r7	@,
  87              		.cfi_def_cfa_register 13
  88              		@ sp needed	@
  89 001e 80BD     		pop	{r7, pc}	@
  90              		.cfi_endproc
  91              	.LFE55:
  92              		.size	rctimer_Init, .-rctimer_Init
  93              		.section	.text.rctimer_DeInit,"ax",%progbits
  94              		.align	2
  95              		.global	rctimer_DeInit
  96              		.thumb
  97              		.thumb_func
  98              		.type	rctimer_DeInit, %function
  99              	rctimer_DeInit:
 100              	.LFB56:
  38:drivers/rc_timer/rc_timer.c **** 
  39:drivers/rc_timer/rc_timer.c **** /**
  40:drivers/rc_timer/rc_timer.c ****  * \brief 	De-Initializes a Timer.
  41:drivers/rc_timer/rc_timer.c ****  * \param	ps_Timer Pointer to LPC_TIMx structure
  42:drivers/rc_timer/rc_timer.c ****  * \return	none
  43:drivers/rc_timer/rc_timer.c ****  */
  44:drivers/rc_timer/rc_timer.c **** void rctimer_DeInit(T_RCTMR_PORT *ps_Timer)
  45:drivers/rc_timer/rc_timer.c **** {
 101              		.loc 1 45 0
 102              		.cfi_startproc
 103              		@ args = 0, pretend = 0, frame = 8
 104              		@ frame_needed = 1, uses_anonymous_args = 0
 105 0000 80B5     		push	{r7, lr}	@
 106              		.cfi_def_cfa_offset 8
 107              		.cfi_offset 7, -8
 108              		.cfi_offset 14, -4
 109 0002 82B0     		sub	sp, sp, #8	@,,
 110              		.cfi_def_cfa_offset 16
 111 0004 00AF     		add	r7, sp, #0	@,,
 112              		.cfi_def_cfa_register 7
 113 0006 7860     		str	r0, [r7, #4]	@ ps_Timer, ps_Timer
  46:drivers/rc_timer/rc_timer.c **** 	TIM_DeInit(ps_Timer);
 114              		.loc 1 46 0
 115 0008 7868     		ldr	r0, [r7, #4]	@, ps_Timer
 116 000a FFF7FEFF 		bl	TIM_DeInit	@
  47:drivers/rc_timer/rc_timer.c **** }
 117              		.loc 1 47 0
 118 000e 0837     		adds	r7, r7, #8	@,,
 119              		.cfi_def_cfa_offset 8
 120 0010 BD46     		mov	sp, r7	@,
 121              		.cfi_def_cfa_register 13
 122              		@ sp needed	@
 123 0012 80BD     		pop	{r7, pc}	@
 124              		.cfi_endproc
ARM GAS  C:\Users\COSMIN~1.MAR\AppData\Local\Temp\ccLX1cSp.s 			page 4


 125              	.LFE56:
 126              		.size	rctimer_DeInit, .-rctimer_DeInit
 127              		.section	.text.rctimer_SetTimerState,"ax",%progbits
 128              		.align	2
 129              		.global	rctimer_SetTimerState
 130              		.thumb
 131              		.thumb_func
 132              		.type	rctimer_SetTimerState, %function
 133              	rctimer_SetTimerState:
 134              	.LFB57:
  48:drivers/rc_timer/rc_timer.c **** 
  49:drivers/rc_timer/rc_timer.c **** /**
  50:drivers/rc_timer/rc_timer.c ****  * \brief 	Configures Timer state.
  51:drivers/rc_timer/rc_timer.c ****  * \param	ps_Timer	Pointer to LPC_TIMx structure
  52:drivers/rc_timer/rc_timer.c ****  * \param	le_State	New timer state
  53:drivers/rc_timer/rc_timer.c ****  * \return	none
  54:drivers/rc_timer/rc_timer.c ****  */
  55:drivers/rc_timer/rc_timer.c **** void rctimer_SetTimerState(T_RCTMR_PORT *ps_Timer, T_E_RC_ENABLE le_State)
  56:drivers/rc_timer/rc_timer.c **** {
 135              		.loc 1 56 0
 136              		.cfi_startproc
 137              		@ args = 0, pretend = 0, frame = 8
 138              		@ frame_needed = 1, uses_anonymous_args = 0
 139 0000 80B5     		push	{r7, lr}	@
 140              		.cfi_def_cfa_offset 8
 141              		.cfi_offset 7, -8
 142              		.cfi_offset 14, -4
 143 0002 82B0     		sub	sp, sp, #8	@,,
 144              		.cfi_def_cfa_offset 16
 145 0004 00AF     		add	r7, sp, #0	@,,
 146              		.cfi_def_cfa_register 7
 147 0006 7860     		str	r0, [r7, #4]	@ ps_Timer, ps_Timer
 148 0008 0B46     		mov	r3, r1	@ tmp110, le_State
 149 000a FB70     		strb	r3, [r7, #3]	@ tmp111, le_State
  57:drivers/rc_timer/rc_timer.c **** 	TIM_Cmd(ps_Timer, le_State);
 150              		.loc 1 57 0
 151 000c FB78     		ldrb	r3, [r7, #3]	@ zero_extendqisi2	@ tmp112, le_State
 152 000e 7868     		ldr	r0, [r7, #4]	@, ps_Timer
 153 0010 1946     		mov	r1, r3	@, tmp112
 154 0012 FFF7FEFF 		bl	TIM_Cmd	@
  58:drivers/rc_timer/rc_timer.c **** }
 155              		.loc 1 58 0
 156 0016 0837     		adds	r7, r7, #8	@,,
 157              		.cfi_def_cfa_offset 8
 158 0018 BD46     		mov	sp, r7	@,
 159              		.cfi_def_cfa_register 13
 160              		@ sp needed	@
 161 001a 80BD     		pop	{r7, pc}	@
 162              		.cfi_endproc
 163              	.LFE57:
 164              		.size	rctimer_SetTimerState, .-rctimer_SetTimerState
 165              		.section	.text.rctimer_GetTimerInterruptStatus,"ax",%progbits
 166              		.align	2
 167              		.global	rctimer_GetTimerInterruptStatus
 168              		.thumb
 169              		.thumb_func
 170              		.type	rctimer_GetTimerInterruptStatus, %function
ARM GAS  C:\Users\COSMIN~1.MAR\AppData\Local\Temp\ccLX1cSp.s 			page 5


 171              	rctimer_GetTimerInterruptStatus:
 172              	.LFB58:
  59:drivers/rc_timer/rc_timer.c **** 
  60:drivers/rc_timer/rc_timer.c **** /**
  61:drivers/rc_timer/rc_timer.c ****  * \brief 	Reads a Timer interrupt state.
  62:drivers/rc_timer/rc_timer.c ****  * \param	ps_Timer	Pointer to LPC_TIMx structure
  63:drivers/rc_timer/rc_timer.c ****  * \param	le_IRQType	Timer interrupt type
  64:drivers/rc_timer/rc_timer.c ****  * \return	State of the interrupt (Or or Off)
  65:drivers/rc_timer/rc_timer.c ****  */
  66:drivers/rc_timer/rc_timer.c **** T_E_RC_SIGNAL_STATE rctimer_GetTimerInterruptStatus(T_RCTMR_PORT *ps_Timer, T_E_RCTMR_IRQTYPE le_IR
  67:drivers/rc_timer/rc_timer.c **** {
 173              		.loc 1 67 0
 174              		.cfi_startproc
 175              		@ args = 0, pretend = 0, frame = 8
 176              		@ frame_needed = 1, uses_anonymous_args = 0
 177 0000 80B5     		push	{r7, lr}	@
 178              		.cfi_def_cfa_offset 8
 179              		.cfi_offset 7, -8
 180              		.cfi_offset 14, -4
 181 0002 82B0     		sub	sp, sp, #8	@,,
 182              		.cfi_def_cfa_offset 16
 183 0004 00AF     		add	r7, sp, #0	@,,
 184              		.cfi_def_cfa_register 7
 185 0006 7860     		str	r0, [r7, #4]	@ ps_Timer, ps_Timer
 186 0008 0B46     		mov	r3, r1	@ tmp112, le_IRQType
 187 000a FB70     		strb	r3, [r7, #3]	@ tmp113, le_IRQType
  68:drivers/rc_timer/rc_timer.c **** 	return (T_E_RC_SIGNAL_STATE)TIM_GetIntStatus(ps_Timer, (T_UBYTE)le_IRQType);
 188              		.loc 1 68 0
 189 000c FB78     		ldrb	r3, [r7, #3]	@ zero_extendqisi2	@ tmp114, le_IRQType
 190 000e 7868     		ldr	r0, [r7, #4]	@, ps_Timer
 191 0010 1946     		mov	r1, r3	@, tmp114
 192 0012 FFF7FEFF 		bl	TIM_GetIntStatus	@
 193 0016 0346     		mov	r3, r0	@ tmp115,
  69:drivers/rc_timer/rc_timer.c **** }
 194              		.loc 1 69 0
 195 0018 1846     		mov	r0, r3	@, <retval>
 196 001a 0837     		adds	r7, r7, #8	@,,
 197              		.cfi_def_cfa_offset 8
 198 001c BD46     		mov	sp, r7	@,
 199              		.cfi_def_cfa_register 13
 200              		@ sp needed	@
 201 001e 80BD     		pop	{r7, pc}	@
 202              		.cfi_endproc
 203              	.LFE58:
 204              		.size	rctimer_GetTimerInterruptStatus, .-rctimer_GetTimerInterruptStatus
 205              		.section	.text.rctimer_GetCaptureInterruptStatus,"ax",%progbits
 206              		.align	2
 207              		.global	rctimer_GetCaptureInterruptStatus
 208              		.thumb
 209              		.thumb_func
 210              		.type	rctimer_GetCaptureInterruptStatus, %function
 211              	rctimer_GetCaptureInterruptStatus:
 212              	.LFB59:
  70:drivers/rc_timer/rc_timer.c **** 
  71:drivers/rc_timer/rc_timer.c **** /**
  72:drivers/rc_timer/rc_timer.c ****  * \brief 	Reads a Timer capture interrupt state.
  73:drivers/rc_timer/rc_timer.c ****  * \param	ps_Timer	Pointer to LPC_TIMx structure
ARM GAS  C:\Users\COSMIN~1.MAR\AppData\Local\Temp\ccLX1cSp.s 			page 6


  74:drivers/rc_timer/rc_timer.c ****  * \param	le_IRQType	Timer interrupt type
  75:drivers/rc_timer/rc_timer.c ****  * \return	State of the interrupt (Or or Off)
  76:drivers/rc_timer/rc_timer.c ****  */
  77:drivers/rc_timer/rc_timer.c **** T_E_RC_SIGNAL_STATE rctimer_GetCaptureInterruptStatus(T_RCTMR_PORT *ps_Timer, T_E_RCTMR_IRQTYPE le_
  78:drivers/rc_timer/rc_timer.c **** {
 213              		.loc 1 78 0
 214              		.cfi_startproc
 215              		@ args = 0, pretend = 0, frame = 8
 216              		@ frame_needed = 1, uses_anonymous_args = 0
 217 0000 80B5     		push	{r7, lr}	@
 218              		.cfi_def_cfa_offset 8
 219              		.cfi_offset 7, -8
 220              		.cfi_offset 14, -4
 221 0002 82B0     		sub	sp, sp, #8	@,,
 222              		.cfi_def_cfa_offset 16
 223 0004 00AF     		add	r7, sp, #0	@,,
 224              		.cfi_def_cfa_register 7
 225 0006 7860     		str	r0, [r7, #4]	@ ps_Timer, ps_Timer
 226 0008 0B46     		mov	r3, r1	@ tmp112, le_IRQType
 227 000a FB70     		strb	r3, [r7, #3]	@ tmp113, le_IRQType
  79:drivers/rc_timer/rc_timer.c **** 	return (T_E_RC_SIGNAL_STATE)TIM_GetIntCaptureStatus(ps_Timer, (T_UBYTE)le_IRQType);
 228              		.loc 1 79 0
 229 000c FB78     		ldrb	r3, [r7, #3]	@ zero_extendqisi2	@ tmp114, le_IRQType
 230 000e 7868     		ldr	r0, [r7, #4]	@, ps_Timer
 231 0010 1946     		mov	r1, r3	@, tmp114
 232 0012 FFF7FEFF 		bl	TIM_GetIntCaptureStatus	@
 233 0016 0346     		mov	r3, r0	@ tmp115,
  80:drivers/rc_timer/rc_timer.c **** }
 234              		.loc 1 80 0
 235 0018 1846     		mov	r0, r3	@, <retval>
 236 001a 0837     		adds	r7, r7, #8	@,,
 237              		.cfi_def_cfa_offset 8
 238 001c BD46     		mov	sp, r7	@,
 239              		.cfi_def_cfa_register 13
 240              		@ sp needed	@
 241 001e 80BD     		pop	{r7, pc}	@
 242              		.cfi_endproc
 243              	.LFE59:
 244              		.size	rctimer_GetCaptureInterruptStatus, .-rctimer_GetCaptureInterruptStatus
 245              		.section	.text.rctimer_ClearTimerInterrupt,"ax",%progbits
 246              		.align	2
 247              		.global	rctimer_ClearTimerInterrupt
 248              		.thumb
 249              		.thumb_func
 250              		.type	rctimer_ClearTimerInterrupt, %function
 251              	rctimer_ClearTimerInterrupt:
 252              	.LFB60:
  81:drivers/rc_timer/rc_timer.c **** 
  82:drivers/rc_timer/rc_timer.c **** /**
  83:drivers/rc_timer/rc_timer.c ****  * \brief 	Clears a timer pending interrupt.
  84:drivers/rc_timer/rc_timer.c ****  * \param	ps_Timer	Pointer to LPC_TIMx structure
  85:drivers/rc_timer/rc_timer.c ****  * \param	le_IRQType	Timer interrupt type
  86:drivers/rc_timer/rc_timer.c ****  * \return	None
  87:drivers/rc_timer/rc_timer.c ****  */
  88:drivers/rc_timer/rc_timer.c **** void rctimer_ClearTimerInterrupt(T_RCTMR_PORT *ps_Timer, T_E_RCTMR_IRQTYPE le_IRQType)
  89:drivers/rc_timer/rc_timer.c **** {
 253              		.loc 1 89 0
ARM GAS  C:\Users\COSMIN~1.MAR\AppData\Local\Temp\ccLX1cSp.s 			page 7


 254              		.cfi_startproc
 255              		@ args = 0, pretend = 0, frame = 8
 256              		@ frame_needed = 1, uses_anonymous_args = 0
 257 0000 80B5     		push	{r7, lr}	@
 258              		.cfi_def_cfa_offset 8
 259              		.cfi_offset 7, -8
 260              		.cfi_offset 14, -4
 261 0002 82B0     		sub	sp, sp, #8	@,,
 262              		.cfi_def_cfa_offset 16
 263 0004 00AF     		add	r7, sp, #0	@,,
 264              		.cfi_def_cfa_register 7
 265 0006 7860     		str	r0, [r7, #4]	@ ps_Timer, ps_Timer
 266 0008 0B46     		mov	r3, r1	@ tmp110, le_IRQType
 267 000a FB70     		strb	r3, [r7, #3]	@ tmp111, le_IRQType
  90:drivers/rc_timer/rc_timer.c **** 	TIM_ClearIntPending(ps_Timer, (T_UBYTE)le_IRQType);
 268              		.loc 1 90 0
 269 000c FB78     		ldrb	r3, [r7, #3]	@ zero_extendqisi2	@ tmp112, le_IRQType
 270 000e 7868     		ldr	r0, [r7, #4]	@, ps_Timer
 271 0010 1946     		mov	r1, r3	@, tmp112
 272 0012 FFF7FEFF 		bl	TIM_ClearIntPending	@
  91:drivers/rc_timer/rc_timer.c **** }
 273              		.loc 1 91 0
 274 0016 0837     		adds	r7, r7, #8	@,,
 275              		.cfi_def_cfa_offset 8
 276 0018 BD46     		mov	sp, r7	@,
 277              		.cfi_def_cfa_register 13
 278              		@ sp needed	@
 279 001a 80BD     		pop	{r7, pc}	@
 280              		.cfi_endproc
 281              	.LFE60:
 282              		.size	rctimer_ClearTimerInterrupt, .-rctimer_ClearTimerInterrupt
 283              		.section	.text.rctimer_ClearCaptureInterrupt,"ax",%progbits
 284              		.align	2
 285              		.global	rctimer_ClearCaptureInterrupt
 286              		.thumb
 287              		.thumb_func
 288              		.type	rctimer_ClearCaptureInterrupt, %function
 289              	rctimer_ClearCaptureInterrupt:
 290              	.LFB61:
  92:drivers/rc_timer/rc_timer.c **** 
  93:drivers/rc_timer/rc_timer.c **** /**
  94:drivers/rc_timer/rc_timer.c ****  * \brief 	Clears a capture pending interrupt.
  95:drivers/rc_timer/rc_timer.c ****  * \param	ps_Timer	Pointer to LPC_TIMx structure
  96:drivers/rc_timer/rc_timer.c ****  * \param	le_IRQType	Timer interrupt type
  97:drivers/rc_timer/rc_timer.c ****  * \return	None
  98:drivers/rc_timer/rc_timer.c ****  */
  99:drivers/rc_timer/rc_timer.c **** void rctimer_ClearCaptureInterrupt(T_RCTMR_PORT *ps_Timer, T_E_RCTMR_IRQTYPE le_IRQType)
 100:drivers/rc_timer/rc_timer.c **** {
 291              		.loc 1 100 0
 292              		.cfi_startproc
 293              		@ args = 0, pretend = 0, frame = 8
 294              		@ frame_needed = 1, uses_anonymous_args = 0
 295 0000 80B5     		push	{r7, lr}	@
 296              		.cfi_def_cfa_offset 8
 297              		.cfi_offset 7, -8
 298              		.cfi_offset 14, -4
 299 0002 82B0     		sub	sp, sp, #8	@,,
ARM GAS  C:\Users\COSMIN~1.MAR\AppData\Local\Temp\ccLX1cSp.s 			page 8


 300              		.cfi_def_cfa_offset 16
 301 0004 00AF     		add	r7, sp, #0	@,,
 302              		.cfi_def_cfa_register 7
 303 0006 7860     		str	r0, [r7, #4]	@ ps_Timer, ps_Timer
 304 0008 0B46     		mov	r3, r1	@ tmp110, le_IRQType
 305 000a FB70     		strb	r3, [r7, #3]	@ tmp111, le_IRQType
 101:drivers/rc_timer/rc_timer.c **** 	TIM_ClearIntCapturePending(ps_Timer, (T_UBYTE)le_IRQType);
 306              		.loc 1 101 0
 307 000c FB78     		ldrb	r3, [r7, #3]	@ zero_extendqisi2	@ tmp112, le_IRQType
 308 000e 7868     		ldr	r0, [r7, #4]	@, ps_Timer
 309 0010 1946     		mov	r1, r3	@, tmp112
 310 0012 FFF7FEFF 		bl	TIM_ClearIntCapturePending	@
 102:drivers/rc_timer/rc_timer.c **** }
 311              		.loc 1 102 0
 312 0016 0837     		adds	r7, r7, #8	@,,
 313              		.cfi_def_cfa_offset 8
 314 0018 BD46     		mov	sp, r7	@,
 315              		.cfi_def_cfa_register 13
 316              		@ sp needed	@
 317 001a 80BD     		pop	{r7, pc}	@
 318              		.cfi_endproc
 319              	.LFE61:
 320              		.size	rctimer_ClearCaptureInterrupt, .-rctimer_ClearCaptureInterrupt
 321              		.section	.text.rctimer_InitConfig,"ax",%progbits
 322              		.align	2
 323              		.global	rctimer_InitConfig
 324              		.thumb
 325              		.thumb_func
 326              		.type	rctimer_InitConfig, %function
 327              	rctimer_InitConfig:
 328              	.LFB62:
 103:drivers/rc_timer/rc_timer.c **** 
 104:drivers/rc_timer/rc_timer.c **** /**
 105:drivers/rc_timer/rc_timer.c ****  * \brief 	Initialize timer configuration structure.
 106:drivers/rc_timer/rc_timer.c ****  * \param	le_Prescale	Prescale option
 107:drivers/rc_timer/rc_timer.c ****  * \param	pvs_Config	Pointer to configuration structure
 108:drivers/rc_timer/rc_timer.c ****  * \return	None
 109:drivers/rc_timer/rc_timer.c ****  */
 110:drivers/rc_timer/rc_timer.c **** void rctimer_InitConfig(T_E_RCTMR_PRESCALE_OPT le_Prescale, void *pvs_Config)
 111:drivers/rc_timer/rc_timer.c **** {
 329              		.loc 1 111 0
 330              		.cfi_startproc
 331              		@ args = 0, pretend = 0, frame = 8
 332              		@ frame_needed = 1, uses_anonymous_args = 0
 333 0000 80B5     		push	{r7, lr}	@
 334              		.cfi_def_cfa_offset 8
 335              		.cfi_offset 7, -8
 336              		.cfi_offset 14, -4
 337 0002 82B0     		sub	sp, sp, #8	@,,
 338              		.cfi_def_cfa_offset 16
 339 0004 00AF     		add	r7, sp, #0	@,,
 340              		.cfi_def_cfa_register 7
 341 0006 0346     		mov	r3, r0	@ tmp110, le_Prescale
 342 0008 3960     		str	r1, [r7]	@ pvs_Config, pvs_Config
 343 000a FB71     		strb	r3, [r7, #7]	@ tmp111, le_Prescale
 112:drivers/rc_timer/rc_timer.c **** 	TIM_ConfigStructInit(le_Prescale, pvs_Config);
 344              		.loc 1 112 0
ARM GAS  C:\Users\COSMIN~1.MAR\AppData\Local\Temp\ccLX1cSp.s 			page 9


 345 000c FB79     		ldrb	r3, [r7, #7]	@ zero_extendqisi2	@ tmp112, le_Prescale
 346 000e 1846     		mov	r0, r3	@, tmp112
 347 0010 3968     		ldr	r1, [r7]	@, pvs_Config
 348 0012 FFF7FEFF 		bl	TIM_ConfigStructInit	@
 113:drivers/rc_timer/rc_timer.c **** }
 349              		.loc 1 113 0
 350 0016 0837     		adds	r7, r7, #8	@,,
 351              		.cfi_def_cfa_offset 8
 352 0018 BD46     		mov	sp, r7	@,
 353              		.cfi_def_cfa_register 13
 354              		@ sp needed	@
 355 001a 80BD     		pop	{r7, pc}	@
 356              		.cfi_endproc
 357              	.LFE62:
 358              		.size	rctimer_InitConfig, .-rctimer_InitConfig
 359              		.section	.text.rctimer_ResetCounter,"ax",%progbits
 360              		.align	2
 361              		.global	rctimer_ResetCounter
 362              		.thumb
 363              		.thumb_func
 364              		.type	rctimer_ResetCounter, %function
 365              	rctimer_ResetCounter:
 366              	.LFB63:
 114:drivers/rc_timer/rc_timer.c **** 
 115:drivers/rc_timer/rc_timer.c **** /**
 116:drivers/rc_timer/rc_timer.c ****  * \brief 	Reset timer counter.
 117:drivers/rc_timer/rc_timer.c ****  * \param	ps_Timer Pointer to LPC_TIMx structure
 118:drivers/rc_timer/rc_timer.c ****  * \return	None
 119:drivers/rc_timer/rc_timer.c ****  */
 120:drivers/rc_timer/rc_timer.c **** void rctimer_ResetCounter(T_RCTMR_PORT *ps_Timer)
 121:drivers/rc_timer/rc_timer.c **** {
 367              		.loc 1 121 0
 368              		.cfi_startproc
 369              		@ args = 0, pretend = 0, frame = 8
 370              		@ frame_needed = 1, uses_anonymous_args = 0
 371 0000 80B5     		push	{r7, lr}	@
 372              		.cfi_def_cfa_offset 8
 373              		.cfi_offset 7, -8
 374              		.cfi_offset 14, -4
 375 0002 82B0     		sub	sp, sp, #8	@,,
 376              		.cfi_def_cfa_offset 16
 377 0004 00AF     		add	r7, sp, #0	@,,
 378              		.cfi_def_cfa_register 7
 379 0006 7860     		str	r0, [r7, #4]	@ ps_Timer, ps_Timer
 122:drivers/rc_timer/rc_timer.c **** 	TIM_ResetCounter(ps_Timer);
 380              		.loc 1 122 0
 381 0008 7868     		ldr	r0, [r7, #4]	@, ps_Timer
 382 000a FFF7FEFF 		bl	TIM_ResetCounter	@
 123:drivers/rc_timer/rc_timer.c **** }
 383              		.loc 1 123 0
 384 000e 0837     		adds	r7, r7, #8	@,,
 385              		.cfi_def_cfa_offset 8
 386 0010 BD46     		mov	sp, r7	@,
 387              		.cfi_def_cfa_register 13
 388              		@ sp needed	@
 389 0012 80BD     		pop	{r7, pc}	@
 390              		.cfi_endproc
ARM GAS  C:\Users\COSMIN~1.MAR\AppData\Local\Temp\ccLX1cSp.s 			page 10


 391              	.LFE63:
 392              		.size	rctimer_ResetCounter, .-rctimer_ResetCounter
 393              		.section	.text.rctimer_ConfigMatch,"ax",%progbits
 394              		.align	2
 395              		.global	rctimer_ConfigMatch
 396              		.thumb
 397              		.thumb_func
 398              		.type	rctimer_ConfigMatch, %function
 399              	rctimer_ConfigMatch:
 400              	.LFB64:
 124:drivers/rc_timer/rc_timer.c **** 
 125:drivers/rc_timer/rc_timer.c **** /**
 126:drivers/rc_timer/rc_timer.c ****  * \brief 	Configures timer match.
 127:drivers/rc_timer/rc_timer.c ****  * \param	ps_Timer Pointer to LPC_TIMx structure
 128:drivers/rc_timer/rc_timer.c ****  * \param	ls_MatchConfig	Match configuration structure
 129:drivers/rc_timer/rc_timer.c ****  * \return	None
 130:drivers/rc_timer/rc_timer.c ****  */
 131:drivers/rc_timer/rc_timer.c **** void rctimer_ConfigMatch(T_RCTMR_PORT *ps_Timer, T_RCTMR_MATCH_CONFIG ls_MatchConfig)
 132:drivers/rc_timer/rc_timer.c **** {
 401              		.loc 1 132 0
 402              		.cfi_startproc
 403              		@ args = 0, pretend = 0, frame = 32
 404              		@ frame_needed = 1, uses_anonymous_args = 0
 405 0000 80B5     		push	{r7, lr}	@
 406              		.cfi_def_cfa_offset 8
 407              		.cfi_offset 7, -8
 408              		.cfi_offset 14, -4
 409 0002 88B0     		sub	sp, sp, #32	@,,
 410              		.cfi_def_cfa_offset 40
 411 0004 00AF     		add	r7, sp, #0	@,,
 412              		.cfi_def_cfa_register 7
 413 0006 F860     		str	r0, [r7, #12]	@ ps_Timer, ps_Timer
 414 0008 3846     		mov	r0, r7	@ tmp116,
 415 000a 80E80E00 		stmia	r0, {r1, r2, r3}	@ tmp116,,,
 133:drivers/rc_timer/rc_timer.c **** 	TIM_MATCHCFG_Type TMR_MatchConfig[1u];
 134:drivers/rc_timer/rc_timer.c **** 
 135:drivers/rc_timer/rc_timer.c **** 	/* Fill Timer match config structure */
 136:drivers/rc_timer/rc_timer.c **** 	TMR_MatchConfig[0u].MatchChannel = ls_MatchConfig.e_MatchChannel;
 416              		.loc 1 136 0
 417 000e 3B78     		ldrb	r3, [r7]	@ zero_extendqisi2	@ D.5625, ls_MatchConfig.e_MatchChannel
 418 0010 3B75     		strb	r3, [r7, #20]	@ tmp117, TMR_MatchConfig[0].MatchChannel
 137:drivers/rc_timer/rc_timer.c **** 	TMR_MatchConfig[0u].IntOnMatch = ls_MatchConfig.e_IRQOnMatch;
 419              		.loc 1 137 0
 420 0012 7B78     		ldrb	r3, [r7, #1]	@ zero_extendqisi2	@ D.5626, ls_MatchConfig.e_IRQOnMatch
 421 0014 7B75     		strb	r3, [r7, #21]	@ tmp118, TMR_MatchConfig[0].IntOnMatch
 138:drivers/rc_timer/rc_timer.c **** 	TMR_MatchConfig[0u].StopOnMatch = ls_MatchConfig.e_StopOnMatch;
 422              		.loc 1 138 0
 423 0016 BB78     		ldrb	r3, [r7, #2]	@ zero_extendqisi2	@ D.5626, ls_MatchConfig.e_StopOnMatch
 424 0018 BB75     		strb	r3, [r7, #22]	@ tmp119, TMR_MatchConfig[0].StopOnMatch
 139:drivers/rc_timer/rc_timer.c **** 	TMR_MatchConfig[0u].ResetOnMatch = ls_MatchConfig.e_StopOnMatch;
 425              		.loc 1 139 0
 426 001a BB78     		ldrb	r3, [r7, #2]	@ zero_extendqisi2	@ D.5626, ls_MatchConfig.e_StopOnMatch
 427 001c FB75     		strb	r3, [r7, #23]	@ tmp120, TMR_MatchConfig[0].ResetOnMatch
 140:drivers/rc_timer/rc_timer.c **** 	TMR_MatchConfig[0u].ExtMatchOutputType = ls_MatchConfig.e_ExtMatch;
 428              		.loc 1 140 0
 429 001e 3B79     		ldrb	r3, [r7, #4]	@ zero_extendqisi2	@ D.5627, ls_MatchConfig.e_ExtMatch
 430 0020 3B76     		strb	r3, [r7, #24]	@ tmp121, TMR_MatchConfig[0].ExtMatchOutputType
ARM GAS  C:\Users\COSMIN~1.MAR\AppData\Local\Temp\ccLX1cSp.s 			page 11


 141:drivers/rc_timer/rc_timer.c **** 	TMR_MatchConfig[0u].MatchValue = ls_MatchConfig.ul_MatchValue;
 431              		.loc 1 141 0
 432 0022 BB68     		ldr	r3, [r7, #8]	@ D.5628, ls_MatchConfig.ul_MatchValue
 433 0024 FB61     		str	r3, [r7, #28]	@ D.5628, TMR_MatchConfig[0].MatchValue
 142:drivers/rc_timer/rc_timer.c **** 
 143:drivers/rc_timer/rc_timer.c **** 	TIM_ConfigMatch(ps_Timer, TMR_MatchConfig);
 434              		.loc 1 143 0
 435 0026 07F11403 		add	r3, r7, #20	@ tmp122,,
 436 002a F868     		ldr	r0, [r7, #12]	@, ps_Timer
 437 002c 1946     		mov	r1, r3	@, tmp122
 438 002e FFF7FEFF 		bl	TIM_ConfigMatch	@
 144:drivers/rc_timer/rc_timer.c **** }
 439              		.loc 1 144 0
 440 0032 2037     		adds	r7, r7, #32	@,,
 441              		.cfi_def_cfa_offset 8
 442 0034 BD46     		mov	sp, r7	@,
 443              		.cfi_def_cfa_register 13
 444              		@ sp needed	@
 445 0036 80BD     		pop	{r7, pc}	@
 446              		.cfi_endproc
 447              	.LFE64:
 448              		.size	rctimer_ConfigMatch, .-rctimer_ConfigMatch
 449              		.section	.text.rctimer_ConfigCapture,"ax",%progbits
 450              		.align	2
 451              		.global	rctimer_ConfigCapture
 452              		.thumb
 453              		.thumb_func
 454              		.type	rctimer_ConfigCapture, %function
 455              	rctimer_ConfigCapture:
 456              	.LFB65:
 145:drivers/rc_timer/rc_timer.c **** 
 146:drivers/rc_timer/rc_timer.c **** /**
 147:drivers/rc_timer/rc_timer.c ****  * \brief 	Configures timer capture.
 148:drivers/rc_timer/rc_timer.c ****  * \param	ps_Timer Pointer to LPC_TIMx structure
 149:drivers/rc_timer/rc_timer.c ****  * \param	ls_CaptureConfig Capture configuration structure
 150:drivers/rc_timer/rc_timer.c ****  * \return	None
 151:drivers/rc_timer/rc_timer.c ****  */
 152:drivers/rc_timer/rc_timer.c **** void rctimer_ConfigCapture(T_RCTMR_PORT *ps_Timer, T_RCTMR_CAPTURE_CONFIG ls_CaptureConfig)
 153:drivers/rc_timer/rc_timer.c **** {
 457              		.loc 1 153 0
 458              		.cfi_startproc
 459              		@ args = 0, pretend = 0, frame = 16
 460              		@ frame_needed = 1, uses_anonymous_args = 0
 461 0000 80B5     		push	{r7, lr}	@
 462              		.cfi_def_cfa_offset 8
 463              		.cfi_offset 7, -8
 464              		.cfi_offset 14, -4
 465 0002 84B0     		sub	sp, sp, #16	@,,
 466              		.cfi_def_cfa_offset 24
 467 0004 00AF     		add	r7, sp, #0	@,,
 468              		.cfi_def_cfa_register 7
 469 0006 7860     		str	r0, [r7, #4]	@ ps_Timer, ps_Timer
 470 0008 3960     		str	r1, [r7]	@,
 154:drivers/rc_timer/rc_timer.c **** 	TIM_CAPTURECFG_Type TMR_CaptureConfig[1u];
 155:drivers/rc_timer/rc_timer.c **** 
 156:drivers/rc_timer/rc_timer.c **** 	/* Fill Timer capture config structure */
 157:drivers/rc_timer/rc_timer.c **** 	TMR_CaptureConfig[0u].CaptureChannel = ls_CaptureConfig.e_CaptureChannel;
ARM GAS  C:\Users\COSMIN~1.MAR\AppData\Local\Temp\ccLX1cSp.s 			page 12


 471              		.loc 1 157 0
 472 000a 3B78     		ldrb	r3, [r7]	@ zero_extendqisi2	@ D.5629, ls_CaptureConfig.e_CaptureChannel
 473 000c 3B73     		strb	r3, [r7, #12]	@ tmp114, TMR_CaptureConfig[0].CaptureChannel
 158:drivers/rc_timer/rc_timer.c **** 	TMR_CaptureConfig[0u].IntOnCaption = ls_CaptureConfig.e_IRQOnCaption;
 474              		.loc 1 158 0
 475 000e FB78     		ldrb	r3, [r7, #3]	@ zero_extendqisi2	@ D.5630, ls_CaptureConfig.e_IRQOnCaption
 476 0010 FB73     		strb	r3, [r7, #15]	@ tmp115, TMR_CaptureConfig[0].IntOnCaption
 159:drivers/rc_timer/rc_timer.c **** 	TMR_CaptureConfig[0u].FallingEdge = ls_CaptureConfig.e_FallingEdge;
 477              		.loc 1 159 0
 478 0012 BB78     		ldrb	r3, [r7, #2]	@ zero_extendqisi2	@ D.5630, ls_CaptureConfig.e_FallingEdge
 479 0014 BB73     		strb	r3, [r7, #14]	@ tmp116, TMR_CaptureConfig[0].FallingEdge
 160:drivers/rc_timer/rc_timer.c **** 	TMR_CaptureConfig[0u].RisingEdge = ls_CaptureConfig.e_RisingEdge;
 480              		.loc 1 160 0
 481 0016 7B78     		ldrb	r3, [r7, #1]	@ zero_extendqisi2	@ D.5630, ls_CaptureConfig.e_RisingEdge
 482 0018 7B73     		strb	r3, [r7, #13]	@ tmp117, TMR_CaptureConfig[0].RisingEdge
 161:drivers/rc_timer/rc_timer.c **** 
 162:drivers/rc_timer/rc_timer.c **** 	TIM_ConfigCapture(ps_Timer, TMR_CaptureConfig);
 483              		.loc 1 162 0
 484 001a 07F10C03 		add	r3, r7, #12	@ tmp118,,
 485 001e 7868     		ldr	r0, [r7, #4]	@, ps_Timer
 486 0020 1946     		mov	r1, r3	@, tmp118
 487 0022 FFF7FEFF 		bl	TIM_ConfigCapture	@
 163:drivers/rc_timer/rc_timer.c **** }
 488              		.loc 1 163 0
 489 0026 1037     		adds	r7, r7, #16	@,,
 490              		.cfi_def_cfa_offset 8
 491 0028 BD46     		mov	sp, r7	@,
 492              		.cfi_def_cfa_register 13
 493              		@ sp needed	@
 494 002a 80BD     		pop	{r7, pc}	@
 495              		.cfi_endproc
 496              	.LFE65:
 497              		.size	rctimer_ConfigCapture, .-rctimer_ConfigCapture
 498              		.section	.text.rctimer_GetCaptureValue,"ax",%progbits
 499              		.align	2
 500              		.global	rctimer_GetCaptureValue
 501              		.thumb
 502              		.thumb_func
 503              		.type	rctimer_GetCaptureValue, %function
 504              	rctimer_GetCaptureValue:
 505              	.LFB66:
 164:drivers/rc_timer/rc_timer.c **** 
 165:drivers/rc_timer/rc_timer.c **** /**
 166:drivers/rc_timer/rc_timer.c ****  * \brief 	Gets current capture value.
 167:drivers/rc_timer/rc_timer.c ****  * \param	ps_Timer Pointer to LPC_TIMx structure
 168:drivers/rc_timer/rc_timer.c ****  * \param	le_CaptureChannel Timer capture channel to be read
 169:drivers/rc_timer/rc_timer.c ****  * \return	None
 170:drivers/rc_timer/rc_timer.c ****  */
 171:drivers/rc_timer/rc_timer.c **** T_ULONG rctimer_GetCaptureValue(T_RCTMR_PORT *ps_Timer, T_E_RCTMR_CAPTURE le_CaptureChannel)
 172:drivers/rc_timer/rc_timer.c **** {
 506              		.loc 1 172 0
 507              		.cfi_startproc
 508              		@ args = 0, pretend = 0, frame = 8
 509              		@ frame_needed = 1, uses_anonymous_args = 0
 510 0000 80B5     		push	{r7, lr}	@
 511              		.cfi_def_cfa_offset 8
 512              		.cfi_offset 7, -8
ARM GAS  C:\Users\COSMIN~1.MAR\AppData\Local\Temp\ccLX1cSp.s 			page 13


 513              		.cfi_offset 14, -4
 514 0002 82B0     		sub	sp, sp, #8	@,,
 515              		.cfi_def_cfa_offset 16
 516 0004 00AF     		add	r7, sp, #0	@,,
 517              		.cfi_def_cfa_register 7
 518 0006 7860     		str	r0, [r7, #4]	@ ps_Timer, ps_Timer
 519 0008 0B46     		mov	r3, r1	@ tmp112, le_CaptureChannel
 520 000a FB70     		strb	r3, [r7, #3]	@ tmp113, le_CaptureChannel
 173:drivers/rc_timer/rc_timer.c **** 	return TIM_GetCaptureValue(ps_Timer, le_CaptureChannel);
 521              		.loc 1 173 0
 522 000c FB78     		ldrb	r3, [r7, #3]	@ zero_extendqisi2	@ tmp114, le_CaptureChannel
 523 000e 7868     		ldr	r0, [r7, #4]	@, ps_Timer
 524 0010 1946     		mov	r1, r3	@, tmp114
 525 0012 FFF7FEFF 		bl	TIM_GetCaptureValue	@
 526 0016 0346     		mov	r3, r0	@ D.5631,
 174:drivers/rc_timer/rc_timer.c **** }
 527              		.loc 1 174 0
 528 0018 1846     		mov	r0, r3	@, <retval>
 529 001a 0837     		adds	r7, r7, #8	@,,
 530              		.cfi_def_cfa_offset 8
 531 001c BD46     		mov	sp, r7	@,
 532              		.cfi_def_cfa_register 13
 533              		@ sp needed	@
 534 001e 80BD     		pop	{r7, pc}	@
 535              		.cfi_endproc
 536              	.LFE66:
 537              		.size	rctimer_GetCaptureValue, .-rctimer_GetCaptureValue
 538              		.text
 539              	.Letext0:
 540              		.file 2 "c:\\gnu tools arm embedded\\4.9 2015q1\\arm-none-eabi\\include\\machine\\_default_types.h
 541              		.file 3 "c:\\gnu tools arm embedded\\4.9 2015q1\\arm-none-eabi\\include\\stdint.h"
 542              		.file 4 "system/LPC17xx.h"
 543              		.file 5 "config/rc_stdtypedefs.h"
 544              		.file 6 "drivers/rc_timer/rc_timer.h"
 545              		.file 7 "core/lpc17xx_timer.h"
 546              		.file 8 "system/core_cm3.h"