ARM GAS  C:\Users\STUDENT\AppData\Local\Temp\ccseTdqC.s 			page 1


   1              		.syntax unified
   2              		.cpu cortex-m3
   3              		.fpu softvfp
   4              		.eabi_attribute 20, 1	@ Tag_ABI_FP_denormal
   5              		.eabi_attribute 21, 1	@ Tag_ABI_FP_exceptions
   6              		.eabi_attribute 23, 3	@ Tag_ABI_FP_number_model
   7              		.eabi_attribute 24, 1	@ Tag_ABI_align8_needed
   8              		.eabi_attribute 25, 1	@ Tag_ABI_align8_preserved
   9              		.eabi_attribute 26, 1	@ Tag_ABI_enum_size
  10              		.eabi_attribute 30, 6	@ Tag_ABI_optimization_goals
  11              		.eabi_attribute 34, 1	@ Tag_CPU_unaligned_access
  12              		.eabi_attribute 18, 4	@ Tag_ABI_PCS_wchar_t
  13              		.file	"rc_uart.c"
  14              	@ GNU C89 (GNU Tools for ARM Embedded Processors) version 5.4.1 20160919 (release) [ARM/embedded-5-
  15              	@	compiled by GNU C version 4.7.4, GMP version 4.3.2, MPFR version 2.4.2, MPC version 0.8.1
  16              	@ GGC heuristics: --param ggc-min-expand=100 --param ggc-min-heapsize=131072
  17              	@ options passed:  -I . -I config -I system -I core -I drivers -I FreeRTOS
  18              	@ -I FreeRTOS/include -I FreeRTOS/portable/GCC/ARM_CM3 -I FreeRTOS/portable
  19              	@ -I tasks/rc_task_leds -I modules/rc_leds -I drivers/rc_system
  20              	@ -I drivers/rc_gpio -I drivers/rc_uart -I drivers/rc_pinsel
  21              	@ -I drivers/rc_timer -I drivers/rc_adc -imultilib armv7-m
  22              	@ -iprefix c:\program files (x86)\gnu tools arm embedded\5.4 2016q3\bin\../lib/gcc/arm-none-eabi/5.
  23              	@ -isysroot c:\program files (x86)\gnu tools arm embedded\5.4 2016q3\bin\../arm-none-eabi
  24              	@ -MD out/rc_uart.d -MF out/rc_uart.d -MP -MQ out/rc_uart.o
  25              	@ -D__USES_INITFINI__ drivers/rc_uart/rc_uart.c -mcpu=cortex-m3 -mthumb
  26              	@ -auxbase-strip out/rc_uart.o -g -ggdb3 -O0 -Wall -Wstrict-prototypes
  27              	@ -Wextra -std=gnu90 -ffunction-sections -fdata-sections -fverbose-asm
  28              	@ options enabled:  -faggressive-loop-optimizations -fauto-inc-dec
  29              	@ -fchkp-check-incomplete-type -fchkp-check-read -fchkp-check-write
  30              	@ -fchkp-instrument-calls -fchkp-narrow-bounds -fchkp-optimize
  31              	@ -fchkp-store-bounds -fchkp-use-static-bounds
  32              	@ -fchkp-use-static-const-bounds -fchkp-use-wrappers -fcommon
  33              	@ -fdata-sections -fdelete-null-pointer-checks -fdwarf2-cfi-asm
  34              	@ -fearly-inlining -feliminate-unused-debug-types -ffunction-cse
  35              	@ -ffunction-sections -fgcse-lm -fgnu-runtime -fgnu-unique -fident
  36              	@ -finline-atomics -fira-hoist-pressure -fira-share-save-slots
  37              	@ -fira-share-spill-slots -fivopts -fkeep-static-consts
  38              	@ -fleading-underscore -flifetime-dse -flto-odr-type-merging -fmath-errno
  39              	@ -fmerge-debug-strings -fpeephole -fprefetch-loop-arrays
  40              	@ -freg-struct-return -fsched-critical-path-heuristic
  41              	@ -fsched-dep-count-heuristic -fsched-group-heuristic -fsched-interblock
  42              	@ -fsched-last-insn-heuristic -fsched-rank-heuristic -fsched-spec
  43              	@ -fsched-spec-insn-heuristic -fsched-stalled-insns-dep
  44              	@ -fsemantic-interposition -fshow-column -fsigned-zeros
  45              	@ -fsplit-ivs-in-unroller -fstdarg-opt -fstrict-volatile-bitfields
  46              	@ -fsync-libcalls -ftrapping-math -ftree-coalesce-vars -ftree-cselim
  47              	@ -ftree-forwprop -ftree-loop-if-convert -ftree-loop-im -ftree-loop-ivcanon
  48              	@ -ftree-loop-optimize -ftree-parallelize-loops= -ftree-phiprop
  49              	@ -ftree-reassoc -ftree-scev-cprop -funit-at-a-time -fverbose-asm
  50              	@ -fzero-initialized-in-bss -masm-syntax-unified -mfix-cortex-m3-ldrd
  51              	@ -mlittle-endian -mpic-data-is-text-relative -msched-prolog -mthumb
  52              	@ -munaligned-access -mvectorize-with-neon-quad
  53              	
  54              		.text
  55              	.Ltext0:
  56              		.cfi_sections	.debug_frame
  57              		.section	.text.rcuart_Init,"ax",%progbits
ARM GAS  C:\Users\STUDENT\AppData\Local\Temp\ccseTdqC.s 			page 2


  58              		.align	2
  59              		.global	rcuart_Init
  60              		.thumb
  61              		.thumb_func
  62              		.type	rcuart_Init, %function
  63              	rcuart_Init:
  64              	.LFB55:
  65              		.file 1 "drivers/rc_uart/rc_uart.c"
   1:drivers/rc_uart/rc_uart.c **** /**
   2:drivers/rc_uart/rc_uart.c ****  * \file	rc_uart.c
   3:drivers/rc_uart/rc_uart.c ****  * \brief	Implements the interface functions with the UART peripheral
   4:drivers/rc_uart/rc_uart.c ****  * \details	Implements the functions which communicate directly with the
   5:drivers/rc_uart/rc_uart.c ****  * 			LPC17xx UART peripheral
   6:drivers/rc_uart/rc_uart.c ****  * \author	Cosmin Marcu
   7:drivers/rc_uart/rc_uart.c ****  * \date	29.05.2015
   8:drivers/rc_uart/rc_uart.c ****  * \version 1.0.1
   9:drivers/rc_uart/rc_uart.c ****  */
  10:drivers/rc_uart/rc_uart.c **** 
  11:drivers/rc_uart/rc_uart.c **** /* Includes */
  12:drivers/rc_uart/rc_uart.c **** #include "rc_uart.h"
  13:drivers/rc_uart/rc_uart.c **** 
  14:drivers/rc_uart/rc_uart.c **** /* Begin functions implementation */
  15:drivers/rc_uart/rc_uart.c **** 
  16:drivers/rc_uart/rc_uart.c **** /** \defgroup rc_uart  UART driver
  17:drivers/rc_uart/rc_uart.c ****   Contains the functions to set the pins attributes
  18:drivers/rc_uart/rc_uart.c **** */
  19:drivers/rc_uart/rc_uart.c **** 
  20:drivers/rc_uart/rc_uart.c **** /**
  21:drivers/rc_uart/rc_uart.c ****  * \ingroup  rc_uart
  22:drivers/rc_uart/rc_uart.c ****  * \defgroup uart_functions UART Functions
  23:drivers/rc_uart/rc_uart.c ****  *  Functions definitions for the UART setup
  24:drivers/rc_uart/rc_uart.c ****  *  @{
  25:drivers/rc_uart/rc_uart.c ****  */
  26:drivers/rc_uart/rc_uart.c **** 
  27:drivers/rc_uart/rc_uart.c **** /* UART Functions Group: */
  28:drivers/rc_uart/rc_uart.c **** /**
  29:drivers/rc_uart/rc_uart.c ****  * \brief 	Initializes UART.
  30:drivers/rc_uart/rc_uart.c ****  * \param	ps_Port		Pointer to LPC_UARTx port structure
  31:drivers/rc_uart/rc_uart.c ****  * \param	ls_Config	UART config structure
  32:drivers/rc_uart/rc_uart.c ****  * \return	none
  33:drivers/rc_uart/rc_uart.c ****  */
  34:drivers/rc_uart/rc_uart.c **** void rcuart_Init(T_RCUART_PORT *ps_Port, T_RCUART_CONFIG ls_Config)
  35:drivers/rc_uart/rc_uart.c **** {
  66              		.loc 1 35 0
  67              		.cfi_startproc
  68              		@ args = 0, pretend = 0, frame = 24
  69              		@ frame_needed = 1, uses_anonymous_args = 0
  70 0000 80B5     		push	{r7, lr}	@
  71              		.cfi_def_cfa_offset 8
  72              		.cfi_offset 7, -8
  73              		.cfi_offset 14, -4
  74 0002 86B0     		sub	sp, sp, #24	@,,
  75              		.cfi_def_cfa_offset 32
  76 0004 00AF     		add	r7, sp, #0	@,,
  77              		.cfi_def_cfa_register 7
  78 0006 F860     		str	r0, [r7, #12]	@ ps_Port, ps_Port
  79 0008 3B1D     		adds	r3, r7, #4	@ tmp114,,
ARM GAS  C:\Users\STUDENT\AppData\Local\Temp\ccseTdqC.s 			page 3


  80 000a 83E80600 		stmia	r3, {r1, r2}	@ tmp114,,
  36:drivers/rc_uart/rc_uart.c **** 	UART_CFG_Type UART_ConfigStruct[1u];
  37:drivers/rc_uart/rc_uart.c **** 	/* Fill UART config structure */
  38:drivers/rc_uart/rc_uart.c **** 	UART_ConfigStruct[0].Baud_rate = ls_Config.ul_Baudrate;
  81              		.loc 1 38 0
  82 000e 7B68     		ldr	r3, [r7, #4]	@ D.5814, ls_Config.ul_Baudrate
  83 0010 3B61     		str	r3, [r7, #16]	@ D.5814, UART_ConfigStruct[0].Baud_rate
  39:drivers/rc_uart/rc_uart.c **** 	UART_ConfigStruct[0].Databits = ls_Config.e_Databit;
  84              		.loc 1 39 0
  85 0012 7B7A     		ldrb	r3, [r7, #9]	@ zero_extendqisi2	@ D.5815, ls_Config.e_Databit
  86 0014 7B75     		strb	r3, [r7, #21]	@ tmp115, UART_ConfigStruct[0].Databits
  40:drivers/rc_uart/rc_uart.c **** 	UART_ConfigStruct[0].Parity = ls_Config.e_Parity;
  87              		.loc 1 40 0
  88 0016 3B7A     		ldrb	r3, [r7, #8]	@ zero_extendqisi2	@ D.5816, ls_Config.e_Parity
  89 0018 3B75     		strb	r3, [r7, #20]	@ tmp116, UART_ConfigStruct[0].Parity
  41:drivers/rc_uart/rc_uart.c **** 	UART_ConfigStruct[0].Stopbits = ls_Config.e_Stopbit;
  90              		.loc 1 41 0
  91 001a BB7A     		ldrb	r3, [r7, #10]	@ zero_extendqisi2	@ D.5817, ls_Config.e_Stopbit
  92 001c BB75     		strb	r3, [r7, #22]	@ tmp117, UART_ConfigStruct[0].Stopbits
  42:drivers/rc_uart/rc_uart.c **** 	/* Call driver initializer */
  43:drivers/rc_uart/rc_uart.c **** 	UART_Init(ps_Port, UART_ConfigStruct);
  93              		.loc 1 43 0
  94 001e 07F11003 		add	r3, r7, #16	@ tmp118,,
  95 0022 1946     		mov	r1, r3	@, tmp118
  96 0024 F868     		ldr	r0, [r7, #12]	@, ps_Port
  97 0026 FFF7FEFF 		bl	UART_Init	@
  44:drivers/rc_uart/rc_uart.c **** }
  98              		.loc 1 44 0
  99 002a 00BF     		nop
 100 002c 1837     		adds	r7, r7, #24	@,,
 101              		.cfi_def_cfa_offset 8
 102 002e BD46     		mov	sp, r7	@,
 103              		.cfi_def_cfa_register 13
 104              		@ sp needed	@
 105 0030 80BD     		pop	{r7, pc}	@
 106              		.cfi_endproc
 107              	.LFE55:
 108              		.size	rcuart_Init, .-rcuart_Init
 109 0032 00BF     		.section	.text.rcuart_DeInit,"ax",%progbits
 110              		.align	2
 111              		.global	rcuart_DeInit
 112              		.thumb
 113              		.thumb_func
 114              		.type	rcuart_DeInit, %function
 115              	rcuart_DeInit:
 116              	.LFB56:
  45:drivers/rc_uart/rc_uart.c **** 
  46:drivers/rc_uart/rc_uart.c **** /**
  47:drivers/rc_uart/rc_uart.c ****  * \brief 	De-Initializes UART.
  48:drivers/rc_uart/rc_uart.c ****  * \param	ps_Port	Pointer to LPC_UARTx port structure
  49:drivers/rc_uart/rc_uart.c ****  * \return	none
  50:drivers/rc_uart/rc_uart.c ****  */
  51:drivers/rc_uart/rc_uart.c **** void rcuart_DeInit(T_RCUART_PORT *ps_Port)
  52:drivers/rc_uart/rc_uart.c **** {
 117              		.loc 1 52 0
 118              		.cfi_startproc
 119              		@ args = 0, pretend = 0, frame = 8
ARM GAS  C:\Users\STUDENT\AppData\Local\Temp\ccseTdqC.s 			page 4


 120              		@ frame_needed = 1, uses_anonymous_args = 0
 121 0000 80B5     		push	{r7, lr}	@
 122              		.cfi_def_cfa_offset 8
 123              		.cfi_offset 7, -8
 124              		.cfi_offset 14, -4
 125 0002 82B0     		sub	sp, sp, #8	@,,
 126              		.cfi_def_cfa_offset 16
 127 0004 00AF     		add	r7, sp, #0	@,,
 128              		.cfi_def_cfa_register 7
 129 0006 7860     		str	r0, [r7, #4]	@ ps_Port, ps_Port
  53:drivers/rc_uart/rc_uart.c **** 	UART_DeInit(ps_Port);
 130              		.loc 1 53 0
 131 0008 7868     		ldr	r0, [r7, #4]	@, ps_Port
 132 000a FFF7FEFF 		bl	UART_DeInit	@
  54:drivers/rc_uart/rc_uart.c **** }
 133              		.loc 1 54 0
 134 000e 00BF     		nop
 135 0010 0837     		adds	r7, r7, #8	@,,
 136              		.cfi_def_cfa_offset 8
 137 0012 BD46     		mov	sp, r7	@,
 138              		.cfi_def_cfa_register 13
 139              		@ sp needed	@
 140 0014 80BD     		pop	{r7, pc}	@
 141              		.cfi_endproc
 142              	.LFE56:
 143              		.size	rcuart_DeInit, .-rcuart_DeInit
 144 0016 00BF     		.section	.text.rcuart_Send,"ax",%progbits
 145              		.align	2
 146              		.global	rcuart_Send
 147              		.thumb
 148              		.thumb_func
 149              		.type	rcuart_Send, %function
 150              	rcuart_Send:
 151              	.LFB57:
  55:drivers/rc_uart/rc_uart.c **** 
  56:drivers/rc_uart/rc_uart.c **** /**
  57:drivers/rc_uart/rc_uart.c ****  * \brief 	Send a block of data to the UART.
  58:drivers/rc_uart/rc_uart.c ****  * \param	ps_Port				Pointer to LPC_UARTx port structure
  59:drivers/rc_uart/rc_uart.c ****  * \param 	lub_UART_TxBuffer	buffer containing the data to be sent
  60:drivers/rc_uart/rc_uart.c ****  * \param	lul_Length			number of bytes to be sent
  61:drivers/rc_uart/rc_uart.c ****  * \param	le_Transfer			Transfer type (Non Blocking or Blocking)
  62:drivers/rc_uart/rc_uart.c ****  * \return	Transmit status (E_RC_SUCCES if all bytes were transmitted)
  63:drivers/rc_uart/rc_uart.c ****  */
  64:drivers/rc_uart/rc_uart.c **** T_E_RC_ERROR rcuart_Send(T_RCUART_PORT *ps_Port, T_UBYTE *lub_UART_TxBuffer, T_ULONG lul_Length, T_
  65:drivers/rc_uart/rc_uart.c **** {
 152              		.loc 1 65 0
 153              		.cfi_startproc
 154              		@ args = 0, pretend = 0, frame = 32
 155              		@ frame_needed = 1, uses_anonymous_args = 0
 156 0000 80B5     		push	{r7, lr}	@
 157              		.cfi_def_cfa_offset 8
 158              		.cfi_offset 7, -8
 159              		.cfi_offset 14, -4
 160 0002 88B0     		sub	sp, sp, #32	@,,
 161              		.cfi_def_cfa_offset 40
 162 0004 00AF     		add	r7, sp, #0	@,,
 163              		.cfi_def_cfa_register 7
ARM GAS  C:\Users\STUDENT\AppData\Local\Temp\ccseTdqC.s 			page 5


 164 0006 F860     		str	r0, [r7, #12]	@ ps_Port, ps_Port
 165 0008 B960     		str	r1, [r7, #8]	@ lub_UART_TxBuffer, lub_UART_TxBuffer
 166 000a 7A60     		str	r2, [r7, #4]	@ lul_Length, lul_Length
 167 000c FB70     		strb	r3, [r7, #3]	@ tmp115, le_Transfer
  66:drivers/rc_uart/rc_uart.c **** 	T_ULONG lul_BytesTransmitted = 0u;
 168              		.loc 1 66 0
 169 000e 0023     		movs	r3, #0	@ tmp116,
 170 0010 FB61     		str	r3, [r7, #28]	@ tmp116, lul_BytesTransmitted
  67:drivers/rc_uart/rc_uart.c **** 	T_ULONG lul_TotalBytesTransmitted = 0u;
 171              		.loc 1 67 0
 172 0012 0023     		movs	r3, #0	@ tmp117,
 173 0014 BB61     		str	r3, [r7, #24]	@ tmp117, lul_TotalBytesTransmitted
  68:drivers/rc_uart/rc_uart.c **** 	T_ULONG lul_BytesRemaining = 0u;
 174              		.loc 1 68 0
 175 0016 0023     		movs	r3, #0	@ tmp118,
 176 0018 3B61     		str	r3, [r7, #16]	@ tmp118, lul_BytesRemaining
  69:drivers/rc_uart/rc_uart.c **** 	T_E_RC_ERROR le_Status = E_RC_ERROR;
 177              		.loc 1 69 0
 178 001a 0123     		movs	r3, #1	@ tmp119,
 179 001c FB75     		strb	r3, [r7, #23]	@ tmp120, le_Status
  70:drivers/rc_uart/rc_uart.c **** 
  71:drivers/rc_uart/rc_uart.c **** 	/* Transmit data available in buffer */
  72:drivers/rc_uart/rc_uart.c **** 	while (lul_TotalBytesTransmitted < lul_Length)
 180              		.loc 1 72 0
 181 001e 1DE0     		b	.L4	@
 182              	.L7:
  73:drivers/rc_uart/rc_uart.c **** 	{
  74:drivers/rc_uart/rc_uart.c **** 		lul_BytesRemaining = lul_Length-lul_TotalBytesTransmitted;
 183              		.loc 1 74 0
 184 0020 7A68     		ldr	r2, [r7, #4]	@ tmp122, lul_Length
 185 0022 BB69     		ldr	r3, [r7, #24]	@ tmp123, lul_TotalBytesTransmitted
 186 0024 D31A     		subs	r3, r2, r3	@ tmp121, tmp122, tmp123
 187 0026 3B61     		str	r3, [r7, #16]	@ tmp121, lul_BytesRemaining
  75:drivers/rc_uart/rc_uart.c **** 		/* Send segments of 16 bytes */
  76:drivers/rc_uart/rc_uart.c **** 		if(lul_BytesRemaining > RCUART_FIFO_BUFFER_SIZE)
 188              		.loc 1 76 0
 189 0028 3B69     		ldr	r3, [r7, #16]	@ tmp124, lul_BytesRemaining
 190 002a 102B     		cmp	r3, #16	@ tmp124,
 191 002c 09D9     		bls	.L5	@,
  77:drivers/rc_uart/rc_uart.c **** 		{
  78:drivers/rc_uart/rc_uart.c **** 			lul_BytesTransmitted = UART_Send(ps_Port, &lub_UART_TxBuffer[lul_TotalBytesTransmitted], RCUART_
 192              		.loc 1 78 0
 193 002e BA68     		ldr	r2, [r7, #8]	@ tmp125, lub_UART_TxBuffer
 194 0030 BB69     		ldr	r3, [r7, #24]	@ tmp126, lul_TotalBytesTransmitted
 195 0032 D118     		adds	r1, r2, r3	@ D.5818, tmp125, tmp126
 196 0034 FB78     		ldrb	r3, [r7, #3]	@ zero_extendqisi2	@ tmp127, le_Transfer
 197 0036 1022     		movs	r2, #16	@,
 198 0038 F868     		ldr	r0, [r7, #12]	@, ps_Port
 199 003a FFF7FEFF 		bl	UART_Send	@
 200 003e F861     		str	r0, [r7, #28]	@, lul_BytesTransmitted
 201 0040 08E0     		b	.L6	@
 202              	.L5:
  79:drivers/rc_uart/rc_uart.c **** 		}
  80:drivers/rc_uart/rc_uart.c **** 		/* Send last segment */
  81:drivers/rc_uart/rc_uart.c **** 		else
  82:drivers/rc_uart/rc_uart.c **** 		{
  83:drivers/rc_uart/rc_uart.c **** 			lul_BytesTransmitted = UART_Send(ps_Port, &lub_UART_TxBuffer[lul_TotalBytesTransmitted], lul_Byt
ARM GAS  C:\Users\STUDENT\AppData\Local\Temp\ccseTdqC.s 			page 6


 203              		.loc 1 83 0
 204 0042 BA68     		ldr	r2, [r7, #8]	@ tmp128, lub_UART_TxBuffer
 205 0044 BB69     		ldr	r3, [r7, #24]	@ tmp129, lul_TotalBytesTransmitted
 206 0046 D118     		adds	r1, r2, r3	@ D.5818, tmp128, tmp129
 207 0048 FB78     		ldrb	r3, [r7, #3]	@ zero_extendqisi2	@ tmp130, le_Transfer
 208 004a 3A69     		ldr	r2, [r7, #16]	@, lul_BytesRemaining
 209 004c F868     		ldr	r0, [r7, #12]	@, ps_Port
 210 004e FFF7FEFF 		bl	UART_Send	@
 211 0052 F861     		str	r0, [r7, #28]	@, lul_BytesTransmitted
 212              	.L6:
  84:drivers/rc_uart/rc_uart.c **** 		}
  85:drivers/rc_uart/rc_uart.c **** 		/* Count transmitted bytes */
  86:drivers/rc_uart/rc_uart.c **** 		lul_TotalBytesTransmitted += lul_BytesTransmitted;
 213              		.loc 1 86 0
 214 0054 BA69     		ldr	r2, [r7, #24]	@ tmp132, lul_TotalBytesTransmitted
 215 0056 FB69     		ldr	r3, [r7, #28]	@ tmp133, lul_BytesTransmitted
 216 0058 1344     		add	r3, r3, r2	@ tmp131, tmp132
 217 005a BB61     		str	r3, [r7, #24]	@ tmp131, lul_TotalBytesTransmitted
 218              	.L4:
  72:drivers/rc_uart/rc_uart.c **** 	{
 219              		.loc 1 72 0
 220 005c BA69     		ldr	r2, [r7, #24]	@ tmp134, lul_TotalBytesTransmitted
 221 005e 7B68     		ldr	r3, [r7, #4]	@ tmp135, lul_Length
 222 0060 9A42     		cmp	r2, r3	@ tmp134, tmp135
 223 0062 DDD3     		bcc	.L7	@,
  87:drivers/rc_uart/rc_uart.c **** 	}
  88:drivers/rc_uart/rc_uart.c **** 	/* Check if all bytes were transmitted */
  89:drivers/rc_uart/rc_uart.c **** 	if (lul_TotalBytesTransmitted == lul_Length)
 224              		.loc 1 89 0
 225 0064 BA69     		ldr	r2, [r7, #24]	@ tmp136, lul_TotalBytesTransmitted
 226 0066 7B68     		ldr	r3, [r7, #4]	@ tmp137, lul_Length
 227 0068 9A42     		cmp	r2, r3	@ tmp136, tmp137
 228 006a 01D1     		bne	.L8	@,
  90:drivers/rc_uart/rc_uart.c **** 	{
  91:drivers/rc_uart/rc_uart.c **** 		le_Status = E_RC_SUCCESS;
 229              		.loc 1 91 0
 230 006c 0023     		movs	r3, #0	@ tmp138,
 231 006e FB75     		strb	r3, [r7, #23]	@ tmp139, le_Status
 232              	.L8:
  92:drivers/rc_uart/rc_uart.c **** 	}
  93:drivers/rc_uart/rc_uart.c **** 	return le_Status;
 233              		.loc 1 93 0
 234 0070 FB7D     		ldrb	r3, [r7, #23]	@ zero_extendqisi2	@ D.5819, le_Status
  94:drivers/rc_uart/rc_uart.c **** }
 235              		.loc 1 94 0
 236 0072 1846     		mov	r0, r3	@, <retval>
 237 0074 2037     		adds	r7, r7, #32	@,,
 238              		.cfi_def_cfa_offset 8
 239 0076 BD46     		mov	sp, r7	@,
 240              		.cfi_def_cfa_register 13
 241              		@ sp needed	@
 242 0078 80BD     		pop	{r7, pc}	@
 243              		.cfi_endproc
 244              	.LFE57:
 245              		.size	rcuart_Send, .-rcuart_Send
 246 007a 00BF     		.section	.text.rcuart_Receive,"ax",%progbits
 247              		.align	2
ARM GAS  C:\Users\STUDENT\AppData\Local\Temp\ccseTdqC.s 			page 7


 248              		.global	rcuart_Receive
 249              		.thumb
 250              		.thumb_func
 251              		.type	rcuart_Receive, %function
 252              	rcuart_Receive:
 253              	.LFB58:
  95:drivers/rc_uart/rc_uart.c **** 
  96:drivers/rc_uart/rc_uart.c **** /**
  97:drivers/rc_uart/rc_uart.c ****  * \brief 	Receives a block of data from UART.
  98:drivers/rc_uart/rc_uart.c ****  * \param	ps_Port				Pointer to LPC_UARTx port structure
  99:drivers/rc_uart/rc_uart.c ****  * \param 	lub_UART_RxBuffer	buffer where data will be saved
 100:drivers/rc_uart/rc_uart.c ****  * \param	lul_Length			number of received bytes
 101:drivers/rc_uart/rc_uart.c ****  * \param	le_Transfer			Transfer type (Non Blocking or Blocking)
 102:drivers/rc_uart/rc_uart.c ****  * \return	Number of transferred bytes
 103:drivers/rc_uart/rc_uart.c ****  */
 104:drivers/rc_uart/rc_uart.c **** T_ULONG rcuart_Receive(T_RCUART_PORT *ps_Port, T_UBYTE *lub_UART_RxBuffer, T_ULONG lul_Length, T_E_
 105:drivers/rc_uart/rc_uart.c **** {
 254              		.loc 1 105 0
 255              		.cfi_startproc
 256              		@ args = 0, pretend = 0, frame = 16
 257              		@ frame_needed = 1, uses_anonymous_args = 0
 258 0000 80B5     		push	{r7, lr}	@
 259              		.cfi_def_cfa_offset 8
 260              		.cfi_offset 7, -8
 261              		.cfi_offset 14, -4
 262 0002 84B0     		sub	sp, sp, #16	@,,
 263              		.cfi_def_cfa_offset 24
 264 0004 00AF     		add	r7, sp, #0	@,,
 265              		.cfi_def_cfa_register 7
 266 0006 F860     		str	r0, [r7, #12]	@ ps_Port, ps_Port
 267 0008 B960     		str	r1, [r7, #8]	@ lub_UART_RxBuffer, lub_UART_RxBuffer
 268 000a 7A60     		str	r2, [r7, #4]	@ lul_Length, lul_Length
 269 000c FB70     		strb	r3, [r7, #3]	@ tmp113, le_Transfer
 106:drivers/rc_uart/rc_uart.c **** 	return UART_Receive(ps_Port, lub_UART_RxBuffer, lul_Length, (TRANSFER_BLOCK_Type)le_Transfer);
 270              		.loc 1 106 0
 271 000e FB78     		ldrb	r3, [r7, #3]	@ zero_extendqisi2	@ tmp114, le_Transfer
 272 0010 7A68     		ldr	r2, [r7, #4]	@, lul_Length
 273 0012 B968     		ldr	r1, [r7, #8]	@, lub_UART_RxBuffer
 274 0014 F868     		ldr	r0, [r7, #12]	@, ps_Port
 275 0016 FFF7FEFF 		bl	UART_Receive	@
 276 001a 0346     		mov	r3, r0	@ D.5820,
 107:drivers/rc_uart/rc_uart.c **** }
 277              		.loc 1 107 0
 278 001c 1846     		mov	r0, r3	@, <retval>
 279 001e 1037     		adds	r7, r7, #16	@,,
 280              		.cfi_def_cfa_offset 8
 281 0020 BD46     		mov	sp, r7	@,
 282              		.cfi_def_cfa_register 13
 283              		@ sp needed	@
 284 0022 80BD     		pop	{r7, pc}	@
 285              		.cfi_endproc
 286              	.LFE58:
 287              		.size	rcuart_Receive, .-rcuart_Receive
 288              		.section	.text.rcuart_SetInterrupt,"ax",%progbits
 289              		.align	2
 290              		.global	rcuart_SetInterrupt
 291              		.thumb
ARM GAS  C:\Users\STUDENT\AppData\Local\Temp\ccseTdqC.s 			page 8


 292              		.thumb_func
 293              		.type	rcuart_SetInterrupt, %function
 294              	rcuart_SetInterrupt:
 295              	.LFB59:
 108:drivers/rc_uart/rc_uart.c **** 
 109:drivers/rc_uart/rc_uart.c **** /**
 110:drivers/rc_uart/rc_uart.c ****  * \brief 	Configures an interrupt on UART.
 111:drivers/rc_uart/rc_uart.c ****  * \param	ps_Port				Pointer to LPC_UARTx port structure
 112:drivers/rc_uart/rc_uart.c ****  * \param 	le_UART_IRQType		IRQ Type
 113:drivers/rc_uart/rc_uart.c ****  * \param	le_UART_IRQState	IRQ State
 114:drivers/rc_uart/rc_uart.c ****  * \return	none
 115:drivers/rc_uart/rc_uart.c ****  */
 116:drivers/rc_uart/rc_uart.c **** void rcuart_SetInterrupt(T_RCUART_PORT *ps_Port, T_E_RCUART_IRQ le_UART_IRQType, T_E_RC_ENABLE le_U
 117:drivers/rc_uart/rc_uart.c **** {
 296              		.loc 1 117 0
 297              		.cfi_startproc
 298              		@ args = 0, pretend = 0, frame = 8
 299              		@ frame_needed = 1, uses_anonymous_args = 0
 300 0000 80B5     		push	{r7, lr}	@
 301              		.cfi_def_cfa_offset 8
 302              		.cfi_offset 7, -8
 303              		.cfi_offset 14, -4
 304 0002 82B0     		sub	sp, sp, #8	@,,
 305              		.cfi_def_cfa_offset 16
 306 0004 00AF     		add	r7, sp, #0	@,,
 307              		.cfi_def_cfa_register 7
 308 0006 7860     		str	r0, [r7, #4]	@ ps_Port, ps_Port
 309 0008 0B46     		mov	r3, r1	@ tmp110, le_UART_IRQType
 310 000a FB70     		strb	r3, [r7, #3]	@ tmp111, le_UART_IRQType
 311 000c 1346     		mov	r3, r2	@ tmp113, tmp112
 312 000e BB70     		strb	r3, [r7, #2]	@ tmp113, le_UART_IRQState
 118:drivers/rc_uart/rc_uart.c **** 	UART_IntConfig(ps_Port, (UART_INT_Type)le_UART_IRQType, (FunctionalState)le_UART_IRQState);
 313              		.loc 1 118 0
 314 0010 BA78     		ldrb	r2, [r7, #2]	@ zero_extendqisi2	@ tmp114, le_UART_IRQState
 315 0012 FB78     		ldrb	r3, [r7, #3]	@ zero_extendqisi2	@ tmp115, le_UART_IRQType
 316 0014 1946     		mov	r1, r3	@, tmp115
 317 0016 7868     		ldr	r0, [r7, #4]	@, ps_Port
 318 0018 FFF7FEFF 		bl	UART_IntConfig	@
 119:drivers/rc_uart/rc_uart.c **** }
 319              		.loc 1 119 0
 320 001c 00BF     		nop
 321 001e 0837     		adds	r7, r7, #8	@,,
 322              		.cfi_def_cfa_offset 8
 323 0020 BD46     		mov	sp, r7	@,
 324              		.cfi_def_cfa_register 13
 325              		@ sp needed	@
 326 0022 80BD     		pop	{r7, pc}	@
 327              		.cfi_endproc
 328              	.LFE59:
 329              		.size	rcuart_SetInterrupt, .-rcuart_SetInterrupt
 330              		.section	.text.rcuart_TxState,"ax",%progbits
 331              		.align	2
 332              		.global	rcuart_TxState
 333              		.thumb
 334              		.thumb_func
 335              		.type	rcuart_TxState, %function
 336              	rcuart_TxState:
ARM GAS  C:\Users\STUDENT\AppData\Local\Temp\ccseTdqC.s 			page 9


 337              	.LFB60:
 120:drivers/rc_uart/rc_uart.c **** 
 121:drivers/rc_uart/rc_uart.c **** /**
 122:drivers/rc_uart/rc_uart.c ****  * \brief 	Configures UART Transmit state.
 123:drivers/rc_uart/rc_uart.c ****  * \param	ps_Port		Pointer to LPC_UARTx port structure
 124:drivers/rc_uart/rc_uart.c ****  * \param	le_TxState	New transmit state
 125:drivers/rc_uart/rc_uart.c ****  * \return	none
 126:drivers/rc_uart/rc_uart.c ****  */
 127:drivers/rc_uart/rc_uart.c **** void rcuart_TxState(T_RCUART_PORT *ps_Port, T_E_RC_ENABLE le_TxState)
 128:drivers/rc_uart/rc_uart.c **** {
 338              		.loc 1 128 0
 339              		.cfi_startproc
 340              		@ args = 0, pretend = 0, frame = 8
 341              		@ frame_needed = 1, uses_anonymous_args = 0
 342 0000 80B5     		push	{r7, lr}	@
 343              		.cfi_def_cfa_offset 8
 344              		.cfi_offset 7, -8
 345              		.cfi_offset 14, -4
 346 0002 82B0     		sub	sp, sp, #8	@,,
 347              		.cfi_def_cfa_offset 16
 348 0004 00AF     		add	r7, sp, #0	@,,
 349              		.cfi_def_cfa_register 7
 350 0006 7860     		str	r0, [r7, #4]	@ ps_Port, ps_Port
 351 0008 0B46     		mov	r3, r1	@ tmp110, le_TxState
 352 000a FB70     		strb	r3, [r7, #3]	@ tmp111, le_TxState
 129:drivers/rc_uart/rc_uart.c **** 	UART_TxCmd(ps_Port, (FunctionalState)le_TxState);
 353              		.loc 1 129 0
 354 000c FB78     		ldrb	r3, [r7, #3]	@ zero_extendqisi2	@ tmp112, le_TxState
 355 000e 1946     		mov	r1, r3	@, tmp112
 356 0010 7868     		ldr	r0, [r7, #4]	@, ps_Port
 357 0012 FFF7FEFF 		bl	UART_TxCmd	@
 130:drivers/rc_uart/rc_uart.c **** }
 358              		.loc 1 130 0
 359 0016 00BF     		nop
 360 0018 0837     		adds	r7, r7, #8	@,,
 361              		.cfi_def_cfa_offset 8
 362 001a BD46     		mov	sp, r7	@,
 363              		.cfi_def_cfa_register 13
 364              		@ sp needed	@
 365 001c 80BD     		pop	{r7, pc}	@
 366              		.cfi_endproc
 367              	.LFE60:
 368              		.size	rcuart_TxState, .-rcuart_TxState
 369 001e 00BF     		.section	.text.rcuart_SetCallback_Function,"ax",%progbits
 370              		.align	2
 371              		.global	rcuart_SetCallback_Function
 372              		.thumb
 373              		.thumb_func
 374              		.type	rcuart_SetCallback_Function, %function
 375              	rcuart_SetCallback_Function:
 376              	.LFB61:
 131:drivers/rc_uart/rc_uart.c **** 
 132:drivers/rc_uart/rc_uart.c **** /**
 133:drivers/rc_uart/rc_uart.c ****  * \brief 	Configures callback functions.
 134:drivers/rc_uart/rc_uart.c ****  * \param	ps_Port				Pointer to LPC_UARTx port structure
 135:drivers/rc_uart/rc_uart.c ****  * \param	le_CBFunctionType	Callback function type
 136:drivers/rc_uart/rc_uart.c ****  * \param	pv_Function			Pointer to callback function
ARM GAS  C:\Users\STUDENT\AppData\Local\Temp\ccseTdqC.s 			page 10


 137:drivers/rc_uart/rc_uart.c ****  * \return	none
 138:drivers/rc_uart/rc_uart.c ****  */
 139:drivers/rc_uart/rc_uart.c **** void rcuart_SetCallback_Function(T_RCUART_PORT *ps_Port, T_E_RCUART_CB_FCT le_CBFunctionType, void 
 140:drivers/rc_uart/rc_uart.c **** {
 377              		.loc 1 140 0
 378              		.cfi_startproc
 379              		@ args = 0, pretend = 0, frame = 16
 380              		@ frame_needed = 1, uses_anonymous_args = 0
 381 0000 80B5     		push	{r7, lr}	@
 382              		.cfi_def_cfa_offset 8
 383              		.cfi_offset 7, -8
 384              		.cfi_offset 14, -4
 385 0002 84B0     		sub	sp, sp, #16	@,,
 386              		.cfi_def_cfa_offset 24
 387 0004 00AF     		add	r7, sp, #0	@,,
 388              		.cfi_def_cfa_register 7
 389 0006 F860     		str	r0, [r7, #12]	@ ps_Port, ps_Port
 390 0008 0B46     		mov	r3, r1	@ tmp110, le_CBFunctionType
 391 000a 7A60     		str	r2, [r7, #4]	@ pv_Function, pv_Function
 392 000c FB72     		strb	r3, [r7, #11]	@ tmp111, le_CBFunctionType
 141:drivers/rc_uart/rc_uart.c **** 	UART_SetupCbs(ps_Port, (T_UBYTE)le_CBFunctionType, pv_Function);
 393              		.loc 1 141 0
 394 000e FB7A     		ldrb	r3, [r7, #11]	@ zero_extendqisi2	@ tmp112, le_CBFunctionType
 395 0010 7A68     		ldr	r2, [r7, #4]	@, pv_Function
 396 0012 1946     		mov	r1, r3	@, tmp112
 397 0014 F868     		ldr	r0, [r7, #12]	@, ps_Port
 398 0016 FFF7FEFF 		bl	UART_SetupCbs	@
 142:drivers/rc_uart/rc_uart.c **** }
 399              		.loc 1 142 0
 400 001a 00BF     		nop
 401 001c 1037     		adds	r7, r7, #16	@,,
 402              		.cfi_def_cfa_offset 8
 403 001e BD46     		mov	sp, r7	@,
 404              		.cfi_def_cfa_register 13
 405              		@ sp needed	@
 406 0020 80BD     		pop	{r7, pc}	@
 407              		.cfi_endproc
 408              	.LFE61:
 409              		.size	rcuart_SetCallback_Function, .-rcuart_SetCallback_Function
 410 0022 00BF     		.section	.text.rcuart_PORT0_IRQHandler,"ax",%progbits
 411              		.align	2
 412              		.global	rcuart_PORT0_IRQHandler
 413              		.thumb
 414              		.thumb_func
 415              		.type	rcuart_PORT0_IRQHandler, %function
 416              	rcuart_PORT0_IRQHandler:
 417              	.LFB62:
 143:drivers/rc_uart/rc_uart.c **** 
 144:drivers/rc_uart/rc_uart.c **** /**
 145:drivers/rc_uart/rc_uart.c ****  * \brief 	Standard UART0 IRQHandler
 146:drivers/rc_uart/rc_uart.c ****  * \return	none
 147:drivers/rc_uart/rc_uart.c ****  */
 148:drivers/rc_uart/rc_uart.c **** void rcuart_PORT0_IRQHandler(void)
 149:drivers/rc_uart/rc_uart.c **** {
 418              		.loc 1 149 0
 419              		.cfi_startproc
 420              		@ args = 0, pretend = 0, frame = 0
ARM GAS  C:\Users\STUDENT\AppData\Local\Temp\ccseTdqC.s 			page 11


 421              		@ frame_needed = 1, uses_anonymous_args = 0
 422 0000 80B5     		push	{r7, lr}	@
 423              		.cfi_def_cfa_offset 8
 424              		.cfi_offset 7, -8
 425              		.cfi_offset 14, -4
 426 0002 00AF     		add	r7, sp, #0	@,,
 427              		.cfi_def_cfa_register 7
 150:drivers/rc_uart/rc_uart.c **** 	UART0_StdIntHandler();
 428              		.loc 1 150 0
 429 0004 FFF7FEFF 		bl	UART0_StdIntHandler	@
 151:drivers/rc_uart/rc_uart.c **** }
 430              		.loc 1 151 0
 431 0008 00BF     		nop
 432 000a 80BD     		pop	{r7, pc}	@
 433              		.cfi_endproc
 434              	.LFE62:
 435              		.size	rcuart_PORT0_IRQHandler, .-rcuart_PORT0_IRQHandler
 436              		.section	.text.rcuart_PORT1_IRQHandler,"ax",%progbits
 437              		.align	2
 438              		.global	rcuart_PORT1_IRQHandler
 439              		.thumb
 440              		.thumb_func
 441              		.type	rcuart_PORT1_IRQHandler, %function
 442              	rcuart_PORT1_IRQHandler:
 443              	.LFB63:
 152:drivers/rc_uart/rc_uart.c **** 
 153:drivers/rc_uart/rc_uart.c **** /**
 154:drivers/rc_uart/rc_uart.c ****  * \brief 	Standard UART1 IRQHandler
 155:drivers/rc_uart/rc_uart.c ****  * \return	none
 156:drivers/rc_uart/rc_uart.c ****  */
 157:drivers/rc_uart/rc_uart.c **** void rcuart_PORT1_IRQHandler(void)
 158:drivers/rc_uart/rc_uart.c **** {
 444              		.loc 1 158 0
 445              		.cfi_startproc
 446              		@ args = 0, pretend = 0, frame = 0
 447              		@ frame_needed = 1, uses_anonymous_args = 0
 448 0000 80B5     		push	{r7, lr}	@
 449              		.cfi_def_cfa_offset 8
 450              		.cfi_offset 7, -8
 451              		.cfi_offset 14, -4
 452 0002 00AF     		add	r7, sp, #0	@,,
 453              		.cfi_def_cfa_register 7
 159:drivers/rc_uart/rc_uart.c **** 	UART1_StdIntHandler();
 454              		.loc 1 159 0
 455 0004 FFF7FEFF 		bl	UART1_StdIntHandler	@
 160:drivers/rc_uart/rc_uart.c **** }
 456              		.loc 1 160 0
 457 0008 00BF     		nop
 458 000a 80BD     		pop	{r7, pc}	@
 459              		.cfi_endproc
 460              	.LFE63:
 461              		.size	rcuart_PORT1_IRQHandler, .-rcuart_PORT1_IRQHandler
 462              		.section	.text.rcuart_PORT2_IRQHandler,"ax",%progbits
 463              		.align	2
 464              		.global	rcuart_PORT2_IRQHandler
 465              		.thumb
 466              		.thumb_func
ARM GAS  C:\Users\STUDENT\AppData\Local\Temp\ccseTdqC.s 			page 12


 467              		.type	rcuart_PORT2_IRQHandler, %function
 468              	rcuart_PORT2_IRQHandler:
 469              	.LFB64:
 161:drivers/rc_uart/rc_uart.c **** 
 162:drivers/rc_uart/rc_uart.c **** /**
 163:drivers/rc_uart/rc_uart.c ****  * \brief 	Standard UART2 IRQHandler
 164:drivers/rc_uart/rc_uart.c ****  * \return	none
 165:drivers/rc_uart/rc_uart.c ****  */
 166:drivers/rc_uart/rc_uart.c **** void rcuart_PORT2_IRQHandler(void)
 167:drivers/rc_uart/rc_uart.c **** {
 470              		.loc 1 167 0
 471              		.cfi_startproc
 472              		@ args = 0, pretend = 0, frame = 0
 473              		@ frame_needed = 1, uses_anonymous_args = 0
 474 0000 80B5     		push	{r7, lr}	@
 475              		.cfi_def_cfa_offset 8
 476              		.cfi_offset 7, -8
 477              		.cfi_offset 14, -4
 478 0002 00AF     		add	r7, sp, #0	@,,
 479              		.cfi_def_cfa_register 7
 168:drivers/rc_uart/rc_uart.c **** 	UART2_StdIntHandler();
 480              		.loc 1 168 0
 481 0004 FFF7FEFF 		bl	UART2_StdIntHandler	@
 169:drivers/rc_uart/rc_uart.c **** }
 482              		.loc 1 169 0
 483 0008 00BF     		nop
 484 000a 80BD     		pop	{r7, pc}	@
 485              		.cfi_endproc
 486              	.LFE64:
 487              		.size	rcuart_PORT2_IRQHandler, .-rcuart_PORT2_IRQHandler
 488              		.section	.text.rcuart_PORT3_IRQHandler,"ax",%progbits
 489              		.align	2
 490              		.global	rcuart_PORT3_IRQHandler
 491              		.thumb
 492              		.thumb_func
 493              		.type	rcuart_PORT3_IRQHandler, %function
 494              	rcuart_PORT3_IRQHandler:
 495              	.LFB65:
 170:drivers/rc_uart/rc_uart.c **** 
 171:drivers/rc_uart/rc_uart.c **** /**
 172:drivers/rc_uart/rc_uart.c ****  * \brief 	Standard UART3 IRQHandler
 173:drivers/rc_uart/rc_uart.c ****  * \return	none
 174:drivers/rc_uart/rc_uart.c ****  */
 175:drivers/rc_uart/rc_uart.c **** void rcuart_PORT3_IRQHandler(void)
 176:drivers/rc_uart/rc_uart.c **** {
 496              		.loc 1 176 0
 497              		.cfi_startproc
 498              		@ args = 0, pretend = 0, frame = 0
 499              		@ frame_needed = 1, uses_anonymous_args = 0
 500 0000 80B5     		push	{r7, lr}	@
 501              		.cfi_def_cfa_offset 8
 502              		.cfi_offset 7, -8
 503              		.cfi_offset 14, -4
 504 0002 00AF     		add	r7, sp, #0	@,,
 505              		.cfi_def_cfa_register 7
 177:drivers/rc_uart/rc_uart.c **** 	UART3_StdIntHandler();
 506              		.loc 1 177 0
ARM GAS  C:\Users\STUDENT\AppData\Local\Temp\ccseTdqC.s 			page 13


 507 0004 FFF7FEFF 		bl	UART3_StdIntHandler	@
 178:drivers/rc_uart/rc_uart.c **** }
 508              		.loc 1 178 0
 509 0008 00BF     		nop
 510 000a 80BD     		pop	{r7, pc}	@
 511              		.cfi_endproc
 512              	.LFE65:
 513              		.size	rcuart_PORT3_IRQHandler, .-rcuart_PORT3_IRQHandler
 514              		.text
 515              	.Letext0:
 516              		.file 2 "c:\\program files (x86)\\gnu tools arm embedded\\5.4 2016q3\\arm-none-eabi\\include\\mach
 517              		.file 3 "c:\\program files (x86)\\gnu tools arm embedded\\5.4 2016q3\\arm-none-eabi\\include\\sys\
 518              		.file 4 "system/LPC17xx.h"
 519              		.file 5 "core/lpc_types.h"
 520              		.file 6 "config/rc_stdtypedefs.h"
 521              		.file 7 "core/lpc17xx_uart.h"
 522              		.file 8 "drivers/rc_uart/rc_uart.h"
 523              		.file 9 "system/core_cm3.h"