ARM GAS  C:\Users\COSMIN~1.MAR\AppData\Local\Temp\ccu2ktLo.s 			page 1


   1              		.syntax unified
   2              		.cpu cortex-m3
   3              		.fpu softvfp
   4              		.eabi_attribute 20, 1	@ Tag_ABI_FP_denormal
   5              		.eabi_attribute 21, 1	@ Tag_ABI_FP_exceptions
   6              		.eabi_attribute 23, 3	@ Tag_ABI_FP_number_model
   7              		.eabi_attribute 24, 1	@ Tag_ABI_align8_needed
   8              		.eabi_attribute 25, 1	@ Tag_ABI_align8_preserved
   9              		.eabi_attribute 26, 1	@ Tag_ABI_enum_size
  10              		.eabi_attribute 30, 6	@ Tag_ABI_optimization_goals
  11              		.eabi_attribute 34, 1	@ Tag_CPU_unaligned_access
  12              		.eabi_attribute 18, 4	@ Tag_ABI_PCS_wchar_t
  13              		.file	"system_LPC17xx.c"
  14              	@ GNU C (GNU Tools for ARM Embedded Processors) version 4.9.3 20150303 (release) [ARM/embedded-4_9-
  15              	@	compiled by GNU C version 4.7.4, GMP version 4.3.2, MPFR version 2.4.2, MPC version 0.8.1
  16              	@ GGC heuristics: --param ggc-min-expand=100 --param ggc-min-heapsize=131072
  17              	@ options passed:  -I . -I config -I system -I core -I drivers -I FreeRTOS
  18              	@ -I FreeRTOS/include -I FreeRTOS/portable/GCC/ARM_CM3 -I FreeRTOS/portable
  19              	@ -I tasks/rc_task_leds -I modules/rc_leds -I drivers/rc_system
  20              	@ -I drivers/rc_gpio -I drivers/rc_uart -I drivers/rc_pinsel
  21              	@ -I drivers/rc_timer -I drivers/rc_adc -imultilib armv7-m
  22              	@ -iprefix c:\gnu tools arm embedded\4.9 2015q1\bin\../lib/gcc/arm-none-eabi/4.9.3/
  23              	@ -isysroot c:\gnu tools arm embedded\4.9 2015q1\bin\../arm-none-eabi
  24              	@ -MD out/system_LPC17xx.d -MF out/system_LPC17xx.d -MP
  25              	@ -MQ out/system_LPC17xx.o -D__USES_INITFINI__ system/system_LPC17xx.c
  26              	@ -mcpu=cortex-m3 -mthumb -auxbase-strip out/system_LPC17xx.o -g -ggdb3 -O0
  27              	@ -Wall -Wstrict-prototypes -Wextra -std=gnu90 -ffunction-sections
  28              	@ -fdata-sections -fverbose-asm
  29              	@ options enabled:  -faggressive-loop-optimizations -fauto-inc-dec -fcommon
  30              	@ -fdata-sections -fdelete-null-pointer-checks -fdwarf2-cfi-asm
  31              	@ -fearly-inlining -feliminate-unused-debug-types -ffunction-cse
  32              	@ -ffunction-sections -fgcse-lm -fgnu-runtime -fgnu-unique -fident
  33              	@ -finline-atomics -fira-hoist-pressure -fira-share-save-slots
  34              	@ -fira-share-spill-slots -fivopts -fkeep-static-consts
  35              	@ -fleading-underscore -flifetime-dse -fmath-errno -fmerge-debug-strings
  36              	@ -fpeephole -fprefetch-loop-arrays -freg-struct-return
  37              	@ -fsched-critical-path-heuristic -fsched-dep-count-heuristic
  38              	@ -fsched-group-heuristic -fsched-interblock -fsched-last-insn-heuristic
  39              	@ -fsched-rank-heuristic -fsched-spec -fsched-spec-insn-heuristic
  40              	@ -fsched-stalled-insns-dep -fshow-column -fsigned-zeros
  41              	@ -fsplit-ivs-in-unroller -fstrict-volatile-bitfields -fsync-libcalls
  42              	@ -ftrapping-math -ftree-coalesce-vars -ftree-cselim -ftree-forwprop
  43              	@ -ftree-loop-if-convert -ftree-loop-im -ftree-loop-ivcanon
  44              	@ -ftree-loop-optimize -ftree-parallelize-loops= -ftree-phiprop
  45              	@ -ftree-reassoc -ftree-scev-cprop -funit-at-a-time -fverbose-asm
  46              	@ -fzero-initialized-in-bss -mfix-cortex-m3-ldrd -mlittle-endian -mlra
  47              	@ -mpic-data-is-text-relative -msched-prolog -mthumb -munaligned-access
  48              	@ -mvectorize-with-neon-quad
  49              	
  50              		.text
  51              	.Ltext0:
  52              		.cfi_sections	.debug_frame
  53              		.global	SystemCoreClock
  54              		.section	.data.SystemCoreClock,"aw",%progbits
  55              		.align	2
  56              		.type	SystemCoreClock, %object
  57              		.size	SystemCoreClock, 4
ARM GAS  C:\Users\COSMIN~1.MAR\AppData\Local\Temp\ccu2ktLo.s 			page 2


  58              	SystemCoreClock:
  59 0000 00E1F505 		.word	100000000
  60              		.section	.text.SystemCoreClockUpdate,"ax",%progbits
  61              		.align	2
  62              		.global	SystemCoreClockUpdate
  63              		.thumb
  64              		.thumb_func
  65              		.type	SystemCoreClockUpdate, %function
  66              	SystemCoreClockUpdate:
  67              	.LFB55:
  68              		.file 1 "system/system_LPC17xx.c"
   1:system/system_LPC17xx.c **** /**************************************************************************//**
   2:system/system_LPC17xx.c ****  * @file     system_LPC17xx.c
   3:system/system_LPC17xx.c ****  * @brief    CMSIS Cortex-M3 Device Peripheral Access Layer Source File
   4:system/system_LPC17xx.c ****  *           for the NXP LPC17xx Device Series
   5:system/system_LPC17xx.c ****  * @version  V1.03
   6:system/system_LPC17xx.c ****  * @date     07. October 2009
   7:system/system_LPC17xx.c ****  *
   8:system/system_LPC17xx.c ****  * @note
   9:system/system_LPC17xx.c ****  * Copyright (C) 2009 ARM Limited. All rights reserved.
  10:system/system_LPC17xx.c ****  *
  11:system/system_LPC17xx.c ****  * @par
  12:system/system_LPC17xx.c ****  * ARM Limited (ARM) is supplying this software for use with Cortex-M
  13:system/system_LPC17xx.c ****  * processor based microcontrollers.  This file can be freely distributed
  14:system/system_LPC17xx.c ****  * within development tools that are supporting such ARM based processors.
  15:system/system_LPC17xx.c ****  *
  16:system/system_LPC17xx.c ****  * @par
  17:system/system_LPC17xx.c ****  * THIS SOFTWARE IS PROVIDED "AS IS".  NO WARRANTIES, WHETHER EXPRESS, IMPLIED
  18:system/system_LPC17xx.c ****  * OR STATUTORY, INCLUDING, BUT NOT LIMITED TO, IMPLIED WARRANTIES OF
  19:system/system_LPC17xx.c ****  * MERCHANTABILITY AND FITNESS FOR A PARTICULAR PURPOSE APPLY TO THIS SOFTWARE.
  20:system/system_LPC17xx.c ****  * ARM SHALL NOT, IN ANY CIRCUMSTANCES, BE LIABLE FOR SPECIAL, INCIDENTAL, OR
  21:system/system_LPC17xx.c ****  * CONSEQUENTIAL DAMAGES, FOR ANY REASON WHATSOEVER.
  22:system/system_LPC17xx.c ****  *
  23:system/system_LPC17xx.c ****  ******************************************************************************/
  24:system/system_LPC17xx.c **** 
  25:system/system_LPC17xx.c **** 
  26:system/system_LPC17xx.c **** #include <stdint.h>
  27:system/system_LPC17xx.c **** #include "LPC17xx.h"
  28:system/system_LPC17xx.c **** 
  29:system/system_LPC17xx.c **** 
  30:system/system_LPC17xx.c **** /** @addtogroup LPC17xx_System
  31:system/system_LPC17xx.c ****  * @{
  32:system/system_LPC17xx.c ****  */
  33:system/system_LPC17xx.c **** 
  34:system/system_LPC17xx.c **** /*
  35:system/system_LPC17xx.c **** //-------- <<< Use Configuration Wizard in Context Menu >>> ------------------
  36:system/system_LPC17xx.c **** */
  37:system/system_LPC17xx.c **** 
  38:system/system_LPC17xx.c **** /*--------------------- Clock Configuration ----------------------------------
  39:system/system_LPC17xx.c **** //
  40:system/system_LPC17xx.c **** // <e> Clock Configuration
  41:system/system_LPC17xx.c **** //   <h> System Controls and Status Register (SCS)
  42:system/system_LPC17xx.c **** //     <o1.4>    OSCRANGE: Main Oscillator Range Select
  43:system/system_LPC17xx.c **** //                     <0=>  1 MHz to 20 MHz
  44:system/system_LPC17xx.c **** //                     <1=> 15 MHz to 24 MHz
  45:system/system_LPC17xx.c **** //     <e1.5>       OSCEN: Main Oscillator Enable
  46:system/system_LPC17xx.c **** //     </e>
ARM GAS  C:\Users\COSMIN~1.MAR\AppData\Local\Temp\ccu2ktLo.s 			page 3


  47:system/system_LPC17xx.c **** //   </h>
  48:system/system_LPC17xx.c **** //
  49:system/system_LPC17xx.c **** //   <h> Clock Source Select Register (CLKSRCSEL)
  50:system/system_LPC17xx.c **** //     <o2.0..1>   CLKSRC: PLL Clock Source Selection
  51:system/system_LPC17xx.c **** //                     <0=> Internal RC oscillator
  52:system/system_LPC17xx.c **** //                     <1=> Main oscillator
  53:system/system_LPC17xx.c **** //                     <2=> RTC oscillator
  54:system/system_LPC17xx.c **** //   </h>
  55:system/system_LPC17xx.c **** //
  56:system/system_LPC17xx.c **** //   <e3> PLL0 Configuration (Main PLL)
  57:system/system_LPC17xx.c **** //     <h> PLL0 Configuration Register (PLL0CFG)
  58:system/system_LPC17xx.c **** //                     <i> F_cco0 = (2 * M * F_in) / N
  59:system/system_LPC17xx.c **** //                     <i> F_in must be in the range of 32 kHz to 50 MHz
  60:system/system_LPC17xx.c **** //                     <i> F_cco0 must be in the range of 275 MHz to 550 MHz
  61:system/system_LPC17xx.c **** //       <o4.0..14>  MSEL: PLL Multiplier Selection
  62:system/system_LPC17xx.c **** //                     <6-32768><#-1>
  63:system/system_LPC17xx.c **** //                     <i> M Value
  64:system/system_LPC17xx.c **** //       <o4.16..23> NSEL: PLL Divider Selection
  65:system/system_LPC17xx.c **** //                     <1-256><#-1>
  66:system/system_LPC17xx.c **** //                     <i> N Value
  67:system/system_LPC17xx.c **** //     </h>
  68:system/system_LPC17xx.c **** //   </e>
  69:system/system_LPC17xx.c **** //
  70:system/system_LPC17xx.c **** //   <e5> PLL1 Configuration (USB PLL)
  71:system/system_LPC17xx.c **** //     <h> PLL1 Configuration Register (PLL1CFG)
  72:system/system_LPC17xx.c **** //                     <i> F_usb = M * F_osc or F_usb = F_cco1 / (2 * P)
  73:system/system_LPC17xx.c **** //                     <i> F_cco1 = F_osc * M * 2 * P
  74:system/system_LPC17xx.c **** //                     <i> F_cco1 must be in the range of 156 MHz to 320 MHz
  75:system/system_LPC17xx.c **** //       <o6.0..4>   MSEL: PLL Multiplier Selection
  76:system/system_LPC17xx.c **** //                     <1-32><#-1>
  77:system/system_LPC17xx.c **** //                     <i> M Value (for USB maximum value is 4)
  78:system/system_LPC17xx.c **** //       <o6.5..6>   PSEL: PLL Divider Selection
  79:system/system_LPC17xx.c **** //                     <0=> 1
  80:system/system_LPC17xx.c **** //                     <1=> 2
  81:system/system_LPC17xx.c **** //                     <2=> 4
  82:system/system_LPC17xx.c **** //                     <3=> 8
  83:system/system_LPC17xx.c **** //                     <i> P Value
  84:system/system_LPC17xx.c **** //     </h>
  85:system/system_LPC17xx.c **** //   </e>
  86:system/system_LPC17xx.c **** //
  87:system/system_LPC17xx.c **** //   <h> CPU Clock Configuration Register (CCLKCFG)
  88:system/system_LPC17xx.c **** //     <o7.0..7>  CCLKSEL: Divide Value for CPU Clock from PLL0
  89:system/system_LPC17xx.c **** //                     <3-256><#-1>
  90:system/system_LPC17xx.c **** //   </h>
  91:system/system_LPC17xx.c **** //
  92:system/system_LPC17xx.c **** //   <h> USB Clock Configuration Register (USBCLKCFG)
  93:system/system_LPC17xx.c **** //     <o8.0..3>   USBSEL: Divide Value for USB Clock from PLL0
  94:system/system_LPC17xx.c **** //                     <0-15>
  95:system/system_LPC17xx.c **** //                     <i> Divide is USBSEL + 1
  96:system/system_LPC17xx.c **** //   </h>
  97:system/system_LPC17xx.c **** //
  98:system/system_LPC17xx.c **** //   <h> Peripheral Clock Selection Register 0 (PCLKSEL0)
  99:system/system_LPC17xx.c **** //     <o9.0..1>    PCLK_WDT: Peripheral Clock Selection for WDT
 100:system/system_LPC17xx.c **** //                     <0=> Pclk = Cclk / 4
 101:system/system_LPC17xx.c **** //                     <1=> Pclk = Cclk
 102:system/system_LPC17xx.c **** //                     <2=> Pclk = Cclk / 2
 103:system/system_LPC17xx.c **** //                     <3=> Pclk = Hclk / 8
ARM GAS  C:\Users\COSMIN~1.MAR\AppData\Local\Temp\ccu2ktLo.s 			page 4


 104:system/system_LPC17xx.c **** //     <o9.2..3>    PCLK_TIMER0: Peripheral Clock Selection for TIMER0
 105:system/system_LPC17xx.c **** //                     <0=> Pclk = Cclk / 4
 106:system/system_LPC17xx.c **** //                     <1=> Pclk = Cclk
 107:system/system_LPC17xx.c **** //                     <2=> Pclk = Cclk / 2
 108:system/system_LPC17xx.c **** //                     <3=> Pclk = Hclk / 8
 109:system/system_LPC17xx.c **** //     <o9.4..5>    PCLK_TIMER1: Peripheral Clock Selection for TIMER1
 110:system/system_LPC17xx.c **** //                     <0=> Pclk = Cclk / 4
 111:system/system_LPC17xx.c **** //                     <1=> Pclk = Cclk
 112:system/system_LPC17xx.c **** //                     <2=> Pclk = Cclk / 2
 113:system/system_LPC17xx.c **** //                     <3=> Pclk = Hclk / 8
 114:system/system_LPC17xx.c **** //     <o9.6..7>    PCLK_UART0: Peripheral Clock Selection for UART0
 115:system/system_LPC17xx.c **** //                     <0=> Pclk = Cclk / 4
 116:system/system_LPC17xx.c **** //                     <1=> Pclk = Cclk
 117:system/system_LPC17xx.c **** //                     <2=> Pclk = Cclk / 2
 118:system/system_LPC17xx.c **** //                     <3=> Pclk = Hclk / 8
 119:system/system_LPC17xx.c **** //     <o9.8..9>    PCLK_UART1: Peripheral Clock Selection for UART1
 120:system/system_LPC17xx.c **** //                     <0=> Pclk = Cclk / 4
 121:system/system_LPC17xx.c **** //                     <1=> Pclk = Cclk
 122:system/system_LPC17xx.c **** //                     <2=> Pclk = Cclk / 2
 123:system/system_LPC17xx.c **** //                     <3=> Pclk = Hclk / 8
 124:system/system_LPC17xx.c **** //     <o9.12..13>  PCLK_PWM1: Peripheral Clock Selection for PWM1
 125:system/system_LPC17xx.c **** //                     <0=> Pclk = Cclk / 4
 126:system/system_LPC17xx.c **** //                     <1=> Pclk = Cclk
 127:system/system_LPC17xx.c **** //                     <2=> Pclk = Cclk / 2
 128:system/system_LPC17xx.c **** //                     <3=> Pclk = Hclk / 8
 129:system/system_LPC17xx.c **** //     <o9.14..15>  PCLK_I2C0: Peripheral Clock Selection for I2C0
 130:system/system_LPC17xx.c **** //                     <0=> Pclk = Cclk / 4
 131:system/system_LPC17xx.c **** //                     <1=> Pclk = Cclk
 132:system/system_LPC17xx.c **** //                     <2=> Pclk = Cclk / 2
 133:system/system_LPC17xx.c **** //                     <3=> Pclk = Hclk / 8
 134:system/system_LPC17xx.c **** //     <o9.16..17>  PCLK_SPI: Peripheral Clock Selection for SPI
 135:system/system_LPC17xx.c **** //                     <0=> Pclk = Cclk / 4
 136:system/system_LPC17xx.c **** //                     <1=> Pclk = Cclk
 137:system/system_LPC17xx.c **** //                     <2=> Pclk = Cclk / 2
 138:system/system_LPC17xx.c **** //                     <3=> Pclk = Hclk / 8
 139:system/system_LPC17xx.c **** //     <o9.20..21>  PCLK_SSP1: Peripheral Clock Selection for SSP1
 140:system/system_LPC17xx.c **** //                     <0=> Pclk = Cclk / 4
 141:system/system_LPC17xx.c **** //                     <1=> Pclk = Cclk
 142:system/system_LPC17xx.c **** //                     <2=> Pclk = Cclk / 2
 143:system/system_LPC17xx.c **** //                     <3=> Pclk = Hclk / 8
 144:system/system_LPC17xx.c **** //     <o9.22..23>  PCLK_DAC: Peripheral Clock Selection for DAC
 145:system/system_LPC17xx.c **** //                     <0=> Pclk = Cclk / 4
 146:system/system_LPC17xx.c **** //                     <1=> Pclk = Cclk
 147:system/system_LPC17xx.c **** //                     <2=> Pclk = Cclk / 2
 148:system/system_LPC17xx.c **** //                     <3=> Pclk = Hclk / 8
 149:system/system_LPC17xx.c **** //     <o9.24..25>  PCLK_ADC: Peripheral Clock Selection for ADC
 150:system/system_LPC17xx.c **** //                     <0=> Pclk = Cclk / 4
 151:system/system_LPC17xx.c **** //                     <1=> Pclk = Cclk
 152:system/system_LPC17xx.c **** //                     <2=> Pclk = Cclk / 2
 153:system/system_LPC17xx.c **** //                     <3=> Pclk = Hclk / 8
 154:system/system_LPC17xx.c **** //     <o9.26..27>  PCLK_CAN1: Peripheral Clock Selection for CAN1
 155:system/system_LPC17xx.c **** //                     <0=> Pclk = Cclk / 4
 156:system/system_LPC17xx.c **** //                     <1=> Pclk = Cclk
 157:system/system_LPC17xx.c **** //                     <2=> Pclk = Cclk / 2
 158:system/system_LPC17xx.c **** //                     <3=> Pclk = Hclk / 6
 159:system/system_LPC17xx.c **** //     <o9.28..29>  PCLK_CAN2: Peripheral Clock Selection for CAN2
 160:system/system_LPC17xx.c **** //                     <0=> Pclk = Cclk / 4
ARM GAS  C:\Users\COSMIN~1.MAR\AppData\Local\Temp\ccu2ktLo.s 			page 5


 161:system/system_LPC17xx.c **** //                     <1=> Pclk = Cclk
 162:system/system_LPC17xx.c **** //                     <2=> Pclk = Cclk / 2
 163:system/system_LPC17xx.c **** //                     <3=> Pclk = Hclk / 6
 164:system/system_LPC17xx.c **** //     <o9.30..31>  PCLK_ACF: Peripheral Clock Selection for ACF
 165:system/system_LPC17xx.c **** //                     <0=> Pclk = Cclk / 4
 166:system/system_LPC17xx.c **** //                     <1=> Pclk = Cclk
 167:system/system_LPC17xx.c **** //                     <2=> Pclk = Cclk / 2
 168:system/system_LPC17xx.c **** //                     <3=> Pclk = Hclk / 6
 169:system/system_LPC17xx.c **** //   </h>
 170:system/system_LPC17xx.c **** //
 171:system/system_LPC17xx.c **** //   <h> Peripheral Clock Selection Register 1 (PCLKSEL1)
 172:system/system_LPC17xx.c **** //     <o10.0..1>   PCLK_QEI: Peripheral Clock Selection for the Quadrature Encoder Interface
 173:system/system_LPC17xx.c **** //                     <0=> Pclk = Cclk / 4
 174:system/system_LPC17xx.c **** //                     <1=> Pclk = Cclk
 175:system/system_LPC17xx.c **** //                     <2=> Pclk = Cclk / 2
 176:system/system_LPC17xx.c **** //                     <3=> Pclk = Hclk / 8
 177:system/system_LPC17xx.c **** //     <o10.2..3>   PCLK_GPIO: Peripheral Clock Selection for GPIOs
 178:system/system_LPC17xx.c **** //                     <0=> Pclk = Cclk / 4
 179:system/system_LPC17xx.c **** //                     <1=> Pclk = Cclk
 180:system/system_LPC17xx.c **** //                     <2=> Pclk = Cclk / 2
 181:system/system_LPC17xx.c **** //                     <3=> Pclk = Hclk / 8
 182:system/system_LPC17xx.c **** //     <o10.4..5>   PCLK_PCB: Peripheral Clock Selection for the Pin Connect Block
 183:system/system_LPC17xx.c **** //                     <0=> Pclk = Cclk / 4
 184:system/system_LPC17xx.c **** //                     <1=> Pclk = Cclk
 185:system/system_LPC17xx.c **** //                     <2=> Pclk = Cclk / 2
 186:system/system_LPC17xx.c **** //                     <3=> Pclk = Hclk / 8
 187:system/system_LPC17xx.c **** //     <o10.6..7>   PCLK_I2C1: Peripheral Clock Selection for I2C1
 188:system/system_LPC17xx.c **** //                     <0=> Pclk = Cclk / 4
 189:system/system_LPC17xx.c **** //                     <1=> Pclk = Cclk
 190:system/system_LPC17xx.c **** //                     <2=> Pclk = Cclk / 2
 191:system/system_LPC17xx.c **** //                     <3=> Pclk = Hclk / 8
 192:system/system_LPC17xx.c **** //     <o10.10..11> PCLK_SSP0: Peripheral Clock Selection for SSP0
 193:system/system_LPC17xx.c **** //                     <0=> Pclk = Cclk / 4
 194:system/system_LPC17xx.c **** //                     <1=> Pclk = Cclk
 195:system/system_LPC17xx.c **** //                     <2=> Pclk = Cclk / 2
 196:system/system_LPC17xx.c **** //                     <3=> Pclk = Hclk / 8
 197:system/system_LPC17xx.c **** //     <o10.12..13> PCLK_TIMER2: Peripheral Clock Selection for TIMER2
 198:system/system_LPC17xx.c **** //                     <0=> Pclk = Cclk / 4
 199:system/system_LPC17xx.c **** //                     <1=> Pclk = Cclk
 200:system/system_LPC17xx.c **** //                     <2=> Pclk = Cclk / 2
 201:system/system_LPC17xx.c **** //                     <3=> Pclk = Hclk / 8
 202:system/system_LPC17xx.c **** //     <o10.14..15> PCLK_TIMER3: Peripheral Clock Selection for TIMER3
 203:system/system_LPC17xx.c **** //                     <0=> Pclk = Cclk / 4
 204:system/system_LPC17xx.c **** //                     <1=> Pclk = Cclk
 205:system/system_LPC17xx.c **** //                     <2=> Pclk = Cclk / 2
 206:system/system_LPC17xx.c **** //                     <3=> Pclk = Hclk / 8
 207:system/system_LPC17xx.c **** //     <o10.16..17> PCLK_UART2: Peripheral Clock Selection for UART2
 208:system/system_LPC17xx.c **** //                     <0=> Pclk = Cclk / 4
 209:system/system_LPC17xx.c **** //                     <1=> Pclk = Cclk
 210:system/system_LPC17xx.c **** //                     <2=> Pclk = Cclk / 2
 211:system/system_LPC17xx.c **** //                     <3=> Pclk = Hclk / 8
 212:system/system_LPC17xx.c **** //     <o10.18..19> PCLK_UART3: Peripheral Clock Selection for UART3
 213:system/system_LPC17xx.c **** //                     <0=> Pclk = Cclk / 4
 214:system/system_LPC17xx.c **** //                     <1=> Pclk = Cclk
 215:system/system_LPC17xx.c **** //                     <2=> Pclk = Cclk / 2
 216:system/system_LPC17xx.c **** //                     <3=> Pclk = Hclk / 8
 217:system/system_LPC17xx.c **** //     <o10.20..21> PCLK_I2C2: Peripheral Clock Selection for I2C2
ARM GAS  C:\Users\COSMIN~1.MAR\AppData\Local\Temp\ccu2ktLo.s 			page 6


 218:system/system_LPC17xx.c **** //                     <0=> Pclk = Cclk / 4
 219:system/system_LPC17xx.c **** //                     <1=> Pclk = Cclk
 220:system/system_LPC17xx.c **** //                     <2=> Pclk = Cclk / 2
 221:system/system_LPC17xx.c **** //                     <3=> Pclk = Hclk / 8
 222:system/system_LPC17xx.c **** //     <o10.22..23> PCLK_I2S: Peripheral Clock Selection for I2S
 223:system/system_LPC17xx.c **** //                     <0=> Pclk = Cclk / 4
 224:system/system_LPC17xx.c **** //                     <1=> Pclk = Cclk
 225:system/system_LPC17xx.c **** //                     <2=> Pclk = Cclk / 2
 226:system/system_LPC17xx.c **** //                     <3=> Pclk = Hclk / 8
 227:system/system_LPC17xx.c **** //     <o10.26..27> PCLK_RIT: Peripheral Clock Selection for the Repetitive Interrupt Timer
 228:system/system_LPC17xx.c **** //                     <0=> Pclk = Cclk / 4
 229:system/system_LPC17xx.c **** //                     <1=> Pclk = Cclk
 230:system/system_LPC17xx.c **** //                     <2=> Pclk = Cclk / 2
 231:system/system_LPC17xx.c **** //                     <3=> Pclk = Hclk / 8
 232:system/system_LPC17xx.c **** //     <o10.28..29> PCLK_SYSCON: Peripheral Clock Selection for the System Control Block
 233:system/system_LPC17xx.c **** //                     <0=> Pclk = Cclk / 4
 234:system/system_LPC17xx.c **** //                     <1=> Pclk = Cclk
 235:system/system_LPC17xx.c **** //                     <2=> Pclk = Cclk / 2
 236:system/system_LPC17xx.c **** //                     <3=> Pclk = Hclk / 8
 237:system/system_LPC17xx.c **** //     <o10.30..31> PCLK_MC: Peripheral Clock Selection for the Motor Control PWM
 238:system/system_LPC17xx.c **** //                     <0=> Pclk = Cclk / 4
 239:system/system_LPC17xx.c **** //                     <1=> Pclk = Cclk
 240:system/system_LPC17xx.c **** //                     <2=> Pclk = Cclk / 2
 241:system/system_LPC17xx.c **** //                     <3=> Pclk = Hclk / 8
 242:system/system_LPC17xx.c **** //   </h>
 243:system/system_LPC17xx.c **** //
 244:system/system_LPC17xx.c **** //   <h> Power Control for Peripherals Register (PCONP)
 245:system/system_LPC17xx.c **** //     <o11.1>      PCTIM0: Timer/Counter 0 power/clock enable
 246:system/system_LPC17xx.c **** //     <o11.2>      PCTIM1: Timer/Counter 1 power/clock enable
 247:system/system_LPC17xx.c **** //     <o11.3>      PCUART0: UART 0 power/clock enable
 248:system/system_LPC17xx.c **** //     <o11.4>      PCUART1: UART 1 power/clock enable
 249:system/system_LPC17xx.c **** //     <o11.6>      PCPWM1: PWM 1 power/clock enable
 250:system/system_LPC17xx.c **** //     <o11.7>      PCI2C0: I2C interface 0 power/clock enable
 251:system/system_LPC17xx.c **** //     <o11.8>      PCSPI: SPI interface power/clock enable
 252:system/system_LPC17xx.c **** //     <o11.9>      PCRTC: RTC power/clock enable
 253:system/system_LPC17xx.c **** //     <o11.10>     PCSSP1: SSP interface 1 power/clock enable
 254:system/system_LPC17xx.c **** //     <o11.12>     PCAD: A/D converter power/clock enable
 255:system/system_LPC17xx.c **** //     <o11.13>     PCCAN1: CAN controller 1 power/clock enable
 256:system/system_LPC17xx.c **** //     <o11.14>     PCCAN2: CAN controller 2 power/clock enable
 257:system/system_LPC17xx.c **** //     <o11.15>     PCGPIO: GPIOs power/clock enable
 258:system/system_LPC17xx.c **** //     <o11.16>     PCRIT: Repetitive interrupt timer power/clock enable
 259:system/system_LPC17xx.c **** //     <o11.17>     PCMC: Motor control PWM power/clock enable
 260:system/system_LPC17xx.c **** //     <o11.18>     PCQEI: Quadrature encoder interface power/clock enable
 261:system/system_LPC17xx.c **** //     <o11.19>     PCI2C1: I2C interface 1 power/clock enable
 262:system/system_LPC17xx.c **** //     <o11.21>     PCSSP0: SSP interface 0 power/clock enable
 263:system/system_LPC17xx.c **** //     <o11.22>     PCTIM2: Timer 2 power/clock enable
 264:system/system_LPC17xx.c **** //     <o11.23>     PCTIM3: Timer 3 power/clock enable
 265:system/system_LPC17xx.c **** //     <o11.24>     PCUART2: UART 2 power/clock enable
 266:system/system_LPC17xx.c **** //     <o11.25>     PCUART3: UART 3 power/clock enable
 267:system/system_LPC17xx.c **** //     <o11.26>     PCI2C2: I2C interface 2 power/clock enable
 268:system/system_LPC17xx.c **** //     <o11.27>     PCI2S: I2S interface power/clock enable
 269:system/system_LPC17xx.c **** //     <o11.29>     PCGPDMA: GP DMA function power/clock enable
 270:system/system_LPC17xx.c **** //     <o11.30>     PCENET: Ethernet block power/clock enable
 271:system/system_LPC17xx.c **** //     <o11.31>     PCUSB: USB interface power/clock enable
 272:system/system_LPC17xx.c **** //   </h>
 273:system/system_LPC17xx.c **** //
 274:system/system_LPC17xx.c **** //   <h> Clock Output Configuration Register (CLKOUTCFG)
ARM GAS  C:\Users\COSMIN~1.MAR\AppData\Local\Temp\ccu2ktLo.s 			page 7


 275:system/system_LPC17xx.c **** //     <o12.0..3>   CLKOUTSEL: Selects clock source for CLKOUT
 276:system/system_LPC17xx.c **** //                     <0=> CPU clock
 277:system/system_LPC17xx.c **** //                     <1=> Main oscillator
 278:system/system_LPC17xx.c **** //                     <2=> Internal RC oscillator
 279:system/system_LPC17xx.c **** //                     <3=> USB clock
 280:system/system_LPC17xx.c **** //                     <4=> RTC oscillator
 281:system/system_LPC17xx.c **** //     <o12.4..7>   CLKOUTDIV: Selects clock divider for CLKOUT
 282:system/system_LPC17xx.c **** //                     <1-16><#-1>
 283:system/system_LPC17xx.c **** //     <o12.8>      CLKOUT_EN: CLKOUT enable control
 284:system/system_LPC17xx.c **** //   </h>
 285:system/system_LPC17xx.c **** //
 286:system/system_LPC17xx.c **** // </e>
 287:system/system_LPC17xx.c **** */
 288:system/system_LPC17xx.c **** 
 289:system/system_LPC17xx.c **** 
 290:system/system_LPC17xx.c **** 
 291:system/system_LPC17xx.c **** /** @addtogroup LPC17xx_System_Defines  LPC17xx System Defines
 292:system/system_LPC17xx.c ****   @{
 293:system/system_LPC17xx.c ****  */
 294:system/system_LPC17xx.c **** 
 295:system/system_LPC17xx.c **** #define CLOCK_SETUP           1
 296:system/system_LPC17xx.c **** #define SCS_Val               0x00000020
 297:system/system_LPC17xx.c **** #define CLKSRCSEL_Val         0x00000001
 298:system/system_LPC17xx.c **** #define PLL0_SETUP            1
 299:system/system_LPC17xx.c **** #define PLL0CFG_Val           0x00050063
 300:system/system_LPC17xx.c **** #define PLL1_SETUP            1
 301:system/system_LPC17xx.c **** #define PLL1CFG_Val           0x00000023
 302:system/system_LPC17xx.c **** #define CCLKCFG_Val           0x00000003
 303:system/system_LPC17xx.c **** #define USBCLKCFG_Val         0x00000000
 304:system/system_LPC17xx.c **** #define PCLKSEL0_Val          0x00000000
 305:system/system_LPC17xx.c **** #define PCLKSEL1_Val          0x00000000
 306:system/system_LPC17xx.c **** #define PCONP_Val             0x042887DE
 307:system/system_LPC17xx.c **** #define CLKOUTCFG_Val         0x00000000
 308:system/system_LPC17xx.c **** 
 309:system/system_LPC17xx.c **** 
 310:system/system_LPC17xx.c **** /*--------------------- Flash Accelerator Configuration ----------------------
 311:system/system_LPC17xx.c **** //
 312:system/system_LPC17xx.c **** // <e> Flash Accelerator Configuration
 313:system/system_LPC17xx.c **** //   <o1.0..11>  Reserved
 314:system/system_LPC17xx.c **** //   <o1.12..15> FLASHTIM: Flash Access Time
 315:system/system_LPC17xx.c **** //               <0=> 1 CPU clock (for CPU clock up to 20 MHz)
 316:system/system_LPC17xx.c **** //               <1=> 2 CPU clocks (for CPU clock up to 40 MHz)
 317:system/system_LPC17xx.c **** //               <2=> 3 CPU clocks (for CPU clock up to 60 MHz)
 318:system/system_LPC17xx.c **** //               <3=> 4 CPU clocks (for CPU clock up to 80 MHz)
 319:system/system_LPC17xx.c **** //               <4=> 5 CPU clocks (for CPU clock up to 100 MHz)
 320:system/system_LPC17xx.c **** //               <5=> 6 CPU clocks (for any CPU clock)
 321:system/system_LPC17xx.c **** // </e>
 322:system/system_LPC17xx.c **** */
 323:system/system_LPC17xx.c **** #define FLASH_SETUP           1
 324:system/system_LPC17xx.c **** #define FLASHCFG_Val          0x0000303A
 325:system/system_LPC17xx.c **** 
 326:system/system_LPC17xx.c **** /*
 327:system/system_LPC17xx.c **** //-------- <<< end of configuration section >>> ------------------------------
 328:system/system_LPC17xx.c **** */
 329:system/system_LPC17xx.c **** 
 330:system/system_LPC17xx.c **** /*----------------------------------------------------------------------------
 331:system/system_LPC17xx.c ****   Check the register settings
ARM GAS  C:\Users\COSMIN~1.MAR\AppData\Local\Temp\ccu2ktLo.s 			page 8


 332:system/system_LPC17xx.c ****  *----------------------------------------------------------------------------*/
 333:system/system_LPC17xx.c **** #define CHECK_RANGE(val, min, max)                ((val < min) || (val > max))
 334:system/system_LPC17xx.c **** #define CHECK_RSVD(val, mask)                     (val & mask)
 335:system/system_LPC17xx.c **** 
 336:system/system_LPC17xx.c **** /* Clock Configuration -------------------------------------------------------*/
 337:system/system_LPC17xx.c **** #if (CHECK_RSVD((SCS_Val),       ~0x00000030))
 338:system/system_LPC17xx.c ****    #error "SCS: Invalid values of reserved bits!"
 339:system/system_LPC17xx.c **** #endif
 340:system/system_LPC17xx.c **** 
 341:system/system_LPC17xx.c **** #if (CHECK_RANGE((CLKSRCSEL_Val), 0, 2))
 342:system/system_LPC17xx.c ****    #error "CLKSRCSEL: Value out of range!"
 343:system/system_LPC17xx.c **** #endif
 344:system/system_LPC17xx.c **** 
 345:system/system_LPC17xx.c **** #if (CHECK_RSVD((PLL0CFG_Val),   ~0x00FF7FFF))
 346:system/system_LPC17xx.c ****    #error "PLL0CFG: Invalid values of reserved bits!"
 347:system/system_LPC17xx.c **** #endif
 348:system/system_LPC17xx.c **** 
 349:system/system_LPC17xx.c **** #if (CHECK_RSVD((PLL1CFG_Val),   ~0x0000007F))
 350:system/system_LPC17xx.c ****    #error "PLL1CFG: Invalid values of reserved bits!"
 351:system/system_LPC17xx.c **** #endif
 352:system/system_LPC17xx.c **** 
 353:system/system_LPC17xx.c **** #if ((CCLKCFG_Val != 0) && (((CCLKCFG_Val - 1) % 2)))
 354:system/system_LPC17xx.c ****    #error "CCLKCFG: CCLKSEL field does not contain only odd values or 0!"
 355:system/system_LPC17xx.c **** #endif
 356:system/system_LPC17xx.c **** 
 357:system/system_LPC17xx.c **** #if (CHECK_RSVD((USBCLKCFG_Val), ~0x0000000F))
 358:system/system_LPC17xx.c ****    #error "USBCLKCFG: Invalid values of reserved bits!"
 359:system/system_LPC17xx.c **** #endif
 360:system/system_LPC17xx.c **** 
 361:system/system_LPC17xx.c **** #if (CHECK_RSVD((PCLKSEL0_Val),   0x000C0C00))
 362:system/system_LPC17xx.c ****    #error "PCLKSEL0: Invalid values of reserved bits!"
 363:system/system_LPC17xx.c **** #endif
 364:system/system_LPC17xx.c **** 
 365:system/system_LPC17xx.c **** #if (CHECK_RSVD((PCLKSEL1_Val),   0x03000300))
 366:system/system_LPC17xx.c ****    #error "PCLKSEL1: Invalid values of reserved bits!"
 367:system/system_LPC17xx.c **** #endif
 368:system/system_LPC17xx.c **** 
 369:system/system_LPC17xx.c **** #if (CHECK_RSVD((PCONP_Val),      0x10100821))
 370:system/system_LPC17xx.c ****    #error "PCONP: Invalid values of reserved bits!"
 371:system/system_LPC17xx.c **** #endif
 372:system/system_LPC17xx.c **** 
 373:system/system_LPC17xx.c **** #if (CHECK_RSVD((CLKOUTCFG_Val), ~0x000001FF))
 374:system/system_LPC17xx.c ****    #error "CLKOUTCFG: Invalid values of reserved bits!"
 375:system/system_LPC17xx.c **** #endif
 376:system/system_LPC17xx.c **** 
 377:system/system_LPC17xx.c **** /* Flash Accelerator Configuration -------------------------------------------*/
 378:system/system_LPC17xx.c **** #if (CHECK_RSVD((FLASHCFG_Val), ~0x0000F07F))
 379:system/system_LPC17xx.c ****    #error "FLASHCFG: Invalid values of reserved bits!"
 380:system/system_LPC17xx.c **** #endif
 381:system/system_LPC17xx.c **** 
 382:system/system_LPC17xx.c **** 
 383:system/system_LPC17xx.c **** /*----------------------------------------------------------------------------
 384:system/system_LPC17xx.c ****   DEFINES
 385:system/system_LPC17xx.c ****  *----------------------------------------------------------------------------*/
 386:system/system_LPC17xx.c **** 
 387:system/system_LPC17xx.c **** /*----------------------------------------------------------------------------
 388:system/system_LPC17xx.c ****   Define clocks
ARM GAS  C:\Users\COSMIN~1.MAR\AppData\Local\Temp\ccu2ktLo.s 			page 9


 389:system/system_LPC17xx.c ****  *----------------------------------------------------------------------------*/
 390:system/system_LPC17xx.c **** #define XTAL        (12000000UL)        /* Oscillator frequency               */
 391:system/system_LPC17xx.c **** #define OSC_CLK     (      XTAL)        /* Main oscillator frequency          */
 392:system/system_LPC17xx.c **** #define RTC_CLK     (   32768UL)        /* RTC oscillator frequency           */
 393:system/system_LPC17xx.c **** #define IRC_OSC     ( 4000000UL)        /* Internal RC oscillator frequency   */
 394:system/system_LPC17xx.c **** 
 395:system/system_LPC17xx.c **** 
 396:system/system_LPC17xx.c **** /* F_cco0 = (2 * M * F_in) / N  */
 397:system/system_LPC17xx.c **** #define __M               (((PLL0CFG_Val      ) & 0x7FFF) + 1)
 398:system/system_LPC17xx.c **** #define __N               (((PLL0CFG_Val >> 16) & 0x00FF) + 1)
 399:system/system_LPC17xx.c **** #define __FCCO(__F_IN)    ((2 * __M * __F_IN) / __N)
 400:system/system_LPC17xx.c **** #define __CCLK_DIV        (((CCLKCFG_Val      ) & 0x00FF) + 1)
 401:system/system_LPC17xx.c **** 
 402:system/system_LPC17xx.c **** /* Determine core clock frequency according to settings */
 403:system/system_LPC17xx.c ****  #if (PLL0_SETUP)
 404:system/system_LPC17xx.c ****     #if   ((CLKSRCSEL_Val & 0x03) == 1)
 405:system/system_LPC17xx.c ****         #define __CORE_CLK (__FCCO(OSC_CLK) / __CCLK_DIV)
 406:system/system_LPC17xx.c ****     #elif ((CLKSRCSEL_Val & 0x03) == 2)
 407:system/system_LPC17xx.c ****         #define __CORE_CLK (__FCCO(RTC_CLK) / __CCLK_DIV)
 408:system/system_LPC17xx.c ****     #else
 409:system/system_LPC17xx.c ****         #define __CORE_CLK (__FCCO(IRC_OSC) / __CCLK_DIV)
 410:system/system_LPC17xx.c ****     #endif
 411:system/system_LPC17xx.c ****  #else
 412:system/system_LPC17xx.c ****     #if   ((CLKSRCSEL_Val & 0x03) == 1)
 413:system/system_LPC17xx.c ****         #define __CORE_CLK (OSC_CLK         / __CCLK_DIV)
 414:system/system_LPC17xx.c ****     #elif ((CLKSRCSEL_Val & 0x03) == 2)
 415:system/system_LPC17xx.c ****         #define __CORE_CLK (RTC_CLK         / __CCLK_DIV)
 416:system/system_LPC17xx.c ****     #else
 417:system/system_LPC17xx.c ****         #define __CORE_CLK (IRC_OSC         / __CCLK_DIV)
 418:system/system_LPC17xx.c ****     #endif
 419:system/system_LPC17xx.c ****  #endif
 420:system/system_LPC17xx.c **** 
 421:system/system_LPC17xx.c ****  /**
 422:system/system_LPC17xx.c ****   * @}
 423:system/system_LPC17xx.c ****   */
 424:system/system_LPC17xx.c **** 
 425:system/system_LPC17xx.c **** 
 426:system/system_LPC17xx.c **** /** @addtogroup LPC17xx_System_Public_Variables  LPC17xx System Public Variables
 427:system/system_LPC17xx.c ****   @{
 428:system/system_LPC17xx.c ****  */
 429:system/system_LPC17xx.c **** /*----------------------------------------------------------------------------
 430:system/system_LPC17xx.c ****   Clock Variable definitions
 431:system/system_LPC17xx.c ****  *----------------------------------------------------------------------------*/
 432:system/system_LPC17xx.c **** uint32_t SystemCoreClock = __CORE_CLK;/*!< System Clock Frequency (Core Clock)*/
 433:system/system_LPC17xx.c **** 
 434:system/system_LPC17xx.c **** /**
 435:system/system_LPC17xx.c ****  * @}
 436:system/system_LPC17xx.c ****  */
 437:system/system_LPC17xx.c **** 
 438:system/system_LPC17xx.c **** 
 439:system/system_LPC17xx.c **** /** @addtogroup LPC17xx_System_Public_Functions  LPC17xx System Public Functions
 440:system/system_LPC17xx.c ****   @{
 441:system/system_LPC17xx.c ****  */
 442:system/system_LPC17xx.c **** 
 443:system/system_LPC17xx.c **** /*----------------------------------------------------------------------------
 444:system/system_LPC17xx.c ****   Clock functions
 445:system/system_LPC17xx.c ****  *----------------------------------------------------------------------------*/
ARM GAS  C:\Users\COSMIN~1.MAR\AppData\Local\Temp\ccu2ktLo.s 			page 10


 446:system/system_LPC17xx.c **** 
 447:system/system_LPC17xx.c **** 
 448:system/system_LPC17xx.c **** void SystemCoreClockUpdate (void)            /* Get Core Clock Frequency      */
 449:system/system_LPC17xx.c **** {
  69              		.loc 1 449 0
  70              		.cfi_startproc
  71              		@ args = 0, pretend = 0, frame = 0
  72              		@ frame_needed = 1, uses_anonymous_args = 0
  73              		@ link register save eliminated.
  74 0000 80B4     		push	{r7}	@
  75              		.cfi_def_cfa_offset 4
  76              		.cfi_offset 7, -4
  77 0002 00AF     		add	r7, sp, #0	@,,
  78              		.cfi_def_cfa_register 7
 450:system/system_LPC17xx.c ****   /* Determine clock frequency according to clock register values             */
 451:system/system_LPC17xx.c ****   if (((LPC_SC->PLL0STAT >> 24) & 3) == 3) { /* If PLL0 enabled and connected */
  79              		.loc 1 451 0
  80 0004 514B     		ldr	r3, .L13	@ D.5399,
  81 0006 D3F88830 		ldr	r3, [r3, #136]	@ D.5400, _1->PLL0STAT
  82 000a 1B0E     		lsrs	r3, r3, #24	@ D.5400, D.5400,
  83 000c 03F00303 		and	r3, r3, #3	@ D.5400, D.5400,
  84 0010 032B     		cmp	r3, #3	@ D.5400,
  85 0012 63D1     		bne	.L2	@,
 452:system/system_LPC17xx.c ****     switch (LPC_SC->CLKSRCSEL & 0x03) {
  86              		.loc 1 452 0
  87 0014 4D4B     		ldr	r3, .L13	@ D.5399,
  88 0016 D3F80C31 		ldr	r3, [r3, #268]	@ D.5400, _5->CLKSRCSEL
  89 001a 03F00303 		and	r3, r3, #3	@ D.5400, D.5400,
  90 001e 032B     		cmp	r3, #3	@ D.5400,
  91 0020 00F29080 		bhi	.L1	@
  92 0024 01A2     		adr	r2, .L5	@ tmp194,
  93 0026 52F823F0 		ldr	pc, [r2, r3, lsl #2]	@ tmp194, D.5400
  94 002a 00BF     		.p2align 2
  95              	.L5:
  96 002c 3D000000 		.word	.L4+1
  97 0030 73000000 		.word	.L6+1
  98 0034 A9000000 		.word	.L7+1
  99 0038 3D000000 		.word	.L4+1
 100              		.p2align 1
 101              	.L4:
 453:system/system_LPC17xx.c ****       case 0:                                /* Int. RC oscillator => PLL0    */
 454:system/system_LPC17xx.c ****       case 3:                                /* Reserved, default to Int. RC  */
 455:system/system_LPC17xx.c ****         SystemCoreClock = (IRC_OSC *
 456:system/system_LPC17xx.c ****                           ((2 * ((LPC_SC->PLL0STAT & 0x7FFF) + 1)))  /
 102              		.loc 1 456 0
 103 003c 434B     		ldr	r3, .L13	@ D.5399,
 104 003e D3F88830 		ldr	r3, [r3, #136]	@ D.5400, _8->PLL0STAT
 105 0042 C3F30E03 		ubfx	r3, r3, #0, #15	@ D.5400, D.5400,,
 455:system/system_LPC17xx.c ****                           ((2 * ((LPC_SC->PLL0STAT & 0x7FFF) + 1)))  /
 106              		.loc 1 455 0
 107 0046 0133     		adds	r3, r3, #1	@ D.5400, D.5400,
 108 0048 414A     		ldr	r2, .L13+4	@ tmp183,
 109 004a 02FB03F2 		mul	r2, r2, r3	@ D.5400, tmp183, D.5400
 457:system/system_LPC17xx.c ****                           (((LPC_SC->PLL0STAT >> 16) & 0xFF) + 1)    /
 110              		.loc 1 457 0
 111 004e 3F4B     		ldr	r3, .L13	@ D.5399,
 112 0050 D3F88830 		ldr	r3, [r3, #136]	@ D.5400, _13->PLL0STAT
ARM GAS  C:\Users\COSMIN~1.MAR\AppData\Local\Temp\ccu2ktLo.s 			page 11


 113 0054 1B0C     		lsrs	r3, r3, #16	@ D.5400, D.5400,
 114 0056 DBB2     		uxtb	r3, r3	@ D.5400, D.5400
 115 0058 0133     		adds	r3, r3, #1	@ D.5400, D.5400,
 456:system/system_LPC17xx.c ****                           (((LPC_SC->PLL0STAT >> 16) & 0xFF) + 1)    /
 116              		.loc 1 456 0
 117 005a B2FBF3F2 		udiv	r2, r2, r3	@ D.5400, D.5400, D.5400
 458:system/system_LPC17xx.c ****                           ((LPC_SC->CCLKCFG & 0xFF)+ 1));
 118              		.loc 1 458 0
 119 005e 3B4B     		ldr	r3, .L13	@ D.5399,
 120 0060 D3F80431 		ldr	r3, [r3, #260]	@ D.5400, _19->CCLKCFG
 121 0064 DBB2     		uxtb	r3, r3	@ D.5400, D.5400
 122 0066 0133     		adds	r3, r3, #1	@ D.5400, D.5400,
 457:system/system_LPC17xx.c ****                           (((LPC_SC->PLL0STAT >> 16) & 0xFF) + 1)    /
 123              		.loc 1 457 0
 124 0068 B2FBF3F3 		udiv	r3, r2, r3	@ D.5400, D.5400, D.5400
 455:system/system_LPC17xx.c ****                           ((2 * ((LPC_SC->PLL0STAT & 0x7FFF) + 1)))  /
 125              		.loc 1 455 0
 126 006c 394A     		ldr	r2, .L13+8	@ tmp184,
 127 006e 1360     		str	r3, [r2]	@ D.5400, SystemCoreClock
 459:system/system_LPC17xx.c ****         break;
 128              		.loc 1 459 0
 129 0070 33E0     		b	.L3	@
 130              	.L6:
 460:system/system_LPC17xx.c ****       case 1:                                /* Main oscillator => PLL0       */
 461:system/system_LPC17xx.c ****         SystemCoreClock = (OSC_CLK *
 462:system/system_LPC17xx.c ****                           ((2 * ((LPC_SC->PLL0STAT & 0x7FFF) + 1)))  /
 131              		.loc 1 462 0
 132 0072 364B     		ldr	r3, .L13	@ D.5399,
 133 0074 D3F88830 		ldr	r3, [r3, #136]	@ D.5400, _24->PLL0STAT
 134 0078 C3F30E03 		ubfx	r3, r3, #0, #15	@ D.5400, D.5400,,
 461:system/system_LPC17xx.c ****                           ((2 * ((LPC_SC->PLL0STAT & 0x7FFF) + 1)))  /
 135              		.loc 1 461 0
 136 007c 0133     		adds	r3, r3, #1	@ D.5400, D.5400,
 137 007e 364A     		ldr	r2, .L13+12	@ tmp185,
 138 0080 02FB03F2 		mul	r2, r2, r3	@ D.5400, tmp185, D.5400
 463:system/system_LPC17xx.c ****                           (((LPC_SC->PLL0STAT >> 16) & 0xFF) + 1)    /
 139              		.loc 1 463 0
 140 0084 314B     		ldr	r3, .L13	@ D.5399,
 141 0086 D3F88830 		ldr	r3, [r3, #136]	@ D.5400, _29->PLL0STAT
 142 008a 1B0C     		lsrs	r3, r3, #16	@ D.5400, D.5400,
 143 008c DBB2     		uxtb	r3, r3	@ D.5400, D.5400
 144 008e 0133     		adds	r3, r3, #1	@ D.5400, D.5400,
 462:system/system_LPC17xx.c ****                           (((LPC_SC->PLL0STAT >> 16) & 0xFF) + 1)    /
 145              		.loc 1 462 0
 146 0090 B2FBF3F2 		udiv	r2, r2, r3	@ D.5400, D.5400, D.5400
 464:system/system_LPC17xx.c ****                           ((LPC_SC->CCLKCFG & 0xFF)+ 1));
 147              		.loc 1 464 0
 148 0094 2D4B     		ldr	r3, .L13	@ D.5399,
 149 0096 D3F80431 		ldr	r3, [r3, #260]	@ D.5400, _35->CCLKCFG
 150 009a DBB2     		uxtb	r3, r3	@ D.5400, D.5400
 151 009c 0133     		adds	r3, r3, #1	@ D.5400, D.5400,
 463:system/system_LPC17xx.c ****                           (((LPC_SC->PLL0STAT >> 16) & 0xFF) + 1)    /
 152              		.loc 1 463 0
 153 009e B2FBF3F3 		udiv	r3, r2, r3	@ D.5400, D.5400, D.5400
 461:system/system_LPC17xx.c ****                           ((2 * ((LPC_SC->PLL0STAT & 0x7FFF) + 1)))  /
 154              		.loc 1 461 0
 155 00a2 2C4A     		ldr	r2, .L13+8	@ tmp186,
ARM GAS  C:\Users\COSMIN~1.MAR\AppData\Local\Temp\ccu2ktLo.s 			page 12


 156 00a4 1360     		str	r3, [r2]	@ D.5400, SystemCoreClock
 465:system/system_LPC17xx.c ****         break;
 157              		.loc 1 465 0
 158 00a6 18E0     		b	.L3	@
 159              	.L7:
 466:system/system_LPC17xx.c ****       case 2:                                /* RTC oscillator => PLL0        */
 467:system/system_LPC17xx.c ****         SystemCoreClock = (RTC_CLK *
 468:system/system_LPC17xx.c ****                           ((2 * ((LPC_SC->PLL0STAT & 0x7FFF) + 1)))  /
 160              		.loc 1 468 0
 161 00a8 284B     		ldr	r3, .L13	@ D.5399,
 162 00aa D3F88830 		ldr	r3, [r3, #136]	@ D.5400, _40->PLL0STAT
 163 00ae C3F30E03 		ubfx	r3, r3, #0, #15	@ D.5400, D.5400,,
 467:system/system_LPC17xx.c ****                           ((2 * ((LPC_SC->PLL0STAT & 0x7FFF) + 1)))  /
 164              		.loc 1 467 0
 165 00b2 0133     		adds	r3, r3, #1	@ D.5400, D.5400,
 166 00b4 1A04     		lsls	r2, r3, #16	@ D.5400, D.5400,
 469:system/system_LPC17xx.c ****                           (((LPC_SC->PLL0STAT >> 16) & 0xFF) + 1)    /
 167              		.loc 1 469 0
 168 00b6 254B     		ldr	r3, .L13	@ D.5399,
 169 00b8 D3F88830 		ldr	r3, [r3, #136]	@ D.5400, _45->PLL0STAT
 170 00bc 1B0C     		lsrs	r3, r3, #16	@ D.5400, D.5400,
 171 00be DBB2     		uxtb	r3, r3	@ D.5400, D.5400
 172 00c0 0133     		adds	r3, r3, #1	@ D.5400, D.5400,
 468:system/system_LPC17xx.c ****                           (((LPC_SC->PLL0STAT >> 16) & 0xFF) + 1)    /
 173              		.loc 1 468 0
 174 00c2 B2FBF3F2 		udiv	r2, r2, r3	@ D.5400, D.5400, D.5400
 470:system/system_LPC17xx.c ****                           ((LPC_SC->CCLKCFG & 0xFF)+ 1));
 175              		.loc 1 470 0
 176 00c6 214B     		ldr	r3, .L13	@ D.5399,
 177 00c8 D3F80431 		ldr	r3, [r3, #260]	@ D.5400, _51->CCLKCFG
 178 00cc DBB2     		uxtb	r3, r3	@ D.5400, D.5400
 179 00ce 0133     		adds	r3, r3, #1	@ D.5400, D.5400,
 469:system/system_LPC17xx.c ****                           (((LPC_SC->PLL0STAT >> 16) & 0xFF) + 1)    /
 180              		.loc 1 469 0
 181 00d0 B2FBF3F3 		udiv	r3, r2, r3	@ D.5400, D.5400, D.5400
 467:system/system_LPC17xx.c ****                           ((2 * ((LPC_SC->PLL0STAT & 0x7FFF) + 1)))  /
 182              		.loc 1 467 0
 183 00d4 1F4A     		ldr	r2, .L13+8	@ tmp187,
 184 00d6 1360     		str	r3, [r2]	@ D.5400, SystemCoreClock
 471:system/system_LPC17xx.c ****         break;
 185              		.loc 1 471 0
 186 00d8 00BF     		nop
 187              	.L3:
 188 00da 33E0     		b	.L1	@
 189              	.L2:
 472:system/system_LPC17xx.c ****     }
 473:system/system_LPC17xx.c ****   } else {
 474:system/system_LPC17xx.c ****     switch (LPC_SC->CLKSRCSEL & 0x03) {
 190              		.loc 1 474 0
 191 00dc 1B4B     		ldr	r3, .L13	@ D.5399,
 192 00de D3F80C31 		ldr	r3, [r3, #268]	@ D.5400, _56->CLKSRCSEL
 193 00e2 03F00303 		and	r3, r3, #3	@ D.5400, D.5400,
 194 00e6 032B     		cmp	r3, #3	@ D.5400,
 195 00e8 2CD8     		bhi	.L1	@
 196 00ea 01A2     		adr	r2, .L10	@ tmp195,
 197 00ec 52F823F0 		ldr	pc, [r2, r3, lsl #2]	@ tmp195, D.5400
 198              		.p2align 2
ARM GAS  C:\Users\COSMIN~1.MAR\AppData\Local\Temp\ccu2ktLo.s 			page 13


 199              	.L10:
 200 00f0 01010000 		.word	.L9+1
 201 00f4 17010000 		.word	.L11+1
 202 00f8 2D010000 		.word	.L12+1
 203 00fc 01010000 		.word	.L9+1
 204              		.p2align 1
 205              	.L9:
 475:system/system_LPC17xx.c ****       case 0:                                /* Int. RC oscillator => PLL0    */
 476:system/system_LPC17xx.c ****       case 3:                                /* Reserved, default to Int. RC  */
 477:system/system_LPC17xx.c ****         SystemCoreClock = IRC_OSC / ((LPC_SC->CCLKCFG & 0xFF)+ 1);
 206              		.loc 1 477 0
 207 0100 124B     		ldr	r3, .L13	@ D.5399,
 208 0102 D3F80431 		ldr	r3, [r3, #260]	@ D.5400, _59->CCLKCFG
 209 0106 DBB2     		uxtb	r3, r3	@ D.5400, D.5400
 210 0108 0133     		adds	r3, r3, #1	@ D.5400, D.5400,
 211 010a 144A     		ldr	r2, .L13+16	@ tmp188,
 212 010c B2FBF3F3 		udiv	r3, r2, r3	@ D.5400, tmp188, D.5400
 213 0110 104A     		ldr	r2, .L13+8	@ tmp189,
 214 0112 1360     		str	r3, [r2]	@ D.5400, SystemCoreClock
 478:system/system_LPC17xx.c ****         break;
 215              		.loc 1 478 0
 216 0114 16E0     		b	.L1	@
 217              	.L11:
 479:system/system_LPC17xx.c ****       case 1:                                /* Main oscillator => PLL0       */
 480:system/system_LPC17xx.c ****         SystemCoreClock = OSC_CLK / ((LPC_SC->CCLKCFG & 0xFF)+ 1);
 218              		.loc 1 480 0
 219 0116 0D4B     		ldr	r3, .L13	@ D.5399,
 220 0118 D3F80431 		ldr	r3, [r3, #260]	@ D.5400, _64->CCLKCFG
 221 011c DBB2     		uxtb	r3, r3	@ D.5400, D.5400
 222 011e 0133     		adds	r3, r3, #1	@ D.5400, D.5400,
 223 0120 0F4A     		ldr	r2, .L13+20	@ tmp190,
 224 0122 B2FBF3F3 		udiv	r3, r2, r3	@ D.5400, tmp190, D.5400
 225 0126 0B4A     		ldr	r2, .L13+8	@ tmp191,
 226 0128 1360     		str	r3, [r2]	@ D.5400, SystemCoreClock
 481:system/system_LPC17xx.c ****         break;
 227              		.loc 1 481 0
 228 012a 0BE0     		b	.L1	@
 229              	.L12:
 482:system/system_LPC17xx.c ****       case 2:                                /* RTC oscillator => PLL0        */
 483:system/system_LPC17xx.c ****         SystemCoreClock = RTC_CLK / ((LPC_SC->CCLKCFG & 0xFF)+ 1);
 230              		.loc 1 483 0
 231 012c 074B     		ldr	r3, .L13	@ D.5399,
 232 012e D3F80431 		ldr	r3, [r3, #260]	@ D.5400, _69->CCLKCFG
 233 0132 DBB2     		uxtb	r3, r3	@ D.5400, D.5400
 234 0134 0133     		adds	r3, r3, #1	@ D.5400, D.5400,
 235 0136 4FF40042 		mov	r2, #32768	@ tmp192,
 236 013a B2FBF3F3 		udiv	r3, r2, r3	@ D.5400, tmp192, D.5400
 237 013e 054A     		ldr	r2, .L13+8	@ tmp193,
 238 0140 1360     		str	r3, [r2]	@ D.5400, SystemCoreClock
 484:system/system_LPC17xx.c ****         break;
 239              		.loc 1 484 0
 240 0142 00BF     		nop
 241              	.L1:
 485:system/system_LPC17xx.c ****     }
 486:system/system_LPC17xx.c ****   }
 487:system/system_LPC17xx.c **** 
 488:system/system_LPC17xx.c **** }
ARM GAS  C:\Users\COSMIN~1.MAR\AppData\Local\Temp\ccu2ktLo.s 			page 14


 242              		.loc 1 488 0
 243 0144 BD46     		mov	sp, r7	@,
 244              		.cfi_def_cfa_register 13
 245              		@ sp needed	@
 246 0146 5DF8047B 		ldr	r7, [sp], #4	@,
 247              		.cfi_restore 7
 248              		.cfi_def_cfa_offset 0
 249 014a 7047     		bx	lr	@
 250              	.L14:
 251              		.align	2
 252              	.L13:
 253 014c 00C00F40 		.word	1074774016
 254 0150 00127A00 		.word	8000000
 255 0154 00000000 		.word	SystemCoreClock
 256 0158 00366E01 		.word	24000000
 257 015c 00093D00 		.word	4000000
 258 0160 001BB700 		.word	12000000
 259              		.cfi_endproc
 260              	.LFE55:
 261              		.size	SystemCoreClockUpdate, .-SystemCoreClockUpdate
 262              		.section	.text.SystemInit,"ax",%progbits
 263              		.align	2
 264              		.global	SystemInit
 265              		.thumb
 266              		.thumb_func
 267              		.type	SystemInit, %function
 268              	SystemInit:
 269              	.LFB56:
 489:system/system_LPC17xx.c **** 
 490:system/system_LPC17xx.c **** /**
 491:system/system_LPC17xx.c ****  * Initialize the system
 492:system/system_LPC17xx.c ****  *
 493:system/system_LPC17xx.c ****  * @param  none
 494:system/system_LPC17xx.c ****  * @return none
 495:system/system_LPC17xx.c ****  *
 496:system/system_LPC17xx.c ****  * @brief  Setup the microcontroller system.
 497:system/system_LPC17xx.c ****  *         Initialize the System.
 498:system/system_LPC17xx.c ****  */
 499:system/system_LPC17xx.c **** void SystemInit (void)
 500:system/system_LPC17xx.c **** {
 270              		.loc 1 500 0
 271              		.cfi_startproc
 272              		@ args = 0, pretend = 0, frame = 0
 273              		@ frame_needed = 1, uses_anonymous_args = 0
 274              		@ link register save eliminated.
 275 0000 80B4     		push	{r7}	@
 276              		.cfi_def_cfa_offset 4
 277              		.cfi_offset 7, -4
 278 0002 00AF     		add	r7, sp, #0	@,,
 279              		.cfi_def_cfa_register 7
 501:system/system_LPC17xx.c **** #if (CLOCK_SETUP)                       /* Clock Setup                        */
 502:system/system_LPC17xx.c ****   LPC_SC->SCS       = SCS_Val;
 280              		.loc 1 502 0
 281 0004 4E4B     		ldr	r3, .L22	@ D.5401,
 282 0006 2022     		movs	r2, #32	@ tmp155,
 283 0008 C3F8A021 		str	r2, [r3, #416]	@ tmp155, _1->SCS
 503:system/system_LPC17xx.c ****   if (LPC_SC->SCS & (1 << 5)) {             /* If Main Oscillator is enabled  */
ARM GAS  C:\Users\COSMIN~1.MAR\AppData\Local\Temp\ccu2ktLo.s 			page 15


 284              		.loc 1 503 0
 285 000c 4C4B     		ldr	r3, .L22	@ D.5401,
 286 000e D3F8A031 		ldr	r3, [r3, #416]	@ D.5402, _2->SCS
 287 0012 03F02003 		and	r3, r3, #32	@ D.5402, D.5402,
 288 0016 002B     		cmp	r3, #0	@ D.5402,
 289 0018 07D0     		beq	.L16	@,
 504:system/system_LPC17xx.c ****     while ((LPC_SC->SCS & (1<<6)) == 0);/* Wait for Oscillator to be ready    */
 290              		.loc 1 504 0
 291 001a 00BF     		nop
 292              	.L17:
 293              		.loc 1 504 0 is_stmt 0 discriminator 1
 294 001c 484B     		ldr	r3, .L22	@ D.5401,
 295 001e D3F8A031 		ldr	r3, [r3, #416]	@ D.5402, _5->SCS
 296 0022 03F04003 		and	r3, r3, #64	@ D.5402, D.5402,
 297 0026 002B     		cmp	r3, #0	@ D.5402,
 298 0028 F8D0     		beq	.L17	@,
 299              	.L16:
 505:system/system_LPC17xx.c ****   }
 506:system/system_LPC17xx.c **** 
 507:system/system_LPC17xx.c ****   LPC_SC->CCLKCFG   = CCLKCFG_Val;      /* Setup Clock Divider                */
 300              		.loc 1 507 0 is_stmt 1
 301 002a 454B     		ldr	r3, .L22	@ D.5401,
 302 002c 0322     		movs	r2, #3	@ tmp156,
 303 002e C3F80421 		str	r2, [r3, #260]	@ tmp156, _8->CCLKCFG
 508:system/system_LPC17xx.c ****   /* Periphral clock must be selected before PLL0 enabling and connecting
 509:system/system_LPC17xx.c ****    * - according errata.lpc1768-16.March.2010 -
 510:system/system_LPC17xx.c ****    */
 511:system/system_LPC17xx.c ****   LPC_SC->PCLKSEL0  = PCLKSEL0_Val;     /* Peripheral Clock Selection         */
 304              		.loc 1 511 0
 305 0032 434B     		ldr	r3, .L22	@ D.5401,
 306 0034 0022     		movs	r2, #0	@ tmp157,
 307 0036 C3F8A821 		str	r2, [r3, #424]	@ tmp157, _9->PCLKSEL0
 512:system/system_LPC17xx.c ****   LPC_SC->PCLKSEL1  = PCLKSEL1_Val;
 308              		.loc 1 512 0
 309 003a 414B     		ldr	r3, .L22	@ D.5401,
 310 003c 0022     		movs	r2, #0	@ tmp158,
 311 003e C3F8AC21 		str	r2, [r3, #428]	@ tmp158, _10->PCLKSEL1
 513:system/system_LPC17xx.c **** 
 514:system/system_LPC17xx.c **** #if (PLL0_SETUP)
 515:system/system_LPC17xx.c ****   LPC_SC->CLKSRCSEL = CLKSRCSEL_Val;    /* Select Clock Source for PLL0       */
 312              		.loc 1 515 0
 313 0042 3F4B     		ldr	r3, .L22	@ D.5401,
 314 0044 0122     		movs	r2, #1	@ tmp159,
 315 0046 C3F80C21 		str	r2, [r3, #268]	@ tmp159, _11->CLKSRCSEL
 516:system/system_LPC17xx.c **** 
 517:system/system_LPC17xx.c ****   LPC_SC->PLL0CFG   = PLL0CFG_Val;      /* configure PLL0                     */
 316              		.loc 1 517 0
 317 004a 3D4B     		ldr	r3, .L22	@ D.5401,
 318 004c 3D4A     		ldr	r2, .L22+4	@ tmp160,
 319 004e C3F88420 		str	r2, [r3, #132]	@ tmp160, _12->PLL0CFG
 518:system/system_LPC17xx.c ****   LPC_SC->PLL0FEED  = 0xAA;
 320              		.loc 1 518 0
 321 0052 3B4B     		ldr	r3, .L22	@ D.5401,
 322 0054 AA22     		movs	r2, #170	@ tmp161,
 323 0056 C3F88C20 		str	r2, [r3, #140]	@ tmp161, _13->PLL0FEED
 519:system/system_LPC17xx.c ****   LPC_SC->PLL0FEED  = 0x55;
 324              		.loc 1 519 0
ARM GAS  C:\Users\COSMIN~1.MAR\AppData\Local\Temp\ccu2ktLo.s 			page 16


 325 005a 394B     		ldr	r3, .L22	@ D.5401,
 326 005c 5522     		movs	r2, #85	@ tmp162,
 327 005e C3F88C20 		str	r2, [r3, #140]	@ tmp162, _14->PLL0FEED
 520:system/system_LPC17xx.c **** 
 521:system/system_LPC17xx.c ****   LPC_SC->PLL0CON   = 0x01;             /* PLL0 Enable                        */
 328              		.loc 1 521 0
 329 0062 374B     		ldr	r3, .L22	@ D.5401,
 330 0064 0122     		movs	r2, #1	@ tmp163,
 331 0066 C3F88020 		str	r2, [r3, #128]	@ tmp163, _15->PLL0CON
 522:system/system_LPC17xx.c ****   LPC_SC->PLL0FEED  = 0xAA;
 332              		.loc 1 522 0
 333 006a 354B     		ldr	r3, .L22	@ D.5401,
 334 006c AA22     		movs	r2, #170	@ tmp164,
 335 006e C3F88C20 		str	r2, [r3, #140]	@ tmp164, _16->PLL0FEED
 523:system/system_LPC17xx.c ****   LPC_SC->PLL0FEED  = 0x55;
 336              		.loc 1 523 0
 337 0072 334B     		ldr	r3, .L22	@ D.5401,
 338 0074 5522     		movs	r2, #85	@ tmp165,
 339 0076 C3F88C20 		str	r2, [r3, #140]	@ tmp165, _17->PLL0FEED
 524:system/system_LPC17xx.c ****   while (!(LPC_SC->PLL0STAT & (1<<26)));/* Wait for PLOCK0                    */
 340              		.loc 1 524 0
 341 007a 00BF     		nop
 342              	.L18:
 343              		.loc 1 524 0 is_stmt 0 discriminator 1
 344 007c 304B     		ldr	r3, .L22	@ D.5401,
 345 007e D3F88830 		ldr	r3, [r3, #136]	@ D.5402, _18->PLL0STAT
 346 0082 03F08063 		and	r3, r3, #67108864	@ D.5402, D.5402,
 347 0086 002B     		cmp	r3, #0	@ D.5402,
 348 0088 F8D0     		beq	.L18	@,
 525:system/system_LPC17xx.c **** 
 526:system/system_LPC17xx.c ****   LPC_SC->PLL0CON   = 0x03;             /* PLL0 Enable & Connect              */
 349              		.loc 1 526 0 is_stmt 1
 350 008a 2D4B     		ldr	r3, .L22	@ D.5401,
 351 008c 0322     		movs	r2, #3	@ tmp166,
 352 008e C3F88020 		str	r2, [r3, #128]	@ tmp166, _21->PLL0CON
 527:system/system_LPC17xx.c ****   LPC_SC->PLL0FEED  = 0xAA;
 353              		.loc 1 527 0
 354 0092 2B4B     		ldr	r3, .L22	@ D.5401,
 355 0094 AA22     		movs	r2, #170	@ tmp167,
 356 0096 C3F88C20 		str	r2, [r3, #140]	@ tmp167, _22->PLL0FEED
 528:system/system_LPC17xx.c ****   LPC_SC->PLL0FEED  = 0x55;
 357              		.loc 1 528 0
 358 009a 294B     		ldr	r3, .L22	@ D.5401,
 359 009c 5522     		movs	r2, #85	@ tmp168,
 360 009e C3F88C20 		str	r2, [r3, #140]	@ tmp168, _23->PLL0FEED
 529:system/system_LPC17xx.c ****   while (!(LPC_SC->PLL0STAT & ((1<<25) | (1<<24))));/* Wait for PLLC0_STAT & PLLE0_STAT */
 361              		.loc 1 529 0
 362 00a2 00BF     		nop
 363              	.L19:
 364              		.loc 1 529 0 is_stmt 0 discriminator 1
 365 00a4 264B     		ldr	r3, .L22	@ D.5401,
 366 00a6 D3F88830 		ldr	r3, [r3, #136]	@ D.5402, _24->PLL0STAT
 367 00aa 03F04073 		and	r3, r3, #50331648	@ D.5402, D.5402,
 368 00ae 002B     		cmp	r3, #0	@ D.5402,
 369 00b0 F8D0     		beq	.L19	@,
 530:system/system_LPC17xx.c **** #endif
 531:system/system_LPC17xx.c **** 
ARM GAS  C:\Users\COSMIN~1.MAR\AppData\Local\Temp\ccu2ktLo.s 			page 17


 532:system/system_LPC17xx.c **** #if (PLL1_SETUP)
 533:system/system_LPC17xx.c ****   LPC_SC->PLL1CFG   = PLL1CFG_Val;
 370              		.loc 1 533 0 is_stmt 1
 371 00b2 234B     		ldr	r3, .L22	@ D.5401,
 372 00b4 2322     		movs	r2, #35	@ tmp169,
 373 00b6 C3F8A420 		str	r2, [r3, #164]	@ tmp169, _27->PLL1CFG
 534:system/system_LPC17xx.c ****   LPC_SC->PLL1FEED  = 0xAA;
 374              		.loc 1 534 0
 375 00ba 214B     		ldr	r3, .L22	@ D.5401,
 376 00bc AA22     		movs	r2, #170	@ tmp170,
 377 00be C3F8AC20 		str	r2, [r3, #172]	@ tmp170, _28->PLL1FEED
 535:system/system_LPC17xx.c ****   LPC_SC->PLL1FEED  = 0x55;
 378              		.loc 1 535 0
 379 00c2 1F4B     		ldr	r3, .L22	@ D.5401,
 380 00c4 5522     		movs	r2, #85	@ tmp171,
 381 00c6 C3F8AC20 		str	r2, [r3, #172]	@ tmp171, _29->PLL1FEED
 536:system/system_LPC17xx.c **** 
 537:system/system_LPC17xx.c ****   LPC_SC->PLL1CON   = 0x01;             /* PLL1 Enable                        */
 382              		.loc 1 537 0
 383 00ca 1D4B     		ldr	r3, .L22	@ D.5401,
 384 00cc 0122     		movs	r2, #1	@ tmp172,
 385 00ce C3F8A020 		str	r2, [r3, #160]	@ tmp172, _30->PLL1CON
 538:system/system_LPC17xx.c ****   LPC_SC->PLL1FEED  = 0xAA;
 386              		.loc 1 538 0
 387 00d2 1B4B     		ldr	r3, .L22	@ D.5401,
 388 00d4 AA22     		movs	r2, #170	@ tmp173,
 389 00d6 C3F8AC20 		str	r2, [r3, #172]	@ tmp173, _31->PLL1FEED
 539:system/system_LPC17xx.c ****   LPC_SC->PLL1FEED  = 0x55;
 390              		.loc 1 539 0
 391 00da 194B     		ldr	r3, .L22	@ D.5401,
 392 00dc 5522     		movs	r2, #85	@ tmp174,
 393 00de C3F8AC20 		str	r2, [r3, #172]	@ tmp174, _32->PLL1FEED
 540:system/system_LPC17xx.c ****   while (!(LPC_SC->PLL1STAT & (1<<10)));/* Wait for PLOCK1                    */
 394              		.loc 1 540 0
 395 00e2 00BF     		nop
 396              	.L20:
 397              		.loc 1 540 0 is_stmt 0 discriminator 1
 398 00e4 164B     		ldr	r3, .L22	@ D.5401,
 399 00e6 D3F8A830 		ldr	r3, [r3, #168]	@ D.5402, _33->PLL1STAT
 400 00ea 03F48063 		and	r3, r3, #1024	@ D.5402, D.5402,
 401 00ee 002B     		cmp	r3, #0	@ D.5402,
 402 00f0 F8D0     		beq	.L20	@,
 541:system/system_LPC17xx.c **** 
 542:system/system_LPC17xx.c ****   LPC_SC->PLL1CON   = 0x03;             /* PLL1 Enable & Connect              */
 403              		.loc 1 542 0 is_stmt 1
 404 00f2 134B     		ldr	r3, .L22	@ D.5401,
 405 00f4 0322     		movs	r2, #3	@ tmp175,
 406 00f6 C3F8A020 		str	r2, [r3, #160]	@ tmp175, _36->PLL1CON
 543:system/system_LPC17xx.c ****   LPC_SC->PLL1FEED  = 0xAA;
 407              		.loc 1 543 0
 408 00fa 114B     		ldr	r3, .L22	@ D.5401,
 409 00fc AA22     		movs	r2, #170	@ tmp176,
 410 00fe C3F8AC20 		str	r2, [r3, #172]	@ tmp176, _37->PLL1FEED
 544:system/system_LPC17xx.c ****   LPC_SC->PLL1FEED  = 0x55;
 411              		.loc 1 544 0
 412 0102 0F4B     		ldr	r3, .L22	@ D.5401,
 413 0104 5522     		movs	r2, #85	@ tmp177,
ARM GAS  C:\Users\COSMIN~1.MAR\AppData\Local\Temp\ccu2ktLo.s 			page 18


 414 0106 C3F8AC20 		str	r2, [r3, #172]	@ tmp177, _38->PLL1FEED
 545:system/system_LPC17xx.c ****   while (!(LPC_SC->PLL1STAT & ((1<< 9) | (1<< 8))));/* Wait for PLLC1_STAT & PLLE1_STAT */
 415              		.loc 1 545 0
 416 010a 00BF     		nop
 417              	.L21:
 418              		.loc 1 545 0 is_stmt 0 discriminator 1
 419 010c 0C4B     		ldr	r3, .L22	@ D.5401,
 420 010e D3F8A830 		ldr	r3, [r3, #168]	@ D.5402, _39->PLL1STAT
 421 0112 03F44073 		and	r3, r3, #768	@ D.5402, D.5402,
 422 0116 002B     		cmp	r3, #0	@ D.5402,
 423 0118 F8D0     		beq	.L21	@,
 546:system/system_LPC17xx.c **** #else
 547:system/system_LPC17xx.c ****   LPC_SC->USBCLKCFG = USBCLKCFG_Val;    /* Setup USB Clock Divider            */
 548:system/system_LPC17xx.c **** #endif
 549:system/system_LPC17xx.c ****   LPC_SC->PCONP     = PCONP_Val;        /* Power Control for Peripherals      */
 424              		.loc 1 549 0 is_stmt 1
 425 011a 094B     		ldr	r3, .L22	@ D.5401,
 426 011c 0A4A     		ldr	r2, .L22+8	@ tmp178,
 427 011e C3F8C420 		str	r2, [r3, #196]	@ tmp178, _42->PCONP
 550:system/system_LPC17xx.c **** 
 551:system/system_LPC17xx.c ****   LPC_SC->CLKOUTCFG = CLKOUTCFG_Val;    /* Clock Output Configuration         */
 428              		.loc 1 551 0
 429 0122 074B     		ldr	r3, .L22	@ D.5401,
 430 0124 0022     		movs	r2, #0	@ tmp179,
 431 0126 C3F8C821 		str	r2, [r3, #456]	@ tmp179, _43->CLKOUTCFG
 552:system/system_LPC17xx.c **** #endif
 553:system/system_LPC17xx.c **** 
 554:system/system_LPC17xx.c **** #if (FLASH_SETUP == 1)                  /* Flash Accelerator Setup            */
 555:system/system_LPC17xx.c ****   LPC_SC->FLASHCFG  = FLASHCFG_Val;
 432              		.loc 1 555 0
 433 012a 054B     		ldr	r3, .L22	@ D.5401,
 434 012c 43F23A02 		movw	r2, #12346	@ tmp180,
 435 0130 1A60     		str	r2, [r3]	@ tmp180, _44->FLASHCFG
 556:system/system_LPC17xx.c **** #endif
 557:system/system_LPC17xx.c **** 
 558:system/system_LPC17xx.c **** //  Set Vector table offset value
 559:system/system_LPC17xx.c **** #if (__RAM_MODE__==1)
 560:system/system_LPC17xx.c ****   SCB->VTOR  = 0x10000000 & 0x3FFFFF80;
 561:system/system_LPC17xx.c **** #else
 562:system/system_LPC17xx.c ****   SCB->VTOR  = 0x00000000 & 0x3FFFFF80;
 436              		.loc 1 562 0
 437 0132 064B     		ldr	r3, .L22+12	@ D.5403,
 438 0134 0022     		movs	r2, #0	@ tmp181,
 439 0136 9A60     		str	r2, [r3, #8]	@ tmp181, _45->VTOR
 563:system/system_LPC17xx.c **** #endif
 564:system/system_LPC17xx.c **** }
 440              		.loc 1 564 0
 441 0138 BD46     		mov	sp, r7	@,
 442              		.cfi_def_cfa_register 13
 443              		@ sp needed	@
 444 013a 5DF8047B 		ldr	r7, [sp], #4	@,
 445              		.cfi_restore 7
 446              		.cfi_def_cfa_offset 0
 447 013e 7047     		bx	lr	@
 448              	.L23:
 449              		.align	2
 450              	.L22:
ARM GAS  C:\Users\COSMIN~1.MAR\AppData\Local\Temp\ccu2ktLo.s 			page 19


 451 0140 00C00F40 		.word	1074774016
 452 0144 63000500 		.word	327779
 453 0148 DE872804 		.word	69765086
 454 014c 00ED00E0 		.word	-536810240
 455              		.cfi_endproc
 456              	.LFE56:
 457              		.size	SystemInit, .-SystemInit
 458              		.text
 459              	.Letext0:
 460              		.file 2 "c:\\gnu tools arm embedded\\4.9 2015q1\\arm-none-eabi\\include\\machine\\_default_types.h
 461              		.file 3 "c:\\gnu tools arm embedded\\4.9 2015q1\\arm-none-eabi\\include\\stdint.h"
 462              		.file 4 "system/core_cm3.h"
 463              		.file 5 "system/LPC17xx.h"