ARM GAS  C:\Users\STUDENT\AppData\Local\Temp\ccRbxq9b.s 			page 1


   1              		.syntax unified
   2              		.cpu cortex-m3
   3              		.fpu softvfp
   4              		.eabi_attribute 20, 1	@ Tag_ABI_FP_denormal
   5              		.eabi_attribute 21, 1	@ Tag_ABI_FP_exceptions
   6              		.eabi_attribute 23, 3	@ Tag_ABI_FP_number_model
   7              		.eabi_attribute 24, 1	@ Tag_ABI_align8_needed
   8              		.eabi_attribute 25, 1	@ Tag_ABI_align8_preserved
   9              		.eabi_attribute 26, 1	@ Tag_ABI_enum_size
  10              		.eabi_attribute 30, 6	@ Tag_ABI_optimization_goals
  11              		.eabi_attribute 34, 1	@ Tag_CPU_unaligned_access
  12              		.eabi_attribute 18, 4	@ Tag_ABI_PCS_wchar_t
  13              		.file	"tasks.c"
  14              	@ GNU C89 (GNU Tools for ARM Embedded Processors) version 5.4.1 20160919 (release) [ARM/embedded-5-
  15              	@	compiled by GNU C version 4.7.4, GMP version 4.3.2, MPFR version 2.4.2, MPC version 0.8.1
  16              	@ GGC heuristics: --param ggc-min-expand=100 --param ggc-min-heapsize=131072
  17              	@ options passed:  -I . -I config -I system -I core -I drivers -I FreeRTOS
  18              	@ -I FreeRTOS/include -I FreeRTOS/portable/GCC/ARM_CM3 -I FreeRTOS/portable
  19              	@ -I tasks/rc_task_leds -I modules/rc_leds -I drivers/rc_system
  20              	@ -I drivers/rc_gpio -I drivers/rc_uart -I drivers/rc_pinsel
  21              	@ -I drivers/rc_timer -I drivers/rc_adc -imultilib armv7-m
  22              	@ -iprefix c:\program files (x86)\gnu tools arm embedded\5.4 2016q3\bin\../lib/gcc/arm-none-eabi/5.
  23              	@ -isysroot c:\program files (x86)\gnu tools arm embedded\5.4 2016q3\bin\../arm-none-eabi
  24              	@ -MD out/tasks.d -MF out/tasks.d -MP -MQ out/tasks.o -D__USES_INITFINI__
  25              	@ FreeRTOS/tasks.c -mcpu=cortex-m3 -mthumb -auxbase-strip out/tasks.o -g
  26              	@ -ggdb3 -O0 -Wall -Wstrict-prototypes -Wextra -std=gnu90
  27              	@ -ffunction-sections -fdata-sections -fverbose-asm
  28              	@ options enabled:  -faggressive-loop-optimizations -fauto-inc-dec
  29              	@ -fchkp-check-incomplete-type -fchkp-check-read -fchkp-check-write
  30              	@ -fchkp-instrument-calls -fchkp-narrow-bounds -fchkp-optimize
  31              	@ -fchkp-store-bounds -fchkp-use-static-bounds
  32              	@ -fchkp-use-static-const-bounds -fchkp-use-wrappers -fcommon
  33              	@ -fdata-sections -fdelete-null-pointer-checks -fdwarf2-cfi-asm
  34              	@ -fearly-inlining -feliminate-unused-debug-types -ffunction-cse
  35              	@ -ffunction-sections -fgcse-lm -fgnu-runtime -fgnu-unique -fident
  36              	@ -finline-atomics -fira-hoist-pressure -fira-share-save-slots
  37              	@ -fira-share-spill-slots -fivopts -fkeep-static-consts
  38              	@ -fleading-underscore -flifetime-dse -flto-odr-type-merging -fmath-errno
  39              	@ -fmerge-debug-strings -fpeephole -fprefetch-loop-arrays
  40              	@ -freg-struct-return -fsched-critical-path-heuristic
  41              	@ -fsched-dep-count-heuristic -fsched-group-heuristic -fsched-interblock
  42              	@ -fsched-last-insn-heuristic -fsched-rank-heuristic -fsched-spec
  43              	@ -fsched-spec-insn-heuristic -fsched-stalled-insns-dep
  44              	@ -fsemantic-interposition -fshow-column -fsigned-zeros
  45              	@ -fsplit-ivs-in-unroller -fstdarg-opt -fstrict-volatile-bitfields
  46              	@ -fsync-libcalls -ftrapping-math -ftree-coalesce-vars -ftree-cselim
  47              	@ -ftree-forwprop -ftree-loop-if-convert -ftree-loop-im -ftree-loop-ivcanon
  48              	@ -ftree-loop-optimize -ftree-parallelize-loops= -ftree-phiprop
  49              	@ -ftree-reassoc -ftree-scev-cprop -funit-at-a-time -fverbose-asm
  50              	@ -fzero-initialized-in-bss -masm-syntax-unified -mfix-cortex-m3-ldrd
  51              	@ -mlittle-endian -mpic-data-is-text-relative -msched-prolog -mthumb
  52              	@ -munaligned-access -mvectorize-with-neon-quad
  53              	
  54              		.text
  55              	.Ltext0:
  56              		.cfi_sections	.debug_frame
  57              		.global	pxCurrentTCB
ARM GAS  C:\Users\STUDENT\AppData\Local\Temp\ccRbxq9b.s 			page 2


  58              		.section	.bss.pxCurrentTCB,"aw",%nobits
  59              		.align	2
  60              		.type	pxCurrentTCB, %object
  61              		.size	pxCurrentTCB, 4
  62              	pxCurrentTCB:
  63 0000 00000000 		.space	4
  64              		.section	.bss.pxReadyTasksLists,"aw",%nobits
  65              		.align	2
  66              		.type	pxReadyTasksLists, %object
  67              		.size	pxReadyTasksLists, 160
  68              	pxReadyTasksLists:
  69 0000 00000000 		.space	160
  69      00000000 
  69      00000000 
  69      00000000 
  69      00000000 
  70              		.section	.bss.xDelayedTaskList1,"aw",%nobits
  71              		.align	2
  72              		.type	xDelayedTaskList1, %object
  73              		.size	xDelayedTaskList1, 20
  74              	xDelayedTaskList1:
  75 0000 00000000 		.space	20
  75      00000000 
  75      00000000 
  75      00000000 
  75      00000000 
  76              		.section	.bss.xDelayedTaskList2,"aw",%nobits
  77              		.align	2
  78              		.type	xDelayedTaskList2, %object
  79              		.size	xDelayedTaskList2, 20
  80              	xDelayedTaskList2:
  81 0000 00000000 		.space	20
  81      00000000 
  81      00000000 
  81      00000000 
  81      00000000 
  82              		.section	.bss.pxDelayedTaskList,"aw",%nobits
  83              		.align	2
  84              		.type	pxDelayedTaskList, %object
  85              		.size	pxDelayedTaskList, 4
  86              	pxDelayedTaskList:
  87 0000 00000000 		.space	4
  88              		.section	.bss.pxOverflowDelayedTaskList,"aw",%nobits
  89              		.align	2
  90              		.type	pxOverflowDelayedTaskList, %object
  91              		.size	pxOverflowDelayedTaskList, 4
  92              	pxOverflowDelayedTaskList:
  93 0000 00000000 		.space	4
  94              		.section	.bss.xPendingReadyList,"aw",%nobits
  95              		.align	2
  96              		.type	xPendingReadyList, %object
  97              		.size	xPendingReadyList, 20
  98              	xPendingReadyList:
  99 0000 00000000 		.space	20
  99      00000000 
  99      00000000 
  99      00000000 
ARM GAS  C:\Users\STUDENT\AppData\Local\Temp\ccRbxq9b.s 			page 3


  99      00000000 
 100              		.section	.bss.xTasksWaitingTermination,"aw",%nobits
 101              		.align	2
 102              		.type	xTasksWaitingTermination, %object
 103              		.size	xTasksWaitingTermination, 20
 104              	xTasksWaitingTermination:
 105 0000 00000000 		.space	20
 105      00000000 
 105      00000000 
 105      00000000 
 105      00000000 
 106              		.section	.bss.uxTasksDeleted,"aw",%nobits
 107              		.align	2
 108              		.type	uxTasksDeleted, %object
 109              		.size	uxTasksDeleted, 4
 110              	uxTasksDeleted:
 111 0000 00000000 		.space	4
 112              		.section	.bss.xSuspendedTaskList,"aw",%nobits
 113              		.align	2
 114              		.type	xSuspendedTaskList, %object
 115              		.size	xSuspendedTaskList, 20
 116              	xSuspendedTaskList:
 117 0000 00000000 		.space	20
 117      00000000 
 117      00000000 
 117      00000000 
 117      00000000 
 118              		.section	.bss.uxCurrentNumberOfTasks,"aw",%nobits
 119              		.align	2
 120              		.type	uxCurrentNumberOfTasks, %object
 121              		.size	uxCurrentNumberOfTasks, 4
 122              	uxCurrentNumberOfTasks:
 123 0000 00000000 		.space	4
 124              		.section	.bss.xTickCount,"aw",%nobits
 125              		.align	2
 126              		.type	xTickCount, %object
 127              		.size	xTickCount, 4
 128              	xTickCount:
 129 0000 00000000 		.space	4
 130              		.section	.bss.uxTopReadyPriority,"aw",%nobits
 131              		.align	2
 132              		.type	uxTopReadyPriority, %object
 133              		.size	uxTopReadyPriority, 4
 134              	uxTopReadyPriority:
 135 0000 00000000 		.space	4
 136              		.section	.bss.xSchedulerRunning,"aw",%nobits
 137              		.align	2
 138              		.type	xSchedulerRunning, %object
 139              		.size	xSchedulerRunning, 4
 140              	xSchedulerRunning:
 141 0000 00000000 		.space	4
 142              		.section	.bss.uxPendedTicks,"aw",%nobits
 143              		.align	2
 144              		.type	uxPendedTicks, %object
 145              		.size	uxPendedTicks, 4
 146              	uxPendedTicks:
 147 0000 00000000 		.space	4
ARM GAS  C:\Users\STUDENT\AppData\Local\Temp\ccRbxq9b.s 			page 4


 148              		.section	.bss.xYieldPending,"aw",%nobits
 149              		.align	2
 150              		.type	xYieldPending, %object
 151              		.size	xYieldPending, 4
 152              	xYieldPending:
 153 0000 00000000 		.space	4
 154              		.section	.bss.xNumOfOverflows,"aw",%nobits
 155              		.align	2
 156              		.type	xNumOfOverflows, %object
 157              		.size	xNumOfOverflows, 4
 158              	xNumOfOverflows:
 159 0000 00000000 		.space	4
 160              		.section	.bss.uxTaskNumber,"aw",%nobits
 161              		.align	2
 162              		.type	uxTaskNumber, %object
 163              		.size	uxTaskNumber, 4
 164              	uxTaskNumber:
 165 0000 00000000 		.space	4
 166              		.section	.data.xNextTaskUnblockTime,"aw",%progbits
 167              		.align	2
 168              		.type	xNextTaskUnblockTime, %object
 169              		.size	xNextTaskUnblockTime, 4
 170              	xNextTaskUnblockTime:
 171 0000 FFFFFFFF 		.word	-1
 172              		.section	.bss.uxSchedulerSuspended,"aw",%nobits
 173              		.align	2
 174              		.type	uxSchedulerSuspended, %object
 175              		.size	uxSchedulerSuspended, 4
 176              	uxSchedulerSuspended:
 177 0000 00000000 		.space	4
 178              		.section	.text.xTaskGenericCreate,"ax",%progbits
 179              		.align	2
 180              		.global	xTaskGenericCreate
 181              		.thumb
 182              		.thumb_func
 183              		.type	xTaskGenericCreate, %function
 184              	xTaskGenericCreate:
 185              	.LFB1:
 186              		.file 1 "FreeRTOS/tasks.c"
   1:FreeRTOS/tasks.c **** /*
   2:FreeRTOS/tasks.c ****     FreeRTOS V8.1.2 - Copyright (C) 2014 Real Time Engineers Ltd.
   3:FreeRTOS/tasks.c ****     All rights reserved
   4:FreeRTOS/tasks.c **** 
   5:FreeRTOS/tasks.c ****     VISIT http://www.FreeRTOS.org TO ENSURE YOU ARE USING THE LATEST VERSION.
   6:FreeRTOS/tasks.c **** 
   7:FreeRTOS/tasks.c ****     ***************************************************************************
   8:FreeRTOS/tasks.c ****      *                                                                       *
   9:FreeRTOS/tasks.c ****      *    FreeRTOS provides completely free yet professionally developed,    *
  10:FreeRTOS/tasks.c ****      *    robust, strictly quality controlled, supported, and cross          *
  11:FreeRTOS/tasks.c ****      *    platform software that has become a de facto standard.             *
  12:FreeRTOS/tasks.c ****      *                                                                       *
  13:FreeRTOS/tasks.c ****      *    Help yourself get started quickly and support the FreeRTOS         *
  14:FreeRTOS/tasks.c ****      *    project by purchasing a FreeRTOS tutorial book, reference          *
  15:FreeRTOS/tasks.c ****      *    manual, or both from: http://www.FreeRTOS.org/Documentation        *
  16:FreeRTOS/tasks.c ****      *                                                                       *
  17:FreeRTOS/tasks.c ****      *    Thank you!                                                         *
  18:FreeRTOS/tasks.c ****      *                                                                       *
ARM GAS  C:\Users\STUDENT\AppData\Local\Temp\ccRbxq9b.s 			page 5


  19:FreeRTOS/tasks.c ****     ***************************************************************************
  20:FreeRTOS/tasks.c **** 
  21:FreeRTOS/tasks.c ****     This file is part of the FreeRTOS distribution.
  22:FreeRTOS/tasks.c **** 
  23:FreeRTOS/tasks.c ****     FreeRTOS is free software; you can redistribute it and/or modify it under
  24:FreeRTOS/tasks.c ****     the terms of the GNU General Public License (version 2) as published by the
  25:FreeRTOS/tasks.c ****     Free Software Foundation >>!AND MODIFIED BY!<< the FreeRTOS exception.
  26:FreeRTOS/tasks.c **** 
  27:FreeRTOS/tasks.c ****     >>!   NOTE: The modification to the GPL is included to allow you to     !<<
  28:FreeRTOS/tasks.c ****     >>!   distribute a combined work that includes FreeRTOS without being   !<<
  29:FreeRTOS/tasks.c ****     >>!   obliged to provide the source code for proprietary components     !<<
  30:FreeRTOS/tasks.c ****     >>!   outside of the FreeRTOS kernel.                                   !<<
  31:FreeRTOS/tasks.c **** 
  32:FreeRTOS/tasks.c ****     FreeRTOS is distributed in the hope that it will be useful, but WITHOUT ANY
  33:FreeRTOS/tasks.c ****     WARRANTY; without even the implied warranty of MERCHANTABILITY or FITNESS
  34:FreeRTOS/tasks.c ****     FOR A PARTICULAR PURPOSE.  Full license text is available from the following
  35:FreeRTOS/tasks.c ****     link: http://www.freertos.org/a00114.html
  36:FreeRTOS/tasks.c **** 
  37:FreeRTOS/tasks.c ****     1 tab == 4 spaces!
  38:FreeRTOS/tasks.c **** 
  39:FreeRTOS/tasks.c ****     ***************************************************************************
  40:FreeRTOS/tasks.c ****      *                                                                       *
  41:FreeRTOS/tasks.c ****      *    Having a problem?  Start by reading the FAQ "My application does   *
  42:FreeRTOS/tasks.c ****      *    not run, what could be wrong?"                                     *
  43:FreeRTOS/tasks.c ****      *                                                                       *
  44:FreeRTOS/tasks.c ****      *    http://www.FreeRTOS.org/FAQHelp.html                               *
  45:FreeRTOS/tasks.c ****      *                                                                       *
  46:FreeRTOS/tasks.c ****     ***************************************************************************
  47:FreeRTOS/tasks.c **** 
  48:FreeRTOS/tasks.c ****     http://www.FreeRTOS.org - Documentation, books, training, latest versions,
  49:FreeRTOS/tasks.c ****     license and Real Time Engineers Ltd. contact details.
  50:FreeRTOS/tasks.c **** 
  51:FreeRTOS/tasks.c ****     http://www.FreeRTOS.org/plus - A selection of FreeRTOS ecosystem products,
  52:FreeRTOS/tasks.c ****     including FreeRTOS+Trace - an indispensable productivity tool, a DOS
  53:FreeRTOS/tasks.c ****     compatible FAT file system, and our tiny thread aware UDP/IP stack.
  54:FreeRTOS/tasks.c **** 
  55:FreeRTOS/tasks.c ****     http://www.OpenRTOS.com - Real Time Engineers ltd license FreeRTOS to High
  56:FreeRTOS/tasks.c ****     Integrity Systems to sell under the OpenRTOS brand.  Low cost OpenRTOS
  57:FreeRTOS/tasks.c ****     licenses offer ticketed support, indemnification and middleware.
  58:FreeRTOS/tasks.c **** 
  59:FreeRTOS/tasks.c ****     http://www.SafeRTOS.com - High Integrity Systems also provide a safety
  60:FreeRTOS/tasks.c ****     engineered and independently SIL3 certified version for use in safety and
  61:FreeRTOS/tasks.c ****     mission critical applications that require provable dependability.
  62:FreeRTOS/tasks.c **** 
  63:FreeRTOS/tasks.c ****     1 tab == 4 spaces!
  64:FreeRTOS/tasks.c **** */
  65:FreeRTOS/tasks.c **** 
  66:FreeRTOS/tasks.c **** /* Standard includes. */
  67:FreeRTOS/tasks.c **** #include <stdlib.h>
  68:FreeRTOS/tasks.c **** #include <string.h>
  69:FreeRTOS/tasks.c **** 
  70:FreeRTOS/tasks.c **** /* Defining MPU_WRAPPERS_INCLUDED_FROM_API_FILE prevents task.h from redefining
  71:FreeRTOS/tasks.c **** all the API functions to use the MPU wrappers.  That should only be done when
  72:FreeRTOS/tasks.c **** task.h is included from an application file. */
  73:FreeRTOS/tasks.c **** #define MPU_WRAPPERS_INCLUDED_FROM_API_FILE
  74:FreeRTOS/tasks.c **** 
  75:FreeRTOS/tasks.c **** /* FreeRTOS includes. */
ARM GAS  C:\Users\STUDENT\AppData\Local\Temp\ccRbxq9b.s 			page 6


  76:FreeRTOS/tasks.c **** #include "FreeRTOS.h"
  77:FreeRTOS/tasks.c **** #include "task.h"
  78:FreeRTOS/tasks.c **** #include "timers.h"
  79:FreeRTOS/tasks.c **** #include "StackMacros.h"
  80:FreeRTOS/tasks.c **** 
  81:FreeRTOS/tasks.c **** /* Lint e961 and e750 are suppressed as a MISRA exception justified because the
  82:FreeRTOS/tasks.c **** MPU ports require MPU_WRAPPERS_INCLUDED_FROM_API_FILE to be defined for the
  83:FreeRTOS/tasks.c **** header files above, but not in this file, in order to generate the correct
  84:FreeRTOS/tasks.c **** privileged Vs unprivileged linkage and placement. */
  85:FreeRTOS/tasks.c **** #undef MPU_WRAPPERS_INCLUDED_FROM_API_FILE /*lint !e961 !e750. */
  86:FreeRTOS/tasks.c **** 
  87:FreeRTOS/tasks.c **** #if ( configUSE_STATS_FORMATTING_FUNCTIONS == 1 )
  88:FreeRTOS/tasks.c **** 	/* At the bottom of this file are two optional functions that can be used
  89:FreeRTOS/tasks.c **** 	to generate human readable text from the raw data generated by the
  90:FreeRTOS/tasks.c **** 	uxTaskGetSystemState() function.  Note the formatting functions are provided
  91:FreeRTOS/tasks.c **** 	for convenience only, and are NOT considered part of the kernel. */
  92:FreeRTOS/tasks.c **** 	#include <stdio.h>
  93:FreeRTOS/tasks.c **** #endif /* configUSE_STATS_FORMATTING_FUNCTIONS == 1 ) */
  94:FreeRTOS/tasks.c **** 
  95:FreeRTOS/tasks.c **** /* Sanity check the configuration. */
  96:FreeRTOS/tasks.c **** #if configUSE_TICKLESS_IDLE != 0
  97:FreeRTOS/tasks.c **** 	#if INCLUDE_vTaskSuspend != 1
  98:FreeRTOS/tasks.c **** 		#error INCLUDE_vTaskSuspend must be set to 1 if configUSE_TICKLESS_IDLE is not set to 0
  99:FreeRTOS/tasks.c **** 	#endif /* INCLUDE_vTaskSuspend */
 100:FreeRTOS/tasks.c **** #endif /* configUSE_TICKLESS_IDLE */
 101:FreeRTOS/tasks.c **** 
 102:FreeRTOS/tasks.c **** /*
 103:FreeRTOS/tasks.c ****  * Defines the size, in words, of the stack allocated to the idle task.
 104:FreeRTOS/tasks.c ****  */
 105:FreeRTOS/tasks.c **** #define tskIDLE_STACK_SIZE	configMINIMAL_STACK_SIZE
 106:FreeRTOS/tasks.c **** 
 107:FreeRTOS/tasks.c **** #if( configUSE_PREEMPTION == 0 )
 108:FreeRTOS/tasks.c **** 	/* If the cooperative scheduler is being used then a yield should not be
 109:FreeRTOS/tasks.c **** 	performed just because a higher priority task has been woken. */
 110:FreeRTOS/tasks.c **** 	#define taskYIELD_IF_USING_PREEMPTION()
 111:FreeRTOS/tasks.c **** #else
 112:FreeRTOS/tasks.c **** 	#define taskYIELD_IF_USING_PREEMPTION() portYIELD_WITHIN_API()
 113:FreeRTOS/tasks.c **** #endif
 114:FreeRTOS/tasks.c **** 
 115:FreeRTOS/tasks.c **** /*
 116:FreeRTOS/tasks.c ****  * Task control block.  A task control block (TCB) is allocated for each task,
 117:FreeRTOS/tasks.c ****  * and stores task state information, including a pointer to the task's context
 118:FreeRTOS/tasks.c ****  * (the task's run time environment, including register values)
 119:FreeRTOS/tasks.c ****  */
 120:FreeRTOS/tasks.c **** typedef struct tskTaskControlBlock
 121:FreeRTOS/tasks.c **** {
 122:FreeRTOS/tasks.c **** 	volatile StackT_t	*pxTopOfStack;	/*< Points to the location of the last item placed on the tasks s
 123:FreeRTOS/tasks.c **** 
 124:FreeRTOS/tasks.c **** 	#if ( portUSING_MPU_WRAPPERS == 1 )
 125:FreeRTOS/tasks.c **** 		xMPU_SETTINGS	xMPUSettings;		/*< The MPU settings are defined as part of the port layer.  THIS MU
 126:FreeRTOS/tasks.c **** 	#endif
 127:FreeRTOS/tasks.c **** 
 128:FreeRTOS/tasks.c **** 	ListItem_t			xGenericListItem;	/*< The list that the state list item of a task is reference from d
 129:FreeRTOS/tasks.c **** 	ListItem_t			xEventListItem;		/*< Used to reference a task from an event list. */
 130:FreeRTOS/tasks.c **** 	UBaseT_t			uxPriority;			/*< The priority of the task.  0 is the lowest priority. */
 131:FreeRTOS/tasks.c **** 	StackT_t			*pxStack;			/*< Points to the start of the stack. */
 132:FreeRTOS/tasks.c **** 	char				pcTaskName[ configMAX_TASK_NAME_LEN ];/*< Descriptive name given to the task when created.
ARM GAS  C:\Users\STUDENT\AppData\Local\Temp\ccRbxq9b.s 			page 7


 133:FreeRTOS/tasks.c **** 
 134:FreeRTOS/tasks.c **** 	#if ( portSTACK_GROWTH > 0 )
 135:FreeRTOS/tasks.c **** 		StackT_t		*pxEndOfStack;		/*< Points to the end of the stack on architectures where the stack gro
 136:FreeRTOS/tasks.c **** 	#endif
 137:FreeRTOS/tasks.c **** 
 138:FreeRTOS/tasks.c **** 	#if ( portCRITICAL_NESTING_IN_TCB == 1 )
 139:FreeRTOS/tasks.c **** 		UBaseT_t 	uxCriticalNesting; 	/*< Holds the critical section nesting depth for ports that do not 
 140:FreeRTOS/tasks.c **** 	#endif
 141:FreeRTOS/tasks.c **** 
 142:FreeRTOS/tasks.c **** 	#if ( configUSE_TRACE_FACILITY == 1 )
 143:FreeRTOS/tasks.c **** 		UBaseT_t		uxTCBNumber;		/*< Stores a number that increments each time a TCB is created.  It allow
 144:FreeRTOS/tasks.c **** 		UBaseT_t  	uxTaskNumber;		/*< Stores a number specifically for use by third party trace code. */
 145:FreeRTOS/tasks.c **** 	#endif
 146:FreeRTOS/tasks.c **** 
 147:FreeRTOS/tasks.c **** 	#if ( configUSE_MUTEXES == 1 )
 148:FreeRTOS/tasks.c **** 		UBaseT_t 	uxBasePriority;		/*< The priority last assigned to the task - used by the priority inhe
 149:FreeRTOS/tasks.c **** 		UBaseT_t 	uxMutexesHeld;
 150:FreeRTOS/tasks.c **** 	#endif
 151:FreeRTOS/tasks.c **** 
 152:FreeRTOS/tasks.c **** 	#if ( configUSE_APPLICATION_TASK_TAG == 1 )
 153:FreeRTOS/tasks.c **** 		TaskHookFunction_t pxTaskTag;
 154:FreeRTOS/tasks.c **** 	#endif
 155:FreeRTOS/tasks.c **** 
 156:FreeRTOS/tasks.c **** 	#if ( configGENERATE_RUN_TIME_STATS == 1 )
 157:FreeRTOS/tasks.c **** 		uint32_t		ulRunTimeCounter;	/*< Stores the amount of time the task has spent in the Running state
 158:FreeRTOS/tasks.c **** 	#endif
 159:FreeRTOS/tasks.c **** 
 160:FreeRTOS/tasks.c **** 	#if ( configUSE_NEWLIB_REENTRANT == 1 )
 161:FreeRTOS/tasks.c **** 		/* Allocate a Newlib reent structure that is specific to this task.
 162:FreeRTOS/tasks.c **** 		Note Newlib support has been included by popular demand, but is not
 163:FreeRTOS/tasks.c **** 		used by the FreeRTOS maintainers themselves.  FreeRTOS is not
 164:FreeRTOS/tasks.c **** 		responsible for resulting newlib operation.  User must be familiar with
 165:FreeRTOS/tasks.c **** 		newlib and must provide system-wide implementations of the necessary
 166:FreeRTOS/tasks.c **** 		stubs. Be warned that (at the time of writing) the current newlib design
 167:FreeRTOS/tasks.c **** 		implements a system-wide malloc() that must be provided with locks. */
 168:FreeRTOS/tasks.c **** 		struct 	_reent xNewLib_reent;
 169:FreeRTOS/tasks.c **** 	#endif
 170:FreeRTOS/tasks.c **** 
 171:FreeRTOS/tasks.c **** } tskTCB;
 172:FreeRTOS/tasks.c **** 
 173:FreeRTOS/tasks.c **** /* The old tskTCB name is maintained above then typedefed to the new TCB_t name
 174:FreeRTOS/tasks.c **** below to enable the use of older kernel aware debuggers. */
 175:FreeRTOS/tasks.c **** typedef tskTCB TCB_t;
 176:FreeRTOS/tasks.c **** 
 177:FreeRTOS/tasks.c **** /*
 178:FreeRTOS/tasks.c ****  * Some kernel aware debuggers require the data the debugger needs access to to
 179:FreeRTOS/tasks.c ****  * be global, rather than file scope.
 180:FreeRTOS/tasks.c ****  */
 181:FreeRTOS/tasks.c **** #ifdef portREMOVE_STATIC_QUALIFIER
 182:FreeRTOS/tasks.c **** 	#define static
 183:FreeRTOS/tasks.c **** #endif
 184:FreeRTOS/tasks.c **** 
 185:FreeRTOS/tasks.c **** /*lint -e956 A manual analysis and inspection has been used to determine which
 186:FreeRTOS/tasks.c **** static variables must be declared volatile. */
 187:FreeRTOS/tasks.c **** 
 188:FreeRTOS/tasks.c **** PRIVILEGED_DATA TCB_t * volatile pxCurrentTCB = NULL;
 189:FreeRTOS/tasks.c **** 
ARM GAS  C:\Users\STUDENT\AppData\Local\Temp\ccRbxq9b.s 			page 8


 190:FreeRTOS/tasks.c **** /* Lists for ready and blocked tasks. --------------------*/
 191:FreeRTOS/tasks.c **** PRIVILEGED_DATA static List_t pxReadyTasksLists[ configMAX_PRIORITIES ];/*< Prioritised ready tasks
 192:FreeRTOS/tasks.c **** PRIVILEGED_DATA static List_t xDelayedTaskList1;						/*< Delayed tasks. */
 193:FreeRTOS/tasks.c **** PRIVILEGED_DATA static List_t xDelayedTaskList2;						/*< Delayed tasks (two lists are used - one f
 194:FreeRTOS/tasks.c **** PRIVILEGED_DATA static List_t * volatile pxDelayedTaskList;				/*< Points to the delayed task list 
 195:FreeRTOS/tasks.c **** PRIVILEGED_DATA static List_t * volatile pxOverflowDelayedTaskList;		/*< Points to the delayed task
 196:FreeRTOS/tasks.c **** PRIVILEGED_DATA static List_t xPendingReadyList;						/*< Tasks that have been readied while the sc
 197:FreeRTOS/tasks.c **** 
 198:FreeRTOS/tasks.c **** #if ( INCLUDE_vTaskDelete == 1 )
 199:FreeRTOS/tasks.c **** 
 200:FreeRTOS/tasks.c **** 	PRIVILEGED_DATA static List_t xTasksWaitingTermination;				/*< Tasks that have been deleted - but 
 201:FreeRTOS/tasks.c **** 	PRIVILEGED_DATA static volatile UBaseT_t uxTasksDeleted = ( UBaseT_t ) 0U;
 202:FreeRTOS/tasks.c **** 
 203:FreeRTOS/tasks.c **** #endif
 204:FreeRTOS/tasks.c **** 
 205:FreeRTOS/tasks.c **** #if ( INCLUDE_vTaskSuspend == 1 )
 206:FreeRTOS/tasks.c **** 
 207:FreeRTOS/tasks.c **** 	PRIVILEGED_DATA static List_t xSuspendedTaskList;					/*< Tasks that are currently suspended. */
 208:FreeRTOS/tasks.c **** 
 209:FreeRTOS/tasks.c **** #endif
 210:FreeRTOS/tasks.c **** 
 211:FreeRTOS/tasks.c **** #if ( INCLUDE_xTaskGetIdleTaskHandle == 1 )
 212:FreeRTOS/tasks.c **** 
 213:FreeRTOS/tasks.c **** 	PRIVILEGED_DATA static TaskHandle_t xIdleTaskHandle = NULL;			/*< Holds the handle of the idle tas
 214:FreeRTOS/tasks.c **** 
 215:FreeRTOS/tasks.c **** #endif
 216:FreeRTOS/tasks.c **** 
 217:FreeRTOS/tasks.c **** /* Other file private variables. --------------------------------*/
 218:FreeRTOS/tasks.c **** PRIVILEGED_DATA static volatile UBaseT_t uxCurrentNumberOfTasks 	= ( UBaseT_t ) 0U;
 219:FreeRTOS/tasks.c **** PRIVILEGED_DATA static volatile TickT_t xTickCount 				= ( TickT_t ) 0U;
 220:FreeRTOS/tasks.c **** PRIVILEGED_DATA static volatile UBaseT_t uxTopReadyPriority 		= tskIDLE_PRIORITY;
 221:FreeRTOS/tasks.c **** PRIVILEGED_DATA static volatile BaseT_t xSchedulerRunning 		= pdFALSE;
 222:FreeRTOS/tasks.c **** PRIVILEGED_DATA static volatile UBaseT_t uxPendedTicks 			= ( UBaseT_t ) 0U;
 223:FreeRTOS/tasks.c **** PRIVILEGED_DATA static volatile BaseT_t xYieldPending 			= pdFALSE;
 224:FreeRTOS/tasks.c **** PRIVILEGED_DATA static volatile BaseT_t xNumOfOverflows 			= ( BaseT_t ) 0;
 225:FreeRTOS/tasks.c **** PRIVILEGED_DATA static UBaseT_t uxTaskNumber 					= ( UBaseT_t ) 0U;
 226:FreeRTOS/tasks.c **** PRIVILEGED_DATA static volatile TickT_t xNextTaskUnblockTime		= portMAX_DELAY;
 227:FreeRTOS/tasks.c **** 
 228:FreeRTOS/tasks.c **** /* Context switches are held pending while the scheduler is suspended.  Also,
 229:FreeRTOS/tasks.c **** interrupts must not manipulate the xStateListItem of a TCB, or any of the
 230:FreeRTOS/tasks.c **** lists the xStateListItem can be referenced from, if the scheduler is suspended.
 231:FreeRTOS/tasks.c **** If an interrupt needs to unblock a task while the scheduler is suspended then it
 232:FreeRTOS/tasks.c **** moves the task's event list item into the xPendingReadyList, ready for the
 233:FreeRTOS/tasks.c **** kernel to move the task from the pending ready list into the real ready list
 234:FreeRTOS/tasks.c **** when the scheduler is unsuspended.  The pending ready list itself can only be
 235:FreeRTOS/tasks.c **** accessed from a critical section. */
 236:FreeRTOS/tasks.c **** PRIVILEGED_DATA static volatile UBaseT_t uxSchedulerSuspended	= ( UBaseT_t ) pdFALSE;
 237:FreeRTOS/tasks.c **** 
 238:FreeRTOS/tasks.c **** #if ( configGENERATE_RUN_TIME_STATS == 1 )
 239:FreeRTOS/tasks.c **** 
 240:FreeRTOS/tasks.c **** 	PRIVILEGED_DATA static uint32_t ulTaskSwitchedInTime = 0UL;	/*< Holds the value of a timer/counter
 241:FreeRTOS/tasks.c **** 	PRIVILEGED_DATA static uint32_t ulTotalRunTime = 0UL;		/*< Holds the total amount of execution tim
 242:FreeRTOS/tasks.c **** 
 243:FreeRTOS/tasks.c **** #endif
 244:FreeRTOS/tasks.c **** 
 245:FreeRTOS/tasks.c **** /*lint +e956 */
 246:FreeRTOS/tasks.c **** 
ARM GAS  C:\Users\STUDENT\AppData\Local\Temp\ccRbxq9b.s 			page 9


 247:FreeRTOS/tasks.c **** /* Debugging and trace facilities private variables and macros. ------------*/
 248:FreeRTOS/tasks.c **** 
 249:FreeRTOS/tasks.c **** /*
 250:FreeRTOS/tasks.c ****  * The value used to fill the stack of a task when the task is created.  This
 251:FreeRTOS/tasks.c ****  * is used purely for checking the high water mark for tasks.
 252:FreeRTOS/tasks.c ****  */
 253:FreeRTOS/tasks.c **** #define tskSTACK_FILL_BYTE	( 0xa5U )
 254:FreeRTOS/tasks.c **** 
 255:FreeRTOS/tasks.c **** /*
 256:FreeRTOS/tasks.c ****  * Macros used by vListTask to indicate which state a task is in.
 257:FreeRTOS/tasks.c ****  */
 258:FreeRTOS/tasks.c **** #define tskBLOCKED_CHAR		( 'B' )
 259:FreeRTOS/tasks.c **** #define tskREADY_CHAR		( 'R' )
 260:FreeRTOS/tasks.c **** #define tskDELETED_CHAR		( 'D' )
 261:FreeRTOS/tasks.c **** #define tskSUSPENDED_CHAR	( 'S' )
 262:FreeRTOS/tasks.c **** 
 263:FreeRTOS/tasks.c **** /*-----------------------------------------------------------*/
 264:FreeRTOS/tasks.c **** 
 265:FreeRTOS/tasks.c **** #if ( configUSE_PORT_OPTIMISED_TASK_SELECTION == 0 )
 266:FreeRTOS/tasks.c **** 
 267:FreeRTOS/tasks.c **** 	/* If configUSE_PORT_OPTIMISED_TASK_SELECTION is 0 then task selection is
 268:FreeRTOS/tasks.c **** 	performed in a generic way that is not optimised to any particular
 269:FreeRTOS/tasks.c **** 	microcontroller architecture. */
 270:FreeRTOS/tasks.c **** 
 271:FreeRTOS/tasks.c **** 	/* uxTopReadyPriority holds the priority of the highest priority ready
 272:FreeRTOS/tasks.c **** 	state task. */
 273:FreeRTOS/tasks.c **** 	#define taskRECORD_READY_PRIORITY( uxPriority )														\
 274:FreeRTOS/tasks.c **** 	{																									\
 275:FreeRTOS/tasks.c **** 		if( ( uxPriority ) > uxTopReadyPriority )														\
 276:FreeRTOS/tasks.c **** 		{																								\
 277:FreeRTOS/tasks.c **** 			uxTopReadyPriority = ( uxPriority );														\
 278:FreeRTOS/tasks.c **** 		}																								\
 279:FreeRTOS/tasks.c **** 	} /* taskRECORD_READY_PRIORITY */
 280:FreeRTOS/tasks.c **** 
 281:FreeRTOS/tasks.c **** 	/*-----------------------------------------------------------*/
 282:FreeRTOS/tasks.c **** 
 283:FreeRTOS/tasks.c **** 	#define taskSELECT_HIGHEST_PRIORITY_TASK()															\
 284:FreeRTOS/tasks.c **** 	{																									\
 285:FreeRTOS/tasks.c **** 		/* Find the highest priority queue that contains ready tasks. */								\
 286:FreeRTOS/tasks.c **** 		while( listLIST_IS_EMPTY( &( pxReadyTasksLists[ uxTopReadyPriority ] ) ) )						\
 287:FreeRTOS/tasks.c **** 		{																								\
 288:FreeRTOS/tasks.c **** 			configASSERT( uxTopReadyPriority );															\
 289:FreeRTOS/tasks.c **** 			--uxTopReadyPriority;																		\
 290:FreeRTOS/tasks.c **** 		}																								\
 291:FreeRTOS/tasks.c **** 																										\
 292:FreeRTOS/tasks.c **** 		/* listGET_OWNER_OF_NEXT_ENTRY indexes through the list, so the tasks of						\
 293:FreeRTOS/tasks.c **** 		the	same priority get an equal share of the processor time. */									\
 294:FreeRTOS/tasks.c **** 		listGET_OWNER_OF_NEXT_ENTRY( pxCurrentTCB, &( pxReadyTasksLists[ uxTopReadyPriority ] ) );		\
 295:FreeRTOS/tasks.c **** 	} /* taskSELECT_HIGHEST_PRIORITY_TASK */
 296:FreeRTOS/tasks.c **** 
 297:FreeRTOS/tasks.c **** 	/*-----------------------------------------------------------*/
 298:FreeRTOS/tasks.c **** 
 299:FreeRTOS/tasks.c **** 	/* Define away taskRESET_READY_PRIORITY() and portRESET_READY_PRIORITY() as
 300:FreeRTOS/tasks.c **** 	they are only required when a port optimised method of task selection is
 301:FreeRTOS/tasks.c **** 	being used. */
 302:FreeRTOS/tasks.c **** 	#define taskRESET_READY_PRIORITY( uxPriority )
 303:FreeRTOS/tasks.c **** 	#define portRESET_READY_PRIORITY( uxPriority, uxTopReadyPriority )
ARM GAS  C:\Users\STUDENT\AppData\Local\Temp\ccRbxq9b.s 			page 10


 304:FreeRTOS/tasks.c **** 
 305:FreeRTOS/tasks.c **** #else /* configUSE_PORT_OPTIMISED_TASK_SELECTION */
 306:FreeRTOS/tasks.c **** 
 307:FreeRTOS/tasks.c **** 	/* If configUSE_PORT_OPTIMISED_TASK_SELECTION is 1 then task selection is
 308:FreeRTOS/tasks.c **** 	performed in a way that is tailored to the particular microcontroller
 309:FreeRTOS/tasks.c **** 	architecture being used. */
 310:FreeRTOS/tasks.c **** 
 311:FreeRTOS/tasks.c **** 	/* A port optimised version is provided.  Call the port defined macros. */
 312:FreeRTOS/tasks.c **** 	#define taskRECORD_READY_PRIORITY( uxPriority )	portRECORD_READY_PRIORITY( uxPriority, uxTopReadyP
 313:FreeRTOS/tasks.c **** 
 314:FreeRTOS/tasks.c **** 	/*-----------------------------------------------------------*/
 315:FreeRTOS/tasks.c **** 
 316:FreeRTOS/tasks.c **** 	#define taskSELECT_HIGHEST_PRIORITY_TASK()														\
 317:FreeRTOS/tasks.c **** 	{																								\
 318:FreeRTOS/tasks.c **** 	UBaseT_t uxTopPriority;																		\
 319:FreeRTOS/tasks.c **** 																									\
 320:FreeRTOS/tasks.c **** 		/* Find the highest priority queue that contains ready tasks. */							\
 321:FreeRTOS/tasks.c **** 		portGET_HIGHEST_PRIORITY( uxTopPriority, uxTopReadyPriority );								\
 322:FreeRTOS/tasks.c **** 		configASSERT( listCURRENT_LIST_LENGTH( &( pxReadyTasksLists[ uxTopPriority ] ) ) > 0 );		\
 323:FreeRTOS/tasks.c **** 		listGET_OWNER_OF_NEXT_ENTRY( pxCurrentTCB, &( pxReadyTasksLists[ uxTopPriority ] ) );		\
 324:FreeRTOS/tasks.c **** 	} /* taskSELECT_HIGHEST_PRIORITY_TASK() */
 325:FreeRTOS/tasks.c **** 
 326:FreeRTOS/tasks.c **** 	/*-----------------------------------------------------------*/
 327:FreeRTOS/tasks.c **** 
 328:FreeRTOS/tasks.c **** 	/* A port optimised version is provided, call it only if the TCB being reset
 329:FreeRTOS/tasks.c **** 	is being referenced from a ready list.  If it is referenced from a delayed
 330:FreeRTOS/tasks.c **** 	or suspended list then it won't be in a ready list. */
 331:FreeRTOS/tasks.c **** 	#define taskRESET_READY_PRIORITY( uxPriority )														\
 332:FreeRTOS/tasks.c **** 	{																									\
 333:FreeRTOS/tasks.c **** 		if( listCURRENT_LIST_LENGTH( &( pxReadyTasksLists[ ( uxPriority ) ] ) ) == ( UBaseT_t ) 0 )	\
 334:FreeRTOS/tasks.c **** 		{																								\
 335:FreeRTOS/tasks.c **** 			portRESET_READY_PRIORITY( ( uxPriority ), ( uxTopReadyPriority ) );							\
 336:FreeRTOS/tasks.c **** 		}																								\
 337:FreeRTOS/tasks.c **** 	}
 338:FreeRTOS/tasks.c **** 
 339:FreeRTOS/tasks.c **** #endif /* configUSE_PORT_OPTIMISED_TASK_SELECTION */
 340:FreeRTOS/tasks.c **** 
 341:FreeRTOS/tasks.c **** /*-----------------------------------------------------------*/
 342:FreeRTOS/tasks.c **** 
 343:FreeRTOS/tasks.c **** /* pxDelayedTaskList and pxOverflowDelayedTaskList are switched when the tick
 344:FreeRTOS/tasks.c **** count overflows. */
 345:FreeRTOS/tasks.c **** #define taskSWITCH_DELAYED_LISTS()																	\
 346:FreeRTOS/tasks.c **** {																									\
 347:FreeRTOS/tasks.c **** 	List_t *pxTemp;																					\
 348:FreeRTOS/tasks.c **** 																									\
 349:FreeRTOS/tasks.c **** 	/* The delayed tasks list should be empty when the lists are switched. */						\
 350:FreeRTOS/tasks.c **** 	configASSERT( ( listLIST_IS_EMPTY( pxDelayedTaskList ) ) );										\
 351:FreeRTOS/tasks.c **** 																									\
 352:FreeRTOS/tasks.c **** 	pxTemp = pxDelayedTaskList;																		\
 353:FreeRTOS/tasks.c **** 	pxDelayedTaskList = pxOverflowDelayedTaskList;													\
 354:FreeRTOS/tasks.c **** 	pxOverflowDelayedTaskList = pxTemp;																\
 355:FreeRTOS/tasks.c **** 	xNumOfOverflows++;																				\
 356:FreeRTOS/tasks.c **** 	prvResetNextTaskUnblockTime();																	\
 357:FreeRTOS/tasks.c **** }
 358:FreeRTOS/tasks.c **** 
 359:FreeRTOS/tasks.c **** /*-----------------------------------------------------------*/
 360:FreeRTOS/tasks.c **** 
ARM GAS  C:\Users\STUDENT\AppData\Local\Temp\ccRbxq9b.s 			page 11


 361:FreeRTOS/tasks.c **** /*
 362:FreeRTOS/tasks.c ****  * Place the task represented by pxTCB into the appropriate ready list for
 363:FreeRTOS/tasks.c ****  * the task.  It is inserted at the end of the list.
 364:FreeRTOS/tasks.c ****  */
 365:FreeRTOS/tasks.c **** #define prvAddTaskToReadyList( pxTCB )																\
 366:FreeRTOS/tasks.c **** 	traceMOVED_TASK_TO_READY_STATE( pxTCB )															\
 367:FreeRTOS/tasks.c **** 	taskRECORD_READY_PRIORITY( ( pxTCB )->uxPriority );												\
 368:FreeRTOS/tasks.c **** 	vListInsertEnd( &( pxReadyTasksLists[ ( pxTCB )->uxPriority ] ), &( ( pxTCB )->xGenericListItem ) 
 369:FreeRTOS/tasks.c **** /*-----------------------------------------------------------*/
 370:FreeRTOS/tasks.c **** 
 371:FreeRTOS/tasks.c **** /*
 372:FreeRTOS/tasks.c ****  * Several functions take an TaskHandle_t parameter that can optionally be NULL,
 373:FreeRTOS/tasks.c ****  * where NULL is used to indicate that the handle of the currently executing
 374:FreeRTOS/tasks.c ****  * task should be used in place of the parameter.  This macro simply checks to
 375:FreeRTOS/tasks.c ****  * see if the parameter is NULL and returns a pointer to the appropriate TCB.
 376:FreeRTOS/tasks.c ****  */
 377:FreeRTOS/tasks.c **** #define prvGetTCBFromHandle( pxHandle ) ( ( ( pxHandle ) == NULL ) ? ( TCB_t * ) pxCurrentTCB : ( T
 378:FreeRTOS/tasks.c **** 
 379:FreeRTOS/tasks.c **** /* The item value of the event list item is normally used to hold the priority
 380:FreeRTOS/tasks.c **** of the task to which it belongs (coded to allow it to be held in reverse
 381:FreeRTOS/tasks.c **** priority order).  However, it is occasionally borrowed for other purposes.  It
 382:FreeRTOS/tasks.c **** is important its value is not updated due to a task priority change while it is
 383:FreeRTOS/tasks.c **** being used for another purpose.  The following bit definition is used to inform
 384:FreeRTOS/tasks.c **** the scheduler that the value should not be changed - in which case it is the
 385:FreeRTOS/tasks.c **** responsibility of whichever module is using the value to ensure it gets set back
 386:FreeRTOS/tasks.c **** to its original value when it is released. */
 387:FreeRTOS/tasks.c **** #if configUSE_16_BIT_TICKS == 1
 388:FreeRTOS/tasks.c **** 	#define taskEVENT_LIST_ITEM_VALUE_IN_USE	0x8000U
 389:FreeRTOS/tasks.c **** #else
 390:FreeRTOS/tasks.c **** 	#define taskEVENT_LIST_ITEM_VALUE_IN_USE	0x80000000UL
 391:FreeRTOS/tasks.c **** #endif
 392:FreeRTOS/tasks.c **** 
 393:FreeRTOS/tasks.c **** /* Callback function prototypes. --------------------------*/
 394:FreeRTOS/tasks.c **** #if configCHECK_FOR_STACK_OVERFLOW > 0
 395:FreeRTOS/tasks.c **** 	extern void vApplicationStackOverflowHook( TaskHandle_t xTask, char *pcTaskName );
 396:FreeRTOS/tasks.c **** #endif
 397:FreeRTOS/tasks.c **** 
 398:FreeRTOS/tasks.c **** #if configUSE_TICK_HOOK > 0
 399:FreeRTOS/tasks.c **** 	extern void vApplicationTickHook( void );
 400:FreeRTOS/tasks.c **** #endif
 401:FreeRTOS/tasks.c **** 
 402:FreeRTOS/tasks.c **** /* File private functions. --------------------------------*/
 403:FreeRTOS/tasks.c **** 
 404:FreeRTOS/tasks.c **** /*
 405:FreeRTOS/tasks.c ****  * Utility to ready a TCB for a given task.  Mainly just copies the parameters
 406:FreeRTOS/tasks.c ****  * into the TCB structure.
 407:FreeRTOS/tasks.c ****  */
 408:FreeRTOS/tasks.c **** static void prvInitialiseTCBVariables( TCB_t * const pxTCB, const char * const pcName, UBaseT_t uxP
 409:FreeRTOS/tasks.c **** 
 410:FreeRTOS/tasks.c **** /**
 411:FreeRTOS/tasks.c ****  * Utility task that simply returns pdTRUE if the task referenced by xTask is
 412:FreeRTOS/tasks.c ****  * currently in the Suspended state, or pdFALSE if the task referenced by xTask
 413:FreeRTOS/tasks.c ****  * is in any other state.
 414:FreeRTOS/tasks.c ****  */
 415:FreeRTOS/tasks.c **** static BaseT_t prvTaskIsTaskSuspended( const TaskHandle_t xTask ) PRIVILEGED_FUNCTION;
 416:FreeRTOS/tasks.c **** 
 417:FreeRTOS/tasks.c **** /*
ARM GAS  C:\Users\STUDENT\AppData\Local\Temp\ccRbxq9b.s 			page 12


 418:FreeRTOS/tasks.c ****  * Utility to ready all the lists used by the scheduler.  This is called
 419:FreeRTOS/tasks.c ****  * automatically upon the creation of the first task.
 420:FreeRTOS/tasks.c ****  */
 421:FreeRTOS/tasks.c **** static void prvInitialiseTaskLists( void ) PRIVILEGED_FUNCTION;
 422:FreeRTOS/tasks.c **** 
 423:FreeRTOS/tasks.c **** /*
 424:FreeRTOS/tasks.c ****  * The idle task, which as all tasks is implemented as a never ending loop.
 425:FreeRTOS/tasks.c ****  * The idle task is automatically created and added to the ready lists upon
 426:FreeRTOS/tasks.c ****  * creation of the first user task.
 427:FreeRTOS/tasks.c ****  *
 428:FreeRTOS/tasks.c ****  * The portTASK_FUNCTION_PROTO() macro is used to allow port/compiler specific
 429:FreeRTOS/tasks.c ****  * language extensions.  The equivalent prototype for this function is:
 430:FreeRTOS/tasks.c ****  *
 431:FreeRTOS/tasks.c ****  * void prvIdleTask( void *pvParameters );
 432:FreeRTOS/tasks.c ****  *
 433:FreeRTOS/tasks.c ****  */
 434:FreeRTOS/tasks.c **** static portTASK_FUNCTION_PROTO( prvIdleTask, pvParameters );
 435:FreeRTOS/tasks.c **** 
 436:FreeRTOS/tasks.c **** /*
 437:FreeRTOS/tasks.c ****  * Utility to free all memory allocated by the scheduler to hold a TCB,
 438:FreeRTOS/tasks.c ****  * including the stack pointed to by the TCB.
 439:FreeRTOS/tasks.c ****  *
 440:FreeRTOS/tasks.c ****  * This does not free memory allocated by the task itself (i.e. memory
 441:FreeRTOS/tasks.c ****  * allocated by calls to pvPortMalloc from within the tasks application code).
 442:FreeRTOS/tasks.c ****  */
 443:FreeRTOS/tasks.c **** #if ( INCLUDE_vTaskDelete == 1 )
 444:FreeRTOS/tasks.c **** 
 445:FreeRTOS/tasks.c **** 	static void prvDeleteTCB( TCB_t *pxTCB ) PRIVILEGED_FUNCTION;
 446:FreeRTOS/tasks.c **** 
 447:FreeRTOS/tasks.c **** #endif
 448:FreeRTOS/tasks.c **** 
 449:FreeRTOS/tasks.c **** /*
 450:FreeRTOS/tasks.c ****  * Used only by the idle task.  This checks to see if anything has been placed
 451:FreeRTOS/tasks.c ****  * in the list of tasks waiting to be deleted.  If so the task is cleaned up
 452:FreeRTOS/tasks.c ****  * and its TCB deleted.
 453:FreeRTOS/tasks.c ****  */
 454:FreeRTOS/tasks.c **** static void prvCheckTasksWaitingTermination( void ) PRIVILEGED_FUNCTION;
 455:FreeRTOS/tasks.c **** 
 456:FreeRTOS/tasks.c **** /*
 457:FreeRTOS/tasks.c ****  * The currently executing task is entering the Blocked state.  Add the task to
 458:FreeRTOS/tasks.c ****  * either the current or the overflow delayed task list.
 459:FreeRTOS/tasks.c ****  */
 460:FreeRTOS/tasks.c **** static void prvAddCurrentTaskToDelayedList( const TickT_t xTimeToWake ) PRIVILEGED_FUNCTION;
 461:FreeRTOS/tasks.c **** 
 462:FreeRTOS/tasks.c **** /*
 463:FreeRTOS/tasks.c ****  * Allocates memory from the heap for a TCB and associated stack.  Checks the
 464:FreeRTOS/tasks.c ****  * allocation was successful.
 465:FreeRTOS/tasks.c ****  */
 466:FreeRTOS/tasks.c **** static TCB_t *prvAllocateTCBAndStack( const uint16_t usStackDepth, StackT_t * const puxStackBuffer 
 467:FreeRTOS/tasks.c **** 
 468:FreeRTOS/tasks.c **** /*
 469:FreeRTOS/tasks.c ****  * Fills an TaskStatus_t structure with information on each task that is
 470:FreeRTOS/tasks.c ****  * referenced from the pxList list (which may be a ready list, a delayed list,
 471:FreeRTOS/tasks.c ****  * a suspended list, etc.).
 472:FreeRTOS/tasks.c ****  *
 473:FreeRTOS/tasks.c ****  * THIS FUNCTION IS INTENDED FOR DEBUGGING ONLY, AND SHOULD NOT BE CALLED FROM
 474:FreeRTOS/tasks.c ****  * NORMAL APPLICATION CODE.
ARM GAS  C:\Users\STUDENT\AppData\Local\Temp\ccRbxq9b.s 			page 13


 475:FreeRTOS/tasks.c ****  */
 476:FreeRTOS/tasks.c **** #if ( configUSE_TRACE_FACILITY == 1 )
 477:FreeRTOS/tasks.c **** 
 478:FreeRTOS/tasks.c **** 	static UBaseT_t prvListTaskWithinSingleList( TaskStatus_t *pxTaskStatusArray, List_t *pxList, eTas
 479:FreeRTOS/tasks.c **** 
 480:FreeRTOS/tasks.c **** #endif
 481:FreeRTOS/tasks.c **** 
 482:FreeRTOS/tasks.c **** /*
 483:FreeRTOS/tasks.c ****  * When a task is created, the stack of the task is filled with a known value.
 484:FreeRTOS/tasks.c ****  * This function determines the 'high water mark' of the task stack by
 485:FreeRTOS/tasks.c ****  * determining how much of the stack remains at the original preset value.
 486:FreeRTOS/tasks.c ****  */
 487:FreeRTOS/tasks.c **** #if ( ( configUSE_TRACE_FACILITY == 1 ) || ( INCLUDE_uxTaskGetStackHighWaterMark == 1 ) )
 488:FreeRTOS/tasks.c **** 
 489:FreeRTOS/tasks.c **** 	static uint16_t prvTaskCheckFreeStackSpace( const uint8_t * pucStackByte ) PRIVILEGED_FUNCTION;
 490:FreeRTOS/tasks.c **** 
 491:FreeRTOS/tasks.c **** #endif
 492:FreeRTOS/tasks.c **** 
 493:FreeRTOS/tasks.c **** /*
 494:FreeRTOS/tasks.c ****  * Return the amount of time, in ticks, that will pass before the kernel will
 495:FreeRTOS/tasks.c ****  * next move a task from the Blocked state to the Running state.
 496:FreeRTOS/tasks.c ****  *
 497:FreeRTOS/tasks.c ****  * This conditional compilation should use inequality to 0, not equality to 1.
 498:FreeRTOS/tasks.c ****  * This is to ensure portSUPPRESS_TICKS_AND_SLEEP() can be called when user
 499:FreeRTOS/tasks.c ****  * defined low power mode implementations require configUSE_TICKLESS_IDLE to be
 500:FreeRTOS/tasks.c ****  * set to a value other than 1.
 501:FreeRTOS/tasks.c ****  */
 502:FreeRTOS/tasks.c **** #if ( configUSE_TICKLESS_IDLE != 0 )
 503:FreeRTOS/tasks.c **** 
 504:FreeRTOS/tasks.c **** 	static TickT_t prvGetExpectedIdleTime( void ) PRIVILEGED_FUNCTION;
 505:FreeRTOS/tasks.c **** 
 506:FreeRTOS/tasks.c **** #endif
 507:FreeRTOS/tasks.c **** 
 508:FreeRTOS/tasks.c **** /*
 509:FreeRTOS/tasks.c ****  * Set xNextTaskUnblockTime to the time at which the next Blocked state task
 510:FreeRTOS/tasks.c ****  * will exit the Blocked state.
 511:FreeRTOS/tasks.c ****  */
 512:FreeRTOS/tasks.c **** static void prvResetNextTaskUnblockTime( void );
 513:FreeRTOS/tasks.c **** 
 514:FreeRTOS/tasks.c **** /*-----------------------------------------------------------*/
 515:FreeRTOS/tasks.c **** 
 516:FreeRTOS/tasks.c **** BaseT_t xTaskGenericCreate( TaskFunction_t pxTaskCode, const char * const pcName, const uint16_t us
 517:FreeRTOS/tasks.c **** {
 187              		.loc 1 517 0
 188              		.cfi_startproc
 189              		@ args = 16, pretend = 0, frame = 32
 190              		@ frame_needed = 1, uses_anonymous_args = 0
 191 0000 80B5     		push	{r7, lr}	@
 192              		.cfi_def_cfa_offset 8
 193              		.cfi_offset 7, -8
 194              		.cfi_offset 14, -4
 195 0002 8AB0     		sub	sp, sp, #40	@,,
 196              		.cfi_def_cfa_offset 48
 197 0004 02AF     		add	r7, sp, #8	@,,
 198              		.cfi_def_cfa 7, 40
 199 0006 F860     		str	r0, [r7, #12]	@ pxTaskCode, pxTaskCode
 200 0008 B960     		str	r1, [r7, #8]	@ pcName, pcName
ARM GAS  C:\Users\STUDENT\AppData\Local\Temp\ccRbxq9b.s 			page 14


 201 000a 3B60     		str	r3, [r7]	@ pvParameters, pvParameters
 202 000c 1346     		mov	r3, r2	@ movhi	@ tmp142, tmp141
 203 000e FB80     		strh	r3, [r7, #6]	@ movhi	@ tmp142, usStackDepth
 518:FreeRTOS/tasks.c **** BaseT_t xReturn;
 519:FreeRTOS/tasks.c **** TCB_t * pxNewTCB;
 520:FreeRTOS/tasks.c **** 
 521:FreeRTOS/tasks.c **** 	configASSERT( pxTaskCode );
 204              		.loc 1 521 0
 205 0010 FB68     		ldr	r3, [r7, #12]	@ tmp143, pxTaskCode
 206 0012 002B     		cmp	r3, #0	@ tmp143,
 207 0014 02D1     		bne	.L2	@,
 208              		.loc 1 521 0 is_stmt 0 discriminator 1
 209 0016 FFF7FEFF 		bl	ulPortSetInterruptMask	@
 210              	.L3:
 211 001a FEE7     		b	.L3	@
 212              	.L2:
 522:FreeRTOS/tasks.c **** 	configASSERT( ( ( uxPriority & ( ~portPRIVILEGE_BIT ) ) < configMAX_PRIORITIES ) );
 213              		.loc 1 522 0 is_stmt 1
 214 001c BB6A     		ldr	r3, [r7, #40]	@ tmp144, uxPriority
 215 001e 072B     		cmp	r3, #7	@ tmp144,
 216 0020 02D9     		bls	.L4	@,
 217              		.loc 1 522 0 is_stmt 0 discriminator 1
 218 0022 FFF7FEFF 		bl	ulPortSetInterruptMask	@
 219              	.L5:
 220              		.loc 1 522 0 discriminator 2
 221 0026 FEE7     		b	.L5	@
 222              	.L4:
 523:FreeRTOS/tasks.c **** 
 524:FreeRTOS/tasks.c **** 	/* Allocate the memory required by the TCB and stack for the new task,
 525:FreeRTOS/tasks.c **** 	checking that the allocation was successful. */
 526:FreeRTOS/tasks.c **** 	pxNewTCB = prvAllocateTCBAndStack( usStackDepth, puxStackBuffer );
 223              		.loc 1 526 0 is_stmt 1
 224 0028 FB88     		ldrh	r3, [r7, #6]	@ tmp145, usStackDepth
 225 002a 396B     		ldr	r1, [r7, #48]	@, puxStackBuffer
 226 002c 1846     		mov	r0, r3	@, tmp145
 227 002e FFF7FEFF 		bl	prvAllocateTCBAndStack	@
 228 0032 B861     		str	r0, [r7, #24]	@, pxNewTCB
 527:FreeRTOS/tasks.c **** 
 528:FreeRTOS/tasks.c **** 	if( pxNewTCB != NULL )
 229              		.loc 1 528 0
 230 0034 BB69     		ldr	r3, [r7, #24]	@ tmp146, pxNewTCB
 231 0036 002B     		cmp	r3, #0	@ tmp146,
 232 0038 71D0     		beq	.L6	@,
 233              	.LBB6:
 529:FreeRTOS/tasks.c **** 	{
 530:FreeRTOS/tasks.c **** 		StackT_t *pxTopOfStack;
 531:FreeRTOS/tasks.c **** 
 532:FreeRTOS/tasks.c **** 		#if( portUSING_MPU_WRAPPERS == 1 )
 533:FreeRTOS/tasks.c **** 			/* Should the task be created in privileged mode? */
 534:FreeRTOS/tasks.c **** 			BaseT_t xRunPrivileged;
 535:FreeRTOS/tasks.c **** 			if( ( uxPriority & portPRIVILEGE_BIT ) != 0U )
 536:FreeRTOS/tasks.c **** 			{
 537:FreeRTOS/tasks.c **** 				xRunPrivileged = pdTRUE;
 538:FreeRTOS/tasks.c **** 			}
 539:FreeRTOS/tasks.c **** 			else
 540:FreeRTOS/tasks.c **** 			{
 541:FreeRTOS/tasks.c **** 				xRunPrivileged = pdFALSE;
ARM GAS  C:\Users\STUDENT\AppData\Local\Temp\ccRbxq9b.s 			page 15


 542:FreeRTOS/tasks.c **** 			}
 543:FreeRTOS/tasks.c **** 			uxPriority &= ~portPRIVILEGE_BIT;
 544:FreeRTOS/tasks.c **** 		#endif /* portUSING_MPU_WRAPPERS == 1 */
 545:FreeRTOS/tasks.c **** 
 546:FreeRTOS/tasks.c **** 		/* Calculate the top of stack address.  This depends on whether the
 547:FreeRTOS/tasks.c **** 		stack grows from high memory to low (as per the 80x86) or vice versa.
 548:FreeRTOS/tasks.c **** 		portSTACK_GROWTH is used to make the result positive or negative as
 549:FreeRTOS/tasks.c **** 		required by the port. */
 550:FreeRTOS/tasks.c **** 		#if( portSTACK_GROWTH < 0 )
 551:FreeRTOS/tasks.c **** 		{
 552:FreeRTOS/tasks.c **** 			pxTopOfStack = pxNewTCB->pxStack + ( usStackDepth - ( uint16_t ) 1 );
 234              		.loc 1 552 0
 235 003a BB69     		ldr	r3, [r7, #24]	@ tmp147, pxNewTCB
 236 003c 1A6B     		ldr	r2, [r3, #48]	@ D.6558, pxNewTCB_12->pxStack
 237 003e FB88     		ldrh	r3, [r7, #6]	@ D.6559, usStackDepth
 238 0040 03F18043 		add	r3, r3, #1073741824	@ D.6559, D.6559,
 239 0044 013B     		subs	r3, r3, #1	@ D.6559, D.6559,
 240 0046 9B00     		lsls	r3, r3, #2	@ D.6559, D.6559,
 241 0048 1344     		add	r3, r3, r2	@ tmp148, D.6558
 242 004a 7B61     		str	r3, [r7, #20]	@ tmp148, pxTopOfStack
 553:FreeRTOS/tasks.c **** 			pxTopOfStack = ( StackT_t * ) ( ( ( portPOINTER_SIZE_TYPE ) pxTopOfStack ) & ( ( portPOINTER_SIZ
 243              		.loc 1 553 0
 244 004c 7B69     		ldr	r3, [r7, #20]	@ D.6560, pxTopOfStack
 245 004e 23F00703 		bic	r3, r3, #7	@ D.6560, D.6560,
 246 0052 7B61     		str	r3, [r7, #20]	@ D.6560, pxTopOfStack
 554:FreeRTOS/tasks.c **** 
 555:FreeRTOS/tasks.c **** 			/* Check the alignment of the calculated top of stack is correct. */
 556:FreeRTOS/tasks.c **** 			configASSERT( ( ( ( portPOINTER_SIZE_TYPE ) pxTopOfStack & ( portPOINTER_SIZE_TYPE ) portBYTE_AL
 247              		.loc 1 556 0
 248 0054 7B69     		ldr	r3, [r7, #20]	@ D.6560, pxTopOfStack
 249 0056 03F00703 		and	r3, r3, #7	@ D.6560, D.6560,
 250 005a 002B     		cmp	r3, #0	@ D.6560,
 251 005c 02D0     		beq	.L7	@,
 252              		.loc 1 556 0 is_stmt 0 discriminator 1
 253 005e FFF7FEFF 		bl	ulPortSetInterruptMask	@
 254              	.L8:
 255              		.loc 1 556 0 discriminator 3
 256 0062 FEE7     		b	.L8	@
 257              	.L7:
 557:FreeRTOS/tasks.c **** 		}
 558:FreeRTOS/tasks.c **** 		#else /* portSTACK_GROWTH */
 559:FreeRTOS/tasks.c **** 		{
 560:FreeRTOS/tasks.c **** 			pxTopOfStack = pxNewTCB->pxStack;
 561:FreeRTOS/tasks.c **** 
 562:FreeRTOS/tasks.c **** 			/* Check the alignment of the stack buffer is correct. */
 563:FreeRTOS/tasks.c **** 			configASSERT( ( ( ( portPOINTER_SIZE_TYPE ) pxNewTCB->pxStack & ( portPOINTER_SIZE_TYPE ) portBY
 564:FreeRTOS/tasks.c **** 
 565:FreeRTOS/tasks.c **** 			/* If we want to use stack checking on architectures that use
 566:FreeRTOS/tasks.c **** 			a positive stack growth direction then we also need to store the
 567:FreeRTOS/tasks.c **** 			other extreme of the stack space. */
 568:FreeRTOS/tasks.c **** 			pxNewTCB->pxEndOfStack = pxNewTCB->pxStack + ( usStackDepth - 1 );
 569:FreeRTOS/tasks.c **** 		}
 570:FreeRTOS/tasks.c **** 		#endif /* portSTACK_GROWTH */
 571:FreeRTOS/tasks.c **** 
 572:FreeRTOS/tasks.c **** 		/* Setup the newly allocated TCB with the initial state of the task. */
 573:FreeRTOS/tasks.c **** 		prvInitialiseTCBVariables( pxNewTCB, pcName, uxPriority, xRegions, usStackDepth );
 258              		.loc 1 573 0 is_stmt 1
ARM GAS  C:\Users\STUDENT\AppData\Local\Temp\ccRbxq9b.s 			page 16


 259 0064 FB88     		ldrh	r3, [r7, #6]	@ tmp149, usStackDepth
 260 0066 0093     		str	r3, [sp]	@ tmp149,
 261 0068 7B6B     		ldr	r3, [r7, #52]	@, xRegions
 262 006a BA6A     		ldr	r2, [r7, #40]	@, uxPriority
 263 006c B968     		ldr	r1, [r7, #8]	@, pcName
 264 006e B869     		ldr	r0, [r7, #24]	@, pxNewTCB
 265 0070 FFF7FEFF 		bl	prvInitialiseTCBVariables	@
 574:FreeRTOS/tasks.c **** 
 575:FreeRTOS/tasks.c **** 		/* Initialize the TCB stack to look as if the task was already running,
 576:FreeRTOS/tasks.c **** 		but had been interrupted by the scheduler.  The return address is set
 577:FreeRTOS/tasks.c **** 		to the start of the task function. Once the stack has been initialised
 578:FreeRTOS/tasks.c **** 		the	top of stack variable is updated. */
 579:FreeRTOS/tasks.c **** 		#if( portUSING_MPU_WRAPPERS == 1 )
 580:FreeRTOS/tasks.c **** 		{
 581:FreeRTOS/tasks.c **** 			pxNewTCB->pxTopOfStack = pxPortInitialiseStack( pxTopOfStack, pxTaskCode, pvParameters, xRunPriv
 582:FreeRTOS/tasks.c **** 		}
 583:FreeRTOS/tasks.c **** 		#else /* portUSING_MPU_WRAPPERS */
 584:FreeRTOS/tasks.c **** 		{
 585:FreeRTOS/tasks.c **** 			pxNewTCB->pxTopOfStack = pxPortInitialiseStack( pxTopOfStack, pxTaskCode, pvParameters );
 266              		.loc 1 585 0
 267 0074 3A68     		ldr	r2, [r7]	@, pvParameters
 268 0076 F968     		ldr	r1, [r7, #12]	@, pxTaskCode
 269 0078 7869     		ldr	r0, [r7, #20]	@, pxTopOfStack
 270 007a FFF7FEFF 		bl	pxPortInitialiseStack	@
 271 007e 0246     		mov	r2, r0	@ D.6558,
 272 0080 BB69     		ldr	r3, [r7, #24]	@ tmp150, pxNewTCB
 273 0082 1A60     		str	r2, [r3]	@ D.6558, pxNewTCB_12->pxTopOfStack
 586:FreeRTOS/tasks.c **** 		}
 587:FreeRTOS/tasks.c **** 		#endif /* portUSING_MPU_WRAPPERS */
 588:FreeRTOS/tasks.c **** 
 589:FreeRTOS/tasks.c **** 		if( ( void * ) pxCreatedTask != NULL )
 274              		.loc 1 589 0
 275 0084 FB6A     		ldr	r3, [r7, #44]	@ tmp151, pxCreatedTask
 276 0086 002B     		cmp	r3, #0	@ tmp151,
 277 0088 02D0     		beq	.L9	@,
 590:FreeRTOS/tasks.c **** 		{
 591:FreeRTOS/tasks.c **** 			/* Pass the TCB out - in an anonymous way.  The calling function/
 592:FreeRTOS/tasks.c **** 			task can use this as a handle to delete the task later if
 593:FreeRTOS/tasks.c **** 			required.*/
 594:FreeRTOS/tasks.c **** 			*pxCreatedTask = ( TaskHandle_t ) pxNewTCB;
 278              		.loc 1 594 0
 279 008a FB6A     		ldr	r3, [r7, #44]	@ tmp152, pxCreatedTask
 280 008c BA69     		ldr	r2, [r7, #24]	@ tmp153, pxNewTCB
 281 008e 1A60     		str	r2, [r3]	@ tmp153, *pxCreatedTask_30(D)
 282              	.L9:
 595:FreeRTOS/tasks.c **** 		}
 596:FreeRTOS/tasks.c **** 		else
 597:FreeRTOS/tasks.c **** 		{
 598:FreeRTOS/tasks.c **** 			mtCOVERAGE_TEST_MARKER();
 599:FreeRTOS/tasks.c **** 		}
 600:FreeRTOS/tasks.c **** 
 601:FreeRTOS/tasks.c **** 		/* Ensure interrupts don't access the task lists while they are being
 602:FreeRTOS/tasks.c **** 		updated. */
 603:FreeRTOS/tasks.c **** 		taskENTER_CRITICAL();
 283              		.loc 1 603 0
 284 0090 FFF7FEFF 		bl	vPortEnterCritical	@
 604:FreeRTOS/tasks.c **** 		{
ARM GAS  C:\Users\STUDENT\AppData\Local\Temp\ccRbxq9b.s 			page 17


 605:FreeRTOS/tasks.c **** 			uxCurrentNumberOfTasks++;
 285              		.loc 1 605 0
 286 0094 2D4B     		ldr	r3, .L15	@ tmp154,
 287 0096 1B68     		ldr	r3, [r3]	@ D.6560, uxCurrentNumberOfTasks
 288 0098 0133     		adds	r3, r3, #1	@ D.6560, D.6560,
 289 009a 2C4A     		ldr	r2, .L15	@ tmp155,
 290 009c 1360     		str	r3, [r2]	@ D.6560, uxCurrentNumberOfTasks
 606:FreeRTOS/tasks.c **** 			if( pxCurrentTCB == NULL )
 291              		.loc 1 606 0
 292 009e 2C4B     		ldr	r3, .L15+4	@ tmp156,
 293 00a0 1B68     		ldr	r3, [r3]	@ D.6561, pxCurrentTCB
 294 00a2 002B     		cmp	r3, #0	@ D.6561,
 295 00a4 09D1     		bne	.L10	@,
 607:FreeRTOS/tasks.c **** 			{
 608:FreeRTOS/tasks.c **** 				/* There are no other tasks, or all the other tasks are in
 609:FreeRTOS/tasks.c **** 				the suspended state - make this the current task. */
 610:FreeRTOS/tasks.c **** 				pxCurrentTCB =  pxNewTCB;
 296              		.loc 1 610 0
 297 00a6 2A4A     		ldr	r2, .L15+4	@ tmp157,
 298 00a8 BB69     		ldr	r3, [r7, #24]	@ tmp158, pxNewTCB
 299 00aa 1360     		str	r3, [r2]	@ tmp158, pxCurrentTCB
 611:FreeRTOS/tasks.c **** 
 612:FreeRTOS/tasks.c **** 				if( uxCurrentNumberOfTasks == ( UBaseT_t ) 1 )
 300              		.loc 1 612 0
 301 00ac 274B     		ldr	r3, .L15	@ tmp159,
 302 00ae 1B68     		ldr	r3, [r3]	@ D.6560, uxCurrentNumberOfTasks
 303 00b0 012B     		cmp	r3, #1	@ D.6560,
 304 00b2 0FD1     		bne	.L11	@,
 613:FreeRTOS/tasks.c **** 				{
 614:FreeRTOS/tasks.c **** 					/* This is the first task to be created so do the preliminary
 615:FreeRTOS/tasks.c **** 					initialisation required.  We will not recover if this call
 616:FreeRTOS/tasks.c **** 					fails, but we will report the failure. */
 617:FreeRTOS/tasks.c **** 					prvInitialiseTaskLists();
 305              		.loc 1 617 0
 306 00b4 FFF7FEFF 		bl	prvInitialiseTaskLists	@
 307 00b8 0CE0     		b	.L11	@
 308              	.L10:
 618:FreeRTOS/tasks.c **** 				}
 619:FreeRTOS/tasks.c **** 				else
 620:FreeRTOS/tasks.c **** 				{
 621:FreeRTOS/tasks.c **** 					mtCOVERAGE_TEST_MARKER();
 622:FreeRTOS/tasks.c **** 				}
 623:FreeRTOS/tasks.c **** 			}
 624:FreeRTOS/tasks.c **** 			else
 625:FreeRTOS/tasks.c **** 			{
 626:FreeRTOS/tasks.c **** 				/* If the scheduler is not already running, make this task the
 627:FreeRTOS/tasks.c **** 				current task if it is the highest priority task to be created
 628:FreeRTOS/tasks.c **** 				so far. */
 629:FreeRTOS/tasks.c **** 				if( xSchedulerRunning == pdFALSE )
 309              		.loc 1 629 0
 310 00ba 264B     		ldr	r3, .L15+8	@ tmp160,
 311 00bc 1B68     		ldr	r3, [r3]	@ D.6562, xSchedulerRunning
 312 00be 002B     		cmp	r3, #0	@ D.6562,
 313 00c0 08D1     		bne	.L11	@,
 630:FreeRTOS/tasks.c **** 				{
 631:FreeRTOS/tasks.c **** 					if( pxCurrentTCB->uxPriority <= uxPriority )
 314              		.loc 1 631 0
ARM GAS  C:\Users\STUDENT\AppData\Local\Temp\ccRbxq9b.s 			page 18


 315 00c2 234B     		ldr	r3, .L15+4	@ tmp161,
 316 00c4 1B68     		ldr	r3, [r3]	@ D.6561, pxCurrentTCB
 317 00c6 DA6A     		ldr	r2, [r3, #44]	@ D.6560, _41->uxPriority
 318 00c8 BB6A     		ldr	r3, [r7, #40]	@ tmp162, uxPriority
 319 00ca 9A42     		cmp	r2, r3	@ D.6560, tmp162
 320 00cc 02D8     		bhi	.L11	@,
 632:FreeRTOS/tasks.c **** 					{
 633:FreeRTOS/tasks.c **** 						pxCurrentTCB = pxNewTCB;
 321              		.loc 1 633 0
 322 00ce 204A     		ldr	r2, .L15+4	@ tmp163,
 323 00d0 BB69     		ldr	r3, [r7, #24]	@ tmp164, pxNewTCB
 324 00d2 1360     		str	r3, [r2]	@ tmp164, pxCurrentTCB
 325              	.L11:
 634:FreeRTOS/tasks.c **** 					}
 635:FreeRTOS/tasks.c **** 					else
 636:FreeRTOS/tasks.c **** 					{
 637:FreeRTOS/tasks.c **** 						mtCOVERAGE_TEST_MARKER();
 638:FreeRTOS/tasks.c **** 					}
 639:FreeRTOS/tasks.c **** 				}
 640:FreeRTOS/tasks.c **** 				else
 641:FreeRTOS/tasks.c **** 				{
 642:FreeRTOS/tasks.c **** 					mtCOVERAGE_TEST_MARKER();
 643:FreeRTOS/tasks.c **** 				}
 644:FreeRTOS/tasks.c **** 			}
 645:FreeRTOS/tasks.c **** 
 646:FreeRTOS/tasks.c **** 			uxTaskNumber++;
 326              		.loc 1 646 0
 327 00d4 204B     		ldr	r3, .L15+12	@ tmp165,
 328 00d6 1B68     		ldr	r3, [r3]	@ D.6560, uxTaskNumber
 329 00d8 0133     		adds	r3, r3, #1	@ D.6560, D.6560,
 330 00da 1F4A     		ldr	r2, .L15+12	@ tmp166,
 331 00dc 1360     		str	r3, [r2]	@ D.6560, uxTaskNumber
 647:FreeRTOS/tasks.c **** 
 648:FreeRTOS/tasks.c **** 			#if ( configUSE_TRACE_FACILITY == 1 )
 649:FreeRTOS/tasks.c **** 			{
 650:FreeRTOS/tasks.c **** 				/* Add a counter into the TCB for tracing only. */
 651:FreeRTOS/tasks.c **** 				pxNewTCB->uxTCBNumber = uxTaskNumber;
 332              		.loc 1 651 0
 333 00de 1E4B     		ldr	r3, .L15+12	@ tmp167,
 334 00e0 1A68     		ldr	r2, [r3]	@ D.6560, uxTaskNumber
 335 00e2 BB69     		ldr	r3, [r7, #24]	@ tmp168, pxNewTCB
 336 00e4 1A64     		str	r2, [r3, #64]	@ D.6560, pxNewTCB_12->uxTCBNumber
 652:FreeRTOS/tasks.c **** 			}
 653:FreeRTOS/tasks.c **** 			#endif /* configUSE_TRACE_FACILITY */
 654:FreeRTOS/tasks.c **** 			traceTASK_CREATE( pxNewTCB );
 655:FreeRTOS/tasks.c **** 
 656:FreeRTOS/tasks.c **** 			prvAddTaskToReadyList( pxNewTCB );
 337              		.loc 1 656 0
 338 00e6 BB69     		ldr	r3, [r7, #24]	@ tmp169, pxNewTCB
 339 00e8 DB6A     		ldr	r3, [r3, #44]	@ D.6560, pxNewTCB_12->uxPriority
 340 00ea 0122     		movs	r2, #1	@ tmp170,
 341 00ec 9A40     		lsls	r2, r2, r3	@ D.6560, tmp170, D.6560
 342 00ee 1B4B     		ldr	r3, .L15+16	@ tmp171,
 343 00f0 1B68     		ldr	r3, [r3]	@ D.6560, uxTopReadyPriority
 344 00f2 1343     		orrs	r3, r3, r2	@, D.6560, D.6560, D.6560
 345 00f4 194A     		ldr	r2, .L15+16	@ tmp172,
 346 00f6 1360     		str	r3, [r2]	@ D.6560, uxTopReadyPriority
ARM GAS  C:\Users\STUDENT\AppData\Local\Temp\ccRbxq9b.s 			page 19


 347 00f8 BB69     		ldr	r3, [r7, #24]	@ tmp173, pxNewTCB
 348 00fa DA6A     		ldr	r2, [r3, #44]	@ D.6560, pxNewTCB_12->uxPriority
 349 00fc 1346     		mov	r3, r2	@ tmp174, D.6560
 350 00fe 9B00     		lsls	r3, r3, #2	@ tmp174, tmp174,
 351 0100 1344     		add	r3, r3, r2	@ tmp174, D.6560
 352 0102 9B00     		lsls	r3, r3, #2	@ tmp175, tmp174,
 353 0104 164A     		ldr	r2, .L15+20	@ tmp176,
 354 0106 1A44     		add	r2, r2, r3	@ D.6563, tmp174
 355 0108 BB69     		ldr	r3, [r7, #24]	@ tmp177, pxNewTCB
 356 010a 0433     		adds	r3, r3, #4	@ D.6564, tmp177,
 357 010c 1946     		mov	r1, r3	@, D.6564
 358 010e 1046     		mov	r0, r2	@, D.6563
 359 0110 FFF7FEFF 		bl	vListInsertEnd	@
 657:FreeRTOS/tasks.c **** 
 658:FreeRTOS/tasks.c **** 			xReturn = pdPASS;
 360              		.loc 1 658 0
 361 0114 0123     		movs	r3, #1	@ tmp178,
 362 0116 FB61     		str	r3, [r7, #28]	@ tmp178, xReturn
 659:FreeRTOS/tasks.c **** 			portSETUP_TCB( pxNewTCB );
 660:FreeRTOS/tasks.c **** 		}
 661:FreeRTOS/tasks.c **** 		taskEXIT_CRITICAL();
 363              		.loc 1 661 0
 364 0118 FFF7FEFF 		bl	vPortExitCritical	@
 365              	.LBE6:
 366 011c 02E0     		b	.L12	@
 367              	.L6:
 662:FreeRTOS/tasks.c **** 	}
 663:FreeRTOS/tasks.c **** 	else
 664:FreeRTOS/tasks.c **** 	{
 665:FreeRTOS/tasks.c **** 		xReturn = errCOULD_NOT_ALLOCATE_REQUIRED_MEMORY;
 368              		.loc 1 665 0
 369 011e 4FF0FF33 		mov	r3, #-1	@ tmp179,
 370 0122 FB61     		str	r3, [r7, #28]	@ tmp179, xReturn
 371              	.L12:
 666:FreeRTOS/tasks.c **** 		traceTASK_CREATE_FAILED();
 667:FreeRTOS/tasks.c **** 	}
 668:FreeRTOS/tasks.c **** 
 669:FreeRTOS/tasks.c **** 	if( xReturn == pdPASS )
 372              		.loc 1 669 0
 373 0124 FB69     		ldr	r3, [r7, #28]	@ tmp180, xReturn
 374 0126 012B     		cmp	r3, #1	@ tmp180,
 375 0128 0BD1     		bne	.L13	@,
 670:FreeRTOS/tasks.c **** 	{
 671:FreeRTOS/tasks.c **** 		if( xSchedulerRunning != pdFALSE )
 376              		.loc 1 671 0
 377 012a 0A4B     		ldr	r3, .L15+8	@ tmp181,
 378 012c 1B68     		ldr	r3, [r3]	@ D.6562, xSchedulerRunning
 379 012e 002B     		cmp	r3, #0	@ D.6562,
 380 0130 07D0     		beq	.L13	@,
 672:FreeRTOS/tasks.c **** 		{
 673:FreeRTOS/tasks.c **** 			/* If the created task is of a higher priority than the current task
 674:FreeRTOS/tasks.c **** 			then it should run now. */
 675:FreeRTOS/tasks.c **** 			if( pxCurrentTCB->uxPriority < uxPriority )
 381              		.loc 1 675 0
 382 0132 074B     		ldr	r3, .L15+4	@ tmp182,
 383 0134 1B68     		ldr	r3, [r3]	@ D.6561, pxCurrentTCB
 384 0136 DA6A     		ldr	r2, [r3, #44]	@ D.6560, _63->uxPriority
ARM GAS  C:\Users\STUDENT\AppData\Local\Temp\ccRbxq9b.s 			page 20


 385 0138 BB6A     		ldr	r3, [r7, #40]	@ tmp183, uxPriority
 386 013a 9A42     		cmp	r2, r3	@ D.6560, tmp183
 387 013c 01D2     		bcs	.L13	@,
 676:FreeRTOS/tasks.c **** 			{
 677:FreeRTOS/tasks.c **** 				taskYIELD_IF_USING_PREEMPTION();
 388              		.loc 1 677 0
 389 013e FFF7FEFF 		bl	vPortYield	@
 390              	.L13:
 678:FreeRTOS/tasks.c **** 			}
 679:FreeRTOS/tasks.c **** 			else
 680:FreeRTOS/tasks.c **** 			{
 681:FreeRTOS/tasks.c **** 				mtCOVERAGE_TEST_MARKER();
 682:FreeRTOS/tasks.c **** 			}
 683:FreeRTOS/tasks.c **** 		}
 684:FreeRTOS/tasks.c **** 		else
 685:FreeRTOS/tasks.c **** 		{
 686:FreeRTOS/tasks.c **** 			mtCOVERAGE_TEST_MARKER();
 687:FreeRTOS/tasks.c **** 		}
 688:FreeRTOS/tasks.c **** 	}
 689:FreeRTOS/tasks.c **** 
 690:FreeRTOS/tasks.c **** 	return xReturn;
 391              		.loc 1 690 0
 392 0142 FB69     		ldr	r3, [r7, #28]	@ D.6565, xReturn
 691:FreeRTOS/tasks.c **** }
 393              		.loc 1 691 0
 394 0144 1846     		mov	r0, r3	@, <retval>
 395 0146 2037     		adds	r7, r7, #32	@,,
 396              		.cfi_def_cfa_offset 8
 397 0148 BD46     		mov	sp, r7	@,
 398              		.cfi_def_cfa_register 13
 399              		@ sp needed	@
 400 014a 80BD     		pop	{r7, pc}	@
 401              	.L16:
 402              		.align	2
 403              	.L15:
 404 014c 00000000 		.word	uxCurrentNumberOfTasks
 405 0150 00000000 		.word	pxCurrentTCB
 406 0154 00000000 		.word	xSchedulerRunning
 407 0158 00000000 		.word	uxTaskNumber
 408 015c 00000000 		.word	uxTopReadyPriority
 409 0160 00000000 		.word	pxReadyTasksLists
 410              		.cfi_endproc
 411              	.LFE1:
 412              		.size	xTaskGenericCreate, .-xTaskGenericCreate
 413              		.section	.text.vTaskDelete,"ax",%progbits
 414              		.align	2
 415              		.global	vTaskDelete
 416              		.thumb
 417              		.thumb_func
 418              		.type	vTaskDelete, %function
 419              	vTaskDelete:
 420              	.LFB2:
 692:FreeRTOS/tasks.c **** /*-----------------------------------------------------------*/
 693:FreeRTOS/tasks.c **** 
 694:FreeRTOS/tasks.c **** #if ( INCLUDE_vTaskDelete == 1 )
 695:FreeRTOS/tasks.c **** 
 696:FreeRTOS/tasks.c **** 	void vTaskDelete( TaskHandle_t xTaskToDelete )
ARM GAS  C:\Users\STUDENT\AppData\Local\Temp\ccRbxq9b.s 			page 21


 697:FreeRTOS/tasks.c **** 	{
 421              		.loc 1 697 0
 422              		.cfi_startproc
 423              		@ args = 0, pretend = 0, frame = 16
 424              		@ frame_needed = 1, uses_anonymous_args = 0
 425 0000 80B5     		push	{r7, lr}	@
 426              		.cfi_def_cfa_offset 8
 427              		.cfi_offset 7, -8
 428              		.cfi_offset 14, -4
 429 0002 84B0     		sub	sp, sp, #16	@,,
 430              		.cfi_def_cfa_offset 24
 431 0004 00AF     		add	r7, sp, #0	@,,
 432              		.cfi_def_cfa_register 7
 433 0006 7860     		str	r0, [r7, #4]	@ xTaskToDelete, xTaskToDelete
 698:FreeRTOS/tasks.c **** 	TCB_t *pxTCB;
 699:FreeRTOS/tasks.c **** 
 700:FreeRTOS/tasks.c **** 		taskENTER_CRITICAL();
 434              		.loc 1 700 0
 435 0008 FFF7FEFF 		bl	vPortEnterCritical	@
 701:FreeRTOS/tasks.c **** 		{
 702:FreeRTOS/tasks.c **** 			/* If null is passed in here then it is the calling task that is
 703:FreeRTOS/tasks.c **** 			being deleted. */
 704:FreeRTOS/tasks.c **** 			pxTCB = prvGetTCBFromHandle( xTaskToDelete );
 436              		.loc 1 704 0
 437 000c 7B68     		ldr	r3, [r7, #4]	@ tmp130, xTaskToDelete
 438 000e 002B     		cmp	r3, #0	@ tmp130,
 439 0010 02D1     		bne	.L18	@,
 440              		.loc 1 704 0 is_stmt 0 discriminator 1
 441 0012 2D4B     		ldr	r3, .L28	@ tmp131,
 442 0014 1B68     		ldr	r3, [r3]	@ D.6566, pxCurrentTCB
 443 0016 00E0     		b	.L19	@
 444              	.L18:
 445              		.loc 1 704 0 discriminator 2
 446 0018 7B68     		ldr	r3, [r7, #4]	@ D.6566, xTaskToDelete
 447              	.L19:
 448              		.loc 1 704 0 discriminator 4
 449 001a FB60     		str	r3, [r7, #12]	@ D.6566, pxTCB
 705:FreeRTOS/tasks.c **** 
 706:FreeRTOS/tasks.c **** 			/* Remove task from the ready list and place in the	termination list.
 707:FreeRTOS/tasks.c **** 			This will stop the task from be scheduled.  The idle task will check
 708:FreeRTOS/tasks.c **** 			the termination list and free up any memory allocated by the
 709:FreeRTOS/tasks.c **** 			scheduler for the TCB and stack. */
 710:FreeRTOS/tasks.c **** 			if( uxListRemove( &( pxTCB->xGenericListItem ) ) == ( UBaseT_t ) 0 )
 450              		.loc 1 710 0 is_stmt 1 discriminator 4
 451 001c FB68     		ldr	r3, [r7, #12]	@ tmp132, pxTCB
 452 001e 0433     		adds	r3, r3, #4	@ D.6567, tmp132,
 453 0020 1846     		mov	r0, r3	@, D.6567
 454 0022 FFF7FEFF 		bl	uxListRemove	@
 455 0026 0346     		mov	r3, r0	@ D.6568,
 456 0028 002B     		cmp	r3, #0	@ D.6568,
 457 002a 15D1     		bne	.L20	@,
 711:FreeRTOS/tasks.c **** 			{
 712:FreeRTOS/tasks.c **** 				taskRESET_READY_PRIORITY( pxTCB->uxPriority );
 458              		.loc 1 712 0
 459 002c FB68     		ldr	r3, [r7, #12]	@ tmp133, pxTCB
 460 002e DA6A     		ldr	r2, [r3, #44]	@ D.6568, pxTCB_11->uxPriority
 461 0030 2649     		ldr	r1, .L28+4	@ tmp134,
ARM GAS  C:\Users\STUDENT\AppData\Local\Temp\ccRbxq9b.s 			page 22


 462 0032 1346     		mov	r3, r2	@ tmp135, D.6568
 463 0034 9B00     		lsls	r3, r3, #2	@ tmp135, tmp135,
 464 0036 1344     		add	r3, r3, r2	@ tmp135, D.6568
 465 0038 9B00     		lsls	r3, r3, #2	@ tmp136, tmp135,
 466 003a 0B44     		add	r3, r3, r1	@ tmp137, tmp134
 467 003c 1B68     		ldr	r3, [r3]	@ D.6568, pxReadyTasksLists[_15].uxNumberOfItems
 468 003e 002B     		cmp	r3, #0	@ D.6568,
 469 0040 0AD1     		bne	.L20	@,
 470              		.loc 1 712 0 is_stmt 0 discriminator 1
 471 0042 FB68     		ldr	r3, [r7, #12]	@ tmp138, pxTCB
 472 0044 DB6A     		ldr	r3, [r3, #44]	@ D.6568, pxTCB_11->uxPriority
 473 0046 0122     		movs	r2, #1	@ tmp139,
 474 0048 02FA03F3 		lsl	r3, r2, r3	@ D.6568, tmp139, D.6568
 475 004c DA43     		mvns	r2, r3	@ D.6568, D.6568
 476 004e 204B     		ldr	r3, .L28+8	@ tmp140,
 477 0050 1B68     		ldr	r3, [r3]	@ D.6568, uxTopReadyPriority
 478 0052 1340     		ands	r3, r3, r2	@, D.6568, D.6568, D.6568
 479 0054 1E4A     		ldr	r2, .L28+8	@ tmp141,
 480 0056 1360     		str	r3, [r2]	@ D.6568, uxTopReadyPriority
 481              	.L20:
 713:FreeRTOS/tasks.c **** 			}
 714:FreeRTOS/tasks.c **** 			else
 715:FreeRTOS/tasks.c **** 			{
 716:FreeRTOS/tasks.c **** 				mtCOVERAGE_TEST_MARKER();
 717:FreeRTOS/tasks.c **** 			}
 718:FreeRTOS/tasks.c **** 
 719:FreeRTOS/tasks.c **** 			/* Is the task waiting on an event also? */
 720:FreeRTOS/tasks.c **** 			if( listLIST_ITEM_CONTAINER( &( pxTCB->xEventListItem ) ) != NULL )
 482              		.loc 1 720 0 is_stmt 1
 483 0058 FB68     		ldr	r3, [r7, #12]	@ tmp142, pxTCB
 484 005a 9B6A     		ldr	r3, [r3, #40]	@ D.6569, pxTCB_11->xEventListItem.pvContainer
 485 005c 002B     		cmp	r3, #0	@ D.6569,
 486 005e 04D0     		beq	.L22	@,
 721:FreeRTOS/tasks.c **** 			{
 722:FreeRTOS/tasks.c **** 				( void ) uxListRemove( &( pxTCB->xEventListItem ) );
 487              		.loc 1 722 0
 488 0060 FB68     		ldr	r3, [r7, #12]	@ tmp143, pxTCB
 489 0062 1833     		adds	r3, r3, #24	@ D.6567, tmp143,
 490 0064 1846     		mov	r0, r3	@, D.6567
 491 0066 FFF7FEFF 		bl	uxListRemove	@
 492              	.L22:
 723:FreeRTOS/tasks.c **** 			}
 724:FreeRTOS/tasks.c **** 			else
 725:FreeRTOS/tasks.c **** 			{
 726:FreeRTOS/tasks.c **** 				mtCOVERAGE_TEST_MARKER();
 727:FreeRTOS/tasks.c **** 			}
 728:FreeRTOS/tasks.c **** 
 729:FreeRTOS/tasks.c **** 			vListInsertEnd( &xTasksWaitingTermination, &( pxTCB->xGenericListItem ) );
 493              		.loc 1 729 0
 494 006a FB68     		ldr	r3, [r7, #12]	@ tmp144, pxTCB
 495 006c 0433     		adds	r3, r3, #4	@ D.6567, tmp144,
 496 006e 1946     		mov	r1, r3	@, D.6567
 497 0070 1848     		ldr	r0, .L28+12	@,
 498 0072 FFF7FEFF 		bl	vListInsertEnd	@
 730:FreeRTOS/tasks.c **** 
 731:FreeRTOS/tasks.c **** 			/* Increment the ucTasksDeleted variable so the idle task knows
 732:FreeRTOS/tasks.c **** 			there is a task that has been deleted and that it should therefore
ARM GAS  C:\Users\STUDENT\AppData\Local\Temp\ccRbxq9b.s 			page 23


 733:FreeRTOS/tasks.c **** 			check the xTasksWaitingTermination list. */
 734:FreeRTOS/tasks.c **** 			++uxTasksDeleted;
 499              		.loc 1 734 0
 500 0076 184B     		ldr	r3, .L28+16	@ tmp145,
 501 0078 1B68     		ldr	r3, [r3]	@ D.6568, uxTasksDeleted
 502 007a 0133     		adds	r3, r3, #1	@ D.6568, D.6568,
 503 007c 164A     		ldr	r2, .L28+16	@ tmp146,
 504 007e 1360     		str	r3, [r2]	@ D.6568, uxTasksDeleted
 735:FreeRTOS/tasks.c **** 
 736:FreeRTOS/tasks.c **** 			/* Increment the uxTaskNumberVariable also so kernel aware debuggers
 737:FreeRTOS/tasks.c **** 			can detect that the task lists need re-generating. */
 738:FreeRTOS/tasks.c **** 			uxTaskNumber++;
 505              		.loc 1 738 0
 506 0080 164B     		ldr	r3, .L28+20	@ tmp147,
 507 0082 1B68     		ldr	r3, [r3]	@ D.6568, uxTaskNumber
 508 0084 0133     		adds	r3, r3, #1	@ D.6568, D.6568,
 509 0086 154A     		ldr	r2, .L28+20	@ tmp148,
 510 0088 1360     		str	r3, [r2]	@ D.6568, uxTaskNumber
 739:FreeRTOS/tasks.c **** 
 740:FreeRTOS/tasks.c **** 			traceTASK_DELETE( pxTCB );
 741:FreeRTOS/tasks.c **** 		}
 742:FreeRTOS/tasks.c **** 		taskEXIT_CRITICAL();
 511              		.loc 1 742 0
 512 008a FFF7FEFF 		bl	vPortExitCritical	@
 743:FreeRTOS/tasks.c **** 
 744:FreeRTOS/tasks.c **** 		/* Force a reschedule if it is the currently running task that has just
 745:FreeRTOS/tasks.c **** 		been deleted. */
 746:FreeRTOS/tasks.c **** 		if( xSchedulerRunning != pdFALSE )
 513              		.loc 1 746 0
 514 008e 144B     		ldr	r3, .L28+24	@ tmp149,
 515 0090 1B68     		ldr	r3, [r3]	@ D.6570, xSchedulerRunning
 516 0092 002B     		cmp	r3, #0	@ D.6570,
 517 0094 14D0     		beq	.L27	@,
 747:FreeRTOS/tasks.c **** 		{
 748:FreeRTOS/tasks.c **** 			if( pxTCB == pxCurrentTCB )
 518              		.loc 1 748 0
 519 0096 0C4B     		ldr	r3, .L28	@ tmp150,
 520 0098 1B68     		ldr	r3, [r3]	@ D.6566, pxCurrentTCB
 521 009a FA68     		ldr	r2, [r7, #12]	@ tmp151, pxTCB
 522 009c 9A42     		cmp	r2, r3	@ tmp151, D.6566
 523 009e 09D1     		bne	.L24	@,
 749:FreeRTOS/tasks.c **** 			{
 750:FreeRTOS/tasks.c **** 				configASSERT( uxSchedulerSuspended == 0 );
 524              		.loc 1 750 0
 525 00a0 104B     		ldr	r3, .L28+28	@ tmp152,
 526 00a2 1B68     		ldr	r3, [r3]	@ D.6568, uxSchedulerSuspended
 527 00a4 002B     		cmp	r3, #0	@ D.6568,
 528 00a6 02D0     		beq	.L25	@,
 529              		.loc 1 750 0 is_stmt 0 discriminator 1
 530 00a8 FFF7FEFF 		bl	ulPortSetInterruptMask	@
 531              	.L26:
 532 00ac FEE7     		b	.L26	@
 533              	.L25:
 751:FreeRTOS/tasks.c **** 
 752:FreeRTOS/tasks.c **** 				/* The pre-delete hook is primarily for the Windows simulator,
 753:FreeRTOS/tasks.c **** 				in which Windows specific clean up operations are performed,
 754:FreeRTOS/tasks.c **** 				after which it is not possible to yield away from this task -
ARM GAS  C:\Users\STUDENT\AppData\Local\Temp\ccRbxq9b.s 			page 24


 755:FreeRTOS/tasks.c **** 				hence xYieldPending is used to latch that a context switch is
 756:FreeRTOS/tasks.c **** 				required. */
 757:FreeRTOS/tasks.c **** 				portPRE_TASK_DELETE_HOOK( pxTCB, &xYieldPending );
 758:FreeRTOS/tasks.c **** 				portYIELD_WITHIN_API();
 534              		.loc 1 758 0 is_stmt 1
 535 00ae FFF7FEFF 		bl	vPortYield	@
 759:FreeRTOS/tasks.c **** 			}
 760:FreeRTOS/tasks.c **** 			else
 761:FreeRTOS/tasks.c **** 			{
 762:FreeRTOS/tasks.c **** 				/* Reset the next expected unblock time in case it referred to
 763:FreeRTOS/tasks.c **** 				the task that has just been deleted. */
 764:FreeRTOS/tasks.c **** 				taskENTER_CRITICAL();
 765:FreeRTOS/tasks.c **** 				{
 766:FreeRTOS/tasks.c **** 					prvResetNextTaskUnblockTime();
 767:FreeRTOS/tasks.c **** 				}
 768:FreeRTOS/tasks.c **** 				taskEXIT_CRITICAL();
 769:FreeRTOS/tasks.c **** 			}
 770:FreeRTOS/tasks.c **** 		}
 771:FreeRTOS/tasks.c **** 	}
 536              		.loc 1 771 0
 537 00b2 05E0     		b	.L27	@
 538              	.L24:
 764:FreeRTOS/tasks.c **** 				{
 539              		.loc 1 764 0
 540 00b4 FFF7FEFF 		bl	vPortEnterCritical	@
 766:FreeRTOS/tasks.c **** 				}
 541              		.loc 1 766 0
 542 00b8 FFF7FEFF 		bl	prvResetNextTaskUnblockTime	@
 768:FreeRTOS/tasks.c **** 			}
 543              		.loc 1 768 0
 544 00bc FFF7FEFF 		bl	vPortExitCritical	@
 545              	.L27:
 546              		.loc 1 771 0
 547 00c0 00BF     		nop
 548 00c2 1037     		adds	r7, r7, #16	@,,
 549              		.cfi_def_cfa_offset 8
 550 00c4 BD46     		mov	sp, r7	@,
 551              		.cfi_def_cfa_register 13
 552              		@ sp needed	@
 553 00c6 80BD     		pop	{r7, pc}	@
 554              	.L29:
 555              		.align	2
 556              	.L28:
 557 00c8 00000000 		.word	pxCurrentTCB
 558 00cc 00000000 		.word	pxReadyTasksLists
 559 00d0 00000000 		.word	uxTopReadyPriority
 560 00d4 00000000 		.word	xTasksWaitingTermination
 561 00d8 00000000 		.word	uxTasksDeleted
 562 00dc 00000000 		.word	uxTaskNumber
 563 00e0 00000000 		.word	xSchedulerRunning
 564 00e4 00000000 		.word	uxSchedulerSuspended
 565              		.cfi_endproc
 566              	.LFE2:
 567              		.size	vTaskDelete, .-vTaskDelete
 568              		.section	.text.vTaskDelayUntil,"ax",%progbits
 569              		.align	2
 570              		.global	vTaskDelayUntil
ARM GAS  C:\Users\STUDENT\AppData\Local\Temp\ccRbxq9b.s 			page 25


 571              		.thumb
 572              		.thumb_func
 573              		.type	vTaskDelayUntil, %function
 574              	vTaskDelayUntil:
 575              	.LFB3:
 772:FreeRTOS/tasks.c **** 
 773:FreeRTOS/tasks.c **** #endif /* INCLUDE_vTaskDelete */
 774:FreeRTOS/tasks.c **** /*-----------------------------------------------------------*/
 775:FreeRTOS/tasks.c **** 
 776:FreeRTOS/tasks.c **** #if ( INCLUDE_vTaskDelayUntil == 1 )
 777:FreeRTOS/tasks.c **** 
 778:FreeRTOS/tasks.c **** 	void vTaskDelayUntil( TickT_t * const pxPreviousWakeTime, const TickT_t xTimeIncrement )
 779:FreeRTOS/tasks.c **** 	{
 576              		.loc 1 779 0
 577              		.cfi_startproc
 578              		@ args = 0, pretend = 0, frame = 24
 579              		@ frame_needed = 1, uses_anonymous_args = 0
 580 0000 80B5     		push	{r7, lr}	@
 581              		.cfi_def_cfa_offset 8
 582              		.cfi_offset 7, -8
 583              		.cfi_offset 14, -4
 584 0002 86B0     		sub	sp, sp, #24	@,,
 585              		.cfi_def_cfa_offset 32
 586 0004 00AF     		add	r7, sp, #0	@,,
 587              		.cfi_def_cfa_register 7
 588 0006 7860     		str	r0, [r7, #4]	@ pxPreviousWakeTime, pxPreviousWakeTime
 589 0008 3960     		str	r1, [r7]	@ xTimeIncrement, xTimeIncrement
 780:FreeRTOS/tasks.c **** 	TickT_t xTimeToWake;
 781:FreeRTOS/tasks.c **** 	BaseT_t xAlreadyYielded, xShouldDelay = pdFALSE;
 590              		.loc 1 781 0
 591 000a 0023     		movs	r3, #0	@ tmp124,
 592 000c 7B61     		str	r3, [r7, #20]	@ tmp124, xShouldDelay
 782:FreeRTOS/tasks.c **** 
 783:FreeRTOS/tasks.c **** 		configASSERT( pxPreviousWakeTime );
 593              		.loc 1 783 0
 594 000e 7B68     		ldr	r3, [r7, #4]	@ tmp125, pxPreviousWakeTime
 595 0010 002B     		cmp	r3, #0	@ tmp125,
 596 0012 02D1     		bne	.L31	@,
 597              		.loc 1 783 0 is_stmt 0 discriminator 1
 598 0014 FFF7FEFF 		bl	ulPortSetInterruptMask	@
 599              	.L32:
 600 0018 FEE7     		b	.L32	@
 601              	.L31:
 784:FreeRTOS/tasks.c **** 		configASSERT( ( xTimeIncrement > 0U ) );
 602              		.loc 1 784 0 is_stmt 1
 603 001a 3B68     		ldr	r3, [r7]	@ tmp126, xTimeIncrement
 604 001c 002B     		cmp	r3, #0	@ tmp126,
 605 001e 02D1     		bne	.L33	@,
 606              		.loc 1 784 0 is_stmt 0 discriminator 1
 607 0020 FFF7FEFF 		bl	ulPortSetInterruptMask	@
 608              	.L34:
 609              		.loc 1 784 0 discriminator 2
 610 0024 FEE7     		b	.L34	@
 611              	.L33:
 785:FreeRTOS/tasks.c **** 		configASSERT( uxSchedulerSuspended == 0 );
 612              		.loc 1 785 0 is_stmt 1
 613 0026 2B4B     		ldr	r3, .L44	@ tmp127,
ARM GAS  C:\Users\STUDENT\AppData\Local\Temp\ccRbxq9b.s 			page 26


 614 0028 1B68     		ldr	r3, [r3]	@ D.6571, uxSchedulerSuspended
 615 002a 002B     		cmp	r3, #0	@ D.6571,
 616 002c 02D0     		beq	.L35	@,
 617              		.loc 1 785 0 is_stmt 0 discriminator 1
 618 002e FFF7FEFF 		bl	ulPortSetInterruptMask	@
 619              	.L36:
 620              		.loc 1 785 0 discriminator 3
 621 0032 FEE7     		b	.L36	@
 622              	.L35:
 786:FreeRTOS/tasks.c **** 
 787:FreeRTOS/tasks.c **** 		vTaskSuspendAll();
 623              		.loc 1 787 0 is_stmt 1
 624 0034 FFF7FEFF 		bl	vTaskSuspendAll	@
 625              	.LBB7:
 788:FreeRTOS/tasks.c **** 		{
 789:FreeRTOS/tasks.c **** 			/* Minor optimisation.  The tick count cannot change in this
 790:FreeRTOS/tasks.c **** 			block. */
 791:FreeRTOS/tasks.c **** 			const TickT_t xConstTickCount = xTickCount;
 626              		.loc 1 791 0
 627 0038 274B     		ldr	r3, .L44+4	@ tmp128,
 628 003a 1B68     		ldr	r3, [r3]	@ tmp129, xTickCount
 629 003c 3B61     		str	r3, [r7, #16]	@ tmp129, xConstTickCount
 792:FreeRTOS/tasks.c **** 
 793:FreeRTOS/tasks.c **** 			/* Generate the tick time at which the task wants to wake. */
 794:FreeRTOS/tasks.c **** 			xTimeToWake = *pxPreviousWakeTime + xTimeIncrement;
 630              		.loc 1 794 0
 631 003e 7B68     		ldr	r3, [r7, #4]	@ tmp130, pxPreviousWakeTime
 632 0040 1A68     		ldr	r2, [r3]	@ D.6571, *pxPreviousWakeTime_6(D)
 633 0042 3B68     		ldr	r3, [r7]	@ tmp132, xTimeIncrement
 634 0044 1344     		add	r3, r3, r2	@ tmp131, D.6571
 635 0046 FB60     		str	r3, [r7, #12]	@ tmp131, xTimeToWake
 795:FreeRTOS/tasks.c **** 
 796:FreeRTOS/tasks.c **** 			if( xConstTickCount < *pxPreviousWakeTime )
 636              		.loc 1 796 0
 637 0048 7B68     		ldr	r3, [r7, #4]	@ tmp133, pxPreviousWakeTime
 638 004a 1A68     		ldr	r2, [r3]	@ D.6571, *pxPreviousWakeTime_6(D)
 639 004c 3B69     		ldr	r3, [r7, #16]	@ tmp134, xConstTickCount
 640 004e 9A42     		cmp	r2, r3	@ D.6571, tmp134
 641 0050 0BD9     		bls	.L37	@,
 797:FreeRTOS/tasks.c **** 			{
 798:FreeRTOS/tasks.c **** 				/* The tick count has overflowed since this function was
 799:FreeRTOS/tasks.c **** 				lasted called.  In this case the only time we should ever
 800:FreeRTOS/tasks.c **** 				actually delay is if the wake time has also	overflowed,
 801:FreeRTOS/tasks.c **** 				and the wake time is greater than the tick time.  When this
 802:FreeRTOS/tasks.c **** 				is the case it is as if neither time had overflowed. */
 803:FreeRTOS/tasks.c **** 				if( ( xTimeToWake < *pxPreviousWakeTime ) && ( xTimeToWake > xConstTickCount ) )
 642              		.loc 1 803 0
 643 0052 7B68     		ldr	r3, [r7, #4]	@ tmp135, pxPreviousWakeTime
 644 0054 1A68     		ldr	r2, [r3]	@ D.6571, *pxPreviousWakeTime_6(D)
 645 0056 FB68     		ldr	r3, [r7, #12]	@ tmp136, xTimeToWake
 646 0058 9A42     		cmp	r2, r3	@ D.6571, tmp136
 647 005a 11D9     		bls	.L38	@,
 648              		.loc 1 803 0 is_stmt 0 discriminator 1
 649 005c FA68     		ldr	r2, [r7, #12]	@ tmp137, xTimeToWake
 650 005e 3B69     		ldr	r3, [r7, #16]	@ tmp138, xConstTickCount
 651 0060 9A42     		cmp	r2, r3	@ tmp137, tmp138
 652 0062 0DD9     		bls	.L38	@,
ARM GAS  C:\Users\STUDENT\AppData\Local\Temp\ccRbxq9b.s 			page 27


 804:FreeRTOS/tasks.c **** 				{
 805:FreeRTOS/tasks.c **** 					xShouldDelay = pdTRUE;
 653              		.loc 1 805 0 is_stmt 1
 654 0064 0123     		movs	r3, #1	@ tmp139,
 655 0066 7B61     		str	r3, [r7, #20]	@ tmp139, xShouldDelay
 656 0068 0AE0     		b	.L38	@
 657              	.L37:
 806:FreeRTOS/tasks.c **** 				}
 807:FreeRTOS/tasks.c **** 				else
 808:FreeRTOS/tasks.c **** 				{
 809:FreeRTOS/tasks.c **** 					mtCOVERAGE_TEST_MARKER();
 810:FreeRTOS/tasks.c **** 				}
 811:FreeRTOS/tasks.c **** 			}
 812:FreeRTOS/tasks.c **** 			else
 813:FreeRTOS/tasks.c **** 			{
 814:FreeRTOS/tasks.c **** 				/* The tick time has not overflowed.  In this case we will
 815:FreeRTOS/tasks.c **** 				delay if either the wake time has overflowed, and/or the
 816:FreeRTOS/tasks.c **** 				tick time is less than the wake time. */
 817:FreeRTOS/tasks.c **** 				if( ( xTimeToWake < *pxPreviousWakeTime ) || ( xTimeToWake > xConstTickCount ) )
 658              		.loc 1 817 0
 659 006a 7B68     		ldr	r3, [r7, #4]	@ tmp140, pxPreviousWakeTime
 660 006c 1A68     		ldr	r2, [r3]	@ D.6571, *pxPreviousWakeTime_6(D)
 661 006e FB68     		ldr	r3, [r7, #12]	@ tmp141, xTimeToWake
 662 0070 9A42     		cmp	r2, r3	@ D.6571, tmp141
 663 0072 03D8     		bhi	.L39	@,
 664              		.loc 1 817 0 is_stmt 0 discriminator 1
 665 0074 FA68     		ldr	r2, [r7, #12]	@ tmp142, xTimeToWake
 666 0076 3B69     		ldr	r3, [r7, #16]	@ tmp143, xConstTickCount
 667 0078 9A42     		cmp	r2, r3	@ tmp142, tmp143
 668 007a 01D9     		bls	.L38	@,
 669              	.L39:
 818:FreeRTOS/tasks.c **** 				{
 819:FreeRTOS/tasks.c **** 					xShouldDelay = pdTRUE;
 670              		.loc 1 819 0 is_stmt 1
 671 007c 0123     		movs	r3, #1	@ tmp144,
 672 007e 7B61     		str	r3, [r7, #20]	@ tmp144, xShouldDelay
 673              	.L38:
 820:FreeRTOS/tasks.c **** 				}
 821:FreeRTOS/tasks.c **** 				else
 822:FreeRTOS/tasks.c **** 				{
 823:FreeRTOS/tasks.c **** 					mtCOVERAGE_TEST_MARKER();
 824:FreeRTOS/tasks.c **** 				}
 825:FreeRTOS/tasks.c **** 			}
 826:FreeRTOS/tasks.c **** 
 827:FreeRTOS/tasks.c **** 			/* Update the wake time ready for the next call. */
 828:FreeRTOS/tasks.c **** 			*pxPreviousWakeTime = xTimeToWake;
 674              		.loc 1 828 0
 675 0080 7B68     		ldr	r3, [r7, #4]	@ tmp145, pxPreviousWakeTime
 676 0082 FA68     		ldr	r2, [r7, #12]	@ tmp146, xTimeToWake
 677 0084 1A60     		str	r2, [r3]	@ tmp146, *pxPreviousWakeTime_6(D)
 829:FreeRTOS/tasks.c **** 
 830:FreeRTOS/tasks.c **** 			if( xShouldDelay != pdFALSE )
 678              		.loc 1 830 0
 679 0086 7B69     		ldr	r3, [r7, #20]	@ tmp147, xShouldDelay
 680 0088 002B     		cmp	r3, #0	@ tmp147,
 681 008a 17D0     		beq	.L40	@,
 831:FreeRTOS/tasks.c **** 			{
ARM GAS  C:\Users\STUDENT\AppData\Local\Temp\ccRbxq9b.s 			page 28


 832:FreeRTOS/tasks.c **** 				traceTASK_DELAY_UNTIL();
 833:FreeRTOS/tasks.c **** 
 834:FreeRTOS/tasks.c **** 				/* Remove the task from the ready list before adding it to the
 835:FreeRTOS/tasks.c **** 				blocked list as the same list item is used for both lists. */
 836:FreeRTOS/tasks.c **** 				if( uxListRemove( &( pxCurrentTCB->xGenericListItem ) ) == ( UBaseT_t ) 0 )
 682              		.loc 1 836 0
 683 008c 134B     		ldr	r3, .L44+8	@ tmp148,
 684 008e 1B68     		ldr	r3, [r3]	@ D.6572, pxCurrentTCB
 685 0090 0433     		adds	r3, r3, #4	@ D.6573, D.6572,
 686 0092 1846     		mov	r0, r3	@, D.6573
 687 0094 FFF7FEFF 		bl	uxListRemove	@
 688 0098 0346     		mov	r3, r0	@ D.6571,
 689 009a 002B     		cmp	r3, #0	@ D.6571,
 690 009c 0BD1     		bne	.L41	@,
 837:FreeRTOS/tasks.c **** 				{
 838:FreeRTOS/tasks.c **** 					/* The current task must be in a ready list, so there is
 839:FreeRTOS/tasks.c **** 					no need to check, and the port reset macro can be called
 840:FreeRTOS/tasks.c **** 					directly. */
 841:FreeRTOS/tasks.c **** 					portRESET_READY_PRIORITY( pxCurrentTCB->uxPriority, uxTopReadyPriority );
 691              		.loc 1 841 0
 692 009e 0F4B     		ldr	r3, .L44+8	@ tmp149,
 693 00a0 1B68     		ldr	r3, [r3]	@ D.6572, pxCurrentTCB
 694 00a2 DB6A     		ldr	r3, [r3, #44]	@ D.6571, _24->uxPriority
 695 00a4 0122     		movs	r2, #1	@ tmp150,
 696 00a6 02FA03F3 		lsl	r3, r2, r3	@ D.6571, tmp150, D.6571
 697 00aa DA43     		mvns	r2, r3	@ D.6571, D.6571
 698 00ac 0C4B     		ldr	r3, .L44+12	@ tmp151,
 699 00ae 1B68     		ldr	r3, [r3]	@ D.6571, uxTopReadyPriority
 700 00b0 1340     		ands	r3, r3, r2	@, D.6571, D.6571, D.6571
 701 00b2 0B4A     		ldr	r2, .L44+12	@ tmp152,
 702 00b4 1360     		str	r3, [r2]	@ D.6571, uxTopReadyPriority
 703              	.L41:
 842:FreeRTOS/tasks.c **** 				}
 843:FreeRTOS/tasks.c **** 				else
 844:FreeRTOS/tasks.c **** 				{
 845:FreeRTOS/tasks.c **** 					mtCOVERAGE_TEST_MARKER();
 846:FreeRTOS/tasks.c **** 				}
 847:FreeRTOS/tasks.c **** 
 848:FreeRTOS/tasks.c **** 				prvAddCurrentTaskToDelayedList( xTimeToWake );
 704              		.loc 1 848 0
 705 00b6 F868     		ldr	r0, [r7, #12]	@, xTimeToWake
 706 00b8 FFF7FEFF 		bl	prvAddCurrentTaskToDelayedList	@
 707              	.L40:
 708              	.LBE7:
 849:FreeRTOS/tasks.c **** 			}
 850:FreeRTOS/tasks.c **** 			else
 851:FreeRTOS/tasks.c **** 			{
 852:FreeRTOS/tasks.c **** 				mtCOVERAGE_TEST_MARKER();
 853:FreeRTOS/tasks.c **** 			}
 854:FreeRTOS/tasks.c **** 		}
 855:FreeRTOS/tasks.c **** 		xAlreadyYielded = xTaskResumeAll();
 709              		.loc 1 855 0
 710 00bc FFF7FEFF 		bl	xTaskResumeAll	@
 711 00c0 B860     		str	r0, [r7, #8]	@, xAlreadyYielded
 856:FreeRTOS/tasks.c **** 
 857:FreeRTOS/tasks.c **** 		/* Force a reschedule if xTaskResumeAll has not already done so, we may
 858:FreeRTOS/tasks.c **** 		have put ourselves to sleep. */
ARM GAS  C:\Users\STUDENT\AppData\Local\Temp\ccRbxq9b.s 			page 29


 859:FreeRTOS/tasks.c **** 		if( xAlreadyYielded == pdFALSE )
 712              		.loc 1 859 0
 713 00c2 BB68     		ldr	r3, [r7, #8]	@ tmp153, xAlreadyYielded
 714 00c4 002B     		cmp	r3, #0	@ tmp153,
 715 00c6 01D1     		bne	.L43	@,
 860:FreeRTOS/tasks.c **** 		{
 861:FreeRTOS/tasks.c **** 			portYIELD_WITHIN_API();
 716              		.loc 1 861 0
 717 00c8 FFF7FEFF 		bl	vPortYield	@
 718              	.L43:
 862:FreeRTOS/tasks.c **** 		}
 863:FreeRTOS/tasks.c **** 		else
 864:FreeRTOS/tasks.c **** 		{
 865:FreeRTOS/tasks.c **** 			mtCOVERAGE_TEST_MARKER();
 866:FreeRTOS/tasks.c **** 		}
 867:FreeRTOS/tasks.c **** 	}
 719              		.loc 1 867 0
 720 00cc 00BF     		nop
 721 00ce 1837     		adds	r7, r7, #24	@,,
 722              		.cfi_def_cfa_offset 8
 723 00d0 BD46     		mov	sp, r7	@,
 724              		.cfi_def_cfa_register 13
 725              		@ sp needed	@
 726 00d2 80BD     		pop	{r7, pc}	@
 727              	.L45:
 728              		.align	2
 729              	.L44:
 730 00d4 00000000 		.word	uxSchedulerSuspended
 731 00d8 00000000 		.word	xTickCount
 732 00dc 00000000 		.word	pxCurrentTCB
 733 00e0 00000000 		.word	uxTopReadyPriority
 734              		.cfi_endproc
 735              	.LFE3:
 736              		.size	vTaskDelayUntil, .-vTaskDelayUntil
 737              		.section	.text.vTaskDelay,"ax",%progbits
 738              		.align	2
 739              		.global	vTaskDelay
 740              		.thumb
 741              		.thumb_func
 742              		.type	vTaskDelay, %function
 743              	vTaskDelay:
 744              	.LFB4:
 868:FreeRTOS/tasks.c **** 
 869:FreeRTOS/tasks.c **** #endif /* INCLUDE_vTaskDelayUntil */
 870:FreeRTOS/tasks.c **** /*-----------------------------------------------------------*/
 871:FreeRTOS/tasks.c **** 
 872:FreeRTOS/tasks.c **** #if ( INCLUDE_vTaskDelay == 1 )
 873:FreeRTOS/tasks.c **** 
 874:FreeRTOS/tasks.c **** 	void vTaskDelay( const TickT_t xTicksToDelay )
 875:FreeRTOS/tasks.c **** 	{
 745              		.loc 1 875 0
 746              		.cfi_startproc
 747              		@ args = 0, pretend = 0, frame = 16
 748              		@ frame_needed = 1, uses_anonymous_args = 0
 749 0000 80B5     		push	{r7, lr}	@
 750              		.cfi_def_cfa_offset 8
 751              		.cfi_offset 7, -8
ARM GAS  C:\Users\STUDENT\AppData\Local\Temp\ccRbxq9b.s 			page 30


 752              		.cfi_offset 14, -4
 753 0002 84B0     		sub	sp, sp, #16	@,,
 754              		.cfi_def_cfa_offset 24
 755 0004 00AF     		add	r7, sp, #0	@,,
 756              		.cfi_def_cfa_register 7
 757 0006 7860     		str	r0, [r7, #4]	@ xTicksToDelay, xTicksToDelay
 876:FreeRTOS/tasks.c **** 	TickT_t xTimeToWake;
 877:FreeRTOS/tasks.c **** 	BaseT_t xAlreadyYielded = pdFALSE;
 758              		.loc 1 877 0
 759 0008 0023     		movs	r3, #0	@ tmp121,
 760 000a FB60     		str	r3, [r7, #12]	@ tmp121, xAlreadyYielded
 878:FreeRTOS/tasks.c **** 
 879:FreeRTOS/tasks.c **** 
 880:FreeRTOS/tasks.c **** 		/* A delay time of zero just forces a reschedule. */
 881:FreeRTOS/tasks.c **** 		if( xTicksToDelay > ( TickT_t ) 0U )
 761              		.loc 1 881 0
 762 000c 7B68     		ldr	r3, [r7, #4]	@ tmp122, xTicksToDelay
 763 000e 002B     		cmp	r3, #0	@ tmp122,
 764 0010 28D0     		beq	.L47	@,
 882:FreeRTOS/tasks.c **** 		{
 883:FreeRTOS/tasks.c **** 			configASSERT( uxSchedulerSuspended == 0 );
 765              		.loc 1 883 0
 766 0012 194B     		ldr	r3, .L53	@ tmp123,
 767 0014 1B68     		ldr	r3, [r3]	@ D.6574, uxSchedulerSuspended
 768 0016 002B     		cmp	r3, #0	@ D.6574,
 769 0018 02D0     		beq	.L48	@,
 770              		.loc 1 883 0 is_stmt 0 discriminator 1
 771 001a FFF7FEFF 		bl	ulPortSetInterruptMask	@
 772              	.L49:
 773 001e FEE7     		b	.L49	@
 774              	.L48:
 884:FreeRTOS/tasks.c **** 			vTaskSuspendAll();
 775              		.loc 1 884 0 is_stmt 1
 776 0020 FFF7FEFF 		bl	vTaskSuspendAll	@
 885:FreeRTOS/tasks.c **** 			{
 886:FreeRTOS/tasks.c **** 				traceTASK_DELAY();
 887:FreeRTOS/tasks.c **** 
 888:FreeRTOS/tasks.c **** 				/* A task that is removed from the event list while the
 889:FreeRTOS/tasks.c **** 				scheduler is suspended will not get placed in the ready
 890:FreeRTOS/tasks.c **** 				list or removed from the blocked list until the scheduler
 891:FreeRTOS/tasks.c **** 				is resumed.
 892:FreeRTOS/tasks.c **** 
 893:FreeRTOS/tasks.c **** 				This task cannot be in an event list as it is the currently
 894:FreeRTOS/tasks.c **** 				executing task. */
 895:FreeRTOS/tasks.c **** 
 896:FreeRTOS/tasks.c **** 				/* Calculate the time to wake - this may overflow but this is
 897:FreeRTOS/tasks.c **** 				not a problem. */
 898:FreeRTOS/tasks.c **** 				xTimeToWake = xTickCount + xTicksToDelay;
 777              		.loc 1 898 0
 778 0024 154B     		ldr	r3, .L53+4	@ tmp124,
 779 0026 1A68     		ldr	r2, [r3]	@ D.6574, xTickCount
 780 0028 7B68     		ldr	r3, [r7, #4]	@ tmp126, xTicksToDelay
 781 002a 1344     		add	r3, r3, r2	@ tmp125, D.6574
 782 002c BB60     		str	r3, [r7, #8]	@ tmp125, xTimeToWake
 899:FreeRTOS/tasks.c **** 
 900:FreeRTOS/tasks.c **** 				/* We must remove ourselves from the ready list before adding
 901:FreeRTOS/tasks.c **** 				ourselves to the blocked list as the same list item is used for
ARM GAS  C:\Users\STUDENT\AppData\Local\Temp\ccRbxq9b.s 			page 31


 902:FreeRTOS/tasks.c **** 				both lists. */
 903:FreeRTOS/tasks.c **** 				if( uxListRemove( &( pxCurrentTCB->xGenericListItem ) ) == ( UBaseT_t ) 0 )
 783              		.loc 1 903 0
 784 002e 144B     		ldr	r3, .L53+8	@ tmp127,
 785 0030 1B68     		ldr	r3, [r3]	@ D.6575, pxCurrentTCB
 786 0032 0433     		adds	r3, r3, #4	@ D.6576, D.6575,
 787 0034 1846     		mov	r0, r3	@, D.6576
 788 0036 FFF7FEFF 		bl	uxListRemove	@
 789 003a 0346     		mov	r3, r0	@ D.6574,
 790 003c 002B     		cmp	r3, #0	@ D.6574,
 791 003e 0BD1     		bne	.L50	@,
 904:FreeRTOS/tasks.c **** 				{
 905:FreeRTOS/tasks.c **** 					/* The current task must be in a ready list, so there is
 906:FreeRTOS/tasks.c **** 					no need to check, and the port reset macro can be called
 907:FreeRTOS/tasks.c **** 					directly. */
 908:FreeRTOS/tasks.c **** 					portRESET_READY_PRIORITY( pxCurrentTCB->uxPriority, uxTopReadyPriority );
 792              		.loc 1 908 0
 793 0040 0F4B     		ldr	r3, .L53+8	@ tmp128,
 794 0042 1B68     		ldr	r3, [r3]	@ D.6575, pxCurrentTCB
 795 0044 DB6A     		ldr	r3, [r3, #44]	@ D.6574, _16->uxPriority
 796 0046 0122     		movs	r2, #1	@ tmp129,
 797 0048 02FA03F3 		lsl	r3, r2, r3	@ D.6574, tmp129, D.6574
 798 004c DA43     		mvns	r2, r3	@ D.6574, D.6574
 799 004e 0D4B     		ldr	r3, .L53+12	@ tmp130,
 800 0050 1B68     		ldr	r3, [r3]	@ D.6574, uxTopReadyPriority
 801 0052 1340     		ands	r3, r3, r2	@, D.6574, D.6574, D.6574
 802 0054 0B4A     		ldr	r2, .L53+12	@ tmp131,
 803 0056 1360     		str	r3, [r2]	@ D.6574, uxTopReadyPriority
 804              	.L50:
 909:FreeRTOS/tasks.c **** 				}
 910:FreeRTOS/tasks.c **** 				else
 911:FreeRTOS/tasks.c **** 				{
 912:FreeRTOS/tasks.c **** 					mtCOVERAGE_TEST_MARKER();
 913:FreeRTOS/tasks.c **** 				}
 914:FreeRTOS/tasks.c **** 				prvAddCurrentTaskToDelayedList( xTimeToWake );
 805              		.loc 1 914 0
 806 0058 B868     		ldr	r0, [r7, #8]	@, xTimeToWake
 807 005a FFF7FEFF 		bl	prvAddCurrentTaskToDelayedList	@
 915:FreeRTOS/tasks.c **** 			}
 916:FreeRTOS/tasks.c **** 			xAlreadyYielded = xTaskResumeAll();
 808              		.loc 1 916 0
 809 005e FFF7FEFF 		bl	xTaskResumeAll	@
 810 0062 F860     		str	r0, [r7, #12]	@, xAlreadyYielded
 811              	.L47:
 917:FreeRTOS/tasks.c **** 		}
 918:FreeRTOS/tasks.c **** 		else
 919:FreeRTOS/tasks.c **** 		{
 920:FreeRTOS/tasks.c **** 			mtCOVERAGE_TEST_MARKER();
 921:FreeRTOS/tasks.c **** 		}
 922:FreeRTOS/tasks.c **** 
 923:FreeRTOS/tasks.c **** 		/* Force a reschedule if xTaskResumeAll has not already done so, we may
 924:FreeRTOS/tasks.c **** 		have put ourselves to sleep. */
 925:FreeRTOS/tasks.c **** 		if( xAlreadyYielded == pdFALSE )
 812              		.loc 1 925 0
 813 0064 FB68     		ldr	r3, [r7, #12]	@ tmp132, xAlreadyYielded
 814 0066 002B     		cmp	r3, #0	@ tmp132,
 815 0068 01D1     		bne	.L52	@,
ARM GAS  C:\Users\STUDENT\AppData\Local\Temp\ccRbxq9b.s 			page 32


 926:FreeRTOS/tasks.c **** 		{
 927:FreeRTOS/tasks.c **** 			portYIELD_WITHIN_API();
 816              		.loc 1 927 0
 817 006a FFF7FEFF 		bl	vPortYield	@
 818              	.L52:
 928:FreeRTOS/tasks.c **** 		}
 929:FreeRTOS/tasks.c **** 		else
 930:FreeRTOS/tasks.c **** 		{
 931:FreeRTOS/tasks.c **** 			mtCOVERAGE_TEST_MARKER();
 932:FreeRTOS/tasks.c **** 		}
 933:FreeRTOS/tasks.c **** 	}
 819              		.loc 1 933 0
 820 006e 00BF     		nop
 821 0070 1037     		adds	r7, r7, #16	@,,
 822              		.cfi_def_cfa_offset 8
 823 0072 BD46     		mov	sp, r7	@,
 824              		.cfi_def_cfa_register 13
 825              		@ sp needed	@
 826 0074 80BD     		pop	{r7, pc}	@
 827              	.L54:
 828 0076 00BF     		.align	2
 829              	.L53:
 830 0078 00000000 		.word	uxSchedulerSuspended
 831 007c 00000000 		.word	xTickCount
 832 0080 00000000 		.word	pxCurrentTCB
 833 0084 00000000 		.word	uxTopReadyPriority
 834              		.cfi_endproc
 835              	.LFE4:
 836              		.size	vTaskDelay, .-vTaskDelay
 837              		.section	.text.uxTaskPriorityGet,"ax",%progbits
 838              		.align	2
 839              		.global	uxTaskPriorityGet
 840              		.thumb
 841              		.thumb_func
 842              		.type	uxTaskPriorityGet, %function
 843              	uxTaskPriorityGet:
 844              	.LFB5:
 934:FreeRTOS/tasks.c **** 
 935:FreeRTOS/tasks.c **** #endif /* INCLUDE_vTaskDelay */
 936:FreeRTOS/tasks.c **** /*-----------------------------------------------------------*/
 937:FreeRTOS/tasks.c **** 
 938:FreeRTOS/tasks.c **** #if ( INCLUDE_eTaskGetState == 1 )
 939:FreeRTOS/tasks.c **** 
 940:FreeRTOS/tasks.c **** 	eTaskState eTaskGetState( TaskHandle_t xTask )
 941:FreeRTOS/tasks.c **** 	{
 942:FreeRTOS/tasks.c **** 	eTaskState eReturn;
 943:FreeRTOS/tasks.c **** 	List_t *pxStateList;
 944:FreeRTOS/tasks.c **** 	const TCB_t * const pxTCB = ( TCB_t * ) xTask;
 945:FreeRTOS/tasks.c **** 
 946:FreeRTOS/tasks.c **** 		configASSERT( pxTCB );
 947:FreeRTOS/tasks.c **** 
 948:FreeRTOS/tasks.c **** 		if( pxTCB == pxCurrentTCB )
 949:FreeRTOS/tasks.c **** 		{
 950:FreeRTOS/tasks.c **** 			/* The task calling this function is querying its own state. */
 951:FreeRTOS/tasks.c **** 			eReturn = eRunning;
 952:FreeRTOS/tasks.c **** 		}
 953:FreeRTOS/tasks.c **** 		else
ARM GAS  C:\Users\STUDENT\AppData\Local\Temp\ccRbxq9b.s 			page 33


 954:FreeRTOS/tasks.c **** 		{
 955:FreeRTOS/tasks.c **** 			taskENTER_CRITICAL();
 956:FreeRTOS/tasks.c **** 			{
 957:FreeRTOS/tasks.c **** 				pxStateList = ( List_t * ) listLIST_ITEM_CONTAINER( &( pxTCB->xGenericListItem ) );
 958:FreeRTOS/tasks.c **** 			}
 959:FreeRTOS/tasks.c **** 			taskEXIT_CRITICAL();
 960:FreeRTOS/tasks.c **** 
 961:FreeRTOS/tasks.c **** 			if( ( pxStateList == pxDelayedTaskList ) || ( pxStateList == pxOverflowDelayedTaskList ) )
 962:FreeRTOS/tasks.c **** 			{
 963:FreeRTOS/tasks.c **** 				/* The task being queried is referenced from one of the Blocked
 964:FreeRTOS/tasks.c **** 				lists. */
 965:FreeRTOS/tasks.c **** 				eReturn = eBlocked;
 966:FreeRTOS/tasks.c **** 			}
 967:FreeRTOS/tasks.c **** 
 968:FreeRTOS/tasks.c **** 			#if ( INCLUDE_vTaskSuspend == 1 )
 969:FreeRTOS/tasks.c **** 				else if( pxStateList == &xSuspendedTaskList )
 970:FreeRTOS/tasks.c **** 				{
 971:FreeRTOS/tasks.c **** 					/* The task being queried is referenced from the suspended
 972:FreeRTOS/tasks.c **** 					list.  Is it genuinely suspended or is it block
 973:FreeRTOS/tasks.c **** 					indefinitely? */
 974:FreeRTOS/tasks.c **** 					if( listLIST_ITEM_CONTAINER( &( pxTCB->xEventListItem ) ) == NULL )
 975:FreeRTOS/tasks.c **** 					{
 976:FreeRTOS/tasks.c **** 						eReturn = eSuspended;
 977:FreeRTOS/tasks.c **** 					}
 978:FreeRTOS/tasks.c **** 					else
 979:FreeRTOS/tasks.c **** 					{
 980:FreeRTOS/tasks.c **** 						eReturn = eBlocked;
 981:FreeRTOS/tasks.c **** 					}
 982:FreeRTOS/tasks.c **** 				}
 983:FreeRTOS/tasks.c **** 			#endif
 984:FreeRTOS/tasks.c **** 
 985:FreeRTOS/tasks.c **** 			#if ( INCLUDE_vTaskDelete == 1 )
 986:FreeRTOS/tasks.c **** 				else if( pxStateList == &xTasksWaitingTermination )
 987:FreeRTOS/tasks.c **** 				{
 988:FreeRTOS/tasks.c **** 					/* The task being queried is referenced from the deleted
 989:FreeRTOS/tasks.c **** 					tasks list. */
 990:FreeRTOS/tasks.c **** 					eReturn = eDeleted;
 991:FreeRTOS/tasks.c **** 				}
 992:FreeRTOS/tasks.c **** 			#endif
 993:FreeRTOS/tasks.c **** 
 994:FreeRTOS/tasks.c **** 			else
 995:FreeRTOS/tasks.c **** 			{
 996:FreeRTOS/tasks.c **** 				/* If the task is not in any other state, it must be in the
 997:FreeRTOS/tasks.c **** 				Ready (including pending ready) state. */
 998:FreeRTOS/tasks.c **** 				eReturn = eReady;
 999:FreeRTOS/tasks.c **** 			}
1000:FreeRTOS/tasks.c **** 		}
1001:FreeRTOS/tasks.c **** 
1002:FreeRTOS/tasks.c **** 		return eReturn;
1003:FreeRTOS/tasks.c **** 	} /*lint !e818 xTask cannot be a pointer to const because it is a typedef. */
1004:FreeRTOS/tasks.c **** 
1005:FreeRTOS/tasks.c **** #endif /* INCLUDE_eTaskGetState */
1006:FreeRTOS/tasks.c **** /*-----------------------------------------------------------*/
1007:FreeRTOS/tasks.c **** 
1008:FreeRTOS/tasks.c **** #if ( INCLUDE_uxTaskPriorityGet == 1 )
1009:FreeRTOS/tasks.c **** 
1010:FreeRTOS/tasks.c **** 	UBaseT_t uxTaskPriorityGet( TaskHandle_t xTask )
ARM GAS  C:\Users\STUDENT\AppData\Local\Temp\ccRbxq9b.s 			page 34


1011:FreeRTOS/tasks.c **** 	{
 845              		.loc 1 1011 0
 846              		.cfi_startproc
 847              		@ args = 0, pretend = 0, frame = 16
 848              		@ frame_needed = 1, uses_anonymous_args = 0
 849 0000 80B5     		push	{r7, lr}	@
 850              		.cfi_def_cfa_offset 8
 851              		.cfi_offset 7, -8
 852              		.cfi_offset 14, -4
 853 0002 84B0     		sub	sp, sp, #16	@,,
 854              		.cfi_def_cfa_offset 24
 855 0004 00AF     		add	r7, sp, #0	@,,
 856              		.cfi_def_cfa_register 7
 857 0006 7860     		str	r0, [r7, #4]	@ xTask, xTask
1012:FreeRTOS/tasks.c **** 	TCB_t *pxTCB;
1013:FreeRTOS/tasks.c **** 	UBaseT_t uxReturn;
1014:FreeRTOS/tasks.c **** 
1015:FreeRTOS/tasks.c **** 		taskENTER_CRITICAL();
 858              		.loc 1 1015 0
 859 0008 FFF7FEFF 		bl	vPortEnterCritical	@
1016:FreeRTOS/tasks.c **** 		{
1017:FreeRTOS/tasks.c **** 			/* If null is passed in here then we are changing the
1018:FreeRTOS/tasks.c **** 			priority of the calling function. */
1019:FreeRTOS/tasks.c **** 			pxTCB = prvGetTCBFromHandle( xTask );
 860              		.loc 1 1019 0
 861 000c 7B68     		ldr	r3, [r7, #4]	@ tmp113, xTask
 862 000e 002B     		cmp	r3, #0	@ tmp113,
 863 0010 02D1     		bne	.L56	@,
 864              		.loc 1 1019 0 is_stmt 0 discriminator 1
 865 0012 074B     		ldr	r3, .L59	@ tmp114,
 866 0014 1B68     		ldr	r3, [r3]	@ D.6577, pxCurrentTCB
 867 0016 00E0     		b	.L57	@
 868              	.L56:
 869              		.loc 1 1019 0 discriminator 2
 870 0018 7B68     		ldr	r3, [r7, #4]	@ D.6577, xTask
 871              	.L57:
 872              		.loc 1 1019 0 discriminator 4
 873 001a FB60     		str	r3, [r7, #12]	@ D.6577, pxTCB
1020:FreeRTOS/tasks.c **** 			uxReturn = pxTCB->uxPriority;
 874              		.loc 1 1020 0 is_stmt 1 discriminator 4
 875 001c FB68     		ldr	r3, [r7, #12]	@ tmp115, pxTCB
 876 001e DB6A     		ldr	r3, [r3, #44]	@ tmp116, pxTCB_7->uxPriority
 877 0020 BB60     		str	r3, [r7, #8]	@ tmp116, uxReturn
1021:FreeRTOS/tasks.c **** 		}
1022:FreeRTOS/tasks.c **** 		taskEXIT_CRITICAL();
 878              		.loc 1 1022 0 discriminator 4
 879 0022 FFF7FEFF 		bl	vPortExitCritical	@
1023:FreeRTOS/tasks.c **** 
1024:FreeRTOS/tasks.c **** 		return uxReturn;
 880              		.loc 1 1024 0 discriminator 4
 881 0026 BB68     		ldr	r3, [r7, #8]	@ D.6578, uxReturn
1025:FreeRTOS/tasks.c **** 	}
 882              		.loc 1 1025 0 discriminator 4
 883 0028 1846     		mov	r0, r3	@, <retval>
 884 002a 1037     		adds	r7, r7, #16	@,,
 885              		.cfi_def_cfa_offset 8
 886 002c BD46     		mov	sp, r7	@,
ARM GAS  C:\Users\STUDENT\AppData\Local\Temp\ccRbxq9b.s 			page 35


 887              		.cfi_def_cfa_register 13
 888              		@ sp needed	@
 889 002e 80BD     		pop	{r7, pc}	@
 890              	.L60:
 891              		.align	2
 892              	.L59:
 893 0030 00000000 		.word	pxCurrentTCB
 894              		.cfi_endproc
 895              	.LFE5:
 896              		.size	uxTaskPriorityGet, .-uxTaskPriorityGet
 897              		.section	.text.vTaskPrioritySet,"ax",%progbits
 898              		.align	2
 899              		.global	vTaskPrioritySet
 900              		.thumb
 901              		.thumb_func
 902              		.type	vTaskPrioritySet, %function
 903              	vTaskPrioritySet:
 904              	.LFB6:
1026:FreeRTOS/tasks.c **** 
1027:FreeRTOS/tasks.c **** #endif /* INCLUDE_uxTaskPriorityGet */
1028:FreeRTOS/tasks.c **** /*-----------------------------------------------------------*/
1029:FreeRTOS/tasks.c **** 
1030:FreeRTOS/tasks.c **** #if ( INCLUDE_vTaskPrioritySet == 1 )
1031:FreeRTOS/tasks.c **** 
1032:FreeRTOS/tasks.c **** 	void vTaskPrioritySet( TaskHandle_t xTask, UBaseT_t uxNewPriority )
1033:FreeRTOS/tasks.c **** 	{
 905              		.loc 1 1033 0
 906              		.cfi_startproc
 907              		@ args = 0, pretend = 0, frame = 24
 908              		@ frame_needed = 1, uses_anonymous_args = 0
 909 0000 80B5     		push	{r7, lr}	@
 910              		.cfi_def_cfa_offset 8
 911              		.cfi_offset 7, -8
 912              		.cfi_offset 14, -4
 913 0002 86B0     		sub	sp, sp, #24	@,,
 914              		.cfi_def_cfa_offset 32
 915 0004 00AF     		add	r7, sp, #0	@,,
 916              		.cfi_def_cfa_register 7
 917 0006 7860     		str	r0, [r7, #4]	@ xTask, xTask
 918 0008 3960     		str	r1, [r7]	@ uxNewPriority, uxNewPriority
1034:FreeRTOS/tasks.c **** 	TCB_t *pxTCB;
1035:FreeRTOS/tasks.c **** 	UBaseT_t uxCurrentBasePriority, uxPriorityUsedOnEntry;
1036:FreeRTOS/tasks.c **** 	BaseT_t xYieldRequired = pdFALSE;
 919              		.loc 1 1036 0
 920 000a 0023     		movs	r3, #0	@ tmp136,
 921 000c 7B61     		str	r3, [r7, #20]	@ tmp136, xYieldRequired
1037:FreeRTOS/tasks.c **** 
1038:FreeRTOS/tasks.c **** 		configASSERT( ( uxNewPriority < configMAX_PRIORITIES ) );
 922              		.loc 1 1038 0
 923 000e 3B68     		ldr	r3, [r7]	@ tmp137, uxNewPriority
 924 0010 072B     		cmp	r3, #7	@ tmp137,
 925 0012 02D9     		bls	.L62	@,
 926              		.loc 1 1038 0 is_stmt 0 discriminator 1
 927 0014 FFF7FEFF 		bl	ulPortSetInterruptMask	@
 928              	.L63:
 929 0018 FEE7     		b	.L63	@
 930              	.L62:
ARM GAS  C:\Users\STUDENT\AppData\Local\Temp\ccRbxq9b.s 			page 36


1039:FreeRTOS/tasks.c **** 
1040:FreeRTOS/tasks.c **** 		/* Ensure the new priority is valid. */
1041:FreeRTOS/tasks.c **** 		if( uxNewPriority >= ( UBaseT_t ) configMAX_PRIORITIES )
 931              		.loc 1 1041 0 is_stmt 1
 932 001a 3B68     		ldr	r3, [r7]	@ tmp138, uxNewPriority
 933 001c 072B     		cmp	r3, #7	@ tmp138,
 934 001e 01D9     		bls	.L64	@,
1042:FreeRTOS/tasks.c **** 		{
1043:FreeRTOS/tasks.c **** 			uxNewPriority = ( UBaseT_t ) configMAX_PRIORITIES - ( UBaseT_t ) 1U;
 935              		.loc 1 1043 0
 936 0020 0723     		movs	r3, #7	@ tmp139,
 937 0022 3B60     		str	r3, [r7]	@ tmp139, uxNewPriority
 938              	.L64:
1044:FreeRTOS/tasks.c **** 		}
1045:FreeRTOS/tasks.c **** 		else
1046:FreeRTOS/tasks.c **** 		{
1047:FreeRTOS/tasks.c **** 			mtCOVERAGE_TEST_MARKER();
1048:FreeRTOS/tasks.c **** 		}
1049:FreeRTOS/tasks.c **** 
1050:FreeRTOS/tasks.c **** 		taskENTER_CRITICAL();
 939              		.loc 1 1050 0
 940 0024 FFF7FEFF 		bl	vPortEnterCritical	@
1051:FreeRTOS/tasks.c **** 		{
1052:FreeRTOS/tasks.c **** 			/* If null is passed in here then it is the priority of the calling
1053:FreeRTOS/tasks.c **** 			task that is being changed. */
1054:FreeRTOS/tasks.c **** 			pxTCB = prvGetTCBFromHandle( xTask );
 941              		.loc 1 1054 0
 942 0028 7B68     		ldr	r3, [r7, #4]	@ tmp140, xTask
 943 002a 002B     		cmp	r3, #0	@ tmp140,
 944 002c 02D1     		bne	.L65	@,
 945              		.loc 1 1054 0 is_stmt 0 discriminator 1
 946 002e 404B     		ldr	r3, .L76	@ tmp141,
 947 0030 1B68     		ldr	r3, [r3]	@ D.6579, pxCurrentTCB
 948 0032 00E0     		b	.L66	@
 949              	.L65:
 950              		.loc 1 1054 0 discriminator 2
 951 0034 7B68     		ldr	r3, [r7, #4]	@ D.6579, xTask
 952              	.L66:
 953              		.loc 1 1054 0 discriminator 4
 954 0036 3B61     		str	r3, [r7, #16]	@ D.6579, pxTCB
1055:FreeRTOS/tasks.c **** 
1056:FreeRTOS/tasks.c **** 			traceTASK_PRIORITY_SET( pxTCB, uxNewPriority );
1057:FreeRTOS/tasks.c **** 
1058:FreeRTOS/tasks.c **** 			#if ( configUSE_MUTEXES == 1 )
1059:FreeRTOS/tasks.c **** 			{
1060:FreeRTOS/tasks.c **** 				uxCurrentBasePriority = pxTCB->uxBasePriority;
 955              		.loc 1 1060 0 is_stmt 1 discriminator 4
 956 0038 3B69     		ldr	r3, [r7, #16]	@ tmp142, pxTCB
 957 003a 9B6C     		ldr	r3, [r3, #72]	@ tmp143, pxTCB_18->uxBasePriority
 958 003c FB60     		str	r3, [r7, #12]	@ tmp143, uxCurrentBasePriority
1061:FreeRTOS/tasks.c **** 			}
1062:FreeRTOS/tasks.c **** 			#else
1063:FreeRTOS/tasks.c **** 			{
1064:FreeRTOS/tasks.c **** 				uxCurrentBasePriority = pxTCB->uxPriority;
1065:FreeRTOS/tasks.c **** 			}
1066:FreeRTOS/tasks.c **** 			#endif
1067:FreeRTOS/tasks.c **** 
ARM GAS  C:\Users\STUDENT\AppData\Local\Temp\ccRbxq9b.s 			page 37


1068:FreeRTOS/tasks.c **** 			if( uxCurrentBasePriority != uxNewPriority )
 959              		.loc 1 1068 0 discriminator 4
 960 003e FA68     		ldr	r2, [r7, #12]	@ tmp144, uxCurrentBasePriority
 961 0040 3B68     		ldr	r3, [r7]	@ tmp145, uxNewPriority
 962 0042 9A42     		cmp	r2, r3	@ tmp144, tmp145
 963 0044 6ED0     		beq	.L67	@,
1069:FreeRTOS/tasks.c **** 			{
1070:FreeRTOS/tasks.c **** 				/* The priority change may have readied a task of higher
1071:FreeRTOS/tasks.c **** 				priority than the calling task. */
1072:FreeRTOS/tasks.c **** 				if( uxNewPriority > uxCurrentBasePriority )
 964              		.loc 1 1072 0
 965 0046 3A68     		ldr	r2, [r7]	@ tmp146, uxNewPriority
 966 0048 FB68     		ldr	r3, [r7, #12]	@ tmp147, uxCurrentBasePriority
 967 004a 9A42     		cmp	r2, r3	@ tmp146, tmp147
 968 004c 0DD9     		bls	.L68	@,
1073:FreeRTOS/tasks.c **** 				{
1074:FreeRTOS/tasks.c **** 					if( pxTCB != pxCurrentTCB )
 969              		.loc 1 1074 0
 970 004e 384B     		ldr	r3, .L76	@ tmp148,
 971 0050 1B68     		ldr	r3, [r3]	@ D.6579, pxCurrentTCB
 972 0052 3A69     		ldr	r2, [r7, #16]	@ tmp149, pxTCB
 973 0054 9A42     		cmp	r2, r3	@ tmp149, D.6579
 974 0056 0FD0     		beq	.L69	@,
1075:FreeRTOS/tasks.c **** 					{
1076:FreeRTOS/tasks.c **** 						/* The priority of a task other than the currently
1077:FreeRTOS/tasks.c **** 						running task is being raised.  Is the priority being
1078:FreeRTOS/tasks.c **** 						raised above that of the running task? */
1079:FreeRTOS/tasks.c **** 						if( uxNewPriority >= pxCurrentTCB->uxPriority )
 975              		.loc 1 1079 0
 976 0058 354B     		ldr	r3, .L76	@ tmp150,
 977 005a 1B68     		ldr	r3, [r3]	@ D.6579, pxCurrentTCB
 978 005c DA6A     		ldr	r2, [r3, #44]	@ D.6581, _21->uxPriority
 979 005e 3B68     		ldr	r3, [r7]	@ tmp151, uxNewPriority
 980 0060 9A42     		cmp	r2, r3	@ D.6581, tmp151
 981 0062 09D8     		bhi	.L69	@,
1080:FreeRTOS/tasks.c **** 						{
1081:FreeRTOS/tasks.c **** 							xYieldRequired = pdTRUE;
 982              		.loc 1 1081 0
 983 0064 0123     		movs	r3, #1	@ tmp152,
 984 0066 7B61     		str	r3, [r7, #20]	@ tmp152, xYieldRequired
 985 0068 06E0     		b	.L69	@
 986              	.L68:
1082:FreeRTOS/tasks.c **** 						}
1083:FreeRTOS/tasks.c **** 						else
1084:FreeRTOS/tasks.c **** 						{
1085:FreeRTOS/tasks.c **** 							mtCOVERAGE_TEST_MARKER();
1086:FreeRTOS/tasks.c **** 						}
1087:FreeRTOS/tasks.c **** 					}
1088:FreeRTOS/tasks.c **** 					else
1089:FreeRTOS/tasks.c **** 					{
1090:FreeRTOS/tasks.c **** 						/* The priority of the running task is being raised,
1091:FreeRTOS/tasks.c **** 						but the running task must already be the highest
1092:FreeRTOS/tasks.c **** 						priority task able to run so no yield is required. */
1093:FreeRTOS/tasks.c **** 					}
1094:FreeRTOS/tasks.c **** 				}
1095:FreeRTOS/tasks.c **** 				else if( pxTCB == pxCurrentTCB )
 987              		.loc 1 1095 0
ARM GAS  C:\Users\STUDENT\AppData\Local\Temp\ccRbxq9b.s 			page 38


 988 006a 314B     		ldr	r3, .L76	@ tmp153,
 989 006c 1B68     		ldr	r3, [r3]	@ D.6579, pxCurrentTCB
 990 006e 3A69     		ldr	r2, [r7, #16]	@ tmp154, pxTCB
 991 0070 9A42     		cmp	r2, r3	@ tmp154, D.6579
 992 0072 01D1     		bne	.L69	@,
1096:FreeRTOS/tasks.c **** 				{
1097:FreeRTOS/tasks.c **** 					/* Setting the priority of the running task down means
1098:FreeRTOS/tasks.c **** 					there may now be another task of higher priority that
1099:FreeRTOS/tasks.c **** 					is ready to execute. */
1100:FreeRTOS/tasks.c **** 					xYieldRequired = pdTRUE;
 993              		.loc 1 1100 0
 994 0074 0123     		movs	r3, #1	@ tmp155,
 995 0076 7B61     		str	r3, [r7, #20]	@ tmp155, xYieldRequired
 996              	.L69:
1101:FreeRTOS/tasks.c **** 				}
1102:FreeRTOS/tasks.c **** 				else
1103:FreeRTOS/tasks.c **** 				{
1104:FreeRTOS/tasks.c **** 					/* Setting the priority of any other task down does not
1105:FreeRTOS/tasks.c **** 					require a yield as the running task must be above the
1106:FreeRTOS/tasks.c **** 					new priority of the task being modified. */
1107:FreeRTOS/tasks.c **** 				}
1108:FreeRTOS/tasks.c **** 
1109:FreeRTOS/tasks.c **** 				/* Remember the ready list the task might be referenced from
1110:FreeRTOS/tasks.c **** 				before its uxPriority member is changed so the
1111:FreeRTOS/tasks.c **** 				taskRESET_READY_PRIORITY() macro can function correctly. */
1112:FreeRTOS/tasks.c **** 				uxPriorityUsedOnEntry = pxTCB->uxPriority;
 997              		.loc 1 1112 0
 998 0078 3B69     		ldr	r3, [r7, #16]	@ tmp156, pxTCB
 999 007a DB6A     		ldr	r3, [r3, #44]	@ tmp157, pxTCB_18->uxPriority
 1000 007c BB60     		str	r3, [r7, #8]	@ tmp157, uxPriorityUsedOnEntry
1113:FreeRTOS/tasks.c **** 
1114:FreeRTOS/tasks.c **** 				#if ( configUSE_MUTEXES == 1 )
1115:FreeRTOS/tasks.c **** 				{
1116:FreeRTOS/tasks.c **** 					/* Only change the priority being used if the task is not
1117:FreeRTOS/tasks.c **** 					currently using an inherited priority. */
1118:FreeRTOS/tasks.c **** 					if( pxTCB->uxBasePriority == pxTCB->uxPriority )
 1001              		.loc 1 1118 0
 1002 007e 3B69     		ldr	r3, [r7, #16]	@ tmp158, pxTCB
 1003 0080 9A6C     		ldr	r2, [r3, #72]	@ D.6581, pxTCB_18->uxBasePriority
 1004 0082 3B69     		ldr	r3, [r7, #16]	@ tmp159, pxTCB
 1005 0084 DB6A     		ldr	r3, [r3, #44]	@ D.6581, pxTCB_18->uxPriority
 1006 0086 9A42     		cmp	r2, r3	@ D.6581, D.6581
 1007 0088 02D1     		bne	.L70	@,
1119:FreeRTOS/tasks.c **** 					{
1120:FreeRTOS/tasks.c **** 						pxTCB->uxPriority = uxNewPriority;
 1008              		.loc 1 1120 0
 1009 008a 3B69     		ldr	r3, [r7, #16]	@ tmp160, pxTCB
 1010 008c 3A68     		ldr	r2, [r7]	@ tmp161, uxNewPriority
 1011 008e DA62     		str	r2, [r3, #44]	@ tmp161, pxTCB_18->uxPriority
 1012              	.L70:
1121:FreeRTOS/tasks.c **** 					}
1122:FreeRTOS/tasks.c **** 					else
1123:FreeRTOS/tasks.c **** 					{
1124:FreeRTOS/tasks.c **** 						mtCOVERAGE_TEST_MARKER();
1125:FreeRTOS/tasks.c **** 					}
1126:FreeRTOS/tasks.c **** 
1127:FreeRTOS/tasks.c **** 					/* The base priority gets set whatever. */
ARM GAS  C:\Users\STUDENT\AppData\Local\Temp\ccRbxq9b.s 			page 39


1128:FreeRTOS/tasks.c **** 					pxTCB->uxBasePriority = uxNewPriority;
 1013              		.loc 1 1128 0
 1014 0090 3B69     		ldr	r3, [r7, #16]	@ tmp162, pxTCB
 1015 0092 3A68     		ldr	r2, [r7]	@ tmp163, uxNewPriority
 1016 0094 9A64     		str	r2, [r3, #72]	@ tmp163, pxTCB_18->uxBasePriority
1129:FreeRTOS/tasks.c **** 				}
1130:FreeRTOS/tasks.c **** 				#else
1131:FreeRTOS/tasks.c **** 				{
1132:FreeRTOS/tasks.c **** 					pxTCB->uxPriority = uxNewPriority;
1133:FreeRTOS/tasks.c **** 				}
1134:FreeRTOS/tasks.c **** 				#endif
1135:FreeRTOS/tasks.c **** 
1136:FreeRTOS/tasks.c **** 				/* Only reset the event list item value if the value is not
1137:FreeRTOS/tasks.c **** 				being used for anything else. */
1138:FreeRTOS/tasks.c **** 				if( ( listGET_LIST_ITEM_VALUE( &( pxTCB->xEventListItem ) ) & taskEVENT_LIST_ITEM_VALUE_IN_USE 
 1017              		.loc 1 1138 0
 1018 0096 3B69     		ldr	r3, [r7, #16]	@ tmp164, pxTCB
 1019 0098 9B69     		ldr	r3, [r3, #24]	@ D.6581, pxTCB_18->xEventListItem.xItemValue
 1020 009a 002B     		cmp	r3, #0	@ D.6582,
 1021 009c 04DB     		blt	.L71	@,
1139:FreeRTOS/tasks.c **** 				{
1140:FreeRTOS/tasks.c **** 					listSET_LIST_ITEM_VALUE( &( pxTCB->xEventListItem ), ( ( TickT_t ) configMAX_PRIORITIES - ( Ti
 1022              		.loc 1 1140 0
 1023 009e 3B68     		ldr	r3, [r7]	@ tmp165, uxNewPriority
 1024 00a0 C3F10802 		rsb	r2, r3, #8	@ D.6581, tmp165,
 1025 00a4 3B69     		ldr	r3, [r7, #16]	@ tmp166, pxTCB
 1026 00a6 9A61     		str	r2, [r3, #24]	@ D.6581, pxTCB_18->xEventListItem.xItemValue
 1027              	.L71:
1141:FreeRTOS/tasks.c **** 				}
1142:FreeRTOS/tasks.c **** 				else
1143:FreeRTOS/tasks.c **** 				{
1144:FreeRTOS/tasks.c **** 					mtCOVERAGE_TEST_MARKER();
1145:FreeRTOS/tasks.c **** 				}
1146:FreeRTOS/tasks.c **** 
1147:FreeRTOS/tasks.c **** 				/* If the task is in the blocked or suspended list we need do
1148:FreeRTOS/tasks.c **** 				nothing more than change it's priority variable. However, if
1149:FreeRTOS/tasks.c **** 				the task is in a ready list it needs to be removed and placed
1150:FreeRTOS/tasks.c **** 				in the list appropriate to its new priority. */
1151:FreeRTOS/tasks.c **** 				if( listIS_CONTAINED_WITHIN( &( pxReadyTasksLists[ uxPriorityUsedOnEntry ] ), &( pxTCB->xGeneri
 1028              		.loc 1 1151 0
 1029 00a8 3B69     		ldr	r3, [r7, #16]	@ tmp167, pxTCB
 1030 00aa 5969     		ldr	r1, [r3, #20]	@ D.6583, pxTCB_18->xGenericListItem.pvContainer
 1031 00ac BA68     		ldr	r2, [r7, #8]	@ tmp168, uxPriorityUsedOnEntry
 1032 00ae 1346     		mov	r3, r2	@ tmp169, tmp168
 1033 00b0 9B00     		lsls	r3, r3, #2	@ tmp169, tmp169,
 1034 00b2 1344     		add	r3, r3, r2	@ tmp169, tmp168
 1035 00b4 9B00     		lsls	r3, r3, #2	@ tmp170, tmp169,
 1036 00b6 1F4A     		ldr	r2, .L76+4	@ tmp171,
 1037 00b8 1344     		add	r3, r3, r2	@ D.6584, tmp171
 1038 00ba 9942     		cmp	r1, r3	@ D.6583, D.6584
 1039 00bc 01D1     		bne	.L72	@,
 1040              		.loc 1 1151 0 is_stmt 0 discriminator 1
 1041 00be 0123     		movs	r3, #1	@ D.6580,
 1042 00c0 00E0     		b	.L73	@
 1043              	.L72:
 1044              		.loc 1 1151 0 discriminator 2
 1045 00c2 0023     		movs	r3, #0	@ D.6580,
ARM GAS  C:\Users\STUDENT\AppData\Local\Temp\ccRbxq9b.s 			page 40


 1046              	.L73:
 1047              		.loc 1 1151 0 discriminator 4
 1048 00c4 002B     		cmp	r3, #0	@ D.6580,
 1049 00c6 28D0     		beq	.L74	@,
1152:FreeRTOS/tasks.c **** 				{
1153:FreeRTOS/tasks.c **** 					/* The task is currently in its ready list - remove before adding
1154:FreeRTOS/tasks.c **** 					it to it's new ready list.  As we are in a critical section we
1155:FreeRTOS/tasks.c **** 					can do this even if the scheduler is suspended. */
1156:FreeRTOS/tasks.c **** 					if( uxListRemove( &( pxTCB->xGenericListItem ) ) == ( UBaseT_t ) 0 )
 1050              		.loc 1 1156 0 is_stmt 1
 1051 00c8 3B69     		ldr	r3, [r7, #16]	@ tmp172, pxTCB
 1052 00ca 0433     		adds	r3, r3, #4	@ D.6585, tmp172,
 1053 00cc 1846     		mov	r0, r3	@, D.6585
 1054 00ce FFF7FEFF 		bl	uxListRemove	@
 1055 00d2 0346     		mov	r3, r0	@ D.6581,
 1056 00d4 002B     		cmp	r3, #0	@ D.6581,
 1057 00d6 09D1     		bne	.L75	@,
1157:FreeRTOS/tasks.c **** 					{
1158:FreeRTOS/tasks.c **** 						/* It is known that the task is in its ready list so
1159:FreeRTOS/tasks.c **** 						there is no need to check again and the port level
1160:FreeRTOS/tasks.c **** 						reset macro can be called directly. */
1161:FreeRTOS/tasks.c **** 						portRESET_READY_PRIORITY( uxPriorityUsedOnEntry, uxTopReadyPriority );
 1058              		.loc 1 1161 0
 1059 00d8 0122     		movs	r2, #1	@ tmp173,
 1060 00da BB68     		ldr	r3, [r7, #8]	@ tmp174, uxPriorityUsedOnEntry
 1061 00dc 02FA03F3 		lsl	r3, r2, r3	@ D.6581, tmp173, tmp174
 1062 00e0 DA43     		mvns	r2, r3	@ D.6581, D.6581
 1063 00e2 154B     		ldr	r3, .L76+8	@ tmp175,
 1064 00e4 1B68     		ldr	r3, [r3]	@ D.6581, uxTopReadyPriority
 1065 00e6 1340     		ands	r3, r3, r2	@, D.6581, D.6581, D.6581
 1066 00e8 134A     		ldr	r2, .L76+8	@ tmp176,
 1067 00ea 1360     		str	r3, [r2]	@ D.6581, uxTopReadyPriority
 1068              	.L75:
1162:FreeRTOS/tasks.c **** 					}
1163:FreeRTOS/tasks.c **** 					else
1164:FreeRTOS/tasks.c **** 					{
1165:FreeRTOS/tasks.c **** 						mtCOVERAGE_TEST_MARKER();
1166:FreeRTOS/tasks.c **** 					}
1167:FreeRTOS/tasks.c **** 					prvAddTaskToReadyList( pxTCB );
 1069              		.loc 1 1167 0
 1070 00ec 3B69     		ldr	r3, [r7, #16]	@ tmp177, pxTCB
 1071 00ee DB6A     		ldr	r3, [r3, #44]	@ D.6581, pxTCB_18->uxPriority
 1072 00f0 0122     		movs	r2, #1	@ tmp178,
 1073 00f2 9A40     		lsls	r2, r2, r3	@ D.6581, tmp178, D.6581
 1074 00f4 104B     		ldr	r3, .L76+8	@ tmp179,
 1075 00f6 1B68     		ldr	r3, [r3]	@ D.6581, uxTopReadyPriority
 1076 00f8 1343     		orrs	r3, r3, r2	@, D.6581, D.6581, D.6581
 1077 00fa 0F4A     		ldr	r2, .L76+8	@ tmp180,
 1078 00fc 1360     		str	r3, [r2]	@ D.6581, uxTopReadyPriority
 1079 00fe 3B69     		ldr	r3, [r7, #16]	@ tmp181, pxTCB
 1080 0100 DA6A     		ldr	r2, [r3, #44]	@ D.6581, pxTCB_18->uxPriority
 1081 0102 1346     		mov	r3, r2	@ tmp182, D.6581
 1082 0104 9B00     		lsls	r3, r3, #2	@ tmp182, tmp182,
 1083 0106 1344     		add	r3, r3, r2	@ tmp182, D.6581
 1084 0108 9B00     		lsls	r3, r3, #2	@ tmp183, tmp182,
 1085 010a 0A4A     		ldr	r2, .L76+4	@ tmp184,
 1086 010c 1A44     		add	r2, r2, r3	@ D.6584, tmp182
ARM GAS  C:\Users\STUDENT\AppData\Local\Temp\ccRbxq9b.s 			page 41


 1087 010e 3B69     		ldr	r3, [r7, #16]	@ tmp185, pxTCB
 1088 0110 0433     		adds	r3, r3, #4	@ D.6585, tmp185,
 1089 0112 1946     		mov	r1, r3	@, D.6585
 1090 0114 1046     		mov	r0, r2	@, D.6584
 1091 0116 FFF7FEFF 		bl	vListInsertEnd	@
 1092              	.L74:
1168:FreeRTOS/tasks.c **** 				}
1169:FreeRTOS/tasks.c **** 				else
1170:FreeRTOS/tasks.c **** 				{
1171:FreeRTOS/tasks.c **** 					mtCOVERAGE_TEST_MARKER();
1172:FreeRTOS/tasks.c **** 				}
1173:FreeRTOS/tasks.c **** 
1174:FreeRTOS/tasks.c **** 				if( xYieldRequired == pdTRUE )
 1093              		.loc 1 1174 0
 1094 011a 7B69     		ldr	r3, [r7, #20]	@ tmp186, xYieldRequired
 1095 011c 012B     		cmp	r3, #1	@ tmp186,
 1096 011e 01D1     		bne	.L67	@,
1175:FreeRTOS/tasks.c **** 				{
1176:FreeRTOS/tasks.c **** 					taskYIELD_IF_USING_PREEMPTION();
 1097              		.loc 1 1176 0
 1098 0120 FFF7FEFF 		bl	vPortYield	@
 1099              	.L67:
1177:FreeRTOS/tasks.c **** 				}
1178:FreeRTOS/tasks.c **** 				else
1179:FreeRTOS/tasks.c **** 				{
1180:FreeRTOS/tasks.c **** 					mtCOVERAGE_TEST_MARKER();
1181:FreeRTOS/tasks.c **** 				}
1182:FreeRTOS/tasks.c **** 
1183:FreeRTOS/tasks.c **** 				/* Remove compiler warning about unused variables when the port
1184:FreeRTOS/tasks.c **** 				optimised task selection is not being used. */
1185:FreeRTOS/tasks.c **** 				( void ) uxPriorityUsedOnEntry;
1186:FreeRTOS/tasks.c **** 			}
1187:FreeRTOS/tasks.c **** 		}
1188:FreeRTOS/tasks.c **** 		taskEXIT_CRITICAL();
 1100              		.loc 1 1188 0
 1101 0124 FFF7FEFF 		bl	vPortExitCritical	@
1189:FreeRTOS/tasks.c **** 	}
 1102              		.loc 1 1189 0
 1103 0128 00BF     		nop
 1104 012a 1837     		adds	r7, r7, #24	@,,
 1105              		.cfi_def_cfa_offset 8
 1106 012c BD46     		mov	sp, r7	@,
 1107              		.cfi_def_cfa_register 13
 1108              		@ sp needed	@
 1109 012e 80BD     		pop	{r7, pc}	@
 1110              	.L77:
 1111              		.align	2
 1112              	.L76:
 1113 0130 00000000 		.word	pxCurrentTCB
 1114 0134 00000000 		.word	pxReadyTasksLists
 1115 0138 00000000 		.word	uxTopReadyPriority
 1116              		.cfi_endproc
 1117              	.LFE6:
 1118              		.size	vTaskPrioritySet, .-vTaskPrioritySet
 1119              		.section	.text.vTaskSuspend,"ax",%progbits
 1120              		.align	2
 1121              		.global	vTaskSuspend
ARM GAS  C:\Users\STUDENT\AppData\Local\Temp\ccRbxq9b.s 			page 42


 1122              		.thumb
 1123              		.thumb_func
 1124              		.type	vTaskSuspend, %function
 1125              	vTaskSuspend:
 1126              	.LFB7:
1190:FreeRTOS/tasks.c **** 
1191:FreeRTOS/tasks.c **** #endif /* INCLUDE_vTaskPrioritySet */
1192:FreeRTOS/tasks.c **** /*-----------------------------------------------------------*/
1193:FreeRTOS/tasks.c **** 
1194:FreeRTOS/tasks.c **** #if ( INCLUDE_vTaskSuspend == 1 )
1195:FreeRTOS/tasks.c **** 
1196:FreeRTOS/tasks.c **** 	void vTaskSuspend( TaskHandle_t xTaskToSuspend )
1197:FreeRTOS/tasks.c **** 	{
 1127              		.loc 1 1197 0
 1128              		.cfi_startproc
 1129              		@ args = 0, pretend = 0, frame = 16
 1130              		@ frame_needed = 1, uses_anonymous_args = 0
 1131 0000 80B5     		push	{r7, lr}	@
 1132              		.cfi_def_cfa_offset 8
 1133              		.cfi_offset 7, -8
 1134              		.cfi_offset 14, -4
 1135 0002 84B0     		sub	sp, sp, #16	@,,
 1136              		.cfi_def_cfa_offset 24
 1137 0004 00AF     		add	r7, sp, #0	@,,
 1138              		.cfi_def_cfa_register 7
 1139 0006 7860     		str	r0, [r7, #4]	@ xTaskToSuspend, xTaskToSuspend
1198:FreeRTOS/tasks.c **** 	TCB_t *pxTCB;
1199:FreeRTOS/tasks.c **** 
1200:FreeRTOS/tasks.c **** 		taskENTER_CRITICAL();
 1140              		.loc 1 1200 0
 1141 0008 FFF7FEFF 		bl	vPortEnterCritical	@
1201:FreeRTOS/tasks.c **** 		{
1202:FreeRTOS/tasks.c **** 			/* If null is passed in here then it is the running task that is
1203:FreeRTOS/tasks.c **** 			being suspended. */
1204:FreeRTOS/tasks.c **** 			pxTCB = prvGetTCBFromHandle( xTaskToSuspend );
 1142              		.loc 1 1204 0
 1143 000c 7B68     		ldr	r3, [r7, #4]	@ tmp129, xTaskToSuspend
 1144 000e 002B     		cmp	r3, #0	@ tmp129,
 1145 0010 02D1     		bne	.L79	@,
 1146              		.loc 1 1204 0 is_stmt 0 discriminator 1
 1147 0012 314B     		ldr	r3, .L92	@ tmp130,
 1148 0014 1B68     		ldr	r3, [r3]	@ D.6586, pxCurrentTCB
 1149 0016 00E0     		b	.L80	@
 1150              	.L79:
 1151              		.loc 1 1204 0 discriminator 2
 1152 0018 7B68     		ldr	r3, [r7, #4]	@ D.6586, xTaskToSuspend
 1153              	.L80:
 1154              		.loc 1 1204 0 discriminator 4
 1155 001a FB60     		str	r3, [r7, #12]	@ D.6586, pxTCB
1205:FreeRTOS/tasks.c **** 
1206:FreeRTOS/tasks.c **** 			traceTASK_SUSPEND( pxTCB );
1207:FreeRTOS/tasks.c **** 
1208:FreeRTOS/tasks.c **** 			/* Remove task from the ready/delayed list and place in the
1209:FreeRTOS/tasks.c **** 			suspended list. */
1210:FreeRTOS/tasks.c **** 			if( uxListRemove( &( pxTCB->xGenericListItem ) ) == ( UBaseT_t ) 0 )
 1156              		.loc 1 1210 0 is_stmt 1 discriminator 4
 1157 001c FB68     		ldr	r3, [r7, #12]	@ tmp131, pxTCB
ARM GAS  C:\Users\STUDENT\AppData\Local\Temp\ccRbxq9b.s 			page 43


 1158 001e 0433     		adds	r3, r3, #4	@ D.6587, tmp131,
 1159 0020 1846     		mov	r0, r3	@, D.6587
 1160 0022 FFF7FEFF 		bl	uxListRemove	@
 1161 0026 0346     		mov	r3, r0	@ D.6588,
 1162 0028 002B     		cmp	r3, #0	@ D.6588,
 1163 002a 15D1     		bne	.L81	@,
1211:FreeRTOS/tasks.c **** 			{
1212:FreeRTOS/tasks.c **** 				taskRESET_READY_PRIORITY( pxTCB->uxPriority );
 1164              		.loc 1 1212 0
 1165 002c FB68     		ldr	r3, [r7, #12]	@ tmp132, pxTCB
 1166 002e DA6A     		ldr	r2, [r3, #44]	@ D.6588, pxTCB_12->uxPriority
 1167 0030 2A49     		ldr	r1, .L92+4	@ tmp133,
 1168 0032 1346     		mov	r3, r2	@ tmp134, D.6588
 1169 0034 9B00     		lsls	r3, r3, #2	@ tmp134, tmp134,
 1170 0036 1344     		add	r3, r3, r2	@ tmp134, D.6588
 1171 0038 9B00     		lsls	r3, r3, #2	@ tmp135, tmp134,
 1172 003a 0B44     		add	r3, r3, r1	@ tmp136, tmp133
 1173 003c 1B68     		ldr	r3, [r3]	@ D.6588, pxReadyTasksLists[_16].uxNumberOfItems
 1174 003e 002B     		cmp	r3, #0	@ D.6588,
 1175 0040 0AD1     		bne	.L81	@,
 1176              		.loc 1 1212 0 is_stmt 0 discriminator 1
 1177 0042 FB68     		ldr	r3, [r7, #12]	@ tmp137, pxTCB
 1178 0044 DB6A     		ldr	r3, [r3, #44]	@ D.6588, pxTCB_12->uxPriority
 1179 0046 0122     		movs	r2, #1	@ tmp138,
 1180 0048 02FA03F3 		lsl	r3, r2, r3	@ D.6588, tmp138, D.6588
 1181 004c DA43     		mvns	r2, r3	@ D.6588, D.6588
 1182 004e 244B     		ldr	r3, .L92+8	@ tmp139,
 1183 0050 1B68     		ldr	r3, [r3]	@ D.6588, uxTopReadyPriority
 1184 0052 1340     		ands	r3, r3, r2	@, D.6588, D.6588, D.6588
 1185 0054 224A     		ldr	r2, .L92+8	@ tmp140,
 1186 0056 1360     		str	r3, [r2]	@ D.6588, uxTopReadyPriority
 1187              	.L81:
1213:FreeRTOS/tasks.c **** 			}
1214:FreeRTOS/tasks.c **** 			else
1215:FreeRTOS/tasks.c **** 			{
1216:FreeRTOS/tasks.c **** 				mtCOVERAGE_TEST_MARKER();
1217:FreeRTOS/tasks.c **** 			}
1218:FreeRTOS/tasks.c **** 
1219:FreeRTOS/tasks.c **** 			/* Is the task waiting on an event also? */
1220:FreeRTOS/tasks.c **** 			if( listLIST_ITEM_CONTAINER( &( pxTCB->xEventListItem ) ) != NULL )
 1188              		.loc 1 1220 0 is_stmt 1
 1189 0058 FB68     		ldr	r3, [r7, #12]	@ tmp141, pxTCB
 1190 005a 9B6A     		ldr	r3, [r3, #40]	@ D.6589, pxTCB_12->xEventListItem.pvContainer
 1191 005c 002B     		cmp	r3, #0	@ D.6589,
 1192 005e 04D0     		beq	.L83	@,
1221:FreeRTOS/tasks.c **** 			{
1222:FreeRTOS/tasks.c **** 				( void ) uxListRemove( &( pxTCB->xEventListItem ) );
 1193              		.loc 1 1222 0
 1194 0060 FB68     		ldr	r3, [r7, #12]	@ tmp142, pxTCB
 1195 0062 1833     		adds	r3, r3, #24	@ D.6587, tmp142,
 1196 0064 1846     		mov	r0, r3	@, D.6587
 1197 0066 FFF7FEFF 		bl	uxListRemove	@
 1198              	.L83:
1223:FreeRTOS/tasks.c **** 			}
1224:FreeRTOS/tasks.c **** 			else
1225:FreeRTOS/tasks.c **** 			{
1226:FreeRTOS/tasks.c **** 				mtCOVERAGE_TEST_MARKER();
ARM GAS  C:\Users\STUDENT\AppData\Local\Temp\ccRbxq9b.s 			page 44


1227:FreeRTOS/tasks.c **** 			}
1228:FreeRTOS/tasks.c **** 
1229:FreeRTOS/tasks.c **** 			vListInsertEnd( &xSuspendedTaskList, &( pxTCB->xGenericListItem ) );
 1199              		.loc 1 1229 0
 1200 006a FB68     		ldr	r3, [r7, #12]	@ tmp143, pxTCB
 1201 006c 0433     		adds	r3, r3, #4	@ D.6587, tmp143,
 1202 006e 1946     		mov	r1, r3	@, D.6587
 1203 0070 1C48     		ldr	r0, .L92+12	@,
 1204 0072 FFF7FEFF 		bl	vListInsertEnd	@
1230:FreeRTOS/tasks.c **** 		}
1231:FreeRTOS/tasks.c **** 		taskEXIT_CRITICAL();
 1205              		.loc 1 1231 0
 1206 0076 FFF7FEFF 		bl	vPortExitCritical	@
1232:FreeRTOS/tasks.c **** 
1233:FreeRTOS/tasks.c **** 		if( pxTCB == pxCurrentTCB )
 1207              		.loc 1 1233 0
 1208 007a 174B     		ldr	r3, .L92	@ tmp144,
 1209 007c 1B68     		ldr	r3, [r3]	@ D.6586, pxCurrentTCB
 1210 007e FA68     		ldr	r2, [r7, #12]	@ tmp145, pxTCB
 1211 0080 9A42     		cmp	r2, r3	@ tmp145, D.6586
 1212 0082 1AD1     		bne	.L84	@,
1234:FreeRTOS/tasks.c **** 		{
1235:FreeRTOS/tasks.c **** 			if( xSchedulerRunning != pdFALSE )
 1213              		.loc 1 1235 0
 1214 0084 184B     		ldr	r3, .L92+16	@ tmp146,
 1215 0086 1B68     		ldr	r3, [r3]	@ D.6590, xSchedulerRunning
 1216 0088 002B     		cmp	r3, #0	@ D.6590,
 1217 008a 09D0     		beq	.L85	@,
1236:FreeRTOS/tasks.c **** 			{
1237:FreeRTOS/tasks.c **** 				/* The current task has just been suspended. */
1238:FreeRTOS/tasks.c **** 				configASSERT( uxSchedulerSuspended == 0 );
 1218              		.loc 1 1238 0
 1219 008c 174B     		ldr	r3, .L92+20	@ tmp147,
 1220 008e 1B68     		ldr	r3, [r3]	@ D.6588, uxSchedulerSuspended
 1221 0090 002B     		cmp	r3, #0	@ D.6588,
 1222 0092 02D0     		beq	.L86	@,
 1223              		.loc 1 1238 0 is_stmt 0 discriminator 1
 1224 0094 FFF7FEFF 		bl	ulPortSetInterruptMask	@
 1225              	.L87:
 1226 0098 FEE7     		b	.L87	@
 1227              	.L86:
1239:FreeRTOS/tasks.c **** 				portYIELD_WITHIN_API();
 1228              		.loc 1 1239 0 is_stmt 1
 1229 009a FFF7FEFF 		bl	vPortYield	@
1240:FreeRTOS/tasks.c **** 			}
1241:FreeRTOS/tasks.c **** 			else
1242:FreeRTOS/tasks.c **** 			{
1243:FreeRTOS/tasks.c **** 				/* The scheduler is not running, but the task that was pointed
1244:FreeRTOS/tasks.c **** 				to by pxCurrentTCB has just been suspended and pxCurrentTCB
1245:FreeRTOS/tasks.c **** 				must be adjusted to point to a different task. */
1246:FreeRTOS/tasks.c **** 				if( listCURRENT_LIST_LENGTH( &xSuspendedTaskList ) == uxCurrentNumberOfTasks )
1247:FreeRTOS/tasks.c **** 				{
1248:FreeRTOS/tasks.c **** 					/* No other tasks are ready, so set pxCurrentTCB back to
1249:FreeRTOS/tasks.c **** 					NULL so when the next task is created pxCurrentTCB will
1250:FreeRTOS/tasks.c **** 					be set to point to it no matter what its relative priority
1251:FreeRTOS/tasks.c **** 					is. */
1252:FreeRTOS/tasks.c **** 					pxCurrentTCB = NULL;
ARM GAS  C:\Users\STUDENT\AppData\Local\Temp\ccRbxq9b.s 			page 45


1253:FreeRTOS/tasks.c **** 				}
1254:FreeRTOS/tasks.c **** 				else
1255:FreeRTOS/tasks.c **** 				{
1256:FreeRTOS/tasks.c **** 					vTaskSwitchContext();
1257:FreeRTOS/tasks.c **** 				}
1258:FreeRTOS/tasks.c **** 			}
1259:FreeRTOS/tasks.c **** 		}
1260:FreeRTOS/tasks.c **** 		else
1261:FreeRTOS/tasks.c **** 		{
1262:FreeRTOS/tasks.c **** 			if( xSchedulerRunning != pdFALSE )
1263:FreeRTOS/tasks.c **** 			{
1264:FreeRTOS/tasks.c **** 				/* A task other than the currently running task was suspended,
1265:FreeRTOS/tasks.c **** 				reset the next expected unblock time in case it referred to the
1266:FreeRTOS/tasks.c **** 				task that is now in the Suspended state. */
1267:FreeRTOS/tasks.c **** 				taskENTER_CRITICAL();
1268:FreeRTOS/tasks.c **** 				{
1269:FreeRTOS/tasks.c **** 					prvResetNextTaskUnblockTime();
1270:FreeRTOS/tasks.c **** 				}
1271:FreeRTOS/tasks.c **** 				taskEXIT_CRITICAL();
1272:FreeRTOS/tasks.c **** 			}
1273:FreeRTOS/tasks.c **** 			else
1274:FreeRTOS/tasks.c **** 			{
1275:FreeRTOS/tasks.c **** 				mtCOVERAGE_TEST_MARKER();
1276:FreeRTOS/tasks.c **** 			}
1277:FreeRTOS/tasks.c **** 		}
1278:FreeRTOS/tasks.c **** 	}
 1230              		.loc 1 1278 0
 1231 009e 16E0     		b	.L91	@
 1232              	.L85:
1246:FreeRTOS/tasks.c **** 				{
 1233              		.loc 1 1246 0
 1234 00a0 104B     		ldr	r3, .L92+12	@ tmp148,
 1235 00a2 1A68     		ldr	r2, [r3]	@ D.6588, xSuspendedTaskList.uxNumberOfItems
 1236 00a4 124B     		ldr	r3, .L92+24	@ tmp149,
 1237 00a6 1B68     		ldr	r3, [r3]	@ D.6588, uxCurrentNumberOfTasks
 1238 00a8 9A42     		cmp	r2, r3	@ D.6588, D.6588
 1239 00aa 03D1     		bne	.L89	@,
1252:FreeRTOS/tasks.c **** 				}
 1240              		.loc 1 1252 0
 1241 00ac 0A4B     		ldr	r3, .L92	@ tmp150,
 1242 00ae 0022     		movs	r2, #0	@ tmp151,
 1243 00b0 1A60     		str	r2, [r3]	@ tmp151, pxCurrentTCB
 1244              		.loc 1 1278 0
 1245 00b2 0CE0     		b	.L91	@
 1246              	.L89:
1256:FreeRTOS/tasks.c **** 				}
 1247              		.loc 1 1256 0
 1248 00b4 FFF7FEFF 		bl	vTaskSwitchContext	@
 1249              		.loc 1 1278 0
 1250 00b8 09E0     		b	.L91	@
 1251              	.L84:
1262:FreeRTOS/tasks.c **** 			{
 1252              		.loc 1 1262 0
 1253 00ba 0B4B     		ldr	r3, .L92+16	@ tmp152,
 1254 00bc 1B68     		ldr	r3, [r3]	@ D.6590, xSchedulerRunning
 1255 00be 002B     		cmp	r3, #0	@ D.6590,
 1256 00c0 05D0     		beq	.L91	@,
ARM GAS  C:\Users\STUDENT\AppData\Local\Temp\ccRbxq9b.s 			page 46


1267:FreeRTOS/tasks.c **** 				{
 1257              		.loc 1 1267 0
 1258 00c2 FFF7FEFF 		bl	vPortEnterCritical	@
1269:FreeRTOS/tasks.c **** 				}
 1259              		.loc 1 1269 0
 1260 00c6 FFF7FEFF 		bl	prvResetNextTaskUnblockTime	@
1271:FreeRTOS/tasks.c **** 			}
 1261              		.loc 1 1271 0
 1262 00ca FFF7FEFF 		bl	vPortExitCritical	@
 1263              	.L91:
 1264              		.loc 1 1278 0
 1265 00ce 00BF     		nop
 1266 00d0 1037     		adds	r7, r7, #16	@,,
 1267              		.cfi_def_cfa_offset 8
 1268 00d2 BD46     		mov	sp, r7	@,
 1269              		.cfi_def_cfa_register 13
 1270              		@ sp needed	@
 1271 00d4 80BD     		pop	{r7, pc}	@
 1272              	.L93:
 1273 00d6 00BF     		.align	2
 1274              	.L92:
 1275 00d8 00000000 		.word	pxCurrentTCB
 1276 00dc 00000000 		.word	pxReadyTasksLists
 1277 00e0 00000000 		.word	uxTopReadyPriority
 1278 00e4 00000000 		.word	xSuspendedTaskList
 1279 00e8 00000000 		.word	xSchedulerRunning
 1280 00ec 00000000 		.word	uxSchedulerSuspended
 1281 00f0 00000000 		.word	uxCurrentNumberOfTasks
 1282              		.cfi_endproc
 1283              	.LFE7:
 1284              		.size	vTaskSuspend, .-vTaskSuspend
 1285              		.section	.text.prvTaskIsTaskSuspended,"ax",%progbits
 1286              		.align	2
 1287              		.thumb
 1288              		.thumb_func
 1289              		.type	prvTaskIsTaskSuspended, %function
 1290              	prvTaskIsTaskSuspended:
 1291              	.LFB8:
1279:FreeRTOS/tasks.c **** 
1280:FreeRTOS/tasks.c **** #endif /* INCLUDE_vTaskSuspend */
1281:FreeRTOS/tasks.c **** /*-----------------------------------------------------------*/
1282:FreeRTOS/tasks.c **** 
1283:FreeRTOS/tasks.c **** #if ( INCLUDE_vTaskSuspend == 1 )
1284:FreeRTOS/tasks.c **** 
1285:FreeRTOS/tasks.c **** 	static BaseT_t prvTaskIsTaskSuspended( const TaskHandle_t xTask )
1286:FreeRTOS/tasks.c **** 	{
 1292              		.loc 1 1286 0
 1293              		.cfi_startproc
 1294              		@ args = 0, pretend = 0, frame = 16
 1295              		@ frame_needed = 1, uses_anonymous_args = 0
 1296 0000 80B5     		push	{r7, lr}	@
 1297              		.cfi_def_cfa_offset 8
 1298              		.cfi_offset 7, -8
 1299              		.cfi_offset 14, -4
 1300 0002 84B0     		sub	sp, sp, #16	@,,
 1301              		.cfi_def_cfa_offset 24
 1302 0004 00AF     		add	r7, sp, #0	@,,
ARM GAS  C:\Users\STUDENT\AppData\Local\Temp\ccRbxq9b.s 			page 47


 1303              		.cfi_def_cfa_register 7
 1304 0006 7860     		str	r0, [r7, #4]	@ xTask, xTask
1287:FreeRTOS/tasks.c **** 	BaseT_t xReturn = pdFALSE;
 1305              		.loc 1 1287 0
 1306 0008 0023     		movs	r3, #0	@ tmp117,
 1307 000a FB60     		str	r3, [r7, #12]	@ tmp117, xReturn
1288:FreeRTOS/tasks.c **** 	const TCB_t * const pxTCB = ( TCB_t * ) xTask;
 1308              		.loc 1 1288 0
 1309 000c 7B68     		ldr	r3, [r7, #4]	@ tmp118, xTask
 1310 000e BB60     		str	r3, [r7, #8]	@ tmp118, pxTCB
1289:FreeRTOS/tasks.c **** 
1290:FreeRTOS/tasks.c **** 		/* Accesses xPendingReadyList so must be called from a critical
1291:FreeRTOS/tasks.c **** 		section. */
1292:FreeRTOS/tasks.c **** 
1293:FreeRTOS/tasks.c **** 		/* It does not make sense to check if the calling task is suspended. */
1294:FreeRTOS/tasks.c **** 		configASSERT( xTask );
 1311              		.loc 1 1294 0
 1312 0010 7B68     		ldr	r3, [r7, #4]	@ tmp119, xTask
 1313 0012 002B     		cmp	r3, #0	@ tmp119,
 1314 0014 02D1     		bne	.L95	@,
 1315              		.loc 1 1294 0 is_stmt 0 discriminator 1
 1316 0016 FFF7FEFF 		bl	ulPortSetInterruptMask	@
 1317              	.L96:
 1318 001a FEE7     		b	.L96	@
 1319              	.L95:
1295:FreeRTOS/tasks.c **** 
1296:FreeRTOS/tasks.c **** 		/* Is the task being resumed actually in the suspended list? */
1297:FreeRTOS/tasks.c **** 		if( listIS_CONTAINED_WITHIN( &xSuspendedTaskList, &( pxTCB->xGenericListItem ) ) != pdFALSE )
 1320              		.loc 1 1297 0 is_stmt 1
 1321 001c BB68     		ldr	r3, [r7, #8]	@ tmp120, pxTCB
 1322 001e 5B69     		ldr	r3, [r3, #20]	@ D.6592, pxTCB_6->xGenericListItem.pvContainer
 1323 0020 0E4A     		ldr	r2, .L103	@ tmp121,
 1324 0022 9342     		cmp	r3, r2	@ D.6592, tmp121
 1325 0024 01D1     		bne	.L97	@,
 1326              		.loc 1 1297 0 is_stmt 0 discriminator 1
 1327 0026 0123     		movs	r3, #1	@ D.6591,
 1328 0028 00E0     		b	.L98	@
 1329              	.L97:
 1330              		.loc 1 1297 0 discriminator 2
 1331 002a 0023     		movs	r3, #0	@ D.6591,
 1332              	.L98:
 1333              		.loc 1 1297 0 discriminator 4
 1334 002c 002B     		cmp	r3, #0	@ D.6591,
 1335 002e 0FD0     		beq	.L99	@,
1298:FreeRTOS/tasks.c **** 		{
1299:FreeRTOS/tasks.c **** 			/* Has the task already been resumed from within an ISR? */
1300:FreeRTOS/tasks.c **** 			if( listIS_CONTAINED_WITHIN( &xPendingReadyList, &( pxTCB->xEventListItem ) ) == pdFALSE )
 1336              		.loc 1 1300 0 is_stmt 1
 1337 0030 BB68     		ldr	r3, [r7, #8]	@ tmp122, pxTCB
 1338 0032 9B6A     		ldr	r3, [r3, #40]	@ D.6592, pxTCB_6->xEventListItem.pvContainer
 1339 0034 0A4A     		ldr	r2, .L103+4	@ tmp123,
 1340 0036 9342     		cmp	r3, r2	@ D.6592, tmp123
 1341 0038 0AD0     		beq	.L99	@,
1301:FreeRTOS/tasks.c **** 			{
1302:FreeRTOS/tasks.c **** 				/* Is it in the suspended list because it is in the	Suspended
1303:FreeRTOS/tasks.c **** 				state, or because is is blocked with no timeout? */
1304:FreeRTOS/tasks.c **** 				if( listIS_CONTAINED_WITHIN( NULL, &( pxTCB->xEventListItem ) ) != pdFALSE )
ARM GAS  C:\Users\STUDENT\AppData\Local\Temp\ccRbxq9b.s 			page 48


 1342              		.loc 1 1304 0
 1343 003a BB68     		ldr	r3, [r7, #8]	@ tmp124, pxTCB
 1344 003c 9B6A     		ldr	r3, [r3, #40]	@ D.6592, pxTCB_6->xEventListItem.pvContainer
 1345 003e 002B     		cmp	r3, #0	@ D.6592,
 1346 0040 01D1     		bne	.L100	@,
 1347              		.loc 1 1304 0 is_stmt 0 discriminator 1
 1348 0042 0123     		movs	r3, #1	@ D.6591,
 1349 0044 00E0     		b	.L101	@
 1350              	.L100:
 1351              		.loc 1 1304 0 discriminator 2
 1352 0046 0023     		movs	r3, #0	@ D.6591,
 1353              	.L101:
 1354              		.loc 1 1304 0 discriminator 4
 1355 0048 002B     		cmp	r3, #0	@ D.6591,
 1356 004a 01D0     		beq	.L99	@,
1305:FreeRTOS/tasks.c **** 				{
1306:FreeRTOS/tasks.c **** 					xReturn = pdTRUE;
 1357              		.loc 1 1306 0 is_stmt 1
 1358 004c 0123     		movs	r3, #1	@ tmp125,
 1359 004e FB60     		str	r3, [r7, #12]	@ tmp125, xReturn
 1360              	.L99:
1307:FreeRTOS/tasks.c **** 				}
1308:FreeRTOS/tasks.c **** 				else
1309:FreeRTOS/tasks.c **** 				{
1310:FreeRTOS/tasks.c **** 					mtCOVERAGE_TEST_MARKER();
1311:FreeRTOS/tasks.c **** 				}
1312:FreeRTOS/tasks.c **** 			}
1313:FreeRTOS/tasks.c **** 			else
1314:FreeRTOS/tasks.c **** 			{
1315:FreeRTOS/tasks.c **** 				mtCOVERAGE_TEST_MARKER();
1316:FreeRTOS/tasks.c **** 			}
1317:FreeRTOS/tasks.c **** 		}
1318:FreeRTOS/tasks.c **** 		else
1319:FreeRTOS/tasks.c **** 		{
1320:FreeRTOS/tasks.c **** 			mtCOVERAGE_TEST_MARKER();
1321:FreeRTOS/tasks.c **** 		}
1322:FreeRTOS/tasks.c **** 
1323:FreeRTOS/tasks.c **** 		return xReturn;
 1361              		.loc 1 1323 0
 1362 0050 FB68     		ldr	r3, [r7, #12]	@ D.6593, xReturn
1324:FreeRTOS/tasks.c **** 	} /*lint !e818 xTask cannot be a pointer to const because it is a typedef. */
 1363              		.loc 1 1324 0
 1364 0052 1846     		mov	r0, r3	@, <retval>
 1365 0054 1037     		adds	r7, r7, #16	@,,
 1366              		.cfi_def_cfa_offset 8
 1367 0056 BD46     		mov	sp, r7	@,
 1368              		.cfi_def_cfa_register 13
 1369              		@ sp needed	@
 1370 0058 80BD     		pop	{r7, pc}	@
 1371              	.L104:
 1372 005a 00BF     		.align	2
 1373              	.L103:
 1374 005c 00000000 		.word	xSuspendedTaskList
 1375 0060 00000000 		.word	xPendingReadyList
 1376              		.cfi_endproc
 1377              	.LFE8:
 1378              		.size	prvTaskIsTaskSuspended, .-prvTaskIsTaskSuspended
ARM GAS  C:\Users\STUDENT\AppData\Local\Temp\ccRbxq9b.s 			page 49


 1379              		.section	.text.vTaskResume,"ax",%progbits
 1380              		.align	2
 1381              		.global	vTaskResume
 1382              		.thumb
 1383              		.thumb_func
 1384              		.type	vTaskResume, %function
 1385              	vTaskResume:
 1386              	.LFB9:
1325:FreeRTOS/tasks.c **** 
1326:FreeRTOS/tasks.c **** #endif /* INCLUDE_vTaskSuspend */
1327:FreeRTOS/tasks.c **** /*-----------------------------------------------------------*/
1328:FreeRTOS/tasks.c **** 
1329:FreeRTOS/tasks.c **** #if ( INCLUDE_vTaskSuspend == 1 )
1330:FreeRTOS/tasks.c **** 
1331:FreeRTOS/tasks.c **** 	void vTaskResume( TaskHandle_t xTaskToResume )
1332:FreeRTOS/tasks.c **** 	{
 1387              		.loc 1 1332 0
 1388              		.cfi_startproc
 1389              		@ args = 0, pretend = 0, frame = 16
 1390              		@ frame_needed = 1, uses_anonymous_args = 0
 1391 0000 80B5     		push	{r7, lr}	@
 1392              		.cfi_def_cfa_offset 8
 1393              		.cfi_offset 7, -8
 1394              		.cfi_offset 14, -4
 1395 0002 84B0     		sub	sp, sp, #16	@,,
 1396              		.cfi_def_cfa_offset 24
 1397 0004 00AF     		add	r7, sp, #0	@,,
 1398              		.cfi_def_cfa_register 7
 1399 0006 7860     		str	r0, [r7, #4]	@ xTaskToResume, xTaskToResume
1333:FreeRTOS/tasks.c **** 	TCB_t * const pxTCB = ( TCB_t * ) xTaskToResume;
 1400              		.loc 1 1333 0
 1401 0008 7B68     		ldr	r3, [r7, #4]	@ tmp123, xTaskToResume
 1402 000a FB60     		str	r3, [r7, #12]	@ tmp123, pxTCB
1334:FreeRTOS/tasks.c **** 
1335:FreeRTOS/tasks.c **** 		/* It does not make sense to resume the calling task. */
1336:FreeRTOS/tasks.c **** 		configASSERT( xTaskToResume );
 1403              		.loc 1 1336 0
 1404 000c 7B68     		ldr	r3, [r7, #4]	@ tmp124, xTaskToResume
 1405 000e 002B     		cmp	r3, #0	@ tmp124,
 1406 0010 02D1     		bne	.L106	@,
 1407              		.loc 1 1336 0 is_stmt 0 discriminator 1
 1408 0012 FFF7FEFF 		bl	ulPortSetInterruptMask	@
 1409              	.L107:
 1410 0016 FEE7     		b	.L107	@
 1411              	.L106:
1337:FreeRTOS/tasks.c **** 
1338:FreeRTOS/tasks.c **** 		/* The parameter cannot be NULL as it is impossible to resume the
1339:FreeRTOS/tasks.c **** 		currently executing task. */
1340:FreeRTOS/tasks.c **** 		if( ( pxTCB != NULL ) && ( pxTCB != pxCurrentTCB ) )
 1412              		.loc 1 1340 0 is_stmt 1
 1413 0018 FB68     		ldr	r3, [r7, #12]	@ tmp125, pxTCB
 1414 001a 002B     		cmp	r3, #0	@ tmp125,
 1415 001c 33D0     		beq	.L110	@,
 1416              		.loc 1 1340 0 is_stmt 0 discriminator 1
 1417 001e 1C4B     		ldr	r3, .L111	@ tmp126,
 1418 0020 1B68     		ldr	r3, [r3]	@ D.6594, pxCurrentTCB
 1419 0022 FA68     		ldr	r2, [r7, #12]	@ tmp127, pxTCB
ARM GAS  C:\Users\STUDENT\AppData\Local\Temp\ccRbxq9b.s 			page 50


 1420 0024 9A42     		cmp	r2, r3	@ tmp127, D.6594
 1421 0026 2ED0     		beq	.L110	@,
1341:FreeRTOS/tasks.c **** 		{
1342:FreeRTOS/tasks.c **** 			taskENTER_CRITICAL();
 1422              		.loc 1 1342 0 is_stmt 1
 1423 0028 FFF7FEFF 		bl	vPortEnterCritical	@
1343:FreeRTOS/tasks.c **** 			{
1344:FreeRTOS/tasks.c **** 				if( prvTaskIsTaskSuspended( pxTCB ) == pdTRUE )
 1424              		.loc 1 1344 0
 1425 002c F868     		ldr	r0, [r7, #12]	@, pxTCB
 1426 002e FFF7FEFF 		bl	prvTaskIsTaskSuspended	@
 1427 0032 0346     		mov	r3, r0	@ D.6595,
 1428 0034 012B     		cmp	r3, #1	@ D.6595,
 1429 0036 24D1     		bne	.L109	@,
1345:FreeRTOS/tasks.c **** 				{
1346:FreeRTOS/tasks.c **** 					traceTASK_RESUME( pxTCB );
1347:FreeRTOS/tasks.c **** 
1348:FreeRTOS/tasks.c **** 					/* As we are in a critical section we can access the ready
1349:FreeRTOS/tasks.c **** 					lists even if the scheduler is suspended. */
1350:FreeRTOS/tasks.c **** 					( void ) uxListRemove(  &( pxTCB->xGenericListItem ) );
 1430              		.loc 1 1350 0
 1431 0038 FB68     		ldr	r3, [r7, #12]	@ tmp128, pxTCB
 1432 003a 0433     		adds	r3, r3, #4	@ D.6596, tmp128,
 1433 003c 1846     		mov	r0, r3	@, D.6596
 1434 003e FFF7FEFF 		bl	uxListRemove	@
1351:FreeRTOS/tasks.c **** 					prvAddTaskToReadyList( pxTCB );
 1435              		.loc 1 1351 0
 1436 0042 FB68     		ldr	r3, [r7, #12]	@ tmp129, pxTCB
 1437 0044 DB6A     		ldr	r3, [r3, #44]	@ D.6597, pxTCB_4->uxPriority
 1438 0046 0122     		movs	r2, #1	@ tmp130,
 1439 0048 9A40     		lsls	r2, r2, r3	@ D.6597, tmp130, D.6597
 1440 004a 124B     		ldr	r3, .L111+4	@ tmp131,
 1441 004c 1B68     		ldr	r3, [r3]	@ D.6597, uxTopReadyPriority
 1442 004e 1343     		orrs	r3, r3, r2	@, D.6597, D.6597, D.6597
 1443 0050 104A     		ldr	r2, .L111+4	@ tmp132,
 1444 0052 1360     		str	r3, [r2]	@ D.6597, uxTopReadyPriority
 1445 0054 FB68     		ldr	r3, [r7, #12]	@ tmp133, pxTCB
 1446 0056 DA6A     		ldr	r2, [r3, #44]	@ D.6597, pxTCB_4->uxPriority
 1447 0058 1346     		mov	r3, r2	@ tmp134, D.6597
 1448 005a 9B00     		lsls	r3, r3, #2	@ tmp134, tmp134,
 1449 005c 1344     		add	r3, r3, r2	@ tmp134, D.6597
 1450 005e 9B00     		lsls	r3, r3, #2	@ tmp135, tmp134,
 1451 0060 0D4A     		ldr	r2, .L111+8	@ tmp136,
 1452 0062 1A44     		add	r2, r2, r3	@ D.6598, tmp134
 1453 0064 FB68     		ldr	r3, [r7, #12]	@ tmp137, pxTCB
 1454 0066 0433     		adds	r3, r3, #4	@ D.6596, tmp137,
 1455 0068 1946     		mov	r1, r3	@, D.6596
 1456 006a 1046     		mov	r0, r2	@, D.6598
 1457 006c FFF7FEFF 		bl	vListInsertEnd	@
1352:FreeRTOS/tasks.c **** 
1353:FreeRTOS/tasks.c **** 					/* We may have just resumed a higher priority task. */
1354:FreeRTOS/tasks.c **** 					if( pxTCB->uxPriority >= pxCurrentTCB->uxPriority )
 1458              		.loc 1 1354 0
 1459 0070 FB68     		ldr	r3, [r7, #12]	@ tmp138, pxTCB
 1460 0072 DA6A     		ldr	r2, [r3, #44]	@ D.6597, pxTCB_4->uxPriority
 1461 0074 064B     		ldr	r3, .L111	@ tmp139,
 1462 0076 1B68     		ldr	r3, [r3]	@ D.6594, pxCurrentTCB
ARM GAS  C:\Users\STUDENT\AppData\Local\Temp\ccRbxq9b.s 			page 51


 1463 0078 DB6A     		ldr	r3, [r3, #44]	@ D.6597, _22->uxPriority
 1464 007a 9A42     		cmp	r2, r3	@ D.6597, D.6597
 1465 007c 01D3     		bcc	.L109	@,
1355:FreeRTOS/tasks.c **** 					{
1356:FreeRTOS/tasks.c **** 						/* This yield may not cause the task just resumed to run,
1357:FreeRTOS/tasks.c **** 						but will leave the lists in the correct state for the
1358:FreeRTOS/tasks.c **** 						next yield. */
1359:FreeRTOS/tasks.c **** 						taskYIELD_IF_USING_PREEMPTION();
 1466              		.loc 1 1359 0
 1467 007e FFF7FEFF 		bl	vPortYield	@
 1468              	.L109:
1360:FreeRTOS/tasks.c **** 					}
1361:FreeRTOS/tasks.c **** 					else
1362:FreeRTOS/tasks.c **** 					{
1363:FreeRTOS/tasks.c **** 						mtCOVERAGE_TEST_MARKER();
1364:FreeRTOS/tasks.c **** 					}
1365:FreeRTOS/tasks.c **** 				}
1366:FreeRTOS/tasks.c **** 				else
1367:FreeRTOS/tasks.c **** 				{
1368:FreeRTOS/tasks.c **** 					mtCOVERAGE_TEST_MARKER();
1369:FreeRTOS/tasks.c **** 				}
1370:FreeRTOS/tasks.c **** 			}
1371:FreeRTOS/tasks.c **** 			taskEXIT_CRITICAL();
 1469              		.loc 1 1371 0
 1470 0082 FFF7FEFF 		bl	vPortExitCritical	@
 1471              	.L110:
1372:FreeRTOS/tasks.c **** 		}
1373:FreeRTOS/tasks.c **** 		else
1374:FreeRTOS/tasks.c **** 		{
1375:FreeRTOS/tasks.c **** 			mtCOVERAGE_TEST_MARKER();
1376:FreeRTOS/tasks.c **** 		}
1377:FreeRTOS/tasks.c **** 	}
 1472              		.loc 1 1377 0
 1473 0086 00BF     		nop
 1474 0088 1037     		adds	r7, r7, #16	@,,
 1475              		.cfi_def_cfa_offset 8
 1476 008a BD46     		mov	sp, r7	@,
 1477              		.cfi_def_cfa_register 13
 1478              		@ sp needed	@
 1479 008c 80BD     		pop	{r7, pc}	@
 1480              	.L112:
 1481 008e 00BF     		.align	2
 1482              	.L111:
 1483 0090 00000000 		.word	pxCurrentTCB
 1484 0094 00000000 		.word	uxTopReadyPriority
 1485 0098 00000000 		.word	pxReadyTasksLists
 1486              		.cfi_endproc
 1487              	.LFE9:
 1488              		.size	vTaskResume, .-vTaskResume
 1489              		.section	.text.xTaskResumeFromISR,"ax",%progbits
 1490              		.align	2
 1491              		.global	xTaskResumeFromISR
 1492              		.thumb
 1493              		.thumb_func
 1494              		.type	xTaskResumeFromISR, %function
 1495              	xTaskResumeFromISR:
 1496              	.LFB10:
ARM GAS  C:\Users\STUDENT\AppData\Local\Temp\ccRbxq9b.s 			page 52


1378:FreeRTOS/tasks.c **** 
1379:FreeRTOS/tasks.c **** #endif /* INCLUDE_vTaskSuspend */
1380:FreeRTOS/tasks.c **** 
1381:FreeRTOS/tasks.c **** /*-----------------------------------------------------------*/
1382:FreeRTOS/tasks.c **** 
1383:FreeRTOS/tasks.c **** #if ( ( INCLUDE_xTaskResumeFromISR == 1 ) && ( INCLUDE_vTaskSuspend == 1 ) )
1384:FreeRTOS/tasks.c **** 
1385:FreeRTOS/tasks.c **** 	BaseT_t xTaskResumeFromISR( TaskHandle_t xTaskToResume )
1386:FreeRTOS/tasks.c **** 	{
 1497              		.loc 1 1386 0
 1498              		.cfi_startproc
 1499              		@ args = 0, pretend = 0, frame = 24
 1500              		@ frame_needed = 1, uses_anonymous_args = 0
 1501 0000 80B5     		push	{r7, lr}	@
 1502              		.cfi_def_cfa_offset 8
 1503              		.cfi_offset 7, -8
 1504              		.cfi_offset 14, -4
 1505 0002 86B0     		sub	sp, sp, #24	@,,
 1506              		.cfi_def_cfa_offset 32
 1507 0004 00AF     		add	r7, sp, #0	@,,
 1508              		.cfi_def_cfa_register 7
 1509 0006 7860     		str	r0, [r7, #4]	@ xTaskToResume, xTaskToResume
1387:FreeRTOS/tasks.c **** 	BaseT_t xYieldRequired = pdFALSE;
 1510              		.loc 1 1387 0
 1511 0008 0023     		movs	r3, #0	@ tmp126,
 1512 000a 7B61     		str	r3, [r7, #20]	@ tmp126, xYieldRequired
1388:FreeRTOS/tasks.c **** 	TCB_t * const pxTCB = ( TCB_t * ) xTaskToResume;
 1513              		.loc 1 1388 0
 1514 000c 7B68     		ldr	r3, [r7, #4]	@ tmp127, xTaskToResume
 1515 000e 3B61     		str	r3, [r7, #16]	@ tmp127, pxTCB
1389:FreeRTOS/tasks.c **** 	UBaseT_t uxSavedInterruptStatus;
1390:FreeRTOS/tasks.c **** 
1391:FreeRTOS/tasks.c **** 		configASSERT( xTaskToResume );
 1516              		.loc 1 1391 0
 1517 0010 7B68     		ldr	r3, [r7, #4]	@ tmp128, xTaskToResume
 1518 0012 002B     		cmp	r3, #0	@ tmp128,
 1519 0014 02D1     		bne	.L114	@,
 1520              		.loc 1 1391 0 is_stmt 0 discriminator 1
 1521 0016 FFF7FEFF 		bl	ulPortSetInterruptMask	@
 1522              	.L115:
 1523 001a FEE7     		b	.L115	@
 1524              	.L114:
1392:FreeRTOS/tasks.c **** 
1393:FreeRTOS/tasks.c **** 		/* RTOS ports that support interrupt nesting have the concept of a
1394:FreeRTOS/tasks.c **** 		maximum	system call (or maximum API call) interrupt priority.
1395:FreeRTOS/tasks.c **** 		Interrupts that are	above the maximum system call priority are keep
1396:FreeRTOS/tasks.c **** 		permanently enabled, even when the RTOS kernel is in a critical section,
1397:FreeRTOS/tasks.c **** 		but cannot make any calls to FreeRTOS API functions.  If configASSERT()
1398:FreeRTOS/tasks.c **** 		is defined in FreeRTOSConfig.h then
1399:FreeRTOS/tasks.c **** 		portASSERT_IF_INTERRUPT_PRIORITY_INVALID() will result in an assertion
1400:FreeRTOS/tasks.c **** 		failure if a FreeRTOS API function is called from an interrupt that has
1401:FreeRTOS/tasks.c **** 		been assigned a priority above the configured maximum system call
1402:FreeRTOS/tasks.c **** 		priority.  Only FreeRTOS functions that end in FromISR can be called
1403:FreeRTOS/tasks.c **** 		from interrupts	that have been assigned a priority at or (logically)
1404:FreeRTOS/tasks.c **** 		below the maximum system call interrupt priority.  FreeRTOS maintains a
1405:FreeRTOS/tasks.c **** 		separate interrupt safe API to ensure interrupt entry is as fast and as
1406:FreeRTOS/tasks.c **** 		simple as possible.  More information (albeit Cortex-M specific) is
ARM GAS  C:\Users\STUDENT\AppData\Local\Temp\ccRbxq9b.s 			page 53


1407:FreeRTOS/tasks.c **** 		provided on the following link:
1408:FreeRTOS/tasks.c **** 		http://www.freertos.org/RTOS-Cortex-M3-M4.html */
1409:FreeRTOS/tasks.c **** 		portASSERT_IF_INTERRUPT_PRIORITY_INVALID();
 1525              		.loc 1 1409 0 is_stmt 1
 1526 001c FFF7FEFF 		bl	vPortValidateInterruptPriority	@
1410:FreeRTOS/tasks.c **** 
1411:FreeRTOS/tasks.c **** 		uxSavedInterruptStatus = portSET_INTERRUPT_MASK_FROM_ISR();
 1527              		.loc 1 1411 0
 1528 0020 FFF7FEFF 		bl	ulPortSetInterruptMask	@
 1529 0024 F860     		str	r0, [r7, #12]	@, uxSavedInterruptStatus
1412:FreeRTOS/tasks.c **** 		{
1413:FreeRTOS/tasks.c **** 			if( prvTaskIsTaskSuspended( pxTCB ) == pdTRUE )
 1530              		.loc 1 1413 0
 1531 0026 3869     		ldr	r0, [r7, #16]	@, pxTCB
 1532 0028 FFF7FEFF 		bl	prvTaskIsTaskSuspended	@
 1533 002c 0346     		mov	r3, r0	@ D.6599,
 1534 002e 012B     		cmp	r3, #1	@ D.6599,
 1535 0030 2FD1     		bne	.L116	@,
1414:FreeRTOS/tasks.c **** 			{
1415:FreeRTOS/tasks.c **** 				traceTASK_RESUME_FROM_ISR( pxTCB );
1416:FreeRTOS/tasks.c **** 
1417:FreeRTOS/tasks.c **** 				/* Check the ready lists can be accessed. */
1418:FreeRTOS/tasks.c **** 				if( uxSchedulerSuspended == ( UBaseT_t ) pdFALSE )
 1536              		.loc 1 1418 0
 1537 0032 1C4B     		ldr	r3, .L121	@ tmp129,
 1538 0034 1B68     		ldr	r3, [r3]	@ D.6600, uxSchedulerSuspended
 1539 0036 002B     		cmp	r3, #0	@ D.6600,
 1540 0038 25D1     		bne	.L117	@,
1419:FreeRTOS/tasks.c **** 				{
1420:FreeRTOS/tasks.c **** 					/* Ready lists can be accessed so move the task from the
1421:FreeRTOS/tasks.c **** 					suspended list to the ready list directly. */
1422:FreeRTOS/tasks.c **** 					if( pxTCB->uxPriority >= pxCurrentTCB->uxPriority )
 1541              		.loc 1 1422 0
 1542 003a 3B69     		ldr	r3, [r7, #16]	@ tmp130, pxTCB
 1543 003c DA6A     		ldr	r2, [r3, #44]	@ D.6600, pxTCB_8->uxPriority
 1544 003e 1A4B     		ldr	r3, .L121+4	@ tmp131,
 1545 0040 1B68     		ldr	r3, [r3]	@ D.6601, pxCurrentTCB
 1546 0042 DB6A     		ldr	r3, [r3, #44]	@ D.6600, _17->uxPriority
 1547 0044 9A42     		cmp	r2, r3	@ D.6600, D.6600
 1548 0046 01D3     		bcc	.L118	@,
1423:FreeRTOS/tasks.c **** 					{
1424:FreeRTOS/tasks.c **** 						xYieldRequired = pdTRUE;
 1549              		.loc 1 1424 0
 1550 0048 0123     		movs	r3, #1	@ tmp132,
 1551 004a 7B61     		str	r3, [r7, #20]	@ tmp132, xYieldRequired
 1552              	.L118:
1425:FreeRTOS/tasks.c **** 					}
1426:FreeRTOS/tasks.c **** 					else
1427:FreeRTOS/tasks.c **** 					{
1428:FreeRTOS/tasks.c **** 						mtCOVERAGE_TEST_MARKER();
1429:FreeRTOS/tasks.c **** 					}
1430:FreeRTOS/tasks.c **** 
1431:FreeRTOS/tasks.c **** 					( void ) uxListRemove(  &( pxTCB->xGenericListItem ) );
 1553              		.loc 1 1431 0
 1554 004c 3B69     		ldr	r3, [r7, #16]	@ tmp133, pxTCB
 1555 004e 0433     		adds	r3, r3, #4	@ D.6602, tmp133,
 1556 0050 1846     		mov	r0, r3	@, D.6602
ARM GAS  C:\Users\STUDENT\AppData\Local\Temp\ccRbxq9b.s 			page 54


 1557 0052 FFF7FEFF 		bl	uxListRemove	@
1432:FreeRTOS/tasks.c **** 					prvAddTaskToReadyList( pxTCB );
 1558              		.loc 1 1432 0
 1559 0056 3B69     		ldr	r3, [r7, #16]	@ tmp134, pxTCB
 1560 0058 DB6A     		ldr	r3, [r3, #44]	@ D.6600, pxTCB_8->uxPriority
 1561 005a 0122     		movs	r2, #1	@ tmp135,
 1562 005c 9A40     		lsls	r2, r2, r3	@ D.6600, tmp135, D.6600
 1563 005e 134B     		ldr	r3, .L121+8	@ tmp136,
 1564 0060 1B68     		ldr	r3, [r3]	@ D.6600, uxTopReadyPriority
 1565 0062 1343     		orrs	r3, r3, r2	@, D.6600, D.6600, D.6600
 1566 0064 114A     		ldr	r2, .L121+8	@ tmp137,
 1567 0066 1360     		str	r3, [r2]	@ D.6600, uxTopReadyPriority
 1568 0068 3B69     		ldr	r3, [r7, #16]	@ tmp138, pxTCB
 1569 006a DA6A     		ldr	r2, [r3, #44]	@ D.6600, pxTCB_8->uxPriority
 1570 006c 1346     		mov	r3, r2	@ tmp139, D.6600
 1571 006e 9B00     		lsls	r3, r3, #2	@ tmp139, tmp139,
 1572 0070 1344     		add	r3, r3, r2	@ tmp139, D.6600
 1573 0072 9B00     		lsls	r3, r3, #2	@ tmp140, tmp139,
 1574 0074 0E4A     		ldr	r2, .L121+12	@ tmp141,
 1575 0076 1A44     		add	r2, r2, r3	@ D.6603, tmp139
 1576 0078 3B69     		ldr	r3, [r7, #16]	@ tmp142, pxTCB
 1577 007a 0433     		adds	r3, r3, #4	@ D.6602, tmp142,
 1578 007c 1946     		mov	r1, r3	@, D.6602
 1579 007e 1046     		mov	r0, r2	@, D.6603
 1580 0080 FFF7FEFF 		bl	vListInsertEnd	@
 1581 0084 05E0     		b	.L116	@
 1582              	.L117:
1433:FreeRTOS/tasks.c **** 				}
1434:FreeRTOS/tasks.c **** 				else
1435:FreeRTOS/tasks.c **** 				{
1436:FreeRTOS/tasks.c **** 					/* The delayed or ready lists cannot be accessed so the task
1437:FreeRTOS/tasks.c **** 					is held in the pending ready list until the scheduler is
1438:FreeRTOS/tasks.c **** 					unsuspended. */
1439:FreeRTOS/tasks.c **** 					vListInsertEnd( &( xPendingReadyList ), &( pxTCB->xEventListItem ) );
 1583              		.loc 1 1439 0
 1584 0086 3B69     		ldr	r3, [r7, #16]	@ tmp143, pxTCB
 1585 0088 1833     		adds	r3, r3, #24	@ D.6602, tmp143,
 1586 008a 1946     		mov	r1, r3	@, D.6602
 1587 008c 0948     		ldr	r0, .L121+16	@,
 1588 008e FFF7FEFF 		bl	vListInsertEnd	@
 1589              	.L116:
1440:FreeRTOS/tasks.c **** 				}
1441:FreeRTOS/tasks.c **** 			}
1442:FreeRTOS/tasks.c **** 			else
1443:FreeRTOS/tasks.c **** 			{
1444:FreeRTOS/tasks.c **** 				mtCOVERAGE_TEST_MARKER();
1445:FreeRTOS/tasks.c **** 			}
1446:FreeRTOS/tasks.c **** 		}
1447:FreeRTOS/tasks.c **** 		portCLEAR_INTERRUPT_MASK_FROM_ISR( uxSavedInterruptStatus );
 1590              		.loc 1 1447 0
 1591 0092 F868     		ldr	r0, [r7, #12]	@, uxSavedInterruptStatus
 1592 0094 FFF7FEFF 		bl	vPortClearInterruptMask	@
1448:FreeRTOS/tasks.c **** 
1449:FreeRTOS/tasks.c **** 		return xYieldRequired;
 1593              		.loc 1 1449 0
 1594 0098 7B69     		ldr	r3, [r7, #20]	@ D.6604, xYieldRequired
1450:FreeRTOS/tasks.c **** 	}
ARM GAS  C:\Users\STUDENT\AppData\Local\Temp\ccRbxq9b.s 			page 55


 1595              		.loc 1 1450 0
 1596 009a 1846     		mov	r0, r3	@, <retval>
 1597 009c 1837     		adds	r7, r7, #24	@,,
 1598              		.cfi_def_cfa_offset 8
 1599 009e BD46     		mov	sp, r7	@,
 1600              		.cfi_def_cfa_register 13
 1601              		@ sp needed	@
 1602 00a0 80BD     		pop	{r7, pc}	@
 1603              	.L122:
 1604 00a2 00BF     		.align	2
 1605              	.L121:
 1606 00a4 00000000 		.word	uxSchedulerSuspended
 1607 00a8 00000000 		.word	pxCurrentTCB
 1608 00ac 00000000 		.word	uxTopReadyPriority
 1609 00b0 00000000 		.word	pxReadyTasksLists
 1610 00b4 00000000 		.word	xPendingReadyList
 1611              		.cfi_endproc
 1612              	.LFE10:
 1613              		.size	xTaskResumeFromISR, .-xTaskResumeFromISR
 1614              		.section	.rodata
 1615              		.align	2
 1616              	.LC0:
 1617 0000 49444C45 		.ascii	"IDLE\000"
 1617      00
 1618              		.section	.text.vTaskStartScheduler,"ax",%progbits
 1619              		.align	2
 1620              		.global	vTaskStartScheduler
 1621              		.thumb
 1622              		.thumb_func
 1623              		.type	vTaskStartScheduler, %function
 1624              	vTaskStartScheduler:
 1625              	.LFB11:
1451:FreeRTOS/tasks.c **** 
1452:FreeRTOS/tasks.c **** #endif /* ( ( INCLUDE_xTaskResumeFromISR == 1 ) && ( INCLUDE_vTaskSuspend == 1 ) ) */
1453:FreeRTOS/tasks.c **** /*-----------------------------------------------------------*/
1454:FreeRTOS/tasks.c **** 
1455:FreeRTOS/tasks.c **** void vTaskStartScheduler( void )
1456:FreeRTOS/tasks.c **** {
 1626              		.loc 1 1456 0
 1627              		.cfi_startproc
 1628              		@ args = 0, pretend = 0, frame = 8
 1629              		@ frame_needed = 1, uses_anonymous_args = 0
 1630 0000 80B5     		push	{r7, lr}	@
 1631              		.cfi_def_cfa_offset 8
 1632              		.cfi_offset 7, -8
 1633              		.cfi_offset 14, -4
 1634 0002 86B0     		sub	sp, sp, #24	@,,
 1635              		.cfi_def_cfa_offset 32
 1636 0004 04AF     		add	r7, sp, #16	@,,
 1637              		.cfi_def_cfa 7, 16
1457:FreeRTOS/tasks.c **** BaseT_t xReturn;
1458:FreeRTOS/tasks.c **** 
1459:FreeRTOS/tasks.c **** 	/* Add the idle task at the lowest priority. */
1460:FreeRTOS/tasks.c **** 	#if ( INCLUDE_xTaskGetIdleTaskHandle == 1 )
1461:FreeRTOS/tasks.c **** 	{
1462:FreeRTOS/tasks.c **** 		/* Create the idle task, storing its handle in xIdleTaskHandle so it can
1463:FreeRTOS/tasks.c **** 		be returned by the xTaskGetIdleTaskHandle() function. */
ARM GAS  C:\Users\STUDENT\AppData\Local\Temp\ccRbxq9b.s 			page 56


1464:FreeRTOS/tasks.c **** 		xReturn = xTaskCreate( prvIdleTask, "IDLE", tskIDLE_STACK_SIZE, ( void * ) NULL, ( tskIDLE_PRIORI
1465:FreeRTOS/tasks.c **** 	}
1466:FreeRTOS/tasks.c **** 	#else
1467:FreeRTOS/tasks.c **** 	{
1468:FreeRTOS/tasks.c **** 		/* Create the idle task without storing its handle. */
1469:FreeRTOS/tasks.c **** 		xReturn = xTaskCreate( prvIdleTask, "IDLE", tskIDLE_STACK_SIZE, ( void * ) NULL, ( tskIDLE_PRIORI
 1638              		.loc 1 1469 0
 1639 0006 0023     		movs	r3, #0	@ tmp111,
 1640 0008 0393     		str	r3, [sp, #12]	@ tmp111,
 1641 000a 0023     		movs	r3, #0	@ tmp112,
 1642 000c 0293     		str	r3, [sp, #8]	@ tmp112,
 1643 000e 0023     		movs	r3, #0	@ tmp113,
 1644 0010 0193     		str	r3, [sp, #4]	@ tmp113,
 1645 0012 0023     		movs	r3, #0	@ tmp114,
 1646 0014 0093     		str	r3, [sp]	@ tmp114,
 1647 0016 0023     		movs	r3, #0	@,
 1648 0018 4FF48072 		mov	r2, #256	@,
 1649 001c 0E49     		ldr	r1, .L128	@,
 1650 001e 0F48     		ldr	r0, .L128+4	@,
 1651 0020 FFF7FEFF 		bl	xTaskGenericCreate	@
 1652 0024 7860     		str	r0, [r7, #4]	@, xReturn
1470:FreeRTOS/tasks.c **** 	}
1471:FreeRTOS/tasks.c **** 	#endif /* INCLUDE_xTaskGetIdleTaskHandle */
1472:FreeRTOS/tasks.c **** 
1473:FreeRTOS/tasks.c **** 	#if ( configUSE_TIMERS == 1 )
1474:FreeRTOS/tasks.c **** 	{
1475:FreeRTOS/tasks.c **** 		if( xReturn == pdPASS )
1476:FreeRTOS/tasks.c **** 		{
1477:FreeRTOS/tasks.c **** 			xReturn = xTimerCreateTimerTask();
1478:FreeRTOS/tasks.c **** 		}
1479:FreeRTOS/tasks.c **** 		else
1480:FreeRTOS/tasks.c **** 		{
1481:FreeRTOS/tasks.c **** 			mtCOVERAGE_TEST_MARKER();
1482:FreeRTOS/tasks.c **** 		}
1483:FreeRTOS/tasks.c **** 	}
1484:FreeRTOS/tasks.c **** 	#endif /* configUSE_TIMERS */
1485:FreeRTOS/tasks.c **** 
1486:FreeRTOS/tasks.c **** 	if( xReturn == pdPASS )
 1653              		.loc 1 1486 0
 1654 0026 7B68     		ldr	r3, [r7, #4]	@ tmp115, xReturn
 1655 0028 012B     		cmp	r3, #1	@ tmp115,
 1656 002a 0AD1     		bne	.L124	@,
1487:FreeRTOS/tasks.c **** 	{
1488:FreeRTOS/tasks.c **** 		/* Interrupts are turned off here, to ensure a tick does not occur
1489:FreeRTOS/tasks.c **** 		before or during the call to xPortStartScheduler().  The stacks of
1490:FreeRTOS/tasks.c **** 		the created tasks contain a status word with interrupts switched on
1491:FreeRTOS/tasks.c **** 		so interrupts will automatically get re-enabled when the first task
1492:FreeRTOS/tasks.c **** 		starts to run. */
1493:FreeRTOS/tasks.c **** 		portDISABLE_INTERRUPTS();
 1657              		.loc 1 1493 0
 1658 002c FFF7FEFF 		bl	ulPortSetInterruptMask	@
1494:FreeRTOS/tasks.c **** 
1495:FreeRTOS/tasks.c **** 		#if ( configUSE_NEWLIB_REENTRANT == 1 )
1496:FreeRTOS/tasks.c **** 		{
1497:FreeRTOS/tasks.c **** 			/* Switch Newlib's _impure_ptr variable to point to the _reent
1498:FreeRTOS/tasks.c **** 			structure specific to the task that will run first. */
1499:FreeRTOS/tasks.c **** 			_impure_ptr = &( pxCurrentTCB->xNewLib_reent );
ARM GAS  C:\Users\STUDENT\AppData\Local\Temp\ccRbxq9b.s 			page 57


1500:FreeRTOS/tasks.c **** 		}
1501:FreeRTOS/tasks.c **** 		#endif /* configUSE_NEWLIB_REENTRANT */
1502:FreeRTOS/tasks.c **** 
1503:FreeRTOS/tasks.c **** 		xSchedulerRunning = pdTRUE;
 1659              		.loc 1 1503 0
 1660 0030 0B4B     		ldr	r3, .L128+8	@ tmp116,
 1661 0032 0122     		movs	r2, #1	@ tmp117,
 1662 0034 1A60     		str	r2, [r3]	@ tmp117, xSchedulerRunning
1504:FreeRTOS/tasks.c **** 		xTickCount = ( TickT_t ) 0U;
 1663              		.loc 1 1504 0
 1664 0036 0B4B     		ldr	r3, .L128+12	@ tmp118,
 1665 0038 0022     		movs	r2, #0	@ tmp119,
 1666 003a 1A60     		str	r2, [r3]	@ tmp119, xTickCount
1505:FreeRTOS/tasks.c **** 
1506:FreeRTOS/tasks.c **** 		/* If configGENERATE_RUN_TIME_STATS is defined then the following
1507:FreeRTOS/tasks.c **** 		macro must be defined to configure the timer/counter used to generate
1508:FreeRTOS/tasks.c **** 		the run time counter time base. */
1509:FreeRTOS/tasks.c **** 		portCONFIGURE_TIMER_FOR_RUN_TIME_STATS();
1510:FreeRTOS/tasks.c **** 
1511:FreeRTOS/tasks.c **** 		/* Setting up the timer tick is hardware specific and thus in the
1512:FreeRTOS/tasks.c **** 		portable interface. */
1513:FreeRTOS/tasks.c **** 		if( xPortStartScheduler() != pdFALSE )
 1667              		.loc 1 1513 0
 1668 003c FFF7FEFF 		bl	xPortStartScheduler	@
1514:FreeRTOS/tasks.c **** 		{
1515:FreeRTOS/tasks.c **** 			/* Should not reach here as if the scheduler is running the
1516:FreeRTOS/tasks.c **** 			function will not return. */
1517:FreeRTOS/tasks.c **** 		}
1518:FreeRTOS/tasks.c **** 		else
1519:FreeRTOS/tasks.c **** 		{
1520:FreeRTOS/tasks.c **** 			/* Should only reach here if a task calls xTaskEndScheduler(). */
1521:FreeRTOS/tasks.c **** 		}
1522:FreeRTOS/tasks.c **** 	}
1523:FreeRTOS/tasks.c **** 	else
1524:FreeRTOS/tasks.c **** 	{
1525:FreeRTOS/tasks.c **** 		/* This line will only be reached if the kernel could not be started,
1526:FreeRTOS/tasks.c **** 		because there was not enough FreeRTOS heap to create the idle task
1527:FreeRTOS/tasks.c **** 		or the timer task. */
1528:FreeRTOS/tasks.c **** 		configASSERT( xReturn );
1529:FreeRTOS/tasks.c **** 	}
1530:FreeRTOS/tasks.c **** }
 1669              		.loc 1 1530 0
 1670 0040 05E0     		b	.L127	@
 1671              	.L124:
1528:FreeRTOS/tasks.c **** 	}
 1672              		.loc 1 1528 0
 1673 0042 7B68     		ldr	r3, [r7, #4]	@ tmp120, xReturn
 1674 0044 002B     		cmp	r3, #0	@ tmp120,
 1675 0046 02D1     		bne	.L127	@,
1528:FreeRTOS/tasks.c **** 	}
 1676              		.loc 1 1528 0 is_stmt 0 discriminator 1
 1677 0048 FFF7FEFF 		bl	ulPortSetInterruptMask	@
 1678              	.L126:
1528:FreeRTOS/tasks.c **** 	}
 1679              		.loc 1 1528 0 discriminator 2
 1680 004c FEE7     		b	.L126	@
 1681              	.L127:
ARM GAS  C:\Users\STUDENT\AppData\Local\Temp\ccRbxq9b.s 			page 58


 1682              		.loc 1 1530 0 is_stmt 1
 1683 004e 00BF     		nop
 1684 0050 0837     		adds	r7, r7, #8	@,,
 1685              		.cfi_def_cfa_offset 8
 1686 0052 BD46     		mov	sp, r7	@,
 1687              		.cfi_def_cfa_register 13
 1688              		@ sp needed	@
 1689 0054 80BD     		pop	{r7, pc}	@
 1690              	.L129:
 1691 0056 00BF     		.align	2
 1692              	.L128:
 1693 0058 00000000 		.word	.LC0
 1694 005c 00000000 		.word	prvIdleTask
 1695 0060 00000000 		.word	xSchedulerRunning
 1696 0064 00000000 		.word	xTickCount
 1697              		.cfi_endproc
 1698              	.LFE11:
 1699              		.size	vTaskStartScheduler, .-vTaskStartScheduler
 1700              		.section	.text.vTaskEndScheduler,"ax",%progbits
 1701              		.align	2
 1702              		.global	vTaskEndScheduler
 1703              		.thumb
 1704              		.thumb_func
 1705              		.type	vTaskEndScheduler, %function
 1706              	vTaskEndScheduler:
 1707              	.LFB12:
1531:FreeRTOS/tasks.c **** /*-----------------------------------------------------------*/
1532:FreeRTOS/tasks.c **** 
1533:FreeRTOS/tasks.c **** void vTaskEndScheduler( void )
1534:FreeRTOS/tasks.c **** {
 1708              		.loc 1 1534 0
 1709              		.cfi_startproc
 1710              		@ args = 0, pretend = 0, frame = 0
 1711              		@ frame_needed = 1, uses_anonymous_args = 0
 1712 0000 80B5     		push	{r7, lr}	@
 1713              		.cfi_def_cfa_offset 8
 1714              		.cfi_offset 7, -8
 1715              		.cfi_offset 14, -4
 1716 0002 00AF     		add	r7, sp, #0	@,,
 1717              		.cfi_def_cfa_register 7
1535:FreeRTOS/tasks.c **** 	/* Stop the scheduler interrupts and call the portable scheduler end
1536:FreeRTOS/tasks.c **** 	routine so the original ISRs can be restored if necessary.  The port
1537:FreeRTOS/tasks.c **** 	layer must ensure interrupts enable	bit is left in the correct state. */
1538:FreeRTOS/tasks.c **** 	portDISABLE_INTERRUPTS();
 1718              		.loc 1 1538 0
 1719 0004 FFF7FEFF 		bl	ulPortSetInterruptMask	@
1539:FreeRTOS/tasks.c **** 	xSchedulerRunning = pdFALSE;
 1720              		.loc 1 1539 0
 1721 0008 034B     		ldr	r3, .L131	@ tmp110,
 1722 000a 0022     		movs	r2, #0	@ tmp111,
 1723 000c 1A60     		str	r2, [r3]	@ tmp111, xSchedulerRunning
1540:FreeRTOS/tasks.c **** 	vPortEndScheduler();
 1724              		.loc 1 1540 0
 1725 000e FFF7FEFF 		bl	vPortEndScheduler	@
1541:FreeRTOS/tasks.c **** }
 1726              		.loc 1 1541 0
 1727 0012 00BF     		nop
ARM GAS  C:\Users\STUDENT\AppData\Local\Temp\ccRbxq9b.s 			page 59


 1728 0014 80BD     		pop	{r7, pc}	@
 1729              	.L132:
 1730 0016 00BF     		.align	2
 1731              	.L131:
 1732 0018 00000000 		.word	xSchedulerRunning
 1733              		.cfi_endproc
 1734              	.LFE12:
 1735              		.size	vTaskEndScheduler, .-vTaskEndScheduler
 1736              		.section	.text.vTaskSuspendAll,"ax",%progbits
 1737              		.align	2
 1738              		.global	vTaskSuspendAll
 1739              		.thumb
 1740              		.thumb_func
 1741              		.type	vTaskSuspendAll, %function
 1742              	vTaskSuspendAll:
 1743              	.LFB13:
1542:FreeRTOS/tasks.c **** /*----------------------------------------------------------*/
1543:FreeRTOS/tasks.c **** 
1544:FreeRTOS/tasks.c **** void vTaskSuspendAll( void )
1545:FreeRTOS/tasks.c **** {
 1744              		.loc 1 1545 0
 1745              		.cfi_startproc
 1746              		@ args = 0, pretend = 0, frame = 0
 1747              		@ frame_needed = 1, uses_anonymous_args = 0
 1748              		@ link register save eliminated.
 1749 0000 80B4     		push	{r7}	@
 1750              		.cfi_def_cfa_offset 4
 1751              		.cfi_offset 7, -4
 1752 0002 00AF     		add	r7, sp, #0	@,,
 1753              		.cfi_def_cfa_register 7
1546:FreeRTOS/tasks.c **** 	/* A critical section is not required as the variable is of type
1547:FreeRTOS/tasks.c **** 	BaseT_t.  Please read Richard Barry's reply in the following link to a
1548:FreeRTOS/tasks.c **** 	post in the FreeRTOS support forum before reporting this as a bug! -
1549:FreeRTOS/tasks.c **** 	http://goo.gl/wu4acr */
1550:FreeRTOS/tasks.c **** 	++uxSchedulerSuspended;
 1754              		.loc 1 1550 0
 1755 0004 044B     		ldr	r3, .L134	@ tmp112,
 1756 0006 1B68     		ldr	r3, [r3]	@ D.6607, uxSchedulerSuspended
 1757 0008 0133     		adds	r3, r3, #1	@ D.6607, D.6607,
 1758 000a 034A     		ldr	r2, .L134	@ tmp113,
 1759 000c 1360     		str	r3, [r2]	@ D.6607, uxSchedulerSuspended
1551:FreeRTOS/tasks.c **** }
 1760              		.loc 1 1551 0
 1761 000e 00BF     		nop
 1762 0010 BD46     		mov	sp, r7	@,
 1763              		.cfi_def_cfa_register 13
 1764              		@ sp needed	@
 1765 0012 80BC     		pop	{r7}	@
 1766              		.cfi_restore 7
 1767              		.cfi_def_cfa_offset 0
 1768 0014 7047     		bx	lr	@
 1769              	.L135:
 1770 0016 00BF     		.align	2
 1771              	.L134:
 1772 0018 00000000 		.word	uxSchedulerSuspended
 1773              		.cfi_endproc
 1774              	.LFE13:
ARM GAS  C:\Users\STUDENT\AppData\Local\Temp\ccRbxq9b.s 			page 60


 1775              		.size	vTaskSuspendAll, .-vTaskSuspendAll
 1776              		.section	.text.xTaskResumeAll,"ax",%progbits
 1777              		.align	2
 1778              		.global	xTaskResumeAll
 1779              		.thumb
 1780              		.thumb_func
 1781              		.type	xTaskResumeAll, %function
 1782              	xTaskResumeAll:
 1783              	.LFB14:
1552:FreeRTOS/tasks.c **** /*----------------------------------------------------------*/
1553:FreeRTOS/tasks.c **** 
1554:FreeRTOS/tasks.c **** #if ( configUSE_TICKLESS_IDLE != 0 )
1555:FreeRTOS/tasks.c **** 
1556:FreeRTOS/tasks.c **** 	static TickT_t prvGetExpectedIdleTime( void )
1557:FreeRTOS/tasks.c **** 	{
1558:FreeRTOS/tasks.c **** 	TickT_t xReturn;
1559:FreeRTOS/tasks.c **** 
1560:FreeRTOS/tasks.c **** 		if( pxCurrentTCB->uxPriority > tskIDLE_PRIORITY )
1561:FreeRTOS/tasks.c **** 		{
1562:FreeRTOS/tasks.c **** 			xReturn = 0;
1563:FreeRTOS/tasks.c **** 		}
1564:FreeRTOS/tasks.c **** 		else if( listCURRENT_LIST_LENGTH( &( pxReadyTasksLists[ tskIDLE_PRIORITY ] ) ) > 1 )
1565:FreeRTOS/tasks.c **** 		{
1566:FreeRTOS/tasks.c **** 			/* There are other idle priority tasks in the ready state.  If
1567:FreeRTOS/tasks.c **** 			time slicing is used then the very next tick interrupt must be
1568:FreeRTOS/tasks.c **** 			processed. */
1569:FreeRTOS/tasks.c **** 			xReturn = 0;
1570:FreeRTOS/tasks.c **** 		}
1571:FreeRTOS/tasks.c **** 		else
1572:FreeRTOS/tasks.c **** 		{
1573:FreeRTOS/tasks.c **** 			xReturn = xNextTaskUnblockTime - xTickCount;
1574:FreeRTOS/tasks.c **** 		}
1575:FreeRTOS/tasks.c **** 
1576:FreeRTOS/tasks.c **** 		return xReturn;
1577:FreeRTOS/tasks.c **** 	}
1578:FreeRTOS/tasks.c **** 
1579:FreeRTOS/tasks.c **** #endif /* configUSE_TICKLESS_IDLE */
1580:FreeRTOS/tasks.c **** /*----------------------------------------------------------*/
1581:FreeRTOS/tasks.c **** 
1582:FreeRTOS/tasks.c **** BaseT_t xTaskResumeAll( void )
1583:FreeRTOS/tasks.c **** {
 1784              		.loc 1 1583 0
 1785              		.cfi_startproc
 1786              		@ args = 0, pretend = 0, frame = 8
 1787              		@ frame_needed = 1, uses_anonymous_args = 0
 1788 0000 80B5     		push	{r7, lr}	@
 1789              		.cfi_def_cfa_offset 8
 1790              		.cfi_offset 7, -8
 1791              		.cfi_offset 14, -4
 1792 0002 82B0     		sub	sp, sp, #8	@,,
 1793              		.cfi_def_cfa_offset 16
 1794 0004 00AF     		add	r7, sp, #0	@,,
 1795              		.cfi_def_cfa_register 7
1584:FreeRTOS/tasks.c **** TCB_t *pxTCB;
1585:FreeRTOS/tasks.c **** BaseT_t xAlreadyYielded = pdFALSE;
 1796              		.loc 1 1585 0
 1797 0006 0023     		movs	r3, #0	@ tmp137,
ARM GAS  C:\Users\STUDENT\AppData\Local\Temp\ccRbxq9b.s 			page 61


 1798 0008 7B60     		str	r3, [r7, #4]	@ tmp137, xAlreadyYielded
1586:FreeRTOS/tasks.c **** 
1587:FreeRTOS/tasks.c **** 	/* If uxSchedulerSuspended is zero then this function does not match a
1588:FreeRTOS/tasks.c **** 	previous call to vTaskSuspendAll(). */
1589:FreeRTOS/tasks.c **** 	configASSERT( uxSchedulerSuspended );
 1799              		.loc 1 1589 0
 1800 000a 374B     		ldr	r3, .L147	@ tmp138,
 1801 000c 1B68     		ldr	r3, [r3]	@ D.6608, uxSchedulerSuspended
 1802 000e 002B     		cmp	r3, #0	@ D.6608,
 1803 0010 02D1     		bne	.L137	@,
 1804              		.loc 1 1589 0 is_stmt 0 discriminator 1
 1805 0012 FFF7FEFF 		bl	ulPortSetInterruptMask	@
 1806              	.L138:
 1807 0016 FEE7     		b	.L138	@
 1808              	.L137:
1590:FreeRTOS/tasks.c **** 
1591:FreeRTOS/tasks.c **** 	/* It is possible that an ISR caused a task to be removed from an event
1592:FreeRTOS/tasks.c **** 	list while the scheduler was suspended.  If this was the case then the
1593:FreeRTOS/tasks.c **** 	removed task will have been added to the xPendingReadyList.  Once the
1594:FreeRTOS/tasks.c **** 	scheduler has been resumed it is safe to move all the pending ready
1595:FreeRTOS/tasks.c **** 	tasks from this list into their appropriate ready list. */
1596:FreeRTOS/tasks.c **** 	taskENTER_CRITICAL();
 1809              		.loc 1 1596 0 is_stmt 1
 1810 0018 FFF7FEFF 		bl	vPortEnterCritical	@
1597:FreeRTOS/tasks.c **** 	{
1598:FreeRTOS/tasks.c **** 		--uxSchedulerSuspended;
 1811              		.loc 1 1598 0
 1812 001c 324B     		ldr	r3, .L147	@ tmp139,
 1813 001e 1B68     		ldr	r3, [r3]	@ D.6608, uxSchedulerSuspended
 1814 0020 013B     		subs	r3, r3, #1	@ D.6608, D.6608,
 1815 0022 314A     		ldr	r2, .L147	@ tmp140,
 1816 0024 1360     		str	r3, [r2]	@ D.6608, uxSchedulerSuspended
1599:FreeRTOS/tasks.c **** 
1600:FreeRTOS/tasks.c **** 		if( uxSchedulerSuspended == ( UBaseT_t ) pdFALSE )
 1817              		.loc 1 1600 0
 1818 0026 304B     		ldr	r3, .L147	@ tmp141,
 1819 0028 1B68     		ldr	r3, [r3]	@ D.6608, uxSchedulerSuspended
 1820 002a 002B     		cmp	r3, #0	@ D.6608,
 1821 002c 55D1     		bne	.L139	@,
1601:FreeRTOS/tasks.c **** 		{
1602:FreeRTOS/tasks.c **** 			if( uxCurrentNumberOfTasks > ( UBaseT_t ) 0U )
 1822              		.loc 1 1602 0
 1823 002e 2F4B     		ldr	r3, .L147+4	@ tmp142,
 1824 0030 1B68     		ldr	r3, [r3]	@ D.6608, uxCurrentNumberOfTasks
 1825 0032 002B     		cmp	r3, #0	@ D.6608,
 1826 0034 51D0     		beq	.L139	@,
1603:FreeRTOS/tasks.c **** 			{
1604:FreeRTOS/tasks.c **** 				/* Move any readied tasks from the pending list into the
1605:FreeRTOS/tasks.c **** 				appropriate ready list. */
1606:FreeRTOS/tasks.c **** 				while( listLIST_IS_EMPTY( &xPendingReadyList ) == pdFALSE )
 1827              		.loc 1 1606 0
 1828 0036 2EE0     		b	.L140	@
 1829              	.L141:
1607:FreeRTOS/tasks.c **** 				{
1608:FreeRTOS/tasks.c **** 					pxTCB = ( TCB_t * ) listGET_OWNER_OF_HEAD_ENTRY( ( &xPendingReadyList ) );
 1830              		.loc 1 1608 0
 1831 0038 2D4B     		ldr	r3, .L147+8	@ tmp143,
ARM GAS  C:\Users\STUDENT\AppData\Local\Temp\ccRbxq9b.s 			page 62


 1832 003a DB68     		ldr	r3, [r3, #12]	@ D.6609, xPendingReadyList.xListEnd.pxNext
 1833 003c DB68     		ldr	r3, [r3, #12]	@ tmp144, _17->pvOwner
 1834 003e 3B60     		str	r3, [r7]	@ tmp144, pxTCB
1609:FreeRTOS/tasks.c **** 					( void ) uxListRemove( &( pxTCB->xEventListItem ) );
 1835              		.loc 1 1609 0
 1836 0040 3B68     		ldr	r3, [r7]	@ tmp145, pxTCB
 1837 0042 1833     		adds	r3, r3, #24	@ D.6610, tmp145,
 1838 0044 1846     		mov	r0, r3	@, D.6610
 1839 0046 FFF7FEFF 		bl	uxListRemove	@
1610:FreeRTOS/tasks.c **** 					( void ) uxListRemove( &( pxTCB->xGenericListItem ) );
 1840              		.loc 1 1610 0
 1841 004a 3B68     		ldr	r3, [r7]	@ tmp146, pxTCB
 1842 004c 0433     		adds	r3, r3, #4	@ D.6610, tmp146,
 1843 004e 1846     		mov	r0, r3	@, D.6610
 1844 0050 FFF7FEFF 		bl	uxListRemove	@
1611:FreeRTOS/tasks.c **** 					prvAddTaskToReadyList( pxTCB );
 1845              		.loc 1 1611 0
 1846 0054 3B68     		ldr	r3, [r7]	@ tmp147, pxTCB
 1847 0056 DB6A     		ldr	r3, [r3, #44]	@ D.6608, pxTCB_18->uxPriority
 1848 0058 0122     		movs	r2, #1	@ tmp148,
 1849 005a 9A40     		lsls	r2, r2, r3	@ D.6608, tmp148, D.6608
 1850 005c 254B     		ldr	r3, .L147+12	@ tmp149,
 1851 005e 1B68     		ldr	r3, [r3]	@ D.6608, uxTopReadyPriority
 1852 0060 1343     		orrs	r3, r3, r2	@, D.6608, D.6608, D.6608
 1853 0062 244A     		ldr	r2, .L147+12	@ tmp150,
 1854 0064 1360     		str	r3, [r2]	@ D.6608, uxTopReadyPriority
 1855 0066 3B68     		ldr	r3, [r7]	@ tmp151, pxTCB
 1856 0068 DA6A     		ldr	r2, [r3, #44]	@ D.6608, pxTCB_18->uxPriority
 1857 006a 1346     		mov	r3, r2	@ tmp152, D.6608
 1858 006c 9B00     		lsls	r3, r3, #2	@ tmp152, tmp152,
 1859 006e 1344     		add	r3, r3, r2	@ tmp152, D.6608
 1860 0070 9B00     		lsls	r3, r3, #2	@ tmp153, tmp152,
 1861 0072 214A     		ldr	r2, .L147+16	@ tmp154,
 1862 0074 1A44     		add	r2, r2, r3	@ D.6611, tmp152
 1863 0076 3B68     		ldr	r3, [r7]	@ tmp155, pxTCB
 1864 0078 0433     		adds	r3, r3, #4	@ D.6610, tmp155,
 1865 007a 1946     		mov	r1, r3	@, D.6610
 1866 007c 1046     		mov	r0, r2	@, D.6611
 1867 007e FFF7FEFF 		bl	vListInsertEnd	@
1612:FreeRTOS/tasks.c **** 
1613:FreeRTOS/tasks.c **** 					/* If we have moved a task that has a priority higher than
1614:FreeRTOS/tasks.c **** 					the current task then we should yield. */
1615:FreeRTOS/tasks.c **** 					if( pxTCB->uxPriority >= pxCurrentTCB->uxPriority )
 1868              		.loc 1 1615 0
 1869 0082 3B68     		ldr	r3, [r7]	@ tmp156, pxTCB
 1870 0084 DA6A     		ldr	r2, [r3, #44]	@ D.6608, pxTCB_18->uxPriority
 1871 0086 1D4B     		ldr	r3, .L147+20	@ tmp157,
 1872 0088 1B68     		ldr	r3, [r3]	@ D.6612, pxCurrentTCB
 1873 008a DB6A     		ldr	r3, [r3, #44]	@ D.6608, _33->uxPriority
 1874 008c 9A42     		cmp	r2, r3	@ D.6608, D.6608
 1875 008e 02D3     		bcc	.L140	@,
1616:FreeRTOS/tasks.c **** 					{
1617:FreeRTOS/tasks.c **** 						xYieldPending = pdTRUE;
 1876              		.loc 1 1617 0
 1877 0090 1B4B     		ldr	r3, .L147+24	@ tmp158,
 1878 0092 0122     		movs	r2, #1	@ tmp159,
 1879 0094 1A60     		str	r2, [r3]	@ tmp159, xYieldPending
ARM GAS  C:\Users\STUDENT\AppData\Local\Temp\ccRbxq9b.s 			page 63


 1880              	.L140:
1606:FreeRTOS/tasks.c **** 				{
 1881              		.loc 1 1606 0
 1882 0096 164B     		ldr	r3, .L147+8	@ tmp160,
 1883 0098 1B68     		ldr	r3, [r3]	@ D.6608, xPendingReadyList.uxNumberOfItems
 1884 009a 002B     		cmp	r3, #0	@ D.6608,
 1885 009c CCD1     		bne	.L141	@,
1618:FreeRTOS/tasks.c **** 					}
1619:FreeRTOS/tasks.c **** 					else
1620:FreeRTOS/tasks.c **** 					{
1621:FreeRTOS/tasks.c **** 						mtCOVERAGE_TEST_MARKER();
1622:FreeRTOS/tasks.c **** 					}
1623:FreeRTOS/tasks.c **** 				}
1624:FreeRTOS/tasks.c **** 
1625:FreeRTOS/tasks.c **** 				/* If any ticks occurred while the scheduler was suspended then
1626:FreeRTOS/tasks.c **** 				they should be processed now.  This ensures the tick count does
1627:FreeRTOS/tasks.c **** 				not	slip, and that any delayed tasks are resumed at the correct
1628:FreeRTOS/tasks.c **** 				time. */
1629:FreeRTOS/tasks.c **** 				if( uxPendedTicks > ( UBaseT_t ) 0U )
 1886              		.loc 1 1629 0
 1887 009e 194B     		ldr	r3, .L147+28	@ tmp161,
 1888 00a0 1B68     		ldr	r3, [r3]	@ D.6608, uxPendedTicks
 1889 00a2 002B     		cmp	r3, #0	@ D.6608,
 1890 00a4 11D0     		beq	.L142	@,
1630:FreeRTOS/tasks.c **** 				{
1631:FreeRTOS/tasks.c **** 					while( uxPendedTicks > ( UBaseT_t ) 0U )
 1891              		.loc 1 1631 0
 1892 00a6 0CE0     		b	.L143	@
 1893              	.L145:
1632:FreeRTOS/tasks.c **** 					{
1633:FreeRTOS/tasks.c **** 						if( xTaskIncrementTick() != pdFALSE )
 1894              		.loc 1 1633 0
 1895 00a8 FFF7FEFF 		bl	xTaskIncrementTick	@
 1896 00ac 0346     		mov	r3, r0	@ D.6613,
 1897 00ae 002B     		cmp	r3, #0	@ D.6613,
 1898 00b0 02D0     		beq	.L144	@,
1634:FreeRTOS/tasks.c **** 						{
1635:FreeRTOS/tasks.c **** 							xYieldPending = pdTRUE;
 1899              		.loc 1 1635 0
 1900 00b2 134B     		ldr	r3, .L147+24	@ tmp162,
 1901 00b4 0122     		movs	r2, #1	@ tmp163,
 1902 00b6 1A60     		str	r2, [r3]	@ tmp163, xYieldPending
 1903              	.L144:
1636:FreeRTOS/tasks.c **** 						}
1637:FreeRTOS/tasks.c **** 						else
1638:FreeRTOS/tasks.c **** 						{
1639:FreeRTOS/tasks.c **** 							mtCOVERAGE_TEST_MARKER();
1640:FreeRTOS/tasks.c **** 						}
1641:FreeRTOS/tasks.c **** 						--uxPendedTicks;
 1904              		.loc 1 1641 0
 1905 00b8 124B     		ldr	r3, .L147+28	@ tmp164,
 1906 00ba 1B68     		ldr	r3, [r3]	@ D.6608, uxPendedTicks
 1907 00bc 013B     		subs	r3, r3, #1	@ D.6608, D.6608,
 1908 00be 114A     		ldr	r2, .L147+28	@ tmp165,
 1909 00c0 1360     		str	r3, [r2]	@ D.6608, uxPendedTicks
 1910              	.L143:
1631:FreeRTOS/tasks.c **** 					{
ARM GAS  C:\Users\STUDENT\AppData\Local\Temp\ccRbxq9b.s 			page 64


 1911              		.loc 1 1631 0
 1912 00c2 104B     		ldr	r3, .L147+28	@ tmp166,
 1913 00c4 1B68     		ldr	r3, [r3]	@ D.6608, uxPendedTicks
 1914 00c6 002B     		cmp	r3, #0	@ D.6608,
 1915 00c8 EED1     		bne	.L145	@,
 1916              	.L142:
1642:FreeRTOS/tasks.c **** 					}
1643:FreeRTOS/tasks.c **** 				}
1644:FreeRTOS/tasks.c **** 				else
1645:FreeRTOS/tasks.c **** 				{
1646:FreeRTOS/tasks.c **** 					mtCOVERAGE_TEST_MARKER();
1647:FreeRTOS/tasks.c **** 				}
1648:FreeRTOS/tasks.c **** 
1649:FreeRTOS/tasks.c **** 				if( xYieldPending == pdTRUE )
 1917              		.loc 1 1649 0
 1918 00ca 0D4B     		ldr	r3, .L147+24	@ tmp167,
 1919 00cc 1B68     		ldr	r3, [r3]	@ D.6613, xYieldPending
 1920 00ce 012B     		cmp	r3, #1	@ D.6613,
 1921 00d0 03D1     		bne	.L139	@,
1650:FreeRTOS/tasks.c **** 				{
1651:FreeRTOS/tasks.c **** 					#if( configUSE_PREEMPTION != 0 )
1652:FreeRTOS/tasks.c **** 					{
1653:FreeRTOS/tasks.c **** 						xAlreadyYielded = pdTRUE;
 1922              		.loc 1 1653 0
 1923 00d2 0123     		movs	r3, #1	@ tmp168,
 1924 00d4 7B60     		str	r3, [r7, #4]	@ tmp168, xAlreadyYielded
1654:FreeRTOS/tasks.c **** 					}
1655:FreeRTOS/tasks.c **** 					#endif
1656:FreeRTOS/tasks.c **** 					taskYIELD_IF_USING_PREEMPTION();
 1925              		.loc 1 1656 0
 1926 00d6 FFF7FEFF 		bl	vPortYield	@
 1927              	.L139:
1657:FreeRTOS/tasks.c **** 				}
1658:FreeRTOS/tasks.c **** 				else
1659:FreeRTOS/tasks.c **** 				{
1660:FreeRTOS/tasks.c **** 					mtCOVERAGE_TEST_MARKER();
1661:FreeRTOS/tasks.c **** 				}
1662:FreeRTOS/tasks.c **** 			}
1663:FreeRTOS/tasks.c **** 		}
1664:FreeRTOS/tasks.c **** 		else
1665:FreeRTOS/tasks.c **** 		{
1666:FreeRTOS/tasks.c **** 			mtCOVERAGE_TEST_MARKER();
1667:FreeRTOS/tasks.c **** 		}
1668:FreeRTOS/tasks.c **** 	}
1669:FreeRTOS/tasks.c **** 	taskEXIT_CRITICAL();
 1928              		.loc 1 1669 0
 1929 00da FFF7FEFF 		bl	vPortExitCritical	@
1670:FreeRTOS/tasks.c **** 
1671:FreeRTOS/tasks.c **** 	return xAlreadyYielded;
 1930              		.loc 1 1671 0
 1931 00de 7B68     		ldr	r3, [r7, #4]	@ D.6614, xAlreadyYielded
1672:FreeRTOS/tasks.c **** }
 1932              		.loc 1 1672 0
 1933 00e0 1846     		mov	r0, r3	@, <retval>
 1934 00e2 0837     		adds	r7, r7, #8	@,,
 1935              		.cfi_def_cfa_offset 8
 1936 00e4 BD46     		mov	sp, r7	@,
ARM GAS  C:\Users\STUDENT\AppData\Local\Temp\ccRbxq9b.s 			page 65


 1937              		.cfi_def_cfa_register 13
 1938              		@ sp needed	@
 1939 00e6 80BD     		pop	{r7, pc}	@
 1940              	.L148:
 1941              		.align	2
 1942              	.L147:
 1943 00e8 00000000 		.word	uxSchedulerSuspended
 1944 00ec 00000000 		.word	uxCurrentNumberOfTasks
 1945 00f0 00000000 		.word	xPendingReadyList
 1946 00f4 00000000 		.word	uxTopReadyPriority
 1947 00f8 00000000 		.word	pxReadyTasksLists
 1948 00fc 00000000 		.word	pxCurrentTCB
 1949 0100 00000000 		.word	xYieldPending
 1950 0104 00000000 		.word	uxPendedTicks
 1951              		.cfi_endproc
 1952              	.LFE14:
 1953              		.size	xTaskResumeAll, .-xTaskResumeAll
 1954              		.section	.text.xTaskGetTickCount,"ax",%progbits
 1955              		.align	2
 1956              		.global	xTaskGetTickCount
 1957              		.thumb
 1958              		.thumb_func
 1959              		.type	xTaskGetTickCount, %function
 1960              	xTaskGetTickCount:
 1961              	.LFB15:
1673:FreeRTOS/tasks.c **** /*-----------------------------------------------------------*/
1674:FreeRTOS/tasks.c **** 
1675:FreeRTOS/tasks.c **** TickT_t xTaskGetTickCount( void )
1676:FreeRTOS/tasks.c **** {
 1962              		.loc 1 1676 0
 1963              		.cfi_startproc
 1964              		@ args = 0, pretend = 0, frame = 8
 1965              		@ frame_needed = 1, uses_anonymous_args = 0
 1966 0000 80B5     		push	{r7, lr}	@
 1967              		.cfi_def_cfa_offset 8
 1968              		.cfi_offset 7, -8
 1969              		.cfi_offset 14, -4
 1970 0002 82B0     		sub	sp, sp, #8	@,,
 1971              		.cfi_def_cfa_offset 16
 1972 0004 00AF     		add	r7, sp, #0	@,,
 1973              		.cfi_def_cfa_register 7
1677:FreeRTOS/tasks.c **** TickT_t xTicks;
1678:FreeRTOS/tasks.c **** 
1679:FreeRTOS/tasks.c **** 	/* Critical section required if running on a 16 bit processor. */
1680:FreeRTOS/tasks.c **** 	taskENTER_CRITICAL();
 1974              		.loc 1 1680 0
 1975 0006 FFF7FEFF 		bl	vPortEnterCritical	@
1681:FreeRTOS/tasks.c **** 	{
1682:FreeRTOS/tasks.c **** 		xTicks = xTickCount;
 1976              		.loc 1 1682 0
 1977 000a 054B     		ldr	r3, .L151	@ tmp112,
 1978 000c 1B68     		ldr	r3, [r3]	@ tmp113, xTickCount
 1979 000e 7B60     		str	r3, [r7, #4]	@ tmp113, xTicks
1683:FreeRTOS/tasks.c **** 	}
1684:FreeRTOS/tasks.c **** 	taskEXIT_CRITICAL();
 1980              		.loc 1 1684 0
 1981 0010 FFF7FEFF 		bl	vPortExitCritical	@
ARM GAS  C:\Users\STUDENT\AppData\Local\Temp\ccRbxq9b.s 			page 66


1685:FreeRTOS/tasks.c **** 
1686:FreeRTOS/tasks.c **** 	return xTicks;
 1982              		.loc 1 1686 0
 1983 0014 7B68     		ldr	r3, [r7, #4]	@ D.6615, xTicks
1687:FreeRTOS/tasks.c **** }
 1984              		.loc 1 1687 0
 1985 0016 1846     		mov	r0, r3	@, <retval>
 1986 0018 0837     		adds	r7, r7, #8	@,,
 1987              		.cfi_def_cfa_offset 8
 1988 001a BD46     		mov	sp, r7	@,
 1989              		.cfi_def_cfa_register 13
 1990              		@ sp needed	@
 1991 001c 80BD     		pop	{r7, pc}	@
 1992              	.L152:
 1993 001e 00BF     		.align	2
 1994              	.L151:
 1995 0020 00000000 		.word	xTickCount
 1996              		.cfi_endproc
 1997              	.LFE15:
 1998              		.size	xTaskGetTickCount, .-xTaskGetTickCount
 1999              		.section	.text.xTaskGetTickCountFromISR,"ax",%progbits
 2000              		.align	2
 2001              		.global	xTaskGetTickCountFromISR
 2002              		.thumb
 2003              		.thumb_func
 2004              		.type	xTaskGetTickCountFromISR, %function
 2005              	xTaskGetTickCountFromISR:
 2006              	.LFB16:
1688:FreeRTOS/tasks.c **** /*-----------------------------------------------------------*/
1689:FreeRTOS/tasks.c **** 
1690:FreeRTOS/tasks.c **** TickT_t xTaskGetTickCountFromISR( void )
1691:FreeRTOS/tasks.c **** {
 2007              		.loc 1 1691 0
 2008              		.cfi_startproc
 2009              		@ args = 0, pretend = 0, frame = 8
 2010              		@ frame_needed = 1, uses_anonymous_args = 0
 2011 0000 80B5     		push	{r7, lr}	@
 2012              		.cfi_def_cfa_offset 8
 2013              		.cfi_offset 7, -8
 2014              		.cfi_offset 14, -4
 2015 0002 82B0     		sub	sp, sp, #8	@,,
 2016              		.cfi_def_cfa_offset 16
 2017 0004 00AF     		add	r7, sp, #0	@,,
 2018              		.cfi_def_cfa_register 7
1692:FreeRTOS/tasks.c **** TickT_t xReturn;
1693:FreeRTOS/tasks.c **** UBaseT_t uxSavedInterruptStatus;
1694:FreeRTOS/tasks.c **** 
1695:FreeRTOS/tasks.c **** 	/* RTOS ports that support interrupt nesting have the concept of a maximum
1696:FreeRTOS/tasks.c **** 	system call (or maximum API call) interrupt priority.  Interrupts that are
1697:FreeRTOS/tasks.c **** 	above the maximum system call priority are kept permanently enabled, even
1698:FreeRTOS/tasks.c **** 	when the RTOS kernel is in a critical section, but cannot make any calls to
1699:FreeRTOS/tasks.c **** 	FreeRTOS API functions.  If configASSERT() is defined in FreeRTOSConfig.h
1700:FreeRTOS/tasks.c **** 	then portASSERT_IF_INTERRUPT_PRIORITY_INVALID() will result in an assertion
1701:FreeRTOS/tasks.c **** 	failure if a FreeRTOS API function is called from an interrupt that has been
1702:FreeRTOS/tasks.c **** 	assigned a priority above the configured maximum system call priority.
1703:FreeRTOS/tasks.c **** 	Only FreeRTOS functions that end in FromISR can be called from interrupts
1704:FreeRTOS/tasks.c **** 	that have been assigned a priority at or (logically) below the maximum
ARM GAS  C:\Users\STUDENT\AppData\Local\Temp\ccRbxq9b.s 			page 67


1705:FreeRTOS/tasks.c **** 	system call	interrupt priority.  FreeRTOS maintains a separate interrupt
1706:FreeRTOS/tasks.c **** 	safe API to ensure interrupt entry is as fast and as simple as possible.
1707:FreeRTOS/tasks.c **** 	More information (albeit Cortex-M specific) is provided on the following
1708:FreeRTOS/tasks.c **** 	link: http://www.freertos.org/RTOS-Cortex-M3-M4.html */
1709:FreeRTOS/tasks.c **** 	portASSERT_IF_INTERRUPT_PRIORITY_INVALID();
 2019              		.loc 1 1709 0
 2020 0006 FFF7FEFF 		bl	vPortValidateInterruptPriority	@
1710:FreeRTOS/tasks.c **** 
1711:FreeRTOS/tasks.c **** 	uxSavedInterruptStatus = portSET_INTERRUPT_MASK_FROM_ISR();
 2021              		.loc 1 1711 0
 2022 000a FFF7FEFF 		bl	ulPortSetInterruptMask	@
 2023 000e 7860     		str	r0, [r7, #4]	@, uxSavedInterruptStatus
1712:FreeRTOS/tasks.c **** 	{
1713:FreeRTOS/tasks.c **** 		xReturn = xTickCount;
 2024              		.loc 1 1713 0
 2025 0010 054B     		ldr	r3, .L155	@ tmp112,
 2026 0012 1B68     		ldr	r3, [r3]	@ tmp113, xTickCount
 2027 0014 3B60     		str	r3, [r7]	@ tmp113, xReturn
1714:FreeRTOS/tasks.c **** 	}
1715:FreeRTOS/tasks.c **** 	portCLEAR_INTERRUPT_MASK_FROM_ISR( uxSavedInterruptStatus );
 2028              		.loc 1 1715 0
 2029 0016 7868     		ldr	r0, [r7, #4]	@, uxSavedInterruptStatus
 2030 0018 FFF7FEFF 		bl	vPortClearInterruptMask	@
1716:FreeRTOS/tasks.c **** 
1717:FreeRTOS/tasks.c **** 	return xReturn;
 2031              		.loc 1 1717 0
 2032 001c 3B68     		ldr	r3, [r7]	@ D.6616, xReturn
1718:FreeRTOS/tasks.c **** }
 2033              		.loc 1 1718 0
 2034 001e 1846     		mov	r0, r3	@, <retval>
 2035 0020 0837     		adds	r7, r7, #8	@,,
 2036              		.cfi_def_cfa_offset 8
 2037 0022 BD46     		mov	sp, r7	@,
 2038              		.cfi_def_cfa_register 13
 2039              		@ sp needed	@
 2040 0024 80BD     		pop	{r7, pc}	@
 2041              	.L156:
 2042 0026 00BF     		.align	2
 2043              	.L155:
 2044 0028 00000000 		.word	xTickCount
 2045              		.cfi_endproc
 2046              	.LFE16:
 2047              		.size	xTaskGetTickCountFromISR, .-xTaskGetTickCountFromISR
 2048              		.section	.text.uxTaskGetNumberOfTasks,"ax",%progbits
 2049              		.align	2
 2050              		.global	uxTaskGetNumberOfTasks
 2051              		.thumb
 2052              		.thumb_func
 2053              		.type	uxTaskGetNumberOfTasks, %function
 2054              	uxTaskGetNumberOfTasks:
 2055              	.LFB17:
1719:FreeRTOS/tasks.c **** /*-----------------------------------------------------------*/
1720:FreeRTOS/tasks.c **** 
1721:FreeRTOS/tasks.c **** UBaseT_t uxTaskGetNumberOfTasks( void )
1722:FreeRTOS/tasks.c **** {
 2056              		.loc 1 1722 0
 2057              		.cfi_startproc
ARM GAS  C:\Users\STUDENT\AppData\Local\Temp\ccRbxq9b.s 			page 68


 2058              		@ args = 0, pretend = 0, frame = 0
 2059              		@ frame_needed = 1, uses_anonymous_args = 0
 2060              		@ link register save eliminated.
 2061 0000 80B4     		push	{r7}	@
 2062              		.cfi_def_cfa_offset 4
 2063              		.cfi_offset 7, -4
 2064 0002 00AF     		add	r7, sp, #0	@,,
 2065              		.cfi_def_cfa_register 7
1723:FreeRTOS/tasks.c **** 	/* A critical section is not required because the variables are of type
1724:FreeRTOS/tasks.c **** 	BaseT_t. */
1725:FreeRTOS/tasks.c **** 	return uxCurrentNumberOfTasks;
 2066              		.loc 1 1725 0
 2067 0004 024B     		ldr	r3, .L159	@ tmp112,
 2068 0006 1B68     		ldr	r3, [r3]	@ D.6617, uxCurrentNumberOfTasks
1726:FreeRTOS/tasks.c **** }
 2069              		.loc 1 1726 0
 2070 0008 1846     		mov	r0, r3	@, <retval>
 2071 000a BD46     		mov	sp, r7	@,
 2072              		.cfi_def_cfa_register 13
 2073              		@ sp needed	@
 2074 000c 80BC     		pop	{r7}	@
 2075              		.cfi_restore 7
 2076              		.cfi_def_cfa_offset 0
 2077 000e 7047     		bx	lr	@
 2078              	.L160:
 2079              		.align	2
 2080              	.L159:
 2081 0010 00000000 		.word	uxCurrentNumberOfTasks
 2082              		.cfi_endproc
 2083              	.LFE17:
 2084              		.size	uxTaskGetNumberOfTasks, .-uxTaskGetNumberOfTasks
 2085              		.section	.text.uxTaskGetSystemState,"ax",%progbits
 2086              		.align	2
 2087              		.global	uxTaskGetSystemState
 2088              		.thumb
 2089              		.thumb_func
 2090              		.type	uxTaskGetSystemState, %function
 2091              	uxTaskGetSystemState:
 2092              	.LFB18:
1727:FreeRTOS/tasks.c **** /*-----------------------------------------------------------*/
1728:FreeRTOS/tasks.c **** 
1729:FreeRTOS/tasks.c **** #if ( INCLUDE_pcTaskGetTaskName == 1 )
1730:FreeRTOS/tasks.c **** 
1731:FreeRTOS/tasks.c **** 	char *pcTaskGetTaskName( TaskHandle_t xTaskToQuery ) /*lint !e971 Unqualified char types are allow
1732:FreeRTOS/tasks.c **** 	{
1733:FreeRTOS/tasks.c **** 	TCB_t *pxTCB;
1734:FreeRTOS/tasks.c **** 
1735:FreeRTOS/tasks.c **** 		/* If null is passed in here then the name of the calling task is being queried. */
1736:FreeRTOS/tasks.c **** 		pxTCB = prvGetTCBFromHandle( xTaskToQuery );
1737:FreeRTOS/tasks.c **** 		configASSERT( pxTCB );
1738:FreeRTOS/tasks.c **** 		return &( pxTCB->pcTaskName[ 0 ] );
1739:FreeRTOS/tasks.c **** 	}
1740:FreeRTOS/tasks.c **** 
1741:FreeRTOS/tasks.c **** #endif /* INCLUDE_pcTaskGetTaskName */
1742:FreeRTOS/tasks.c **** /*-----------------------------------------------------------*/
1743:FreeRTOS/tasks.c **** 
1744:FreeRTOS/tasks.c **** #if ( configUSE_TRACE_FACILITY == 1 )
ARM GAS  C:\Users\STUDENT\AppData\Local\Temp\ccRbxq9b.s 			page 69


1745:FreeRTOS/tasks.c **** 
1746:FreeRTOS/tasks.c **** 	UBaseT_t uxTaskGetSystemState( TaskStatus_t * const pxTaskStatusArray, const UBaseT_t uxArraySize,
1747:FreeRTOS/tasks.c **** 	{
 2093              		.loc 1 1747 0
 2094              		.cfi_startproc
 2095              		@ args = 0, pretend = 0, frame = 24
 2096              		@ frame_needed = 1, uses_anonymous_args = 0
 2097 0000 80B5     		push	{r7, lr}	@
 2098              		.cfi_def_cfa_offset 8
 2099              		.cfi_offset 7, -8
 2100              		.cfi_offset 14, -4
 2101 0002 86B0     		sub	sp, sp, #24	@,,
 2102              		.cfi_def_cfa_offset 32
 2103 0004 00AF     		add	r7, sp, #0	@,,
 2104              		.cfi_def_cfa_register 7
 2105 0006 F860     		str	r0, [r7, #12]	@ pxTaskStatusArray, pxTaskStatusArray
 2106 0008 B960     		str	r1, [r7, #8]	@ uxArraySize, uxArraySize
 2107 000a 7A60     		str	r2, [r7, #4]	@ pulTotalRunTime, pulTotalRunTime
1748:FreeRTOS/tasks.c **** 	UBaseT_t uxTask = 0, uxQueue = configMAX_PRIORITIES;
 2108              		.loc 1 1748 0
 2109 000c 0023     		movs	r3, #0	@ tmp131,
 2110 000e 7B61     		str	r3, [r7, #20]	@ tmp131, uxTask
 2111 0010 0823     		movs	r3, #8	@ tmp132,
 2112 0012 3B61     		str	r3, [r7, #16]	@ tmp132, uxQueue
1749:FreeRTOS/tasks.c **** 
1750:FreeRTOS/tasks.c **** 		vTaskSuspendAll();
 2113              		.loc 1 1750 0
 2114 0014 FFF7FEFF 		bl	vTaskSuspendAll	@
1751:FreeRTOS/tasks.c **** 		{
1752:FreeRTOS/tasks.c **** 			/* Is there a space in the array for each task in the system? */
1753:FreeRTOS/tasks.c **** 			if( uxArraySize >= uxCurrentNumberOfTasks )
 2115              		.loc 1 1753 0
 2116 0018 304B     		ldr	r3, .L166	@ tmp133,
 2117 001a 1B68     		ldr	r3, [r3]	@ D.6618, uxCurrentNumberOfTasks
 2118 001c BA68     		ldr	r2, [r7, #8]	@ tmp134, uxArraySize
 2119 001e 9A42     		cmp	r2, r3	@ tmp134, D.6618
 2120 0020 54D3     		bcc	.L162	@,
 2121              	.L163:
1754:FreeRTOS/tasks.c **** 			{
1755:FreeRTOS/tasks.c **** 				/* Fill in an TaskStatus_t structure with information on each
1756:FreeRTOS/tasks.c **** 				task in the Ready state. */
1757:FreeRTOS/tasks.c **** 				do
1758:FreeRTOS/tasks.c **** 				{
1759:FreeRTOS/tasks.c **** 					uxQueue--;
 2122              		.loc 1 1759 0 discriminator 1
 2123 0022 3B69     		ldr	r3, [r7, #16]	@ tmp136, uxQueue
 2124 0024 013B     		subs	r3, r3, #1	@ tmp135, tmp136,
 2125 0026 3B61     		str	r3, [r7, #16]	@ tmp135, uxQueue
1760:FreeRTOS/tasks.c **** 					uxTask += prvListTaskWithinSingleList( &( pxTaskStatusArray[ uxTask ] ), &( pxReadyTasksLists[
 2126              		.loc 1 1760 0 discriminator 1
 2127 0028 7B69     		ldr	r3, [r7, #20]	@ tmp137, uxTask
 2128 002a 5B01     		lsls	r3, r3, #5	@ D.6618, tmp137,
 2129 002c FA68     		ldr	r2, [r7, #12]	@ tmp138, pxTaskStatusArray
 2130 002e D018     		adds	r0, r2, r3	@ D.6619, tmp138, D.6618
 2131 0030 3A69     		ldr	r2, [r7, #16]	@ tmp139, uxQueue
 2132 0032 1346     		mov	r3, r2	@ tmp140, tmp139
 2133 0034 9B00     		lsls	r3, r3, #2	@ tmp140, tmp140,
ARM GAS  C:\Users\STUDENT\AppData\Local\Temp\ccRbxq9b.s 			page 70


 2134 0036 1344     		add	r3, r3, r2	@ tmp140, tmp139
 2135 0038 9B00     		lsls	r3, r3, #2	@ tmp141, tmp140,
 2136 003a 294A     		ldr	r2, .L166+4	@ tmp142,
 2137 003c 1344     		add	r3, r3, r2	@ D.6620, tmp142
 2138 003e 0122     		movs	r2, #1	@,
 2139 0040 1946     		mov	r1, r3	@, D.6620
 2140 0042 FFF7FEFF 		bl	prvListTaskWithinSingleList	@
 2141 0046 0246     		mov	r2, r0	@ D.6618,
 2142 0048 7B69     		ldr	r3, [r7, #20]	@ tmp144, uxTask
 2143 004a 1344     		add	r3, r3, r2	@ tmp143, D.6618
 2144 004c 7B61     		str	r3, [r7, #20]	@ tmp143, uxTask
1761:FreeRTOS/tasks.c **** 
1762:FreeRTOS/tasks.c **** 				} while( uxQueue > ( UBaseT_t ) tskIDLE_PRIORITY ); /*lint !e961 MISRA exception as the casts a
 2145              		.loc 1 1762 0 discriminator 1
 2146 004e 3B69     		ldr	r3, [r7, #16]	@ tmp145, uxQueue
 2147 0050 002B     		cmp	r3, #0	@ tmp145,
 2148 0052 E6D1     		bne	.L163	@,
1763:FreeRTOS/tasks.c **** 
1764:FreeRTOS/tasks.c **** 				/* Fill in an TaskStatus_t structure with information on each
1765:FreeRTOS/tasks.c **** 				task in the Blocked state. */
1766:FreeRTOS/tasks.c **** 				uxTask += prvListTaskWithinSingleList( &( pxTaskStatusArray[ uxTask ] ), ( List_t * ) pxDelayed
 2149              		.loc 1 1766 0
 2150 0054 7B69     		ldr	r3, [r7, #20]	@ tmp146, uxTask
 2151 0056 5B01     		lsls	r3, r3, #5	@ D.6618, tmp146,
 2152 0058 FA68     		ldr	r2, [r7, #12]	@ tmp147, pxTaskStatusArray
 2153 005a D018     		adds	r0, r2, r3	@ D.6619, tmp147, D.6618
 2154 005c 214B     		ldr	r3, .L166+8	@ tmp148,
 2155 005e 1B68     		ldr	r3, [r3]	@ D.6620, pxDelayedTaskList
 2156 0060 0222     		movs	r2, #2	@,
 2157 0062 1946     		mov	r1, r3	@, D.6620
 2158 0064 FFF7FEFF 		bl	prvListTaskWithinSingleList	@
 2159 0068 0246     		mov	r2, r0	@ D.6618,
 2160 006a 7B69     		ldr	r3, [r7, #20]	@ tmp150, uxTask
 2161 006c 1344     		add	r3, r3, r2	@ tmp149, D.6618
 2162 006e 7B61     		str	r3, [r7, #20]	@ tmp149, uxTask
1767:FreeRTOS/tasks.c **** 				uxTask += prvListTaskWithinSingleList( &( pxTaskStatusArray[ uxTask ] ), ( List_t * ) pxOverflo
 2163              		.loc 1 1767 0
 2164 0070 7B69     		ldr	r3, [r7, #20]	@ tmp151, uxTask
 2165 0072 5B01     		lsls	r3, r3, #5	@ D.6618, tmp151,
 2166 0074 FA68     		ldr	r2, [r7, #12]	@ tmp152, pxTaskStatusArray
 2167 0076 D018     		adds	r0, r2, r3	@ D.6619, tmp152, D.6618
 2168 0078 1B4B     		ldr	r3, .L166+12	@ tmp153,
 2169 007a 1B68     		ldr	r3, [r3]	@ D.6620, pxOverflowDelayedTaskList
 2170 007c 0222     		movs	r2, #2	@,
 2171 007e 1946     		mov	r1, r3	@, D.6620
 2172 0080 FFF7FEFF 		bl	prvListTaskWithinSingleList	@
 2173 0084 0246     		mov	r2, r0	@ D.6618,
 2174 0086 7B69     		ldr	r3, [r7, #20]	@ tmp155, uxTask
 2175 0088 1344     		add	r3, r3, r2	@ tmp154, D.6618
 2176 008a 7B61     		str	r3, [r7, #20]	@ tmp154, uxTask
1768:FreeRTOS/tasks.c **** 
1769:FreeRTOS/tasks.c **** 				#if( INCLUDE_vTaskDelete == 1 )
1770:FreeRTOS/tasks.c **** 				{
1771:FreeRTOS/tasks.c **** 					/* Fill in an TaskStatus_t structure with information on
1772:FreeRTOS/tasks.c **** 					each task that has been deleted but not yet cleaned up. */
1773:FreeRTOS/tasks.c **** 					uxTask += prvListTaskWithinSingleList( &( pxTaskStatusArray[ uxTask ] ), &xTasksWaitingTermina
 2177              		.loc 1 1773 0
ARM GAS  C:\Users\STUDENT\AppData\Local\Temp\ccRbxq9b.s 			page 71


 2178 008c 7B69     		ldr	r3, [r7, #20]	@ tmp156, uxTask
 2179 008e 5B01     		lsls	r3, r3, #5	@ D.6618, tmp156,
 2180 0090 FA68     		ldr	r2, [r7, #12]	@ tmp157, pxTaskStatusArray
 2181 0092 1344     		add	r3, r3, r2	@ D.6619, tmp157
 2182 0094 0422     		movs	r2, #4	@,
 2183 0096 1549     		ldr	r1, .L166+16	@,
 2184 0098 1846     		mov	r0, r3	@, D.6619
 2185 009a FFF7FEFF 		bl	prvListTaskWithinSingleList	@
 2186 009e 0246     		mov	r2, r0	@ D.6618,
 2187 00a0 7B69     		ldr	r3, [r7, #20]	@ tmp159, uxTask
 2188 00a2 1344     		add	r3, r3, r2	@ tmp158, D.6618
 2189 00a4 7B61     		str	r3, [r7, #20]	@ tmp158, uxTask
1774:FreeRTOS/tasks.c **** 				}
1775:FreeRTOS/tasks.c **** 				#endif
1776:FreeRTOS/tasks.c **** 
1777:FreeRTOS/tasks.c **** 				#if ( INCLUDE_vTaskSuspend == 1 )
1778:FreeRTOS/tasks.c **** 				{
1779:FreeRTOS/tasks.c **** 					/* Fill in an TaskStatus_t structure with information on
1780:FreeRTOS/tasks.c **** 					each task in the Suspended state. */
1781:FreeRTOS/tasks.c **** 					uxTask += prvListTaskWithinSingleList( &( pxTaskStatusArray[ uxTask ] ), &xSuspendedTaskList, 
 2190              		.loc 1 1781 0
 2191 00a6 7B69     		ldr	r3, [r7, #20]	@ tmp160, uxTask
 2192 00a8 5B01     		lsls	r3, r3, #5	@ D.6618, tmp160,
 2193 00aa FA68     		ldr	r2, [r7, #12]	@ tmp161, pxTaskStatusArray
 2194 00ac 1344     		add	r3, r3, r2	@ D.6619, tmp161
 2195 00ae 0322     		movs	r2, #3	@,
 2196 00b0 0F49     		ldr	r1, .L166+20	@,
 2197 00b2 1846     		mov	r0, r3	@, D.6619
 2198 00b4 FFF7FEFF 		bl	prvListTaskWithinSingleList	@
 2199 00b8 0246     		mov	r2, r0	@ D.6618,
 2200 00ba 7B69     		ldr	r3, [r7, #20]	@ tmp163, uxTask
 2201 00bc 1344     		add	r3, r3, r2	@ tmp162, D.6618
 2202 00be 7B61     		str	r3, [r7, #20]	@ tmp162, uxTask
1782:FreeRTOS/tasks.c **** 				}
1783:FreeRTOS/tasks.c **** 				#endif
1784:FreeRTOS/tasks.c **** 
1785:FreeRTOS/tasks.c **** 				#if ( configGENERATE_RUN_TIME_STATS == 1)
1786:FreeRTOS/tasks.c **** 				{
1787:FreeRTOS/tasks.c **** 					if( pulTotalRunTime != NULL )
1788:FreeRTOS/tasks.c **** 					{
1789:FreeRTOS/tasks.c **** 						#ifdef portALT_GET_RUN_TIME_COUNTER_VALUE
1790:FreeRTOS/tasks.c **** 							portALT_GET_RUN_TIME_COUNTER_VALUE( ( *pulTotalRunTime ) );
1791:FreeRTOS/tasks.c **** 						#else
1792:FreeRTOS/tasks.c **** 							*pulTotalRunTime = portGET_RUN_TIME_COUNTER_VALUE();
1793:FreeRTOS/tasks.c **** 						#endif
1794:FreeRTOS/tasks.c **** 					}
1795:FreeRTOS/tasks.c **** 				}
1796:FreeRTOS/tasks.c **** 				#else
1797:FreeRTOS/tasks.c **** 				{
1798:FreeRTOS/tasks.c **** 					if( pulTotalRunTime != NULL )
 2203              		.loc 1 1798 0
 2204 00c0 7B68     		ldr	r3, [r7, #4]	@ tmp164, pulTotalRunTime
 2205 00c2 002B     		cmp	r3, #0	@ tmp164,
 2206 00c4 02D0     		beq	.L162	@,
1799:FreeRTOS/tasks.c **** 					{
1800:FreeRTOS/tasks.c **** 						*pulTotalRunTime = 0;
 2207              		.loc 1 1800 0
ARM GAS  C:\Users\STUDENT\AppData\Local\Temp\ccRbxq9b.s 			page 72


 2208 00c6 7B68     		ldr	r3, [r7, #4]	@ tmp165, pulTotalRunTime
 2209 00c8 0022     		movs	r2, #0	@ tmp166,
 2210 00ca 1A60     		str	r2, [r3]	@ tmp166, *pulTotalRunTime_43(D)
 2211              	.L162:
1801:FreeRTOS/tasks.c **** 					}
1802:FreeRTOS/tasks.c **** 				}
1803:FreeRTOS/tasks.c **** 				#endif
1804:FreeRTOS/tasks.c **** 			}
1805:FreeRTOS/tasks.c **** 			else
1806:FreeRTOS/tasks.c **** 			{
1807:FreeRTOS/tasks.c **** 				mtCOVERAGE_TEST_MARKER();
1808:FreeRTOS/tasks.c **** 			}
1809:FreeRTOS/tasks.c **** 		}
1810:FreeRTOS/tasks.c **** 		( void ) xTaskResumeAll();
 2212              		.loc 1 1810 0
 2213 00cc FFF7FEFF 		bl	xTaskResumeAll	@
1811:FreeRTOS/tasks.c **** 
1812:FreeRTOS/tasks.c **** 		return uxTask;
 2214              		.loc 1 1812 0
 2215 00d0 7B69     		ldr	r3, [r7, #20]	@ D.6621, uxTask
1813:FreeRTOS/tasks.c **** 	}
 2216              		.loc 1 1813 0
 2217 00d2 1846     		mov	r0, r3	@, <retval>
 2218 00d4 1837     		adds	r7, r7, #24	@,,
 2219              		.cfi_def_cfa_offset 8
 2220 00d6 BD46     		mov	sp, r7	@,
 2221              		.cfi_def_cfa_register 13
 2222              		@ sp needed	@
 2223 00d8 80BD     		pop	{r7, pc}	@
 2224              	.L167:
 2225 00da 00BF     		.align	2
 2226              	.L166:
 2227 00dc 00000000 		.word	uxCurrentNumberOfTasks
 2228 00e0 00000000 		.word	pxReadyTasksLists
 2229 00e4 00000000 		.word	pxDelayedTaskList
 2230 00e8 00000000 		.word	pxOverflowDelayedTaskList
 2231 00ec 00000000 		.word	xTasksWaitingTermination
 2232 00f0 00000000 		.word	xSuspendedTaskList
 2233              		.cfi_endproc
 2234              	.LFE18:
 2235              		.size	uxTaskGetSystemState, .-uxTaskGetSystemState
 2236              		.section	.text.xTaskIncrementTick,"ax",%progbits
 2237              		.align	2
 2238              		.global	xTaskIncrementTick
 2239              		.thumb
 2240              		.thumb_func
 2241              		.type	xTaskIncrementTick, %function
 2242              	xTaskIncrementTick:
 2243              	.LFB19:
1814:FreeRTOS/tasks.c **** 
1815:FreeRTOS/tasks.c **** #endif /* configUSE_TRACE_FACILITY */
1816:FreeRTOS/tasks.c **** /*----------------------------------------------------------*/
1817:FreeRTOS/tasks.c **** 
1818:FreeRTOS/tasks.c **** #if ( INCLUDE_xTaskGetIdleTaskHandle == 1 )
1819:FreeRTOS/tasks.c **** 
1820:FreeRTOS/tasks.c **** 	TaskHandle_t xTaskGetIdleTaskHandle( void )
1821:FreeRTOS/tasks.c **** 	{
ARM GAS  C:\Users\STUDENT\AppData\Local\Temp\ccRbxq9b.s 			page 73


1822:FreeRTOS/tasks.c **** 		/* If xTaskGetIdleTaskHandle() is called before the scheduler has been
1823:FreeRTOS/tasks.c **** 		started, then xIdleTaskHandle will be NULL. */
1824:FreeRTOS/tasks.c **** 		configASSERT( ( xIdleTaskHandle != NULL ) );
1825:FreeRTOS/tasks.c **** 		return xIdleTaskHandle;
1826:FreeRTOS/tasks.c **** 	}
1827:FreeRTOS/tasks.c **** 
1828:FreeRTOS/tasks.c **** #endif /* INCLUDE_xTaskGetIdleTaskHandle */
1829:FreeRTOS/tasks.c **** /*----------------------------------------------------------*/
1830:FreeRTOS/tasks.c **** 
1831:FreeRTOS/tasks.c **** /* This conditional compilation should use inequality to 0, not equality to 1.
1832:FreeRTOS/tasks.c **** This is to ensure vTaskStepTick() is available when user defined low power mode
1833:FreeRTOS/tasks.c **** implementations require configUSE_TICKLESS_IDLE to be set to a value other than
1834:FreeRTOS/tasks.c **** 1. */
1835:FreeRTOS/tasks.c **** #if ( configUSE_TICKLESS_IDLE != 0 )
1836:FreeRTOS/tasks.c **** 
1837:FreeRTOS/tasks.c **** 	void vTaskStepTick( const TickT_t xTicksToJump )
1838:FreeRTOS/tasks.c **** 	{
1839:FreeRTOS/tasks.c **** 		/* Correct the tick count value after a period during which the tick
1840:FreeRTOS/tasks.c **** 		was suppressed.  Note this does *not* call the tick hook function for
1841:FreeRTOS/tasks.c **** 		each stepped tick. */
1842:FreeRTOS/tasks.c **** 		configASSERT( ( xTickCount + xTicksToJump ) <= xNextTaskUnblockTime );
1843:FreeRTOS/tasks.c **** 		xTickCount += xTicksToJump;
1844:FreeRTOS/tasks.c **** 		traceINCREASE_TICK_COUNT( xTicksToJump );
1845:FreeRTOS/tasks.c **** 	}
1846:FreeRTOS/tasks.c **** 
1847:FreeRTOS/tasks.c **** #endif /* configUSE_TICKLESS_IDLE */
1848:FreeRTOS/tasks.c **** /*----------------------------------------------------------*/
1849:FreeRTOS/tasks.c **** 
1850:FreeRTOS/tasks.c **** BaseT_t xTaskIncrementTick( void )
1851:FreeRTOS/tasks.c **** {
 2244              		.loc 1 1851 0
 2245              		.cfi_startproc
 2246              		@ args = 0, pretend = 0, frame = 24
 2247              		@ frame_needed = 1, uses_anonymous_args = 0
 2248 0000 80B5     		push	{r7, lr}	@
 2249              		.cfi_def_cfa_offset 8
 2250              		.cfi_offset 7, -8
 2251              		.cfi_offset 14, -4
 2252 0002 86B0     		sub	sp, sp, #24	@,,
 2253              		.cfi_def_cfa_offset 32
 2254 0004 00AF     		add	r7, sp, #0	@,,
 2255              		.cfi_def_cfa_register 7
1852:FreeRTOS/tasks.c **** TCB_t * pxTCB;
1853:FreeRTOS/tasks.c **** TickT_t xItemValue;
1854:FreeRTOS/tasks.c **** BaseT_t xSwitchRequired = pdFALSE;
 2256              		.loc 1 1854 0
 2257 0006 0023     		movs	r3, #0	@ tmp146,
 2258 0008 7B61     		str	r3, [r7, #20]	@ tmp146, xSwitchRequired
1855:FreeRTOS/tasks.c **** 
1856:FreeRTOS/tasks.c **** 	/* Called by the portable layer each time a tick interrupt occurs.
1857:FreeRTOS/tasks.c **** 	Increments the tick then checks to see if the new tick value will cause any
1858:FreeRTOS/tasks.c **** 	tasks to be unblocked. */
1859:FreeRTOS/tasks.c **** 	traceTASK_INCREMENT_TICK( xTickCount );
1860:FreeRTOS/tasks.c **** 	if( uxSchedulerSuspended == ( UBaseT_t ) pdFALSE )
 2259              		.loc 1 1860 0
 2260 000a 514B     		ldr	r3, .L185	@ tmp147,
 2261 000c 1B68     		ldr	r3, [r3]	@ D.6623, uxSchedulerSuspended
ARM GAS  C:\Users\STUDENT\AppData\Local\Temp\ccRbxq9b.s 			page 74


 2262 000e 002B     		cmp	r3, #0	@ D.6623,
 2263 0010 40F08C80 		bne	.L169	@,
1861:FreeRTOS/tasks.c **** 	{
1862:FreeRTOS/tasks.c **** 		/* Increment the RTOS tick, switching the delayed and overflowed
1863:FreeRTOS/tasks.c **** 		delayed lists if it wraps to 0. */
1864:FreeRTOS/tasks.c **** 		++xTickCount;
 2264              		.loc 1 1864 0
 2265 0014 4F4B     		ldr	r3, .L185+4	@ tmp148,
 2266 0016 1B68     		ldr	r3, [r3]	@ D.6623, xTickCount
 2267 0018 0133     		adds	r3, r3, #1	@ D.6623, D.6623,
 2268 001a 4E4A     		ldr	r2, .L185+4	@ tmp149,
 2269 001c 1360     		str	r3, [r2]	@ D.6623, xTickCount
 2270              	.LBB8:
1865:FreeRTOS/tasks.c **** 
1866:FreeRTOS/tasks.c **** 		{
1867:FreeRTOS/tasks.c **** 			/* Minor optimisation.  The tick count cannot change in this
1868:FreeRTOS/tasks.c **** 			block. */
1869:FreeRTOS/tasks.c **** 			const TickT_t xConstTickCount = xTickCount;
 2271              		.loc 1 1869 0
 2272 001e 4D4B     		ldr	r3, .L185+4	@ tmp150,
 2273 0020 1B68     		ldr	r3, [r3]	@ tmp151, xTickCount
 2274 0022 3B61     		str	r3, [r7, #16]	@ tmp151, xConstTickCount
1870:FreeRTOS/tasks.c **** 
1871:FreeRTOS/tasks.c **** 			if( xConstTickCount == ( TickT_t ) 0U )
 2275              		.loc 1 1871 0
 2276 0024 3B69     		ldr	r3, [r7, #16]	@ tmp152, xConstTickCount
 2277 0026 002B     		cmp	r3, #0	@ tmp152,
 2278 0028 18D1     		bne	.L170	@,
 2279              	.LBB9:
1872:FreeRTOS/tasks.c **** 			{
1873:FreeRTOS/tasks.c **** 				taskSWITCH_DELAYED_LISTS();
 2280              		.loc 1 1873 0
 2281 002a 4B4B     		ldr	r3, .L185+8	@ tmp153,
 2282 002c 1B68     		ldr	r3, [r3]	@ D.6624, pxDelayedTaskList
 2283 002e 1B68     		ldr	r3, [r3]	@ D.6623, _20->uxNumberOfItems
 2284 0030 002B     		cmp	r3, #0	@ D.6623,
 2285 0032 02D0     		beq	.L171	@,
 2286              		.loc 1 1873 0 is_stmt 0 discriminator 1
 2287 0034 FFF7FEFF 		bl	ulPortSetInterruptMask	@
 2288              	.L172:
 2289 0038 FEE7     		b	.L172	@
 2290              	.L171:
 2291              		.loc 1 1873 0 discriminator 2
 2292 003a 474B     		ldr	r3, .L185+8	@ tmp154,
 2293 003c 1B68     		ldr	r3, [r3]	@ tmp155, pxDelayedTaskList
 2294 003e FB60     		str	r3, [r7, #12]	@ tmp155, pxTemp
 2295 0040 464B     		ldr	r3, .L185+12	@ tmp156,
 2296 0042 1B68     		ldr	r3, [r3]	@ D.6624, pxOverflowDelayedTaskList
 2297 0044 444A     		ldr	r2, .L185+8	@ tmp157,
 2298 0046 1360     		str	r3, [r2]	@ D.6624, pxDelayedTaskList
 2299 0048 444A     		ldr	r2, .L185+12	@ tmp158,
 2300 004a FB68     		ldr	r3, [r7, #12]	@ tmp159, pxTemp
 2301 004c 1360     		str	r3, [r2]	@ tmp159, pxOverflowDelayedTaskList
 2302 004e 444B     		ldr	r3, .L185+16	@ tmp160,
 2303 0050 1B68     		ldr	r3, [r3]	@ D.6625, xNumOfOverflows
 2304 0052 0133     		adds	r3, r3, #1	@ D.6625, D.6625,
 2305 0054 424A     		ldr	r2, .L185+16	@ tmp161,
ARM GAS  C:\Users\STUDENT\AppData\Local\Temp\ccRbxq9b.s 			page 75


 2306 0056 1360     		str	r3, [r2]	@ D.6625, xNumOfOverflows
 2307 0058 FFF7FEFF 		bl	prvResetNextTaskUnblockTime	@
 2308              	.L170:
 2309              	.LBE9:
1874:FreeRTOS/tasks.c **** 			}
1875:FreeRTOS/tasks.c **** 			else
1876:FreeRTOS/tasks.c **** 			{
1877:FreeRTOS/tasks.c **** 				mtCOVERAGE_TEST_MARKER();
1878:FreeRTOS/tasks.c **** 			}
1879:FreeRTOS/tasks.c **** 
1880:FreeRTOS/tasks.c **** 			/* See if this tick has made a timeout expire.  Tasks are stored in
1881:FreeRTOS/tasks.c **** 			the	queue in the order of their wake time - meaning once one task
1882:FreeRTOS/tasks.c **** 			has been found whose block time has not expired there is no need to
1883:FreeRTOS/tasks.c **** 			look any further	down the list. */
1884:FreeRTOS/tasks.c **** 			if( xConstTickCount >= xNextTaskUnblockTime )
 2310              		.loc 1 1884 0 is_stmt 1
 2311 005c 414B     		ldr	r3, .L185+20	@ tmp162,
 2312 005e 1B68     		ldr	r3, [r3]	@ D.6623, xNextTaskUnblockTime
 2313 0060 3A69     		ldr	r2, [r7, #16]	@ tmp163, xConstTickCount
 2314 0062 9A42     		cmp	r2, r3	@ tmp163, D.6623
 2315 0064 4DD3     		bcc	.L173	@,
 2316              	.L180:
1885:FreeRTOS/tasks.c **** 			{
1886:FreeRTOS/tasks.c **** 				for( ;; )
1887:FreeRTOS/tasks.c **** 				{
1888:FreeRTOS/tasks.c **** 					if( listLIST_IS_EMPTY( pxDelayedTaskList ) != pdFALSE )
 2317              		.loc 1 1888 0
 2318 0066 3C4B     		ldr	r3, .L185+8	@ tmp164,
 2319 0068 1B68     		ldr	r3, [r3]	@ D.6624, pxDelayedTaskList
 2320 006a 1B68     		ldr	r3, [r3]	@ D.6623, _32->uxNumberOfItems
 2321 006c 002B     		cmp	r3, #0	@ D.6623,
 2322 006e 01D1     		bne	.L174	@,
 2323              		.loc 1 1888 0 is_stmt 0 discriminator 1
 2324 0070 0123     		movs	r3, #1	@ D.6622,
 2325 0072 00E0     		b	.L175	@
 2326              	.L174:
 2327              		.loc 1 1888 0 discriminator 2
 2328 0074 0023     		movs	r3, #0	@ D.6622,
 2329              	.L175:
 2330              		.loc 1 1888 0 discriminator 4
 2331 0076 002B     		cmp	r3, #0	@ D.6622,
 2332 0078 04D0     		beq	.L176	@,
1889:FreeRTOS/tasks.c **** 					{
1890:FreeRTOS/tasks.c **** 						/* The delayed list is empty.  Set xNextTaskUnblockTime
1891:FreeRTOS/tasks.c **** 						to the maximum possible value so it is extremely
1892:FreeRTOS/tasks.c **** 						unlikely that the
1893:FreeRTOS/tasks.c **** 						if( xTickCount >= xNextTaskUnblockTime ) test will pass
1894:FreeRTOS/tasks.c **** 						next time through. */
1895:FreeRTOS/tasks.c **** 						xNextTaskUnblockTime = portMAX_DELAY;
 2333              		.loc 1 1895 0 is_stmt 1
 2334 007a 3A4B     		ldr	r3, .L185+20	@ tmp165,
 2335 007c 4FF0FF32 		mov	r2, #-1	@ tmp166,
 2336 0080 1A60     		str	r2, [r3]	@ tmp166, xNextTaskUnblockTime
1896:FreeRTOS/tasks.c **** 						break;
 2337              		.loc 1 1896 0
 2338 0082 3EE0     		b	.L173	@
 2339              	.L176:
ARM GAS  C:\Users\STUDENT\AppData\Local\Temp\ccRbxq9b.s 			page 76


1897:FreeRTOS/tasks.c **** 					}
1898:FreeRTOS/tasks.c **** 					else
1899:FreeRTOS/tasks.c **** 					{
1900:FreeRTOS/tasks.c **** 						/* The delayed list is not empty, get the value of the
1901:FreeRTOS/tasks.c **** 						item at the head of the delayed list.  This is the time
1902:FreeRTOS/tasks.c **** 						at which the task at the head of the delayed list must
1903:FreeRTOS/tasks.c **** 						be removed from the Blocked state. */
1904:FreeRTOS/tasks.c **** 						pxTCB = ( TCB_t * ) listGET_OWNER_OF_HEAD_ENTRY( pxDelayedTaskList );
 2340              		.loc 1 1904 0
 2341 0084 344B     		ldr	r3, .L185+8	@ tmp167,
 2342 0086 1B68     		ldr	r3, [r3]	@ D.6624, pxDelayedTaskList
 2343 0088 DB68     		ldr	r3, [r3, #12]	@ D.6626, _36->xListEnd.pxNext
 2344 008a DB68     		ldr	r3, [r3, #12]	@ tmp168, _37->pvOwner
 2345 008c BB60     		str	r3, [r7, #8]	@ tmp168, pxTCB
1905:FreeRTOS/tasks.c **** 						xItemValue = listGET_LIST_ITEM_VALUE( &( pxTCB->xGenericListItem ) );
 2346              		.loc 1 1905 0
 2347 008e BB68     		ldr	r3, [r7, #8]	@ tmp169, pxTCB
 2348 0090 5B68     		ldr	r3, [r3, #4]	@ tmp170, pxTCB_38->xGenericListItem.xItemValue
 2349 0092 7B60     		str	r3, [r7, #4]	@ tmp170, xItemValue
1906:FreeRTOS/tasks.c **** 
1907:FreeRTOS/tasks.c **** 						if( xConstTickCount < xItemValue )
 2350              		.loc 1 1907 0
 2351 0094 3A69     		ldr	r2, [r7, #16]	@ tmp171, xConstTickCount
 2352 0096 7B68     		ldr	r3, [r7, #4]	@ tmp172, xItemValue
 2353 0098 9A42     		cmp	r2, r3	@ tmp171, tmp172
 2354 009a 03D2     		bcs	.L177	@,
1908:FreeRTOS/tasks.c **** 						{
1909:FreeRTOS/tasks.c **** 							/* It is not time to unblock this item yet, but the
1910:FreeRTOS/tasks.c **** 							item value is the time at which the task at the head
1911:FreeRTOS/tasks.c **** 							of the blocked list must be removed from the Blocked
1912:FreeRTOS/tasks.c **** 							state -	so record the item value in
1913:FreeRTOS/tasks.c **** 							xNextTaskUnblockTime. */
1914:FreeRTOS/tasks.c **** 							xNextTaskUnblockTime = xItemValue;
 2355              		.loc 1 1914 0
 2356 009c 314A     		ldr	r2, .L185+20	@ tmp173,
 2357 009e 7B68     		ldr	r3, [r7, #4]	@ tmp174, xItemValue
 2358 00a0 1360     		str	r3, [r2]	@ tmp174, xNextTaskUnblockTime
1915:FreeRTOS/tasks.c **** 							break;
 2359              		.loc 1 1915 0
 2360 00a2 2EE0     		b	.L173	@
 2361              	.L177:
1916:FreeRTOS/tasks.c **** 						}
1917:FreeRTOS/tasks.c **** 						else
1918:FreeRTOS/tasks.c **** 						{
1919:FreeRTOS/tasks.c **** 							mtCOVERAGE_TEST_MARKER();
1920:FreeRTOS/tasks.c **** 						}
1921:FreeRTOS/tasks.c **** 
1922:FreeRTOS/tasks.c **** 						/* It is time to remove the item from the Blocked state. */
1923:FreeRTOS/tasks.c **** 						( void ) uxListRemove( &( pxTCB->xGenericListItem ) );
 2362              		.loc 1 1923 0
 2363 00a4 BB68     		ldr	r3, [r7, #8]	@ tmp175, pxTCB
 2364 00a6 0433     		adds	r3, r3, #4	@ D.6627, tmp175,
 2365 00a8 1846     		mov	r0, r3	@, D.6627
 2366 00aa FFF7FEFF 		bl	uxListRemove	@
1924:FreeRTOS/tasks.c **** 
1925:FreeRTOS/tasks.c **** 						/* Is the task waiting on an event also?  If so remove
1926:FreeRTOS/tasks.c **** 						it from the event list. */
ARM GAS  C:\Users\STUDENT\AppData\Local\Temp\ccRbxq9b.s 			page 77


1927:FreeRTOS/tasks.c **** 						if( listLIST_ITEM_CONTAINER( &( pxTCB->xEventListItem ) ) != NULL )
 2367              		.loc 1 1927 0
 2368 00ae BB68     		ldr	r3, [r7, #8]	@ tmp176, pxTCB
 2369 00b0 9B6A     		ldr	r3, [r3, #40]	@ D.6628, pxTCB_38->xEventListItem.pvContainer
 2370 00b2 002B     		cmp	r3, #0	@ D.6628,
 2371 00b4 04D0     		beq	.L178	@,
1928:FreeRTOS/tasks.c **** 						{
1929:FreeRTOS/tasks.c **** 							( void ) uxListRemove( &( pxTCB->xEventListItem ) );
 2372              		.loc 1 1929 0
 2373 00b6 BB68     		ldr	r3, [r7, #8]	@ tmp177, pxTCB
 2374 00b8 1833     		adds	r3, r3, #24	@ D.6627, tmp177,
 2375 00ba 1846     		mov	r0, r3	@, D.6627
 2376 00bc FFF7FEFF 		bl	uxListRemove	@
 2377              	.L178:
1930:FreeRTOS/tasks.c **** 						}
1931:FreeRTOS/tasks.c **** 						else
1932:FreeRTOS/tasks.c **** 						{
1933:FreeRTOS/tasks.c **** 							mtCOVERAGE_TEST_MARKER();
1934:FreeRTOS/tasks.c **** 						}
1935:FreeRTOS/tasks.c **** 
1936:FreeRTOS/tasks.c **** 						/* Place the unblocked task into the appropriate ready
1937:FreeRTOS/tasks.c **** 						list. */
1938:FreeRTOS/tasks.c **** 						prvAddTaskToReadyList( pxTCB );
 2378              		.loc 1 1938 0
 2379 00c0 BB68     		ldr	r3, [r7, #8]	@ tmp178, pxTCB
 2380 00c2 DB6A     		ldr	r3, [r3, #44]	@ D.6623, pxTCB_38->uxPriority
 2381 00c4 0122     		movs	r2, #1	@ tmp179,
 2382 00c6 9A40     		lsls	r2, r2, r3	@ D.6623, tmp179, D.6623
 2383 00c8 274B     		ldr	r3, .L185+24	@ tmp180,
 2384 00ca 1B68     		ldr	r3, [r3]	@ D.6623, uxTopReadyPriority
 2385 00cc 1343     		orrs	r3, r3, r2	@, D.6623, D.6623, D.6623
 2386 00ce 264A     		ldr	r2, .L185+24	@ tmp181,
 2387 00d0 1360     		str	r3, [r2]	@ D.6623, uxTopReadyPriority
 2388 00d2 BB68     		ldr	r3, [r7, #8]	@ tmp182, pxTCB
 2389 00d4 DA6A     		ldr	r2, [r3, #44]	@ D.6623, pxTCB_38->uxPriority
 2390 00d6 1346     		mov	r3, r2	@ tmp183, D.6623
 2391 00d8 9B00     		lsls	r3, r3, #2	@ tmp183, tmp183,
 2392 00da 1344     		add	r3, r3, r2	@ tmp183, D.6623
 2393 00dc 9B00     		lsls	r3, r3, #2	@ tmp184, tmp183,
 2394 00de 234A     		ldr	r2, .L185+28	@ tmp185,
 2395 00e0 1A44     		add	r2, r2, r3	@ D.6624, tmp183
 2396 00e2 BB68     		ldr	r3, [r7, #8]	@ tmp186, pxTCB
 2397 00e4 0433     		adds	r3, r3, #4	@ D.6627, tmp186,
 2398 00e6 1946     		mov	r1, r3	@, D.6627
 2399 00e8 1046     		mov	r0, r2	@, D.6624
 2400 00ea FFF7FEFF 		bl	vListInsertEnd	@
1939:FreeRTOS/tasks.c **** 
1940:FreeRTOS/tasks.c **** 						/* A task being unblocked cannot cause an immediate
1941:FreeRTOS/tasks.c **** 						context switch if preemption is turned off. */
1942:FreeRTOS/tasks.c **** 						#if (  configUSE_PREEMPTION == 1 )
1943:FreeRTOS/tasks.c **** 						{
1944:FreeRTOS/tasks.c **** 							/* Preemption is on, but a context switch should
1945:FreeRTOS/tasks.c **** 							only be performed if the unblocked task has a
1946:FreeRTOS/tasks.c **** 							priority that is equal to or higher than the
1947:FreeRTOS/tasks.c **** 							currently executing task. */
1948:FreeRTOS/tasks.c **** 							if( pxTCB->uxPriority >= pxCurrentTCB->uxPriority )
 2401              		.loc 1 1948 0
ARM GAS  C:\Users\STUDENT\AppData\Local\Temp\ccRbxq9b.s 			page 78


 2402 00ee BB68     		ldr	r3, [r7, #8]	@ tmp187, pxTCB
 2403 00f0 DA6A     		ldr	r2, [r3, #44]	@ D.6623, pxTCB_38->uxPriority
 2404 00f2 1F4B     		ldr	r3, .L185+32	@ tmp188,
 2405 00f4 1B68     		ldr	r3, [r3]	@ D.6629, pxCurrentTCB
 2406 00f6 DB6A     		ldr	r3, [r3, #44]	@ D.6623, _55->uxPriority
 2407 00f8 9A42     		cmp	r2, r3	@ D.6623, D.6623
 2408 00fa B4D3     		bcc	.L180	@,
1949:FreeRTOS/tasks.c **** 							{
1950:FreeRTOS/tasks.c **** 								xSwitchRequired = pdTRUE;
 2409              		.loc 1 1950 0
 2410 00fc 0123     		movs	r3, #1	@ tmp189,
 2411 00fe 7B61     		str	r3, [r7, #20]	@ tmp189, xSwitchRequired
1951:FreeRTOS/tasks.c **** 							}
1952:FreeRTOS/tasks.c **** 							else
1953:FreeRTOS/tasks.c **** 							{
1954:FreeRTOS/tasks.c **** 								mtCOVERAGE_TEST_MARKER();
1955:FreeRTOS/tasks.c **** 							}
1956:FreeRTOS/tasks.c **** 						}
1957:FreeRTOS/tasks.c **** 						#endif /* configUSE_PREEMPTION */
1958:FreeRTOS/tasks.c **** 					}
1959:FreeRTOS/tasks.c **** 				}
 2412              		.loc 1 1959 0
 2413 0100 B1E7     		b	.L180	@
 2414              	.L173:
 2415              	.LBE8:
1960:FreeRTOS/tasks.c **** 			}
1961:FreeRTOS/tasks.c **** 		}
1962:FreeRTOS/tasks.c **** 
1963:FreeRTOS/tasks.c **** 		/* Tasks of equal priority to the currently running task will share
1964:FreeRTOS/tasks.c **** 		processing time (time slice) if preemption is on, and the application
1965:FreeRTOS/tasks.c **** 		writer has not explicitly turned time slicing off. */
1966:FreeRTOS/tasks.c **** 		#if ( ( configUSE_PREEMPTION == 1 ) && ( configUSE_TIME_SLICING == 1 ) )
1967:FreeRTOS/tasks.c **** 		{
1968:FreeRTOS/tasks.c **** 			if( listCURRENT_LIST_LENGTH( &( pxReadyTasksLists[ pxCurrentTCB->uxPriority ] ) ) > ( UBaseT_t )
 2416              		.loc 1 1968 0
 2417 0102 1B4B     		ldr	r3, .L185+32	@ tmp190,
 2418 0104 1B68     		ldr	r3, [r3]	@ D.6629, pxCurrentTCB
 2419 0106 DA6A     		ldr	r2, [r3, #44]	@ D.6623, _60->uxPriority
 2420 0108 1849     		ldr	r1, .L185+28	@ tmp191,
 2421 010a 1346     		mov	r3, r2	@ tmp192, D.6623
 2422 010c 9B00     		lsls	r3, r3, #2	@ tmp192, tmp192,
 2423 010e 1344     		add	r3, r3, r2	@ tmp192, D.6623
 2424 0110 9B00     		lsls	r3, r3, #2	@ tmp193, tmp192,
 2425 0112 0B44     		add	r3, r3, r1	@ tmp194, tmp191
 2426 0114 1B68     		ldr	r3, [r3]	@ D.6623, pxReadyTasksLists[_61].uxNumberOfItems
 2427 0116 012B     		cmp	r3, #1	@ D.6623,
 2428 0118 01D9     		bls	.L181	@,
1969:FreeRTOS/tasks.c **** 			{
1970:FreeRTOS/tasks.c **** 				xSwitchRequired = pdTRUE;
 2429              		.loc 1 1970 0
 2430 011a 0123     		movs	r3, #1	@ tmp195,
 2431 011c 7B61     		str	r3, [r7, #20]	@ tmp195, xSwitchRequired
 2432              	.L181:
1971:FreeRTOS/tasks.c **** 			}
1972:FreeRTOS/tasks.c **** 			else
1973:FreeRTOS/tasks.c **** 			{
1974:FreeRTOS/tasks.c **** 				mtCOVERAGE_TEST_MARKER();
ARM GAS  C:\Users\STUDENT\AppData\Local\Temp\ccRbxq9b.s 			page 79


1975:FreeRTOS/tasks.c **** 			}
1976:FreeRTOS/tasks.c **** 		}
1977:FreeRTOS/tasks.c **** 		#endif /* ( ( configUSE_PREEMPTION == 1 ) && ( configUSE_TIME_SLICING == 1 ) ) */
1978:FreeRTOS/tasks.c **** 
1979:FreeRTOS/tasks.c **** 		#if ( configUSE_TICK_HOOK == 1 )
1980:FreeRTOS/tasks.c **** 		{
1981:FreeRTOS/tasks.c **** 			/* Guard against the tick hook being called when the pended tick
1982:FreeRTOS/tasks.c **** 			count is being unwound (when the scheduler is being unlocked). */
1983:FreeRTOS/tasks.c **** 			if( uxPendedTicks == ( UBaseT_t ) 0U )
 2433              		.loc 1 1983 0
 2434 011e 154B     		ldr	r3, .L185+36	@ tmp196,
 2435 0120 1B68     		ldr	r3, [r3]	@ D.6623, uxPendedTicks
 2436 0122 002B     		cmp	r3, #0	@ D.6623,
 2437 0124 09D1     		bne	.L182	@,
1984:FreeRTOS/tasks.c **** 			{
1985:FreeRTOS/tasks.c **** 				vApplicationTickHook();
 2438              		.loc 1 1985 0
 2439 0126 FFF7FEFF 		bl	vApplicationTickHook	@
 2440 012a 06E0     		b	.L182	@
 2441              	.L169:
1986:FreeRTOS/tasks.c **** 			}
1987:FreeRTOS/tasks.c **** 			else
1988:FreeRTOS/tasks.c **** 			{
1989:FreeRTOS/tasks.c **** 				mtCOVERAGE_TEST_MARKER();
1990:FreeRTOS/tasks.c **** 			}
1991:FreeRTOS/tasks.c **** 		}
1992:FreeRTOS/tasks.c **** 		#endif /* configUSE_TICK_HOOK */
1993:FreeRTOS/tasks.c **** 	}
1994:FreeRTOS/tasks.c **** 	else
1995:FreeRTOS/tasks.c **** 	{
1996:FreeRTOS/tasks.c **** 		++uxPendedTicks;
 2442              		.loc 1 1996 0
 2443 012c 114B     		ldr	r3, .L185+36	@ tmp197,
 2444 012e 1B68     		ldr	r3, [r3]	@ D.6623, uxPendedTicks
 2445 0130 0133     		adds	r3, r3, #1	@ D.6623, D.6623,
 2446 0132 104A     		ldr	r2, .L185+36	@ tmp198,
 2447 0134 1360     		str	r3, [r2]	@ D.6623, uxPendedTicks
1997:FreeRTOS/tasks.c **** 
1998:FreeRTOS/tasks.c **** 		/* The tick hook gets called at regular intervals, even if the
1999:FreeRTOS/tasks.c **** 		scheduler is locked. */
2000:FreeRTOS/tasks.c **** 		#if ( configUSE_TICK_HOOK == 1 )
2001:FreeRTOS/tasks.c **** 		{
2002:FreeRTOS/tasks.c **** 			vApplicationTickHook();
 2448              		.loc 1 2002 0
 2449 0136 FFF7FEFF 		bl	vApplicationTickHook	@
 2450              	.L182:
2003:FreeRTOS/tasks.c **** 		}
2004:FreeRTOS/tasks.c **** 		#endif
2005:FreeRTOS/tasks.c **** 	}
2006:FreeRTOS/tasks.c **** 
2007:FreeRTOS/tasks.c **** 	#if ( configUSE_PREEMPTION == 1 )
2008:FreeRTOS/tasks.c **** 	{
2009:FreeRTOS/tasks.c **** 		if( xYieldPending != pdFALSE )
 2451              		.loc 1 2009 0
 2452 013a 0F4B     		ldr	r3, .L185+40	@ tmp199,
 2453 013c 1B68     		ldr	r3, [r3]	@ D.6625, xYieldPending
 2454 013e 002B     		cmp	r3, #0	@ D.6625,
ARM GAS  C:\Users\STUDENT\AppData\Local\Temp\ccRbxq9b.s 			page 80


 2455 0140 01D0     		beq	.L183	@,
2010:FreeRTOS/tasks.c **** 		{
2011:FreeRTOS/tasks.c **** 			xSwitchRequired = pdTRUE;
 2456              		.loc 1 2011 0
 2457 0142 0123     		movs	r3, #1	@ tmp200,
 2458 0144 7B61     		str	r3, [r7, #20]	@ tmp200, xSwitchRequired
 2459              	.L183:
2012:FreeRTOS/tasks.c **** 		}
2013:FreeRTOS/tasks.c **** 		else
2014:FreeRTOS/tasks.c **** 		{
2015:FreeRTOS/tasks.c **** 			mtCOVERAGE_TEST_MARKER();
2016:FreeRTOS/tasks.c **** 		}
2017:FreeRTOS/tasks.c **** 	}
2018:FreeRTOS/tasks.c **** 	#endif /* configUSE_PREEMPTION */
2019:FreeRTOS/tasks.c **** 
2020:FreeRTOS/tasks.c **** 	return xSwitchRequired;
 2460              		.loc 1 2020 0
 2461 0146 7B69     		ldr	r3, [r7, #20]	@ D.6630, xSwitchRequired
2021:FreeRTOS/tasks.c **** }
 2462              		.loc 1 2021 0
 2463 0148 1846     		mov	r0, r3	@, <retval>
 2464 014a 1837     		adds	r7, r7, #24	@,,
 2465              		.cfi_def_cfa_offset 8
 2466 014c BD46     		mov	sp, r7	@,
 2467              		.cfi_def_cfa_register 13
 2468              		@ sp needed	@
 2469 014e 80BD     		pop	{r7, pc}	@
 2470              	.L186:
 2471              		.align	2
 2472              	.L185:
 2473 0150 00000000 		.word	uxSchedulerSuspended
 2474 0154 00000000 		.word	xTickCount
 2475 0158 00000000 		.word	pxDelayedTaskList
 2476 015c 00000000 		.word	pxOverflowDelayedTaskList
 2477 0160 00000000 		.word	xNumOfOverflows
 2478 0164 00000000 		.word	xNextTaskUnblockTime
 2479 0168 00000000 		.word	uxTopReadyPriority
 2480 016c 00000000 		.word	pxReadyTasksLists
 2481 0170 00000000 		.word	pxCurrentTCB
 2482 0174 00000000 		.word	uxPendedTicks
 2483 0178 00000000 		.word	xYieldPending
 2484              		.cfi_endproc
 2485              	.LFE19:
 2486              		.size	xTaskIncrementTick, .-xTaskIncrementTick
 2487              		.section	.text.vTaskSwitchContext,"ax",%progbits
 2488              		.align	2
 2489              		.global	vTaskSwitchContext
 2490              		.thumb
 2491              		.thumb_func
 2492              		.type	vTaskSwitchContext, %function
 2493              	vTaskSwitchContext:
 2494              	.LFB20:
2022:FreeRTOS/tasks.c **** /*-----------------------------------------------------------*/
2023:FreeRTOS/tasks.c **** 
2024:FreeRTOS/tasks.c **** #if ( configUSE_APPLICATION_TASK_TAG == 1 )
2025:FreeRTOS/tasks.c **** 
2026:FreeRTOS/tasks.c **** 	void vTaskSetApplicationTaskTag( TaskHandle_t xTask, TaskHookFunction_t pxHookFunction )
ARM GAS  C:\Users\STUDENT\AppData\Local\Temp\ccRbxq9b.s 			page 81


2027:FreeRTOS/tasks.c **** 	{
2028:FreeRTOS/tasks.c **** 	TCB_t *xTCB;
2029:FreeRTOS/tasks.c **** 
2030:FreeRTOS/tasks.c **** 		/* If xTask is NULL then it is the task hook of the calling task that is
2031:FreeRTOS/tasks.c **** 		getting set. */
2032:FreeRTOS/tasks.c **** 		if( xTask == NULL )
2033:FreeRTOS/tasks.c **** 		{
2034:FreeRTOS/tasks.c **** 			xTCB = ( TCB_t * ) pxCurrentTCB;
2035:FreeRTOS/tasks.c **** 		}
2036:FreeRTOS/tasks.c **** 		else
2037:FreeRTOS/tasks.c **** 		{
2038:FreeRTOS/tasks.c **** 			xTCB = ( TCB_t * ) xTask;
2039:FreeRTOS/tasks.c **** 		}
2040:FreeRTOS/tasks.c **** 
2041:FreeRTOS/tasks.c **** 		/* Save the hook function in the TCB.  A critical section is required as
2042:FreeRTOS/tasks.c **** 		the value can be accessed from an interrupt. */
2043:FreeRTOS/tasks.c **** 		taskENTER_CRITICAL();
2044:FreeRTOS/tasks.c **** 			xTCB->pxTaskTag = pxHookFunction;
2045:FreeRTOS/tasks.c **** 		taskEXIT_CRITICAL();
2046:FreeRTOS/tasks.c **** 	}
2047:FreeRTOS/tasks.c **** 
2048:FreeRTOS/tasks.c **** #endif /* configUSE_APPLICATION_TASK_TAG */
2049:FreeRTOS/tasks.c **** /*-----------------------------------------------------------*/
2050:FreeRTOS/tasks.c **** 
2051:FreeRTOS/tasks.c **** #if ( configUSE_APPLICATION_TASK_TAG == 1 )
2052:FreeRTOS/tasks.c **** 
2053:FreeRTOS/tasks.c **** 	TaskHookFunction_t xTaskGetApplicationTaskTag( TaskHandle_t xTask )
2054:FreeRTOS/tasks.c **** 	{
2055:FreeRTOS/tasks.c **** 	TCB_t *xTCB;
2056:FreeRTOS/tasks.c **** 	TaskHookFunction_t xReturn;
2057:FreeRTOS/tasks.c **** 
2058:FreeRTOS/tasks.c **** 		/* If xTask is NULL then we are setting our own task hook. */
2059:FreeRTOS/tasks.c **** 		if( xTask == NULL )
2060:FreeRTOS/tasks.c **** 		{
2061:FreeRTOS/tasks.c **** 			xTCB = ( TCB_t * ) pxCurrentTCB;
2062:FreeRTOS/tasks.c **** 		}
2063:FreeRTOS/tasks.c **** 		else
2064:FreeRTOS/tasks.c **** 		{
2065:FreeRTOS/tasks.c **** 			xTCB = ( TCB_t * ) xTask;
2066:FreeRTOS/tasks.c **** 		}
2067:FreeRTOS/tasks.c **** 
2068:FreeRTOS/tasks.c **** 		/* Save the hook function in the TCB.  A critical section is required as
2069:FreeRTOS/tasks.c **** 		the value can be accessed from an interrupt. */
2070:FreeRTOS/tasks.c **** 		taskENTER_CRITICAL();
2071:FreeRTOS/tasks.c **** 		{
2072:FreeRTOS/tasks.c **** 			xReturn = xTCB->pxTaskTag;
2073:FreeRTOS/tasks.c **** 		}
2074:FreeRTOS/tasks.c **** 		taskEXIT_CRITICAL();
2075:FreeRTOS/tasks.c **** 
2076:FreeRTOS/tasks.c **** 		return xReturn;
2077:FreeRTOS/tasks.c **** 	}
2078:FreeRTOS/tasks.c **** 
2079:FreeRTOS/tasks.c **** #endif /* configUSE_APPLICATION_TASK_TAG */
2080:FreeRTOS/tasks.c **** /*-----------------------------------------------------------*/
2081:FreeRTOS/tasks.c **** 
2082:FreeRTOS/tasks.c **** #if ( configUSE_APPLICATION_TASK_TAG == 1 )
2083:FreeRTOS/tasks.c **** 
ARM GAS  C:\Users\STUDENT\AppData\Local\Temp\ccRbxq9b.s 			page 82


2084:FreeRTOS/tasks.c **** 	BaseT_t xTaskCallApplicationTaskHook( TaskHandle_t xTask, void *pvParameter )
2085:FreeRTOS/tasks.c **** 	{
2086:FreeRTOS/tasks.c **** 	TCB_t *xTCB;
2087:FreeRTOS/tasks.c **** 	BaseT_t xReturn;
2088:FreeRTOS/tasks.c **** 
2089:FreeRTOS/tasks.c **** 		/* If xTask is NULL then we are calling our own task hook. */
2090:FreeRTOS/tasks.c **** 		if( xTask == NULL )
2091:FreeRTOS/tasks.c **** 		{
2092:FreeRTOS/tasks.c **** 			xTCB = ( TCB_t * ) pxCurrentTCB;
2093:FreeRTOS/tasks.c **** 		}
2094:FreeRTOS/tasks.c **** 		else
2095:FreeRTOS/tasks.c **** 		{
2096:FreeRTOS/tasks.c **** 			xTCB = ( TCB_t * ) xTask;
2097:FreeRTOS/tasks.c **** 		}
2098:FreeRTOS/tasks.c **** 
2099:FreeRTOS/tasks.c **** 		if( xTCB->pxTaskTag != NULL )
2100:FreeRTOS/tasks.c **** 		{
2101:FreeRTOS/tasks.c **** 			xReturn = xTCB->pxTaskTag( pvParameter );
2102:FreeRTOS/tasks.c **** 		}
2103:FreeRTOS/tasks.c **** 		else
2104:FreeRTOS/tasks.c **** 		{
2105:FreeRTOS/tasks.c **** 			xReturn = pdFAIL;
2106:FreeRTOS/tasks.c **** 		}
2107:FreeRTOS/tasks.c **** 
2108:FreeRTOS/tasks.c **** 		return xReturn;
2109:FreeRTOS/tasks.c **** 	}
2110:FreeRTOS/tasks.c **** 
2111:FreeRTOS/tasks.c **** #endif /* configUSE_APPLICATION_TASK_TAG */
2112:FreeRTOS/tasks.c **** /*-----------------------------------------------------------*/
2113:FreeRTOS/tasks.c **** 
2114:FreeRTOS/tasks.c **** void vTaskSwitchContext( void )
2115:FreeRTOS/tasks.c **** {
 2495              		.loc 1 2115 0
 2496              		.cfi_startproc
 2497              		@ args = 0, pretend = 0, frame = 16
 2498              		@ frame_needed = 1, uses_anonymous_args = 0
 2499 0000 80B5     		push	{r7, lr}	@
 2500              		.cfi_def_cfa_offset 8
 2501              		.cfi_offset 7, -8
 2502              		.cfi_offset 14, -4
 2503 0002 84B0     		sub	sp, sp, #16	@,,
 2504              		.cfi_def_cfa_offset 24
 2505 0004 00AF     		add	r7, sp, #0	@,,
 2506              		.cfi_def_cfa_register 7
2116:FreeRTOS/tasks.c **** 	if( uxSchedulerSuspended != ( UBaseT_t ) pdFALSE )
 2507              		.loc 1 2116 0
 2508 0006 224B     		ldr	r3, .L195	@ tmp124,
 2509 0008 1B68     		ldr	r3, [r3]	@ D.6631, uxSchedulerSuspended
 2510 000a 002B     		cmp	r3, #0	@ D.6631,
 2511 000c 03D0     		beq	.L188	@,
