ARM GAS  /tmp/ccicK8AM.s 			page 1


   1              		.cpu cortex-m3
   2              		.eabi_attribute 20, 1	@ Tag_ABI_FP_denormal
   3              		.eabi_attribute 21, 1	@ Tag_ABI_FP_exceptions
   4              		.eabi_attribute 23, 3	@ Tag_ABI_FP_number_model
   5              		.eabi_attribute 24, 1	@ Tag_ABI_align8_needed
   6              		.eabi_attribute 25, 1	@ Tag_ABI_align8_preserved
   7              		.eabi_attribute 26, 1	@ Tag_ABI_enum_size
   8              		.eabi_attribute 30, 6	@ Tag_ABI_optimization_goals
   9              		.eabi_attribute 34, 1	@ Tag_CPU_unaligned_access
  10              		.eabi_attribute 18, 4	@ Tag_ABI_PCS_wchar_t
  11              		.file	"event_groups.c"
  12              	@ GNU C89 (Arch Repository) version 7.1.0 (arm-none-eabi)
  13              	@	compiled by GNU C version 6.3.1 20170306, GMP version 6.1.2, MPFR version 3.1.5-p2, MPC version 1
  14              	
  15              	@ GGC heuristics: --param ggc-min-expand=100 --param ggc-min-heapsize=131072
  16              	@ options passed:  -I . -I config -I system -I core -I drivers -I FreeRTOS
  17              	@ -I FreeRTOS/include -I FreeRTOS/portable/GCC/ARM_CM3 -I FreeRTOS/portable
  18              	@ -I tasks/rc_task_leds -I tasks/rc_task_xbee -I modules/rc_leds
  19              	@ -I modules/rc_xbee -I modules/rc_scheduler -I drivers/rc_system
  20              	@ -I drivers/rc_gpio -I drivers/rc_uart -I drivers/rc_pinsel
  21              	@ -I drivers/rc_timer -I drivers/rc_adc -imultilib armv7-m
  22              	@ -MD out/event_groups.d -MF out/event_groups.d -MP -MQ out/event_groups.o
  23              	@ -D__USES_INITFINI__ FreeRTOS/event_groups.c -mcpu=cortex-m3 -mthumb
  24              	@ -auxbase-strip out/event_groups.o -g -ggdb3 -O0 -Wall -Wstrict-prototypes
  25              	@ -Wextra -std=gnu90 -ffunction-sections -fdata-sections -fverbose-asm
  26              	@ options enabled:  -faggressive-loop-optimizations -fauto-inc-dec
  27              	@ -fchkp-check-incomplete-type -fchkp-check-read -fchkp-check-write
  28              	@ -fchkp-instrument-calls -fchkp-narrow-bounds -fchkp-optimize
  29              	@ -fchkp-store-bounds -fchkp-use-static-bounds
  30              	@ -fchkp-use-static-const-bounds -fchkp-use-wrappers -fcommon
  31              	@ -fdata-sections -fdelete-null-pointer-checks -fdwarf2-cfi-asm
  32              	@ -fearly-inlining -feliminate-unused-debug-types -ffp-int-builtin-inexact
  33              	@ -ffunction-cse -ffunction-sections -fgcse-lm -fgnu-runtime -fgnu-unique
  34              	@ -fident -finline-atomics -fira-hoist-pressure -fira-share-save-slots
  35              	@ -fira-share-spill-slots -fivopts -fkeep-static-consts
  36              	@ -fleading-underscore -flifetime-dse -flto-odr-type-merging -fmath-errno
  37              	@ -fmerge-debug-strings -fpeephole -fplt -fprefetch-loop-arrays
  38              	@ -freg-struct-return -fsched-critical-path-heuristic
  39              	@ -fsched-dep-count-heuristic -fsched-group-heuristic -fsched-interblock
  40              	@ -fsched-last-insn-heuristic -fsched-rank-heuristic -fsched-spec
  41              	@ -fsched-spec-insn-heuristic -fsched-stalled-insns-dep
  42              	@ -fsemantic-interposition -fshow-column -fshrink-wrap-separate
  43              	@ -fsigned-zeros -fsplit-ivs-in-unroller -fssa-backprop -fstdarg-opt
  44              	@ -fstrict-volatile-bitfields -fsync-libcalls -ftrapping-math -ftree-cselim
  45              	@ -ftree-forwprop -ftree-loop-if-convert -ftree-loop-im -ftree-loop-ivcanon
  46              	@ -ftree-loop-optimize -ftree-parallelize-loops= -ftree-phiprop
  47              	@ -ftree-reassoc -ftree-scev-cprop -funit-at-a-time -fverbose-asm
  48              	@ -fzero-initialized-in-bss -masm-syntax-unified -mfix-cortex-m3-ldrd
  49              	@ -mlittle-endian -mpic-data-is-text-relative -msched-prolog -mthumb
  50              	@ -munaligned-access -mvectorize-with-neon-quad
  51              	
  52              		.text
  53              	.Ltext0:
  54              		.cfi_sections	.debug_frame
  55              		.section	.text.xEventGroupCreate,"ax",%progbits
  56              		.align	1
  57              		.global	xEventGroupCreate
ARM GAS  /tmp/ccicK8AM.s 			page 2


  58              		.syntax unified
  59              		.thumb
  60              		.thumb_func
  61              		.fpu softvfp
  62              		.type	xEventGroupCreate, %function
  63              	xEventGroupCreate:
  64              	.LFB1:
  65              		.file 1 "FreeRTOS/event_groups.c"
   1:FreeRTOS/event_groups.c **** /*
   2:FreeRTOS/event_groups.c ****     FreeRTOS V8.1.2 - Copyright (C) 2014 Real Time Engineers Ltd.
   3:FreeRTOS/event_groups.c ****     All rights reserved
   4:FreeRTOS/event_groups.c **** 
   5:FreeRTOS/event_groups.c ****     VISIT http://www.FreeRTOS.org TO ENSURE YOU ARE USING THE LATEST VERSION.
   6:FreeRTOS/event_groups.c **** 
   7:FreeRTOS/event_groups.c ****     ***************************************************************************
   8:FreeRTOS/event_groups.c ****      *                                                                       *
   9:FreeRTOS/event_groups.c ****      *    FreeRTOS provides completely free yet professionally developed,    *
  10:FreeRTOS/event_groups.c ****      *    robust, strictly quality controlled, supported, and cross          *
  11:FreeRTOS/event_groups.c ****      *    platform software that has become a de facto standard.             *
  12:FreeRTOS/event_groups.c ****      *                                                                       *
  13:FreeRTOS/event_groups.c ****      *    Help yourself get started quickly and support the FreeRTOS         *
  14:FreeRTOS/event_groups.c ****      *    project by purchasing a FreeRTOS tutorial book, reference          *
  15:FreeRTOS/event_groups.c ****      *    manual, or both from: http://www.FreeRTOS.org/Documentation        *
  16:FreeRTOS/event_groups.c ****      *                                                                       *
  17:FreeRTOS/event_groups.c ****      *    Thank you!                                                         *
  18:FreeRTOS/event_groups.c ****      *                                                                       *
  19:FreeRTOS/event_groups.c ****     ***************************************************************************
  20:FreeRTOS/event_groups.c **** 
  21:FreeRTOS/event_groups.c ****     This file is part of the FreeRTOS distribution.
  22:FreeRTOS/event_groups.c **** 
  23:FreeRTOS/event_groups.c ****     FreeRTOS is free software; you can redistribute it and/or modify it under
  24:FreeRTOS/event_groups.c ****     the terms of the GNU General Public License (version 2) as published by the
  25:FreeRTOS/event_groups.c ****     Free Software Foundation >>!AND MODIFIED BY!<< the FreeRTOS exception.
  26:FreeRTOS/event_groups.c **** 
  27:FreeRTOS/event_groups.c ****     >>!   NOTE: The modification to the GPL is included to allow you to     !<<
  28:FreeRTOS/event_groups.c ****     >>!   distribute a combined work that includes FreeRTOS without being   !<<
  29:FreeRTOS/event_groups.c ****     >>!   obliged to provide the source code for proprietary components     !<<
  30:FreeRTOS/event_groups.c ****     >>!   outside of the FreeRTOS kernel.                                   !<<
  31:FreeRTOS/event_groups.c **** 
  32:FreeRTOS/event_groups.c ****     FreeRTOS is distributed in the hope that it will be useful, but WITHOUT ANY
  33:FreeRTOS/event_groups.c ****     WARRANTY; without even the implied warranty of MERCHANTABILITY or FITNESS
  34:FreeRTOS/event_groups.c ****     FOR A PARTICULAR PURPOSE.  Full license text is available from the following
  35:FreeRTOS/event_groups.c ****     link: http://www.freertos.org/a00114.html
  36:FreeRTOS/event_groups.c **** 
  37:FreeRTOS/event_groups.c ****     1 tab == 4 spaces!
  38:FreeRTOS/event_groups.c **** 
  39:FreeRTOS/event_groups.c ****     ***************************************************************************
  40:FreeRTOS/event_groups.c ****      *                                                                       *
  41:FreeRTOS/event_groups.c ****      *    Having a problem?  Start by reading the FAQ "My application does   *
  42:FreeRTOS/event_groups.c ****      *    not run, what could be wrong?"                                     *
  43:FreeRTOS/event_groups.c ****      *                                                                       *
  44:FreeRTOS/event_groups.c ****      *    http://www.FreeRTOS.org/FAQHelp.html                               *
  45:FreeRTOS/event_groups.c ****      *                                                                       *
  46:FreeRTOS/event_groups.c ****     ***************************************************************************
  47:FreeRTOS/event_groups.c **** 
  48:FreeRTOS/event_groups.c ****     http://www.FreeRTOS.org - Documentation, books, training, latest versions,
  49:FreeRTOS/event_groups.c ****     license and Real Time Engineers Ltd. contact details.
ARM GAS  /tmp/ccicK8AM.s 			page 3


  50:FreeRTOS/event_groups.c **** 
  51:FreeRTOS/event_groups.c ****     http://www.FreeRTOS.org/plus - A selection of FreeRTOS ecosystem products,
  52:FreeRTOS/event_groups.c ****     including FreeRTOS+Trace - an indispensable productivity tool, a DOS
  53:FreeRTOS/event_groups.c ****     compatible FAT file system, and our tiny thread aware UDP/IP stack.
  54:FreeRTOS/event_groups.c **** 
  55:FreeRTOS/event_groups.c ****     http://www.OpenRTOS.com - Real Time Engineers ltd license FreeRTOS to High
  56:FreeRTOS/event_groups.c ****     Integrity Systems to sell under the OpenRTOS brand.  Low cost OpenRTOS
  57:FreeRTOS/event_groups.c ****     licenses offer ticketed support, indemnification and middleware.
  58:FreeRTOS/event_groups.c **** 
  59:FreeRTOS/event_groups.c ****     http://www.SafeRTOS.com - High Integrity Systems also provide a safety
  60:FreeRTOS/event_groups.c ****     engineered and independently SIL3 certified version for use in safety and
  61:FreeRTOS/event_groups.c ****     mission critical applications that require provable dependability.
  62:FreeRTOS/event_groups.c **** 
  63:FreeRTOS/event_groups.c ****     1 tab == 4 spaces!
  64:FreeRTOS/event_groups.c **** */
  65:FreeRTOS/event_groups.c **** 
  66:FreeRTOS/event_groups.c **** /* Standard includes. */
  67:FreeRTOS/event_groups.c **** #include <stdlib.h>
  68:FreeRTOS/event_groups.c **** 
  69:FreeRTOS/event_groups.c **** /* Defining MPU_WRAPPERS_INCLUDED_FROM_API_FILE prevents task.h from redefining
  70:FreeRTOS/event_groups.c **** all the API functions to use the MPU wrappers.  That should only be done when
  71:FreeRTOS/event_groups.c **** task.h is included from an application file. */
  72:FreeRTOS/event_groups.c **** #define MPU_WRAPPERS_INCLUDED_FROM_API_FILE
  73:FreeRTOS/event_groups.c **** 
  74:FreeRTOS/event_groups.c **** /* FreeRTOS includes. */
  75:FreeRTOS/event_groups.c **** #include "FreeRTOS.h"
  76:FreeRTOS/event_groups.c **** #include "task.h"
  77:FreeRTOS/event_groups.c **** #include "timers.h"
  78:FreeRTOS/event_groups.c **** #include "event_groups.h"
  79:FreeRTOS/event_groups.c **** 
  80:FreeRTOS/event_groups.c **** /* Lint e961 and e750 are suppressed as a MISRA exception justified because the
  81:FreeRTOS/event_groups.c **** MPU ports require MPU_WRAPPERS_INCLUDED_FROM_API_FILE to be defined for the
  82:FreeRTOS/event_groups.c **** header files above, but not in this file, in order to generate the correct
  83:FreeRTOS/event_groups.c **** privileged Vs unprivileged linkage and placement. */
  84:FreeRTOS/event_groups.c **** #undef MPU_WRAPPERS_INCLUDED_FROM_API_FILE /*lint !e961 !e750. */
  85:FreeRTOS/event_groups.c **** 
  86:FreeRTOS/event_groups.c **** #if ( INCLUDE_xEventGroupSetBitFromISR == 1 ) && ( configUSE_TIMERS == 0 )
  87:FreeRTOS/event_groups.c **** 	#error configUSE_TIMERS must be set to 1 to make the xEventGroupSetBitFromISR() function available
  88:FreeRTOS/event_groups.c **** #endif
  89:FreeRTOS/event_groups.c **** 
  90:FreeRTOS/event_groups.c **** #if ( INCLUDE_xEventGroupSetBitFromISR == 1 ) && ( INCLUDE_xTimerPendFunctionCall == 0 )
  91:FreeRTOS/event_groups.c **** 	#error INCLUDE_xTimerPendFunctionCall must also be set to one to make the xEventGroupSetBitFromISR
  92:FreeRTOS/event_groups.c **** #endif
  93:FreeRTOS/event_groups.c **** 
  94:FreeRTOS/event_groups.c **** /* The following bit fields convey control information in a task's event list
  95:FreeRTOS/event_groups.c **** item value.  It is important they don't clash with the
  96:FreeRTOS/event_groups.c **** taskEVENT_LIST_ITEM_VALUE_IN_USE definition. */
  97:FreeRTOS/event_groups.c **** #if configUSE_16_BIT_TICKS == 1
  98:FreeRTOS/event_groups.c **** 	#define eventCLEAR_EVENTS_ON_EXIT_BIT	0x0100U
  99:FreeRTOS/event_groups.c **** 	#define eventUNBLOCKED_DUE_TO_BIT_SET	0x0200U
 100:FreeRTOS/event_groups.c **** 	#define eventWAIT_FOR_ALL_BITS			0x0400U
 101:FreeRTOS/event_groups.c **** 	#define eventEVENT_BITS_CONTROL_BYTES	0xff00U
 102:FreeRTOS/event_groups.c **** #else
 103:FreeRTOS/event_groups.c **** 	#define eventCLEAR_EVENTS_ON_EXIT_BIT	0x01000000UL
 104:FreeRTOS/event_groups.c **** 	#define eventUNBLOCKED_DUE_TO_BIT_SET	0x02000000UL
 105:FreeRTOS/event_groups.c **** 	#define eventWAIT_FOR_ALL_BITS			0x04000000UL
 106:FreeRTOS/event_groups.c **** 	#define eventEVENT_BITS_CONTROL_BYTES	0xff000000UL
ARM GAS  /tmp/ccicK8AM.s 			page 4


 107:FreeRTOS/event_groups.c **** #endif
 108:FreeRTOS/event_groups.c **** 
 109:FreeRTOS/event_groups.c **** typedef struct xEventGroupDefinition
 110:FreeRTOS/event_groups.c **** {
 111:FreeRTOS/event_groups.c **** 	EventBits_t uxEventBits;
 112:FreeRTOS/event_groups.c **** 	List_t xTasksWaitingForBits;		/*< List of tasks waiting for a bit to be set. */
 113:FreeRTOS/event_groups.c **** 
 114:FreeRTOS/event_groups.c **** 	#if( configUSE_TRACE_FACILITY == 1 )
 115:FreeRTOS/event_groups.c **** 		UBaseT_t uxEventGroupNumber;
 116:FreeRTOS/event_groups.c **** 	#endif
 117:FreeRTOS/event_groups.c **** 
 118:FreeRTOS/event_groups.c **** } EventGroup_t;
 119:FreeRTOS/event_groups.c **** 
 120:FreeRTOS/event_groups.c **** /*-----------------------------------------------------------*/
 121:FreeRTOS/event_groups.c **** 
 122:FreeRTOS/event_groups.c **** /*
 123:FreeRTOS/event_groups.c ****  * Test the bits set in uxCurrentEventBits to see if the wait condition is met.
 124:FreeRTOS/event_groups.c ****  * The wait condition is defined by xWaitForAllBits.  If xWaitForAllBits is
 125:FreeRTOS/event_groups.c ****  * pdTRUE then the wait condition is met if all the bits set in uxBitsToWaitFor
 126:FreeRTOS/event_groups.c ****  * are also set in uxCurrentEventBits.  If xWaitForAllBits is pdFALSE then the
 127:FreeRTOS/event_groups.c ****  * wait condition is met if any of the bits set in uxBitsToWait for are also set
 128:FreeRTOS/event_groups.c ****  * in uxCurrentEventBits.
 129:FreeRTOS/event_groups.c ****  */
 130:FreeRTOS/event_groups.c **** static BaseT_t prvTestWaitCondition( const EventBits_t uxCurrentEventBits, const EventBits_t uxBits
 131:FreeRTOS/event_groups.c **** 
 132:FreeRTOS/event_groups.c **** /*-----------------------------------------------------------*/
 133:FreeRTOS/event_groups.c **** 
 134:FreeRTOS/event_groups.c **** EventGroupHandle_t xEventGroupCreate( void )
 135:FreeRTOS/event_groups.c **** {
  66              		.loc 1 135 0
  67              		.cfi_startproc
  68              		@ args = 0, pretend = 0, frame = 8
  69              		@ frame_needed = 1, uses_anonymous_args = 0
  70 0000 80B5     		push	{r7, lr}	@
  71              		.cfi_def_cfa_offset 8
  72              		.cfi_offset 7, -8
  73              		.cfi_offset 14, -4
  74 0002 82B0     		sub	sp, sp, #8	@,,
  75              		.cfi_def_cfa_offset 16
  76 0004 00AF     		add	r7, sp, #0	@,,
  77              		.cfi_def_cfa_register 7
  78              	@ FreeRTOS/event_groups.c:138: 	pxEventBits = pvPortMalloc( sizeof( EventGroup_t ) );
 136:FreeRTOS/event_groups.c **** EventGroup_t *pxEventBits;
 137:FreeRTOS/event_groups.c **** 
 138:FreeRTOS/event_groups.c **** 	pxEventBits = pvPortMalloc( sizeof( EventGroup_t ) );
  79              		.loc 1 138 0
  80 0006 1C20     		movs	r0, #28	@,
  81 0008 FFF7FEFF 		bl	pvPortMalloc	@
  82 000c 7860     		str	r0, [r7, #4]	@, pxEventBits
  83              	@ FreeRTOS/event_groups.c:139: 	if( pxEventBits != NULL )
 139:FreeRTOS/event_groups.c **** 	if( pxEventBits != NULL )
  84              		.loc 1 139 0
  85 000e 7B68     		ldr	r3, [r7, #4]	@ tmp113, pxEventBits
  86 0010 002B     		cmp	r3, #0	@ tmp113,
  87 0012 07D0     		beq	.L2	@,
  88              	@ FreeRTOS/event_groups.c:141: 		pxEventBits->uxEventBits = 0;
 140:FreeRTOS/event_groups.c **** 	{
ARM GAS  /tmp/ccicK8AM.s 			page 5


 141:FreeRTOS/event_groups.c **** 		pxEventBits->uxEventBits = 0;
  89              		.loc 1 141 0
  90 0014 7B68     		ldr	r3, [r7, #4]	@ tmp114, pxEventBits
  91 0016 0022     		movs	r2, #0	@ tmp115,
  92 0018 1A60     		str	r2, [r3]	@ tmp115, pxEventBits_5->uxEventBits
  93              	@ FreeRTOS/event_groups.c:142: 		vListInitialise( &( pxEventBits->xTasksWaitingForBits ) );
 142:FreeRTOS/event_groups.c **** 		vListInitialise( &( pxEventBits->xTasksWaitingForBits ) );
  94              		.loc 1 142 0
  95 001a 7B68     		ldr	r3, [r7, #4]	@ tmp116, pxEventBits
  96 001c 0433     		adds	r3, r3, #4	@ _1, tmp116,
  97 001e 1846     		mov	r0, r3	@, _1
  98 0020 FFF7FEFF 		bl	vListInitialise	@
  99              	.L2:
 100              	@ FreeRTOS/event_groups.c:150: 	return ( EventGroupHandle_t ) pxEventBits;
 143:FreeRTOS/event_groups.c **** 		traceEVENT_GROUP_CREATE( pxEventBits );
 144:FreeRTOS/event_groups.c **** 	}
 145:FreeRTOS/event_groups.c **** 	else
 146:FreeRTOS/event_groups.c **** 	{
 147:FreeRTOS/event_groups.c **** 		traceEVENT_GROUP_CREATE_FAILED();
 148:FreeRTOS/event_groups.c **** 	}
 149:FreeRTOS/event_groups.c **** 
 150:FreeRTOS/event_groups.c **** 	return ( EventGroupHandle_t ) pxEventBits;
 101              		.loc 1 150 0
 102 0024 7B68     		ldr	r3, [r7, #4]	@ _8, pxEventBits
 103              	@ FreeRTOS/event_groups.c:151: }
 151:FreeRTOS/event_groups.c **** }
 104              		.loc 1 151 0
 105 0026 1846     		mov	r0, r3	@, <retval>
 106 0028 0837     		adds	r7, r7, #8	@,,
 107              		.cfi_def_cfa_offset 8
 108 002a BD46     		mov	sp, r7	@,
 109              		.cfi_def_cfa_register 13
 110              		@ sp needed	@
 111 002c 80BD     		pop	{r7, pc}	@
 112              		.cfi_endproc
 113              	.LFE1:
 114              		.size	xEventGroupCreate, .-xEventGroupCreate
 115              		.section	.text.xEventGroupSync,"ax",%progbits
 116              		.align	1
 117              		.global	xEventGroupSync
 118              		.syntax unified
 119              		.thumb
 120              		.thumb_func
 121              		.fpu softvfp
 122              		.type	xEventGroupSync, %function
 123              	xEventGroupSync:
 124              	.LFB2:
 152:FreeRTOS/event_groups.c **** /*-----------------------------------------------------------*/
 153:FreeRTOS/event_groups.c **** 
 154:FreeRTOS/event_groups.c **** EventBits_t xEventGroupSync( EventGroupHandle_t xEventGroup, const EventBits_t uxBitsToSet, const E
 155:FreeRTOS/event_groups.c **** {
 125              		.loc 1 155 0
 126              		.cfi_startproc
 127              		@ args = 0, pretend = 0, frame = 40
 128              		@ frame_needed = 1, uses_anonymous_args = 0
 129 0000 80B5     		push	{r7, lr}	@
 130              		.cfi_def_cfa_offset 8
ARM GAS  /tmp/ccicK8AM.s 			page 6


 131              		.cfi_offset 7, -8
 132              		.cfi_offset 14, -4
 133 0002 8AB0     		sub	sp, sp, #40	@,,
 134              		.cfi_def_cfa_offset 48
 135 0004 00AF     		add	r7, sp, #0	@,,
 136              		.cfi_def_cfa_register 7
 137 0006 F860     		str	r0, [r7, #12]	@ xEventGroup, xEventGroup
 138 0008 B960     		str	r1, [r7, #8]	@ uxBitsToSet, uxBitsToSet
 139 000a 7A60     		str	r2, [r7, #4]	@ uxBitsToWaitFor, uxBitsToWaitFor
 140 000c 3B60     		str	r3, [r7]	@ xTicksToWait, xTicksToWait
 141              	@ FreeRTOS/event_groups.c:157: EventGroup_t *pxEventBits = ( EventGroup_t * ) xEventGroup;
 156:FreeRTOS/event_groups.c **** EventBits_t uxOriginalBitValue, uxReturn;
 157:FreeRTOS/event_groups.c **** EventGroup_t *pxEventBits = ( EventGroup_t * ) xEventGroup;
 142              		.loc 1 157 0
 143 000e FB68     		ldr	r3, [r7, #12]	@ tmp125, xEventGroup
 144 0010 3B62     		str	r3, [r7, #32]	@ tmp125, pxEventBits
 145              	@ FreeRTOS/event_groups.c:159: BaseT_t xTimeoutOccurred = pdFALSE;
 158:FreeRTOS/event_groups.c **** BaseT_t xAlreadyYielded;
 159:FreeRTOS/event_groups.c **** BaseT_t xTimeoutOccurred = pdFALSE;
 146              		.loc 1 159 0
 147 0012 0023     		movs	r3, #0	@ tmp126,
 148 0014 FB61     		str	r3, [r7, #28]	@ tmp126, xTimeoutOccurred
 149              	@ FreeRTOS/event_groups.c:161: 	configASSERT( ( uxBitsToWaitFor & eventEVENT_BITS_CONTROL_BYTES ) =
 160:FreeRTOS/event_groups.c **** 
 161:FreeRTOS/event_groups.c **** 	configASSERT( ( uxBitsToWaitFor & eventEVENT_BITS_CONTROL_BYTES ) == 0 );
 150              		.loc 1 161 0
 151 0016 7B68     		ldr	r3, [r7, #4]	@ tmp127, uxBitsToWaitFor
 152 0018 03F07F43 		and	r3, r3, #-16777216	@ _1, tmp127,
 153 001c 002B     		cmp	r3, #0	@ _1,
 154 001e 02D0     		beq	.L5	@,
 155              	@ FreeRTOS/event_groups.c:161: 	configASSERT( ( uxBitsToWaitFor & eventEVENT_BITS_CONTROL_BYTES ) =
 156              		.loc 1 161 0 is_stmt 0 discriminator 1
 157 0020 FFF7FEFF 		bl	ulPortSetInterruptMask	@
 158              	.L6:
 159 0024 FEE7     		b	.L6	@
 160              	.L5:
 161              	@ FreeRTOS/event_groups.c:162: 	configASSERT( uxBitsToWaitFor != 0 );
 162:FreeRTOS/event_groups.c **** 	configASSERT( uxBitsToWaitFor != 0 );
 162              		.loc 1 162 0 is_stmt 1
 163 0026 7B68     		ldr	r3, [r7, #4]	@ tmp128, uxBitsToWaitFor
 164 0028 002B     		cmp	r3, #0	@ tmp128,
 165 002a 02D1     		bne	.L7	@,
 166              	@ FreeRTOS/event_groups.c:162: 	configASSERT( uxBitsToWaitFor != 0 );
 167              		.loc 1 162 0 is_stmt 0 discriminator 1
 168 002c FFF7FEFF 		bl	ulPortSetInterruptMask	@
 169              	.L8:
 170              	@ FreeRTOS/event_groups.c:162: 	configASSERT( uxBitsToWaitFor != 0 );
 171              		.loc 1 162 0 discriminator 2
 172 0030 FEE7     		b	.L8	@
 173              	.L7:
 174              	@ FreeRTOS/event_groups.c:169: 	vTaskSuspendAll();
 163:FreeRTOS/event_groups.c **** 	#if ( ( INCLUDE_xTaskGetSchedulerState == 1 ) || ( configUSE_TIMERS == 1 ) )
 164:FreeRTOS/event_groups.c **** 	{
 165:FreeRTOS/event_groups.c **** 		configASSERT( !( ( xTaskGetSchedulerState() == taskSCHEDULER_SUSPENDED ) && ( xTicksToWait != 0 )
 166:FreeRTOS/event_groups.c **** 	}
 167:FreeRTOS/event_groups.c **** 	#endif
 168:FreeRTOS/event_groups.c **** 
ARM GAS  /tmp/ccicK8AM.s 			page 7


 169:FreeRTOS/event_groups.c **** 	vTaskSuspendAll();
 175              		.loc 1 169 0 is_stmt 1
 176 0032 FFF7FEFF 		bl	vTaskSuspendAll	@
 177              	@ FreeRTOS/event_groups.c:171: 		uxOriginalBitValue = pxEventBits->uxEventBits;
 170:FreeRTOS/event_groups.c **** 	{
 171:FreeRTOS/event_groups.c **** 		uxOriginalBitValue = pxEventBits->uxEventBits;
 178              		.loc 1 171 0
 179 0036 3B6A     		ldr	r3, [r7, #32]	@ tmp129, pxEventBits
 180 0038 1B68     		ldr	r3, [r3]	@ tmp130, pxEventBits_24->uxEventBits
 181 003a BB61     		str	r3, [r7, #24]	@ tmp130, uxOriginalBitValue
 182              	@ FreeRTOS/event_groups.c:173: 		( void ) xEventGroupSetBits( xEventGroup, uxBitsToSet );
 172:FreeRTOS/event_groups.c **** 
 173:FreeRTOS/event_groups.c **** 		( void ) xEventGroupSetBits( xEventGroup, uxBitsToSet );
 183              		.loc 1 173 0
 184 003c B968     		ldr	r1, [r7, #8]	@, uxBitsToSet
 185 003e F868     		ldr	r0, [r7, #12]	@, xEventGroup
 186 0040 FFF7FEFF 		bl	xEventGroupSetBits	@
 187              	@ FreeRTOS/event_groups.c:175: 		if( ( ( uxOriginalBitValue | uxBitsToSet ) & uxBitsToWaitFor ) == 
 174:FreeRTOS/event_groups.c **** 
 175:FreeRTOS/event_groups.c **** 		if( ( ( uxOriginalBitValue | uxBitsToSet ) & uxBitsToWaitFor ) == uxBitsToWaitFor )
 188              		.loc 1 175 0
 189 0044 BA69     		ldr	r2, [r7, #24]	@ tmp131, uxOriginalBitValue
 190 0046 BB68     		ldr	r3, [r7, #8]	@ tmp132, uxBitsToSet
 191 0048 1A43     		orrs	r2, r2, r3	@, _2, tmp131, tmp132
 192 004a 7B68     		ldr	r3, [r7, #4]	@ tmp133, uxBitsToWaitFor
 193 004c 1340     		ands	r3, r3, r2	@, _3, tmp133, _2
 194 004e 7A68     		ldr	r2, [r7, #4]	@ tmp134, uxBitsToWaitFor
 195 0050 9A42     		cmp	r2, r3	@ tmp134, _3
 196 0052 0DD1     		bne	.L9	@,
 197              	@ FreeRTOS/event_groups.c:178: 			uxReturn = ( uxOriginalBitValue | uxBitsToSet );
 176:FreeRTOS/event_groups.c **** 		{
 177:FreeRTOS/event_groups.c **** 			/* All the rendezvous bits are now set - no need to block. */
 178:FreeRTOS/event_groups.c **** 			uxReturn = ( uxOriginalBitValue | uxBitsToSet );
 198              		.loc 1 178 0
 199 0054 BA69     		ldr	r2, [r7, #24]	@ tmp136, uxOriginalBitValue
 200 0056 BB68     		ldr	r3, [r7, #8]	@ tmp137, uxBitsToSet
 201 0058 1343     		orrs	r3, r3, r2	@, tmp135, tmp137, tmp136
 202 005a 7B62     		str	r3, [r7, #36]	@ tmp135, uxReturn
 203              	@ FreeRTOS/event_groups.c:182: 			pxEventBits->uxEventBits &= ~uxBitsToWaitFor;
 179:FreeRTOS/event_groups.c **** 
 180:FreeRTOS/event_groups.c **** 			/* Rendezvous always clear the bits.  They will have been cleared
 181:FreeRTOS/event_groups.c **** 			already unless this is the only task in the rendezvous. */
 182:FreeRTOS/event_groups.c **** 			pxEventBits->uxEventBits &= ~uxBitsToWaitFor;
 204              		.loc 1 182 0
 205 005c 3B6A     		ldr	r3, [r7, #32]	@ tmp138, pxEventBits
 206 005e 1A68     		ldr	r2, [r3]	@ _4, pxEventBits_24->uxEventBits
 207 0060 7B68     		ldr	r3, [r7, #4]	@ tmp139, uxBitsToWaitFor
 208 0062 DB43     		mvns	r3, r3	@ _5, tmp139
 209 0064 1A40     		ands	r2, r2, r3	@, _6, _4, _5
 210 0066 3B6A     		ldr	r3, [r7, #32]	@ tmp140, pxEventBits
 211 0068 1A60     		str	r2, [r3]	@ _6, pxEventBits_24->uxEventBits
 212              	@ FreeRTOS/event_groups.c:184: 			xTicksToWait = 0;
 183:FreeRTOS/event_groups.c **** 
 184:FreeRTOS/event_groups.c **** 			xTicksToWait = 0;
 213              		.loc 1 184 0
 214 006a 0023     		movs	r3, #0	@ tmp141,
 215 006c 3B60     		str	r3, [r7]	@ tmp141, xTicksToWait
ARM GAS  /tmp/ccicK8AM.s 			page 8


 216 006e 11E0     		b	.L10	@
 217              	.L9:
 218              	@ FreeRTOS/event_groups.c:188: 			if( xTicksToWait != ( TickT_t ) 0 )
 185:FreeRTOS/event_groups.c **** 		}
 186:FreeRTOS/event_groups.c **** 		else
 187:FreeRTOS/event_groups.c **** 		{
 188:FreeRTOS/event_groups.c **** 			if( xTicksToWait != ( TickT_t ) 0 )
 219              		.loc 1 188 0
 220 0070 3B68     		ldr	r3, [r7]	@ tmp142, xTicksToWait
 221 0072 002B     		cmp	r3, #0	@ tmp142,
 222 0074 0BD0     		beq	.L11	@,
 223              	@ FreeRTOS/event_groups.c:195: 				vTaskPlaceOnUnorderedEventList( &( pxEventBits->xTasksWaitingFor
 189:FreeRTOS/event_groups.c **** 			{
 190:FreeRTOS/event_groups.c **** 				traceEVENT_GROUP_SYNC_BLOCK( xEventGroup, uxBitsToSet, uxBitsToWaitFor );
 191:FreeRTOS/event_groups.c **** 
 192:FreeRTOS/event_groups.c **** 				/* Store the bits that the calling task is waiting for in the
 193:FreeRTOS/event_groups.c **** 				task's event list item so the kernel knows when a match is
 194:FreeRTOS/event_groups.c **** 				found.  Then enter the blocked state. */
 195:FreeRTOS/event_groups.c **** 				vTaskPlaceOnUnorderedEventList( &( pxEventBits->xTasksWaitingForBits ), ( uxBitsToWaitFor | eve
 224              		.loc 1 195 0
 225 0076 3B6A     		ldr	r3, [r7, #32]	@ tmp143, pxEventBits
 226 0078 181D     		adds	r0, r3, #4	@ _7, tmp143,
 227 007a 7B68     		ldr	r3, [r7, #4]	@ tmp144, uxBitsToWaitFor
 228 007c 43F0A063 		orr	r3, r3, #83886080	@ _8, tmp144,
 229 0080 3A68     		ldr	r2, [r7]	@, xTicksToWait
 230 0082 1946     		mov	r1, r3	@, _8
 231 0084 FFF7FEFF 		bl	vTaskPlaceOnUnorderedEventList	@
 232              	@ FreeRTOS/event_groups.c:201: 				uxReturn = 0;
 196:FreeRTOS/event_groups.c **** 
 197:FreeRTOS/event_groups.c **** 				/* This assignment is obsolete as uxReturn will get set after
 198:FreeRTOS/event_groups.c **** 				the task unblocks, but some compilers mistakenly generate a
 199:FreeRTOS/event_groups.c **** 				warning about uxReturn being returned without being set if the
 200:FreeRTOS/event_groups.c **** 				assignment is omitted. */
 201:FreeRTOS/event_groups.c **** 				uxReturn = 0;
 233              		.loc 1 201 0
 234 0088 0023     		movs	r3, #0	@ tmp145,
 235 008a 7B62     		str	r3, [r7, #36]	@ tmp145, uxReturn
 236 008c 02E0     		b	.L10	@
 237              	.L11:
 238              	@ FreeRTOS/event_groups.c:207: 				uxReturn = pxEventBits->uxEventBits;
 202:FreeRTOS/event_groups.c **** 			}
 203:FreeRTOS/event_groups.c **** 			else
 204:FreeRTOS/event_groups.c **** 			{
 205:FreeRTOS/event_groups.c **** 				/* The rendezvous bits were not set, but no block time was
 206:FreeRTOS/event_groups.c **** 				specified - just return the current event bit value. */
 207:FreeRTOS/event_groups.c **** 				uxReturn = pxEventBits->uxEventBits;
 239              		.loc 1 207 0
 240 008e 3B6A     		ldr	r3, [r7, #32]	@ tmp146, pxEventBits
 241 0090 1B68     		ldr	r3, [r3]	@ tmp147, pxEventBits_24->uxEventBits
 242 0092 7B62     		str	r3, [r7, #36]	@ tmp147, uxReturn
 243              	.L10:
 244              	@ FreeRTOS/event_groups.c:211: 	xAlreadyYielded = xTaskResumeAll();
 208:FreeRTOS/event_groups.c **** 			}
 209:FreeRTOS/event_groups.c **** 		}
 210:FreeRTOS/event_groups.c **** 	}
 211:FreeRTOS/event_groups.c **** 	xAlreadyYielded = xTaskResumeAll();
 245              		.loc 1 211 0
ARM GAS  /tmp/ccicK8AM.s 			page 9


 246 0094 FFF7FEFF 		bl	xTaskResumeAll	@
 247 0098 7861     		str	r0, [r7, #20]	@, xAlreadyYielded
 248              	@ FreeRTOS/event_groups.c:213: 	if( xTicksToWait != ( TickT_t ) 0 )
 212:FreeRTOS/event_groups.c **** 
 213:FreeRTOS/event_groups.c **** 	if( xTicksToWait != ( TickT_t ) 0 )
 249              		.loc 1 213 0
 250 009a 3B68     		ldr	r3, [r7]	@ tmp148, xTicksToWait
 251 009c 002B     		cmp	r3, #0	@ tmp148,
 252 009e 26D0     		beq	.L12	@,
 253              	@ FreeRTOS/event_groups.c:215: 		if( xAlreadyYielded == pdFALSE )
 214:FreeRTOS/event_groups.c **** 	{
 215:FreeRTOS/event_groups.c **** 		if( xAlreadyYielded == pdFALSE )
 254              		.loc 1 215 0
 255 00a0 7B69     		ldr	r3, [r7, #20]	@ tmp149, xAlreadyYielded
 256 00a2 002B     		cmp	r3, #0	@ tmp149,
 257 00a4 01D1     		bne	.L13	@,
 258              	@ FreeRTOS/event_groups.c:217: 			portYIELD_WITHIN_API();
 216:FreeRTOS/event_groups.c **** 		{
 217:FreeRTOS/event_groups.c **** 			portYIELD_WITHIN_API();
 259              		.loc 1 217 0
 260 00a6 FFF7FEFF 		bl	vPortYield	@
 261              	.L13:
 262              	@ FreeRTOS/event_groups.c:228: 		uxReturn = uxTaskResetEventItemValue();
 218:FreeRTOS/event_groups.c **** 		}
 219:FreeRTOS/event_groups.c **** 		else
 220:FreeRTOS/event_groups.c **** 		{
 221:FreeRTOS/event_groups.c **** 			mtCOVERAGE_TEST_MARKER();
 222:FreeRTOS/event_groups.c **** 		}
 223:FreeRTOS/event_groups.c **** 
 224:FreeRTOS/event_groups.c **** 		/* The task blocked to wait for its required bits to be set - at this
 225:FreeRTOS/event_groups.c **** 		point either the required bits were set or the block time expired.  If
 226:FreeRTOS/event_groups.c **** 		the required bits were set they will have been stored in the task's
 227:FreeRTOS/event_groups.c **** 		event list item, and they should now be retrieved then cleared. */
 228:FreeRTOS/event_groups.c **** 		uxReturn = uxTaskResetEventItemValue();
 263              		.loc 1 228 0
 264 00aa FFF7FEFF 		bl	uxTaskResetEventItemValue	@
 265 00ae 7862     		str	r0, [r7, #36]	@, uxReturn
 266              	@ FreeRTOS/event_groups.c:230: 		if( ( uxReturn & eventUNBLOCKED_DUE_TO_BIT_SET ) == ( EventBits_t 
 229:FreeRTOS/event_groups.c **** 
 230:FreeRTOS/event_groups.c **** 		if( ( uxReturn & eventUNBLOCKED_DUE_TO_BIT_SET ) == ( EventBits_t ) 0 )
 267              		.loc 1 230 0
 268 00b0 7B6A     		ldr	r3, [r7, #36]	@ tmp150, uxReturn
 269 00b2 03F00073 		and	r3, r3, #33554432	@ _9, tmp150,
 270 00b6 002B     		cmp	r3, #0	@ _9,
 271 00b8 15D1     		bne	.L14	@,
 272              	@ FreeRTOS/event_groups.c:233: 			taskENTER_CRITICAL();
 231:FreeRTOS/event_groups.c **** 		{
 232:FreeRTOS/event_groups.c **** 			/* The task timed out, just return the current event bit value. */
 233:FreeRTOS/event_groups.c **** 			taskENTER_CRITICAL();
 273              		.loc 1 233 0
 274 00ba FFF7FEFF 		bl	vPortEnterCritical	@
 275              	@ FreeRTOS/event_groups.c:235: 				uxReturn = pxEventBits->uxEventBits;
 234:FreeRTOS/event_groups.c **** 			{
 235:FreeRTOS/event_groups.c **** 				uxReturn = pxEventBits->uxEventBits;
 276              		.loc 1 235 0
 277 00be 3B6A     		ldr	r3, [r7, #32]	@ tmp151, pxEventBits
 278 00c0 1B68     		ldr	r3, [r3]	@ tmp152, pxEventBits_24->uxEventBits
ARM GAS  /tmp/ccicK8AM.s 			page 10


 279 00c2 7B62     		str	r3, [r7, #36]	@ tmp152, uxReturn
 280              	@ FreeRTOS/event_groups.c:241: 				if( ( uxReturn & uxBitsToWaitFor ) == uxBitsToWaitFor )
 236:FreeRTOS/event_groups.c **** 
 237:FreeRTOS/event_groups.c **** 				/* Although the task got here because it timed out before the
 238:FreeRTOS/event_groups.c **** 				bits it was waiting for were set, it is possible that since it
 239:FreeRTOS/event_groups.c **** 				unblocked another task has set the bits.  If this is the case
 240:FreeRTOS/event_groups.c **** 				then it needs to clear the bits before exiting. */
 241:FreeRTOS/event_groups.c **** 				if( ( uxReturn & uxBitsToWaitFor ) == uxBitsToWaitFor )
 281              		.loc 1 241 0
 282 00c4 7A6A     		ldr	r2, [r7, #36]	@ tmp153, uxReturn
 283 00c6 7B68     		ldr	r3, [r7, #4]	@ tmp154, uxBitsToWaitFor
 284 00c8 1340     		ands	r3, r3, r2	@, _10, tmp154, tmp153
 285 00ca 7A68     		ldr	r2, [r7, #4]	@ tmp155, uxBitsToWaitFor
 286 00cc 9A42     		cmp	r2, r3	@ tmp155, _10
 287 00ce 06D1     		bne	.L15	@,
 288              	@ FreeRTOS/event_groups.c:243: 					pxEventBits->uxEventBits &= ~uxBitsToWaitFor;
 242:FreeRTOS/event_groups.c **** 				{
 243:FreeRTOS/event_groups.c **** 					pxEventBits->uxEventBits &= ~uxBitsToWaitFor;
 289              		.loc 1 243 0
 290 00d0 3B6A     		ldr	r3, [r7, #32]	@ tmp156, pxEventBits
 291 00d2 1A68     		ldr	r2, [r3]	@ _11, pxEventBits_24->uxEventBits
 292 00d4 7B68     		ldr	r3, [r7, #4]	@ tmp157, uxBitsToWaitFor
 293 00d6 DB43     		mvns	r3, r3	@ _12, tmp157
 294 00d8 1A40     		ands	r2, r2, r3	@, _13, _11, _12
 295 00da 3B6A     		ldr	r3, [r7, #32]	@ tmp158, pxEventBits
 296 00dc 1A60     		str	r2, [r3]	@ _13, pxEventBits_24->uxEventBits
 297              	.L15:
 298              	@ FreeRTOS/event_groups.c:250: 			taskEXIT_CRITICAL();
 244:FreeRTOS/event_groups.c **** 				}
 245:FreeRTOS/event_groups.c **** 				else
 246:FreeRTOS/event_groups.c **** 				{
 247:FreeRTOS/event_groups.c **** 					mtCOVERAGE_TEST_MARKER();
 248:FreeRTOS/event_groups.c **** 				}
 249:FreeRTOS/event_groups.c **** 			}
 250:FreeRTOS/event_groups.c **** 			taskEXIT_CRITICAL();
 299              		.loc 1 250 0
 300 00de FFF7FEFF 		bl	vPortExitCritical	@
 301              	@ FreeRTOS/event_groups.c:252: 			xTimeoutOccurred = pdTRUE;
 251:FreeRTOS/event_groups.c **** 
 252:FreeRTOS/event_groups.c **** 			xTimeoutOccurred = pdTRUE;
 302              		.loc 1 252 0
 303 00e2 0123     		movs	r3, #1	@ tmp159,
 304 00e4 FB61     		str	r3, [r7, #28]	@ tmp159, xTimeoutOccurred
 305              	.L14:
 306              	@ FreeRTOS/event_groups.c:261: 		uxReturn &= ~eventEVENT_BITS_CONTROL_BYTES;
 253:FreeRTOS/event_groups.c **** 		}
 254:FreeRTOS/event_groups.c **** 		else
 255:FreeRTOS/event_groups.c **** 		{
 256:FreeRTOS/event_groups.c **** 			/* The task unblocked because the bits were set. */
 257:FreeRTOS/event_groups.c **** 		}
 258:FreeRTOS/event_groups.c **** 
 259:FreeRTOS/event_groups.c **** 		/* Control bits might be set as the task had blocked should not be
 260:FreeRTOS/event_groups.c **** 		returned. */
 261:FreeRTOS/event_groups.c **** 		uxReturn &= ~eventEVENT_BITS_CONTROL_BYTES;
 307              		.loc 1 261 0
 308 00e6 7B6A     		ldr	r3, [r7, #36]	@ tmp161, uxReturn
 309 00e8 23F07F43 		bic	r3, r3, #-16777216	@ tmp160, tmp161,
ARM GAS  /tmp/ccicK8AM.s 			page 11


 310 00ec 7B62     		str	r3, [r7, #36]	@ tmp160, uxReturn
 311              	.L12:
 312              	@ FreeRTOS/event_groups.c:266: 	return uxReturn;
 262:FreeRTOS/event_groups.c **** 	}
 263:FreeRTOS/event_groups.c **** 
 264:FreeRTOS/event_groups.c **** 	traceEVENT_GROUP_SYNC_END( xEventGroup, uxBitsToSet, uxBitsToWaitFor, xTimeoutOccurred );
 265:FreeRTOS/event_groups.c **** 
 266:FreeRTOS/event_groups.c **** 	return uxReturn;
 313              		.loc 1 266 0
 314 00ee 7B6A     		ldr	r3, [r7, #36]	@ _50, uxReturn
 315              	@ FreeRTOS/event_groups.c:267: }
 267:FreeRTOS/event_groups.c **** }
 316              		.loc 1 267 0
 317 00f0 1846     		mov	r0, r3	@, <retval>
 318 00f2 2837     		adds	r7, r7, #40	@,,
 319              		.cfi_def_cfa_offset 8
 320 00f4 BD46     		mov	sp, r7	@,
 321              		.cfi_def_cfa_register 13
 322              		@ sp needed	@
 323 00f6 80BD     		pop	{r7, pc}	@
 324              		.cfi_endproc
 325              	.LFE2:
 326              		.size	xEventGroupSync, .-xEventGroupSync
 327              		.section	.text.xEventGroupWaitBits,"ax",%progbits
 328              		.align	1
 329              		.global	xEventGroupWaitBits
 330              		.syntax unified
 331              		.thumb
 332              		.thumb_func
 333              		.fpu softvfp
 334              		.type	xEventGroupWaitBits, %function
 335              	xEventGroupWaitBits:
 336              	.LFB3:
 268:FreeRTOS/event_groups.c **** /*-----------------------------------------------------------*/
 269:FreeRTOS/event_groups.c **** 
 270:FreeRTOS/event_groups.c **** EventBits_t xEventGroupWaitBits( EventGroupHandle_t xEventGroup, const EventBits_t uxBitsToWaitFor,
 271:FreeRTOS/event_groups.c **** {
 337              		.loc 1 271 0
 338              		.cfi_startproc
 339              		@ args = 4, pretend = 0, frame = 48
 340              		@ frame_needed = 1, uses_anonymous_args = 0
 341 0000 80B5     		push	{r7, lr}	@
 342              		.cfi_def_cfa_offset 8
 343              		.cfi_offset 7, -8
 344              		.cfi_offset 14, -4
 345 0002 8CB0     		sub	sp, sp, #48	@,,
 346              		.cfi_def_cfa_offset 56
 347 0004 00AF     		add	r7, sp, #0	@,,
 348              		.cfi_def_cfa_register 7
 349 0006 F860     		str	r0, [r7, #12]	@ xEventGroup, xEventGroup
 350 0008 B960     		str	r1, [r7, #8]	@ uxBitsToWaitFor, uxBitsToWaitFor
 351 000a 7A60     		str	r2, [r7, #4]	@ xClearOnExit, xClearOnExit
 352 000c 3B60     		str	r3, [r7]	@ xWaitForAllBits, xWaitForAllBits
 353              	@ FreeRTOS/event_groups.c:272: EventGroup_t *pxEventBits = ( EventGroup_t * ) xEventGroup;
 272:FreeRTOS/event_groups.c **** EventGroup_t *pxEventBits = ( EventGroup_t * ) xEventGroup;
 354              		.loc 1 272 0
 355 000e FB68     		ldr	r3, [r7, #12]	@ tmp123, xEventGroup
ARM GAS  /tmp/ccicK8AM.s 			page 12


 356 0010 7B62     		str	r3, [r7, #36]	@ tmp123, pxEventBits
 357              	@ FreeRTOS/event_groups.c:273: EventBits_t uxReturn, uxControlBits = 0;
 273:FreeRTOS/event_groups.c **** EventBits_t uxReturn, uxControlBits = 0;
 358              		.loc 1 273 0
 359 0012 0023     		movs	r3, #0	@ tmp124,
 360 0014 BB62     		str	r3, [r7, #40]	@ tmp124, uxControlBits
 361              	@ FreeRTOS/event_groups.c:275: BaseT_t xTimeoutOccurred = pdFALSE;
 274:FreeRTOS/event_groups.c **** BaseT_t xWaitConditionMet, xAlreadyYielded;
 275:FreeRTOS/event_groups.c **** BaseT_t xTimeoutOccurred = pdFALSE;
 362              		.loc 1 275 0
 363 0016 0023     		movs	r3, #0	@ tmp125,
 364 0018 3B62     		str	r3, [r7, #32]	@ tmp125, xTimeoutOccurred
 365              	@ FreeRTOS/event_groups.c:279: 	configASSERT( ( uxBitsToWaitFor & eventEVENT_BITS_CONTROL_BYTES ) =
 276:FreeRTOS/event_groups.c **** 
 277:FreeRTOS/event_groups.c **** 	/* Check the user is not attempting to wait on the bits used by the kernel
 278:FreeRTOS/event_groups.c **** 	itself, and that at least one bit is being requested. */
 279:FreeRTOS/event_groups.c **** 	configASSERT( ( uxBitsToWaitFor & eventEVENT_BITS_CONTROL_BYTES ) == 0 );
 366              		.loc 1 279 0
 367 001a BB68     		ldr	r3, [r7, #8]	@ tmp126, uxBitsToWaitFor
 368 001c 03F07F43 		and	r3, r3, #-16777216	@ _1, tmp126,
 369 0020 002B     		cmp	r3, #0	@ _1,
 370 0022 02D0     		beq	.L18	@,
 371              	@ FreeRTOS/event_groups.c:279: 	configASSERT( ( uxBitsToWaitFor & eventEVENT_BITS_CONTROL_BYTES ) =
 372              		.loc 1 279 0 is_stmt 0 discriminator 1
 373 0024 FFF7FEFF 		bl	ulPortSetInterruptMask	@
 374              	.L19:
 375 0028 FEE7     		b	.L19	@
 376              	.L18:
 377              	@ FreeRTOS/event_groups.c:280: 	configASSERT( uxBitsToWaitFor != 0 );
 280:FreeRTOS/event_groups.c **** 	configASSERT( uxBitsToWaitFor != 0 );
 378              		.loc 1 280 0 is_stmt 1
 379 002a BB68     		ldr	r3, [r7, #8]	@ tmp127, uxBitsToWaitFor
 380 002c 002B     		cmp	r3, #0	@ tmp127,
 381 002e 02D1     		bne	.L20	@,
 382              	@ FreeRTOS/event_groups.c:280: 	configASSERT( uxBitsToWaitFor != 0 );
 383              		.loc 1 280 0 is_stmt 0 discriminator 1
 384 0030 FFF7FEFF 		bl	ulPortSetInterruptMask	@
 385              	.L21:
 386              	@ FreeRTOS/event_groups.c:280: 	configASSERT( uxBitsToWaitFor != 0 );
 387              		.loc 1 280 0 discriminator 2
 388 0034 FEE7     		b	.L21	@
 389              	.L20:
 390              	@ FreeRTOS/event_groups.c:287: 	vTaskSuspendAll();
 281:FreeRTOS/event_groups.c **** 	#if ( ( INCLUDE_xTaskGetSchedulerState == 1 ) || ( configUSE_TIMERS == 1 ) )
 282:FreeRTOS/event_groups.c **** 	{
 283:FreeRTOS/event_groups.c **** 		configASSERT( !( ( xTaskGetSchedulerState() == taskSCHEDULER_SUSPENDED ) && ( xTicksToWait != 0 )
 284:FreeRTOS/event_groups.c **** 	}
 285:FreeRTOS/event_groups.c **** 	#endif
 286:FreeRTOS/event_groups.c **** 
 287:FreeRTOS/event_groups.c **** 	vTaskSuspendAll();
 391              		.loc 1 287 0 is_stmt 1
 392 0036 FFF7FEFF 		bl	vTaskSuspendAll	@
 393              	.LBB2:
 394              	@ FreeRTOS/event_groups.c:289: 		const EventBits_t uxCurrentEventBits = pxEventBits->uxEventBits;
 288:FreeRTOS/event_groups.c **** 	{
 289:FreeRTOS/event_groups.c **** 		const EventBits_t uxCurrentEventBits = pxEventBits->uxEventBits;
 395              		.loc 1 289 0
ARM GAS  /tmp/ccicK8AM.s 			page 13


 396 003a 7B6A     		ldr	r3, [r7, #36]	@ tmp128, pxEventBits
 397 003c 1B68     		ldr	r3, [r3]	@ tmp129, pxEventBits_24->uxEventBits
 398 003e FB61     		str	r3, [r7, #28]	@ tmp129, uxCurrentEventBits
 399              	@ FreeRTOS/event_groups.c:292: 		xWaitConditionMet = prvTestWaitCondition( uxCurrentEventBits, uxBi
 290:FreeRTOS/event_groups.c **** 
 291:FreeRTOS/event_groups.c **** 		/* Check to see if the wait condition is already met or not. */
 292:FreeRTOS/event_groups.c **** 		xWaitConditionMet = prvTestWaitCondition( uxCurrentEventBits, uxBitsToWaitFor, xWaitForAllBits );
 400              		.loc 1 292 0
 401 0040 3A68     		ldr	r2, [r7]	@, xWaitForAllBits
 402 0042 B968     		ldr	r1, [r7, #8]	@, uxBitsToWaitFor
 403 0044 F869     		ldr	r0, [r7, #28]	@, uxCurrentEventBits
 404 0046 FFF7FEFF 		bl	prvTestWaitCondition	@
 405 004a B861     		str	r0, [r7, #24]	@, xWaitConditionMet
 406              	@ FreeRTOS/event_groups.c:294: 		if( xWaitConditionMet != pdFALSE )
 293:FreeRTOS/event_groups.c **** 
 294:FreeRTOS/event_groups.c **** 		if( xWaitConditionMet != pdFALSE )
 407              		.loc 1 294 0
 408 004c BB69     		ldr	r3, [r7, #24]	@ tmp130, xWaitConditionMet
 409 004e 002B     		cmp	r3, #0	@ tmp130,
 410 0050 0ED0     		beq	.L22	@,
 411              	@ FreeRTOS/event_groups.c:298: 			uxReturn = uxCurrentEventBits;
 295:FreeRTOS/event_groups.c **** 		{
 296:FreeRTOS/event_groups.c **** 			/* The wait condition has already been met so there is no need to
 297:FreeRTOS/event_groups.c **** 			block. */
 298:FreeRTOS/event_groups.c **** 			uxReturn = uxCurrentEventBits;
 412              		.loc 1 298 0
 413 0052 FB69     		ldr	r3, [r7, #28]	@ tmp131, uxCurrentEventBits
 414 0054 FB62     		str	r3, [r7, #44]	@ tmp131, uxReturn
 415              	@ FreeRTOS/event_groups.c:299: 			xTicksToWait = ( TickT_t ) 0;
 299:FreeRTOS/event_groups.c **** 			xTicksToWait = ( TickT_t ) 0;
 416              		.loc 1 299 0
 417 0056 0023     		movs	r3, #0	@ tmp132,
 418 0058 BB63     		str	r3, [r7, #56]	@ tmp132, xTicksToWait
 419              	@ FreeRTOS/event_groups.c:302: 			if( xClearOnExit != pdFALSE )
 300:FreeRTOS/event_groups.c **** 
 301:FreeRTOS/event_groups.c **** 			/* Clear the wait bits if requested to do so. */
 302:FreeRTOS/event_groups.c **** 			if( xClearOnExit != pdFALSE )
 420              		.loc 1 302 0
 421 005a 7B68     		ldr	r3, [r7, #4]	@ tmp133, xClearOnExit
 422 005c 002B     		cmp	r3, #0	@ tmp133,
 423 005e 26D0     		beq	.L23	@,
 424              	@ FreeRTOS/event_groups.c:304: 				pxEventBits->uxEventBits &= ~uxBitsToWaitFor;
 303:FreeRTOS/event_groups.c **** 			{
 304:FreeRTOS/event_groups.c **** 				pxEventBits->uxEventBits &= ~uxBitsToWaitFor;
 425              		.loc 1 304 0
 426 0060 7B6A     		ldr	r3, [r7, #36]	@ tmp134, pxEventBits
 427 0062 1A68     		ldr	r2, [r3]	@ _2, pxEventBits_24->uxEventBits
 428 0064 BB68     		ldr	r3, [r7, #8]	@ tmp135, uxBitsToWaitFor
 429 0066 DB43     		mvns	r3, r3	@ _3, tmp135
 430 0068 1A40     		ands	r2, r2, r3	@, _4, _2, _3
 431 006a 7B6A     		ldr	r3, [r7, #36]	@ tmp136, pxEventBits
 432 006c 1A60     		str	r2, [r3]	@ _4, pxEventBits_24->uxEventBits
 433 006e 1EE0     		b	.L23	@
 434              	.L22:
 435              	@ FreeRTOS/event_groups.c:311: 		else if( xTicksToWait == ( TickT_t ) 0 )
 305:FreeRTOS/event_groups.c **** 			}
 306:FreeRTOS/event_groups.c **** 			else
ARM GAS  /tmp/ccicK8AM.s 			page 14


 307:FreeRTOS/event_groups.c **** 			{
 308:FreeRTOS/event_groups.c **** 				mtCOVERAGE_TEST_MARKER();
 309:FreeRTOS/event_groups.c **** 			}
 310:FreeRTOS/event_groups.c **** 		}
 311:FreeRTOS/event_groups.c **** 		else if( xTicksToWait == ( TickT_t ) 0 )
 436              		.loc 1 311 0
 437 0070 BB6B     		ldr	r3, [r7, #56]	@ tmp137, xTicksToWait
 438 0072 002B     		cmp	r3, #0	@ tmp137,
 439 0074 02D1     		bne	.L24	@,
 440              	@ FreeRTOS/event_groups.c:315: 			uxReturn = uxCurrentEventBits;
 312:FreeRTOS/event_groups.c **** 		{
 313:FreeRTOS/event_groups.c **** 			/* The wait condition has not been met, but no block time was
 314:FreeRTOS/event_groups.c **** 			specified, so just return the current value. */
 315:FreeRTOS/event_groups.c **** 			uxReturn = uxCurrentEventBits;
 441              		.loc 1 315 0
 442 0076 FB69     		ldr	r3, [r7, #28]	@ tmp138, uxCurrentEventBits
 443 0078 FB62     		str	r3, [r7, #44]	@ tmp138, uxReturn
 444 007a 18E0     		b	.L23	@
 445              	.L24:
 446              	@ FreeRTOS/event_groups.c:323: 			if( xClearOnExit != pdFALSE )
 316:FreeRTOS/event_groups.c **** 		}
 317:FreeRTOS/event_groups.c **** 		else
 318:FreeRTOS/event_groups.c **** 		{
 319:FreeRTOS/event_groups.c **** 			/* The task is going to block to wait for its required bits to be
 320:FreeRTOS/event_groups.c **** 			set.  uxControlBits are used to remember the specified behaviour of
 321:FreeRTOS/event_groups.c **** 			this call to xEventGroupWaitBits() - for use when the event bits
 322:FreeRTOS/event_groups.c **** 			unblock the task. */
 323:FreeRTOS/event_groups.c **** 			if( xClearOnExit != pdFALSE )
 447              		.loc 1 323 0
 448 007c 7B68     		ldr	r3, [r7, #4]	@ tmp139, xClearOnExit
 449 007e 002B     		cmp	r3, #0	@ tmp139,
 450 0080 03D0     		beq	.L25	@,
 451              	@ FreeRTOS/event_groups.c:325: 				uxControlBits |= eventCLEAR_EVENTS_ON_EXIT_BIT;
 324:FreeRTOS/event_groups.c **** 			{
 325:FreeRTOS/event_groups.c **** 				uxControlBits |= eventCLEAR_EVENTS_ON_EXIT_BIT;
 452              		.loc 1 325 0
 453 0082 BB6A     		ldr	r3, [r7, #40]	@ tmp141, uxControlBits
 454 0084 43F08073 		orr	r3, r3, #16777216	@ tmp140, tmp141,
 455 0088 BB62     		str	r3, [r7, #40]	@ tmp140, uxControlBits
 456              	.L25:
 457              	@ FreeRTOS/event_groups.c:332: 			if( xWaitForAllBits != pdFALSE )
 326:FreeRTOS/event_groups.c **** 			}
 327:FreeRTOS/event_groups.c **** 			else
 328:FreeRTOS/event_groups.c **** 			{
 329:FreeRTOS/event_groups.c **** 				mtCOVERAGE_TEST_MARKER();
 330:FreeRTOS/event_groups.c **** 			}
 331:FreeRTOS/event_groups.c **** 
 332:FreeRTOS/event_groups.c **** 			if( xWaitForAllBits != pdFALSE )
 458              		.loc 1 332 0
 459 008a 3B68     		ldr	r3, [r7]	@ tmp142, xWaitForAllBits
 460 008c 002B     		cmp	r3, #0	@ tmp142,
 461 008e 03D0     		beq	.L26	@,
 462              	@ FreeRTOS/event_groups.c:334: 				uxControlBits |= eventWAIT_FOR_ALL_BITS;
 333:FreeRTOS/event_groups.c **** 			{
 334:FreeRTOS/event_groups.c **** 				uxControlBits |= eventWAIT_FOR_ALL_BITS;
 463              		.loc 1 334 0
 464 0090 BB6A     		ldr	r3, [r7, #40]	@ tmp144, uxControlBits
ARM GAS  /tmp/ccicK8AM.s 			page 15


 465 0092 43F08063 		orr	r3, r3, #67108864	@ tmp143, tmp144,
 466 0096 BB62     		str	r3, [r7, #40]	@ tmp143, uxControlBits
 467              	.L26:
 468              	@ FreeRTOS/event_groups.c:344: 			vTaskPlaceOnUnorderedEventList( &( pxEventBits->xTasksWaitingForB
 335:FreeRTOS/event_groups.c **** 			}
 336:FreeRTOS/event_groups.c **** 			else
 337:FreeRTOS/event_groups.c **** 			{
 338:FreeRTOS/event_groups.c **** 				mtCOVERAGE_TEST_MARKER();
 339:FreeRTOS/event_groups.c **** 			}
 340:FreeRTOS/event_groups.c **** 
 341:FreeRTOS/event_groups.c **** 			/* Store the bits that the calling task is waiting for in the
 342:FreeRTOS/event_groups.c **** 			task's event list item so the kernel knows when a match is
 343:FreeRTOS/event_groups.c **** 			found.  Then enter the blocked state. */
 344:FreeRTOS/event_groups.c **** 			vTaskPlaceOnUnorderedEventList( &( pxEventBits->xTasksWaitingForBits ), ( uxBitsToWaitFor | uxCo
 469              		.loc 1 344 0
 470 0098 7B6A     		ldr	r3, [r7, #36]	@ tmp145, pxEventBits
 471 009a 181D     		adds	r0, r3, #4	@ _5, tmp145,
 472 009c BA68     		ldr	r2, [r7, #8]	@ tmp146, uxBitsToWaitFor
 473 009e BB6A     		ldr	r3, [r7, #40]	@ tmp147, uxControlBits
 474 00a0 1343     		orrs	r3, r3, r2	@, _6, tmp147, tmp146
 475 00a2 BA6B     		ldr	r2, [r7, #56]	@, xTicksToWait
 476 00a4 1946     		mov	r1, r3	@, _6
 477 00a6 FFF7FEFF 		bl	vTaskPlaceOnUnorderedEventList	@
 478              	@ FreeRTOS/event_groups.c:349: 			uxReturn = 0;
 345:FreeRTOS/event_groups.c **** 
 346:FreeRTOS/event_groups.c **** 			/* This is obsolete as it will get set after the task unblocks, but
 347:FreeRTOS/event_groups.c **** 			some compilers mistakenly generate a warning about the variable
 348:FreeRTOS/event_groups.c **** 			being returned without being set if it is not done. */
 349:FreeRTOS/event_groups.c **** 			uxReturn = 0;
 479              		.loc 1 349 0
 480 00aa 0023     		movs	r3, #0	@ tmp148,
 481 00ac FB62     		str	r3, [r7, #44]	@ tmp148, uxReturn
 482              	.L23:
 483              	.LBE2:
 484              	@ FreeRTOS/event_groups.c:354: 	xAlreadyYielded = xTaskResumeAll();
 350:FreeRTOS/event_groups.c **** 
 351:FreeRTOS/event_groups.c **** 			traceEVENT_GROUP_WAIT_BITS_BLOCK( xEventGroup, uxBitsToWaitFor );
 352:FreeRTOS/event_groups.c **** 		}
 353:FreeRTOS/event_groups.c **** 	}
 354:FreeRTOS/event_groups.c **** 	xAlreadyYielded = xTaskResumeAll();
 485              		.loc 1 354 0
 486 00ae FFF7FEFF 		bl	xTaskResumeAll	@
 487 00b2 7861     		str	r0, [r7, #20]	@, xAlreadyYielded
 488              	@ FreeRTOS/event_groups.c:356: 	if( xTicksToWait != ( TickT_t ) 0 )
 355:FreeRTOS/event_groups.c **** 
 356:FreeRTOS/event_groups.c **** 	if( xTicksToWait != ( TickT_t ) 0 )
 489              		.loc 1 356 0
 490 00b4 BB6B     		ldr	r3, [r7, #56]	@ tmp149, xTicksToWait
 491 00b6 002B     		cmp	r3, #0	@ tmp149,
 492 00b8 2BD0     		beq	.L27	@,
 493              	@ FreeRTOS/event_groups.c:358: 		if( xAlreadyYielded == pdFALSE )
 357:FreeRTOS/event_groups.c **** 	{
 358:FreeRTOS/event_groups.c **** 		if( xAlreadyYielded == pdFALSE )
 494              		.loc 1 358 0
 495 00ba 7B69     		ldr	r3, [r7, #20]	@ tmp150, xAlreadyYielded
 496 00bc 002B     		cmp	r3, #0	@ tmp150,
 497 00be 01D1     		bne	.L28	@,
ARM GAS  /tmp/ccicK8AM.s 			page 16


 498              	@ FreeRTOS/event_groups.c:360: 			portYIELD_WITHIN_API();
 359:FreeRTOS/event_groups.c **** 		{
 360:FreeRTOS/event_groups.c **** 			portYIELD_WITHIN_API();
 499              		.loc 1 360 0
 500 00c0 FFF7FEFF 		bl	vPortYield	@
 501              	.L28:
 502              	@ FreeRTOS/event_groups.c:371: 		uxReturn = uxTaskResetEventItemValue();
 361:FreeRTOS/event_groups.c **** 		}
 362:FreeRTOS/event_groups.c **** 		else
 363:FreeRTOS/event_groups.c **** 		{
 364:FreeRTOS/event_groups.c **** 			mtCOVERAGE_TEST_MARKER();
 365:FreeRTOS/event_groups.c **** 		}
 366:FreeRTOS/event_groups.c **** 
 367:FreeRTOS/event_groups.c **** 		/* The task blocked to wait for its required bits to be set - at this
 368:FreeRTOS/event_groups.c **** 		point either the required bits were set or the block time expired.  If
 369:FreeRTOS/event_groups.c **** 		the required bits were set they will have been stored in the task's
 370:FreeRTOS/event_groups.c **** 		event list item, and they should now be retrieved then cleared. */
 371:FreeRTOS/event_groups.c **** 		uxReturn = uxTaskResetEventItemValue();
 503              		.loc 1 371 0
 504 00c4 FFF7FEFF 		bl	uxTaskResetEventItemValue	@
 505 00c8 F862     		str	r0, [r7, #44]	@, uxReturn
 506              	@ FreeRTOS/event_groups.c:373: 		if( ( uxReturn & eventUNBLOCKED_DUE_TO_BIT_SET ) == ( EventBits_t 
 372:FreeRTOS/event_groups.c **** 
 373:FreeRTOS/event_groups.c **** 		if( ( uxReturn & eventUNBLOCKED_DUE_TO_BIT_SET ) == ( EventBits_t ) 0 )
 507              		.loc 1 373 0
 508 00ca FB6A     		ldr	r3, [r7, #44]	@ tmp151, uxReturn
 509 00cc 03F00073 		and	r3, r3, #33554432	@ _7, tmp151,
 510 00d0 002B     		cmp	r3, #0	@ _7,
 511 00d2 1AD1     		bne	.L29	@,
 512              	@ FreeRTOS/event_groups.c:375: 			taskENTER_CRITICAL();
 374:FreeRTOS/event_groups.c **** 		{
 375:FreeRTOS/event_groups.c **** 			taskENTER_CRITICAL();
 513              		.loc 1 375 0
 514 00d4 FFF7FEFF 		bl	vPortEnterCritical	@
 515              	@ FreeRTOS/event_groups.c:378: 				uxReturn = pxEventBits->uxEventBits;
 376:FreeRTOS/event_groups.c **** 			{
 377:FreeRTOS/event_groups.c **** 				/* The task timed out, just return the current event bit value. */
 378:FreeRTOS/event_groups.c **** 				uxReturn = pxEventBits->uxEventBits;
 516              		.loc 1 378 0
 517 00d8 7B6A     		ldr	r3, [r7, #36]	@ tmp152, pxEventBits
 518 00da 1B68     		ldr	r3, [r3]	@ tmp153, pxEventBits_24->uxEventBits
 519 00dc FB62     		str	r3, [r7, #44]	@ tmp153, uxReturn
 520              	@ FreeRTOS/event_groups.c:382: 				if( prvTestWaitCondition( uxReturn, uxBitsToWaitFor, xWaitForAll
 379:FreeRTOS/event_groups.c **** 
 380:FreeRTOS/event_groups.c **** 				/* It is possible that the event bits were updated between this
 381:FreeRTOS/event_groups.c **** 				task leaving the Blocked state and running again. */
 382:FreeRTOS/event_groups.c **** 				if( prvTestWaitCondition( uxReturn, uxBitsToWaitFor, xWaitForAllBits ) != pdFALSE )
 521              		.loc 1 382 0
 522 00de 3A68     		ldr	r2, [r7]	@, xWaitForAllBits
 523 00e0 B968     		ldr	r1, [r7, #8]	@, uxBitsToWaitFor
 524 00e2 F86A     		ldr	r0, [r7, #44]	@, uxReturn
 525 00e4 FFF7FEFF 		bl	prvTestWaitCondition	@
 526 00e8 0346     		mov	r3, r0	@ _8,
 527 00ea 002B     		cmp	r3, #0	@ _8,
 528 00ec 09D0     		beq	.L30	@,
 529              	@ FreeRTOS/event_groups.c:384: 					if( xClearOnExit != pdFALSE )
 383:FreeRTOS/event_groups.c **** 				{
ARM GAS  /tmp/ccicK8AM.s 			page 17


 384:FreeRTOS/event_groups.c **** 					if( xClearOnExit != pdFALSE )
 530              		.loc 1 384 0
 531 00ee 7B68     		ldr	r3, [r7, #4]	@ tmp154, xClearOnExit
 532 00f0 002B     		cmp	r3, #0	@ tmp154,
 533 00f2 06D0     		beq	.L30	@,
 534              	@ FreeRTOS/event_groups.c:386: 						pxEventBits->uxEventBits &= ~uxBitsToWaitFor;
 385:FreeRTOS/event_groups.c **** 					{
 386:FreeRTOS/event_groups.c **** 						pxEventBits->uxEventBits &= ~uxBitsToWaitFor;
 535              		.loc 1 386 0
 536 00f4 7B6A     		ldr	r3, [r7, #36]	@ tmp155, pxEventBits
 537 00f6 1A68     		ldr	r2, [r3]	@ _9, pxEventBits_24->uxEventBits
 538 00f8 BB68     		ldr	r3, [r7, #8]	@ tmp156, uxBitsToWaitFor
 539 00fa DB43     		mvns	r3, r3	@ _10, tmp156
 540 00fc 1A40     		ands	r2, r2, r3	@, _11, _9, _10
 541 00fe 7B6A     		ldr	r3, [r7, #36]	@ tmp157, pxEventBits
 542 0100 1A60     		str	r2, [r3]	@ _11, pxEventBits_24->uxEventBits
 543              	.L30:
 544              	@ FreeRTOS/event_groups.c:398: 			taskEXIT_CRITICAL();
 387:FreeRTOS/event_groups.c **** 					}
 388:FreeRTOS/event_groups.c **** 					else
 389:FreeRTOS/event_groups.c **** 					{
 390:FreeRTOS/event_groups.c **** 						mtCOVERAGE_TEST_MARKER();
 391:FreeRTOS/event_groups.c **** 					}
 392:FreeRTOS/event_groups.c **** 				}
 393:FreeRTOS/event_groups.c **** 				else
 394:FreeRTOS/event_groups.c **** 				{
 395:FreeRTOS/event_groups.c **** 					mtCOVERAGE_TEST_MARKER();
 396:FreeRTOS/event_groups.c **** 				}
 397:FreeRTOS/event_groups.c **** 			}
 398:FreeRTOS/event_groups.c **** 			taskEXIT_CRITICAL();
 545              		.loc 1 398 0
 546 0102 FFF7FEFF 		bl	vPortExitCritical	@
 547              	@ FreeRTOS/event_groups.c:401: 			xTimeoutOccurred = pdFALSE;
 399:FreeRTOS/event_groups.c **** 
 400:FreeRTOS/event_groups.c **** 			/* Prevent compiler warnings when trace macros are not used. */
 401:FreeRTOS/event_groups.c **** 			xTimeoutOccurred = pdFALSE;
 548              		.loc 1 401 0
 549 0106 0023     		movs	r3, #0	@ tmp158,
 550 0108 3B62     		str	r3, [r7, #32]	@ tmp158, xTimeoutOccurred
 551              	.L29:
 552              	@ FreeRTOS/event_groups.c:409: 		uxReturn &= ~eventEVENT_BITS_CONTROL_BYTES;
 402:FreeRTOS/event_groups.c **** 		}
 403:FreeRTOS/event_groups.c **** 		else
 404:FreeRTOS/event_groups.c **** 		{
 405:FreeRTOS/event_groups.c **** 			/* The task unblocked because the bits were set. */
 406:FreeRTOS/event_groups.c **** 		}
 407:FreeRTOS/event_groups.c **** 
 408:FreeRTOS/event_groups.c **** 		/* The task blocked so control bits may have been set. */
 409:FreeRTOS/event_groups.c **** 		uxReturn &= ~eventEVENT_BITS_CONTROL_BYTES;
 553              		.loc 1 409 0
 554 010a FB6A     		ldr	r3, [r7, #44]	@ tmp160, uxReturn
 555 010c 23F07F43 		bic	r3, r3, #-16777216	@ tmp159, tmp160,
 556 0110 FB62     		str	r3, [r7, #44]	@ tmp159, uxReturn
 557              	.L27:
 558              	@ FreeRTOS/event_groups.c:413: 	return uxReturn;
 410:FreeRTOS/event_groups.c **** 	}
 411:FreeRTOS/event_groups.c **** 	traceEVENT_GROUP_WAIT_BITS_END( xEventGroup, uxBitsToWaitFor, xTimeoutOccurred );
ARM GAS  /tmp/ccicK8AM.s 			page 18


 412:FreeRTOS/event_groups.c **** 
 413:FreeRTOS/event_groups.c **** 	return uxReturn;
 559              		.loc 1 413 0
 560 0112 FB6A     		ldr	r3, [r7, #44]	@ _56, uxReturn
 561              	@ FreeRTOS/event_groups.c:414: }
 414:FreeRTOS/event_groups.c **** }
 562              		.loc 1 414 0
 563 0114 1846     		mov	r0, r3	@, <retval>
 564 0116 3037     		adds	r7, r7, #48	@,,
 565              		.cfi_def_cfa_offset 8
 566 0118 BD46     		mov	sp, r7	@,
 567              		.cfi_def_cfa_register 13
 568              		@ sp needed	@
 569 011a 80BD     		pop	{r7, pc}	@
 570              		.cfi_endproc
 571              	.LFE3:
 572              		.size	xEventGroupWaitBits, .-xEventGroupWaitBits
 573              		.section	.text.xEventGroupClearBits,"ax",%progbits
 574              		.align	1
 575              		.global	xEventGroupClearBits
 576              		.syntax unified
 577              		.thumb
 578              		.thumb_func
 579              		.fpu softvfp
 580              		.type	xEventGroupClearBits, %function
 581              	xEventGroupClearBits:
 582              	.LFB4:
 415:FreeRTOS/event_groups.c **** /*-----------------------------------------------------------*/
 416:FreeRTOS/event_groups.c **** 
 417:FreeRTOS/event_groups.c **** EventBits_t xEventGroupClearBits( EventGroupHandle_t xEventGroup, const EventBits_t uxBitsToClear )
 418:FreeRTOS/event_groups.c **** {
 583              		.loc 1 418 0
 584              		.cfi_startproc
 585              		@ args = 0, pretend = 0, frame = 16
 586              		@ frame_needed = 1, uses_anonymous_args = 0
 587 0000 80B5     		push	{r7, lr}	@
 588              		.cfi_def_cfa_offset 8
 589              		.cfi_offset 7, -8
 590              		.cfi_offset 14, -4
 591 0002 84B0     		sub	sp, sp, #16	@,,
 592              		.cfi_def_cfa_offset 24
 593 0004 00AF     		add	r7, sp, #0	@,,
 594              		.cfi_def_cfa_register 7
 595 0006 7860     		str	r0, [r7, #4]	@ xEventGroup, xEventGroup
 596 0008 3960     		str	r1, [r7]	@ uxBitsToClear, uxBitsToClear
 597              	@ FreeRTOS/event_groups.c:419: EventGroup_t *pxEventBits = ( EventGroup_t * ) xEventGroup;
 419:FreeRTOS/event_groups.c **** EventGroup_t *pxEventBits = ( EventGroup_t * ) xEventGroup;
 598              		.loc 1 419 0
 599 000a 7B68     		ldr	r3, [r7, #4]	@ tmp116, xEventGroup
 600 000c FB60     		str	r3, [r7, #12]	@ tmp116, pxEventBits
 601              	@ FreeRTOS/event_groups.c:424: 	configASSERT( ( uxBitsToClear & eventEVENT_BITS_CONTROL_BYTES ) == 
 420:FreeRTOS/event_groups.c **** EventBits_t uxReturn;
 421:FreeRTOS/event_groups.c **** 
 422:FreeRTOS/event_groups.c **** 	/* Check the user is not attempting to clear the bits used by the kernel
 423:FreeRTOS/event_groups.c **** 	itself. */
 424:FreeRTOS/event_groups.c **** 	configASSERT( ( uxBitsToClear & eventEVENT_BITS_CONTROL_BYTES ) == 0 );
 602              		.loc 1 424 0
ARM GAS  /tmp/ccicK8AM.s 			page 19


 603 000e 3B68     		ldr	r3, [r7]	@ tmp117, uxBitsToClear
 604 0010 03F07F43 		and	r3, r3, #-16777216	@ _1, tmp117,
 605 0014 002B     		cmp	r3, #0	@ _1,
 606 0016 02D0     		beq	.L33	@,
 607              	@ FreeRTOS/event_groups.c:424: 	configASSERT( ( uxBitsToClear & eventEVENT_BITS_CONTROL_BYTES ) == 
 608              		.loc 1 424 0 is_stmt 0 discriminator 1
 609 0018 FFF7FEFF 		bl	ulPortSetInterruptMask	@
 610              	.L34:
 611 001c FEE7     		b	.L34	@
 612              	.L33:
 613              	@ FreeRTOS/event_groups.c:426: 	taskENTER_CRITICAL();
 425:FreeRTOS/event_groups.c **** 
 426:FreeRTOS/event_groups.c **** 	taskENTER_CRITICAL();
 614              		.loc 1 426 0 is_stmt 1
 615 001e FFF7FEFF 		bl	vPortEnterCritical	@
 616              	@ FreeRTOS/event_groups.c:432: 		uxReturn = pxEventBits->uxEventBits;
 427:FreeRTOS/event_groups.c **** 	{
 428:FreeRTOS/event_groups.c **** 		traceEVENT_GROUP_CLEAR_BITS( xEventGroup, uxBitsToClear );
 429:FreeRTOS/event_groups.c **** 
 430:FreeRTOS/event_groups.c **** 		/* The value returned is the event group value prior to the bits being
 431:FreeRTOS/event_groups.c **** 		cleared. */
 432:FreeRTOS/event_groups.c **** 		uxReturn = pxEventBits->uxEventBits;
 617              		.loc 1 432 0
 618 0022 FB68     		ldr	r3, [r7, #12]	@ tmp118, pxEventBits
 619 0024 1B68     		ldr	r3, [r3]	@ tmp119, pxEventBits_6->uxEventBits
 620 0026 BB60     		str	r3, [r7, #8]	@ tmp119, uxReturn
 621              	@ FreeRTOS/event_groups.c:435: 		pxEventBits->uxEventBits &= ~uxBitsToClear;
 433:FreeRTOS/event_groups.c **** 
 434:FreeRTOS/event_groups.c **** 		/* Clear the bits. */
 435:FreeRTOS/event_groups.c **** 		pxEventBits->uxEventBits &= ~uxBitsToClear;
 622              		.loc 1 435 0
 623 0028 FB68     		ldr	r3, [r7, #12]	@ tmp120, pxEventBits
 624 002a 1A68     		ldr	r2, [r3]	@ _2, pxEventBits_6->uxEventBits
 625 002c 3B68     		ldr	r3, [r7]	@ tmp121, uxBitsToClear
 626 002e DB43     		mvns	r3, r3	@ _3, tmp121
 627 0030 1A40     		ands	r2, r2, r3	@, _4, _2, _3
 628 0032 FB68     		ldr	r3, [r7, #12]	@ tmp122, pxEventBits
 629 0034 1A60     		str	r2, [r3]	@ _4, pxEventBits_6->uxEventBits
 630              	@ FreeRTOS/event_groups.c:437: 	taskEXIT_CRITICAL();
 436:FreeRTOS/event_groups.c **** 	}
 437:FreeRTOS/event_groups.c **** 	taskEXIT_CRITICAL();
 631              		.loc 1 437 0
 632 0036 FFF7FEFF 		bl	vPortExitCritical	@
 633              	@ FreeRTOS/event_groups.c:439: 	return uxReturn;
 438:FreeRTOS/event_groups.c **** 
 439:FreeRTOS/event_groups.c **** 	return uxReturn;
 634              		.loc 1 439 0
 635 003a BB68     		ldr	r3, [r7, #8]	@ _13, uxReturn
 636              	@ FreeRTOS/event_groups.c:440: }
 440:FreeRTOS/event_groups.c **** }
 637              		.loc 1 440 0
 638 003c 1846     		mov	r0, r3	@, <retval>
 639 003e 1037     		adds	r7, r7, #16	@,,
 640              		.cfi_def_cfa_offset 8
 641 0040 BD46     		mov	sp, r7	@,
 642              		.cfi_def_cfa_register 13
 643              		@ sp needed	@
ARM GAS  /tmp/ccicK8AM.s 			page 20


 644 0042 80BD     		pop	{r7, pc}	@
 645              		.cfi_endproc
 646              	.LFE4:
 647              		.size	xEventGroupClearBits, .-xEventGroupClearBits
 648              		.section	.text.xEventGroupGetBitsFromISR,"ax",%progbits
 649              		.align	1
 650              		.global	xEventGroupGetBitsFromISR
 651              		.syntax unified
 652              		.thumb
 653              		.thumb_func
 654              		.fpu softvfp
 655              		.type	xEventGroupGetBitsFromISR, %function
 656              	xEventGroupGetBitsFromISR:
 657              	.LFB5:
 441:FreeRTOS/event_groups.c **** /*-----------------------------------------------------------*/
 442:FreeRTOS/event_groups.c **** 
 443:FreeRTOS/event_groups.c **** #if ( ( configUSE_TRACE_FACILITY == 1 ) && ( INCLUDE_xTimerPendFunctionCall == 1 ) && ( configUSE_T
 444:FreeRTOS/event_groups.c **** 
 445:FreeRTOS/event_groups.c **** 	BaseT_t xEventGroupClearBitsFromISR( EventGroupHandle_t xEventGroup, const EventBits_t uxBitsToCle
 446:FreeRTOS/event_groups.c **** 	{
 447:FreeRTOS/event_groups.c **** 		BaseT_t xReturn;
 448:FreeRTOS/event_groups.c **** 
 449:FreeRTOS/event_groups.c **** 		traceEVENT_GROUP_CLEAR_BITS_FROM_ISR( xEventGroup, uxBitsToClear );
 450:FreeRTOS/event_groups.c **** 		xReturn = xTimerPendFunctionCallFromISR( vEventGroupClearBitsCallback, ( void * ) xEventGroup, ( 
 451:FreeRTOS/event_groups.c **** 
 452:FreeRTOS/event_groups.c **** 		return xReturn;
 453:FreeRTOS/event_groups.c **** 	}
 454:FreeRTOS/event_groups.c **** 
 455:FreeRTOS/event_groups.c **** #endif
 456:FreeRTOS/event_groups.c **** /*-----------------------------------------------------------*/
 457:FreeRTOS/event_groups.c **** 
 458:FreeRTOS/event_groups.c **** EventBits_t xEventGroupGetBitsFromISR( EventGroupHandle_t xEventGroup )
 459:FreeRTOS/event_groups.c **** {
 658              		.loc 1 459 0
 659              		.cfi_startproc
 660              		@ args = 0, pretend = 0, frame = 24
 661              		@ frame_needed = 1, uses_anonymous_args = 0
 662 0000 80B5     		push	{r7, lr}	@
 663              		.cfi_def_cfa_offset 8
 664              		.cfi_offset 7, -8
 665              		.cfi_offset 14, -4
 666 0002 86B0     		sub	sp, sp, #24	@,,
 667              		.cfi_def_cfa_offset 32
 668 0004 00AF     		add	r7, sp, #0	@,,
 669              		.cfi_def_cfa_register 7
 670 0006 7860     		str	r0, [r7, #4]	@ xEventGroup, xEventGroup
 671              	@ FreeRTOS/event_groups.c:461: EventGroup_t *pxEventBits = ( EventGroup_t * ) xEventGroup;
 460:FreeRTOS/event_groups.c **** UBaseT_t uxSavedInterruptStatus;
 461:FreeRTOS/event_groups.c **** EventGroup_t *pxEventBits = ( EventGroup_t * ) xEventGroup;
 672              		.loc 1 461 0
 673 0008 7B68     		ldr	r3, [r7, #4]	@ tmp112, xEventGroup
 674 000a 7B61     		str	r3, [r7, #20]	@ tmp112, pxEventBits
 675              	@ FreeRTOS/event_groups.c:464: 	uxSavedInterruptStatus = portSET_INTERRUPT_MASK_FROM_ISR();
 462:FreeRTOS/event_groups.c **** EventBits_t uxReturn;
 463:FreeRTOS/event_groups.c **** 
 464:FreeRTOS/event_groups.c **** 	uxSavedInterruptStatus = portSET_INTERRUPT_MASK_FROM_ISR();
 676              		.loc 1 464 0
ARM GAS  /tmp/ccicK8AM.s 			page 21


 677 000c FFF7FEFF 		bl	ulPortSetInterruptMask	@
 678 0010 3861     		str	r0, [r7, #16]	@, uxSavedInterruptStatus
 679              	@ FreeRTOS/event_groups.c:466: 		uxReturn = pxEventBits->uxEventBits;
 465:FreeRTOS/event_groups.c **** 	{
 466:FreeRTOS/event_groups.c **** 		uxReturn = pxEventBits->uxEventBits;
 680              		.loc 1 466 0
 681 0012 7B69     		ldr	r3, [r7, #20]	@ tmp113, pxEventBits
 682 0014 1B68     		ldr	r3, [r3]	@ tmp114, pxEventBits_2->uxEventBits
 683 0016 FB60     		str	r3, [r7, #12]	@ tmp114, uxReturn
 684              	@ FreeRTOS/event_groups.c:468: 	portCLEAR_INTERRUPT_MASK_FROM_ISR( uxSavedInterruptStatus );
 467:FreeRTOS/event_groups.c **** 	}
 468:FreeRTOS/event_groups.c **** 	portCLEAR_INTERRUPT_MASK_FROM_ISR( uxSavedInterruptStatus );
 685              		.loc 1 468 0
 686 0018 3869     		ldr	r0, [r7, #16]	@, uxSavedInterruptStatus
 687 001a FFF7FEFF 		bl	vPortClearInterruptMask	@
 688              	@ FreeRTOS/event_groups.c:470: 	return uxReturn;
 469:FreeRTOS/event_groups.c **** 
 470:FreeRTOS/event_groups.c **** 	return uxReturn;
 689              		.loc 1 470 0
 690 001e FB68     		ldr	r3, [r7, #12]	@ _8, uxReturn
 691              	@ FreeRTOS/event_groups.c:471: }
 471:FreeRTOS/event_groups.c **** }
 692              		.loc 1 471 0
 693 0020 1846     		mov	r0, r3	@, <retval>
 694 0022 1837     		adds	r7, r7, #24	@,,
 695              		.cfi_def_cfa_offset 8
 696 0024 BD46     		mov	sp, r7	@,
 697              		.cfi_def_cfa_register 13
 698              		@ sp needed	@
 699 0026 80BD     		pop	{r7, pc}	@
 700              		.cfi_endproc
 701              	.LFE5:
 702              		.size	xEventGroupGetBitsFromISR, .-xEventGroupGetBitsFromISR
 703              		.section	.text.xEventGroupSetBits,"ax",%progbits
 704              		.align	1
 705              		.global	xEventGroupSetBits
 706              		.syntax unified
 707              		.thumb
 708              		.thumb_func
 709              		.fpu softvfp
 710              		.type	xEventGroupSetBits, %function
 711              	xEventGroupSetBits:
 712              	.LFB6:
 472:FreeRTOS/event_groups.c **** /*-----------------------------------------------------------*/
 473:FreeRTOS/event_groups.c **** 
 474:FreeRTOS/event_groups.c **** EventBits_t xEventGroupSetBits( EventGroupHandle_t xEventGroup, const EventBits_t uxBitsToSet )
 475:FreeRTOS/event_groups.c **** {
 713              		.loc 1 475 0
 714              		.cfi_startproc
 715              		@ args = 0, pretend = 0, frame = 48
 716              		@ frame_needed = 1, uses_anonymous_args = 0
 717 0000 80B5     		push	{r7, lr}	@
 718              		.cfi_def_cfa_offset 8
 719              		.cfi_offset 7, -8
 720              		.cfi_offset 14, -4
 721 0002 8CB0     		sub	sp, sp, #48	@,,
 722              		.cfi_def_cfa_offset 56
ARM GAS  /tmp/ccicK8AM.s 			page 22


 723 0004 00AF     		add	r7, sp, #0	@,,
 724              		.cfi_def_cfa_register 7
 725 0006 7860     		str	r0, [r7, #4]	@ xEventGroup, xEventGroup
 726 0008 3960     		str	r1, [r7]	@ uxBitsToSet, uxBitsToSet
 727              	@ FreeRTOS/event_groups.c:479: EventBits_t uxBitsToClear = 0, uxBitsWaitedFor, uxControlBits;
 476:FreeRTOS/event_groups.c **** ListItem_t *pxListItem, *pxNext;
 477:FreeRTOS/event_groups.c **** ListItem_t const *pxListEnd;
 478:FreeRTOS/event_groups.c **** List_t *pxList;
 479:FreeRTOS/event_groups.c **** EventBits_t uxBitsToClear = 0, uxBitsWaitedFor, uxControlBits;
 728              		.loc 1 479 0
 729 000a 0023     		movs	r3, #0	@ tmp126,
 730 000c BB62     		str	r3, [r7, #40]	@ tmp126, uxBitsToClear
 731              	@ FreeRTOS/event_groups.c:480: EventGroup_t *pxEventBits = ( EventGroup_t * ) xEventGroup;
 480:FreeRTOS/event_groups.c **** EventGroup_t *pxEventBits = ( EventGroup_t * ) xEventGroup;
 732              		.loc 1 480 0
 733 000e 7B68     		ldr	r3, [r7, #4]	@ tmp127, xEventGroup
 734 0010 3B62     		str	r3, [r7, #32]	@ tmp127, pxEventBits
 735              	@ FreeRTOS/event_groups.c:481: BaseT_t xMatchFound = pdFALSE;
 481:FreeRTOS/event_groups.c **** BaseT_t xMatchFound = pdFALSE;
 736              		.loc 1 481 0
 737 0012 0023     		movs	r3, #0	@ tmp128,
 738 0014 7B62     		str	r3, [r7, #36]	@ tmp128, xMatchFound
 739              	@ FreeRTOS/event_groups.c:485: 	configASSERT( ( uxBitsToSet & eventEVENT_BITS_CONTROL_BYTES ) == 0 
 482:FreeRTOS/event_groups.c **** 
 483:FreeRTOS/event_groups.c **** 	/* Check the user is not attempting to set the bits used by the kernel
 484:FreeRTOS/event_groups.c **** 	itself. */
 485:FreeRTOS/event_groups.c **** 	configASSERT( ( uxBitsToSet & eventEVENT_BITS_CONTROL_BYTES ) == 0 );
 740              		.loc 1 485 0
 741 0016 3B68     		ldr	r3, [r7]	@ tmp129, uxBitsToSet
 742 0018 03F07F43 		and	r3, r3, #-16777216	@ _1, tmp129,
 743 001c 002B     		cmp	r3, #0	@ _1,
 744 001e 02D0     		beq	.L39	@,
 745              	@ FreeRTOS/event_groups.c:485: 	configASSERT( ( uxBitsToSet & eventEVENT_BITS_CONTROL_BYTES ) == 0 
 746              		.loc 1 485 0 is_stmt 0 discriminator 1
 747 0020 FFF7FEFF 		bl	ulPortSetInterruptMask	@
 748              	.L40:
 749 0024 FEE7     		b	.L40	@
 750              	.L39:
 751              	@ FreeRTOS/event_groups.c:487: 	pxList = &( pxEventBits->xTasksWaitingForBits );
 486:FreeRTOS/event_groups.c **** 
 487:FreeRTOS/event_groups.c **** 	pxList = &( pxEventBits->xTasksWaitingForBits );
 752              		.loc 1 487 0 is_stmt 1
 753 0026 3B6A     		ldr	r3, [r7, #32]	@ tmp131, pxEventBits
 754 0028 0433     		adds	r3, r3, #4	@ tmp130, tmp131,
 755 002a FB61     		str	r3, [r7, #28]	@ tmp130, pxList
 756              	@ FreeRTOS/event_groups.c:488: 	pxListEnd = listGET_END_MARKER( pxList ); /*lint !e826 !e740 The mi
 488:FreeRTOS/event_groups.c **** 	pxListEnd = listGET_END_MARKER( pxList ); /*lint !e826 !e740 The mini list structure is used as th
 757              		.loc 1 488 0
 758 002c FB69     		ldr	r3, [r7, #28]	@ tmp133, pxList
 759 002e 0833     		adds	r3, r3, #8	@ tmp132, tmp133,
 760 0030 BB61     		str	r3, [r7, #24]	@ tmp132, pxListEnd
 761              	@ FreeRTOS/event_groups.c:489: 	vTaskSuspendAll();
 489:FreeRTOS/event_groups.c **** 	vTaskSuspendAll();
 762              		.loc 1 489 0
 763 0032 FFF7FEFF 		bl	vTaskSuspendAll	@
 764              	@ FreeRTOS/event_groups.c:493: 		pxListItem = listGET_HEAD_ENTRY( pxList );
 490:FreeRTOS/event_groups.c **** 	{
ARM GAS  /tmp/ccicK8AM.s 			page 23


 491:FreeRTOS/event_groups.c **** 		traceEVENT_GROUP_SET_BITS( xEventGroup, uxBitsToSet );
 492:FreeRTOS/event_groups.c **** 
 493:FreeRTOS/event_groups.c **** 		pxListItem = listGET_HEAD_ENTRY( pxList );
 765              		.loc 1 493 0
 766 0036 FB69     		ldr	r3, [r7, #28]	@ tmp134, pxList
 767 0038 DB68     		ldr	r3, [r3, #12]	@ tmp135, pxList_27->xListEnd.pxNext
 768 003a FB62     		str	r3, [r7, #44]	@ tmp135, pxListItem
 769              	@ FreeRTOS/event_groups.c:496: 		pxEventBits->uxEventBits |= uxBitsToSet;
 494:FreeRTOS/event_groups.c **** 
 495:FreeRTOS/event_groups.c **** 		/* Set the bits. */
 496:FreeRTOS/event_groups.c **** 		pxEventBits->uxEventBits |= uxBitsToSet;
 770              		.loc 1 496 0
 771 003c 3B6A     		ldr	r3, [r7, #32]	@ tmp136, pxEventBits
 772 003e 1A68     		ldr	r2, [r3]	@ _2, pxEventBits_24->uxEventBits
 773 0040 3B68     		ldr	r3, [r7]	@ tmp137, uxBitsToSet
 774 0042 1A43     		orrs	r2, r2, r3	@, _3, _2, tmp137
 775 0044 3B6A     		ldr	r3, [r7, #32]	@ tmp138, pxEventBits
 776 0046 1A60     		str	r2, [r3]	@ _3, pxEventBits_24->uxEventBits
 777              	@ FreeRTOS/event_groups.c:499: 		while( pxListItem != pxListEnd )
 497:FreeRTOS/event_groups.c **** 
 498:FreeRTOS/event_groups.c **** 		/* See if the new bit value should unblock any tasks. */
 499:FreeRTOS/event_groups.c **** 		while( pxListItem != pxListEnd )
 778              		.loc 1 499 0
 779 0048 3CE0     		b	.L41	@
 780              	.L46:
 781              	@ FreeRTOS/event_groups.c:501: 			pxNext = listGET_NEXT( pxListItem );
 500:FreeRTOS/event_groups.c **** 		{
 501:FreeRTOS/event_groups.c **** 			pxNext = listGET_NEXT( pxListItem );
 782              		.loc 1 501 0
 783 004a FB6A     		ldr	r3, [r7, #44]	@ tmp139, pxListItem
 784 004c 5B68     		ldr	r3, [r3, #4]	@ tmp140, pxListItem_15->pxNext
 785 004e 7B61     		str	r3, [r7, #20]	@ tmp140, pxNext
 786              	@ FreeRTOS/event_groups.c:502: 			uxBitsWaitedFor = listGET_LIST_ITEM_VALUE( pxListItem );
 502:FreeRTOS/event_groups.c **** 			uxBitsWaitedFor = listGET_LIST_ITEM_VALUE( pxListItem );
 787              		.loc 1 502 0
 788 0050 FB6A     		ldr	r3, [r7, #44]	@ tmp141, pxListItem
 789 0052 1B68     		ldr	r3, [r3]	@ tmp142, pxListItem_15->xItemValue
 790 0054 3B61     		str	r3, [r7, #16]	@ tmp142, uxBitsWaitedFor
 791              	@ FreeRTOS/event_groups.c:503: 			xMatchFound = pdFALSE;
 503:FreeRTOS/event_groups.c **** 			xMatchFound = pdFALSE;
 792              		.loc 1 503 0
 793 0056 0023     		movs	r3, #0	@ tmp143,
 794 0058 7B62     		str	r3, [r7, #36]	@ tmp143, xMatchFound
 795              	@ FreeRTOS/event_groups.c:506: 			uxControlBits = uxBitsWaitedFor & eventEVENT_BITS_CONTROL_BYTES;
 504:FreeRTOS/event_groups.c **** 
 505:FreeRTOS/event_groups.c **** 			/* Split the bits waited for from the control bits. */
 506:FreeRTOS/event_groups.c **** 			uxControlBits = uxBitsWaitedFor & eventEVENT_BITS_CONTROL_BYTES;
 796              		.loc 1 506 0
 797 005a 3B69     		ldr	r3, [r7, #16]	@ tmp145, uxBitsWaitedFor
 798 005c 03F07F43 		and	r3, r3, #-16777216	@ tmp144, tmp145,
 799 0060 FB60     		str	r3, [r7, #12]	@ tmp144, uxControlBits
 800              	@ FreeRTOS/event_groups.c:507: 			uxBitsWaitedFor &= ~eventEVENT_BITS_CONTROL_BYTES;
 507:FreeRTOS/event_groups.c **** 			uxBitsWaitedFor &= ~eventEVENT_BITS_CONTROL_BYTES;
 801              		.loc 1 507 0
 802 0062 3B69     		ldr	r3, [r7, #16]	@ tmp147, uxBitsWaitedFor
 803 0064 23F07F43 		bic	r3, r3, #-16777216	@ tmp146, tmp147,
 804 0068 3B61     		str	r3, [r7, #16]	@ tmp146, uxBitsWaitedFor
ARM GAS  /tmp/ccicK8AM.s 			page 24


 805              	@ FreeRTOS/event_groups.c:509: 			if( ( uxControlBits & eventWAIT_FOR_ALL_BITS ) == ( EventBits_t )
 508:FreeRTOS/event_groups.c **** 
 509:FreeRTOS/event_groups.c **** 			if( ( uxControlBits & eventWAIT_FOR_ALL_BITS ) == ( EventBits_t ) 0 )
 806              		.loc 1 509 0
 807 006a FB68     		ldr	r3, [r7, #12]	@ tmp148, uxControlBits
 808 006c 03F08063 		and	r3, r3, #67108864	@ _4, tmp148,
 809 0070 002B     		cmp	r3, #0	@ _4,
 810 0072 08D1     		bne	.L42	@,
 811              	@ FreeRTOS/event_groups.c:512: 				if( ( uxBitsWaitedFor & pxEventBits->uxEventBits ) != ( EventBit
 510:FreeRTOS/event_groups.c **** 			{
 511:FreeRTOS/event_groups.c **** 				/* Just looking for single bit being set. */
 512:FreeRTOS/event_groups.c **** 				if( ( uxBitsWaitedFor & pxEventBits->uxEventBits ) != ( EventBits_t ) 0 )
 812              		.loc 1 512 0
 813 0074 3B6A     		ldr	r3, [r7, #32]	@ tmp149, pxEventBits
 814 0076 1A68     		ldr	r2, [r3]	@ _5, pxEventBits_24->uxEventBits
 815 0078 3B69     		ldr	r3, [r7, #16]	@ tmp150, uxBitsWaitedFor
 816 007a 1340     		ands	r3, r3, r2	@, _6, tmp150, _5
 817 007c 002B     		cmp	r3, #0	@ _6,
 818 007e 0BD0     		beq	.L43	@,
 819              	@ FreeRTOS/event_groups.c:514: 					xMatchFound = pdTRUE;
 513:FreeRTOS/event_groups.c **** 				{
 514:FreeRTOS/event_groups.c **** 					xMatchFound = pdTRUE;
 820              		.loc 1 514 0
 821 0080 0123     		movs	r3, #1	@ tmp151,
 822 0082 7B62     		str	r3, [r7, #36]	@ tmp151, xMatchFound
 823 0084 08E0     		b	.L43	@
 824              	.L42:
 825              	@ FreeRTOS/event_groups.c:521: 			else if( ( uxBitsWaitedFor & pxEventBits->uxEventBits ) == uxBits
 515:FreeRTOS/event_groups.c **** 				}
 516:FreeRTOS/event_groups.c **** 				else
 517:FreeRTOS/event_groups.c **** 				{
 518:FreeRTOS/event_groups.c **** 					mtCOVERAGE_TEST_MARKER();
 519:FreeRTOS/event_groups.c **** 				}
 520:FreeRTOS/event_groups.c **** 			}
 521:FreeRTOS/event_groups.c **** 			else if( ( uxBitsWaitedFor & pxEventBits->uxEventBits ) == uxBitsWaitedFor )
 826              		.loc 1 521 0
 827 0086 3B6A     		ldr	r3, [r7, #32]	@ tmp152, pxEventBits
 828 0088 1A68     		ldr	r2, [r3]	@ _7, pxEventBits_24->uxEventBits
 829 008a 3B69     		ldr	r3, [r7, #16]	@ tmp153, uxBitsWaitedFor
 830 008c 1340     		ands	r3, r3, r2	@, _8, tmp153, _7
 831 008e 3A69     		ldr	r2, [r7, #16]	@ tmp154, uxBitsWaitedFor
 832 0090 9A42     		cmp	r2, r3	@ tmp154, _8
 833 0092 01D1     		bne	.L43	@,
 834              	@ FreeRTOS/event_groups.c:524: 				xMatchFound = pdTRUE;
 522:FreeRTOS/event_groups.c **** 			{
 523:FreeRTOS/event_groups.c **** 				/* All bits are set. */
 524:FreeRTOS/event_groups.c **** 				xMatchFound = pdTRUE;
 835              		.loc 1 524 0
 836 0094 0123     		movs	r3, #1	@ tmp155,
 837 0096 7B62     		str	r3, [r7, #36]	@ tmp155, xMatchFound
 838              	.L43:
 839              	@ FreeRTOS/event_groups.c:531: 			if( xMatchFound != pdFALSE )
 525:FreeRTOS/event_groups.c **** 			}
 526:FreeRTOS/event_groups.c **** 			else
 527:FreeRTOS/event_groups.c **** 			{
 528:FreeRTOS/event_groups.c **** 				/* Need all bits to be set, but not all the bits were set. */
 529:FreeRTOS/event_groups.c **** 			}
ARM GAS  /tmp/ccicK8AM.s 			page 25


 530:FreeRTOS/event_groups.c **** 
 531:FreeRTOS/event_groups.c **** 			if( xMatchFound != pdFALSE )
 840              		.loc 1 531 0
 841 0098 7B6A     		ldr	r3, [r7, #36]	@ tmp156, xMatchFound
 842 009a 002B     		cmp	r3, #0	@ tmp156,
 843 009c 10D0     		beq	.L44	@,
 844              	@ FreeRTOS/event_groups.c:534: 				if( ( uxControlBits & eventCLEAR_EVENTS_ON_EXIT_BIT ) != ( Event
 532:FreeRTOS/event_groups.c **** 			{
 533:FreeRTOS/event_groups.c **** 				/* The bits match.  Should the bits be cleared on exit? */
 534:FreeRTOS/event_groups.c **** 				if( ( uxControlBits & eventCLEAR_EVENTS_ON_EXIT_BIT ) != ( EventBits_t ) 0 )
 845              		.loc 1 534 0
 846 009e FB68     		ldr	r3, [r7, #12]	@ tmp157, uxControlBits
 847 00a0 03F08073 		and	r3, r3, #16777216	@ _9, tmp157,
 848 00a4 002B     		cmp	r3, #0	@ _9,
 849 00a6 03D0     		beq	.L45	@,
 850              	@ FreeRTOS/event_groups.c:536: 					uxBitsToClear |= uxBitsWaitedFor;
 535:FreeRTOS/event_groups.c **** 				{
 536:FreeRTOS/event_groups.c **** 					uxBitsToClear |= uxBitsWaitedFor;
 851              		.loc 1 536 0
 852 00a8 BA6A     		ldr	r2, [r7, #40]	@ tmp159, uxBitsToClear
 853 00aa 3B69     		ldr	r3, [r7, #16]	@ tmp160, uxBitsWaitedFor
 854 00ac 1343     		orrs	r3, r3, r2	@, tmp158, tmp160, tmp159
 855 00ae BB62     		str	r3, [r7, #40]	@ tmp158, uxBitsToClear
 856              	.L45:
 857              	@ FreeRTOS/event_groups.c:548: 				( void ) xTaskRemoveFromUnorderedEventList( pxListItem, pxEventB
 537:FreeRTOS/event_groups.c **** 				}
 538:FreeRTOS/event_groups.c **** 				else
 539:FreeRTOS/event_groups.c **** 				{
 540:FreeRTOS/event_groups.c **** 					mtCOVERAGE_TEST_MARKER();
 541:FreeRTOS/event_groups.c **** 				}
 542:FreeRTOS/event_groups.c **** 
 543:FreeRTOS/event_groups.c **** 				/* Store the actual event flag value in the task's event list
 544:FreeRTOS/event_groups.c **** 				item before removing the task from the event list.  The
 545:FreeRTOS/event_groups.c **** 				eventUNBLOCKED_DUE_TO_BIT_SET bit is set so the task knows
 546:FreeRTOS/event_groups.c **** 				that is was unblocked due to its required bits matching, rather
 547:FreeRTOS/event_groups.c **** 				than because it timed out. */
 548:FreeRTOS/event_groups.c **** 				( void ) xTaskRemoveFromUnorderedEventList( pxListItem, pxEventBits->uxEventBits | eventUNBLOCK
 858              		.loc 1 548 0
 859 00b0 3B6A     		ldr	r3, [r7, #32]	@ tmp161, pxEventBits
 860 00b2 1B68     		ldr	r3, [r3]	@ _10, pxEventBits_24->uxEventBits
 861 00b4 43F00073 		orr	r3, r3, #33554432	@ _11, _10,
 862 00b8 1946     		mov	r1, r3	@, _11
 863 00ba F86A     		ldr	r0, [r7, #44]	@, pxListItem
 864 00bc FFF7FEFF 		bl	xTaskRemoveFromUnorderedEventList	@
 865              	.L44:
 866              	@ FreeRTOS/event_groups.c:554: 			pxListItem = pxNext;
 549:FreeRTOS/event_groups.c **** 			}
 550:FreeRTOS/event_groups.c **** 
 551:FreeRTOS/event_groups.c **** 			/* Move onto the next list item.  Note pxListItem->pxNext is not
 552:FreeRTOS/event_groups.c **** 			used here as the list item may have been removed from the event list
 553:FreeRTOS/event_groups.c **** 			and inserted into the ready/pending reading list. */
 554:FreeRTOS/event_groups.c **** 			pxListItem = pxNext;
 867              		.loc 1 554 0
 868 00c0 7B69     		ldr	r3, [r7, #20]	@ tmp162, pxNext
 869 00c2 FB62     		str	r3, [r7, #44]	@ tmp162, pxListItem
 870              	.L41:
 871              	@ FreeRTOS/event_groups.c:499: 		while( pxListItem != pxListEnd )
ARM GAS  /tmp/ccicK8AM.s 			page 26


 499:FreeRTOS/event_groups.c **** 		{
 872              		.loc 1 499 0
 873 00c4 FA6A     		ldr	r2, [r7, #44]	@ tmp163, pxListItem
 874 00c6 BB69     		ldr	r3, [r7, #24]	@ tmp164, pxListEnd
 875 00c8 9A42     		cmp	r2, r3	@ tmp163, tmp164
 876 00ca BED1     		bne	.L46	@,
 877              	@ FreeRTOS/event_groups.c:559: 		pxEventBits->uxEventBits &= ~uxBitsToClear;
 555:FreeRTOS/event_groups.c **** 		}
 556:FreeRTOS/event_groups.c **** 
 557:FreeRTOS/event_groups.c **** 		/* Clear any bits that matched when the eventCLEAR_EVENTS_ON_EXIT_BIT
 558:FreeRTOS/event_groups.c **** 		bit was set in the control word. */
 559:FreeRTOS/event_groups.c **** 		pxEventBits->uxEventBits &= ~uxBitsToClear;
 878              		.loc 1 559 0
 879 00cc 3B6A     		ldr	r3, [r7, #32]	@ tmp165, pxEventBits
 880 00ce 1A68     		ldr	r2, [r3]	@ _12, pxEventBits_24->uxEventBits
 881 00d0 BB6A     		ldr	r3, [r7, #40]	@ tmp166, uxBitsToClear
 882 00d2 DB43     		mvns	r3, r3	@ _13, tmp166
 883 00d4 1A40     		ands	r2, r2, r3	@, _14, _12, _13
 884 00d6 3B6A     		ldr	r3, [r7, #32]	@ tmp167, pxEventBits
 885 00d8 1A60     		str	r2, [r3]	@ _14, pxEventBits_24->uxEventBits
 886              	@ FreeRTOS/event_groups.c:561: 	( void ) xTaskResumeAll();
 560:FreeRTOS/event_groups.c **** 	}
 561:FreeRTOS/event_groups.c **** 	( void ) xTaskResumeAll();
 887              		.loc 1 561 0
 888 00da FFF7FEFF 		bl	xTaskResumeAll	@
 889              	@ FreeRTOS/event_groups.c:563: 	return pxEventBits->uxEventBits;
 562:FreeRTOS/event_groups.c **** 
 563:FreeRTOS/event_groups.c **** 	return pxEventBits->uxEventBits;
 890              		.loc 1 563 0
 891 00de 3B6A     		ldr	r3, [r7, #32]	@ tmp168, pxEventBits
 892 00e0 1B68     		ldr	r3, [r3]	@ _35, pxEventBits_24->uxEventBits
 893              	@ FreeRTOS/event_groups.c:564: }
 564:FreeRTOS/event_groups.c **** }
 894              		.loc 1 564 0
 895 00e2 1846     		mov	r0, r3	@, <retval>
 896 00e4 3037     		adds	r7, r7, #48	@,,
 897              		.cfi_def_cfa_offset 8
 898 00e6 BD46     		mov	sp, r7	@,
 899              		.cfi_def_cfa_register 13
 900              		@ sp needed	@
 901 00e8 80BD     		pop	{r7, pc}	@
 902              		.cfi_endproc
 903              	.LFE6:
 904              		.size	xEventGroupSetBits, .-xEventGroupSetBits
 905              		.section	.text.vEventGroupDelete,"ax",%progbits
 906              		.align	1
 907              		.global	vEventGroupDelete
 908              		.syntax unified
 909              		.thumb
 910              		.thumb_func
 911              		.fpu softvfp
 912              		.type	vEventGroupDelete, %function
 913              	vEventGroupDelete:
 914              	.LFB7:
 565:FreeRTOS/event_groups.c **** /*-----------------------------------------------------------*/
 566:FreeRTOS/event_groups.c **** 
 567:FreeRTOS/event_groups.c **** void vEventGroupDelete( EventGroupHandle_t xEventGroup )
ARM GAS  /tmp/ccicK8AM.s 			page 27


 568:FreeRTOS/event_groups.c **** {
 915              		.loc 1 568 0
 916              		.cfi_startproc
 917              		@ args = 0, pretend = 0, frame = 16
 918              		@ frame_needed = 1, uses_anonymous_args = 0
 919 0000 80B5     		push	{r7, lr}	@
 920              		.cfi_def_cfa_offset 8
 921              		.cfi_offset 7, -8
 922              		.cfi_offset 14, -4
 923 0002 84B0     		sub	sp, sp, #16	@,,
 924              		.cfi_def_cfa_offset 24
 925 0004 00AF     		add	r7, sp, #0	@,,
 926              		.cfi_def_cfa_register 7
 927 0006 7860     		str	r0, [r7, #4]	@ xEventGroup, xEventGroup
 928              	@ FreeRTOS/event_groups.c:569: EventGroup_t *pxEventBits = ( EventGroup_t * ) xEventGroup;
 569:FreeRTOS/event_groups.c **** EventGroup_t *pxEventBits = ( EventGroup_t * ) xEventGroup;
 929              		.loc 1 569 0
 930 0008 7B68     		ldr	r3, [r7, #4]	@ tmp114, xEventGroup
 931 000a FB60     		str	r3, [r7, #12]	@ tmp114, pxEventBits
 932              	@ FreeRTOS/event_groups.c:570: const List_t *pxTasksWaitingForBits = &( pxEventBits->xTasksWaitingF
 570:FreeRTOS/event_groups.c **** const List_t *pxTasksWaitingForBits = &( pxEventBits->xTasksWaitingForBits );
 933              		.loc 1 570 0
 934 000c FB68     		ldr	r3, [r7, #12]	@ tmp116, pxEventBits
 935 000e 0433     		adds	r3, r3, #4	@ tmp115, tmp116,
 936 0010 BB60     		str	r3, [r7, #8]	@ tmp115, pxTasksWaitingForBits
 937              	@ FreeRTOS/event_groups.c:572: 	vTaskSuspendAll();
 571:FreeRTOS/event_groups.c **** 
 572:FreeRTOS/event_groups.c **** 	vTaskSuspendAll();
 938              		.loc 1 572 0
 939 0012 FFF7FEFF 		bl	vTaskSuspendAll	@
 940              	@ FreeRTOS/event_groups.c:576: 		while( listCURRENT_LIST_LENGTH( pxTasksWaitingForBits ) > ( UBaseT
 573:FreeRTOS/event_groups.c **** 	{
 574:FreeRTOS/event_groups.c **** 		traceEVENT_GROUP_DELETE( xEventGroup );
 575:FreeRTOS/event_groups.c **** 
 576:FreeRTOS/event_groups.c **** 		while( listCURRENT_LIST_LENGTH( pxTasksWaitingForBits ) > ( UBaseT_t ) 0 )
 941              		.loc 1 576 0
 942 0016 0FE0     		b	.L49	@
 943              	.L52:
 944              	@ FreeRTOS/event_groups.c:580: 			configASSERT( pxTasksWaitingForBits->xListEnd.pxNext != ( ListIte
 577:FreeRTOS/event_groups.c **** 		{
 578:FreeRTOS/event_groups.c **** 			/* Unblock the task, returning 0 as the event list is being deleted
 579:FreeRTOS/event_groups.c **** 			and	cannot therefore have any bits set. */
 580:FreeRTOS/event_groups.c **** 			configASSERT( pxTasksWaitingForBits->xListEnd.pxNext != ( ListItem_t * ) &( pxTasksWaitingForBit
 945              		.loc 1 580 0
 946 0018 BB68     		ldr	r3, [r7, #8]	@ tmp117, pxTasksWaitingForBits
 947 001a DA68     		ldr	r2, [r3, #12]	@ _1, pxTasksWaitingForBits_8->xListEnd.pxNext
 948 001c BB68     		ldr	r3, [r7, #8]	@ tmp118, pxTasksWaitingForBits
 949 001e 0833     		adds	r3, r3, #8	@ _2, tmp118,
 950 0020 9A42     		cmp	r2, r3	@ _1, _2
 951 0022 02D1     		bne	.L50	@,
 952              	@ FreeRTOS/event_groups.c:580: 			configASSERT( pxTasksWaitingForBits->xListEnd.pxNext != ( ListIte
 953              		.loc 1 580 0 is_stmt 0 discriminator 1
 954 0024 FFF7FEFF 		bl	ulPortSetInterruptMask	@
 955              	.L51:
 956 0028 FEE7     		b	.L51	@
 957              	.L50:
 958              	@ FreeRTOS/event_groups.c:581: 			( void ) xTaskRemoveFromUnorderedEventList( pxTasksWaitingForBits
ARM GAS  /tmp/ccicK8AM.s 			page 28


 581:FreeRTOS/event_groups.c **** 			( void ) xTaskRemoveFromUnorderedEventList( pxTasksWaitingForBits->xListEnd.pxNext, eventUNBLOCK
 959              		.loc 1 581 0 is_stmt 1
 960 002a BB68     		ldr	r3, [r7, #8]	@ tmp119, pxTasksWaitingForBits
 961 002c DB68     		ldr	r3, [r3, #12]	@ _3, pxTasksWaitingForBits_8->xListEnd.pxNext
 962 002e 4FF00071 		mov	r1, #33554432	@,
 963 0032 1846     		mov	r0, r3	@, _3
 964 0034 FFF7FEFF 		bl	xTaskRemoveFromUnorderedEventList	@
 965              	.L49:
 966              	@ FreeRTOS/event_groups.c:576: 		while( listCURRENT_LIST_LENGTH( pxTasksWaitingForBits ) > ( UBaseT
 576:FreeRTOS/event_groups.c **** 		{
 967              		.loc 1 576 0
 968 0038 BB68     		ldr	r3, [r7, #8]	@ tmp120, pxTasksWaitingForBits
 969 003a 1B68     		ldr	r3, [r3]	@ _4, pxTasksWaitingForBits_8->uxNumberOfItems
 970 003c 002B     		cmp	r3, #0	@ _4,
 971 003e EBD1     		bne	.L52	@,
 972              	@ FreeRTOS/event_groups.c:584: 		vPortFree( pxEventBits );
 582:FreeRTOS/event_groups.c **** 		}
 583:FreeRTOS/event_groups.c **** 
 584:FreeRTOS/event_groups.c **** 		vPortFree( pxEventBits );
 973              		.loc 1 584 0
 974 0040 F868     		ldr	r0, [r7, #12]	@, pxEventBits
 975 0042 FFF7FEFF 		bl	vPortFree	@
 976              	@ FreeRTOS/event_groups.c:586: 	( void ) xTaskResumeAll();
 585:FreeRTOS/event_groups.c **** 	}
 586:FreeRTOS/event_groups.c **** 	( void ) xTaskResumeAll();
 977              		.loc 1 586 0
 978 0046 FFF7FEFF 		bl	xTaskResumeAll	@
 979              	@ FreeRTOS/event_groups.c:587: }
 587:FreeRTOS/event_groups.c **** }
 980              		.loc 1 587 0
 981 004a 00BF     		nop
 982 004c 1037     		adds	r7, r7, #16	@,,
 983              		.cfi_def_cfa_offset 8
 984 004e BD46     		mov	sp, r7	@,
 985              		.cfi_def_cfa_register 13
 986              		@ sp needed	@
 987 0050 80BD     		pop	{r7, pc}	@
 988              		.cfi_endproc
 989              	.LFE7:
 990              		.size	vEventGroupDelete, .-vEventGroupDelete
 991              		.section	.text.vEventGroupSetBitsCallback,"ax",%progbits
 992              		.align	1
 993              		.global	vEventGroupSetBitsCallback
 994              		.syntax unified
 995              		.thumb
 996              		.thumb_func
 997              		.fpu softvfp
 998              		.type	vEventGroupSetBitsCallback, %function
 999              	vEventGroupSetBitsCallback:
 1000              	.LFB8:
 588:FreeRTOS/event_groups.c **** /*-----------------------------------------------------------*/
 589:FreeRTOS/event_groups.c **** 
 590:FreeRTOS/event_groups.c **** /* For internal use only - execute a 'set bits' command that was pended from
 591:FreeRTOS/event_groups.c **** an interrupt. */
 592:FreeRTOS/event_groups.c **** void vEventGroupSetBitsCallback( void *pvEventGroup, const uint32_t ulBitsToSet )
 593:FreeRTOS/event_groups.c **** {
 1001              		.loc 1 593 0
ARM GAS  /tmp/ccicK8AM.s 			page 29


 1002              		.cfi_startproc
 1003              		@ args = 0, pretend = 0, frame = 8
 1004              		@ frame_needed = 1, uses_anonymous_args = 0
 1005 0000 80B5     		push	{r7, lr}	@
 1006              		.cfi_def_cfa_offset 8
 1007              		.cfi_offset 7, -8
 1008              		.cfi_offset 14, -4
 1009 0002 82B0     		sub	sp, sp, #8	@,,
 1010              		.cfi_def_cfa_offset 16
 1011 0004 00AF     		add	r7, sp, #0	@,,
 1012              		.cfi_def_cfa_register 7
 1013 0006 7860     		str	r0, [r7, #4]	@ pvEventGroup, pvEventGroup
 1014 0008 3960     		str	r1, [r7]	@ ulBitsToSet, ulBitsToSet
 1015              	@ FreeRTOS/event_groups.c:594: 	( void ) xEventGroupSetBits( pvEventGroup, ( EventBits_t ) ulBitsTo
 594:FreeRTOS/event_groups.c **** 	( void ) xEventGroupSetBits( pvEventGroup, ( EventBits_t ) ulBitsToSet );
 1016              		.loc 1 594 0
 1017 000a 3968     		ldr	r1, [r7]	@, ulBitsToSet
 1018 000c 7868     		ldr	r0, [r7, #4]	@, pvEventGroup
 1019 000e FFF7FEFF 		bl	xEventGroupSetBits	@
 1020              	@ FreeRTOS/event_groups.c:595: }
 595:FreeRTOS/event_groups.c **** }
 1021              		.loc 1 595 0
 1022 0012 00BF     		nop
 1023 0014 0837     		adds	r7, r7, #8	@,,
 1024              		.cfi_def_cfa_offset 8
 1025 0016 BD46     		mov	sp, r7	@,
 1026              		.cfi_def_cfa_register 13
 1027              		@ sp needed	@
 1028 0018 80BD     		pop	{r7, pc}	@
 1029              		.cfi_endproc
 1030              	.LFE8:
 1031              		.size	vEventGroupSetBitsCallback, .-vEventGroupSetBitsCallback
 1032              		.section	.text.vEventGroupClearBitsCallback,"ax",%progbits
 1033              		.align	1
 1034              		.global	vEventGroupClearBitsCallback
 1035              		.syntax unified
 1036              		.thumb
 1037              		.thumb_func
 1038              		.fpu softvfp
 1039              		.type	vEventGroupClearBitsCallback, %function
 1040              	vEventGroupClearBitsCallback:
 1041              	.LFB9:
 596:FreeRTOS/event_groups.c **** /*-----------------------------------------------------------*/
 597:FreeRTOS/event_groups.c **** 
 598:FreeRTOS/event_groups.c **** /* For internal use only - execute a 'clear bits' command that was pended from
 599:FreeRTOS/event_groups.c **** an interrupt. */
 600:FreeRTOS/event_groups.c **** void vEventGroupClearBitsCallback( void *pvEventGroup, const uint32_t ulBitsToClear )
 601:FreeRTOS/event_groups.c **** {
 1042              		.loc 1 601 0
 1043              		.cfi_startproc
 1044              		@ args = 0, pretend = 0, frame = 8
 1045              		@ frame_needed = 1, uses_anonymous_args = 0
 1046 0000 80B5     		push	{r7, lr}	@
 1047              		.cfi_def_cfa_offset 8
 1048              		.cfi_offset 7, -8
 1049              		.cfi_offset 14, -4
 1050 0002 82B0     		sub	sp, sp, #8	@,,
ARM GAS  /tmp/ccicK8AM.s 			page 30


 1051              		.cfi_def_cfa_offset 16
 1052 0004 00AF     		add	r7, sp, #0	@,,
 1053              		.cfi_def_cfa_register 7
 1054 0006 7860     		str	r0, [r7, #4]	@ pvEventGroup, pvEventGroup
 1055 0008 3960     		str	r1, [r7]	@ ulBitsToClear, ulBitsToClear
 1056              	@ FreeRTOS/event_groups.c:602: 	( void ) xEventGroupClearBits( pvEventGroup, ( EventBits_t ) ulBits
 602:FreeRTOS/event_groups.c **** 	( void ) xEventGroupClearBits( pvEventGroup, ( EventBits_t ) ulBitsToClear );
 1057              		.loc 1 602 0
 1058 000a 3968     		ldr	r1, [r7]	@, ulBitsToClear
 1059 000c 7868     		ldr	r0, [r7, #4]	@, pvEventGroup
 1060 000e FFF7FEFF 		bl	xEventGroupClearBits	@
 1061              	@ FreeRTOS/event_groups.c:603: }
 603:FreeRTOS/event_groups.c **** }
 1062              		.loc 1 603 0
 1063 0012 00BF     		nop
 1064 0014 0837     		adds	r7, r7, #8	@,,
 1065              		.cfi_def_cfa_offset 8
 1066 0016 BD46     		mov	sp, r7	@,
 1067              		.cfi_def_cfa_register 13
 1068              		@ sp needed	@
 1069 0018 80BD     		pop	{r7, pc}	@
 1070              		.cfi_endproc
 1071              	.LFE9:
 1072              		.size	vEventGroupClearBitsCallback, .-vEventGroupClearBitsCallback
 1073              		.section	.text.prvTestWaitCondition,"ax",%progbits
 1074              		.align	1
 1075              		.syntax unified
 1076              		.thumb
 1077              		.thumb_func
 1078              		.fpu softvfp
 1079              		.type	prvTestWaitCondition, %function
 1080              	prvTestWaitCondition:
 1081              	.LFB10:
 604:FreeRTOS/event_groups.c **** /*-----------------------------------------------------------*/
 605:FreeRTOS/event_groups.c **** 
 606:FreeRTOS/event_groups.c **** static BaseT_t prvTestWaitCondition( const EventBits_t uxCurrentEventBits, const EventBits_t uxBits
 607:FreeRTOS/event_groups.c **** {
 1082              		.loc 1 607 0
 1083              		.cfi_startproc
 1084              		@ args = 0, pretend = 0, frame = 24
 1085              		@ frame_needed = 1, uses_anonymous_args = 0
 1086              		@ link register save eliminated.
 1087 0000 80B4     		push	{r7}	@
 1088              		.cfi_def_cfa_offset 4
 1089              		.cfi_offset 7, -4
 1090 0002 87B0     		sub	sp, sp, #28	@,,
 1091              		.cfi_def_cfa_offset 32
 1092 0004 00AF     		add	r7, sp, #0	@,,
 1093              		.cfi_def_cfa_register 7
 1094 0006 F860     		str	r0, [r7, #12]	@ uxCurrentEventBits, uxCurrentEventBits
 1095 0008 B960     		str	r1, [r7, #8]	@ uxBitsToWaitFor, uxBitsToWaitFor
 1096 000a 7A60     		str	r2, [r7, #4]	@ xWaitForAllBits, xWaitForAllBits
 1097              	@ FreeRTOS/event_groups.c:608: BaseT_t xWaitConditionMet = pdFALSE;
 608:FreeRTOS/event_groups.c **** BaseT_t xWaitConditionMet = pdFALSE;
 1098              		.loc 1 608 0
 1099 000c 0023     		movs	r3, #0	@ tmp114,
 1100 000e 7B61     		str	r3, [r7, #20]	@ tmp114, xWaitConditionMet
ARM GAS  /tmp/ccicK8AM.s 			page 31


 1101              	@ FreeRTOS/event_groups.c:610: 	if( xWaitForAllBits == pdFALSE )
 609:FreeRTOS/event_groups.c **** 
 610:FreeRTOS/event_groups.c **** 	if( xWaitForAllBits == pdFALSE )
 1102              		.loc 1 610 0
 1103 0010 7B68     		ldr	r3, [r7, #4]	@ tmp115, xWaitForAllBits
 1104 0012 002B     		cmp	r3, #0	@ tmp115,
 1105 0014 07D1     		bne	.L56	@,
 1106              	@ FreeRTOS/event_groups.c:614: 		if( ( uxCurrentEventBits & uxBitsToWaitFor ) != ( EventBits_t ) 0 
 611:FreeRTOS/event_groups.c **** 	{
 612:FreeRTOS/event_groups.c **** 		/* Task only has to wait for one bit within uxBitsToWaitFor to be
 613:FreeRTOS/event_groups.c **** 		set.  Is one already set? */
 614:FreeRTOS/event_groups.c **** 		if( ( uxCurrentEventBits & uxBitsToWaitFor ) != ( EventBits_t ) 0 )
 1107              		.loc 1 614 0
 1108 0016 FA68     		ldr	r2, [r7, #12]	@ tmp116, uxCurrentEventBits
 1109 0018 BB68     		ldr	r3, [r7, #8]	@ tmp117, uxBitsToWaitFor
 1110 001a 1340     		ands	r3, r3, r2	@, _1, tmp117, tmp116
 1111 001c 002B     		cmp	r3, #0	@ _1,
 1112 001e 0AD0     		beq	.L57	@,
 1113              	@ FreeRTOS/event_groups.c:616: 			xWaitConditionMet = pdTRUE;
 615:FreeRTOS/event_groups.c **** 		{
 616:FreeRTOS/event_groups.c **** 			xWaitConditionMet = pdTRUE;
 1114              		.loc 1 616 0
 1115 0020 0123     		movs	r3, #1	@ tmp118,
 1116 0022 7B61     		str	r3, [r7, #20]	@ tmp118, xWaitConditionMet
 1117 0024 07E0     		b	.L57	@
 1118              	.L56:
 1119              	@ FreeRTOS/event_groups.c:627: 		if( ( uxCurrentEventBits & uxBitsToWaitFor ) == uxBitsToWaitFor )
 617:FreeRTOS/event_groups.c **** 		}
 618:FreeRTOS/event_groups.c **** 		else
 619:FreeRTOS/event_groups.c **** 		{
 620:FreeRTOS/event_groups.c **** 			mtCOVERAGE_TEST_MARKER();
 621:FreeRTOS/event_groups.c **** 		}
 622:FreeRTOS/event_groups.c **** 	}
 623:FreeRTOS/event_groups.c **** 	else
 624:FreeRTOS/event_groups.c **** 	{
 625:FreeRTOS/event_groups.c **** 		/* Task has to wait for all the bits in uxBitsToWaitFor to be set.
 626:FreeRTOS/event_groups.c **** 		Are they set already? */
 627:FreeRTOS/event_groups.c **** 		if( ( uxCurrentEventBits & uxBitsToWaitFor ) == uxBitsToWaitFor )
 1120              		.loc 1 627 0
 1121 0026 FA68     		ldr	r2, [r7, #12]	@ tmp119, uxCurrentEventBits
 1122 0028 BB68     		ldr	r3, [r7, #8]	@ tmp120, uxBitsToWaitFor
 1123 002a 1340     		ands	r3, r3, r2	@, _2, tmp120, tmp119
 1124 002c BA68     		ldr	r2, [r7, #8]	@ tmp121, uxBitsToWaitFor
 1125 002e 9A42     		cmp	r2, r3	@ tmp121, _2
 1126 0030 01D1     		bne	.L57	@,
 1127              	@ FreeRTOS/event_groups.c:629: 			xWaitConditionMet = pdTRUE;
 628:FreeRTOS/event_groups.c **** 		{
 629:FreeRTOS/event_groups.c **** 			xWaitConditionMet = pdTRUE;
 1128              		.loc 1 629 0
 1129 0032 0123     		movs	r3, #1	@ tmp122,
 1130 0034 7B61     		str	r3, [r7, #20]	@ tmp122, xWaitConditionMet
 1131              	.L57:
 1132              	@ FreeRTOS/event_groups.c:637: 	return xWaitConditionMet;
 630:FreeRTOS/event_groups.c **** 		}
 631:FreeRTOS/event_groups.c **** 		else
 632:FreeRTOS/event_groups.c **** 		{
 633:FreeRTOS/event_groups.c **** 			mtCOVERAGE_TEST_MARKER();
ARM GAS  /tmp/ccicK8AM.s 			page 32


 634:FreeRTOS/event_groups.c **** 		}
 635:FreeRTOS/event_groups.c **** 	}
 636:FreeRTOS/event_groups.c **** 
 637:FreeRTOS/event_groups.c **** 	return xWaitConditionMet;
 1133              		.loc 1 637 0
 1134 0036 7B69     		ldr	r3, [r7, #20]	@ _10, xWaitConditionMet
 1135              	@ FreeRTOS/event_groups.c:638: }
 638:FreeRTOS/event_groups.c **** }
 1136              		.loc 1 638 0
 1137 0038 1846     		mov	r0, r3	@, <retval>
 1138 003a 1C37     		adds	r7, r7, #28	@,,
 1139              		.cfi_def_cfa_offset 4
 1140 003c BD46     		mov	sp, r7	@,
 1141              		.cfi_def_cfa_register 13
 1142              		@ sp needed	@
 1143 003e 80BC     		pop	{r7}	@
 1144              		.cfi_restore 7
 1145              		.cfi_def_cfa_offset 0
 1146 0040 7047     		bx	lr	@
 1147              		.cfi_endproc
 1148              	.LFE10:
 1149              		.size	prvTestWaitCondition, .-prvTestWaitCondition
 1150              		.section	.text.uxEventGroupGetNumber,"ax",%progbits
 1151              		.align	1
 1152              		.global	uxEventGroupGetNumber
 1153              		.syntax unified
 1154              		.thumb
 1155              		.thumb_func
 1156              		.fpu softvfp
 1157              		.type	uxEventGroupGetNumber, %function
 1158              	uxEventGroupGetNumber:
 1159              	.LFB11:
 639:FreeRTOS/event_groups.c **** /*-----------------------------------------------------------*/
 640:FreeRTOS/event_groups.c **** 
 641:FreeRTOS/event_groups.c **** #if ( ( configUSE_TRACE_FACILITY == 1 ) && ( INCLUDE_xTimerPendFunctionCall == 1 ) && ( configUSE_T
 642:FreeRTOS/event_groups.c **** 
 643:FreeRTOS/event_groups.c **** 	BaseT_t xEventGroupSetBitsFromISR( EventGroupHandle_t xEventGroup, const EventBits_t uxBitsToSet, 
 644:FreeRTOS/event_groups.c **** 	{
 645:FreeRTOS/event_groups.c **** 	BaseT_t xReturn;
 646:FreeRTOS/event_groups.c **** 
 647:FreeRTOS/event_groups.c **** 		traceEVENT_GROUP_SET_BITS_FROM_ISR( xEventGroup, uxBitsToSet );
 648:FreeRTOS/event_groups.c **** 		xReturn = xTimerPendFunctionCallFromISR( vEventGroupSetBitsCallback, ( void * ) xEventGroup, ( ui
 649:FreeRTOS/event_groups.c **** 
 650:FreeRTOS/event_groups.c **** 		return xReturn;
 651:FreeRTOS/event_groups.c **** 	}
 652:FreeRTOS/event_groups.c **** 
 653:FreeRTOS/event_groups.c **** #endif
 654:FreeRTOS/event_groups.c **** /*-----------------------------------------------------------*/
 655:FreeRTOS/event_groups.c **** 
 656:FreeRTOS/event_groups.c **** #if (configUSE_TRACE_FACILITY == 1)
 657:FreeRTOS/event_groups.c **** 
 658:FreeRTOS/event_groups.c **** 	UBaseT_t uxEventGroupGetNumber( void* xEventGroup )
 659:FreeRTOS/event_groups.c **** 	{
 1160              		.loc 1 659 0
 1161              		.cfi_startproc
 1162              		@ args = 0, pretend = 0, frame = 16
 1163              		@ frame_needed = 1, uses_anonymous_args = 0
ARM GAS  /tmp/ccicK8AM.s 			page 33


 1164              		@ link register save eliminated.
 1165 0000 80B4     		push	{r7}	@
 1166              		.cfi_def_cfa_offset 4
 1167              		.cfi_offset 7, -4
 1168 0002 85B0     		sub	sp, sp, #20	@,,
 1169              		.cfi_def_cfa_offset 24
 1170 0004 00AF     		add	r7, sp, #0	@,,
 1171              		.cfi_def_cfa_register 7
 1172 0006 7860     		str	r0, [r7, #4]	@ xEventGroup, xEventGroup
 1173              	@ FreeRTOS/event_groups.c:661: 	EventGroup_t *pxEventBits = ( EventGroup_t * ) xEventGroup;
 660:FreeRTOS/event_groups.c **** 	UBaseT_t xReturn;
 661:FreeRTOS/event_groups.c **** 	EventGroup_t *pxEventBits = ( EventGroup_t * ) xEventGroup;
 1174              		.loc 1 661 0
 1175 0008 7B68     		ldr	r3, [r7, #4]	@ tmp112, xEventGroup
 1176 000a BB60     		str	r3, [r7, #8]	@ tmp112, pxEventBits
 1177              	@ FreeRTOS/event_groups.c:663: 		if( xEventGroup == NULL )
 662:FreeRTOS/event_groups.c **** 
 663:FreeRTOS/event_groups.c **** 		if( xEventGroup == NULL )
 1178              		.loc 1 663 0
 1179 000c 7B68     		ldr	r3, [r7, #4]	@ tmp113, xEventGroup
 1180 000e 002B     		cmp	r3, #0	@ tmp113,
 1181 0010 02D1     		bne	.L60	@,
 1182              	@ FreeRTOS/event_groups.c:665: 			xReturn = 0;
 664:FreeRTOS/event_groups.c **** 		{
 665:FreeRTOS/event_groups.c **** 			xReturn = 0;
 1183              		.loc 1 665 0
 1184 0012 0023     		movs	r3, #0	@ tmp114,
 1185 0014 FB60     		str	r3, [r7, #12]	@ tmp114, xReturn
 1186 0016 02E0     		b	.L61	@
 1187              	.L60:
 1188              	@ FreeRTOS/event_groups.c:669: 			xReturn = pxEventBits->uxEventGroupNumber;
 666:FreeRTOS/event_groups.c **** 		}
 667:FreeRTOS/event_groups.c **** 		else
 668:FreeRTOS/event_groups.c **** 		{
 669:FreeRTOS/event_groups.c **** 			xReturn = pxEventBits->uxEventGroupNumber;
 1189              		.loc 1 669 0
 1190 0018 BB68     		ldr	r3, [r7, #8]	@ tmp115, pxEventBits
 1191 001a 9B69     		ldr	r3, [r3, #24]	@ tmp116, pxEventBits_3->uxEventGroupNumber
 1192 001c FB60     		str	r3, [r7, #12]	@ tmp116, xReturn
 1193              	.L61:
 1194              	@ FreeRTOS/event_groups.c:672: 		return xReturn;
 670:FreeRTOS/event_groups.c **** 		}
 671:FreeRTOS/event_groups.c **** 
 672:FreeRTOS/event_groups.c **** 		return xReturn;
 1195              		.loc 1 672 0
 1196 001e FB68     		ldr	r3, [r7, #12]	@ _7, xReturn
 1197              	@ FreeRTOS/event_groups.c:673: 	}
 673:FreeRTOS/event_groups.c **** 	}
 1198              		.loc 1 673 0
 1199 0020 1846     		mov	r0, r3	@, <retval>
 1200 0022 1437     		adds	r7, r7, #20	@,,
 1201              		.cfi_def_cfa_offset 4
 1202 0024 BD46     		mov	sp, r7	@,
 1203              		.cfi_def_cfa_register 13
 1204              		@ sp needed	@
 1205 0026 80BC     		pop	{r7}	@
 1206              		.cfi_restore 7
ARM GAS  /tmp/ccicK8AM.s 			page 34


 1207              		.cfi_def_cfa_offset 0
 1208 0028 7047     		bx	lr	@
 1209              		.cfi_endproc
 1210              	.LFE11:
 1211              		.size	uxEventGroupGetNumber, .-uxEventGroupGetNumber
 1212              		.text
 1213              	.Letext0:
 1214              		.file 2 "/usr/arm-none-eabi/include/machine/_default_types.h"
 1215              		.file 3 "/usr/arm-none-eabi/include/sys/lock.h"
 1216              		.file 4 "/usr/arm-none-eabi/include/sys/_types.h"
 1217              		.file 5 "/usr/lib/gcc/arm-none-eabi/7.1.0/include/stddef.h"
 1218              		.file 6 "/usr/arm-none-eabi/include/sys/reent.h"
 1219              		.file 7 "/usr/arm-none-eabi/include/stdlib.h"
 1220              		.file 8 "/usr/arm-none-eabi/include/sys/_stdint.h"
 1221              		.file 9 "config/FreeRTOSConfig.h"
 1222              		.file 10 "FreeRTOS/portable/GCC/ARM_CM3/portmacro.h"
 1223              		.file 11 "FreeRTOS/include/list.h"
 1224              		.file 12 "FreeRTOS/include/event_groups.h"