ARM GAS  /tmp/ccfFKL18.s 			page 1


   1              		.cpu cortex-m3
   2              		.eabi_attribute 20, 1	@ Tag_ABI_FP_denormal
   3              		.eabi_attribute 21, 1	@ Tag_ABI_FP_exceptions
   4              		.eabi_attribute 23, 3	@ Tag_ABI_FP_number_model
   5              		.eabi_attribute 24, 1	@ Tag_ABI_align8_needed
   6              		.eabi_attribute 25, 1	@ Tag_ABI_align8_preserved
   7              		.eabi_attribute 26, 1	@ Tag_ABI_enum_size
   8              		.eabi_attribute 30, 6	@ Tag_ABI_optimization_goals
   9              		.eabi_attribute 34, 1	@ Tag_CPU_unaligned_access
  10              		.eabi_attribute 18, 4	@ Tag_ABI_PCS_wchar_t
  11              		.file	"heap_2.c"
  12              	@ GNU C89 (Arch Repository) version 7.1.0 (arm-none-eabi)
  13              	@	compiled by GNU C version 6.3.1 20170306, GMP version 6.1.2, MPFR version 3.1.5-p2, MPC version 1
  14              	
  15              	@ GGC heuristics: --param ggc-min-expand=100 --param ggc-min-heapsize=131072
  16              	@ options passed:  -I . -I config -I system -I core -I drivers -I FreeRTOS
  17              	@ -I FreeRTOS/include -I FreeRTOS/portable/GCC/ARM_CM3 -I FreeRTOS/portable
  18              	@ -I tasks/rc_task_leds -I tasks/rc_task_xbee -I modules/rc_leds
  19              	@ -I modules/rc_xbee -I modules/rc_scheduler -I drivers/rc_system
  20              	@ -I drivers/rc_gpio -I drivers/rc_uart -I drivers/rc_pinsel
  21              	@ -I drivers/rc_timer -I drivers/rc_adc -imultilib armv7-m -MD out/heap_2.d
  22              	@ -MF out/heap_2.d -MP -MQ out/heap_2.o -D__USES_INITFINI__
  23              	@ FreeRTOS/portable/heap_2.c -mcpu=cortex-m3 -mthumb
  24              	@ -auxbase-strip out/heap_2.o -g -ggdb3 -O0 -Wall -Wstrict-prototypes
  25              	@ -Wextra -std=gnu90 -ffunction-sections -fdata-sections -fverbose-asm
  26              	@ options enabled:  -faggressive-loop-optimizations -fauto-inc-dec
  27              	@ -fchkp-check-incomplete-type -fchkp-check-read -fchkp-check-write
  28              	@ -fchkp-instrument-calls -fchkp-narrow-bounds -fchkp-optimize
  29              	@ -fchkp-store-bounds -fchkp-use-static-bounds
  30              	@ -fchkp-use-static-const-bounds -fchkp-use-wrappers -fcommon
  31              	@ -fdata-sections -fdelete-null-pointer-checks -fdwarf2-cfi-asm
  32              	@ -fearly-inlining -feliminate-unused-debug-types -ffp-int-builtin-inexact
  33              	@ -ffunction-cse -ffunction-sections -fgcse-lm -fgnu-runtime -fgnu-unique
  34              	@ -fident -finline-atomics -fira-hoist-pressure -fira-share-save-slots
  35              	@ -fira-share-spill-slots -fivopts -fkeep-static-consts
  36              	@ -fleading-underscore -flifetime-dse -flto-odr-type-merging -fmath-errno
  37              	@ -fmerge-debug-strings -fpeephole -fplt -fprefetch-loop-arrays
  38              	@ -freg-struct-return -fsched-critical-path-heuristic
  39              	@ -fsched-dep-count-heuristic -fsched-group-heuristic -fsched-interblock
  40              	@ -fsched-last-insn-heuristic -fsched-rank-heuristic -fsched-spec
  41              	@ -fsched-spec-insn-heuristic -fsched-stalled-insns-dep
  42              	@ -fsemantic-interposition -fshow-column -fshrink-wrap-separate
  43              	@ -fsigned-zeros -fsplit-ivs-in-unroller -fssa-backprop -fstdarg-opt
  44              	@ -fstrict-volatile-bitfields -fsync-libcalls -ftrapping-math -ftree-cselim
  45              	@ -ftree-forwprop -ftree-loop-if-convert -ftree-loop-im -ftree-loop-ivcanon
  46              	@ -ftree-loop-optimize -ftree-parallelize-loops= -ftree-phiprop
  47              	@ -ftree-reassoc -ftree-scev-cprop -funit-at-a-time -fverbose-asm
  48              	@ -fzero-initialized-in-bss -masm-syntax-unified -mfix-cortex-m3-ldrd
  49              	@ -mlittle-endian -mpic-data-is-text-relative -msched-prolog -mthumb
  50              	@ -munaligned-access -mvectorize-with-neon-quad
  51              	
  52              		.text
  53              	.Ltext0:
  54              		.cfi_sections	.debug_frame
  55              		.section	.bss.ucHeap,"aw",%nobits
  56              		.align	2
  57              		.type	ucHeap, %object
ARM GAS  /tmp/ccfFKL18.s 			page 2


  58              		.size	ucHeap, 8192
  59              	ucHeap:
  60 0000 00000000 		.space	8192
  60      00000000 
  60      00000000 
  60      00000000 
  60      00000000 
  61              		.section	.rodata.heapSTRUCT_SIZE,"a",%progbits
  62              		.align	1
  63              		.type	heapSTRUCT_SIZE, %object
  64              		.size	heapSTRUCT_SIZE, 2
  65              	heapSTRUCT_SIZE:
  66 0000 0800     		.short	8
  67              		.section	.bss.xStart,"aw",%nobits
  68              		.align	2
  69              		.type	xStart, %object
  70              		.size	xStart, 8
  71              	xStart:
  72 0000 00000000 		.space	8
  72      00000000 
  73              		.section	.bss.xEnd,"aw",%nobits
  74              		.align	2
  75              		.type	xEnd, %object
  76              		.size	xEnd, 8
  77              	xEnd:
  78 0000 00000000 		.space	8
  78      00000000 
  79              		.section	.data.xFreeBytesRemaining,"aw",%progbits
  80              		.align	2
  81              		.type	xFreeBytesRemaining, %object
  82              		.size	xFreeBytesRemaining, 4
  83              	xFreeBytesRemaining:
  84 0000 F81F0000 		.word	8184
  85              		.section	.text.pvPortMalloc,"ax",%progbits
  86              		.align	1
  87              		.global	pvPortMalloc
  88              		.syntax unified
  89              		.thumb
  90              		.thumb_func
  91              		.fpu softvfp
  92              		.type	pvPortMalloc, %function
  93              	pvPortMalloc:
  94              	.LFB1:
  95              		.file 1 "FreeRTOS/portable/heap_2.c"
   1:FreeRTOS/portable/heap_2.c **** /*
   2:FreeRTOS/portable/heap_2.c ****     FreeRTOS V8.1.2 - Copyright (C) 2014 Real Time Engineers Ltd.
   3:FreeRTOS/portable/heap_2.c ****     All rights reserved
   4:FreeRTOS/portable/heap_2.c **** 
   5:FreeRTOS/portable/heap_2.c ****     VISIT http://www.FreeRTOS.org TO ENSURE YOU ARE USING THE LATEST VERSION.
   6:FreeRTOS/portable/heap_2.c **** 
   7:FreeRTOS/portable/heap_2.c ****     ***************************************************************************
   8:FreeRTOS/portable/heap_2.c ****      *                                                                       *
   9:FreeRTOS/portable/heap_2.c ****      *    FreeRTOS provides completely free yet professionally developed,    *
  10:FreeRTOS/portable/heap_2.c ****      *    robust, strictly quality controlled, supported, and cross          *
  11:FreeRTOS/portable/heap_2.c ****      *    platform software that has become a de facto standard.             *
  12:FreeRTOS/portable/heap_2.c ****      *                                                                       *
  13:FreeRTOS/portable/heap_2.c ****      *    Help yourself get started quickly and support the FreeRTOS         *
ARM GAS  /tmp/ccfFKL18.s 			page 3


  14:FreeRTOS/portable/heap_2.c ****      *    project by purchasing a FreeRTOS tutorial book, reference          *
  15:FreeRTOS/portable/heap_2.c ****      *    manual, or both from: http://www.FreeRTOS.org/Documentation        *
  16:FreeRTOS/portable/heap_2.c ****      *                                                                       *
  17:FreeRTOS/portable/heap_2.c ****      *    Thank you!                                                         *
  18:FreeRTOS/portable/heap_2.c ****      *                                                                       *
  19:FreeRTOS/portable/heap_2.c ****     ***************************************************************************
  20:FreeRTOS/portable/heap_2.c **** 
  21:FreeRTOS/portable/heap_2.c ****     This file is part of the FreeRTOS distribution.
  22:FreeRTOS/portable/heap_2.c **** 
  23:FreeRTOS/portable/heap_2.c ****     FreeRTOS is free software; you can redistribute it and/or modify it under
  24:FreeRTOS/portable/heap_2.c ****     the terms of the GNU General Public License (version 2) as published by the
  25:FreeRTOS/portable/heap_2.c ****     Free Software Foundation >>!AND MODIFIED BY!<< the FreeRTOS exception.
  26:FreeRTOS/portable/heap_2.c **** 
  27:FreeRTOS/portable/heap_2.c ****     >>!   NOTE: The modification to the GPL is included to allow you to     !<<
  28:FreeRTOS/portable/heap_2.c ****     >>!   distribute a combined work that includes FreeRTOS without being   !<<
  29:FreeRTOS/portable/heap_2.c ****     >>!   obliged to provide the source code for proprietary components     !<<
  30:FreeRTOS/portable/heap_2.c ****     >>!   outside of the FreeRTOS kernel.                                   !<<
  31:FreeRTOS/portable/heap_2.c **** 
  32:FreeRTOS/portable/heap_2.c ****     FreeRTOS is distributed in the hope that it will be useful, but WITHOUT ANY
  33:FreeRTOS/portable/heap_2.c ****     WARRANTY; without even the implied warranty of MERCHANTABILITY or FITNESS
  34:FreeRTOS/portable/heap_2.c ****     FOR A PARTICULAR PURPOSE.  Full license text is available from the following
  35:FreeRTOS/portable/heap_2.c ****     link: http://www.freertos.org/a00114.html
  36:FreeRTOS/portable/heap_2.c **** 
  37:FreeRTOS/portable/heap_2.c ****     1 tab == 4 spaces!
  38:FreeRTOS/portable/heap_2.c **** 
  39:FreeRTOS/portable/heap_2.c ****     ***************************************************************************
  40:FreeRTOS/portable/heap_2.c ****      *                                                                       *
  41:FreeRTOS/portable/heap_2.c ****      *    Having a problem?  Start by reading the FAQ "My application does   *
  42:FreeRTOS/portable/heap_2.c ****      *    not run, what could be wrong?"                                     *
  43:FreeRTOS/portable/heap_2.c ****      *                                                                       *
  44:FreeRTOS/portable/heap_2.c ****      *    http://www.FreeRTOS.org/FAQHelp.html                               *
  45:FreeRTOS/portable/heap_2.c ****      *                                                                       *
  46:FreeRTOS/portable/heap_2.c ****     ***************************************************************************
  47:FreeRTOS/portable/heap_2.c **** 
  48:FreeRTOS/portable/heap_2.c ****     http://www.FreeRTOS.org - Documentation, books, training, latest versions,
  49:FreeRTOS/portable/heap_2.c ****     license and Real Time Engineers Ltd. contact details.
  50:FreeRTOS/portable/heap_2.c **** 
  51:FreeRTOS/portable/heap_2.c ****     http://www.FreeRTOS.org/plus - A selection of FreeRTOS ecosystem products,
  52:FreeRTOS/portable/heap_2.c ****     including FreeRTOS+Trace - an indispensable productivity tool, a DOS
  53:FreeRTOS/portable/heap_2.c ****     compatible FAT file system, and our tiny thread aware UDP/IP stack.
  54:FreeRTOS/portable/heap_2.c **** 
  55:FreeRTOS/portable/heap_2.c ****     http://www.OpenRTOS.com - Real Time Engineers ltd license FreeRTOS to High
  56:FreeRTOS/portable/heap_2.c ****     Integrity Systems to sell under the OpenRTOS brand.  Low cost OpenRTOS
  57:FreeRTOS/portable/heap_2.c ****     licenses offer ticketed support, indemnification and middleware.
  58:FreeRTOS/portable/heap_2.c **** 
  59:FreeRTOS/portable/heap_2.c ****     http://www.SafeRTOS.com - High Integrity Systems also provide a safety
  60:FreeRTOS/portable/heap_2.c ****     engineered and independently SIL3 certified version for use in safety and
  61:FreeRTOS/portable/heap_2.c ****     mission critical applications that require provable dependability.
  62:FreeRTOS/portable/heap_2.c **** 
  63:FreeRTOS/portable/heap_2.c ****     1 tab == 4 spaces!
  64:FreeRTOS/portable/heap_2.c **** */
  65:FreeRTOS/portable/heap_2.c **** 
  66:FreeRTOS/portable/heap_2.c **** /*
  67:FreeRTOS/portable/heap_2.c ****  * A sample implementation of pvPortMalloc() and vPortFree() that permits
  68:FreeRTOS/portable/heap_2.c ****  * allocated blocks to be freed, but does not combine adjacent free blocks
  69:FreeRTOS/portable/heap_2.c ****  * into a single larger block (and so will fragment memory).  See heap_4.c for
  70:FreeRTOS/portable/heap_2.c ****  * an equivalent that does combine adjacent blocks into single larger blocks.
ARM GAS  /tmp/ccfFKL18.s 			page 4


  71:FreeRTOS/portable/heap_2.c ****  *
  72:FreeRTOS/portable/heap_2.c ****  * See heap_1.c, heap_3.c and heap_4.c for alternative implementations, and the
  73:FreeRTOS/portable/heap_2.c ****  * memory management pages of http://www.FreeRTOS.org for more information.
  74:FreeRTOS/portable/heap_2.c ****  */
  75:FreeRTOS/portable/heap_2.c **** #include <stdlib.h>
  76:FreeRTOS/portable/heap_2.c **** 
  77:FreeRTOS/portable/heap_2.c **** /* Defining MPU_WRAPPERS_INCLUDED_FROM_API_FILE prevents task.h from redefining
  78:FreeRTOS/portable/heap_2.c **** all the API functions to use the MPU wrappers.  That should only be done when
  79:FreeRTOS/portable/heap_2.c **** task.h is included from an application file. */
  80:FreeRTOS/portable/heap_2.c **** #define MPU_WRAPPERS_INCLUDED_FROM_API_FILE
  81:FreeRTOS/portable/heap_2.c **** 
  82:FreeRTOS/portable/heap_2.c **** #include "FreeRTOS.h"
  83:FreeRTOS/portable/heap_2.c **** #include "task.h"
  84:FreeRTOS/portable/heap_2.c **** 
  85:FreeRTOS/portable/heap_2.c **** #undef MPU_WRAPPERS_INCLUDED_FROM_API_FILE
  86:FreeRTOS/portable/heap_2.c **** 
  87:FreeRTOS/portable/heap_2.c **** /* A few bytes might be lost to byte aligning the heap start address. */
  88:FreeRTOS/portable/heap_2.c **** #define configADJUSTED_HEAP_SIZE	( configTOTAL_HEAP_SIZE - portBYTE_ALIGNMENT )
  89:FreeRTOS/portable/heap_2.c **** 
  90:FreeRTOS/portable/heap_2.c **** /*
  91:FreeRTOS/portable/heap_2.c ****  * Initialises the heap structures before their first use.
  92:FreeRTOS/portable/heap_2.c ****  */
  93:FreeRTOS/portable/heap_2.c **** static void prvHeapInit( void );
  94:FreeRTOS/portable/heap_2.c **** 
  95:FreeRTOS/portable/heap_2.c **** /* Allocate the memory for the heap. */
  96:FreeRTOS/portable/heap_2.c **** //__attribute__ ((section(".rtos")))
  97:FreeRTOS/portable/heap_2.c **** static uint8_t ucHeap[ configTOTAL_HEAP_SIZE ];
  98:FreeRTOS/portable/heap_2.c **** 
  99:FreeRTOS/portable/heap_2.c **** /* Define the linked list structure.  This is used to link free blocks in order
 100:FreeRTOS/portable/heap_2.c **** of their size. */
 101:FreeRTOS/portable/heap_2.c **** typedef struct A_BLOCK_LINK
 102:FreeRTOS/portable/heap_2.c **** {
 103:FreeRTOS/portable/heap_2.c **** 	struct A_BLOCK_LINK *pxNextFreeBlock;	/*<< The next free block in the list. */
 104:FreeRTOS/portable/heap_2.c **** 	size_t xBlockSize;						/*<< The size of the free block. */
 105:FreeRTOS/portable/heap_2.c **** } BlockLink_t;
 106:FreeRTOS/portable/heap_2.c **** 
 107:FreeRTOS/portable/heap_2.c **** 
 108:FreeRTOS/portable/heap_2.c **** static const uint16_t heapSTRUCT_SIZE	= ( ( sizeof ( BlockLink_t ) + ( portBYTE_ALIGNMENT - 1 ) ) &
 109:FreeRTOS/portable/heap_2.c **** #define heapMINIMUM_BLOCK_SIZE	( ( size_t ) ( heapSTRUCT_SIZE * 2 ) )
 110:FreeRTOS/portable/heap_2.c **** 
 111:FreeRTOS/portable/heap_2.c **** /* Create a couple of list links to mark the start and end of the list. */
 112:FreeRTOS/portable/heap_2.c **** static BlockLink_t xStart, xEnd;
 113:FreeRTOS/portable/heap_2.c **** 
 114:FreeRTOS/portable/heap_2.c **** /* Keeps track of the number of free bytes remaining, but says nothing about
 115:FreeRTOS/portable/heap_2.c **** fragmentation. */
 116:FreeRTOS/portable/heap_2.c **** static size_t xFreeBytesRemaining = configADJUSTED_HEAP_SIZE;
 117:FreeRTOS/portable/heap_2.c **** 
 118:FreeRTOS/portable/heap_2.c **** /* STATIC FUNCTIONS ARE DEFINED AS MACROS TO MINIMIZE THE FUNCTION CALL DEPTH. */
 119:FreeRTOS/portable/heap_2.c **** 
 120:FreeRTOS/portable/heap_2.c **** /*
 121:FreeRTOS/portable/heap_2.c ****  * Insert a block into the list of free blocks - which is ordered by size of
 122:FreeRTOS/portable/heap_2.c ****  * the block.  Small blocks at the start of the list and large blocks at the end
 123:FreeRTOS/portable/heap_2.c ****  * of the list.
 124:FreeRTOS/portable/heap_2.c ****  */
 125:FreeRTOS/portable/heap_2.c **** #define prvInsertBlockIntoFreeList( pxBlockToInsert )								\
 126:FreeRTOS/portable/heap_2.c **** {																					\
 127:FreeRTOS/portable/heap_2.c **** BlockLink_t *pxIterator;																\
ARM GAS  /tmp/ccfFKL18.s 			page 5


 128:FreeRTOS/portable/heap_2.c **** size_t xBlockSize;																	\
 129:FreeRTOS/portable/heap_2.c **** 																					\
 130:FreeRTOS/portable/heap_2.c **** 	xBlockSize = pxBlockToInsert->xBlockSize;										\
 131:FreeRTOS/portable/heap_2.c **** 																					\
 132:FreeRTOS/portable/heap_2.c **** 	/* Iterate through the list until a block is found that has a larger size */	\
 133:FreeRTOS/portable/heap_2.c **** 	/* than the block we are inserting. */											\
 134:FreeRTOS/portable/heap_2.c **** 	for( pxIterator = &xStart; pxIterator->pxNextFreeBlock->xBlockSize < xBlockSize; pxIterator = pxIt
 135:FreeRTOS/portable/heap_2.c **** 	{																				\
 136:FreeRTOS/portable/heap_2.c **** 		/* There is nothing to do here - just iterate to the correct position. */	\
 137:FreeRTOS/portable/heap_2.c **** 	}																				\
 138:FreeRTOS/portable/heap_2.c **** 																					\
 139:FreeRTOS/portable/heap_2.c **** 	/* Update the list to include the block being inserted in the correct */		\
 140:FreeRTOS/portable/heap_2.c **** 	/* position. */																	\
 141:FreeRTOS/portable/heap_2.c **** 	pxBlockToInsert->pxNextFreeBlock = pxIterator->pxNextFreeBlock;					\
 142:FreeRTOS/portable/heap_2.c **** 	pxIterator->pxNextFreeBlock = pxBlockToInsert;									\
 143:FreeRTOS/portable/heap_2.c **** }
 144:FreeRTOS/portable/heap_2.c **** /*-----------------------------------------------------------*/
 145:FreeRTOS/portable/heap_2.c **** 
 146:FreeRTOS/portable/heap_2.c **** void *pvPortMalloc( size_t xWantedSize )
 147:FreeRTOS/portable/heap_2.c **** {
  96              		.loc 1 147 0
  97              		.cfi_startproc
  98              		@ args = 0, pretend = 0, frame = 32
  99              		@ frame_needed = 1, uses_anonymous_args = 0
 100 0000 80B5     		push	{r7, lr}	@
 101              		.cfi_def_cfa_offset 8
 102              		.cfi_offset 7, -8
 103              		.cfi_offset 14, -4
 104 0002 88B0     		sub	sp, sp, #32	@,,
 105              		.cfi_def_cfa_offset 40
 106 0004 00AF     		add	r7, sp, #0	@,,
 107              		.cfi_def_cfa_register 7
 108 0006 7860     		str	r0, [r7, #4]	@ xWantedSize, xWantedSize
 109              	@ FreeRTOS/portable/heap_2.c:150: void *pvReturn = NULL;
 148:FreeRTOS/portable/heap_2.c **** BlockLink_t *pxBlock, *pxPreviousBlock, *pxNewBlockLink;
 149:FreeRTOS/portable/heap_2.c **** static BaseType_t xHeapHasBeenInitialised = pdFALSE;
 150:FreeRTOS/portable/heap_2.c **** void *pvReturn = NULL;
 110              		.loc 1 150 0
 111 0008 0023     		movs	r3, #0	@ tmp137,
 112 000a 7B61     		str	r3, [r7, #20]	@ tmp137, pvReturn
 113              	@ FreeRTOS/portable/heap_2.c:152: 	vTaskSuspendAll();
 151:FreeRTOS/portable/heap_2.c **** 
 152:FreeRTOS/portable/heap_2.c **** 	vTaskSuspendAll();
 114              		.loc 1 152 0
 115 000c FFF7FEFF 		bl	vTaskSuspendAll	@
 116              	@ FreeRTOS/portable/heap_2.c:156: 		if( xHeapHasBeenInitialised == pdFALSE )
 153:FreeRTOS/portable/heap_2.c **** 	{
 154:FreeRTOS/portable/heap_2.c **** 		/* If this is the first call to malloc then the heap will require
 155:FreeRTOS/portable/heap_2.c **** 		initialisation to setup the list of free blocks. */
 156:FreeRTOS/portable/heap_2.c **** 		if( xHeapHasBeenInitialised == pdFALSE )
 117              		.loc 1 156 0
 118 0010 3E4B     		ldr	r3, .L12	@ tmp138,
 119 0012 1B68     		ldr	r3, [r3]	@ xHeapHasBeenInitialised.0_1, xHeapHasBeenInitialised
 120 0014 002B     		cmp	r3, #0	@ xHeapHasBeenInitialised.0_1,
 121 0016 04D1     		bne	.L2	@,
 122              	@ FreeRTOS/portable/heap_2.c:158: 			prvHeapInit();
 157:FreeRTOS/portable/heap_2.c **** 		{
ARM GAS  /tmp/ccfFKL18.s 			page 6


 158:FreeRTOS/portable/heap_2.c **** 			prvHeapInit();
 123              		.loc 1 158 0
 124 0018 FFF7FEFF 		bl	prvHeapInit	@
 125              	@ FreeRTOS/portable/heap_2.c:159: 			xHeapHasBeenInitialised = pdTRUE;
 159:FreeRTOS/portable/heap_2.c **** 			xHeapHasBeenInitialised = pdTRUE;
 126              		.loc 1 159 0
 127 001c 3B4B     		ldr	r3, .L12	@ tmp139,
 128 001e 0122     		movs	r2, #1	@ tmp140,
 129 0020 1A60     		str	r2, [r3]	@ tmp140, xHeapHasBeenInitialised
 130              	.L2:
 131              	@ FreeRTOS/portable/heap_2.c:164: 		if( xWantedSize > 0 )
 160:FreeRTOS/portable/heap_2.c **** 		}
 161:FreeRTOS/portable/heap_2.c **** 
 162:FreeRTOS/portable/heap_2.c **** 		/* The wanted size is increased so it can contain a BlockLink_t
 163:FreeRTOS/portable/heap_2.c **** 		structure in addition to the requested amount of bytes. */
 164:FreeRTOS/portable/heap_2.c **** 		if( xWantedSize > 0 )
 132              		.loc 1 164 0
 133 0022 7B68     		ldr	r3, [r7, #4]	@ tmp141, xWantedSize
 134 0024 002B     		cmp	r3, #0	@ tmp141,
 135 0026 0ED0     		beq	.L3	@,
 136              	@ FreeRTOS/portable/heap_2.c:166: 			xWantedSize += heapSTRUCT_SIZE;
 165:FreeRTOS/portable/heap_2.c **** 		{
 166:FreeRTOS/portable/heap_2.c **** 			xWantedSize += heapSTRUCT_SIZE;
 137              		.loc 1 166 0
 138 0028 0823     		movs	r3, #8	@ heapSTRUCT_SIZE.1_2,
 139 002a 1A46     		mov	r2, r3	@ _3, heapSTRUCT_SIZE.1_2
 140 002c 7B68     		ldr	r3, [r7, #4]	@ tmp143, xWantedSize
 141 002e 1344     		add	r3, r3, r2	@ tmp142, _3
 142 0030 7B60     		str	r3, [r7, #4]	@ tmp142, xWantedSize
 143              	@ FreeRTOS/portable/heap_2.c:169: 			if( ( xWantedSize & portBYTE_ALIGNMENT_MASK ) != 0 )
 167:FreeRTOS/portable/heap_2.c **** 
 168:FreeRTOS/portable/heap_2.c **** 			/* Ensure that blocks are always aligned to the required number of bytes. */
 169:FreeRTOS/portable/heap_2.c **** 			if( ( xWantedSize & portBYTE_ALIGNMENT_MASK ) != 0 )
 144              		.loc 1 169 0
 145 0032 7B68     		ldr	r3, [r7, #4]	@ tmp144, xWantedSize
 146 0034 03F00703 		and	r3, r3, #7	@ _4, tmp144,
 147 0038 002B     		cmp	r3, #0	@ _4,
 148 003a 04D0     		beq	.L3	@,
 149              	@ FreeRTOS/portable/heap_2.c:172: 				xWantedSize += ( portBYTE_ALIGNMENT - ( xWantedSize & portBYT
 170:FreeRTOS/portable/heap_2.c **** 			{
 171:FreeRTOS/portable/heap_2.c **** 				/* Byte alignment required. */
 172:FreeRTOS/portable/heap_2.c **** 				xWantedSize += ( portBYTE_ALIGNMENT - ( xWantedSize & portBYTE_ALIGNMENT_MASK ) );
 150              		.loc 1 172 0
 151 003c 7B68     		ldr	r3, [r7, #4]	@ tmp145, xWantedSize
 152 003e 23F00703 		bic	r3, r3, #7	@ _5, tmp145,
 153 0042 0833     		adds	r3, r3, #8	@ tmp146, _5,
 154 0044 7B60     		str	r3, [r7, #4]	@ tmp146, xWantedSize
 155              	.L3:
 156              	@ FreeRTOS/portable/heap_2.c:176: 		if( ( xWantedSize > 0 ) && ( xWantedSize < configADJUSTED_HEAP_
 173:FreeRTOS/portable/heap_2.c **** 			}
 174:FreeRTOS/portable/heap_2.c **** 		}
 175:FreeRTOS/portable/heap_2.c **** 
 176:FreeRTOS/portable/heap_2.c **** 		if( ( xWantedSize > 0 ) && ( xWantedSize < configADJUSTED_HEAP_SIZE ) )
 157              		.loc 1 176 0
 158 0046 7B68     		ldr	r3, [r7, #4]	@ tmp147, xWantedSize
 159 0048 002B     		cmp	r3, #0	@ tmp147,
 160 004a 57D0     		beq	.L4	@,
ARM GAS  /tmp/ccfFKL18.s 			page 7


 161              	@ FreeRTOS/portable/heap_2.c:176: 		if( ( xWantedSize > 0 ) && ( xWantedSize < configADJUSTED_HEAP_
 162              		.loc 1 176 0 is_stmt 0 discriminator 1
 163 004c 7B68     		ldr	r3, [r7, #4]	@ tmp148, xWantedSize
 164 004e 41F6F772 		movw	r2, #8183	@ tmp149,
 165 0052 9342     		cmp	r3, r2	@ tmp148, tmp149
 166 0054 52D8     		bhi	.L4	@,
 167              	@ FreeRTOS/portable/heap_2.c:180: 			pxPreviousBlock = &xStart;
 177:FreeRTOS/portable/heap_2.c **** 		{
 178:FreeRTOS/portable/heap_2.c **** 			/* Blocks are stored in byte order - traverse the list from the start
 179:FreeRTOS/portable/heap_2.c **** 			(smallest) block until one of adequate size is found. */
 180:FreeRTOS/portable/heap_2.c **** 			pxPreviousBlock = &xStart;
 168              		.loc 1 180 0 is_stmt 1
 169 0056 2E4B     		ldr	r3, .L12+4	@ tmp150,
 170 0058 BB61     		str	r3, [r7, #24]	@ tmp150, pxPreviousBlock
 171              	@ FreeRTOS/portable/heap_2.c:181: 			pxBlock = xStart.pxNextFreeBlock;
 181:FreeRTOS/portable/heap_2.c **** 			pxBlock = xStart.pxNextFreeBlock;
 172              		.loc 1 181 0
 173 005a 2D4B     		ldr	r3, .L12+4	@ tmp151,
 174 005c 1B68     		ldr	r3, [r3]	@ tmp152, xStart.pxNextFreeBlock
 175 005e FB61     		str	r3, [r7, #28]	@ tmp152, pxBlock
 176              	@ FreeRTOS/portable/heap_2.c:182: 			while( ( pxBlock->xBlockSize < xWantedSize ) && ( pxBlock->pxN
 182:FreeRTOS/portable/heap_2.c **** 			while( ( pxBlock->xBlockSize < xWantedSize ) && ( pxBlock->pxNextFreeBlock != NULL ) )
 177              		.loc 1 182 0
 178 0060 04E0     		b	.L5	@
 179              	.L7:
 180              	@ FreeRTOS/portable/heap_2.c:184: 				pxPreviousBlock = pxBlock;
 183:FreeRTOS/portable/heap_2.c **** 			{
 184:FreeRTOS/portable/heap_2.c **** 				pxPreviousBlock = pxBlock;
 181              		.loc 1 184 0
 182 0062 FB69     		ldr	r3, [r7, #28]	@ tmp153, pxBlock
 183 0064 BB61     		str	r3, [r7, #24]	@ tmp153, pxPreviousBlock
 184              	@ FreeRTOS/portable/heap_2.c:185: 				pxBlock = pxBlock->pxNextFreeBlock;
 185:FreeRTOS/portable/heap_2.c **** 				pxBlock = pxBlock->pxNextFreeBlock;
 185              		.loc 1 185 0
 186 0066 FB69     		ldr	r3, [r7, #28]	@ tmp154, pxBlock
 187 0068 1B68     		ldr	r3, [r3]	@ tmp155, pxBlock_27->pxNextFreeBlock
 188 006a FB61     		str	r3, [r7, #28]	@ tmp155, pxBlock
 189              	.L5:
 190              	@ FreeRTOS/portable/heap_2.c:182: 			while( ( pxBlock->xBlockSize < xWantedSize ) && ( pxBlock->pxN
 182:FreeRTOS/portable/heap_2.c **** 			while( ( pxBlock->xBlockSize < xWantedSize ) && ( pxBlock->pxNextFreeBlock != NULL ) )
 191              		.loc 1 182 0
 192 006c FB69     		ldr	r3, [r7, #28]	@ tmp156, pxBlock
 193 006e 5B68     		ldr	r3, [r3, #4]	@ _6, pxBlock_27->xBlockSize
 194 0070 7A68     		ldr	r2, [r7, #4]	@ tmp157, xWantedSize
 195 0072 9A42     		cmp	r2, r3	@ tmp157, _6
 196 0074 03D9     		bls	.L6	@,
 197              	@ FreeRTOS/portable/heap_2.c:182: 			while( ( pxBlock->xBlockSize < xWantedSize ) && ( pxBlock->pxN
 182:FreeRTOS/portable/heap_2.c **** 			while( ( pxBlock->xBlockSize < xWantedSize ) && ( pxBlock->pxNextFreeBlock != NULL ) )
 198              		.loc 1 182 0 is_stmt 0 discriminator 1
 199 0076 FB69     		ldr	r3, [r7, #28]	@ tmp158, pxBlock
 200 0078 1B68     		ldr	r3, [r3]	@ _7, pxBlock_27->pxNextFreeBlock
 201 007a 002B     		cmp	r3, #0	@ _7,
 202 007c F1D1     		bne	.L7	@,
 203              	.L6:
 204              	@ FreeRTOS/portable/heap_2.c:189: 			if( pxBlock != &xEnd )
 186:FreeRTOS/portable/heap_2.c **** 			}
 187:FreeRTOS/portable/heap_2.c **** 
ARM GAS  /tmp/ccfFKL18.s 			page 8


 188:FreeRTOS/portable/heap_2.c **** 			/* If we found the end marker then a block of adequate size was not found. */
 189:FreeRTOS/portable/heap_2.c **** 			if( pxBlock != &xEnd )
 205              		.loc 1 189 0 is_stmt 1
 206 007e FB69     		ldr	r3, [r7, #28]	@ tmp159, pxBlock
 207 0080 244A     		ldr	r2, .L12+8	@ tmp160,
 208 0082 9342     		cmp	r3, r2	@ tmp159, tmp160
 209 0084 3AD0     		beq	.L4	@,
 210              	@ FreeRTOS/portable/heap_2.c:193: 				pvReturn = ( void * ) ( ( ( uint8_t * ) pxPreviousBlock->pxNe
 190:FreeRTOS/portable/heap_2.c **** 			{
 191:FreeRTOS/portable/heap_2.c **** 				/* Return the memory space - jumping over the BlockLink_t structure
 192:FreeRTOS/portable/heap_2.c **** 				at its start. */
 193:FreeRTOS/portable/heap_2.c **** 				pvReturn = ( void * ) ( ( ( uint8_t * ) pxPreviousBlock->pxNextFreeBlock ) + heapSTRUCT_SIZE );
 211              		.loc 1 193 0
 212 0086 BB69     		ldr	r3, [r7, #24]	@ tmp161, pxPreviousBlock
 213 0088 1B68     		ldr	r3, [r3]	@ _8, pxPreviousBlock_28->pxNextFreeBlock
 214 008a 0822     		movs	r2, #8	@ heapSTRUCT_SIZE.2_9,
 215 008c 1344     		add	r3, r3, r2	@ tmp162, _10
 216 008e 7B61     		str	r3, [r7, #20]	@ tmp162, pvReturn
 217              	@ FreeRTOS/portable/heap_2.c:197: 				pxPreviousBlock->pxNextFreeBlock = pxBlock->pxNextFreeBlock;
 194:FreeRTOS/portable/heap_2.c **** 
 195:FreeRTOS/portable/heap_2.c **** 				/* This block is being returned for use so must be taken out of the
 196:FreeRTOS/portable/heap_2.c **** 				list of free blocks. */
 197:FreeRTOS/portable/heap_2.c **** 				pxPreviousBlock->pxNextFreeBlock = pxBlock->pxNextFreeBlock;
 218              		.loc 1 197 0
 219 0090 FB69     		ldr	r3, [r7, #28]	@ tmp163, pxBlock
 220 0092 1A68     		ldr	r2, [r3]	@ _11, pxBlock_27->pxNextFreeBlock
 221 0094 BB69     		ldr	r3, [r7, #24]	@ tmp164, pxPreviousBlock
 222 0096 1A60     		str	r2, [r3]	@ _11, pxPreviousBlock_28->pxNextFreeBlock
 223              	@ FreeRTOS/portable/heap_2.c:200: 				if( ( pxBlock->xBlockSize - xWantedSize ) > heapMINIMUM_BLOCK
 198:FreeRTOS/portable/heap_2.c **** 
 199:FreeRTOS/portable/heap_2.c **** 				/* If the block is larger than required it can be split into two. */
 200:FreeRTOS/portable/heap_2.c **** 				if( ( pxBlock->xBlockSize - xWantedSize ) > heapMINIMUM_BLOCK_SIZE )
 224              		.loc 1 200 0
 225 0098 FB69     		ldr	r3, [r7, #28]	@ tmp165, pxBlock
 226 009a 5A68     		ldr	r2, [r3, #4]	@ _12, pxBlock_27->xBlockSize
 227 009c 7B68     		ldr	r3, [r7, #4]	@ tmp166, xWantedSize
 228 009e D31A     		subs	r3, r2, r3	@ _13, _12, tmp166
 229 00a0 0822     		movs	r2, #8	@ heapSTRUCT_SIZE.3_14,
 230 00a2 5200     		lsls	r2, r2, #1	@ _16, _15,
 231 00a4 9342     		cmp	r3, r2	@ _13, _17
 232 00a6 22D9     		bls	.L8	@,
 233              	@ FreeRTOS/portable/heap_2.c:205: 					pxNewBlockLink = ( void * ) ( ( ( uint8_t * ) pxBlock ) + xW
 201:FreeRTOS/portable/heap_2.c **** 				{
 202:FreeRTOS/portable/heap_2.c **** 					/* This block is to be split into two.  Create a new block
 203:FreeRTOS/portable/heap_2.c **** 					following the number of bytes requested. The void cast is
 204:FreeRTOS/portable/heap_2.c **** 					used to prevent byte alignment warnings from the compiler. */
 205:FreeRTOS/portable/heap_2.c **** 					pxNewBlockLink = ( void * ) ( ( ( uint8_t * ) pxBlock ) + xWantedSize );
 234              		.loc 1 205 0
 235 00a8 FA69     		ldr	r2, [r7, #28]	@ tmp168, pxBlock
 236 00aa 7B68     		ldr	r3, [r7, #4]	@ tmp169, xWantedSize
 237 00ac 1344     		add	r3, r3, r2	@ tmp167, tmp168
 238 00ae FB60     		str	r3, [r7, #12]	@ tmp167, pxNewBlockLink
 239              	@ FreeRTOS/portable/heap_2.c:209: 					pxNewBlockLink->xBlockSize = pxBlock->xBlockSize - xWantedSi
 206:FreeRTOS/portable/heap_2.c **** 
 207:FreeRTOS/portable/heap_2.c **** 					/* Calculate the sizes of two blocks split from the single
 208:FreeRTOS/portable/heap_2.c **** 					block. */
 209:FreeRTOS/portable/heap_2.c **** 					pxNewBlockLink->xBlockSize = pxBlock->xBlockSize - xWantedSize;
ARM GAS  /tmp/ccfFKL18.s 			page 9


 240              		.loc 1 209 0
 241 00b0 FB69     		ldr	r3, [r7, #28]	@ tmp170, pxBlock
 242 00b2 5A68     		ldr	r2, [r3, #4]	@ _18, pxBlock_27->xBlockSize
 243 00b4 7B68     		ldr	r3, [r7, #4]	@ tmp171, xWantedSize
 244 00b6 D21A     		subs	r2, r2, r3	@ _19, _18, tmp171
 245 00b8 FB68     		ldr	r3, [r7, #12]	@ tmp172, pxNewBlockLink
 246 00ba 5A60     		str	r2, [r3, #4]	@ _19, pxNewBlockLink_48->xBlockSize
 247              	@ FreeRTOS/portable/heap_2.c:210: 					pxBlock->xBlockSize = xWantedSize;
 210:FreeRTOS/portable/heap_2.c **** 					pxBlock->xBlockSize = xWantedSize;
 248              		.loc 1 210 0
 249 00bc FB69     		ldr	r3, [r7, #28]	@ tmp173, pxBlock
 250 00be 7A68     		ldr	r2, [r7, #4]	@ tmp174, xWantedSize
 251 00c0 5A60     		str	r2, [r3, #4]	@ tmp174, pxBlock_27->xBlockSize
 252              	.LBB2:
 253              	@ FreeRTOS/portable/heap_2.c:213: 					prvInsertBlockIntoFreeList( ( pxNewBlockLink ) );
 211:FreeRTOS/portable/heap_2.c **** 
 212:FreeRTOS/portable/heap_2.c **** 					/* Insert the new block into the list of free blocks. */
 213:FreeRTOS/portable/heap_2.c **** 					prvInsertBlockIntoFreeList( ( pxNewBlockLink ) );
 254              		.loc 1 213 0
 255 00c2 FB68     		ldr	r3, [r7, #12]	@ tmp175, pxNewBlockLink
 256 00c4 5B68     		ldr	r3, [r3, #4]	@ tmp176, pxNewBlockLink_48->xBlockSize
 257 00c6 BB60     		str	r3, [r7, #8]	@ tmp176, xBlockSize
 258 00c8 114B     		ldr	r3, .L12+4	@ tmp177,
 259 00ca 3B61     		str	r3, [r7, #16]	@ tmp177, pxIterator
 260 00cc 02E0     		b	.L9	@
 261              	.L10:
 262              	@ FreeRTOS/portable/heap_2.c:213: 					prvInsertBlockIntoFreeList( ( pxNewBlockLink ) );
 263              		.loc 1 213 0 is_stmt 0 discriminator 3
 264 00ce 3B69     		ldr	r3, [r7, #16]	@ tmp178, pxIterator
 265 00d0 1B68     		ldr	r3, [r3]	@ tmp179, pxIterator_30->pxNextFreeBlock
 266 00d2 3B61     		str	r3, [r7, #16]	@ tmp179, pxIterator
 267              	.L9:
 268              	@ FreeRTOS/portable/heap_2.c:213: 					prvInsertBlockIntoFreeList( ( pxNewBlockLink ) );
 269              		.loc 1 213 0 discriminator 1
 270 00d4 3B69     		ldr	r3, [r7, #16]	@ tmp180, pxIterator
 271 00d6 1B68     		ldr	r3, [r3]	@ _20, pxIterator_30->pxNextFreeBlock
 272 00d8 5B68     		ldr	r3, [r3, #4]	@ _21, _20->xBlockSize
 273 00da BA68     		ldr	r2, [r7, #8]	@ tmp181, xBlockSize
 274 00dc 9A42     		cmp	r2, r3	@ tmp181, _21
 275 00de F6D8     		bhi	.L10	@,
 276              	@ FreeRTOS/portable/heap_2.c:213: 					prvInsertBlockIntoFreeList( ( pxNewBlockLink ) );
 277              		.loc 1 213 0 discriminator 4
 278 00e0 3B69     		ldr	r3, [r7, #16]	@ tmp182, pxIterator
 279 00e2 1A68     		ldr	r2, [r3]	@ _22, pxIterator_30->pxNextFreeBlock
 280 00e4 FB68     		ldr	r3, [r7, #12]	@ tmp183, pxNewBlockLink
 281 00e6 1A60     		str	r2, [r3]	@ _22, pxNewBlockLink_48->pxNextFreeBlock
 282 00e8 3B69     		ldr	r3, [r7, #16]	@ tmp184, pxIterator
 283 00ea FA68     		ldr	r2, [r7, #12]	@ tmp185, pxNewBlockLink
 284 00ec 1A60     		str	r2, [r3]	@ tmp185, pxIterator_30->pxNextFreeBlock
 285              	.L8:
 286              	.LBE2:
 287              	@ FreeRTOS/portable/heap_2.c:216: 				xFreeBytesRemaining -= pxBlock->xBlockSize;
 214:FreeRTOS/portable/heap_2.c **** 				}
 215:FreeRTOS/portable/heap_2.c **** 
 216:FreeRTOS/portable/heap_2.c **** 				xFreeBytesRemaining -= pxBlock->xBlockSize;
 288              		.loc 1 216 0 is_stmt 1
 289 00ee 0A4B     		ldr	r3, .L12+12	@ tmp186,
ARM GAS  /tmp/ccfFKL18.s 			page 10


 290 00f0 1A68     		ldr	r2, [r3]	@ xFreeBytesRemaining.4_23, xFreeBytesRemaining
 291 00f2 FB69     		ldr	r3, [r7, #28]	@ tmp187, pxBlock
 292 00f4 5B68     		ldr	r3, [r3, #4]	@ _24, pxBlock_27->xBlockSize
 293 00f6 D31A     		subs	r3, r2, r3	@ _25, xFreeBytesRemaining.4_23, _24
 294 00f8 074A     		ldr	r2, .L12+12	@ tmp188,
 295 00fa 1360     		str	r3, [r2]	@ _25, xFreeBytesRemaining
 296              	.L4:
 297              	@ FreeRTOS/portable/heap_2.c:222: 	( void ) xTaskResumeAll();
 217:FreeRTOS/portable/heap_2.c **** 			}
 218:FreeRTOS/portable/heap_2.c **** 		}
 219:FreeRTOS/portable/heap_2.c **** 
 220:FreeRTOS/portable/heap_2.c **** 		traceMALLOC( pvReturn, xWantedSize );
 221:FreeRTOS/portable/heap_2.c **** 	}
 222:FreeRTOS/portable/heap_2.c **** 	( void ) xTaskResumeAll();
 298              		.loc 1 222 0
 299 00fc FFF7FEFF 		bl	xTaskResumeAll	@
 300              	@ FreeRTOS/portable/heap_2.c:234: 	return pvReturn;
 223:FreeRTOS/portable/heap_2.c **** 
 224:FreeRTOS/portable/heap_2.c **** 	#if( configUSE_MALLOC_FAILED_HOOK == 1 )
 225:FreeRTOS/portable/heap_2.c **** 	{
 226:FreeRTOS/portable/heap_2.c **** 		if( pvReturn == NULL )
 227:FreeRTOS/portable/heap_2.c **** 		{
 228:FreeRTOS/portable/heap_2.c **** 			extern void vApplicationMallocFailedHook( void );
 229:FreeRTOS/portable/heap_2.c **** 			vApplicationMallocFailedHook();
 230:FreeRTOS/portable/heap_2.c **** 		}
 231:FreeRTOS/portable/heap_2.c **** 	}
 232:FreeRTOS/portable/heap_2.c **** 	#endif
 233:FreeRTOS/portable/heap_2.c **** 
 234:FreeRTOS/portable/heap_2.c **** 	return pvReturn;
 301              		.loc 1 234 0
 302 0100 7B69     		ldr	r3, [r7, #20]	@ _58, pvReturn
 303              	@ FreeRTOS/portable/heap_2.c:235: }
 235:FreeRTOS/portable/heap_2.c **** }
 304              		.loc 1 235 0
 305 0102 1846     		mov	r0, r3	@, <retval>
 306 0104 2037     		adds	r7, r7, #32	@,,
 307              		.cfi_def_cfa_offset 8
 308 0106 BD46     		mov	sp, r7	@,
 309              		.cfi_def_cfa_register 13
 310              		@ sp needed	@
 311 0108 80BD     		pop	{r7, pc}	@
 312              	.L13:
 313 010a 00BF     		.align	2
 314              	.L12:
 315 010c 00000000 		.word	xHeapHasBeenInitialised.4985
 316 0110 00000000 		.word	xStart
 317 0114 00000000 		.word	xEnd
 318 0118 00000000 		.word	xFreeBytesRemaining
 319              		.cfi_endproc
 320              	.LFE1:
 321              		.size	pvPortMalloc, .-pvPortMalloc
 322              		.section	.text.vPortFree,"ax",%progbits
 323              		.align	1
 324              		.global	vPortFree
 325              		.syntax unified
 326              		.thumb
 327              		.thumb_func
ARM GAS  /tmp/ccfFKL18.s 			page 11


 328              		.fpu softvfp
 329              		.type	vPortFree, %function
 330              	vPortFree:
 331              	.LFB2:
 236:FreeRTOS/portable/heap_2.c **** /*-----------------------------------------------------------*/
 237:FreeRTOS/portable/heap_2.c **** 
 238:FreeRTOS/portable/heap_2.c **** void vPortFree( void *pv )
 239:FreeRTOS/portable/heap_2.c **** {
 332              		.loc 1 239 0
 333              		.cfi_startproc
 334              		@ args = 0, pretend = 0, frame = 24
 335              		@ frame_needed = 1, uses_anonymous_args = 0
 336 0000 80B5     		push	{r7, lr}	@
 337              		.cfi_def_cfa_offset 8
 338              		.cfi_offset 7, -8
 339              		.cfi_offset 14, -4
 340 0002 86B0     		sub	sp, sp, #24	@,,
 341              		.cfi_def_cfa_offset 32
 342 0004 00AF     		add	r7, sp, #0	@,,
 343              		.cfi_def_cfa_register 7
 344 0006 7860     		str	r0, [r7, #4]	@ pv, pv
 345              	@ FreeRTOS/portable/heap_2.c:240: uint8_t *puc = ( uint8_t * ) pv;
 240:FreeRTOS/portable/heap_2.c **** uint8_t *puc = ( uint8_t * ) pv;
 346              		.loc 1 240 0
 347 0008 7B68     		ldr	r3, [r7, #4]	@ tmp119, pv
 348 000a 3B61     		str	r3, [r7, #16]	@ tmp119, puc
 349              	@ FreeRTOS/portable/heap_2.c:243: 	if( pv != NULL )
 241:FreeRTOS/portable/heap_2.c **** BlockLink_t *pxLink;
 242:FreeRTOS/portable/heap_2.c **** 
 243:FreeRTOS/portable/heap_2.c **** 	if( pv != NULL )
 350              		.loc 1 243 0
 351 000c 7B68     		ldr	r3, [r7, #4]	@ tmp120, pv
 352 000e 002B     		cmp	r3, #0	@ tmp120,
 353 0010 27D0     		beq	.L18	@,
 354              	@ FreeRTOS/portable/heap_2.c:247: 		puc -= heapSTRUCT_SIZE;
 244:FreeRTOS/portable/heap_2.c **** 	{
 245:FreeRTOS/portable/heap_2.c **** 		/* The memory being freed will have an BlockLink_t structure immediately
 246:FreeRTOS/portable/heap_2.c **** 		before it. */
 247:FreeRTOS/portable/heap_2.c **** 		puc -= heapSTRUCT_SIZE;
 355              		.loc 1 247 0
 356 0012 0823     		movs	r3, #8	@ heapSTRUCT_SIZE.5_1,
 357 0014 5B42     		negs	r3, r3	@ _3, _2
 358 0016 3A69     		ldr	r2, [r7, #16]	@ tmp122, puc
 359 0018 1344     		add	r3, r3, r2	@ tmp121, tmp122
 360 001a 3B61     		str	r3, [r7, #16]	@ tmp121, puc
 361              	@ FreeRTOS/portable/heap_2.c:251: 		pxLink = ( void * ) puc;
 248:FreeRTOS/portable/heap_2.c **** 
 249:FreeRTOS/portable/heap_2.c **** 		/* This unexpected casting is to keep some compilers from issuing
 250:FreeRTOS/portable/heap_2.c **** 		byte alignment warnings. */
 251:FreeRTOS/portable/heap_2.c **** 		pxLink = ( void * ) puc;
 362              		.loc 1 251 0
 363 001c 3B69     		ldr	r3, [r7, #16]	@ tmp123, puc
 364 001e FB60     		str	r3, [r7, #12]	@ tmp123, pxLink
 365              	@ FreeRTOS/portable/heap_2.c:253: 		vTaskSuspendAll();
 252:FreeRTOS/portable/heap_2.c **** 
 253:FreeRTOS/portable/heap_2.c **** 		vTaskSuspendAll();
 366              		.loc 1 253 0
ARM GAS  /tmp/ccfFKL18.s 			page 12


 367 0020 FFF7FEFF 		bl	vTaskSuspendAll	@
 368              	.LBB3:
 369              	@ FreeRTOS/portable/heap_2.c:256: 			prvInsertBlockIntoFreeList( ( ( BlockLink_t * ) pxLink ) );
 254:FreeRTOS/portable/heap_2.c **** 		{
 255:FreeRTOS/portable/heap_2.c **** 			/* Add this block to the list of free blocks. */
 256:FreeRTOS/portable/heap_2.c **** 			prvInsertBlockIntoFreeList( ( ( BlockLink_t * ) pxLink ) );
 370              		.loc 1 256 0
 371 0024 FB68     		ldr	r3, [r7, #12]	@ tmp124, pxLink
 372 0026 5B68     		ldr	r3, [r3, #4]	@ tmp125, pxLink_16->xBlockSize
 373 0028 BB60     		str	r3, [r7, #8]	@ tmp125, xBlockSize
 374 002a 104B     		ldr	r3, .L19	@ tmp126,
 375 002c 7B61     		str	r3, [r7, #20]	@ tmp126, pxIterator
 376 002e 02E0     		b	.L16	@
 377              	.L17:
 378              	@ FreeRTOS/portable/heap_2.c:256: 			prvInsertBlockIntoFreeList( ( ( BlockLink_t * ) pxLink ) );
 379              		.loc 1 256 0 is_stmt 0 discriminator 3
 380 0030 7B69     		ldr	r3, [r7, #20]	@ tmp127, pxIterator
 381 0032 1B68     		ldr	r3, [r3]	@ tmp128, pxIterator_10->pxNextFreeBlock
 382 0034 7B61     		str	r3, [r7, #20]	@ tmp128, pxIterator
 383              	.L16:
 384              	@ FreeRTOS/portable/heap_2.c:256: 			prvInsertBlockIntoFreeList( ( ( BlockLink_t * ) pxLink ) );
 385              		.loc 1 256 0 discriminator 1
 386 0036 7B69     		ldr	r3, [r7, #20]	@ tmp129, pxIterator
 387 0038 1B68     		ldr	r3, [r3]	@ _4, pxIterator_10->pxNextFreeBlock
 388 003a 5B68     		ldr	r3, [r3, #4]	@ _5, _4->xBlockSize
 389 003c BA68     		ldr	r2, [r7, #8]	@ tmp130, xBlockSize
 390 003e 9A42     		cmp	r2, r3	@ tmp130, _5
 391 0040 F6D8     		bhi	.L17	@,
 392              	@ FreeRTOS/portable/heap_2.c:256: 			prvInsertBlockIntoFreeList( ( ( BlockLink_t * ) pxLink ) );
 393              		.loc 1 256 0 discriminator 4
 394 0042 7B69     		ldr	r3, [r7, #20]	@ tmp131, pxIterator
 395 0044 1A68     		ldr	r2, [r3]	@ _6, pxIterator_10->pxNextFreeBlock
 396 0046 FB68     		ldr	r3, [r7, #12]	@ tmp132, pxLink
 397 0048 1A60     		str	r2, [r3]	@ _6, pxLink_16->pxNextFreeBlock
 398 004a 7B69     		ldr	r3, [r7, #20]	@ tmp133, pxIterator
 399 004c FA68     		ldr	r2, [r7, #12]	@ tmp134, pxLink
 400 004e 1A60     		str	r2, [r3]	@ tmp134, pxIterator_10->pxNextFreeBlock
 401              	.LBE3:
 402              	@ FreeRTOS/portable/heap_2.c:257: 			xFreeBytesRemaining += pxLink->xBlockSize;
 257:FreeRTOS/portable/heap_2.c **** 			xFreeBytesRemaining += pxLink->xBlockSize;
 403              		.loc 1 257 0 is_stmt 1 discriminator 4
 404 0050 FB68     		ldr	r3, [r7, #12]	@ tmp135, pxLink
 405 0052 5A68     		ldr	r2, [r3, #4]	@ _7, pxLink_16->xBlockSize
 406 0054 064B     		ldr	r3, .L19+4	@ tmp136,
 407 0056 1B68     		ldr	r3, [r3]	@ xFreeBytesRemaining.6_8, xFreeBytesRemaining
 408 0058 1344     		add	r3, r3, r2	@ _9, _7
 409 005a 054A     		ldr	r2, .L19+4	@ tmp137,
 410 005c 1360     		str	r3, [r2]	@ _9, xFreeBytesRemaining
 411              	@ FreeRTOS/portable/heap_2.c:260: 		( void ) xTaskResumeAll();
 258:FreeRTOS/portable/heap_2.c **** 			traceFREE( pv, pxLink->xBlockSize );
 259:FreeRTOS/portable/heap_2.c **** 		}
 260:FreeRTOS/portable/heap_2.c **** 		( void ) xTaskResumeAll();
 412              		.loc 1 260 0 discriminator 4
 413 005e FFF7FEFF 		bl	xTaskResumeAll	@
 414              	.L18:
 415              	@ FreeRTOS/portable/heap_2.c:262: }
 261:FreeRTOS/portable/heap_2.c **** 	}
ARM GAS  /tmp/ccfFKL18.s 			page 13


 262:FreeRTOS/portable/heap_2.c **** }
 416              		.loc 1 262 0
 417 0062 00BF     		nop
 418 0064 1837     		adds	r7, r7, #24	@,,
 419              		.cfi_def_cfa_offset 8
 420 0066 BD46     		mov	sp, r7	@,
 421              		.cfi_def_cfa_register 13
 422              		@ sp needed	@
 423 0068 80BD     		pop	{r7, pc}	@
 424              	.L20:
 425 006a 00BF     		.align	2
 426              	.L19:
 427 006c 00000000 		.word	xStart
 428 0070 00000000 		.word	xFreeBytesRemaining
 429              		.cfi_endproc
 430              	.LFE2:
 431              		.size	vPortFree, .-vPortFree
 432              		.section	.text.xPortGetFreeHeapSize,"ax",%progbits
 433              		.align	1
 434              		.global	xPortGetFreeHeapSize
 435              		.syntax unified
 436              		.thumb
 437              		.thumb_func
 438              		.fpu softvfp
 439              		.type	xPortGetFreeHeapSize, %function
 440              	xPortGetFreeHeapSize:
 441              	.LFB3:
 263:FreeRTOS/portable/heap_2.c **** /*-----------------------------------------------------------*/
 264:FreeRTOS/portable/heap_2.c **** 
 265:FreeRTOS/portable/heap_2.c **** size_t xPortGetFreeHeapSize( void )
 266:FreeRTOS/portable/heap_2.c **** {
 442              		.loc 1 266 0
 443              		.cfi_startproc
 444              		@ args = 0, pretend = 0, frame = 0
 445              		@ frame_needed = 1, uses_anonymous_args = 0
 446              		@ link register save eliminated.
 447 0000 80B4     		push	{r7}	@
 448              		.cfi_def_cfa_offset 4
 449              		.cfi_offset 7, -4
 450 0002 00AF     		add	r7, sp, #0	@,,
 451              		.cfi_def_cfa_register 7
 452              	@ FreeRTOS/portable/heap_2.c:267: 	return xFreeBytesRemaining;
 267:FreeRTOS/portable/heap_2.c **** 	return xFreeBytesRemaining;
 453              		.loc 1 267 0
 454 0004 024B     		ldr	r3, .L23	@ tmp112,
 455 0006 1B68     		ldr	r3, [r3]	@ _2, xFreeBytesRemaining
 456              	@ FreeRTOS/portable/heap_2.c:268: }
 268:FreeRTOS/portable/heap_2.c **** }
 457              		.loc 1 268 0
 458 0008 1846     		mov	r0, r3	@, <retval>
 459 000a BD46     		mov	sp, r7	@,
 460              		.cfi_def_cfa_register 13
 461              		@ sp needed	@
 462 000c 80BC     		pop	{r7}	@
 463              		.cfi_restore 7
 464              		.cfi_def_cfa_offset 0
 465 000e 7047     		bx	lr	@
ARM GAS  /tmp/ccfFKL18.s 			page 14


 466              	.L24:
 467              		.align	2
 468              	.L23:
 469 0010 00000000 		.word	xFreeBytesRemaining
 470              		.cfi_endproc
 471              	.LFE3:
 472              		.size	xPortGetFreeHeapSize, .-xPortGetFreeHeapSize
 473              		.section	.text.vPortInitialiseBlocks,"ax",%progbits
 474              		.align	1
 475              		.global	vPortInitialiseBlocks
 476              		.syntax unified
 477              		.thumb
 478              		.thumb_func
 479              		.fpu softvfp
 480              		.type	vPortInitialiseBlocks, %function
 481              	vPortInitialiseBlocks:
 482              	.LFB4:
 269:FreeRTOS/portable/heap_2.c **** /*-----------------------------------------------------------*/
 270:FreeRTOS/portable/heap_2.c **** 
 271:FreeRTOS/portable/heap_2.c **** void vPortInitialiseBlocks( void )
 272:FreeRTOS/portable/heap_2.c **** {
 483              		.loc 1 272 0
 484              		.cfi_startproc
 485              		@ args = 0, pretend = 0, frame = 0
 486              		@ frame_needed = 1, uses_anonymous_args = 0
 487              		@ link register save eliminated.
 488 0000 80B4     		push	{r7}	@
 489              		.cfi_def_cfa_offset 4
 490              		.cfi_offset 7, -4
 491 0002 00AF     		add	r7, sp, #0	@,,
 492              		.cfi_def_cfa_register 7
 493              	@ FreeRTOS/portable/heap_2.c:274: }
 273:FreeRTOS/portable/heap_2.c **** 	/* This just exists to keep the linker quiet. */
 274:FreeRTOS/portable/heap_2.c **** }
 494              		.loc 1 274 0
 495 0004 00BF     		nop
 496 0006 BD46     		mov	sp, r7	@,
 497              		.cfi_def_cfa_register 13
 498              		@ sp needed	@
 499 0008 80BC     		pop	{r7}	@
 500              		.cfi_restore 7
 501              		.cfi_def_cfa_offset 0
 502 000a 7047     		bx	lr	@
 503              		.cfi_endproc
 504              	.LFE4:
 505              		.size	vPortInitialiseBlocks, .-vPortInitialiseBlocks
 506              		.section	.text.prvHeapInit,"ax",%progbits
 507              		.align	1
 508              		.syntax unified
 509              		.thumb
 510              		.thumb_func
 511              		.fpu softvfp
 512              		.type	prvHeapInit, %function
 513              	prvHeapInit:
 514              	.LFB5:
 275:FreeRTOS/portable/heap_2.c **** /*-----------------------------------------------------------*/
 276:FreeRTOS/portable/heap_2.c **** 
ARM GAS  /tmp/ccfFKL18.s 			page 15


 277:FreeRTOS/portable/heap_2.c **** static void prvHeapInit( void )
 278:FreeRTOS/portable/heap_2.c **** {
 515              		.loc 1 278 0
 516              		.cfi_startproc
 517              		@ args = 0, pretend = 0, frame = 8
 518              		@ frame_needed = 1, uses_anonymous_args = 0
 519              		@ link register save eliminated.
 520 0000 80B4     		push	{r7}	@
 521              		.cfi_def_cfa_offset 4
 522              		.cfi_offset 7, -4
 523 0002 83B0     		sub	sp, sp, #12	@,,
 524              		.cfi_def_cfa_offset 16
 525 0004 00AF     		add	r7, sp, #0	@,,
 526              		.cfi_def_cfa_register 7
 527              	@ FreeRTOS/portable/heap_2.c:283: 	pucAlignedHeap = ( uint8_t * ) ( ( ( portPOINTER_SIZE_TYPE ) &uc
 279:FreeRTOS/portable/heap_2.c **** BlockLink_t *pxFirstFreeBlock;
 280:FreeRTOS/portable/heap_2.c **** uint8_t *pucAlignedHeap;
 281:FreeRTOS/portable/heap_2.c **** 
 282:FreeRTOS/portable/heap_2.c **** 	/* Ensure the heap starts on a correctly aligned boundary. */
 283:FreeRTOS/portable/heap_2.c **** 	pucAlignedHeap = ( uint8_t * ) ( ( ( portPOINTER_SIZE_TYPE ) &ucHeap[ portBYTE_ALIGNMENT ] ) & ( (
 528              		.loc 1 283 0
 529 0006 0F4B     		ldr	r3, .L27	@ _1,
 530 0008 23F00703 		bic	r3, r3, #7	@ _2, _1,
 531 000c 7B60     		str	r3, [r7, #4]	@ _2, pucAlignedHeap
 532              	@ FreeRTOS/portable/heap_2.c:287: 	xStart.pxNextFreeBlock = ( void * ) pucAlignedHeap;
 284:FreeRTOS/portable/heap_2.c **** 
 285:FreeRTOS/portable/heap_2.c **** 	/* xStart is used to hold a pointer to the first item in the list of free
 286:FreeRTOS/portable/heap_2.c **** 	blocks.  The void cast is used to prevent compiler warnings. */
 287:FreeRTOS/portable/heap_2.c **** 	xStart.pxNextFreeBlock = ( void * ) pucAlignedHeap;
 533              		.loc 1 287 0
 534 000e 0E4A     		ldr	r2, .L27+4	@ tmp112,
 535 0010 7B68     		ldr	r3, [r7, #4]	@ tmp113, pucAlignedHeap
 536 0012 1360     		str	r3, [r2]	@ tmp113, xStart.pxNextFreeBlock
 537              	@ FreeRTOS/portable/heap_2.c:288: 	xStart.xBlockSize = ( size_t ) 0;
 288:FreeRTOS/portable/heap_2.c **** 	xStart.xBlockSize = ( size_t ) 0;
 538              		.loc 1 288 0
 539 0014 0C4B     		ldr	r3, .L27+4	@ tmp114,
 540 0016 0022     		movs	r2, #0	@ tmp115,
 541 0018 5A60     		str	r2, [r3, #4]	@ tmp115, xStart.xBlockSize
 542              	@ FreeRTOS/portable/heap_2.c:291: 	xEnd.xBlockSize = configADJUSTED_HEAP_SIZE;
 289:FreeRTOS/portable/heap_2.c **** 
 290:FreeRTOS/portable/heap_2.c **** 	/* xEnd is used to mark the end of the list of free blocks. */
 291:FreeRTOS/portable/heap_2.c **** 	xEnd.xBlockSize = configADJUSTED_HEAP_SIZE;
 543              		.loc 1 291 0
 544 001a 0C4B     		ldr	r3, .L27+8	@ tmp116,
 545 001c 41F6F872 		movw	r2, #8184	@ tmp117,
 546 0020 5A60     		str	r2, [r3, #4]	@ tmp117, xEnd.xBlockSize
 547              	@ FreeRTOS/portable/heap_2.c:292: 	xEnd.pxNextFreeBlock = NULL;
 292:FreeRTOS/portable/heap_2.c **** 	xEnd.pxNextFreeBlock = NULL;
 548              		.loc 1 292 0
 549 0022 0A4B     		ldr	r3, .L27+8	@ tmp118,
 550 0024 0022     		movs	r2, #0	@ tmp119,
 551 0026 1A60     		str	r2, [r3]	@ tmp119, xEnd.pxNextFreeBlock
 552              	@ FreeRTOS/portable/heap_2.c:296: 	pxFirstFreeBlock = ( void * ) pucAlignedHeap;
 293:FreeRTOS/portable/heap_2.c **** 
 294:FreeRTOS/portable/heap_2.c **** 	/* To start with there is a single free block that is sized to take up the
 295:FreeRTOS/portable/heap_2.c **** 	entire heap space. */
ARM GAS  /tmp/ccfFKL18.s 			page 16


 296:FreeRTOS/portable/heap_2.c **** 	pxFirstFreeBlock = ( void * ) pucAlignedHeap;
 553              		.loc 1 296 0
 554 0028 7B68     		ldr	r3, [r7, #4]	@ tmp120, pucAlignedHeap
 555 002a 3B60     		str	r3, [r7]	@ tmp120, pxFirstFreeBlock
 556              	@ FreeRTOS/portable/heap_2.c:297: 	pxFirstFreeBlock->xBlockSize = configADJUSTED_HEAP_SIZE;
 297:FreeRTOS/portable/heap_2.c **** 	pxFirstFreeBlock->xBlockSize = configADJUSTED_HEAP_SIZE;
 557              		.loc 1 297 0
 558 002c 3B68     		ldr	r3, [r7]	@ tmp121, pxFirstFreeBlock
 559 002e 41F6F872 		movw	r2, #8184	@ tmp122,
 560 0032 5A60     		str	r2, [r3, #4]	@ tmp122, pxFirstFreeBlock_9->xBlockSize
 561              	@ FreeRTOS/portable/heap_2.c:298: 	pxFirstFreeBlock->pxNextFreeBlock = &xEnd;
 298:FreeRTOS/portable/heap_2.c **** 	pxFirstFreeBlock->pxNextFreeBlock = &xEnd;
 562              		.loc 1 298 0
 563 0034 3B68     		ldr	r3, [r7]	@ tmp123, pxFirstFreeBlock
 564 0036 054A     		ldr	r2, .L27+8	@ tmp124,
 565 0038 1A60     		str	r2, [r3]	@ tmp124, pxFirstFreeBlock_9->pxNextFreeBlock
 566              	@ FreeRTOS/portable/heap_2.c:299: }
 299:FreeRTOS/portable/heap_2.c **** }
 567              		.loc 1 299 0
 568 003a 00BF     		nop
 569 003c 0C37     		adds	r7, r7, #12	@,,
 570              		.cfi_def_cfa_offset 4
 571 003e BD46     		mov	sp, r7	@,
 572              		.cfi_def_cfa_register 13
 573              		@ sp needed	@
 574 0040 80BC     		pop	{r7}	@
 575              		.cfi_restore 7
 576              		.cfi_def_cfa_offset 0
 577 0042 7047     		bx	lr	@
 578              	.L28:
 579              		.align	2
 580              	.L27:
 581 0044 08000000 		.word	ucHeap+8
 582 0048 00000000 		.word	xStart
 583 004c 00000000 		.word	xEnd
 584              		.cfi_endproc
 585              	.LFE5:
 586              		.size	prvHeapInit, .-prvHeapInit
 587              		.section	.bss.xHeapHasBeenInitialised.4985,"aw",%nobits
 588              		.align	2
 589              		.type	xHeapHasBeenInitialised.4985, %object
 590              		.size	xHeapHasBeenInitialised.4985, 4
 591              	xHeapHasBeenInitialised.4985:
 592 0000 00000000 		.space	4
 593              		.text
 594              	.Letext0:
 595              		.file 2 "/usr/lib/gcc/arm-none-eabi/7.1.0/include/stddef.h"
 596              		.file 3 "/usr/arm-none-eabi/include/machine/_default_types.h"
 597              		.file 4 "/usr/arm-none-eabi/include/sys/lock.h"
 598              		.file 5 "/usr/arm-none-eabi/include/sys/_types.h"
 599              		.file 6 "/usr/arm-none-eabi/include/sys/reent.h"
 600              		.file 7 "/usr/arm-none-eabi/include/stdlib.h"
 601              		.file 8 "/usr/arm-none-eabi/include/sys/_stdint.h"
 602              		.file 9 "config/FreeRTOSConfig.h"
 603              		.file 10 "FreeRTOS/portable/GCC/ARM_CM3/portmacro.h"