ARM GAS  C:\Users\STUDENT\AppData\Local\Temp\ccsm4hvi.s 			page 1


   1              		.syntax unified
   2              		.cpu cortex-m3
   3              		.fpu softvfp
   4              		.eabi_attribute 20, 1	@ Tag_ABI_FP_denormal
   5              		.eabi_attribute 21, 1	@ Tag_ABI_FP_exceptions
   6              		.eabi_attribute 23, 3	@ Tag_ABI_FP_number_model
   7              		.eabi_attribute 24, 1	@ Tag_ABI_align8_needed
   8              		.eabi_attribute 25, 1	@ Tag_ABI_align8_preserved
   9              		.eabi_attribute 26, 1	@ Tag_ABI_enum_size
  10              		.eabi_attribute 30, 6	@ Tag_ABI_optimization_goals
  11              		.eabi_attribute 34, 1	@ Tag_CPU_unaligned_access
  12              		.eabi_attribute 18, 4	@ Tag_ABI_PCS_wchar_t
  13              		.file	"lpc17xx_clkpwr.c"
  14              	@ GNU C89 (GNU Tools for ARM Embedded Processors) version 5.4.1 20160919 (release) [ARM/embedded-5-
  15              	@	compiled by GNU C version 4.7.4, GMP version 4.3.2, MPFR version 2.4.2, MPC version 0.8.1
  16              	@ GGC heuristics: --param ggc-min-expand=100 --param ggc-min-heapsize=131072
  17              	@ options passed:  -I . -I config -I system -I core -I drivers -I FreeRTOS
  18              	@ -I FreeRTOS/include -I FreeRTOS/portable/GCC/ARM_CM3 -I FreeRTOS/portable
  19              	@ -I tasks/rc_task_leds -I tasks/rc_task_xbee -I modules/rc_leds
  20              	@ -I modules/rc_xbee -I modules/rc_scheduler -I drivers/rc_system
  21              	@ -I drivers/rc_gpio -I drivers/rc_uart -I drivers/rc_pinsel
  22              	@ -I drivers/rc_timer -I drivers/rc_adc -imultilib armv7-m
  23              	@ -iprefix c:\program files (x86)\gnu tools arm embedded\5.4 2016q3\bin\../lib/gcc/arm-none-eabi/5.
  24              	@ -isysroot c:\program files (x86)\gnu tools arm embedded\5.4 2016q3\bin\../arm-none-eabi
  25              	@ -MD out/lpc17xx_clkpwr.d -MF out/lpc17xx_clkpwr.d -MP
  26              	@ -MQ out/lpc17xx_clkpwr.o -D__USES_INITFINI__ core/lpc17xx_clkpwr.c
  27              	@ -mcpu=cortex-m3 -mthumb -auxbase-strip out/lpc17xx_clkpwr.o -g -ggdb3 -O0
  28              	@ -Wall -Wstrict-prototypes -Wextra -std=gnu90 -ffunction-sections
  29              	@ -fdata-sections -fverbose-asm
  30              	@ options enabled:  -faggressive-loop-optimizations -fauto-inc-dec
  31              	@ -fchkp-check-incomplete-type -fchkp-check-read -fchkp-check-write
  32              	@ -fchkp-instrument-calls -fchkp-narrow-bounds -fchkp-optimize
  33              	@ -fchkp-store-bounds -fchkp-use-static-bounds
  34              	@ -fchkp-use-static-const-bounds -fchkp-use-wrappers -fcommon
  35              	@ -fdata-sections -fdelete-null-pointer-checks -fdwarf2-cfi-asm
  36              	@ -fearly-inlining -feliminate-unused-debug-types -ffunction-cse
  37              	@ -ffunction-sections -fgcse-lm -fgnu-runtime -fgnu-unique -fident
  38              	@ -finline-atomics -fira-hoist-pressure -fira-share-save-slots
  39              	@ -fira-share-spill-slots -fivopts -fkeep-static-consts
  40              	@ -fleading-underscore -flifetime-dse -flto-odr-type-merging -fmath-errno
  41              	@ -fmerge-debug-strings -fpeephole -fprefetch-loop-arrays
  42              	@ -freg-struct-return -fsched-critical-path-heuristic
  43              	@ -fsched-dep-count-heuristic -fsched-group-heuristic -fsched-interblock
  44              	@ -fsched-last-insn-heuristic -fsched-rank-heuristic -fsched-spec
  45              	@ -fsched-spec-insn-heuristic -fsched-stalled-insns-dep
  46              	@ -fsemantic-interposition -fshow-column -fsigned-zeros
  47              	@ -fsplit-ivs-in-unroller -fstdarg-opt -fstrict-volatile-bitfields
  48              	@ -fsync-libcalls -ftrapping-math -ftree-coalesce-vars -ftree-cselim
  49              	@ -ftree-forwprop -ftree-loop-if-convert -ftree-loop-im -ftree-loop-ivcanon
  50              	@ -ftree-loop-optimize -ftree-parallelize-loops= -ftree-phiprop
  51              	@ -ftree-reassoc -ftree-scev-cprop -funit-at-a-time -fverbose-asm
  52              	@ -fzero-initialized-in-bss -masm-syntax-unified -mfix-cortex-m3-ldrd
  53              	@ -mlittle-endian -mpic-data-is-text-relative -msched-prolog -mthumb
  54              	@ -munaligned-access -mvectorize-with-neon-quad
  55              	
  56              		.text
  57              	.Ltext0:
ARM GAS  C:\Users\STUDENT\AppData\Local\Temp\ccsm4hvi.s 			page 2


  58              		.cfi_sections	.debug_frame
  59              		.section	.text.CLKPWR_SetPCLKDiv,"ax",%progbits
  60              		.align	2
  61              		.global	CLKPWR_SetPCLKDiv
  62              		.thumb
  63              		.thumb_func
  64              		.type	CLKPWR_SetPCLKDiv, %function
  65              	CLKPWR_SetPCLKDiv:
  66              	.LFB55:
  67              		.file 1 "core/lpc17xx_clkpwr.c"
   1:core/lpc17xx_clkpwr.c **** /**
   2:core/lpc17xx_clkpwr.c ****  * @file	: lpc17xx_clkpwr.c
   3:core/lpc17xx_clkpwr.c ****  * @brief	: Contains all functions support for Clock and Power Control
   4:core/lpc17xx_clkpwr.c ****  * 				firmware library on LPC17xx
   5:core/lpc17xx_clkpwr.c ****  * @version	: 1.0
   6:core/lpc17xx_clkpwr.c ****  * @date	: 18. Mar. 2009
   7:core/lpc17xx_clkpwr.c ****  * @author	: HieuNguyen
   8:core/lpc17xx_clkpwr.c ****  **************************************************************************
   9:core/lpc17xx_clkpwr.c ****  * Software that is described herein is for illustrative purposes only
  10:core/lpc17xx_clkpwr.c ****  * which provides customers with programming information regarding the
  11:core/lpc17xx_clkpwr.c ****  * products. This software is supplied "AS IS" without any warranties.
  12:core/lpc17xx_clkpwr.c ****  * NXP Semiconductors assumes no responsibility or liability for the
  13:core/lpc17xx_clkpwr.c ****  * use of the software, conveys no license or title under any patent,
  14:core/lpc17xx_clkpwr.c ****  * copyright, or mask work right to the product. NXP Semiconductors
  15:core/lpc17xx_clkpwr.c ****  * reserves the right to make changes in the software without
  16:core/lpc17xx_clkpwr.c ****  * notification. NXP Semiconductors also make no representation or
  17:core/lpc17xx_clkpwr.c ****  * warranty that such application will be suitable for the specified
  18:core/lpc17xx_clkpwr.c ****  * use without further testing or modification.
  19:core/lpc17xx_clkpwr.c ****  **********************************************************************/
  20:core/lpc17xx_clkpwr.c **** 
  21:core/lpc17xx_clkpwr.c **** /* Peripheral group ----------------------------------------------------------- */
  22:core/lpc17xx_clkpwr.c **** /** @addtogroup CLKPWR
  23:core/lpc17xx_clkpwr.c ****  * @{
  24:core/lpc17xx_clkpwr.c ****  */
  25:core/lpc17xx_clkpwr.c **** 
  26:core/lpc17xx_clkpwr.c **** /* Includes ------------------------------------------------------------------- */
  27:core/lpc17xx_clkpwr.c **** #include "lpc17xx_clkpwr.h"
  28:core/lpc17xx_clkpwr.c **** 
  29:core/lpc17xx_clkpwr.c **** 
  30:core/lpc17xx_clkpwr.c **** /* Public Functions ----------------------------------------------------------- */
  31:core/lpc17xx_clkpwr.c **** /** @addtogroup CLKPWR_Public_Functions
  32:core/lpc17xx_clkpwr.c ****  * @{
  33:core/lpc17xx_clkpwr.c ****  */
  34:core/lpc17xx_clkpwr.c **** 
  35:core/lpc17xx_clkpwr.c **** /*********************************************************************//**
  36:core/lpc17xx_clkpwr.c ****  * @brief 		Set value of each Peripheral Clock Selection
  37:core/lpc17xx_clkpwr.c ****  * @param[in]	ClkType	Peripheral Clock Selection of each type,
  38:core/lpc17xx_clkpwr.c ****  * 				should be one of the following:
  39:core/lpc17xx_clkpwr.c ****  *				- CLKPWR_PCLKSEL_WDT   		: WDT
  40:core/lpc17xx_clkpwr.c **** 				- CLKPWR_PCLKSEL_TIMER0   	: Timer 0
  41:core/lpc17xx_clkpwr.c **** 				- CLKPWR_PCLKSEL_TIMER1   	: Timer 1
  42:core/lpc17xx_clkpwr.c **** 				- CLKPWR_PCLKSEL_UART0   	: UART 0
  43:core/lpc17xx_clkpwr.c **** 				- CLKPWR_PCLKSEL_UART1  	: UART 1
  44:core/lpc17xx_clkpwr.c **** 				- CLKPWR_PCLKSEL_PWM1   	: PWM 1
  45:core/lpc17xx_clkpwr.c **** 				- CLKPWR_PCLKSEL_I2C0   	: I2C 0
  46:core/lpc17xx_clkpwr.c **** 				- CLKPWR_PCLKSEL_SPI   		: SPI
  47:core/lpc17xx_clkpwr.c **** 				- CLKPWR_PCLKSEL_SSP1   	: SSP 1
ARM GAS  C:\Users\STUDENT\AppData\Local\Temp\ccsm4hvi.s 			page 3


  48:core/lpc17xx_clkpwr.c **** 				- CLKPWR_PCLKSEL_DAC   		: DAC
  49:core/lpc17xx_clkpwr.c **** 				- CLKPWR_PCLKSEL_ADC   		: ADC
  50:core/lpc17xx_clkpwr.c **** 				- CLKPWR_PCLKSEL_CAN1  		: CAN 1
  51:core/lpc17xx_clkpwr.c **** 				- CLKPWR_PCLKSEL_CAN2  		: CAN 2
  52:core/lpc17xx_clkpwr.c **** 				- CLKPWR_PCLKSEL_ACF   		: ACF
  53:core/lpc17xx_clkpwr.c **** 				- CLKPWR_PCLKSEL_QEI 		: QEI
  54:core/lpc17xx_clkpwr.c **** 				- CLKPWR_PCLKSEL_PCB   		: PCB
  55:core/lpc17xx_clkpwr.c **** 				- CLKPWR_PCLKSEL_I2C1   	: I2C 1
  56:core/lpc17xx_clkpwr.c **** 				- CLKPWR_PCLKSEL_SSP0   	: SSP 0
  57:core/lpc17xx_clkpwr.c **** 				- CLKPWR_PCLKSEL_TIMER2   	: Timer 2
  58:core/lpc17xx_clkpwr.c **** 				- CLKPWR_PCLKSEL_TIMER3   	: Timer 3
  59:core/lpc17xx_clkpwr.c **** 				- CLKPWR_PCLKSEL_UART2   	: UART 2
  60:core/lpc17xx_clkpwr.c **** 				- CLKPWR_PCLKSEL_UART3   	: UART 3
  61:core/lpc17xx_clkpwr.c **** 				- CLKPWR_PCLKSEL_I2C2   	: I2C 2
  62:core/lpc17xx_clkpwr.c **** 				- CLKPWR_PCLKSEL_I2S   		: I2S
  63:core/lpc17xx_clkpwr.c **** 				- CLKPWR_PCLKSEL_RIT   		: RIT
  64:core/lpc17xx_clkpwr.c **** 				- CLKPWR_PCLKSEL_SYSCON   	: SYSCON
  65:core/lpc17xx_clkpwr.c **** 				- CLKPWR_PCLKSEL_MC 		: MC
  66:core/lpc17xx_clkpwr.c **** 
  67:core/lpc17xx_clkpwr.c ****  * @param[in]	DivVal	Value of divider, should be:
  68:core/lpc17xx_clkpwr.c ****  * 				- CLKPWR_PCLKSEL_CCLK_DIV_4 : PCLK_peripheral = CCLK/4
  69:core/lpc17xx_clkpwr.c ****  * 				- CLKPWR_PCLKSEL_CCLK_DIV_1 : PCLK_peripheral = CCLK/1
  70:core/lpc17xx_clkpwr.c ****  *				- CLKPWR_PCLKSEL_CCLK_DIV_2 : PCLK_peripheral = CCLK/2
  71:core/lpc17xx_clkpwr.c ****  *
  72:core/lpc17xx_clkpwr.c ****  * @return none
  73:core/lpc17xx_clkpwr.c ****  **********************************************************************/
  74:core/lpc17xx_clkpwr.c **** void CLKPWR_SetPCLKDiv (uint32_t ClkType, uint32_t DivVal)
  75:core/lpc17xx_clkpwr.c **** {
  68              		.loc 1 75 0
  69              		.cfi_startproc
  70              		@ args = 0, pretend = 0, frame = 16
  71              		@ frame_needed = 1, uses_anonymous_args = 0
  72              		@ link register save eliminated.
  73 0000 80B4     		push	{r7}	@
  74              		.cfi_def_cfa_offset 4
  75              		.cfi_offset 7, -4
  76 0002 85B0     		sub	sp, sp, #20	@,,
  77              		.cfi_def_cfa_offset 24
  78 0004 00AF     		add	r7, sp, #0	@,,
  79              		.cfi_def_cfa_register 7
  80 0006 7860     		str	r0, [r7, #4]	@ ClkType, ClkType
  81 0008 3960     		str	r1, [r7]	@ DivVal, DivVal
  76:core/lpc17xx_clkpwr.c **** 	uint32_t bitpos;
  77:core/lpc17xx_clkpwr.c **** 
  78:core/lpc17xx_clkpwr.c **** 	bitpos = (ClkType < 32) ? (ClkType) : (ClkType - 32);
  82              		.loc 1 78 0
  83 000a 7B68     		ldr	r3, [r7, #4]	@ tmp135, ClkType
  84 000c 1F2B     		cmp	r3, #31	@ tmp135,
  85 000e 02D9     		bls	.L2	@,
  86              		.loc 1 78 0 is_stmt 0 discriminator 1
  87 0010 7B68     		ldr	r3, [r7, #4]	@ tmp136, ClkType
  88 0012 203B     		subs	r3, r3, #32	@ D.5492, tmp136,
  89 0014 00E0     		b	.L3	@
  90              	.L2:
  91              		.loc 1 78 0 discriminator 2
  92 0016 7B68     		ldr	r3, [r7, #4]	@ D.5492, ClkType
  93              	.L3:
ARM GAS  C:\Users\STUDENT\AppData\Local\Temp\ccsm4hvi.s 			page 4


  94              		.loc 1 78 0 discriminator 4
  95 0018 FB60     		str	r3, [r7, #12]	@ D.5492, bitpos
  79:core/lpc17xx_clkpwr.c **** 
  80:core/lpc17xx_clkpwr.c **** 	/* PCLKSEL0 selected */
  81:core/lpc17xx_clkpwr.c **** 	if (ClkType < 32)
  96              		.loc 1 81 0 is_stmt 1 discriminator 4
  97 001a 7B68     		ldr	r3, [r7, #4]	@ tmp137, ClkType
  98 001c 1F2B     		cmp	r3, #31	@ tmp137,
  99 001e 17D8     		bhi	.L4	@,
  82:core/lpc17xx_clkpwr.c **** 	{
  83:core/lpc17xx_clkpwr.c **** 		/* Clear two bit at bit position */
  84:core/lpc17xx_clkpwr.c **** 		LPC_SC->PCLKSEL0 &= (~(CLKPWR_PCLKSEL_BITMASK(bitpos)));
 100              		.loc 1 84 0
 101 0020 1949     		ldr	r1, .L7	@ D.5493,
 102 0022 194B     		ldr	r3, .L7	@ D.5493,
 103 0024 D3F8A831 		ldr	r3, [r3, #424]	@ D.5492, _8->PCLKSEL0
 104 0028 0320     		movs	r0, #3	@ tmp138,
 105 002a FA68     		ldr	r2, [r7, #12]	@ tmp139, bitpos
 106 002c 00FA02F2 		lsl	r2, r0, r2	@ D.5494, tmp138, tmp139
 107 0030 D243     		mvns	r2, r2	@ D.5494, D.5494
 108 0032 1340     		ands	r3, r3, r2	@, D.5492, D.5492, D.5492
 109 0034 C1F8A831 		str	r3, [r1, #424]	@ D.5492, _7->PCLKSEL0
  85:core/lpc17xx_clkpwr.c **** 
  86:core/lpc17xx_clkpwr.c **** 		/* Set two selected bit */
  87:core/lpc17xx_clkpwr.c **** 		LPC_SC->PCLKSEL0 |= (CLKPWR_PCLKSEL_SET(bitpos, DivVal));
 110              		.loc 1 87 0
 111 0038 1348     		ldr	r0, .L7	@ D.5493,
 112 003a 134B     		ldr	r3, .L7	@ D.5493,
 113 003c D3F8A821 		ldr	r2, [r3, #424]	@ D.5492, _17->PCLKSEL0
 114 0040 3968     		ldr	r1, [r7]	@ tmp140, DivVal
 115 0042 FB68     		ldr	r3, [r7, #12]	@ tmp141, bitpos
 116 0044 01FA03F3 		lsl	r3, r1, r3	@ D.5492, tmp140, tmp141
 117 0048 1343     		orrs	r3, r3, r2	@, D.5492, D.5492, D.5492
 118 004a C0F8A831 		str	r3, [r0, #424]	@ D.5492, _16->PCLKSEL0
  88:core/lpc17xx_clkpwr.c **** 	}
  89:core/lpc17xx_clkpwr.c **** 	/* PCLKSEL1 selected */
  90:core/lpc17xx_clkpwr.c **** 	else
  91:core/lpc17xx_clkpwr.c **** 	{
  92:core/lpc17xx_clkpwr.c **** 		/* Clear two bit at bit position */
  93:core/lpc17xx_clkpwr.c **** 		LPC_SC->PCLKSEL1 &= ~(CLKPWR_PCLKSEL_BITMASK(bitpos));
  94:core/lpc17xx_clkpwr.c **** 
  95:core/lpc17xx_clkpwr.c **** 		/* Set two selected bit */
  96:core/lpc17xx_clkpwr.c **** 		LPC_SC->PCLKSEL1 |= (CLKPWR_PCLKSEL_SET(bitpos, DivVal));
  97:core/lpc17xx_clkpwr.c **** 	}
  98:core/lpc17xx_clkpwr.c **** }
 119              		.loc 1 98 0
 120 004e 16E0     		b	.L6	@
 121              	.L4:
  93:core/lpc17xx_clkpwr.c **** 
 122              		.loc 1 93 0
 123 0050 0D49     		ldr	r1, .L7	@ D.5493,
 124 0052 0D4B     		ldr	r3, .L7	@ D.5493,
 125 0054 D3F8AC31 		ldr	r3, [r3, #428]	@ D.5492, _24->PCLKSEL1
 126 0058 0320     		movs	r0, #3	@ tmp142,
 127 005a FA68     		ldr	r2, [r7, #12]	@ tmp143, bitpos
 128 005c 00FA02F2 		lsl	r2, r0, r2	@ D.5494, tmp142, tmp143
 129 0060 D243     		mvns	r2, r2	@ D.5494, D.5494
ARM GAS  C:\Users\STUDENT\AppData\Local\Temp\ccsm4hvi.s 			page 5


 130 0062 1340     		ands	r3, r3, r2	@, D.5492, D.5492, D.5492
 131 0064 C1F8AC31 		str	r3, [r1, #428]	@ D.5492, _23->PCLKSEL1
  96:core/lpc17xx_clkpwr.c **** 	}
 132              		.loc 1 96 0
 133 0068 0748     		ldr	r0, .L7	@ D.5493,
 134 006a 074B     		ldr	r3, .L7	@ D.5493,
 135 006c D3F8AC21 		ldr	r2, [r3, #428]	@ D.5492, _32->PCLKSEL1
 136 0070 3968     		ldr	r1, [r7]	@ tmp144, DivVal
 137 0072 FB68     		ldr	r3, [r7, #12]	@ tmp145, bitpos
 138 0074 01FA03F3 		lsl	r3, r1, r3	@ D.5492, tmp144, tmp145
 139 0078 1343     		orrs	r3, r3, r2	@, D.5492, D.5492, D.5492
 140 007a C0F8AC31 		str	r3, [r0, #428]	@ D.5492, _31->PCLKSEL1
 141              	.L6:
 142              		.loc 1 98 0
 143 007e 00BF     		nop
 144 0080 1437     		adds	r7, r7, #20	@,,
 145              		.cfi_def_cfa_offset 4
 146 0082 BD46     		mov	sp, r7	@,
 147              		.cfi_def_cfa_register 13
 148              		@ sp needed	@
 149 0084 80BC     		pop	{r7}	@
 150              		.cfi_restore 7
 151              		.cfi_def_cfa_offset 0
 152 0086 7047     		bx	lr	@
 153              	.L8:
 154              		.align	2
 155              	.L7:
 156 0088 00C00F40 		.word	1074774016
 157              		.cfi_endproc
 158              	.LFE55:
 159              		.size	CLKPWR_SetPCLKDiv, .-CLKPWR_SetPCLKDiv
 160              		.section	.text.CLKPWR_GetPCLKSEL,"ax",%progbits
 161              		.align	2
 162              		.global	CLKPWR_GetPCLKSEL
 163              		.thumb
 164              		.thumb_func
 165              		.type	CLKPWR_GetPCLKSEL, %function
 166              	CLKPWR_GetPCLKSEL:
 167              	.LFB56:
  99:core/lpc17xx_clkpwr.c **** 
 100:core/lpc17xx_clkpwr.c **** 
 101:core/lpc17xx_clkpwr.c **** /*********************************************************************//**
 102:core/lpc17xx_clkpwr.c ****  * @brief		Get current value of each Peripheral Clock Selection
 103:core/lpc17xx_clkpwr.c ****  * @param[in]	ClkType	Peripheral Clock Selection of each type,
 104:core/lpc17xx_clkpwr.c ****  * 				should be one of the following:
 105:core/lpc17xx_clkpwr.c ****  *				- CLKPWR_PCLKSEL_WDT   		: WDT
 106:core/lpc17xx_clkpwr.c **** 				- CLKPWR_PCLKSEL_TIMER0   	: Timer 0
 107:core/lpc17xx_clkpwr.c **** 				- CLKPWR_PCLKSEL_TIMER1   	: Timer 1
 108:core/lpc17xx_clkpwr.c **** 				- CLKPWR_PCLKSEL_UART0   	: UART 0
 109:core/lpc17xx_clkpwr.c **** 				- CLKPWR_PCLKSEL_UART1  	: UART 1
 110:core/lpc17xx_clkpwr.c **** 				- CLKPWR_PCLKSEL_PWM1   	: PWM 1
 111:core/lpc17xx_clkpwr.c **** 				- CLKPWR_PCLKSEL_I2C0   	: I2C 0
 112:core/lpc17xx_clkpwr.c **** 				- CLKPWR_PCLKSEL_SPI   		: SPI
 113:core/lpc17xx_clkpwr.c **** 				- CLKPWR_PCLKSEL_SSP1   	: SSP 1
 114:core/lpc17xx_clkpwr.c **** 				- CLKPWR_PCLKSEL_DAC   		: DAC
 115:core/lpc17xx_clkpwr.c **** 				- CLKPWR_PCLKSEL_ADC   		: ADC
 116:core/lpc17xx_clkpwr.c **** 				- CLKPWR_PCLKSEL_CAN1  		: CAN 1
ARM GAS  C:\Users\STUDENT\AppData\Local\Temp\ccsm4hvi.s 			page 6


 117:core/lpc17xx_clkpwr.c **** 				- CLKPWR_PCLKSEL_CAN2  		: CAN 2
 118:core/lpc17xx_clkpwr.c **** 				- CLKPWR_PCLKSEL_ACF   		: ACF
 119:core/lpc17xx_clkpwr.c **** 				- CLKPWR_PCLKSEL_QEI 		: QEI
 120:core/lpc17xx_clkpwr.c **** 				- CLKPWR_PCLKSEL_PCB   		: PCB
 121:core/lpc17xx_clkpwr.c **** 				- CLKPWR_PCLKSEL_I2C1   	: I2C 1
 122:core/lpc17xx_clkpwr.c **** 				- CLKPWR_PCLKSEL_SSP0   	: SSP 0
 123:core/lpc17xx_clkpwr.c **** 				- CLKPWR_PCLKSEL_TIMER2   	: Timer 2
 124:core/lpc17xx_clkpwr.c **** 				- CLKPWR_PCLKSEL_TIMER3   	: Timer 3
 125:core/lpc17xx_clkpwr.c **** 				- CLKPWR_PCLKSEL_UART2   	: UART 2
 126:core/lpc17xx_clkpwr.c **** 				- CLKPWR_PCLKSEL_UART3   	: UART 3
 127:core/lpc17xx_clkpwr.c **** 				- CLKPWR_PCLKSEL_I2C2   	: I2C 2
 128:core/lpc17xx_clkpwr.c **** 				- CLKPWR_PCLKSEL_I2S   		: I2S
 129:core/lpc17xx_clkpwr.c **** 				- CLKPWR_PCLKSEL_RIT   		: RIT
 130:core/lpc17xx_clkpwr.c **** 				- CLKPWR_PCLKSEL_SYSCON   	: SYSCON
 131:core/lpc17xx_clkpwr.c **** 				- CLKPWR_PCLKSEL_MC 		: MC
 132:core/lpc17xx_clkpwr.c **** 
 133:core/lpc17xx_clkpwr.c ****  * @return		Value of Selected Peripheral Clock Selection
 134:core/lpc17xx_clkpwr.c ****  **********************************************************************/
 135:core/lpc17xx_clkpwr.c **** uint32_t CLKPWR_GetPCLKSEL (uint32_t ClkType)
 136:core/lpc17xx_clkpwr.c **** {
 168              		.loc 1 136 0
 169              		.cfi_startproc
 170              		@ args = 0, pretend = 0, frame = 16
 171              		@ frame_needed = 1, uses_anonymous_args = 0
 172              		@ link register save eliminated.
 173 0000 80B4     		push	{r7}	@
 174              		.cfi_def_cfa_offset 4
 175              		.cfi_offset 7, -4
 176 0002 85B0     		sub	sp, sp, #20	@,,
 177              		.cfi_def_cfa_offset 24
 178 0004 00AF     		add	r7, sp, #0	@,,
 179              		.cfi_def_cfa_register 7
 180 0006 7860     		str	r0, [r7, #4]	@ ClkType, ClkType
 137:core/lpc17xx_clkpwr.c **** 	uint32_t bitpos, retval;
 138:core/lpc17xx_clkpwr.c **** 
 139:core/lpc17xx_clkpwr.c **** 	if (ClkType < 32)
 181              		.loc 1 139 0
 182 0008 7B68     		ldr	r3, [r7, #4]	@ tmp115, ClkType
 183 000a 1F2B     		cmp	r3, #31	@ tmp115,
 184 000c 06D8     		bhi	.L10	@,
 140:core/lpc17xx_clkpwr.c **** 	{
 141:core/lpc17xx_clkpwr.c **** 		bitpos = ClkType;
 185              		.loc 1 141 0
 186 000e 7B68     		ldr	r3, [r7, #4]	@ tmp116, ClkType
 187 0010 FB60     		str	r3, [r7, #12]	@ tmp116, bitpos
 142:core/lpc17xx_clkpwr.c **** 		retval = LPC_SC->PCLKSEL0;
 188              		.loc 1 142 0
 189 0012 0C4B     		ldr	r3, .L13	@ D.5495,
 190 0014 D3F8A831 		ldr	r3, [r3, #424]	@ tmp117, _5->PCLKSEL0
 191 0018 BB60     		str	r3, [r7, #8]	@ tmp117, retval
 192 001a 06E0     		b	.L11	@
 193              	.L10:
 143:core/lpc17xx_clkpwr.c **** 	}
 144:core/lpc17xx_clkpwr.c **** 	else
 145:core/lpc17xx_clkpwr.c **** 	{
 146:core/lpc17xx_clkpwr.c **** 		bitpos = ClkType - 32;
 194              		.loc 1 146 0
ARM GAS  C:\Users\STUDENT\AppData\Local\Temp\ccsm4hvi.s 			page 7


 195 001c 7B68     		ldr	r3, [r7, #4]	@ tmp119, ClkType
 196 001e 203B     		subs	r3, r3, #32	@ tmp118, tmp119,
 197 0020 FB60     		str	r3, [r7, #12]	@ tmp118, bitpos
 147:core/lpc17xx_clkpwr.c **** 		retval = LPC_SC->PCLKSEL1;
 198              		.loc 1 147 0
 199 0022 084B     		ldr	r3, .L13	@ D.5495,
 200 0024 D3F8AC31 		ldr	r3, [r3, #428]	@ tmp120, _9->PCLKSEL1
 201 0028 BB60     		str	r3, [r7, #8]	@ tmp120, retval
 202              	.L11:
 148:core/lpc17xx_clkpwr.c **** 	}
 149:core/lpc17xx_clkpwr.c **** 
 150:core/lpc17xx_clkpwr.c **** 	retval = CLKPWR_PCLKSEL_GET(bitpos, retval);
 203              		.loc 1 150 0
 204 002a BA68     		ldr	r2, [r7, #8]	@ tmp121, retval
 205 002c FB68     		ldr	r3, [r7, #12]	@ tmp122, bitpos
 206 002e 22FA03F3 		lsr	r3, r2, r3	@ D.5496, tmp121, tmp122
 207 0032 03F00303 		and	r3, r3, #3	@ tmp123, D.5496,
 208 0036 BB60     		str	r3, [r7, #8]	@ tmp123, retval
 151:core/lpc17xx_clkpwr.c **** 	return retval;
 209              		.loc 1 151 0
 210 0038 BB68     		ldr	r3, [r7, #8]	@ D.5497, retval
 152:core/lpc17xx_clkpwr.c **** }
 211              		.loc 1 152 0
 212 003a 1846     		mov	r0, r3	@, <retval>
 213 003c 1437     		adds	r7, r7, #20	@,,
 214              		.cfi_def_cfa_offset 4
 215 003e BD46     		mov	sp, r7	@,
 216              		.cfi_def_cfa_register 13
 217              		@ sp needed	@
 218 0040 80BC     		pop	{r7}	@
 219              		.cfi_restore 7
 220              		.cfi_def_cfa_offset 0
 221 0042 7047     		bx	lr	@
 222              	.L14:
 223              		.align	2
 224              	.L13:
 225 0044 00C00F40 		.word	1074774016
 226              		.cfi_endproc
 227              	.LFE56:
 228              		.size	CLKPWR_GetPCLKSEL, .-CLKPWR_GetPCLKSEL
 229              		.section	.text.CLKPWR_GetPCLK,"ax",%progbits
 230              		.align	2
 231              		.global	CLKPWR_GetPCLK
 232              		.thumb
 233              		.thumb_func
 234              		.type	CLKPWR_GetPCLK, %function
 235              	CLKPWR_GetPCLK:
 236              	.LFB57:
 153:core/lpc17xx_clkpwr.c **** 
 154:core/lpc17xx_clkpwr.c **** 
 155:core/lpc17xx_clkpwr.c **** 
 156:core/lpc17xx_clkpwr.c **** /*********************************************************************//**
 157:core/lpc17xx_clkpwr.c ****  * @brief 		Get current value of each Peripheral Clock
 158:core/lpc17xx_clkpwr.c ****  * @param[in]	ClkType	Peripheral Clock Selection of each type,
 159:core/lpc17xx_clkpwr.c ****  * 				should be one of the following:
 160:core/lpc17xx_clkpwr.c ****  *				- CLKPWR_PCLKSEL_WDT   		: WDT
 161:core/lpc17xx_clkpwr.c **** 				- CLKPWR_PCLKSEL_TIMER0   	: Timer 0
ARM GAS  C:\Users\STUDENT\AppData\Local\Temp\ccsm4hvi.s 			page 8


 162:core/lpc17xx_clkpwr.c **** 				- CLKPWR_PCLKSEL_TIMER1   	: Timer 1
 163:core/lpc17xx_clkpwr.c **** 				- CLKPWR_PCLKSEL_UART0   	: UART 0
 164:core/lpc17xx_clkpwr.c **** 				- CLKPWR_PCLKSEL_UART1  	: UART 1
 165:core/lpc17xx_clkpwr.c **** 				- CLKPWR_PCLKSEL_PWM1   	: PWM 1
 166:core/lpc17xx_clkpwr.c **** 				- CLKPWR_PCLKSEL_I2C0   	: I2C 0
 167:core/lpc17xx_clkpwr.c **** 				- CLKPWR_PCLKSEL_SPI   		: SPI
 168:core/lpc17xx_clkpwr.c **** 				- CLKPWR_PCLKSEL_SSP1   	: SSP 1
 169:core/lpc17xx_clkpwr.c **** 				- CLKPWR_PCLKSEL_DAC   		: DAC
 170:core/lpc17xx_clkpwr.c **** 				- CLKPWR_PCLKSEL_ADC   		: ADC
 171:core/lpc17xx_clkpwr.c **** 				- CLKPWR_PCLKSEL_CAN1  		: CAN 1
 172:core/lpc17xx_clkpwr.c **** 				- CLKPWR_PCLKSEL_CAN2  		: CAN 2
 173:core/lpc17xx_clkpwr.c **** 				- CLKPWR_PCLKSEL_ACF   		: ACF
 174:core/lpc17xx_clkpwr.c **** 				- CLKPWR_PCLKSEL_QEI 		: QEI
 175:core/lpc17xx_clkpwr.c **** 				- CLKPWR_PCLKSEL_PCB   		: PCB
 176:core/lpc17xx_clkpwr.c **** 				- CLKPWR_PCLKSEL_I2C1   	: I2C 1
 177:core/lpc17xx_clkpwr.c **** 				- CLKPWR_PCLKSEL_SSP0   	: SSP 0
 178:core/lpc17xx_clkpwr.c **** 				- CLKPWR_PCLKSEL_TIMER2   	: Timer 2
 179:core/lpc17xx_clkpwr.c **** 				- CLKPWR_PCLKSEL_TIMER3   	: Timer 3
 180:core/lpc17xx_clkpwr.c **** 				- CLKPWR_PCLKSEL_UART2   	: UART 2
 181:core/lpc17xx_clkpwr.c **** 				- CLKPWR_PCLKSEL_UART3   	: UART 3
 182:core/lpc17xx_clkpwr.c **** 				- CLKPWR_PCLKSEL_I2C2   	: I2C 2
 183:core/lpc17xx_clkpwr.c **** 				- CLKPWR_PCLKSEL_I2S   		: I2S
 184:core/lpc17xx_clkpwr.c **** 				- CLKPWR_PCLKSEL_RIT   		: RIT
 185:core/lpc17xx_clkpwr.c **** 				- CLKPWR_PCLKSEL_SYSCON   	: SYSCON
 186:core/lpc17xx_clkpwr.c **** 				- CLKPWR_PCLKSEL_MC 		: MC
 187:core/lpc17xx_clkpwr.c **** 
 188:core/lpc17xx_clkpwr.c ****  * @return		Value of Selected Peripheral Clock
 189:core/lpc17xx_clkpwr.c ****  **********************************************************************/
 190:core/lpc17xx_clkpwr.c **** uint32_t CLKPWR_GetPCLK (uint32_t ClkType)
 191:core/lpc17xx_clkpwr.c **** {
 237              		.loc 1 191 0
 238              		.cfi_startproc
 239              		@ args = 0, pretend = 0, frame = 16
 240              		@ frame_needed = 1, uses_anonymous_args = 0
 241 0000 80B5     		push	{r7, lr}	@
 242              		.cfi_def_cfa_offset 8
 243              		.cfi_offset 7, -8
 244              		.cfi_offset 14, -4
 245 0002 84B0     		sub	sp, sp, #16	@,,
 246              		.cfi_def_cfa_offset 24
 247 0004 00AF     		add	r7, sp, #0	@,,
 248              		.cfi_def_cfa_register 7
 249 0006 7860     		str	r0, [r7, #4]	@ ClkType, ClkType
 192:core/lpc17xx_clkpwr.c **** 	uint32_t retval, div;
 193:core/lpc17xx_clkpwr.c **** 
 194:core/lpc17xx_clkpwr.c **** 	retval = SystemCoreClock;
 250              		.loc 1 194 0
 251 0008 154B     		ldr	r3, .L23	@ tmp112,
 252 000a 1B68     		ldr	r3, [r3]	@ tmp113, SystemCoreClock
 253 000c BB60     		str	r3, [r7, #8]	@ tmp113, retval
 195:core/lpc17xx_clkpwr.c **** 	div = CLKPWR_GetPCLKSEL(ClkType);
 254              		.loc 1 195 0
 255 000e 7868     		ldr	r0, [r7, #4]	@, ClkType
 256 0010 FFF7FEFF 		bl	CLKPWR_GetPCLKSEL	@
 257 0014 F860     		str	r0, [r7, #12]	@, div
 196:core/lpc17xx_clkpwr.c **** 
 197:core/lpc17xx_clkpwr.c **** 	switch (div)
ARM GAS  C:\Users\STUDENT\AppData\Local\Temp\ccsm4hvi.s 			page 9


 258              		.loc 1 197 0
 259 0016 FB68     		ldr	r3, [r7, #12]	@ tmp114, div
 260 0018 032B     		cmp	r3, #3	@ tmp114,
 261 001a 17D8     		bhi	.L16	@
 262 001c 01A2     		adr	r2, .L18	@ tmp124,
 263 001e 52F823F0 		ldr	pc, [r2, r3, lsl #2]	@ tmp124, tmp114
 264 0022 00BF     		.p2align 2
 265              	.L18:
 266 0024 35000000 		.word	.L17+1
 267 0028 3B000000 		.word	.L19+1
 268 002c 41000000 		.word	.L20+1
 269 0030 47000000 		.word	.L21+1
 270              		.p2align 1
 271              	.L17:
 198:core/lpc17xx_clkpwr.c **** 	{
 199:core/lpc17xx_clkpwr.c **** 	case 0:
 200:core/lpc17xx_clkpwr.c **** 		div = 4;
 272              		.loc 1 200 0
 273 0034 0423     		movs	r3, #4	@ tmp115,
 274 0036 FB60     		str	r3, [r7, #12]	@ tmp115, div
 201:core/lpc17xx_clkpwr.c **** 		break;
 275              		.loc 1 201 0
 276 0038 08E0     		b	.L16	@
 277              	.L19:
 202:core/lpc17xx_clkpwr.c **** 
 203:core/lpc17xx_clkpwr.c **** 	case 1:
 204:core/lpc17xx_clkpwr.c **** 		div = 1;
 278              		.loc 1 204 0
 279 003a 0123     		movs	r3, #1	@ tmp116,
 280 003c FB60     		str	r3, [r7, #12]	@ tmp116, div
 205:core/lpc17xx_clkpwr.c **** 		break;
 281              		.loc 1 205 0
 282 003e 05E0     		b	.L16	@
 283              	.L20:
 206:core/lpc17xx_clkpwr.c **** 
 207:core/lpc17xx_clkpwr.c **** 	case 2:
 208:core/lpc17xx_clkpwr.c **** 		div = 2;
 284              		.loc 1 208 0
 285 0040 0223     		movs	r3, #2	@ tmp117,
 286 0042 FB60     		str	r3, [r7, #12]	@ tmp117, div
 209:core/lpc17xx_clkpwr.c **** 		break;
 287              		.loc 1 209 0
 288 0044 02E0     		b	.L16	@
 289              	.L21:
 210:core/lpc17xx_clkpwr.c **** 
 211:core/lpc17xx_clkpwr.c **** 	case 3:
 212:core/lpc17xx_clkpwr.c **** 		div = 8;
 290              		.loc 1 212 0
 291 0046 0823     		movs	r3, #8	@ tmp118,
 292 0048 FB60     		str	r3, [r7, #12]	@ tmp118, div
 213:core/lpc17xx_clkpwr.c **** 		break;
 293              		.loc 1 213 0
 294 004a 00BF     		nop
 295              	.L16:
 214:core/lpc17xx_clkpwr.c **** 	}
 215:core/lpc17xx_clkpwr.c **** 	retval /= div;
 296              		.loc 1 215 0
ARM GAS  C:\Users\STUDENT\AppData\Local\Temp\ccsm4hvi.s 			page 10


 297 004c BA68     		ldr	r2, [r7, #8]	@ tmp121, retval
 298 004e FB68     		ldr	r3, [r7, #12]	@ tmp122, div
 299 0050 B2FBF3F3 		udiv	r3, r2, r3	@ tmp120, tmp121, tmp122
 300 0054 BB60     		str	r3, [r7, #8]	@ tmp120, retval
 216:core/lpc17xx_clkpwr.c **** 
 217:core/lpc17xx_clkpwr.c **** 	return retval;
 301              		.loc 1 217 0
 302 0056 BB68     		ldr	r3, [r7, #8]	@ D.5498, retval
 218:core/lpc17xx_clkpwr.c **** }
 303              		.loc 1 218 0
 304 0058 1846     		mov	r0, r3	@, <retval>
 305 005a 1037     		adds	r7, r7, #16	@,,
 306              		.cfi_def_cfa_offset 8
 307 005c BD46     		mov	sp, r7	@,
 308              		.cfi_def_cfa_register 13
 309              		@ sp needed	@
 310 005e 80BD     		pop	{r7, pc}	@
 311              	.L24:
 312              		.align	2
 313              	.L23:
 314 0060 00000000 		.word	SystemCoreClock
 315              		.cfi_endproc
 316              	.LFE57:
 317              		.size	CLKPWR_GetPCLK, .-CLKPWR_GetPCLK
 318              		.section	.text.CLKPWR_ConfigPPWR,"ax",%progbits
 319              		.align	2
 320              		.global	CLKPWR_ConfigPPWR
 321              		.thumb
 322              		.thumb_func
 323              		.type	CLKPWR_ConfigPPWR, %function
 324              	CLKPWR_ConfigPPWR:
 325              	.LFB58:
 219:core/lpc17xx_clkpwr.c **** 
 220:core/lpc17xx_clkpwr.c **** 
 221:core/lpc17xx_clkpwr.c **** 
 222:core/lpc17xx_clkpwr.c **** /*********************************************************************//**
 223:core/lpc17xx_clkpwr.c ****  * @brief 		Configure power supply for each peripheral according to NewState
 224:core/lpc17xx_clkpwr.c ****  * @param[in]	PPType	Type of peripheral used to enable power,
 225:core/lpc17xx_clkpwr.c ****  *     					should be one of the following:
 226:core/lpc17xx_clkpwr.c ****  *     			-  CLKPWR_PCONP_PCTIM0 		: Timer 0
 227:core/lpc17xx_clkpwr.c **** 				-  CLKPWR_PCONP_PCTIM1 		: Timer 1
 228:core/lpc17xx_clkpwr.c **** 				-  CLKPWR_PCONP_PCUART0  	: UART 0
 229:core/lpc17xx_clkpwr.c **** 				-  CLKPWR_PCONP_PCUART1   	: UART 1
 230:core/lpc17xx_clkpwr.c **** 				-  CLKPWR_PCONP_PCPWM1 		: PWM 1
 231:core/lpc17xx_clkpwr.c **** 				-  CLKPWR_PCONP_PCI2C0 		: I2C 0
 232:core/lpc17xx_clkpwr.c **** 				-  CLKPWR_PCONP_PCSPI   	: SPI
 233:core/lpc17xx_clkpwr.c **** 				-  CLKPWR_PCONP_PCRTC   	: RTC
 234:core/lpc17xx_clkpwr.c **** 				-  CLKPWR_PCONP_PCSSP1 		: SSP 1
 235:core/lpc17xx_clkpwr.c **** 				-  CLKPWR_PCONP_PCAD   		: ADC
 236:core/lpc17xx_clkpwr.c **** 				-  CLKPWR_PCONP_PCAN1   	: CAN 1
 237:core/lpc17xx_clkpwr.c **** 				-  CLKPWR_PCONP_PCAN2   	: CAN 2
 238:core/lpc17xx_clkpwr.c **** 				-  CLKPWR_PCONP_PCGPIO 		: GPIO
 239:core/lpc17xx_clkpwr.c **** 				-  CLKPWR_PCONP_PCRIT 		: RIT
 240:core/lpc17xx_clkpwr.c **** 				-  CLKPWR_PCONP_PCMC 		: MC
 241:core/lpc17xx_clkpwr.c **** 				-  CLKPWR_PCONP_PCQEI 		: QEI
 242:core/lpc17xx_clkpwr.c **** 				-  CLKPWR_PCONP_PCI2C1   	: I2C 1
 243:core/lpc17xx_clkpwr.c **** 				-  CLKPWR_PCONP_PCSSP0 		: SSP 0
ARM GAS  C:\Users\STUDENT\AppData\Local\Temp\ccsm4hvi.s 			page 11


 244:core/lpc17xx_clkpwr.c **** 				-  CLKPWR_PCONP_PCTIM2 		: Timer 2
 245:core/lpc17xx_clkpwr.c **** 				-  CLKPWR_PCONP_PCTIM3 		: Timer 3
 246:core/lpc17xx_clkpwr.c **** 				-  CLKPWR_PCONP_PCUART2  	: UART 2
 247:core/lpc17xx_clkpwr.c **** 				-  CLKPWR_PCONP_PCUART3   	: UART 3
 248:core/lpc17xx_clkpwr.c **** 				-  CLKPWR_PCONP_PCI2C2 		: I2C 2
 249:core/lpc17xx_clkpwr.c **** 				-  CLKPWR_PCONP_PCI2S   	: I2S
 250:core/lpc17xx_clkpwr.c **** 				-  CLKPWR_PCONP_PCGPDMA   	: GPDMA
 251:core/lpc17xx_clkpwr.c **** 				-  CLKPWR_PCONP_PCENET 		: Ethernet
 252:core/lpc17xx_clkpwr.c **** 				-  CLKPWR_PCONP_PCUSB   	: USB
 253:core/lpc17xx_clkpwr.c ****  *
 254:core/lpc17xx_clkpwr.c ****  * @param[in]	NewState	New state of Peripheral Power, should be:
 255:core/lpc17xx_clkpwr.c ****  * 				- ENABLE	: Enable power for this peripheral
 256:core/lpc17xx_clkpwr.c ****  * 				- DISABLE	: Disable power for this peripheral
 257:core/lpc17xx_clkpwr.c ****  *
 258:core/lpc17xx_clkpwr.c ****  * @return none
 259:core/lpc17xx_clkpwr.c ****  **********************************************************************/
 260:core/lpc17xx_clkpwr.c **** void CLKPWR_ConfigPPWR (uint32_t PPType, FunctionalState NewState)
 261:core/lpc17xx_clkpwr.c **** {
 326              		.loc 1 261 0
 327              		.cfi_startproc
 328              		@ args = 0, pretend = 0, frame = 8
 329              		@ frame_needed = 1, uses_anonymous_args = 0
 330              		@ link register save eliminated.
 331 0000 80B4     		push	{r7}	@
 332              		.cfi_def_cfa_offset 4
 333              		.cfi_offset 7, -4
 334 0002 83B0     		sub	sp, sp, #12	@,,
 335              		.cfi_def_cfa_offset 16
 336 0004 00AF     		add	r7, sp, #0	@,,
 337              		.cfi_def_cfa_register 7
 338 0006 7860     		str	r0, [r7, #4]	@ PPType, PPType
 339 0008 0B46     		mov	r3, r1	@ tmp121, NewState
 340 000a FB70     		strb	r3, [r7, #3]	@ tmp122, NewState
 262:core/lpc17xx_clkpwr.c **** 	if (NewState == ENABLE)
 341              		.loc 1 262 0
 342 000c FB78     		ldrb	r3, [r7, #3]	@ zero_extendqisi2	@ tmp123, NewState
 343 000e 012B     		cmp	r3, #1	@ tmp123,
 344 0010 0AD1     		bne	.L26	@,
 263:core/lpc17xx_clkpwr.c **** 	{
 264:core/lpc17xx_clkpwr.c **** 		LPC_SC->PCONP |= PPType & CLKPWR_PCONP_BITMASK;
 345              		.loc 1 264 0
 346 0012 0F48     		ldr	r0, .L29	@ D.5499,
 347 0014 0E4B     		ldr	r3, .L29	@ D.5499,
 348 0016 D3F8C420 		ldr	r2, [r3, #196]	@ D.5500, _4->PCONP
 349 001a 7968     		ldr	r1, [r7, #4]	@ tmp124, PPType
 350 001c 0D4B     		ldr	r3, .L29+4	@ D.5500,
 351 001e 0B40     		ands	r3, r3, r1	@, D.5500, D.5500, tmp124
 352 0020 1343     		orrs	r3, r3, r2	@, D.5500, D.5500, D.5500
 353 0022 C0F8C430 		str	r3, [r0, #196]	@ D.5500, _3->PCONP
 265:core/lpc17xx_clkpwr.c **** 	}
 266:core/lpc17xx_clkpwr.c **** 	else if (NewState == DISABLE)
 267:core/lpc17xx_clkpwr.c **** 	{
 268:core/lpc17xx_clkpwr.c **** 		LPC_SC->PCONP &= (~PPType) & CLKPWR_PCONP_BITMASK;
 269:core/lpc17xx_clkpwr.c **** 	}
 270:core/lpc17xx_clkpwr.c **** }
 354              		.loc 1 270 0
 355 0026 0DE0     		b	.L28	@
ARM GAS  C:\Users\STUDENT\AppData\Local\Temp\ccsm4hvi.s 			page 12


 356              	.L26:
 266:core/lpc17xx_clkpwr.c **** 	{
 357              		.loc 1 266 0
 358 0028 FB78     		ldrb	r3, [r7, #3]	@ zero_extendqisi2	@ tmp125, NewState
 359 002a 002B     		cmp	r3, #0	@ tmp125,
 360 002c 0AD1     		bne	.L28	@,
 268:core/lpc17xx_clkpwr.c **** 	}
 361              		.loc 1 268 0
 362 002e 0849     		ldr	r1, .L29	@ D.5499,
 363 0030 074B     		ldr	r3, .L29	@ D.5499,
 364 0032 D3F8C420 		ldr	r2, [r3, #196]	@ D.5500, _12->PCONP
 365 0036 7B68     		ldr	r3, [r7, #4]	@ tmp126, PPType
 366 0038 DB43     		mvns	r3, r3	@ D.5500, tmp126
 367 003a 1A40     		ands	r2, r2, r3	@, D.5500, D.5500, D.5500
 368 003c 054B     		ldr	r3, .L29+4	@ D.5500,
 369 003e 1340     		ands	r3, r3, r2	@, D.5500, D.5500, D.5500
 370 0040 C1F8C430 		str	r3, [r1, #196]	@ D.5500, _11->PCONP
 371              	.L28:
 372              		.loc 1 270 0
 373 0044 00BF     		nop
 374 0046 0C37     		adds	r7, r7, #12	@,,
 375              		.cfi_def_cfa_offset 4
 376 0048 BD46     		mov	sp, r7	@,
 377              		.cfi_def_cfa_register 13
 378              		@ sp needed	@
 379 004a 80BC     		pop	{r7}	@
 380              		.cfi_restore 7
 381              		.cfi_def_cfa_offset 0
 382 004c 7047     		bx	lr	@
 383              	.L30:
 384 004e 00BF     		.align	2
 385              	.L29:
 386 0050 00C00F40 		.word	1074774016
 387 0054 DEF7EFEF 		.word	-269486114
 388              		.cfi_endproc
 389              	.LFE58:
 390              		.size	CLKPWR_ConfigPPWR, .-CLKPWR_ConfigPPWR
 391              		.section	.text.CLKPWR_Sleep,"ax",%progbits
 392              		.align	2
 393              		.global	CLKPWR_Sleep
 394              		.thumb
 395              		.thumb_func
 396              		.type	CLKPWR_Sleep, %function
 397              	CLKPWR_Sleep:
 398              	.LFB59:
 271:core/lpc17xx_clkpwr.c **** 
 272:core/lpc17xx_clkpwr.c **** 
 273:core/lpc17xx_clkpwr.c **** /**
 274:core/lpc17xx_clkpwr.c ****  * @brief 		Enter Sleep mode with co-operated instruction by the Cortex-M3.
 275:core/lpc17xx_clkpwr.c ****  * @param[in]	None
 276:core/lpc17xx_clkpwr.c ****  * @return		None
 277:core/lpc17xx_clkpwr.c ****  */
 278:core/lpc17xx_clkpwr.c **** void CLKPWR_Sleep(void)
 279:core/lpc17xx_clkpwr.c **** {
 399              		.loc 1 279 0
 400              		.cfi_startproc
 401              		@ args = 0, pretend = 0, frame = 0
ARM GAS  C:\Users\STUDENT\AppData\Local\Temp\ccsm4hvi.s 			page 13


 402              		@ frame_needed = 1, uses_anonymous_args = 0
 403              		@ link register save eliminated.
 404 0000 80B4     		push	{r7}	@
 405              		.cfi_def_cfa_offset 4
 406              		.cfi_offset 7, -4
 407 0002 00AF     		add	r7, sp, #0	@,,
 408              		.cfi_def_cfa_register 7
 280:core/lpc17xx_clkpwr.c **** 	LPC_SC->PCON = 0x00;
 409              		.loc 1 280 0
 410 0004 044B     		ldr	r3, .L32	@ D.5501,
 411 0006 0022     		movs	r2, #0	@ tmp111,
 412 0008 C3F8C020 		str	r2, [r3, #192]	@ tmp111, _1->PCON
 413              	.LBB10:
 414              	.LBB11:
 415              		.file 2 "system/core_cmInstr.h"
   1:system/core_cmInstr.h **** /**************************************************************************//**
   2:system/core_cmInstr.h ****  * @file     core_cmInstr.h
   3:system/core_cmInstr.h ****  * @brief    CMSIS Cortex-M Core Instruction Access Header File
   4:system/core_cmInstr.h ****  * @version  V2.01
   5:system/core_cmInstr.h ****  * @date     06. December 2010
   6:system/core_cmInstr.h ****  *
   7:system/core_cmInstr.h ****  * @note
   8:system/core_cmInstr.h ****  * Copyright (C) 2009-2010 ARM Limited. All rights reserved.
   9:system/core_cmInstr.h ****  *
  10:system/core_cmInstr.h ****  * @par
  11:system/core_cmInstr.h ****  * ARM Limited (ARM) is supplying this software for use with Cortex-M
  12:system/core_cmInstr.h ****  * processor based microcontrollers.  This file can be freely distributed
  13:system/core_cmInstr.h ****  * within development tools that are supporting such ARM based processors.
  14:system/core_cmInstr.h ****  *
  15:system/core_cmInstr.h ****  * @par
  16:system/core_cmInstr.h ****  * THIS SOFTWARE IS PROVIDED "AS IS".  NO WARRANTIES, WHETHER EXPRESS, IMPLIED
  17:system/core_cmInstr.h ****  * OR STATUTORY, INCLUDING, BUT NOT LIMITED TO, IMPLIED WARRANTIES OF
  18:system/core_cmInstr.h ****  * MERCHANTABILITY AND FITNESS FOR A PARTICULAR PURPOSE APPLY TO THIS SOFTWARE.
  19:system/core_cmInstr.h ****  * ARM SHALL NOT, IN ANY CIRCUMSTANCES, BE LIABLE FOR SPECIAL, INCIDENTAL, OR
  20:system/core_cmInstr.h ****  * CONSEQUENTIAL DAMAGES, FOR ANY REASON WHATSOEVER.
  21:system/core_cmInstr.h ****  *
  22:system/core_cmInstr.h ****  ******************************************************************************/
  23:system/core_cmInstr.h **** 
  24:system/core_cmInstr.h **** #ifndef __CORE_CMINSTR_H__
  25:system/core_cmInstr.h **** #define __CORE_CMINSTR_H__
  26:system/core_cmInstr.h **** 
  27:system/core_cmInstr.h **** 
  28:system/core_cmInstr.h **** /* ##########################  Core Instruction Access  ######################### */
  29:system/core_cmInstr.h **** /** \addtogroup CMSIS_Core_InstructionInterface CMSIS Core Instruction Interface
  30:system/core_cmInstr.h ****   Access to dedicated instructions
  31:system/core_cmInstr.h ****   @{
  32:system/core_cmInstr.h **** */
  33:system/core_cmInstr.h **** 
  34:system/core_cmInstr.h **** #if defined ( __CC_ARM   ) /*------------------ RealView Compiler ----------------*/
  35:system/core_cmInstr.h **** /* ARM armcc specific functions */
  36:system/core_cmInstr.h **** 
  37:system/core_cmInstr.h **** /** \brief  No Operation
  38:system/core_cmInstr.h **** 
  39:system/core_cmInstr.h ****     No Operation does nothing. This instruction can be used for code alignment purposes.
  40:system/core_cmInstr.h ****  */
  41:system/core_cmInstr.h **** #define __NOP                             __nop
  42:system/core_cmInstr.h **** 
ARM GAS  C:\Users\STUDENT\AppData\Local\Temp\ccsm4hvi.s 			page 14


  43:system/core_cmInstr.h **** 
  44:system/core_cmInstr.h **** /** \brief  Wait For Interrupt
  45:system/core_cmInstr.h **** 
  46:system/core_cmInstr.h ****     Wait For Interrupt is a hint instruction that suspends execution
  47:system/core_cmInstr.h ****     until one of a number of events occurs.
  48:system/core_cmInstr.h ****  */
  49:system/core_cmInstr.h **** #define __WFI                             __wfi
  50:system/core_cmInstr.h **** 
  51:system/core_cmInstr.h **** 
  52:system/core_cmInstr.h **** /** \brief  Wait For Event
  53:system/core_cmInstr.h **** 
  54:system/core_cmInstr.h ****     Wait For Event is a hint instruction that permits the processor to enter
  55:system/core_cmInstr.h ****     a low-power state until one of a number of events occurs.
  56:system/core_cmInstr.h ****  */
  57:system/core_cmInstr.h **** #define __WFE                             __wfe
  58:system/core_cmInstr.h **** 
  59:system/core_cmInstr.h **** 
  60:system/core_cmInstr.h **** /** \brief  Send Event
  61:system/core_cmInstr.h **** 
  62:system/core_cmInstr.h ****     Send Event is a hint instruction. It causes an event to be signaled to the CPU.
  63:system/core_cmInstr.h ****  */
  64:system/core_cmInstr.h **** #define __SEV                             __sev
  65:system/core_cmInstr.h **** 
  66:system/core_cmInstr.h **** 
  67:system/core_cmInstr.h **** /** \brief  Instruction Synchronization Barrier
  68:system/core_cmInstr.h **** 
  69:system/core_cmInstr.h ****     Instruction Synchronization Barrier flushes the pipeline in the processor,
  70:system/core_cmInstr.h ****     so that all instructions following the ISB are fetched from cache or
  71:system/core_cmInstr.h ****     memory, after the instruction has been completed.
  72:system/core_cmInstr.h ****  */
  73:system/core_cmInstr.h **** #define __ISB()                           __isb(0xF)
  74:system/core_cmInstr.h **** 
  75:system/core_cmInstr.h **** 
  76:system/core_cmInstr.h **** /** \brief  Data Synchronization Barrier
  77:system/core_cmInstr.h **** 
  78:system/core_cmInstr.h ****     This function acts as a special kind of Data Memory Barrier.
  79:system/core_cmInstr.h ****     It completes when all explicit memory accesses before this instruction complete.
  80:system/core_cmInstr.h ****  */
  81:system/core_cmInstr.h **** #define __DSB()                           __dsb(0xF)
  82:system/core_cmInstr.h **** 
  83:system/core_cmInstr.h **** 
  84:system/core_cmInstr.h **** /** \brief  Data Memory Barrier
  85:system/core_cmInstr.h **** 
  86:system/core_cmInstr.h ****     This function ensures the apparent order of the explicit memory operations before
  87:system/core_cmInstr.h ****     and after the instruction, without ensuring their completion.
  88:system/core_cmInstr.h ****  */
  89:system/core_cmInstr.h **** #define __DMB()                           __dmb(0xF)
  90:system/core_cmInstr.h **** 
  91:system/core_cmInstr.h **** 
  92:system/core_cmInstr.h **** /** \brief  Reverse byte order (32 bit)
  93:system/core_cmInstr.h **** 
  94:system/core_cmInstr.h ****     This function reverses the byte order in integer value.
  95:system/core_cmInstr.h **** 
  96:system/core_cmInstr.h ****     \param [in]    value  Value to reverse
  97:system/core_cmInstr.h ****     \return               Reversed value
  98:system/core_cmInstr.h ****  */
  99:system/core_cmInstr.h **** #define __REV                             __rev
ARM GAS  C:\Users\STUDENT\AppData\Local\Temp\ccsm4hvi.s 			page 15


 100:system/core_cmInstr.h **** 
 101:system/core_cmInstr.h **** 
 102:system/core_cmInstr.h **** /** \brief  Reverse byte order (16 bit)
 103:system/core_cmInstr.h **** 
 104:system/core_cmInstr.h ****     This function reverses the byte order in two unsigned short values.
 105:system/core_cmInstr.h **** 
 106:system/core_cmInstr.h ****     \param [in]    value  Value to reverse
 107:system/core_cmInstr.h ****     \return               Reversed value
 108:system/core_cmInstr.h ****  */
 109:system/core_cmInstr.h **** #if (__ARMCC_VERSION < 400677)
 110:system/core_cmInstr.h **** extern uint32_t __REV16(uint32_t value);
 111:system/core_cmInstr.h **** #else  /* (__ARMCC_VERSION >= 400677)  */
 112:system/core_cmInstr.h **** static __INLINE __ASM uint32_t __REV16(uint32_t value)
 113:system/core_cmInstr.h **** {
 114:system/core_cmInstr.h ****   rev16 r0, r0
 115:system/core_cmInstr.h ****   bx lr
 116:system/core_cmInstr.h **** }
 117:system/core_cmInstr.h **** #endif /* __ARMCC_VERSION  */
 118:system/core_cmInstr.h **** 
 119:system/core_cmInstr.h **** 
 120:system/core_cmInstr.h **** /** \brief  Reverse byte order in signed short value
 121:system/core_cmInstr.h **** 
 122:system/core_cmInstr.h ****     This function reverses the byte order in a signed short value with sign extension to integer.
 123:system/core_cmInstr.h **** 
 124:system/core_cmInstr.h ****     \param [in]    value  Value to reverse
 125:system/core_cmInstr.h ****     \return               Reversed value
 126:system/core_cmInstr.h ****  */
 127:system/core_cmInstr.h **** #if (__ARMCC_VERSION < 400677)
 128:system/core_cmInstr.h **** extern int32_t __REVSH(int32_t value);
 129:system/core_cmInstr.h **** #else  /* (__ARMCC_VERSION >= 400677)  */
 130:system/core_cmInstr.h **** static __INLINE __ASM int32_t __REVSH(int32_t value)
 131:system/core_cmInstr.h **** {
 132:system/core_cmInstr.h ****   revsh r0, r0
 133:system/core_cmInstr.h ****   bx lr
 134:system/core_cmInstr.h **** }
 135:system/core_cmInstr.h **** #endif /* __ARMCC_VERSION  */
 136:system/core_cmInstr.h **** 
 137:system/core_cmInstr.h **** 
 138:system/core_cmInstr.h **** #if       (__CORTEX_M >= 0x03)
 139:system/core_cmInstr.h **** 
 140:system/core_cmInstr.h **** /** \brief  Reverse bit order of value
 141:system/core_cmInstr.h **** 
 142:system/core_cmInstr.h ****     This function reverses the bit order of the given value.
 143:system/core_cmInstr.h **** 
 144:system/core_cmInstr.h ****     \param [in]    value  Value to reverse
 145:system/core_cmInstr.h ****     \return               Reversed value
 146:system/core_cmInstr.h ****  */
 147:system/core_cmInstr.h **** #define __RBIT                            __rbit
 148:system/core_cmInstr.h **** 
 149:system/core_cmInstr.h **** 
 150:system/core_cmInstr.h **** /** \brief  LDR Exclusive (8 bit)
 151:system/core_cmInstr.h **** 
 152:system/core_cmInstr.h ****     This function performs a exclusive LDR command for 8 bit value.
 153:system/core_cmInstr.h **** 
 154:system/core_cmInstr.h ****     \param [in]    ptr  Pointer to data
 155:system/core_cmInstr.h ****     \return             value of type uint8_t at (*ptr)
 156:system/core_cmInstr.h ****  */
ARM GAS  C:\Users\STUDENT\AppData\Local\Temp\ccsm4hvi.s 			page 16


 157:system/core_cmInstr.h **** #define __LDREXB(ptr)                     ((uint8_t ) __ldrex(ptr))
 158:system/core_cmInstr.h **** 
 159:system/core_cmInstr.h **** 
 160:system/core_cmInstr.h **** /** \brief  LDR Exclusive (16 bit)
 161:system/core_cmInstr.h **** 
 162:system/core_cmInstr.h ****     This function performs a exclusive LDR command for 16 bit values.
 163:system/core_cmInstr.h **** 
 164:system/core_cmInstr.h ****     \param [in]    ptr  Pointer to data
 165:system/core_cmInstr.h ****     \return        value of type uint16_t at (*ptr)
 166:system/core_cmInstr.h ****  */
 167:system/core_cmInstr.h **** #define __LDREXH(ptr)                     ((uint16_t) __ldrex(ptr))
 168:system/core_cmInstr.h **** 
 169:system/core_cmInstr.h **** 
 170:system/core_cmInstr.h **** /** \brief  LDR Exclusive (32 bit)
 171:system/core_cmInstr.h **** 
 172:system/core_cmInstr.h ****     This function performs a exclusive LDR command for 32 bit values.
 173:system/core_cmInstr.h **** 
 174:system/core_cmInstr.h ****     \param [in]    ptr  Pointer to data
 175:system/core_cmInstr.h ****     \return        value of type uint32_t at (*ptr)
 176:system/core_cmInstr.h ****  */
 177:system/core_cmInstr.h **** #define __LDREXW(ptr)                     ((uint32_t ) __ldrex(ptr))
 178:system/core_cmInstr.h **** 
 179:system/core_cmInstr.h **** 
 180:system/core_cmInstr.h **** /** \brief  STR Exclusive (8 bit)
 181:system/core_cmInstr.h **** 
 182:system/core_cmInstr.h ****     This function performs a exclusive STR command for 8 bit values.
 183:system/core_cmInstr.h **** 
 184:system/core_cmInstr.h ****     \param [in]  value  Value to store
 185:system/core_cmInstr.h ****     \param [in]    ptr  Pointer to location
 186:system/core_cmInstr.h ****     \return          0  Function succeeded
 187:system/core_cmInstr.h ****     \return          1  Function failed
 188:system/core_cmInstr.h ****  */
 189:system/core_cmInstr.h **** #define __STREXB(value, ptr)              __strex(value, ptr)
 190:system/core_cmInstr.h **** 
 191:system/core_cmInstr.h **** 
 192:system/core_cmInstr.h **** /** \brief  STR Exclusive (16 bit)
 193:system/core_cmInstr.h **** 
 194:system/core_cmInstr.h ****     This function performs a exclusive STR command for 16 bit values.
 195:system/core_cmInstr.h **** 
 196:system/core_cmInstr.h ****     \param [in]  value  Value to store
 197:system/core_cmInstr.h ****     \param [in]    ptr  Pointer to location
 198:system/core_cmInstr.h ****     \return          0  Function succeeded
 199:system/core_cmInstr.h ****     \return          1  Function failed
 200:system/core_cmInstr.h ****  */
 201:system/core_cmInstr.h **** #define __STREXH(value, ptr)              __strex(value, ptr)
 202:system/core_cmInstr.h **** 
 203:system/core_cmInstr.h **** 
 204:system/core_cmInstr.h **** /** \brief  STR Exclusive (32 bit)
 205:system/core_cmInstr.h **** 
 206:system/core_cmInstr.h ****     This function performs a exclusive STR command for 32 bit values.
 207:system/core_cmInstr.h **** 
 208:system/core_cmInstr.h ****     \param [in]  value  Value to store
 209:system/core_cmInstr.h ****     \param [in]    ptr  Pointer to location
 210:system/core_cmInstr.h ****     \return          0  Function succeeded
 211:system/core_cmInstr.h ****     \return          1  Function failed
 212:system/core_cmInstr.h ****  */
 213:system/core_cmInstr.h **** #define __STREXW(value, ptr)              __strex(value, ptr)
ARM GAS  C:\Users\STUDENT\AppData\Local\Temp\ccsm4hvi.s 			page 17


 214:system/core_cmInstr.h **** 
 215:system/core_cmInstr.h **** 
 216:system/core_cmInstr.h **** /** \brief  Remove the exclusive lock
 217:system/core_cmInstr.h **** 
 218:system/core_cmInstr.h ****     This function removes the exclusive lock which is created by LDREX.
 219:system/core_cmInstr.h **** 
 220:system/core_cmInstr.h ****  */
 221:system/core_cmInstr.h **** #if (__ARMCC_VERSION < 400000)
 222:system/core_cmInstr.h **** extern void __CLREX(void);
 223:system/core_cmInstr.h **** #else  /* (__ARMCC_VERSION >= 400000)  */
 224:system/core_cmInstr.h **** #define __CLREX                           __clrex
 225:system/core_cmInstr.h **** #endif /* __ARMCC_VERSION  */
 226:system/core_cmInstr.h **** 
 227:system/core_cmInstr.h **** 
 228:system/core_cmInstr.h **** /** \brief  Signed Saturate
 229:system/core_cmInstr.h **** 
 230:system/core_cmInstr.h ****     This function saturates a signed value.
 231:system/core_cmInstr.h **** 
 232:system/core_cmInstr.h ****     \param [in]  value  Value to be saturated
 233:system/core_cmInstr.h ****     \param [in]    sat  Bit position to saturate to (1..32)
 234:system/core_cmInstr.h ****     \return             Saturated value
 235:system/core_cmInstr.h ****  */
 236:system/core_cmInstr.h **** #define __SSAT                            __ssat
 237:system/core_cmInstr.h **** 
 238:system/core_cmInstr.h **** 
 239:system/core_cmInstr.h **** /** \brief  Unsigned Saturate
 240:system/core_cmInstr.h **** 
 241:system/core_cmInstr.h ****     This function saturates an unsigned value.
 242:system/core_cmInstr.h **** 
 243:system/core_cmInstr.h ****     \param [in]  value  Value to be saturated
 244:system/core_cmInstr.h ****     \param [in]    sat  Bit position to saturate to (0..31)
 245:system/core_cmInstr.h ****     \return             Saturated value
 246:system/core_cmInstr.h ****  */
 247:system/core_cmInstr.h **** #define __USAT                            __usat
 248:system/core_cmInstr.h **** 
 249:system/core_cmInstr.h **** 
 250:system/core_cmInstr.h **** /** \brief  Count leading zeros
 251:system/core_cmInstr.h **** 
 252:system/core_cmInstr.h ****     This function counts the number of leading zeros of a data value.
 253:system/core_cmInstr.h **** 
 254:system/core_cmInstr.h ****     \param [in]  value  Value to count the leading zeros
 255:system/core_cmInstr.h ****     \return             number of leading zeros in value
 256:system/core_cmInstr.h ****  */
 257:system/core_cmInstr.h **** #define __CLZ                             __clz
 258:system/core_cmInstr.h **** 
 259:system/core_cmInstr.h **** #endif /* (__CORTEX_M >= 0x03) */
 260:system/core_cmInstr.h **** 
 261:system/core_cmInstr.h **** 
 262:system/core_cmInstr.h **** 
 263:system/core_cmInstr.h **** #elif (defined (__ICCARM__)) /*---------------- ICC Compiler ---------------------*/
 264:system/core_cmInstr.h **** /* IAR iccarm specific functions */
 265:system/core_cmInstr.h **** 
 266:system/core_cmInstr.h **** #include <intrinsics.h>                     /* IAR Intrinsics   */
 267:system/core_cmInstr.h **** 
 268:system/core_cmInstr.h **** #pragma diag_suppress=Pe940
 269:system/core_cmInstr.h **** 
 270:system/core_cmInstr.h **** /** \brief  No Operation
ARM GAS  C:\Users\STUDENT\AppData\Local\Temp\ccsm4hvi.s 			page 18


 271:system/core_cmInstr.h **** 
 272:system/core_cmInstr.h ****     No Operation does nothing. This instruction can be used for code alignment purposes.
 273:system/core_cmInstr.h ****  */
 274:system/core_cmInstr.h **** #define __NOP                           __no_operation
 275:system/core_cmInstr.h **** 
 276:system/core_cmInstr.h **** 
 277:system/core_cmInstr.h **** /** \brief  Wait For Interrupt
 278:system/core_cmInstr.h **** 
 279:system/core_cmInstr.h ****     Wait For Interrupt is a hint instruction that suspends execution
 280:system/core_cmInstr.h ****     until one of a number of events occurs.
 281:system/core_cmInstr.h ****  */
 282:system/core_cmInstr.h **** static __INLINE  void __WFI(void)
 283:system/core_cmInstr.h **** {
 284:system/core_cmInstr.h ****   __ASM ("wfi");
 285:system/core_cmInstr.h **** }
 286:system/core_cmInstr.h **** 
 287:system/core_cmInstr.h **** 
 288:system/core_cmInstr.h **** /** \brief  Wait For Event
 289:system/core_cmInstr.h **** 
 290:system/core_cmInstr.h ****     Wait For Event is a hint instruction that permits the processor to enter
 291:system/core_cmInstr.h ****     a low-power state until one of a number of events occurs.
 292:system/core_cmInstr.h ****  */
 293:system/core_cmInstr.h **** static __INLINE  void __WFE(void)
 294:system/core_cmInstr.h **** {
 295:system/core_cmInstr.h ****   __ASM ("wfe");
 296:system/core_cmInstr.h **** }
 297:system/core_cmInstr.h **** 
 298:system/core_cmInstr.h **** 
 299:system/core_cmInstr.h **** /** \brief  Send Event
 300:system/core_cmInstr.h **** 
 301:system/core_cmInstr.h ****     Send Event is a hint instruction. It causes an event to be signaled to the CPU.
 302:system/core_cmInstr.h ****  */
 303:system/core_cmInstr.h **** static __INLINE  void __SEV(void)
 304:system/core_cmInstr.h **** {
 305:system/core_cmInstr.h ****   __ASM ("sev");
 306:system/core_cmInstr.h **** }
 307:system/core_cmInstr.h **** 
 308:system/core_cmInstr.h **** 
 309:system/core_cmInstr.h **** /* intrinsic     void __ISB(void)            (see intrinsics.h) */
 310:system/core_cmInstr.h **** /* intrinsic     void __DSB(void)            (see intrinsics.h) */
 311:system/core_cmInstr.h **** /* intrinsic     void __DMB(void)            (see intrinsics.h) */
 312:system/core_cmInstr.h **** /* intrinsic uint32_t __REV(uint32_t value)  (see intrinsics.h) */
 313:system/core_cmInstr.h **** /* intrinsic          __SSAT                 (see intrinsics.h) */
 314:system/core_cmInstr.h **** /* intrinsic          __USAT                 (see intrinsics.h) */
 315:system/core_cmInstr.h **** 
 316:system/core_cmInstr.h **** 
 317:system/core_cmInstr.h **** /** \brief  Reverse byte order (16 bit)
 318:system/core_cmInstr.h **** 
 319:system/core_cmInstr.h ****     This function reverses the byte order in two unsigned short values.
 320:system/core_cmInstr.h **** 
 321:system/core_cmInstr.h ****     \param [in]    value  Value to reverse
 322:system/core_cmInstr.h ****     \return               Reversed value
 323:system/core_cmInstr.h ****  */
 324:system/core_cmInstr.h **** static uint32_t __REV16(uint32_t value)
 325:system/core_cmInstr.h **** {
 326:system/core_cmInstr.h ****   __ASM("rev16 r0, r0");
 327:system/core_cmInstr.h **** }
ARM GAS  C:\Users\STUDENT\AppData\Local\Temp\ccsm4hvi.s 			page 19


 328:system/core_cmInstr.h **** 
 329:system/core_cmInstr.h **** 
 330:system/core_cmInstr.h **** /* intrinsic uint32_t __REVSH(uint32_t value)  (see intrinsics.h */
 331:system/core_cmInstr.h **** 
 332:system/core_cmInstr.h **** 
 333:system/core_cmInstr.h **** #if       (__CORTEX_M >= 0x03)
 334:system/core_cmInstr.h **** 
 335:system/core_cmInstr.h **** /** \brief  Reverse bit order of value
 336:system/core_cmInstr.h **** 
 337:system/core_cmInstr.h ****     This function reverses the bit order of the given value.
 338:system/core_cmInstr.h **** 
 339:system/core_cmInstr.h ****     \param [in]    value  Value to reverse
 340:system/core_cmInstr.h ****     \return               Reversed value
 341:system/core_cmInstr.h ****  */
 342:system/core_cmInstr.h **** static uint32_t __RBIT(uint32_t value)
 343:system/core_cmInstr.h **** {
 344:system/core_cmInstr.h ****   __ASM("rbit r0, r0");
 345:system/core_cmInstr.h **** }
 346:system/core_cmInstr.h **** 
 347:system/core_cmInstr.h **** 
 348:system/core_cmInstr.h **** /** \brief  LDR Exclusive (8 bit)
 349:system/core_cmInstr.h **** 
 350:system/core_cmInstr.h ****     This function performs a exclusive LDR command for 8 bit value.
 351:system/core_cmInstr.h **** 
 352:system/core_cmInstr.h ****     \param [in]    ptr  Pointer to data
 353:system/core_cmInstr.h ****     \return             value of type uint8_t at (*ptr)
 354:system/core_cmInstr.h ****  */
 355:system/core_cmInstr.h **** static uint8_t __LDREXB(volatile uint8_t *addr)
 356:system/core_cmInstr.h **** {
 357:system/core_cmInstr.h ****   __ASM("ldrexb r0, [r0]");
 358:system/core_cmInstr.h **** }
 359:system/core_cmInstr.h **** 
 360:system/core_cmInstr.h **** 
 361:system/core_cmInstr.h **** /** \brief  LDR Exclusive (16 bit)
 362:system/core_cmInstr.h **** 
 363:system/core_cmInstr.h ****     This function performs a exclusive LDR command for 16 bit values.
 364:system/core_cmInstr.h **** 
 365:system/core_cmInstr.h ****     \param [in]    ptr  Pointer to data
 366:system/core_cmInstr.h ****     \return        value of type uint16_t at (*ptr)
 367:system/core_cmInstr.h ****  */
 368:system/core_cmInstr.h **** static uint16_t __LDREXH(volatile uint16_t *addr)
 369:system/core_cmInstr.h **** {
 370:system/core_cmInstr.h ****   __ASM("ldrexh r0, [r0]");
 371:system/core_cmInstr.h **** }
 372:system/core_cmInstr.h **** 
 373:system/core_cmInstr.h **** 
 374:system/core_cmInstr.h **** /** \brief  LDR Exclusive (32 bit)
 375:system/core_cmInstr.h **** 
 376:system/core_cmInstr.h ****     This function performs a exclusive LDR command for 32 bit values.
 377:system/core_cmInstr.h **** 
 378:system/core_cmInstr.h ****     \param [in]    ptr  Pointer to data
 379:system/core_cmInstr.h ****     \return        value of type uint32_t at (*ptr)
 380:system/core_cmInstr.h ****  */
 381:system/core_cmInstr.h **** /* intrinsic unsigned long __LDREX(unsigned long *)  (see intrinsics.h) */
 382:system/core_cmInstr.h **** static uint32_t __LDREXW(volatile uint32_t *addr)
 383:system/core_cmInstr.h **** {
 384:system/core_cmInstr.h ****   __ASM("ldrex r0, [r0]");
ARM GAS  C:\Users\STUDENT\AppData\Local\Temp\ccsm4hvi.s 			page 20


 385:system/core_cmInstr.h **** }
 386:system/core_cmInstr.h **** 
 387:system/core_cmInstr.h **** 
 388:system/core_cmInstr.h **** /** \brief  STR Exclusive (8 bit)
 389:system/core_cmInstr.h **** 
 390:system/core_cmInstr.h ****     This function performs a exclusive STR command for 8 bit values.
 391:system/core_cmInstr.h **** 
 392:system/core_cmInstr.h ****     \param [in]  value  Value to store
 393:system/core_cmInstr.h ****     \param [in]    ptr  Pointer to location
 394:system/core_cmInstr.h ****     \return          0  Function succeeded
 395:system/core_cmInstr.h ****     \return          1  Function failed
 396:system/core_cmInstr.h ****  */
 397:system/core_cmInstr.h **** static uint32_t __STREXB(uint8_t value, volatile uint8_t *addr)
 398:system/core_cmInstr.h **** {
 399:system/core_cmInstr.h ****   __ASM("strexb r0, r0, [r1]");
 400:system/core_cmInstr.h **** }
 401:system/core_cmInstr.h **** 
 402:system/core_cmInstr.h **** 
 403:system/core_cmInstr.h **** /** \brief  STR Exclusive (16 bit)
 404:system/core_cmInstr.h **** 
 405:system/core_cmInstr.h ****     This function performs a exclusive STR command for 16 bit values.
 406:system/core_cmInstr.h **** 
 407:system/core_cmInstr.h ****     \param [in]  value  Value to store
 408:system/core_cmInstr.h ****     \param [in]    ptr  Pointer to location
 409:system/core_cmInstr.h ****     \return          0  Function succeeded
 410:system/core_cmInstr.h ****     \return          1  Function failed
 411:system/core_cmInstr.h ****  */
 412:system/core_cmInstr.h **** static uint32_t __STREXH(uint16_t value, volatile uint16_t *addr)
 413:system/core_cmInstr.h **** {
 414:system/core_cmInstr.h ****   __ASM("strexh r0, r0, [r1]");
 415:system/core_cmInstr.h **** }
 416:system/core_cmInstr.h **** 
 417:system/core_cmInstr.h **** 
 418:system/core_cmInstr.h **** /** \brief  STR Exclusive (32 bit)
 419:system/core_cmInstr.h **** 
 420:system/core_cmInstr.h ****     This function performs a exclusive STR command for 32 bit values.
 421:system/core_cmInstr.h **** 
 422:system/core_cmInstr.h ****     \param [in]  value  Value to store
 423:system/core_cmInstr.h ****     \param [in]    ptr  Pointer to location
 424:system/core_cmInstr.h ****     \return          0  Function succeeded
 425:system/core_cmInstr.h ****     \return          1  Function failed
 426:system/core_cmInstr.h ****  */
 427:system/core_cmInstr.h **** /* intrinsic unsigned long __STREX(unsigned long, unsigned long)  (see intrinsics.h )*/
 428:system/core_cmInstr.h **** static uint32_t __STREXW(uint32_t value, volatile uint32_t *addr)
 429:system/core_cmInstr.h **** {
 430:system/core_cmInstr.h ****   __ASM("strex r0, r0, [r1]");
 431:system/core_cmInstr.h **** }
 432:system/core_cmInstr.h **** 
 433:system/core_cmInstr.h **** 
 434:system/core_cmInstr.h **** /** \brief  Remove the exclusive lock
 435:system/core_cmInstr.h **** 
 436:system/core_cmInstr.h ****     This function removes the exclusive lock which is created by LDREX.
 437:system/core_cmInstr.h **** 
 438:system/core_cmInstr.h ****  */
 439:system/core_cmInstr.h **** static __INLINE void __CLREX(void)
 440:system/core_cmInstr.h **** {
 441:system/core_cmInstr.h ****   __ASM ("clrex");
ARM GAS  C:\Users\STUDENT\AppData\Local\Temp\ccsm4hvi.s 			page 21


 442:system/core_cmInstr.h **** }
 443:system/core_cmInstr.h **** 
 444:system/core_cmInstr.h **** /* intrinsic   unsigned char __CLZ( unsigned long )      (see intrinsics.h) */
 445:system/core_cmInstr.h **** 
 446:system/core_cmInstr.h **** #endif /* (__CORTEX_M >= 0x03) */
 447:system/core_cmInstr.h **** 
 448:system/core_cmInstr.h **** #pragma diag_default=Pe940
 449:system/core_cmInstr.h **** 
 450:system/core_cmInstr.h **** 
 451:system/core_cmInstr.h **** 
 452:system/core_cmInstr.h **** #elif (defined (__GNUC__)) /*------------------ GNU Compiler ---------------------*/
 453:system/core_cmInstr.h **** /* GNU gcc specific functions */
 454:system/core_cmInstr.h **** 
 455:system/core_cmInstr.h **** /** \brief  No Operation
 456:system/core_cmInstr.h **** 
 457:system/core_cmInstr.h ****     No Operation does nothing. This instruction can be used for code alignment purposes.
 458:system/core_cmInstr.h ****  */
 459:system/core_cmInstr.h **** __attribute__( ( always_inline ) ) static __INLINE void __NOP(void)
 460:system/core_cmInstr.h **** {
 461:system/core_cmInstr.h ****   __ASM volatile ("nop");
 462:system/core_cmInstr.h **** }
 463:system/core_cmInstr.h **** 
 464:system/core_cmInstr.h **** 
 465:system/core_cmInstr.h **** /** \brief  Wait For Interrupt
 466:system/core_cmInstr.h **** 
 467:system/core_cmInstr.h ****     Wait For Interrupt is a hint instruction that suspends execution
 468:system/core_cmInstr.h ****     until one of a number of events occurs.
 469:system/core_cmInstr.h ****  */
 470:system/core_cmInstr.h **** __attribute__( ( always_inline ) ) static __INLINE void __WFI(void)
 471:system/core_cmInstr.h **** {
 472:system/core_cmInstr.h ****   __ASM volatile ("wfi");
 416              		.loc 2 472 0
 417              		.syntax unified
 418              	@ 472 "system/core_cmInstr.h" 1
 419 000c 30BF     		wfi
 420              	@ 0 "" 2
 421              		.thumb
 422              		.syntax unified
 423              	.LBE11:
 424              	.LBE10:
 281:core/lpc17xx_clkpwr.c **** 	/* Sleep Mode*/
 282:core/lpc17xx_clkpwr.c **** 	__WFI();
 283:core/lpc17xx_clkpwr.c **** }
 425              		.loc 1 283 0
 426 000e 00BF     		nop
 427 0010 BD46     		mov	sp, r7	@,
 428              		.cfi_def_cfa_register 13
 429              		@ sp needed	@
 430 0012 80BC     		pop	{r7}	@
 431              		.cfi_restore 7
 432              		.cfi_def_cfa_offset 0
 433 0014 7047     		bx	lr	@
 434              	.L33:
 435 0016 00BF     		.align	2
 436              	.L32:
 437 0018 00C00F40 		.word	1074774016
 438              		.cfi_endproc
ARM GAS  C:\Users\STUDENT\AppData\Local\Temp\ccsm4hvi.s 			page 22


 439              	.LFE59:
 440              		.size	CLKPWR_Sleep, .-CLKPWR_Sleep
 441              		.section	.text.CLKPWR_DeepSleep,"ax",%progbits
 442              		.align	2
 443              		.global	CLKPWR_DeepSleep
 444              		.thumb
 445              		.thumb_func
 446              		.type	CLKPWR_DeepSleep, %function
 447              	CLKPWR_DeepSleep:
 448              	.LFB60:
 284:core/lpc17xx_clkpwr.c **** 
 285:core/lpc17xx_clkpwr.c **** 
 286:core/lpc17xx_clkpwr.c **** /**
 287:core/lpc17xx_clkpwr.c ****  * @brief 		Enter Deep Sleep mode with co-operated instruction by the Cortex-M3.
 288:core/lpc17xx_clkpwr.c ****  * @param[in]	None
 289:core/lpc17xx_clkpwr.c ****  * @return		None
 290:core/lpc17xx_clkpwr.c ****  */
 291:core/lpc17xx_clkpwr.c **** void CLKPWR_DeepSleep(void)
 292:core/lpc17xx_clkpwr.c **** {
 449              		.loc 1 292 0
 450              		.cfi_startproc
 451              		@ args = 0, pretend = 0, frame = 0
 452              		@ frame_needed = 1, uses_anonymous_args = 0
 453              		@ link register save eliminated.
 454 0000 80B4     		push	{r7}	@
 455              		.cfi_def_cfa_offset 4
 456              		.cfi_offset 7, -4
 457 0002 00AF     		add	r7, sp, #0	@,,
 458              		.cfi_def_cfa_register 7
 293:core/lpc17xx_clkpwr.c ****     /* Deep-Sleep Mode, set SLEEPDEEP bit */
 294:core/lpc17xx_clkpwr.c **** 	SCB->SCR = 0x4;
 459              		.loc 1 294 0
 460 0004 054B     		ldr	r3, .L35	@ D.5502,
 461 0006 0422     		movs	r2, #4	@ tmp112,
 462 0008 1A61     		str	r2, [r3, #16]	@ tmp112, _1->SCR
 295:core/lpc17xx_clkpwr.c **** 	LPC_SC->PCON = 0x00;
 463              		.loc 1 295 0
 464 000a 054B     		ldr	r3, .L35+4	@ D.5503,
 465 000c 0022     		movs	r2, #0	@ tmp113,
 466 000e C3F8C020 		str	r2, [r3, #192]	@ tmp113, _4->PCON
 467              	.LBB12:
 468              	.LBB13:
 469              		.loc 2 472 0
 470              		.syntax unified
 471              	@ 472 "system/core_cmInstr.h" 1
 472 0012 30BF     		wfi
 473              	@ 0 "" 2
 474              		.thumb
 475              		.syntax unified
 476              	.LBE13:
 477              	.LBE12:
 296:core/lpc17xx_clkpwr.c **** 	/* Sleep Mode*/
 297:core/lpc17xx_clkpwr.c **** 	__WFI();
 298:core/lpc17xx_clkpwr.c **** }
 478              		.loc 1 298 0
 479 0014 00BF     		nop
 480 0016 BD46     		mov	sp, r7	@,
ARM GAS  C:\Users\STUDENT\AppData\Local\Temp\ccsm4hvi.s 			page 23


 481              		.cfi_def_cfa_register 13
 482              		@ sp needed	@
 483 0018 80BC     		pop	{r7}	@
 484              		.cfi_restore 7
 485              		.cfi_def_cfa_offset 0
 486 001a 7047     		bx	lr	@
 487              	.L36:
 488              		.align	2
 489              	.L35:
 490 001c 00ED00E0 		.word	-536810240
 491 0020 00C00F40 		.word	1074774016
 492              		.cfi_endproc
 493              	.LFE60:
 494              		.size	CLKPWR_DeepSleep, .-CLKPWR_DeepSleep
 495              		.section	.text.CLKPWR_PowerDown,"ax",%progbits
 496              		.align	2
 497              		.global	CLKPWR_PowerDown
 498              		.thumb
 499              		.thumb_func
 500              		.type	CLKPWR_PowerDown, %function
 501              	CLKPWR_PowerDown:
 502              	.LFB61:
 299:core/lpc17xx_clkpwr.c **** 
 300:core/lpc17xx_clkpwr.c **** 
 301:core/lpc17xx_clkpwr.c **** /**
 302:core/lpc17xx_clkpwr.c ****  * @brief 		Enter Power Down mode with co-operated instruction by the Cortex-M3.
 303:core/lpc17xx_clkpwr.c ****  * @param[in]	None
 304:core/lpc17xx_clkpwr.c ****  * @return		None
 305:core/lpc17xx_clkpwr.c ****  */
 306:core/lpc17xx_clkpwr.c **** void CLKPWR_PowerDown(void)
 307:core/lpc17xx_clkpwr.c **** {
 503              		.loc 1 307 0
 504              		.cfi_startproc
 505              		@ args = 0, pretend = 0, frame = 0
 506              		@ frame_needed = 1, uses_anonymous_args = 0
 507              		@ link register save eliminated.
 508 0000 80B4     		push	{r7}	@
 509              		.cfi_def_cfa_offset 4
 510              		.cfi_offset 7, -4
 511 0002 00AF     		add	r7, sp, #0	@,,
 512              		.cfi_def_cfa_register 7
 308:core/lpc17xx_clkpwr.c ****     /* Deep-Sleep Mode, set SLEEPDEEP bit */
 309:core/lpc17xx_clkpwr.c **** 	SCB->SCR = 0x4;
 513              		.loc 1 309 0
 514 0004 054B     		ldr	r3, .L38	@ D.5504,
 515 0006 0422     		movs	r2, #4	@ tmp112,
 516 0008 1A61     		str	r2, [r3, #16]	@ tmp112, _1->SCR
 310:core/lpc17xx_clkpwr.c **** 	LPC_SC->PCON = 0x01;
 517              		.loc 1 310 0
 518 000a 054B     		ldr	r3, .L38+4	@ D.5505,
 519 000c 0122     		movs	r2, #1	@ tmp113,
 520 000e C3F8C020 		str	r2, [r3, #192]	@ tmp113, _4->PCON
 521              	.LBB14:
 522              	.LBB15:
 523              		.loc 2 472 0
 524              		.syntax unified
 525              	@ 472 "system/core_cmInstr.h" 1
ARM GAS  C:\Users\STUDENT\AppData\Local\Temp\ccsm4hvi.s 			page 24


 526 0012 30BF     		wfi
 527              	@ 0 "" 2
 528              		.thumb
 529              		.syntax unified
 530              	.LBE15:
 531              	.LBE14:
 311:core/lpc17xx_clkpwr.c **** 	/* Sleep Mode*/
 312:core/lpc17xx_clkpwr.c **** 	__WFI();
 313:core/lpc17xx_clkpwr.c **** }
 532              		.loc 1 313 0
 533 0014 00BF     		nop
 534 0016 BD46     		mov	sp, r7	@,
 535              		.cfi_def_cfa_register 13
 536              		@ sp needed	@
 537 0018 80BC     		pop	{r7}	@
 538              		.cfi_restore 7
 539              		.cfi_def_cfa_offset 0
 540 001a 7047     		bx	lr	@
 541              	.L39:
 542              		.align	2
 543              	.L38:
 544 001c 00ED00E0 		.word	-536810240
 545 0020 00C00F40 		.word	1074774016
 546              		.cfi_endproc
 547              	.LFE61:
 548              		.size	CLKPWR_PowerDown, .-CLKPWR_PowerDown
 549              		.section	.text.CLKPWR_DeepPowerDown,"ax",%progbits
 550              		.align	2
 551              		.global	CLKPWR_DeepPowerDown
 552              		.thumb
 553              		.thumb_func
 554              		.type	CLKPWR_DeepPowerDown, %function
 555              	CLKPWR_DeepPowerDown:
 556              	.LFB62:
 314:core/lpc17xx_clkpwr.c **** 
 315:core/lpc17xx_clkpwr.c **** 
 316:core/lpc17xx_clkpwr.c **** /**
 317:core/lpc17xx_clkpwr.c ****  * @brief 		Enter Deep Power Down mode with co-operated instruction by the Cortex-M3.
 318:core/lpc17xx_clkpwr.c ****  * @param[in]	None
 319:core/lpc17xx_clkpwr.c ****  * @return		None
 320:core/lpc17xx_clkpwr.c ****  */
 321:core/lpc17xx_clkpwr.c **** void CLKPWR_DeepPowerDown(void)
 322:core/lpc17xx_clkpwr.c **** {
 557              		.loc 1 322 0
 558              		.cfi_startproc
 559              		@ args = 0, pretend = 0, frame = 0
 560              		@ frame_needed = 1, uses_anonymous_args = 0
 561              		@ link register save eliminated.
 562 0000 80B4     		push	{r7}	@
 563              		.cfi_def_cfa_offset 4
 564              		.cfi_offset 7, -4
 565 0002 00AF     		add	r7, sp, #0	@,,
 566              		.cfi_def_cfa_register 7
 323:core/lpc17xx_clkpwr.c ****     /* Deep-Sleep Mode, set SLEEPDEEP bit */
 324:core/lpc17xx_clkpwr.c **** 	SCB->SCR = 0x4;
 567              		.loc 1 324 0
 568 0004 054B     		ldr	r3, .L41	@ D.5506,
ARM GAS  C:\Users\STUDENT\AppData\Local\Temp\ccsm4hvi.s 			page 25


 569 0006 0422     		movs	r2, #4	@ tmp112,
 570 0008 1A61     		str	r2, [r3, #16]	@ tmp112, _1->SCR
 325:core/lpc17xx_clkpwr.c **** 	LPC_SC->PCON = 0x03;
 571              		.loc 1 325 0
 572 000a 054B     		ldr	r3, .L41+4	@ D.5507,
 573 000c 0322     		movs	r2, #3	@ tmp113,
 574 000e C3F8C020 		str	r2, [r3, #192]	@ tmp113, _4->PCON
 575              	.LBB16:
 576              	.LBB17:
 577              		.loc 2 472 0
 578              		.syntax unified
 579              	@ 472 "system/core_cmInstr.h" 1
 580 0012 30BF     		wfi
 581              	@ 0 "" 2
 582              		.thumb
 583              		.syntax unified
 584              	.LBE17:
 585              	.LBE16:
 326:core/lpc17xx_clkpwr.c **** 	/* Sleep Mode*/
 327:core/lpc17xx_clkpwr.c **** 	__WFI();
 328:core/lpc17xx_clkpwr.c **** }
 586              		.loc 1 328 0
 587 0014 00BF     		nop
 588 0016 BD46     		mov	sp, r7	@,
 589              		.cfi_def_cfa_register 13
 590              		@ sp needed	@
 591 0018 80BC     		pop	{r7}	@
 592              		.cfi_restore 7
 593              		.cfi_def_cfa_offset 0
 594 001a 7047     		bx	lr	@
 595              	.L42:
 596              		.align	2
 597              	.L41:
 598 001c 00ED00E0 		.word	-536810240
 599 0020 00C00F40 		.word	1074774016
 600              		.cfi_endproc
 601              	.LFE62:
 602              		.size	CLKPWR_DeepPowerDown, .-CLKPWR_DeepPowerDown
 603              		.text
 604              	.Letext0:
 605              		.file 3 "c:\\program files (x86)\\gnu tools arm embedded\\5.4 2016q3\\arm-none-eabi\\include\\mach
 606              		.file 4 "c:\\program files (x86)\\gnu tools arm embedded\\5.4 2016q3\\arm-none-eabi\\include\\sys\
 607              		.file 5 "system/core_cm3.h"
 608              		.file 6 "system/LPC17xx.h"
 609              		.file 7 "core/lpc_types.h"
 610              		.file 8 "system/system_LPC17xx.h"