ARM GAS  /tmp/ccxTOdv6.s 			page 1


   1              		.cpu cortex-m3
   2              		.eabi_attribute 20, 1	@ Tag_ABI_FP_denormal
   3              		.eabi_attribute 21, 1	@ Tag_ABI_FP_exceptions
   4              		.eabi_attribute 23, 3	@ Tag_ABI_FP_number_model
   5              		.eabi_attribute 24, 1	@ Tag_ABI_align8_needed
   6              		.eabi_attribute 25, 1	@ Tag_ABI_align8_preserved
   7              		.eabi_attribute 26, 1	@ Tag_ABI_enum_size
   8              		.eabi_attribute 30, 6	@ Tag_ABI_optimization_goals
   9              		.eabi_attribute 34, 1	@ Tag_CPU_unaligned_access
  10              		.eabi_attribute 18, 4	@ Tag_ABI_PCS_wchar_t
  11              		.file	"lpc17xx_adc.c"
  12              	@ GNU C89 (Arch Repository) version 7.1.0 (arm-none-eabi)
  13              	@	compiled by GNU C version 6.3.1 20170306, GMP version 6.1.2, MPFR version 3.1.5-p2, MPC version 1
  14              	
  15              	@ GGC heuristics: --param ggc-min-expand=100 --param ggc-min-heapsize=131072
  16              	@ options passed:  -I . -I config -I system -I core -I drivers -I FreeRTOS
  17              	@ -I FreeRTOS/include -I FreeRTOS/portable/GCC/ARM_CM3 -I FreeRTOS/portable
  18              	@ -I tasks/rc_task_leds -I tasks/rc_task_xbee -I modules/rc_leds
  19              	@ -I modules/rc_xbee -I modules/rc_scheduler -I drivers/rc_system
  20              	@ -I drivers/rc_gpio -I drivers/rc_uart -I drivers/rc_pinsel
  21              	@ -I drivers/rc_timer -I drivers/rc_adc -imultilib armv7-m
  22              	@ -MD out/lpc17xx_adc.d -MF out/lpc17xx_adc.d -MP -MQ out/lpc17xx_adc.o
  23              	@ -D__USES_INITFINI__ core/lpc17xx_adc.c -mcpu=cortex-m3 -mthumb
  24              	@ -auxbase-strip out/lpc17xx_adc.o -g -ggdb3 -O0 -Wall -Wstrict-prototypes
  25              	@ -Wextra -std=gnu90 -ffunction-sections -fdata-sections -fverbose-asm
  26              	@ options enabled:  -faggressive-loop-optimizations -fauto-inc-dec
  27              	@ -fchkp-check-incomplete-type -fchkp-check-read -fchkp-check-write
  28              	@ -fchkp-instrument-calls -fchkp-narrow-bounds -fchkp-optimize
  29              	@ -fchkp-store-bounds -fchkp-use-static-bounds
  30              	@ -fchkp-use-static-const-bounds -fchkp-use-wrappers -fcommon
  31              	@ -fdata-sections -fdelete-null-pointer-checks -fdwarf2-cfi-asm
  32              	@ -fearly-inlining -feliminate-unused-debug-types -ffp-int-builtin-inexact
  33              	@ -ffunction-cse -ffunction-sections -fgcse-lm -fgnu-runtime -fgnu-unique
  34              	@ -fident -finline-atomics -fira-hoist-pressure -fira-share-save-slots
  35              	@ -fira-share-spill-slots -fivopts -fkeep-static-consts
  36              	@ -fleading-underscore -flifetime-dse -flto-odr-type-merging -fmath-errno
  37              	@ -fmerge-debug-strings -fpeephole -fplt -fprefetch-loop-arrays
  38              	@ -freg-struct-return -fsched-critical-path-heuristic
  39              	@ -fsched-dep-count-heuristic -fsched-group-heuristic -fsched-interblock
  40              	@ -fsched-last-insn-heuristic -fsched-rank-heuristic -fsched-spec
  41              	@ -fsched-spec-insn-heuristic -fsched-stalled-insns-dep
  42              	@ -fsemantic-interposition -fshow-column -fshrink-wrap-separate
  43              	@ -fsigned-zeros -fsplit-ivs-in-unroller -fssa-backprop -fstdarg-opt
  44              	@ -fstrict-volatile-bitfields -fsync-libcalls -ftrapping-math -ftree-cselim
  45              	@ -ftree-forwprop -ftree-loop-if-convert -ftree-loop-im -ftree-loop-ivcanon
  46              	@ -ftree-loop-optimize -ftree-parallelize-loops= -ftree-phiprop
  47              	@ -ftree-reassoc -ftree-scev-cprop -funit-at-a-time -fverbose-asm
  48              	@ -fzero-initialized-in-bss -masm-syntax-unified -mfix-cortex-m3-ldrd
  49              	@ -mlittle-endian -mpic-data-is-text-relative -msched-prolog -mthumb
  50              	@ -munaligned-access -mvectorize-with-neon-quad
  51              	
  52              		.text
  53              	.Ltext0:
  54              		.cfi_sections	.debug_frame
  55              		.section	.rodata
  56              		.align	2
  57              	.LC0:
ARM GAS  /tmp/ccxTOdv6.s 			page 2


  58 0000 636F7265 		.ascii	"core/lpc17xx_adc.c\000"
  58      2F6C7063 
  58      31377878 
  58      5F616463 
  58      2E6300
  59              		.section	.text.ADC_Init,"ax",%progbits
  60              		.align	1
  61              		.global	ADC_Init
  62              		.syntax unified
  63              		.thumb
  64              		.thumb_func
  65              		.fpu softvfp
  66              		.type	ADC_Init, %function
  67              	ADC_Init:
  68              	.LFB55:
  69              		.file 1 "core/lpc17xx_adc.c"
   1:core/lpc17xx_adc.c **** /**
   2:core/lpc17xx_adc.c ****  * @file	: lpc17xx_adc.c
   3:core/lpc17xx_adc.c ****  * @brief	: Contains all functions support for ADC firmware library on LPC17xx
   4:core/lpc17xx_adc.c ****  * @version	: 1.0
   5:core/lpc17xx_adc.c ****  * @date	: 3. April. 2009
   6:core/lpc17xx_adc.c ****  * @author	: NgaDinh
   7:core/lpc17xx_adc.c ****  **************************************************************************
   8:core/lpc17xx_adc.c ****  * Software that is described herein is for illustrative purposes only
   9:core/lpc17xx_adc.c ****  * which provides customers with programming information regarding the
  10:core/lpc17xx_adc.c ****  * products. This software is supplied "AS IS" without any warranties.
  11:core/lpc17xx_adc.c ****  * NXP Semiconductors assumes no responsibility or liability for the
  12:core/lpc17xx_adc.c ****  * use of the software, conveys no license or title under any patent,
  13:core/lpc17xx_adc.c ****  * copyright, or mask work right to the product. NXP Semiconductors
  14:core/lpc17xx_adc.c ****  * reserves the right to make changes in the software without
  15:core/lpc17xx_adc.c ****  * notification. NXP Semiconductors also make no representation or
  16:core/lpc17xx_adc.c ****  * warranty that such application will be suitable for the specified
  17:core/lpc17xx_adc.c ****  * use without further testing or modification.
  18:core/lpc17xx_adc.c ****  **********************************************************************/
  19:core/lpc17xx_adc.c **** 
  20:core/lpc17xx_adc.c **** /* Peripheral group ----------------------------------------------------------- */
  21:core/lpc17xx_adc.c **** /** @addtogroup ADC
  22:core/lpc17xx_adc.c ****  * @{
  23:core/lpc17xx_adc.c ****  */
  24:core/lpc17xx_adc.c **** 
  25:core/lpc17xx_adc.c **** /* Includes ------------------------------------------------------------------- */
  26:core/lpc17xx_adc.c **** #include "lpc17xx_adc.h"
  27:core/lpc17xx_adc.c **** #include "lpc17xx_clkpwr.h"
  28:core/lpc17xx_adc.c **** 
  29:core/lpc17xx_adc.c **** /* If this source file built with example, the LPC17xx FW library configuration
  30:core/lpc17xx_adc.c ****  * file in each example directory ("lpc17xx_libcfg.h") must be included,
  31:core/lpc17xx_adc.c ****  * otherwise the default FW library configuration file must be included instead
  32:core/lpc17xx_adc.c ****  */
  33:core/lpc17xx_adc.c **** #ifdef __BUILD_WITH_EXAMPLE__
  34:core/lpc17xx_adc.c **** #include "lpc17xx_libcfg.h"
  35:core/lpc17xx_adc.c **** #else
  36:core/lpc17xx_adc.c **** #include "lpc17xx_libcfg_default.h"
  37:core/lpc17xx_adc.c **** #endif /* __BUILD_WITH_EXAMPLE__ */
  38:core/lpc17xx_adc.c **** 
  39:core/lpc17xx_adc.c **** 
  40:core/lpc17xx_adc.c **** #ifdef _ADC
  41:core/lpc17xx_adc.c **** 
ARM GAS  /tmp/ccxTOdv6.s 			page 3


  42:core/lpc17xx_adc.c **** /* Public Functions ----------------------------------------------------------- */
  43:core/lpc17xx_adc.c **** /** @addtogroup ADC_Public_Functions
  44:core/lpc17xx_adc.c ****  * @{
  45:core/lpc17xx_adc.c ****  */
  46:core/lpc17xx_adc.c **** 
  47:core/lpc17xx_adc.c **** /*********************************************************************//**
  48:core/lpc17xx_adc.c ****  * @brief 		Initial for ADC
  49:core/lpc17xx_adc.c ****  * 					- Set bit PCADC
  50:core/lpc17xx_adc.c ****  * 					- Set clock for ADC
  51:core/lpc17xx_adc.c ****  * 					- Set Clock Frequency
  52:core/lpc17xx_adc.c ****  *
  53:core/lpc17xx_adc.c ****  * @param[in]	ADCx pointer to LPC_ADC_TypeDef
  54:core/lpc17xx_adc.c ****  * @param[in]	ConvFreq Clock frequency
  55:core/lpc17xx_adc.c ****  * @return 		None
  56:core/lpc17xx_adc.c ****  **********************************************************************/
  57:core/lpc17xx_adc.c **** void ADC_Init(LPC_ADC_TypeDef *ADCx, uint32_t ConvFreq)
  58:core/lpc17xx_adc.c **** 
  59:core/lpc17xx_adc.c **** {
  70              		.loc 1 59 0
  71              		.cfi_startproc
  72              		@ args = 0, pretend = 0, frame = 16
  73              		@ frame_needed = 1, uses_anonymous_args = 0
  74 0000 80B5     		push	{r7, lr}	@
  75              		.cfi_def_cfa_offset 8
  76              		.cfi_offset 7, -8
  77              		.cfi_offset 14, -4
  78 0002 84B0     		sub	sp, sp, #16	@,,
  79              		.cfi_def_cfa_offset 24
  80 0004 00AF     		add	r7, sp, #0	@,,
  81              		.cfi_def_cfa_register 7
  82 0006 7860     		str	r0, [r7, #4]	@ ADCx, ADCx
  83 0008 3960     		str	r1, [r7]	@ ConvFreq, ConvFreq
  84              	@ core/lpc17xx_adc.c:62: 	CHECK_PARAM(PARAM_ADCx(ADCx));
  60:core/lpc17xx_adc.c **** 	uint32_t temp, tmp;
  61:core/lpc17xx_adc.c **** 
  62:core/lpc17xx_adc.c **** 	CHECK_PARAM(PARAM_ADCx(ADCx));
  85              		.loc 1 62 0
  86 000a 7B68     		ldr	r3, [r7, #4]	@ tmp112, ADCx
  87 000c 174A     		ldr	r2, .L4	@ tmp113,
  88 000e 9342     		cmp	r3, r2	@ tmp112, tmp113
  89 0010 03D0     		beq	.L2	@,
  90              	@ core/lpc17xx_adc.c:62: 	CHECK_PARAM(PARAM_ADCx(ADCx));
  91              		.loc 1 62 0 is_stmt 0 discriminator 1
  92 0012 3E21     		movs	r1, #62	@,
  93 0014 1648     		ldr	r0, .L4+4	@,
  94 0016 FFF7FEFF 		bl	check_failed	@
  95              	.L2:
  96              	@ core/lpc17xx_adc.c:63: 	CHECK_PARAM(PARAM_ADC_FREQUENCY(ConvFreq));
  63:core/lpc17xx_adc.c **** 	CHECK_PARAM(PARAM_ADC_FREQUENCY(ConvFreq));
  97              		.loc 1 63 0 is_stmt 1
  98 001a 3B68     		ldr	r3, [r7]	@ tmp114, ConvFreq
  99 001c 154A     		ldr	r2, .L4+8	@ tmp115,
 100 001e 9342     		cmp	r3, r2	@ tmp114, tmp115
 101 0020 03D9     		bls	.L3	@,
 102              	@ core/lpc17xx_adc.c:63: 	CHECK_PARAM(PARAM_ADC_FREQUENCY(ConvFreq));
 103              		.loc 1 63 0 is_stmt 0 discriminator 1
 104 0022 3F21     		movs	r1, #63	@,
ARM GAS  /tmp/ccxTOdv6.s 			page 4


 105 0024 1248     		ldr	r0, .L4+4	@,
 106 0026 FFF7FEFF 		bl	check_failed	@
 107              	.L3:
 108              	@ core/lpc17xx_adc.c:66: 	CLKPWR_ConfigPPWR (CLKPWR_PCONP_PCAD, ENABLE);
  64:core/lpc17xx_adc.c **** 
  65:core/lpc17xx_adc.c **** 	// Turn on power and clock
  66:core/lpc17xx_adc.c **** 	CLKPWR_ConfigPPWR (CLKPWR_PCONP_PCAD, ENABLE);
 109              		.loc 1 66 0 is_stmt 1
 110 002a 0121     		movs	r1, #1	@,
 111 002c 4FF48050 		mov	r0, #4096	@,
 112 0030 FFF7FEFF 		bl	CLKPWR_ConfigPPWR	@
 113              	@ core/lpc17xx_adc.c:70: 	ADCx->ADCR = 0;
  67:core/lpc17xx_adc.c **** 	// Set clock divider for ADC to 4 from CCLK as default
  68:core/lpc17xx_adc.c **** 	// CLKPWR_SetPCLKDiv(CLKPWR_PCLKSEL_ADC,CLKPWR_PCLKSEL_CCLK_DIV_4);
  69:core/lpc17xx_adc.c **** 
  70:core/lpc17xx_adc.c **** 	ADCx->ADCR = 0;
 114              		.loc 1 70 0
 115 0034 7B68     		ldr	r3, [r7, #4]	@ tmp116, ADCx
 116 0036 0022     		movs	r2, #0	@ tmp117,
 117 0038 1A60     		str	r2, [r3]	@ tmp117, ADCx_5(D)->ADCR
 118              	@ core/lpc17xx_adc.c:73: 	tmp = ADC_CR_PDN;
  71:core/lpc17xx_adc.c **** 
  72:core/lpc17xx_adc.c **** 	//Enable PDN bit
  73:core/lpc17xx_adc.c **** 	tmp = ADC_CR_PDN;
 119              		.loc 1 73 0
 120 003a 4FF40013 		mov	r3, #2097152	@ tmp118,
 121 003e FB60     		str	r3, [r7, #12]	@ tmp118, tmp
 122              	@ core/lpc17xx_adc.c:75: 	temp = CLKPWR_GetPCLK(CLKPWR_PCLKSEL_ADC) ;
  74:core/lpc17xx_adc.c **** 	// Set clock frequency
  75:core/lpc17xx_adc.c **** 	temp = CLKPWR_GetPCLK(CLKPWR_PCLKSEL_ADC) ;
 123              		.loc 1 75 0
 124 0040 1820     		movs	r0, #24	@,
 125 0042 FFF7FEFF 		bl	CLKPWR_GetPCLK	@
 126 0046 B860     		str	r0, [r7, #8]	@, temp
 127              	@ core/lpc17xx_adc.c:76: 	temp = (temp /ConvFreq) - 1;
  76:core/lpc17xx_adc.c **** 	temp = (temp /ConvFreq) - 1;
 128              		.loc 1 76 0
 129 0048 BA68     		ldr	r2, [r7, #8]	@ tmp119, temp
 130 004a 3B68     		ldr	r3, [r7]	@ tmp120, ConvFreq
 131 004c B2FBF3F3 		udiv	r3, r2, r3	@ _1, tmp119, tmp120
 132 0050 013B     		subs	r3, r3, #1	@ tmp121, _1,
 133 0052 BB60     		str	r3, [r7, #8]	@ tmp121, temp
 134              	@ core/lpc17xx_adc.c:77: 	tmp |=  ADC_CR_CLKDIV(temp);
  77:core/lpc17xx_adc.c **** 	tmp |=  ADC_CR_CLKDIV(temp);
 135              		.loc 1 77 0
 136 0054 BB68     		ldr	r3, [r7, #8]	@ tmp122, temp
 137 0056 1B02     		lsls	r3, r3, #8	@ _2, tmp122,
 138 0058 FA68     		ldr	r2, [r7, #12]	@ tmp124, tmp
 139 005a 1343     		orrs	r3, r3, r2	@, tmp123, _2, tmp124
 140 005c FB60     		str	r3, [r7, #12]	@ tmp123, tmp
 141              	@ core/lpc17xx_adc.c:79: 	ADCx->ADCR = tmp;
  78:core/lpc17xx_adc.c **** 
  79:core/lpc17xx_adc.c **** 	ADCx->ADCR = tmp;
 142              		.loc 1 79 0
 143 005e 7B68     		ldr	r3, [r7, #4]	@ tmp125, ADCx
 144 0060 FA68     		ldr	r2, [r7, #12]	@ tmp126, tmp
 145 0062 1A60     		str	r2, [r3]	@ tmp126, ADCx_5(D)->ADCR
ARM GAS  /tmp/ccxTOdv6.s 			page 5


 146              	@ core/lpc17xx_adc.c:80: }
  80:core/lpc17xx_adc.c **** }
 147              		.loc 1 80 0
 148 0064 00BF     		nop
 149 0066 1037     		adds	r7, r7, #16	@,,
 150              		.cfi_def_cfa_offset 8
 151 0068 BD46     		mov	sp, r7	@,
 152              		.cfi_def_cfa_register 13
 153              		@ sp needed	@
 154 006a 80BD     		pop	{r7, pc}	@
 155              	.L5:
 156              		.align	2
 157              	.L4:
 158 006c 00400340 		.word	1073954816
 159 0070 00000000 		.word	.LC0
 160 0074 405DC600 		.word	13000000
 161              		.cfi_endproc
 162              	.LFE55:
 163              		.size	ADC_Init, .-ADC_Init
 164              		.section	.text.ADC_DeInit,"ax",%progbits
 165              		.align	1
 166              		.global	ADC_DeInit
 167              		.syntax unified
 168              		.thumb
 169              		.thumb_func
 170              		.fpu softvfp
 171              		.type	ADC_DeInit, %function
 172              	ADC_DeInit:
 173              	.LFB56:
  81:core/lpc17xx_adc.c **** 
  82:core/lpc17xx_adc.c **** 
  83:core/lpc17xx_adc.c **** /*********************************************************************//**
  84:core/lpc17xx_adc.c **** * @brief 		Close ADC
  85:core/lpc17xx_adc.c **** * @param[in]	ADCx pointer to ADC
  86:core/lpc17xx_adc.c **** * @return 		None
  87:core/lpc17xx_adc.c **** **********************************************************************/
  88:core/lpc17xx_adc.c **** void 		ADC_DeInit(LPC_ADC_TypeDef *ADCx)
  89:core/lpc17xx_adc.c **** {
 174              		.loc 1 89 0
 175              		.cfi_startproc
 176              		@ args = 0, pretend = 0, frame = 8
 177              		@ frame_needed = 1, uses_anonymous_args = 0
 178 0000 80B5     		push	{r7, lr}	@
 179              		.cfi_def_cfa_offset 8
 180              		.cfi_offset 7, -8
 181              		.cfi_offset 14, -4
 182 0002 82B0     		sub	sp, sp, #8	@,,
 183              		.cfi_def_cfa_offset 16
 184 0004 00AF     		add	r7, sp, #0	@,,
 185              		.cfi_def_cfa_register 7
 186 0006 7860     		str	r0, [r7, #4]	@ ADCx, ADCx
 187              	@ core/lpc17xx_adc.c:90: 	CHECK_PARAM(PARAM_ADCx(ADCx));
  90:core/lpc17xx_adc.c **** 	CHECK_PARAM(PARAM_ADCx(ADCx));
 188              		.loc 1 90 0
 189 0008 7B68     		ldr	r3, [r7, #4]	@ tmp112, ADCx
 190 000a 0B4A     		ldr	r2, .L8	@ tmp113,
 191 000c 9342     		cmp	r3, r2	@ tmp112, tmp113
ARM GAS  /tmp/ccxTOdv6.s 			page 6


 192 000e 03D0     		beq	.L7	@,
 193              	@ core/lpc17xx_adc.c:90: 	CHECK_PARAM(PARAM_ADCx(ADCx));
 194              		.loc 1 90 0 is_stmt 0 discriminator 1
 195 0010 5A21     		movs	r1, #90	@,
 196 0012 0A48     		ldr	r0, .L8+4	@,
 197 0014 FFF7FEFF 		bl	check_failed	@
 198              	.L7:
 199              	@ core/lpc17xx_adc.c:93: 	ADCx->ADCR &= ~ADC_CR_PDN;
  91:core/lpc17xx_adc.c **** 
  92:core/lpc17xx_adc.c **** 	// Clear PDN bit
  93:core/lpc17xx_adc.c **** 	ADCx->ADCR &= ~ADC_CR_PDN;
 200              		.loc 1 93 0 is_stmt 1
 201 0018 7B68     		ldr	r3, [r7, #4]	@ tmp114, ADCx
 202 001a 1B68     		ldr	r3, [r3]	@ _1, ADCx_4(D)->ADCR
 203 001c 23F40012 		bic	r2, r3, #2097152	@ _2, _1,
 204 0020 7B68     		ldr	r3, [r7, #4]	@ tmp115, ADCx
 205 0022 1A60     		str	r2, [r3]	@ _2, ADCx_4(D)->ADCR
 206              	@ core/lpc17xx_adc.c:95: 	CLKPWR_ConfigPPWR (CLKPWR_PCONP_PCAD, DISABLE);
  94:core/lpc17xx_adc.c **** 	// Turn on power and clock
  95:core/lpc17xx_adc.c **** 	CLKPWR_ConfigPPWR (CLKPWR_PCONP_PCAD, DISABLE);
 207              		.loc 1 95 0
 208 0024 0021     		movs	r1, #0	@,
 209 0026 4FF48050 		mov	r0, #4096	@,
 210 002a FFF7FEFF 		bl	CLKPWR_ConfigPPWR	@
 211              	@ core/lpc17xx_adc.c:96: }
  96:core/lpc17xx_adc.c **** }
 212              		.loc 1 96 0
 213 002e 00BF     		nop
 214 0030 0837     		adds	r7, r7, #8	@,,
 215              		.cfi_def_cfa_offset 8
 216 0032 BD46     		mov	sp, r7	@,
 217              		.cfi_def_cfa_register 13
 218              		@ sp needed	@
 219 0034 80BD     		pop	{r7, pc}	@
 220              	.L9:
 221 0036 00BF     		.align	2
 222              	.L8:
 223 0038 00400340 		.word	1073954816
 224 003c 00000000 		.word	.LC0
 225              		.cfi_endproc
 226              	.LFE56:
 227              		.size	ADC_DeInit, .-ADC_DeInit
 228              		.section	.text.ADC_GetData,"ax",%progbits
 229              		.align	1
 230              		.global	ADC_GetData
 231              		.syntax unified
 232              		.thumb
 233              		.thumb_func
 234              		.fpu softvfp
 235              		.type	ADC_GetData, %function
 236              	ADC_GetData:
 237              	.LFB57:
  97:core/lpc17xx_adc.c **** 
  98:core/lpc17xx_adc.c **** 
  99:core/lpc17xx_adc.c **** /*********************************************************************//**
 100:core/lpc17xx_adc.c **** * @brief 		Get Result conversion from A/D data register
 101:core/lpc17xx_adc.c **** * @param[in]	channel number which want to read back the result
ARM GAS  /tmp/ccxTOdv6.s 			page 7


 102:core/lpc17xx_adc.c **** * @return 		Result of conversion
 103:core/lpc17xx_adc.c **** *********************************************************************/
 104:core/lpc17xx_adc.c **** uint32_t ADC_GetData(uint32_t channel)
 105:core/lpc17xx_adc.c **** {
 238              		.loc 1 105 0
 239              		.cfi_startproc
 240              		@ args = 0, pretend = 0, frame = 16
 241              		@ frame_needed = 1, uses_anonymous_args = 0
 242              		@ link register save eliminated.
 243 0000 80B4     		push	{r7}	@
 244              		.cfi_def_cfa_offset 4
 245              		.cfi_offset 7, -4
 246 0002 85B0     		sub	sp, sp, #20	@,,
 247              		.cfi_def_cfa_offset 24
 248 0004 00AF     		add	r7, sp, #0	@,,
 249              		.cfi_def_cfa_register 7
 250 0006 7860     		str	r0, [r7, #4]	@ channel, channel
 251              	@ core/lpc17xx_adc.c:110: 	adc_value = *(uint32_t *)((&LPC_ADC->ADDR0) + channel);
 106:core/lpc17xx_adc.c **** 	uint32_t adc_value;
 107:core/lpc17xx_adc.c **** 
 108:core/lpc17xx_adc.c **** 	CHECK_PARAM(PARAM_ADC_CHANNEL_SELECTION(channel));
 109:core/lpc17xx_adc.c **** 
 110:core/lpc17xx_adc.c **** 	adc_value = *(uint32_t *)((&LPC_ADC->ADDR0) + channel);
 252              		.loc 1 110 0
 253 0008 7B68     		ldr	r3, [r7, #4]	@ tmp115, channel
 254 000a 9A00     		lsls	r2, r3, #2	@ _1, tmp115,
 255 000c 064B     		ldr	r3, .L12	@ _2,
 256 000e 1344     		add	r3, r3, r2	@ _2, _1
 257 0010 1B68     		ldr	r3, [r3]	@ tmp116, MEM[(uint32_t *)_2]
 258 0012 FB60     		str	r3, [r7, #12]	@ tmp116, adc_value
 259              	@ core/lpc17xx_adc.c:111: 	return ADC_GDR_RESULT(adc_value);
 111:core/lpc17xx_adc.c **** 	return ADC_GDR_RESULT(adc_value);
 260              		.loc 1 111 0
 261 0014 FB68     		ldr	r3, [r7, #12]	@ tmp117, adc_value
 262 0016 1B09     		lsrs	r3, r3, #4	@ _3, tmp117,
 263 0018 C3F30B03 		ubfx	r3, r3, #0, #12	@ _7, _3,,
 264              	@ core/lpc17xx_adc.c:112: }
 112:core/lpc17xx_adc.c **** }
 265              		.loc 1 112 0
 266 001c 1846     		mov	r0, r3	@, <retval>
 267 001e 1437     		adds	r7, r7, #20	@,,
 268              		.cfi_def_cfa_offset 4
 269 0020 BD46     		mov	sp, r7	@,
 270              		.cfi_def_cfa_register 13
 271              		@ sp needed	@
 272 0022 80BC     		pop	{r7}	@
 273              		.cfi_restore 7
 274              		.cfi_def_cfa_offset 0
 275 0024 7047     		bx	lr	@
 276              	.L13:
 277 0026 00BF     		.align	2
 278              	.L12:
 279 0028 10400340 		.word	1073954832
 280              		.cfi_endproc
 281              	.LFE57:
 282              		.size	ADC_GetData, .-ADC_GetData
 283              		.section	.text.ADC_StartCmd,"ax",%progbits
ARM GAS  /tmp/ccxTOdv6.s 			page 8


 284              		.align	1
 285              		.global	ADC_StartCmd
 286              		.syntax unified
 287              		.thumb
 288              		.thumb_func
 289              		.fpu softvfp
 290              		.type	ADC_StartCmd, %function
 291              	ADC_StartCmd:
 292              	.LFB58:
 113:core/lpc17xx_adc.c **** 
 114:core/lpc17xx_adc.c **** /*********************************************************************//**
 115:core/lpc17xx_adc.c **** * @brief 		Set start mode for ADC
 116:core/lpc17xx_adc.c **** * @param[in]	ADCx pointer to LPC_ADC_TypeDef
 117:core/lpc17xx_adc.c **** * @param[in]	start_mode Start mode choose one of modes in
 118:core/lpc17xx_adc.c **** * 							'ADC_START_OPT' enumeration type definition
 119:core/lpc17xx_adc.c **** * @return 		None
 120:core/lpc17xx_adc.c **** *********************************************************************/
 121:core/lpc17xx_adc.c **** void ADC_StartCmd(LPC_ADC_TypeDef *ADCx, uint8_t start_mode)
 122:core/lpc17xx_adc.c **** {
 293              		.loc 1 122 0
 294              		.cfi_startproc
 295              		@ args = 0, pretend = 0, frame = 8
 296              		@ frame_needed = 1, uses_anonymous_args = 0
 297 0000 80B5     		push	{r7, lr}	@
 298              		.cfi_def_cfa_offset 8
 299              		.cfi_offset 7, -8
 300              		.cfi_offset 14, -4
 301 0002 82B0     		sub	sp, sp, #8	@,,
 302              		.cfi_def_cfa_offset 16
 303 0004 00AF     		add	r7, sp, #0	@,,
 304              		.cfi_def_cfa_register 7
 305 0006 7860     		str	r0, [r7, #4]	@ ADCx, ADCx
 306 0008 0B46     		mov	r3, r1	@ tmp116, start_mode
 307 000a FB70     		strb	r3, [r7, #3]	@ tmp117, start_mode
 308              	@ core/lpc17xx_adc.c:123: 	CHECK_PARAM(PARAM_ADCx(ADCx));
 123:core/lpc17xx_adc.c **** 	CHECK_PARAM(PARAM_ADCx(ADCx));
 309              		.loc 1 123 0
 310 000c 7B68     		ldr	r3, [r7, #4]	@ tmp118, ADCx
 311 000e 1A4A     		ldr	r2, .L17	@ tmp119,
 312 0010 9342     		cmp	r3, r2	@ tmp118, tmp119
 313 0012 03D0     		beq	.L15	@,
 314              	@ core/lpc17xx_adc.c:123: 	CHECK_PARAM(PARAM_ADCx(ADCx));
 315              		.loc 1 123 0 is_stmt 0 discriminator 1
 316 0014 7B21     		movs	r1, #123	@,
 317 0016 1948     		ldr	r0, .L17+4	@,
 318 0018 FFF7FEFF 		bl	check_failed	@
 319              	.L15:
 320              	@ core/lpc17xx_adc.c:124: 	CHECK_PARAM(PARAM_ADC_START_OPT(start_mode));
 124:core/lpc17xx_adc.c **** 	CHECK_PARAM(PARAM_ADC_START_OPT(start_mode));
 321              		.loc 1 124 0 is_stmt 1
 322 001c FB78     		ldrb	r3, [r7, #3]	@ zero_extendqisi2	@ tmp120, start_mode
 323 001e 002B     		cmp	r3, #0	@ tmp120,
 324 0020 18D0     		beq	.L16	@,
 325              	@ core/lpc17xx_adc.c:124: 	CHECK_PARAM(PARAM_ADC_START_OPT(start_mode));
 326              		.loc 1 124 0 is_stmt 0 discriminator 1
 327 0022 FB78     		ldrb	r3, [r7, #3]	@ zero_extendqisi2	@ tmp121, start_mode
 328 0024 012B     		cmp	r3, #1	@ tmp121,
ARM GAS  /tmp/ccxTOdv6.s 			page 9


 329 0026 15D0     		beq	.L16	@,
 330              	@ core/lpc17xx_adc.c:124: 	CHECK_PARAM(PARAM_ADC_START_OPT(start_mode));
 331              		.loc 1 124 0 discriminator 2
 332 0028 FB78     		ldrb	r3, [r7, #3]	@ zero_extendqisi2	@ tmp122, start_mode
 333 002a 022B     		cmp	r3, #2	@ tmp122,
 334 002c 12D0     		beq	.L16	@,
 335              	@ core/lpc17xx_adc.c:124: 	CHECK_PARAM(PARAM_ADC_START_OPT(start_mode));
 336              		.loc 1 124 0 discriminator 3
 337 002e FB78     		ldrb	r3, [r7, #3]	@ zero_extendqisi2	@ tmp123, start_mode
 338 0030 032B     		cmp	r3, #3	@ tmp123,
 339 0032 0FD0     		beq	.L16	@,
 340              	@ core/lpc17xx_adc.c:124: 	CHECK_PARAM(PARAM_ADC_START_OPT(start_mode));
 341              		.loc 1 124 0 discriminator 4
 342 0034 FB78     		ldrb	r3, [r7, #3]	@ zero_extendqisi2	@ tmp124, start_mode
 343 0036 042B     		cmp	r3, #4	@ tmp124,
 344 0038 0CD0     		beq	.L16	@,
 345              	@ core/lpc17xx_adc.c:124: 	CHECK_PARAM(PARAM_ADC_START_OPT(start_mode));
 346              		.loc 1 124 0 discriminator 5
 347 003a FB78     		ldrb	r3, [r7, #3]	@ zero_extendqisi2	@ tmp125, start_mode
 348 003c 052B     		cmp	r3, #5	@ tmp125,
 349 003e 09D0     		beq	.L16	@,
 350              	@ core/lpc17xx_adc.c:124: 	CHECK_PARAM(PARAM_ADC_START_OPT(start_mode));
 351              		.loc 1 124 0 discriminator 6
 352 0040 FB78     		ldrb	r3, [r7, #3]	@ zero_extendqisi2	@ tmp126, start_mode
 353 0042 062B     		cmp	r3, #6	@ tmp126,
 354 0044 06D0     		beq	.L16	@,
 355              	@ core/lpc17xx_adc.c:124: 	CHECK_PARAM(PARAM_ADC_START_OPT(start_mode));
 356              		.loc 1 124 0 discriminator 7
 357 0046 FB78     		ldrb	r3, [r7, #3]	@ zero_extendqisi2	@ tmp127, start_mode
 358 0048 072B     		cmp	r3, #7	@ tmp127,
 359 004a 03D0     		beq	.L16	@,
 360              	@ core/lpc17xx_adc.c:124: 	CHECK_PARAM(PARAM_ADC_START_OPT(start_mode));
 361              		.loc 1 124 0 discriminator 8
 362 004c 7C21     		movs	r1, #124	@,
 363 004e 0B48     		ldr	r0, .L17+4	@,
 364 0050 FFF7FEFF 		bl	check_failed	@
 365              	.L16:
 366              	@ core/lpc17xx_adc.c:126: 	ADCx->ADCR &= ~ADC_CR_START_MASK;
 125:core/lpc17xx_adc.c **** 
 126:core/lpc17xx_adc.c **** 	ADCx->ADCR &= ~ADC_CR_START_MASK;
 367              		.loc 1 126 0 is_stmt 1
 368 0054 7B68     		ldr	r3, [r7, #4]	@ tmp128, ADCx
 369 0056 1B68     		ldr	r3, [r3]	@ _1, ADCx_9(D)->ADCR
 370 0058 23F0E062 		bic	r2, r3, #117440512	@ _2, _1,
 371 005c 7B68     		ldr	r3, [r7, #4]	@ tmp129, ADCx
 372 005e 1A60     		str	r2, [r3]	@ _2, ADCx_9(D)->ADCR
 373              	@ core/lpc17xx_adc.c:127: 	ADCx->ADCR |=ADC_CR_START_MODE_SEL((uint32_t)start_mode);
 127:core/lpc17xx_adc.c **** 	ADCx->ADCR |=ADC_CR_START_MODE_SEL((uint32_t)start_mode);
 374              		.loc 1 127 0
 375 0060 7B68     		ldr	r3, [r7, #4]	@ tmp130, ADCx
 376 0062 1A68     		ldr	r2, [r3]	@ _3, ADCx_9(D)->ADCR
 377 0064 FB78     		ldrb	r3, [r7, #3]	@ zero_extendqisi2	@ _4, start_mode
 378 0066 1B06     		lsls	r3, r3, #24	@ _5, _4,
 379 0068 1A43     		orrs	r2, r2, r3	@, _6, _3, _5
 380 006a 7B68     		ldr	r3, [r7, #4]	@ tmp131, ADCx
 381 006c 1A60     		str	r2, [r3]	@ _6, ADCx_9(D)->ADCR
 382              	@ core/lpc17xx_adc.c:128: }
ARM GAS  /tmp/ccxTOdv6.s 			page 10


 128:core/lpc17xx_adc.c **** }
 383              		.loc 1 128 0
 384 006e 00BF     		nop
 385 0070 0837     		adds	r7, r7, #8	@,,
 386              		.cfi_def_cfa_offset 8
 387 0072 BD46     		mov	sp, r7	@,
 388              		.cfi_def_cfa_register 13
 389              		@ sp needed	@
 390 0074 80BD     		pop	{r7, pc}	@
 391              	.L18:
 392 0076 00BF     		.align	2
 393              	.L17:
 394 0078 00400340 		.word	1073954816
 395 007c 00000000 		.word	.LC0
 396              		.cfi_endproc
 397              	.LFE58:
 398              		.size	ADC_StartCmd, .-ADC_StartCmd
 399              		.section	.text.ADC_BurstCmd,"ax",%progbits
 400              		.align	1
 401              		.global	ADC_BurstCmd
 402              		.syntax unified
 403              		.thumb
 404              		.thumb_func
 405              		.fpu softvfp
 406              		.type	ADC_BurstCmd, %function
 407              	ADC_BurstCmd:
 408              	.LFB59:
 129:core/lpc17xx_adc.c **** 
 130:core/lpc17xx_adc.c **** 
 131:core/lpc17xx_adc.c **** /*********************************************************************//**
 132:core/lpc17xx_adc.c **** * @brief 		ADC Burst mode setting
 133:core/lpc17xx_adc.c **** *
 134:core/lpc17xx_adc.c **** * @param[in]	ADCx pointer to ADC
 135:core/lpc17xx_adc.c **** * @param[in]	NewState
 136:core/lpc17xx_adc.c **** * 				-	1: Set Burst mode
 137:core/lpc17xx_adc.c **** * 				-	0: reset Burst mode
 138:core/lpc17xx_adc.c **** * @return 		None
 139:core/lpc17xx_adc.c **** **********************************************************************/
 140:core/lpc17xx_adc.c **** void ADC_BurstCmd(LPC_ADC_TypeDef *ADCx, FunctionalState NewState)
 141:core/lpc17xx_adc.c **** {
 409              		.loc 1 141 0
 410              		.cfi_startproc
 411              		@ args = 0, pretend = 0, frame = 8
 412              		@ frame_needed = 1, uses_anonymous_args = 0
 413 0000 80B5     		push	{r7, lr}	@
 414              		.cfi_def_cfa_offset 8
 415              		.cfi_offset 7, -8
 416              		.cfi_offset 14, -4
 417 0002 82B0     		sub	sp, sp, #8	@,,
 418              		.cfi_def_cfa_offset 16
 419 0004 00AF     		add	r7, sp, #0	@,,
 420              		.cfi_def_cfa_register 7
 421 0006 7860     		str	r0, [r7, #4]	@ ADCx, ADCx
 422 0008 0B46     		mov	r3, r1	@ tmp114, NewState
 423 000a FB70     		strb	r3, [r7, #3]	@ tmp115, NewState
 424              	@ core/lpc17xx_adc.c:142: 	CHECK_PARAM(PARAM_ADCx(ADCx));
 142:core/lpc17xx_adc.c **** 	CHECK_PARAM(PARAM_ADCx(ADCx));
ARM GAS  /tmp/ccxTOdv6.s 			page 11


 425              		.loc 1 142 0
 426 000c 7B68     		ldr	r3, [r7, #4]	@ tmp116, ADCx
 427 000e 0D4A     		ldr	r2, .L23	@ tmp117,
 428 0010 9342     		cmp	r3, r2	@ tmp116, tmp117
 429 0012 03D0     		beq	.L20	@,
 430              	@ core/lpc17xx_adc.c:142: 	CHECK_PARAM(PARAM_ADCx(ADCx));
 431              		.loc 1 142 0 is_stmt 0 discriminator 1
 432 0014 8E21     		movs	r1, #142	@,
 433 0016 0C48     		ldr	r0, .L23+4	@,
 434 0018 FFF7FEFF 		bl	check_failed	@
 435              	.L20:
 436              	@ core/lpc17xx_adc.c:144: 	ADCx->ADCR &= ~ADC_CR_BURST;
 143:core/lpc17xx_adc.c **** 
 144:core/lpc17xx_adc.c **** 	ADCx->ADCR &= ~ADC_CR_BURST;
 437              		.loc 1 144 0 is_stmt 1
 438 001c 7B68     		ldr	r3, [r7, #4]	@ tmp118, ADCx
 439 001e 1B68     		ldr	r3, [r3]	@ _1, ADCx_7(D)->ADCR
 440 0020 23F48032 		bic	r2, r3, #65536	@ _2, _1,
 441 0024 7B68     		ldr	r3, [r7, #4]	@ tmp119, ADCx
 442 0026 1A60     		str	r2, [r3]	@ _2, ADCx_7(D)->ADCR
 443              	@ core/lpc17xx_adc.c:145: 	if (NewState){
 145:core/lpc17xx_adc.c **** 	if (NewState){
 444              		.loc 1 145 0
 445 0028 FB78     		ldrb	r3, [r7, #3]	@ zero_extendqisi2	@ tmp120, NewState
 446 002a 002B     		cmp	r3, #0	@ tmp120,
 447 002c 05D0     		beq	.L22	@,
 448              	@ core/lpc17xx_adc.c:146: 		ADCx->ADCR |= ADC_CR_BURST;
 146:core/lpc17xx_adc.c **** 		ADCx->ADCR |= ADC_CR_BURST;
 449              		.loc 1 146 0
 450 002e 7B68     		ldr	r3, [r7, #4]	@ tmp121, ADCx
 451 0030 1B68     		ldr	r3, [r3]	@ _3, ADCx_7(D)->ADCR
 452 0032 43F48032 		orr	r2, r3, #65536	@ _4, _3,
 453 0036 7B68     		ldr	r3, [r7, #4]	@ tmp122, ADCx
 454 0038 1A60     		str	r2, [r3]	@ _4, ADCx_7(D)->ADCR
 455              	.L22:
 456              	@ core/lpc17xx_adc.c:149: }
 147:core/lpc17xx_adc.c **** 	}
 148:core/lpc17xx_adc.c **** 
 149:core/lpc17xx_adc.c **** }
 457              		.loc 1 149 0
 458 003a 00BF     		nop
 459 003c 0837     		adds	r7, r7, #8	@,,
 460              		.cfi_def_cfa_offset 8
 461 003e BD46     		mov	sp, r7	@,
 462              		.cfi_def_cfa_register 13
 463              		@ sp needed	@
 464 0040 80BD     		pop	{r7, pc}	@
 465              	.L24:
 466 0042 00BF     		.align	2
 467              	.L23:
 468 0044 00400340 		.word	1073954816
 469 0048 00000000 		.word	.LC0
 470              		.cfi_endproc
 471              	.LFE59:
 472              		.size	ADC_BurstCmd, .-ADC_BurstCmd
 473              		.section	.text.ADC_PowerdownCmd,"ax",%progbits
 474              		.align	1
ARM GAS  /tmp/ccxTOdv6.s 			page 12


 475              		.global	ADC_PowerdownCmd
 476              		.syntax unified
 477              		.thumb
 478              		.thumb_func
 479              		.fpu softvfp
 480              		.type	ADC_PowerdownCmd, %function
 481              	ADC_PowerdownCmd:
 482              	.LFB60:
 150:core/lpc17xx_adc.c **** 
 151:core/lpc17xx_adc.c **** /*********************************************************************//**
 152:core/lpc17xx_adc.c **** * @brief 		Set AD conversion in power mode
 153:core/lpc17xx_adc.c **** *
 154:core/lpc17xx_adc.c **** * @param[in]	ADCx pointer to ADC
 155:core/lpc17xx_adc.c **** * @param[in]	NewState
 156:core/lpc17xx_adc.c **** * 				-	1: AD converter is optional
 157:core/lpc17xx_adc.c **** * 				-	0: AD Converter is in power down mode
 158:core/lpc17xx_adc.c **** * @return 		None
 159:core/lpc17xx_adc.c **** **********************************************************************/
 160:core/lpc17xx_adc.c **** void ADC_PowerdownCmd(LPC_ADC_TypeDef *ADCx, FunctionalState NewState)
 161:core/lpc17xx_adc.c **** {
 483              		.loc 1 161 0
 484              		.cfi_startproc
 485              		@ args = 0, pretend = 0, frame = 8
 486              		@ frame_needed = 1, uses_anonymous_args = 0
 487 0000 80B5     		push	{r7, lr}	@
 488              		.cfi_def_cfa_offset 8
 489              		.cfi_offset 7, -8
 490              		.cfi_offset 14, -4
 491 0002 82B0     		sub	sp, sp, #8	@,,
 492              		.cfi_def_cfa_offset 16
 493 0004 00AF     		add	r7, sp, #0	@,,
 494              		.cfi_def_cfa_register 7
 495 0006 7860     		str	r0, [r7, #4]	@ ADCx, ADCx
 496 0008 0B46     		mov	r3, r1	@ tmp114, NewState
 497 000a FB70     		strb	r3, [r7, #3]	@ tmp115, NewState
 498              	@ core/lpc17xx_adc.c:162: 	CHECK_PARAM(PARAM_ADCx(ADCx));
 162:core/lpc17xx_adc.c **** 	CHECK_PARAM(PARAM_ADCx(ADCx));
 499              		.loc 1 162 0
 500 000c 7B68     		ldr	r3, [r7, #4]	@ tmp116, ADCx
 501 000e 0D4A     		ldr	r2, .L29	@ tmp117,
 502 0010 9342     		cmp	r3, r2	@ tmp116, tmp117
 503 0012 03D0     		beq	.L26	@,
 504              	@ core/lpc17xx_adc.c:162: 	CHECK_PARAM(PARAM_ADCx(ADCx));
 505              		.loc 1 162 0 is_stmt 0 discriminator 1
 506 0014 A221     		movs	r1, #162	@,
 507 0016 0C48     		ldr	r0, .L29+4	@,
 508 0018 FFF7FEFF 		bl	check_failed	@
 509              	.L26:
 510              	@ core/lpc17xx_adc.c:164: 	ADCx->ADCR &= ~ADC_CR_PDN;
 163:core/lpc17xx_adc.c **** 
 164:core/lpc17xx_adc.c **** 	ADCx->ADCR &= ~ADC_CR_PDN;
 511              		.loc 1 164 0 is_stmt 1
 512 001c 7B68     		ldr	r3, [r7, #4]	@ tmp118, ADCx
 513 001e 1B68     		ldr	r3, [r3]	@ _1, ADCx_7(D)->ADCR
 514 0020 23F40012 		bic	r2, r3, #2097152	@ _2, _1,
 515 0024 7B68     		ldr	r3, [r7, #4]	@ tmp119, ADCx
 516 0026 1A60     		str	r2, [r3]	@ _2, ADCx_7(D)->ADCR
ARM GAS  /tmp/ccxTOdv6.s 			page 13


 517              	@ core/lpc17xx_adc.c:165: 	if (NewState){
 165:core/lpc17xx_adc.c **** 	if (NewState){
 518              		.loc 1 165 0
 519 0028 FB78     		ldrb	r3, [r7, #3]	@ zero_extendqisi2	@ tmp120, NewState
 520 002a 002B     		cmp	r3, #0	@ tmp120,
 521 002c 05D0     		beq	.L28	@,
 522              	@ core/lpc17xx_adc.c:166: 		ADCx->ADCR |= ADC_CR_PDN;
 166:core/lpc17xx_adc.c **** 		ADCx->ADCR |= ADC_CR_PDN;
 523              		.loc 1 166 0
 524 002e 7B68     		ldr	r3, [r7, #4]	@ tmp121, ADCx
 525 0030 1B68     		ldr	r3, [r3]	@ _3, ADCx_7(D)->ADCR
 526 0032 43F40012 		orr	r2, r3, #2097152	@ _4, _3,
 527 0036 7B68     		ldr	r3, [r7, #4]	@ tmp122, ADCx
 528 0038 1A60     		str	r2, [r3]	@ _4, ADCx_7(D)->ADCR
 529              	.L28:
 530              	@ core/lpc17xx_adc.c:168: }
 167:core/lpc17xx_adc.c **** 	}
 168:core/lpc17xx_adc.c **** }
 531              		.loc 1 168 0
 532 003a 00BF     		nop
 533 003c 0837     		adds	r7, r7, #8	@,,
 534              		.cfi_def_cfa_offset 8
 535 003e BD46     		mov	sp, r7	@,
 536              		.cfi_def_cfa_register 13
 537              		@ sp needed	@
 538 0040 80BD     		pop	{r7, pc}	@
 539              	.L30:
 540 0042 00BF     		.align	2
 541              	.L29:
 542 0044 00400340 		.word	1073954816
 543 0048 00000000 		.word	.LC0
 544              		.cfi_endproc
 545              	.LFE60:
 546              		.size	ADC_PowerdownCmd, .-ADC_PowerdownCmd
 547              		.section	.text.ADC_EdgeStartConfig,"ax",%progbits
 548              		.align	1
 549              		.global	ADC_EdgeStartConfig
 550              		.syntax unified
 551              		.thumb
 552              		.thumb_func
 553              		.fpu softvfp
 554              		.type	ADC_EdgeStartConfig, %function
 555              	ADC_EdgeStartConfig:
 556              	.LFB61:
 169:core/lpc17xx_adc.c **** 
 170:core/lpc17xx_adc.c **** /*********************************************************************//**
 171:core/lpc17xx_adc.c **** * @brief 		Set Edge start configuration
 172:core/lpc17xx_adc.c **** *
 173:core/lpc17xx_adc.c **** * @param[in]	ADCx pointer to ADC
 174:core/lpc17xx_adc.c **** * @param[in]	EdgeOption is ADC_START_ON_RISING and ADC_START_ON_FALLING
 175:core/lpc17xx_adc.c **** * 					0:ADC_START_ON_RISING
 176:core/lpc17xx_adc.c **** * 					1:ADC_START_ON_FALLING
 177:core/lpc17xx_adc.c **** *
 178:core/lpc17xx_adc.c **** * @return 		None
 179:core/lpc17xx_adc.c **** **********************************************************************/
 180:core/lpc17xx_adc.c **** void ADC_EdgeStartConfig(LPC_ADC_TypeDef *ADCx, uint8_t EdgeOption)
 181:core/lpc17xx_adc.c **** {
ARM GAS  /tmp/ccxTOdv6.s 			page 14


 557              		.loc 1 181 0
 558              		.cfi_startproc
 559              		@ args = 0, pretend = 0, frame = 8
 560              		@ frame_needed = 1, uses_anonymous_args = 0
 561 0000 80B5     		push	{r7, lr}	@
 562              		.cfi_def_cfa_offset 8
 563              		.cfi_offset 7, -8
 564              		.cfi_offset 14, -4
 565 0002 82B0     		sub	sp, sp, #8	@,,
 566              		.cfi_def_cfa_offset 16
 567 0004 00AF     		add	r7, sp, #0	@,,
 568              		.cfi_def_cfa_register 7
 569 0006 7860     		str	r0, [r7, #4]	@ ADCx, ADCx
 570 0008 0B46     		mov	r3, r1	@ tmp114, EdgeOption
 571 000a FB70     		strb	r3, [r7, #3]	@ tmp115, EdgeOption
 572              	@ core/lpc17xx_adc.c:182: 	CHECK_PARAM(PARAM_ADCx(ADCx));
 182:core/lpc17xx_adc.c **** 	CHECK_PARAM(PARAM_ADCx(ADCx));
 573              		.loc 1 182 0
 574 000c 7B68     		ldr	r3, [r7, #4]	@ tmp116, ADCx
 575 000e 124A     		ldr	r2, .L36	@ tmp117,
 576 0010 9342     		cmp	r3, r2	@ tmp116, tmp117
 577 0012 03D0     		beq	.L32	@,
 578              	@ core/lpc17xx_adc.c:182: 	CHECK_PARAM(PARAM_ADCx(ADCx));
 579              		.loc 1 182 0 is_stmt 0 discriminator 1
 580 0014 B621     		movs	r1, #182	@,
 581 0016 1148     		ldr	r0, .L36+4	@,
 582 0018 FFF7FEFF 		bl	check_failed	@
 583              	.L32:
 584              	@ core/lpc17xx_adc.c:183: 	CHECK_PARAM(PARAM_ADC_START_ON_EDGE_OPT(EdgeOption));
 183:core/lpc17xx_adc.c **** 	CHECK_PARAM(PARAM_ADC_START_ON_EDGE_OPT(EdgeOption));
 585              		.loc 1 183 0 is_stmt 1
 586 001c FB78     		ldrb	r3, [r7, #3]	@ zero_extendqisi2	@ tmp118, EdgeOption
 587 001e 002B     		cmp	r3, #0	@ tmp118,
 588 0020 06D0     		beq	.L33	@,
 589              	@ core/lpc17xx_adc.c:183: 	CHECK_PARAM(PARAM_ADC_START_ON_EDGE_OPT(EdgeOption));
 590              		.loc 1 183 0 is_stmt 0 discriminator 1
 591 0022 FB78     		ldrb	r3, [r7, #3]	@ zero_extendqisi2	@ tmp119, EdgeOption
 592 0024 012B     		cmp	r3, #1	@ tmp119,
 593 0026 03D0     		beq	.L33	@,
 594              	@ core/lpc17xx_adc.c:183: 	CHECK_PARAM(PARAM_ADC_START_ON_EDGE_OPT(EdgeOption));
 595              		.loc 1 183 0 discriminator 2
 596 0028 B721     		movs	r1, #183	@,
 597 002a 0C48     		ldr	r0, .L36+4	@,
 598 002c FFF7FEFF 		bl	check_failed	@
 599              	.L33:
 600              	@ core/lpc17xx_adc.c:185: 	ADCx->ADCR &= ~ADC_CR_EDGE;
 184:core/lpc17xx_adc.c **** 
 185:core/lpc17xx_adc.c **** 	ADCx->ADCR &= ~ADC_CR_EDGE;
 601              		.loc 1 185 0 is_stmt 1
 602 0030 7B68     		ldr	r3, [r7, #4]	@ tmp120, ADCx
 603 0032 1B68     		ldr	r3, [r3]	@ _1, ADCx_8(D)->ADCR
 604 0034 23F00062 		bic	r2, r3, #134217728	@ _2, _1,
 605 0038 7B68     		ldr	r3, [r7, #4]	@ tmp121, ADCx
 606 003a 1A60     		str	r2, [r3]	@ _2, ADCx_8(D)->ADCR
 607              	@ core/lpc17xx_adc.c:186: 	if (EdgeOption){
 186:core/lpc17xx_adc.c **** 	if (EdgeOption){
 608              		.loc 1 186 0
ARM GAS  /tmp/ccxTOdv6.s 			page 15


 609 003c FB78     		ldrb	r3, [r7, #3]	@ zero_extendqisi2	@ tmp122, EdgeOption
 610 003e 002B     		cmp	r3, #0	@ tmp122,
 611 0040 05D0     		beq	.L35	@,
 612              	@ core/lpc17xx_adc.c:187: 		ADCx->ADCR |= ADC_CR_EDGE;
 187:core/lpc17xx_adc.c **** 		ADCx->ADCR |= ADC_CR_EDGE;
 613              		.loc 1 187 0
 614 0042 7B68     		ldr	r3, [r7, #4]	@ tmp123, ADCx
 615 0044 1B68     		ldr	r3, [r3]	@ _3, ADCx_8(D)->ADCR
 616 0046 43F00062 		orr	r2, r3, #134217728	@ _4, _3,
 617 004a 7B68     		ldr	r3, [r7, #4]	@ tmp124, ADCx
 618 004c 1A60     		str	r2, [r3]	@ _4, ADCx_8(D)->ADCR
 619              	.L35:
 620              	@ core/lpc17xx_adc.c:189: }
 188:core/lpc17xx_adc.c **** 	}
 189:core/lpc17xx_adc.c **** }
 621              		.loc 1 189 0
 622 004e 00BF     		nop
 623 0050 0837     		adds	r7, r7, #8	@,,
 624              		.cfi_def_cfa_offset 8
 625 0052 BD46     		mov	sp, r7	@,
 626              		.cfi_def_cfa_register 13
 627              		@ sp needed	@
 628 0054 80BD     		pop	{r7, pc}	@
 629              	.L37:
 630 0056 00BF     		.align	2
 631              	.L36:
 632 0058 00400340 		.word	1073954816
 633 005c 00000000 		.word	.LC0
 634              		.cfi_endproc
 635              	.LFE61:
 636              		.size	ADC_EdgeStartConfig, .-ADC_EdgeStartConfig
 637              		.section	.text.ADC_IntConfig,"ax",%progbits
 638              		.align	1
 639              		.global	ADC_IntConfig
 640              		.syntax unified
 641              		.thumb
 642              		.thumb_func
 643              		.fpu softvfp
 644              		.type	ADC_IntConfig, %function
 645              	ADC_IntConfig:
 646              	.LFB62:
 190:core/lpc17xx_adc.c **** 
 191:core/lpc17xx_adc.c **** /*********************************************************************//**
 192:core/lpc17xx_adc.c **** * @brief 		ADC interrupt configuration
 193:core/lpc17xx_adc.c **** * @param[in]	ADCx pointer to ADC
 194:core/lpc17xx_adc.c **** * @param[in]	IntType
 195:core/lpc17xx_adc.c **** * @param[in]	NewState:
 196:core/lpc17xx_adc.c **** * 					- SET : enable ADC interrupt
 197:core/lpc17xx_adc.c **** * 					- RESET: disable ADC interrupt
 198:core/lpc17xx_adc.c **** *
 199:core/lpc17xx_adc.c **** * @return 		None
 200:core/lpc17xx_adc.c **** **********************************************************************/
 201:core/lpc17xx_adc.c **** void ADC_IntConfig (LPC_ADC_TypeDef *ADCx, ADC_TYPE_INT_OPT IntType, FunctionalState NewState)
 202:core/lpc17xx_adc.c **** {
 647              		.loc 1 202 0
 648              		.cfi_startproc
 649              		@ args = 0, pretend = 0, frame = 8
ARM GAS  /tmp/ccxTOdv6.s 			page 16


 650              		@ frame_needed = 1, uses_anonymous_args = 0
 651 0000 80B5     		push	{r7, lr}	@
 652              		.cfi_def_cfa_offset 8
 653              		.cfi_offset 7, -8
 654              		.cfi_offset 14, -4
 655 0002 82B0     		sub	sp, sp, #8	@,,
 656              		.cfi_def_cfa_offset 16
 657 0004 00AF     		add	r7, sp, #0	@,,
 658              		.cfi_def_cfa_register 7
 659 0006 7860     		str	r0, [r7, #4]	@ ADCx, ADCx
 660 0008 0B46     		mov	r3, r1	@ tmp119, IntType
 661 000a FB70     		strb	r3, [r7, #3]	@ tmp120, IntType
 662 000c 1346     		mov	r3, r2	@ tmp122, tmp121
 663 000e BB70     		strb	r3, [r7, #2]	@ tmp122, NewState
 664              	@ core/lpc17xx_adc.c:203: 	CHECK_PARAM(PARAM_ADCx(ADCx));
 203:core/lpc17xx_adc.c **** 	CHECK_PARAM(PARAM_ADCx(ADCx));
 665              		.loc 1 203 0
 666 0010 7B68     		ldr	r3, [r7, #4]	@ tmp123, ADCx
 667 0012 204A     		ldr	r2, .L43	@ tmp124,
 668 0014 9342     		cmp	r3, r2	@ tmp123, tmp124
 669 0016 03D0     		beq	.L39	@,
 670              	@ core/lpc17xx_adc.c:203: 	CHECK_PARAM(PARAM_ADCx(ADCx));
 671              		.loc 1 203 0 is_stmt 0 discriminator 1
 672 0018 CB21     		movs	r1, #203	@,
 673 001a 1F48     		ldr	r0, .L43+4	@,
 674 001c FFF7FEFF 		bl	check_failed	@
 675              	.L39:
 676              	@ core/lpc17xx_adc.c:204: 	CHECK_PARAM(PARAM_ADC_TYPE_INT_OPT(IntType));
 204:core/lpc17xx_adc.c **** 	CHECK_PARAM(PARAM_ADC_TYPE_INT_OPT(IntType));
 677              		.loc 1 204 0 is_stmt 1
 678 0020 FB78     		ldrb	r3, [r7, #3]	@ zero_extendqisi2	@ tmp125, IntType
 679 0022 002B     		cmp	r3, #0	@ tmp125,
 680 0024 1BD0     		beq	.L40	@,
 681              	@ core/lpc17xx_adc.c:204: 	CHECK_PARAM(PARAM_ADC_TYPE_INT_OPT(IntType));
 682              		.loc 1 204 0 is_stmt 0 discriminator 1
 683 0026 FB78     		ldrb	r3, [r7, #3]	@ zero_extendqisi2	@ tmp126, IntType
 684 0028 012B     		cmp	r3, #1	@ tmp126,
 685 002a 18D0     		beq	.L40	@,
 686              	@ core/lpc17xx_adc.c:204: 	CHECK_PARAM(PARAM_ADC_TYPE_INT_OPT(IntType));
 687              		.loc 1 204 0 discriminator 2
 688 002c FB78     		ldrb	r3, [r7, #3]	@ zero_extendqisi2	@ tmp127, IntType
 689 002e 022B     		cmp	r3, #2	@ tmp127,
 690 0030 15D0     		beq	.L40	@,
 691              	@ core/lpc17xx_adc.c:204: 	CHECK_PARAM(PARAM_ADC_TYPE_INT_OPT(IntType));
 692              		.loc 1 204 0 discriminator 3
 693 0032 FB78     		ldrb	r3, [r7, #3]	@ zero_extendqisi2	@ tmp128, IntType
 694 0034 032B     		cmp	r3, #3	@ tmp128,
 695 0036 12D0     		beq	.L40	@,
 696              	@ core/lpc17xx_adc.c:204: 	CHECK_PARAM(PARAM_ADC_TYPE_INT_OPT(IntType));
 697              		.loc 1 204 0 discriminator 4
 698 0038 FB78     		ldrb	r3, [r7, #3]	@ zero_extendqisi2	@ tmp129, IntType
 699 003a 042B     		cmp	r3, #4	@ tmp129,
 700 003c 0FD0     		beq	.L40	@,
 701              	@ core/lpc17xx_adc.c:204: 	CHECK_PARAM(PARAM_ADC_TYPE_INT_OPT(IntType));
 702              		.loc 1 204 0 discriminator 5
 703 003e FB78     		ldrb	r3, [r7, #3]	@ zero_extendqisi2	@ tmp130, IntType
 704 0040 052B     		cmp	r3, #5	@ tmp130,
ARM GAS  /tmp/ccxTOdv6.s 			page 17


 705 0042 0CD0     		beq	.L40	@,
 706              	@ core/lpc17xx_adc.c:204: 	CHECK_PARAM(PARAM_ADC_TYPE_INT_OPT(IntType));
 707              		.loc 1 204 0 discriminator 6
 708 0044 FB78     		ldrb	r3, [r7, #3]	@ zero_extendqisi2	@ tmp131, IntType
 709 0046 062B     		cmp	r3, #6	@ tmp131,
 710 0048 09D0     		beq	.L40	@,
 711              	@ core/lpc17xx_adc.c:204: 	CHECK_PARAM(PARAM_ADC_TYPE_INT_OPT(IntType));
 712              		.loc 1 204 0 discriminator 7
 713 004a FB78     		ldrb	r3, [r7, #3]	@ zero_extendqisi2	@ tmp132, IntType
 714 004c 072B     		cmp	r3, #7	@ tmp132,
 715 004e 06D0     		beq	.L40	@,
 716              	@ core/lpc17xx_adc.c:204: 	CHECK_PARAM(PARAM_ADC_TYPE_INT_OPT(IntType));
 717              		.loc 1 204 0 discriminator 8
 718 0050 FB78     		ldrb	r3, [r7, #3]	@ zero_extendqisi2	@ tmp133, IntType
 719 0052 082B     		cmp	r3, #8	@ tmp133,
 720 0054 03D0     		beq	.L40	@,
 721              	@ core/lpc17xx_adc.c:204: 	CHECK_PARAM(PARAM_ADC_TYPE_INT_OPT(IntType));
 722              		.loc 1 204 0 discriminator 9
 723 0056 CC21     		movs	r1, #204	@,
 724 0058 0F48     		ldr	r0, .L43+4	@,
 725 005a FFF7FEFF 		bl	check_failed	@
 726              	.L40:
 727              	@ core/lpc17xx_adc.c:206: 	ADCx->ADINTEN &= ~ADC_INTEN_CH(IntType);
 205:core/lpc17xx_adc.c **** 
 206:core/lpc17xx_adc.c **** 	ADCx->ADINTEN &= ~ADC_INTEN_CH(IntType);
 728              		.loc 1 206 0 is_stmt 1
 729 005e 7B68     		ldr	r3, [r7, #4]	@ tmp134, ADCx
 730 0060 DA68     		ldr	r2, [r3, #12]	@ _1, ADCx_13(D)->ADINTEN
 731 0062 FB78     		ldrb	r3, [r7, #3]	@ zero_extendqisi2	@ _2, IntType
 732 0064 0121     		movs	r1, #1	@ tmp135,
 733 0066 01FA03F3 		lsl	r3, r1, r3	@ _3, tmp135, _2
 734 006a DB43     		mvns	r3, r3	@ _4, _3
 735 006c 1A40     		ands	r2, r2, r3	@, _5, _1, _4
 736 006e 7B68     		ldr	r3, [r7, #4]	@ tmp136, ADCx
 737 0070 DA60     		str	r2, [r3, #12]	@ _5, ADCx_13(D)->ADINTEN
 738              	@ core/lpc17xx_adc.c:207: 	if (NewState){
 207:core/lpc17xx_adc.c **** 	if (NewState){
 739              		.loc 1 207 0
 740 0072 BB78     		ldrb	r3, [r7, #2]	@ zero_extendqisi2	@ tmp137, NewState
 741 0074 002B     		cmp	r3, #0	@ tmp137,
 742 0076 08D0     		beq	.L42	@,
 743              	@ core/lpc17xx_adc.c:208: 		ADCx->ADINTEN |= ADC_INTEN_CH(IntType);
 208:core/lpc17xx_adc.c **** 		ADCx->ADINTEN |= ADC_INTEN_CH(IntType);
 744              		.loc 1 208 0
 745 0078 7B68     		ldr	r3, [r7, #4]	@ tmp138, ADCx
 746 007a DA68     		ldr	r2, [r3, #12]	@ _6, ADCx_13(D)->ADINTEN
 747 007c FB78     		ldrb	r3, [r7, #3]	@ zero_extendqisi2	@ _7, IntType
 748 007e 0121     		movs	r1, #1	@ tmp139,
 749 0080 01FA03F3 		lsl	r3, r1, r3	@ _8, tmp139, _7
 750 0084 1A43     		orrs	r2, r2, r3	@, _9, _6, _8
 751 0086 7B68     		ldr	r3, [r7, #4]	@ tmp140, ADCx
 752 0088 DA60     		str	r2, [r3, #12]	@ _9, ADCx_13(D)->ADINTEN
 753              	.L42:
 754              	@ core/lpc17xx_adc.c:210: }
 209:core/lpc17xx_adc.c **** 	}
 210:core/lpc17xx_adc.c **** }
 755              		.loc 1 210 0
ARM GAS  /tmp/ccxTOdv6.s 			page 18


 756 008a 00BF     		nop
 757 008c 0837     		adds	r7, r7, #8	@,,
 758              		.cfi_def_cfa_offset 8
 759 008e BD46     		mov	sp, r7	@,
 760              		.cfi_def_cfa_register 13
 761              		@ sp needed	@
 762 0090 80BD     		pop	{r7, pc}	@
 763              	.L44:
 764 0092 00BF     		.align	2
 765              	.L43:
 766 0094 00400340 		.word	1073954816
 767 0098 00000000 		.word	.LC0
 768              		.cfi_endproc
 769              	.LFE62:
 770              		.size	ADC_IntConfig, .-ADC_IntConfig
 771              		.section	.text.ADC_ChannelCmd,"ax",%progbits
 772              		.align	1
 773              		.global	ADC_ChannelCmd
 774              		.syntax unified
 775              		.thumb
 776              		.thumb_func
 777              		.fpu softvfp
 778              		.type	ADC_ChannelCmd, %function
 779              	ADC_ChannelCmd:
 780              	.LFB63:
 211:core/lpc17xx_adc.c **** 
 212:core/lpc17xx_adc.c **** /*********************************************************************//**
 213:core/lpc17xx_adc.c **** * @brief 		Enable/Disable ADC channel number
 214:core/lpc17xx_adc.c **** * @param[in]	ADCx pointer to ADC
 215:core/lpc17xx_adc.c **** * @param[in]	Channel channel number
 216:core/lpc17xx_adc.c **** * @param[in]	NewState Enable or Disable
 217:core/lpc17xx_adc.c **** *
 218:core/lpc17xx_adc.c **** * @return 		None
 219:core/lpc17xx_adc.c **** **********************************************************************/
 220:core/lpc17xx_adc.c **** void ADC_ChannelCmd (LPC_ADC_TypeDef *ADCx, uint8_t Channel, FunctionalState NewState)
 221:core/lpc17xx_adc.c **** {
 781              		.loc 1 221 0
 782              		.cfi_startproc
 783              		@ args = 0, pretend = 0, frame = 8
 784              		@ frame_needed = 1, uses_anonymous_args = 0
 785 0000 80B5     		push	{r7, lr}	@
 786              		.cfi_def_cfa_offset 8
 787              		.cfi_offset 7, -8
 788              		.cfi_offset 14, -4
 789 0002 82B0     		sub	sp, sp, #8	@,,
 790              		.cfi_def_cfa_offset 16
 791 0004 00AF     		add	r7, sp, #0	@,,
 792              		.cfi_def_cfa_register 7
 793 0006 7860     		str	r0, [r7, #4]	@ ADCx, ADCx
 794 0008 0B46     		mov	r3, r1	@ tmp119, Channel
 795 000a FB70     		strb	r3, [r7, #3]	@ tmp120, Channel
 796 000c 1346     		mov	r3, r2	@ tmp122, tmp121
 797 000e BB70     		strb	r3, [r7, #2]	@ tmp122, NewState
 798              	@ core/lpc17xx_adc.c:222: 	CHECK_PARAM(PARAM_ADCx(ADCx));
 222:core/lpc17xx_adc.c **** 	CHECK_PARAM(PARAM_ADCx(ADCx));
 799              		.loc 1 222 0
 800 0010 7B68     		ldr	r3, [r7, #4]	@ tmp123, ADCx
ARM GAS  /tmp/ccxTOdv6.s 			page 19


 801 0012 114A     		ldr	r2, .L50	@ tmp124,
 802 0014 9342     		cmp	r3, r2	@ tmp123, tmp124
 803 0016 03D0     		beq	.L46	@,
 804              	@ core/lpc17xx_adc.c:222: 	CHECK_PARAM(PARAM_ADCx(ADCx));
 805              		.loc 1 222 0 is_stmt 0 discriminator 1
 806 0018 DE21     		movs	r1, #222	@,
 807 001a 1048     		ldr	r0, .L50+4	@,
 808 001c FFF7FEFF 		bl	check_failed	@
 809              	.L46:
 810              	@ core/lpc17xx_adc.c:225: 	if (NewState == ENABLE) {
 223:core/lpc17xx_adc.c **** 	CHECK_PARAM(PARAM_ADC_CHANNEL_SELECTION(Channel));
 224:core/lpc17xx_adc.c **** 
 225:core/lpc17xx_adc.c **** 	if (NewState == ENABLE) {
 811              		.loc 1 225 0 is_stmt 1
 812 0020 BB78     		ldrb	r3, [r7, #2]	@ zero_extendqisi2	@ tmp125, NewState
 813 0022 012B     		cmp	r3, #1	@ tmp125,
 814 0024 09D1     		bne	.L47	@,
 815              	@ core/lpc17xx_adc.c:226: 		ADCx->ADCR |= ADC_CR_CH_SEL(Channel);
 226:core/lpc17xx_adc.c **** 		ADCx->ADCR |= ADC_CR_CH_SEL(Channel);
 816              		.loc 1 226 0
 817 0026 7B68     		ldr	r3, [r7, #4]	@ tmp126, ADCx
 818 0028 1A68     		ldr	r2, [r3]	@ _1, ADCx_12(D)->ADCR
 819 002a FB78     		ldrb	r3, [r7, #3]	@ zero_extendqisi2	@ _2, Channel
 820 002c 0121     		movs	r1, #1	@ tmp127,
 821 002e 01FA03F3 		lsl	r3, r1, r3	@ _3, tmp127, _2
 822 0032 1A43     		orrs	r2, r2, r3	@, _4, _1, _3
 823 0034 7B68     		ldr	r3, [r7, #4]	@ tmp128, ADCx
 824 0036 1A60     		str	r2, [r3]	@ _4, ADCx_12(D)->ADCR
 825              	@ core/lpc17xx_adc.c:230: }
 227:core/lpc17xx_adc.c **** 	} else {
 228:core/lpc17xx_adc.c **** 		ADCx->ADCR &= ~ADC_CR_CH_SEL(Channel);
 229:core/lpc17xx_adc.c **** 	}
 230:core/lpc17xx_adc.c **** }
 826              		.loc 1 230 0
 827 0038 09E0     		b	.L49	@
 828              	.L47:
 829              	@ core/lpc17xx_adc.c:228: 		ADCx->ADCR &= ~ADC_CR_CH_SEL(Channel);
 228:core/lpc17xx_adc.c **** 	}
 830              		.loc 1 228 0
 831 003a 7B68     		ldr	r3, [r7, #4]	@ tmp129, ADCx
 832 003c 1A68     		ldr	r2, [r3]	@ _5, ADCx_12(D)->ADCR
 833 003e FB78     		ldrb	r3, [r7, #3]	@ zero_extendqisi2	@ _6, Channel
 834 0040 0121     		movs	r1, #1	@ tmp130,
 835 0042 01FA03F3 		lsl	r3, r1, r3	@ _7, tmp130, _6
 836 0046 DB43     		mvns	r3, r3	@ _8, _7
 837 0048 1A40     		ands	r2, r2, r3	@, _9, _5, _8
 838 004a 7B68     		ldr	r3, [r7, #4]	@ tmp131, ADCx
 839 004c 1A60     		str	r2, [r3]	@ _9, ADCx_12(D)->ADCR
 840              	.L49:
 841              	@ core/lpc17xx_adc.c:230: }
 842              		.loc 1 230 0
 843 004e 00BF     		nop
 844 0050 0837     		adds	r7, r7, #8	@,,
 845              		.cfi_def_cfa_offset 8
 846 0052 BD46     		mov	sp, r7	@,
 847              		.cfi_def_cfa_register 13
 848              		@ sp needed	@
ARM GAS  /tmp/ccxTOdv6.s 			page 20


 849 0054 80BD     		pop	{r7, pc}	@
 850              	.L51:
 851 0056 00BF     		.align	2
 852              	.L50:
 853 0058 00400340 		.word	1073954816
 854 005c 00000000 		.word	.LC0
 855              		.cfi_endproc
 856              	.LFE63:
 857              		.size	ADC_ChannelCmd, .-ADC_ChannelCmd
 858              		.section	.text.ADC_ChannelGetData,"ax",%progbits
 859              		.align	1
 860              		.global	ADC_ChannelGetData
 861              		.syntax unified
 862              		.thumb
 863              		.thumb_func
 864              		.fpu softvfp
 865              		.type	ADC_ChannelGetData, %function
 866              	ADC_ChannelGetData:
 867              	.LFB64:
 231:core/lpc17xx_adc.c **** 
 232:core/lpc17xx_adc.c **** /*********************************************************************//**
 233:core/lpc17xx_adc.c **** * @brief 		Get ADC result
 234:core/lpc17xx_adc.c **** * @param[in]	ADCx pointer to ADC
 235:core/lpc17xx_adc.c **** * @param[in]	channel channel number
 236:core/lpc17xx_adc.c **** * @return 		Data conversion
 237:core/lpc17xx_adc.c **** **********************************************************************/
 238:core/lpc17xx_adc.c **** uint16_t ADC_ChannelGetData(LPC_ADC_TypeDef *ADCx, uint8_t channel)
 239:core/lpc17xx_adc.c **** {
 868              		.loc 1 239 0
 869              		.cfi_startproc
 870              		@ args = 0, pretend = 0, frame = 16
 871              		@ frame_needed = 1, uses_anonymous_args = 0
 872 0000 80B5     		push	{r7, lr}	@
 873              		.cfi_def_cfa_offset 8
 874              		.cfi_offset 7, -8
 875              		.cfi_offset 14, -4
 876 0002 84B0     		sub	sp, sp, #16	@,,
 877              		.cfi_def_cfa_offset 24
 878 0004 00AF     		add	r7, sp, #0	@,,
 879              		.cfi_def_cfa_register 7
 880 0006 7860     		str	r0, [r7, #4]	@ ADCx, ADCx
 881 0008 0B46     		mov	r3, r1	@ tmp118, channel
 882 000a FB70     		strb	r3, [r7, #3]	@ tmp119, channel
 883              	@ core/lpc17xx_adc.c:242: 	CHECK_PARAM(PARAM_ADCx(ADCx));
 240:core/lpc17xx_adc.c **** 	uint32_t adc_value;
 241:core/lpc17xx_adc.c **** 
 242:core/lpc17xx_adc.c **** 	CHECK_PARAM(PARAM_ADCx(ADCx));
 884              		.loc 1 242 0
 885 000c 7B68     		ldr	r3, [r7, #4]	@ tmp120, ADCx
 886 000e 0C4A     		ldr	r2, .L55	@ tmp121,
 887 0010 9342     		cmp	r3, r2	@ tmp120, tmp121
 888 0012 03D0     		beq	.L53	@,
 889              	@ core/lpc17xx_adc.c:242: 	CHECK_PARAM(PARAM_ADCx(ADCx));
 890              		.loc 1 242 0 is_stmt 0 discriminator 1
 891 0014 F221     		movs	r1, #242	@,
 892 0016 0B48     		ldr	r0, .L55+4	@,
 893 0018 FFF7FEFF 		bl	check_failed	@
ARM GAS  /tmp/ccxTOdv6.s 			page 21


 894              	.L53:
 895              	@ core/lpc17xx_adc.c:245: 	adc_value = *(uint32_t *) ((&ADCx->ADDR0) + channel);
 243:core/lpc17xx_adc.c **** 	CHECK_PARAM(PARAM_ADC_CHANNEL_SELECTION(channel));
 244:core/lpc17xx_adc.c **** 
 245:core/lpc17xx_adc.c **** 	adc_value = *(uint32_t *) ((&ADCx->ADDR0) + channel);
 896              		.loc 1 245 0 is_stmt 1
 897 001c 7B68     		ldr	r3, [r7, #4]	@ tmp122, ADCx
 898 001e 03F11002 		add	r2, r3, #16	@ _1, tmp122,
 899 0022 FB78     		ldrb	r3, [r7, #3]	@ zero_extendqisi2	@ _2, channel
 900 0024 9B00     		lsls	r3, r3, #2	@ _3, _2,
 901 0026 1344     		add	r3, r3, r2	@ _4, _1
 902 0028 1B68     		ldr	r3, [r3]	@ tmp123, MEM[(uint32_t *)_4]
 903 002a FB60     		str	r3, [r7, #12]	@ tmp123, adc_value
 904              	@ core/lpc17xx_adc.c:246: 	return ADC_DR_RESULT(adc_value);
 246:core/lpc17xx_adc.c **** 	return ADC_DR_RESULT(adc_value);
 905              		.loc 1 246 0
 906 002c FB68     		ldr	r3, [r7, #12]	@ tmp124, adc_value
 907 002e 1B09     		lsrs	r3, r3, #4	@ _5, tmp124,
 908 0030 9BB2     		uxth	r3, r3	@ _6, _5
 909 0032 C3F30B03 		ubfx	r3, r3, #0, #12	@ tmp125, _6,,
 910 0036 9BB2     		uxth	r3, r3	@ _13, tmp125
 911              	@ core/lpc17xx_adc.c:247: }
 247:core/lpc17xx_adc.c **** }
 912              		.loc 1 247 0
 913 0038 1846     		mov	r0, r3	@, <retval>
 914 003a 1037     		adds	r7, r7, #16	@,,
 915              		.cfi_def_cfa_offset 8
 916 003c BD46     		mov	sp, r7	@,
 917              		.cfi_def_cfa_register 13
 918              		@ sp needed	@
 919 003e 80BD     		pop	{r7, pc}	@
 920              	.L56:
 921              		.align	2
 922              	.L55:
 923 0040 00400340 		.word	1073954816
 924 0044 00000000 		.word	.LC0
 925              		.cfi_endproc
 926              	.LFE64:
 927              		.size	ADC_ChannelGetData, .-ADC_ChannelGetData
 928              		.section	.text.ADC_ChannelGetStatus,"ax",%progbits
 929              		.align	1
 930              		.global	ADC_ChannelGetStatus
 931              		.syntax unified
 932              		.thumb
 933              		.thumb_func
 934              		.fpu softvfp
 935              		.type	ADC_ChannelGetStatus, %function
 936              	ADC_ChannelGetStatus:
 937              	.LFB65:
 248:core/lpc17xx_adc.c **** 
 249:core/lpc17xx_adc.c **** /*********************************************************************//**
 250:core/lpc17xx_adc.c **** * @brief 		Get ADC Chanel status from ADC data register
 251:core/lpc17xx_adc.c **** * @param[in]	ADCx pointer to ADC
 252:core/lpc17xx_adc.c **** * @param[in]	channel channel number
 253:core/lpc17xx_adc.c **** * @param[in]  	StatusType
 254:core/lpc17xx_adc.c **** *              		 	0:Burst status
 255:core/lpc17xx_adc.c **** *               		1:Done 	status
ARM GAS  /tmp/ccxTOdv6.s 			page 22


 256:core/lpc17xx_adc.c **** * @return 		SET / RESET
 257:core/lpc17xx_adc.c **** **********************************************************************/
 258:core/lpc17xx_adc.c **** FlagStatus ADC_ChannelGetStatus(LPC_ADC_TypeDef *ADCx, uint8_t channel, uint32_t StatusType)
 259:core/lpc17xx_adc.c **** {
 938              		.loc 1 259 0
 939              		.cfi_startproc
 940              		@ args = 0, pretend = 0, frame = 24
 941              		@ frame_needed = 1, uses_anonymous_args = 0
 942 0000 80B5     		push	{r7, lr}	@
 943              		.cfi_def_cfa_offset 8
 944              		.cfi_offset 7, -8
 945              		.cfi_offset 14, -4
 946 0002 86B0     		sub	sp, sp, #24	@,,
 947              		.cfi_def_cfa_offset 32
 948 0004 00AF     		add	r7, sp, #0	@,,
 949              		.cfi_def_cfa_register 7
 950 0006 F860     		str	r0, [r7, #12]	@ ADCx, ADCx
 951 0008 0B46     		mov	r3, r1	@ tmp116, channel
 952 000a 7A60     		str	r2, [r7, #4]	@ StatusType, StatusType
 953 000c FB72     		strb	r3, [r7, #11]	@ tmp117, channel
 954              	@ core/lpc17xx_adc.c:262: 	CHECK_PARAM(PARAM_ADCx(ADCx));
 260:core/lpc17xx_adc.c **** 	uint32_t temp;
 261:core/lpc17xx_adc.c **** 
 262:core/lpc17xx_adc.c **** 	CHECK_PARAM(PARAM_ADCx(ADCx));
 955              		.loc 1 262 0
 956 000e FB68     		ldr	r3, [r7, #12]	@ tmp118, ADCx
 957 0010 184A     		ldr	r2, .L64	@ tmp119,
 958 0012 9342     		cmp	r3, r2	@ tmp118, tmp119
 959 0014 04D0     		beq	.L58	@,
 960              	@ core/lpc17xx_adc.c:262: 	CHECK_PARAM(PARAM_ADCx(ADCx));
 961              		.loc 1 262 0 is_stmt 0 discriminator 1
 962 0016 4FF48371 		mov	r1, #262	@,
 963 001a 1748     		ldr	r0, .L64+4	@,
 964 001c FFF7FEFF 		bl	check_failed	@
 965              	.L58:
 966              	@ core/lpc17xx_adc.c:264: 	CHECK_PARAM(PARAM_ADC_DATA_STATUS(StatusType));
 263:core/lpc17xx_adc.c **** 	CHECK_PARAM(PARAM_ADC_CHANNEL_SELECTION(channel));
 264:core/lpc17xx_adc.c **** 	CHECK_PARAM(PARAM_ADC_DATA_STATUS(StatusType));
 967              		.loc 1 264 0 is_stmt 1
 968 0020 7B68     		ldr	r3, [r7, #4]	@ tmp120, StatusType
 969 0022 002B     		cmp	r3, #0	@ tmp120,
 970 0024 07D0     		beq	.L59	@,
 971              	@ core/lpc17xx_adc.c:264: 	CHECK_PARAM(PARAM_ADC_DATA_STATUS(StatusType));
 972              		.loc 1 264 0 is_stmt 0 discriminator 1
 973 0026 7B68     		ldr	r3, [r7, #4]	@ tmp121, StatusType
 974 0028 012B     		cmp	r3, #1	@ tmp121,
 975 002a 04D0     		beq	.L59	@,
 976              	@ core/lpc17xx_adc.c:264: 	CHECK_PARAM(PARAM_ADC_DATA_STATUS(StatusType));
 977              		.loc 1 264 0 discriminator 2
 978 002c 4FF48471 		mov	r1, #264	@,
 979 0030 1148     		ldr	r0, .L64+4	@,
 980 0032 FFF7FEFF 		bl	check_failed	@
 981              	.L59:
 982              	@ core/lpc17xx_adc.c:266: 	temp =  *(uint32_t *) ((&ADCx->ADDR0) + channel);
 265:core/lpc17xx_adc.c **** 
 266:core/lpc17xx_adc.c **** 	temp =  *(uint32_t *) ((&ADCx->ADDR0) + channel);
 983              		.loc 1 266 0 is_stmt 1
ARM GAS  /tmp/ccxTOdv6.s 			page 23


 984 0036 FB68     		ldr	r3, [r7, #12]	@ tmp122, ADCx
 985 0038 03F11002 		add	r2, r3, #16	@ _1, tmp122,
 986 003c FB7A     		ldrb	r3, [r7, #11]	@ zero_extendqisi2	@ _2, channel
 987 003e 9B00     		lsls	r3, r3, #2	@ _3, _2,
 988 0040 1344     		add	r3, r3, r2	@ _4, _1
 989 0042 1B68     		ldr	r3, [r3]	@ tmp123, MEM[(uint32_t *)_4]
 990 0044 7B61     		str	r3, [r7, #20]	@ tmp123, temp
 991              	@ core/lpc17xx_adc.c:267: 	if (StatusType) {
 267:core/lpc17xx_adc.c **** 	if (StatusType) {
 992              		.loc 1 267 0
 993 0046 7B68     		ldr	r3, [r7, #4]	@ tmp124, StatusType
 994 0048 002B     		cmp	r3, #0	@ tmp124,
 995 004a 04D0     		beq	.L60	@,
 996              	@ core/lpc17xx_adc.c:268: 		temp &= ADC_DR_DONE_FLAG;
 268:core/lpc17xx_adc.c **** 		temp &= ADC_DR_DONE_FLAG;
 997              		.loc 1 268 0
 998 004c 7B69     		ldr	r3, [r7, #20]	@ tmp126, temp
 999 004e 03F00043 		and	r3, r3, #-2147483648	@ tmp125, tmp126,
 1000 0052 7B61     		str	r3, [r7, #20]	@ tmp125, temp
 1001 0054 03E0     		b	.L61	@
 1002              	.L60:
 1003              	@ core/lpc17xx_adc.c:270: 		temp &= ADC_DR_OVERRUN_FLAG;
 269:core/lpc17xx_adc.c **** 	}else{
 270:core/lpc17xx_adc.c **** 		temp &= ADC_DR_OVERRUN_FLAG;
 1004              		.loc 1 270 0
 1005 0056 7B69     		ldr	r3, [r7, #20]	@ tmp128, temp
 1006 0058 03F08043 		and	r3, r3, #1073741824	@ tmp127, tmp128,
 1007 005c 7B61     		str	r3, [r7, #20]	@ tmp127, temp
 1008              	.L61:
 1009              	@ core/lpc17xx_adc.c:272: 	if (temp) {
 271:core/lpc17xx_adc.c **** 	}
 272:core/lpc17xx_adc.c **** 	if (temp) {
 1010              		.loc 1 272 0
 1011 005e 7B69     		ldr	r3, [r7, #20]	@ tmp129, temp
 1012 0060 002B     		cmp	r3, #0	@ tmp129,
 1013 0062 01D0     		beq	.L62	@,
 1014              	@ core/lpc17xx_adc.c:273: 		return SET;
 273:core/lpc17xx_adc.c **** 		return SET;
 1015              		.loc 1 273 0
 1016 0064 0123     		movs	r3, #1	@ _6,
 1017 0066 00E0     		b	.L63	@
 1018              	.L62:
 1019              	@ core/lpc17xx_adc.c:275: 		return RESET;
 274:core/lpc17xx_adc.c **** 	} else {
 275:core/lpc17xx_adc.c **** 		return RESET;
 1020              		.loc 1 275 0
 1021 0068 0023     		movs	r3, #0	@ _6,
 1022              	.L63:
 1023              	@ core/lpc17xx_adc.c:278: }
 276:core/lpc17xx_adc.c **** 	}
 277:core/lpc17xx_adc.c **** 
 278:core/lpc17xx_adc.c **** }
 1024              		.loc 1 278 0
 1025 006a 1846     		mov	r0, r3	@, <retval>
 1026 006c 1837     		adds	r7, r7, #24	@,,
 1027              		.cfi_def_cfa_offset 8
 1028 006e BD46     		mov	sp, r7	@,
ARM GAS  /tmp/ccxTOdv6.s 			page 24


 1029              		.cfi_def_cfa_register 13
 1030              		@ sp needed	@
 1031 0070 80BD     		pop	{r7, pc}	@
 1032              	.L65:
 1033 0072 00BF     		.align	2
 1034              	.L64:
 1035 0074 00400340 		.word	1073954816
 1036 0078 00000000 		.word	.LC0
 1037              		.cfi_endproc
 1038              	.LFE65:
 1039              		.size	ADC_ChannelGetStatus, .-ADC_ChannelGetStatus
 1040              		.section	.text.ADC_GlobalGetData,"ax",%progbits
 1041              		.align	1
 1042              		.global	ADC_GlobalGetData
 1043              		.syntax unified
 1044              		.thumb
 1045              		.thumb_func
 1046              		.fpu softvfp
 1047              		.type	ADC_GlobalGetData, %function
 1048              	ADC_GlobalGetData:
 1049              	.LFB66:
 279:core/lpc17xx_adc.c **** 
 280:core/lpc17xx_adc.c **** /*********************************************************************//**
 281:core/lpc17xx_adc.c **** * @brief 		Get ADC Data from AD Global register
 282:core/lpc17xx_adc.c **** * @param[in]	ADCx pointer to ADC
 283:core/lpc17xx_adc.c **** * @param[in]	channel channel number
 284:core/lpc17xx_adc.c **** * @return 		Result of conversion
 285:core/lpc17xx_adc.c **** **********************************************************************/
 286:core/lpc17xx_adc.c **** uint16_t ADC_GlobalGetData(LPC_ADC_TypeDef *ADCx, uint8_t channel)
 287:core/lpc17xx_adc.c **** {
 1050              		.loc 1 287 0
 1051              		.cfi_startproc
 1052              		@ args = 0, pretend = 0, frame = 8
 1053              		@ frame_needed = 1, uses_anonymous_args = 0
 1054 0000 80B5     		push	{r7, lr}	@
 1055              		.cfi_def_cfa_offset 8
 1056              		.cfi_offset 7, -8
 1057              		.cfi_offset 14, -4
 1058 0002 82B0     		sub	sp, sp, #8	@,,
 1059              		.cfi_def_cfa_offset 16
 1060 0004 00AF     		add	r7, sp, #0	@,,
 1061              		.cfi_def_cfa_register 7
 1062 0006 7860     		str	r0, [r7, #4]	@ ADCx, ADCx
 1063 0008 0B46     		mov	r3, r1	@ tmp115, channel
 1064 000a FB70     		strb	r3, [r7, #3]	@ tmp116, channel
 1065              	@ core/lpc17xx_adc.c:288: 	CHECK_PARAM(PARAM_ADCx(ADCx));
 288:core/lpc17xx_adc.c **** 	CHECK_PARAM(PARAM_ADCx(ADCx));
 1066              		.loc 1 288 0
 1067 000c 7B68     		ldr	r3, [r7, #4]	@ tmp117, ADCx
 1068 000e 094A     		ldr	r2, .L69	@ tmp118,
 1069 0010 9342     		cmp	r3, r2	@ tmp117, tmp118
 1070 0012 04D0     		beq	.L67	@,
 1071              	@ core/lpc17xx_adc.c:288: 	CHECK_PARAM(PARAM_ADCx(ADCx));
 1072              		.loc 1 288 0 is_stmt 0 discriminator 1
 1073 0014 4FF49071 		mov	r1, #288	@,
 1074 0018 0748     		ldr	r0, .L69+4	@,
 1075 001a FFF7FEFF 		bl	check_failed	@
ARM GAS  /tmp/ccxTOdv6.s 			page 25


 1076              	.L67:
 1077              	@ core/lpc17xx_adc.c:293: 	return (uint16_t)(ADC_GDR_RESULT(ADCx->ADGDR));
 289:core/lpc17xx_adc.c **** 	CHECK_PARAM(PARAM_ADC_CHANNEL_SELECTION(channel));
 290:core/lpc17xx_adc.c **** 
 291:core/lpc17xx_adc.c **** 	//ADCx->ADGDR &= ~ADC_GDR_CH_MASK;
 292:core/lpc17xx_adc.c **** 	//ADCx->ADGDR |= ADC_GDR_CH(channel);
 293:core/lpc17xx_adc.c **** 	return (uint16_t)(ADC_GDR_RESULT(ADCx->ADGDR));
 1078              		.loc 1 293 0 is_stmt 1
 1079 001e 7B68     		ldr	r3, [r7, #4]	@ tmp119, ADCx
 1080 0020 5B68     		ldr	r3, [r3, #4]	@ _1, ADCx_5(D)->ADGDR
 1081 0022 1B09     		lsrs	r3, r3, #4	@ _2, _1,
 1082 0024 9BB2     		uxth	r3, r3	@ _3, _2
 1083 0026 C3F30B03 		ubfx	r3, r3, #0, #12	@ tmp120, _3,,
 1084 002a 9BB2     		uxth	r3, r3	@ _8, tmp120
 1085              	@ core/lpc17xx_adc.c:294: }
 294:core/lpc17xx_adc.c **** }
 1086              		.loc 1 294 0
 1087 002c 1846     		mov	r0, r3	@, <retval>
 1088 002e 0837     		adds	r7, r7, #8	@,,
 1089              		.cfi_def_cfa_offset 8
 1090 0030 BD46     		mov	sp, r7	@,
 1091              		.cfi_def_cfa_register 13
 1092              		@ sp needed	@
 1093 0032 80BD     		pop	{r7, pc}	@
 1094              	.L70:
 1095              		.align	2
 1096              	.L69:
 1097 0034 00400340 		.word	1073954816
 1098 0038 00000000 		.word	.LC0
 1099              		.cfi_endproc
 1100              	.LFE66:
 1101              		.size	ADC_GlobalGetData, .-ADC_GlobalGetData
 1102              		.section	.text.ADC_GlobalGetStatus,"ax",%progbits
 1103              		.align	1
 1104              		.global	ADC_GlobalGetStatus
 1105              		.syntax unified
 1106              		.thumb
 1107              		.thumb_func
 1108              		.fpu softvfp
 1109              		.type	ADC_GlobalGetStatus, %function
 1110              	ADC_GlobalGetStatus:
 1111              	.LFB67:
 295:core/lpc17xx_adc.c **** 
 296:core/lpc17xx_adc.c **** /*********************************************************************//**
 297:core/lpc17xx_adc.c **** * @brief 		Get ADC Chanel status from AD global data register
 298:core/lpc17xx_adc.c **** * @param[in]	ADCx pointer to ADC
 299:core/lpc17xx_adc.c **** * @param[in]  	StatusType
 300:core/lpc17xx_adc.c **** *              		 	0:Burst status
 301:core/lpc17xx_adc.c **** *               		1:Done 	status
 302:core/lpc17xx_adc.c **** * @return 		SET / RESET
 303:core/lpc17xx_adc.c **** **********************************************************************/
 304:core/lpc17xx_adc.c **** FlagStatus	ADC_GlobalGetStatus(LPC_ADC_TypeDef *ADCx, uint32_t StatusType)
 305:core/lpc17xx_adc.c **** {
 1112              		.loc 1 305 0
 1113              		.cfi_startproc
 1114              		@ args = 0, pretend = 0, frame = 16
 1115              		@ frame_needed = 1, uses_anonymous_args = 0
ARM GAS  /tmp/ccxTOdv6.s 			page 26


 1116 0000 80B5     		push	{r7, lr}	@
 1117              		.cfi_def_cfa_offset 8
 1118              		.cfi_offset 7, -8
 1119              		.cfi_offset 14, -4
 1120 0002 84B0     		sub	sp, sp, #16	@,,
 1121              		.cfi_def_cfa_offset 24
 1122 0004 00AF     		add	r7, sp, #0	@,,
 1123              		.cfi_def_cfa_register 7
 1124 0006 7860     		str	r0, [r7, #4]	@ ADCx, ADCx
 1125 0008 3960     		str	r1, [r7]	@ StatusType, StatusType
 1126              	@ core/lpc17xx_adc.c:308: 	CHECK_PARAM(PARAM_ADCx(ADCx));
 306:core/lpc17xx_adc.c **** 	uint32_t temp;
 307:core/lpc17xx_adc.c **** 
 308:core/lpc17xx_adc.c **** 	CHECK_PARAM(PARAM_ADCx(ADCx));
 1127              		.loc 1 308 0
 1128 000a 7B68     		ldr	r3, [r7, #4]	@ tmp112, ADCx
 1129 000c 154A     		ldr	r2, .L78	@ tmp113,
 1130 000e 9342     		cmp	r3, r2	@ tmp112, tmp113
 1131 0010 04D0     		beq	.L72	@,
 1132              	@ core/lpc17xx_adc.c:308: 	CHECK_PARAM(PARAM_ADCx(ADCx));
 1133              		.loc 1 308 0 is_stmt 0 discriminator 1
 1134 0012 4FF49A71 		mov	r1, #308	@,
 1135 0016 1448     		ldr	r0, .L78+4	@,
 1136 0018 FFF7FEFF 		bl	check_failed	@
 1137              	.L72:
 1138              	@ core/lpc17xx_adc.c:309: 	CHECK_PARAM(PARAM_ADC_DATA_STATUS(StatusType));
 309:core/lpc17xx_adc.c **** 	CHECK_PARAM(PARAM_ADC_DATA_STATUS(StatusType));
 1139              		.loc 1 309 0 is_stmt 1
 1140 001c 3B68     		ldr	r3, [r7]	@ tmp114, StatusType
 1141 001e 002B     		cmp	r3, #0	@ tmp114,
 1142 0020 07D0     		beq	.L73	@,
 1143              	@ core/lpc17xx_adc.c:309: 	CHECK_PARAM(PARAM_ADC_DATA_STATUS(StatusType));
 1144              		.loc 1 309 0 is_stmt 0 discriminator 1
 1145 0022 3B68     		ldr	r3, [r7]	@ tmp115, StatusType
 1146 0024 012B     		cmp	r3, #1	@ tmp115,
 1147 0026 04D0     		beq	.L73	@,
 1148              	@ core/lpc17xx_adc.c:309: 	CHECK_PARAM(PARAM_ADC_DATA_STATUS(StatusType));
 1149              		.loc 1 309 0 discriminator 2
 1150 0028 40F23511 		movw	r1, #309	@,
 1151 002c 0E48     		ldr	r0, .L78+4	@,
 1152 002e FFF7FEFF 		bl	check_failed	@
 1153              	.L73:
 1154              	@ core/lpc17xx_adc.c:311: 	temp =  ADCx->ADGDR;
 310:core/lpc17xx_adc.c **** 
 311:core/lpc17xx_adc.c **** 	temp =  ADCx->ADGDR;
 1155              		.loc 1 311 0 is_stmt 1
 1156 0032 7B68     		ldr	r3, [r7, #4]	@ tmp116, ADCx
 1157 0034 5B68     		ldr	r3, [r3, #4]	@ tmp117, ADCx_5(D)->ADGDR
 1158 0036 FB60     		str	r3, [r7, #12]	@ tmp117, temp
 1159              	@ core/lpc17xx_adc.c:312: 	if (StatusType){
 312:core/lpc17xx_adc.c **** 	if (StatusType){
 1160              		.loc 1 312 0
 1161 0038 3B68     		ldr	r3, [r7]	@ tmp118, StatusType
 1162 003a 002B     		cmp	r3, #0	@ tmp118,
 1163 003c 04D0     		beq	.L74	@,
 1164              	@ core/lpc17xx_adc.c:313: 		temp &= ADC_DR_DONE_FLAG;
 313:core/lpc17xx_adc.c **** 		temp &= ADC_DR_DONE_FLAG;
ARM GAS  /tmp/ccxTOdv6.s 			page 27


 1165              		.loc 1 313 0
 1166 003e FB68     		ldr	r3, [r7, #12]	@ tmp120, temp
 1167 0040 03F00043 		and	r3, r3, #-2147483648	@ tmp119, tmp120,
 1168 0044 FB60     		str	r3, [r7, #12]	@ tmp119, temp
 1169 0046 03E0     		b	.L75	@
 1170              	.L74:
 1171              	@ core/lpc17xx_adc.c:315: 		temp &= ADC_DR_OVERRUN_FLAG;
 314:core/lpc17xx_adc.c **** 	}else{
 315:core/lpc17xx_adc.c **** 		temp &= ADC_DR_OVERRUN_FLAG;
 1172              		.loc 1 315 0
 1173 0048 FB68     		ldr	r3, [r7, #12]	@ tmp122, temp
 1174 004a 03F08043 		and	r3, r3, #1073741824	@ tmp121, tmp122,
 1175 004e FB60     		str	r3, [r7, #12]	@ tmp121, temp
 1176              	.L75:
 1177              	@ core/lpc17xx_adc.c:317: 	if (temp){
 316:core/lpc17xx_adc.c **** 	}
 317:core/lpc17xx_adc.c **** 	if (temp){
 1178              		.loc 1 317 0
 1179 0050 FB68     		ldr	r3, [r7, #12]	@ tmp123, temp
 1180 0052 002B     		cmp	r3, #0	@ tmp123,
 1181 0054 01D0     		beq	.L76	@,
 1182              	@ core/lpc17xx_adc.c:318: 		return SET;
 318:core/lpc17xx_adc.c **** 		return SET;
 1183              		.loc 1 318 0
 1184 0056 0123     		movs	r3, #1	@ _2,
 1185 0058 00E0     		b	.L77	@
 1186              	.L76:
 1187              	@ core/lpc17xx_adc.c:320: 		return RESET;
 319:core/lpc17xx_adc.c **** 	}else{
 320:core/lpc17xx_adc.c **** 		return RESET;
 1188              		.loc 1 320 0
 1189 005a 0023     		movs	r3, #0	@ _2,
 1190              	.L77:
 1191              	@ core/lpc17xx_adc.c:322: }
 321:core/lpc17xx_adc.c **** 	}
 322:core/lpc17xx_adc.c **** }
 1192              		.loc 1 322 0
 1193 005c 1846     		mov	r0, r3	@, <retval>
 1194 005e 1037     		adds	r7, r7, #16	@,,
 1195              		.cfi_def_cfa_offset 8
 1196 0060 BD46     		mov	sp, r7	@,
 1197              		.cfi_def_cfa_register 13
 1198              		@ sp needed	@
 1199 0062 80BD     		pop	{r7, pc}	@
 1200              	.L79:
 1201              		.align	2
 1202              	.L78:
 1203 0064 00400340 		.word	1073954816
 1204 0068 00000000 		.word	.LC0
 1205              		.cfi_endproc
 1206              	.LFE67:
 1207              		.size	ADC_GlobalGetStatus, .-ADC_GlobalGetStatus
 1208              		.text
 1209              	.Letext0:
 1210              		.file 2 "/usr/arm-none-eabi/include/machine/_default_types.h"
 1211              		.file 3 "/usr/arm-none-eabi/include/sys/_stdint.h"
 1212              		.file 4 "system/core_cm3.h"
ARM GAS  /tmp/ccxTOdv6.s 			page 28


 1213              		.file 5 "system/system_LPC17xx.h"
 1214              		.file 6 "system/LPC17xx.h"
 1215              		.file 7 "core/lpc_types.h"
 1216              		.file 8 "core/lpc17xx_adc.h"