ARM GAS  /tmp/ccKti1Oq.s 			page 1


   1              		.cpu cortex-m3
   2              		.eabi_attribute 20, 1	@ Tag_ABI_FP_denormal
   3              		.eabi_attribute 21, 1	@ Tag_ABI_FP_exceptions
   4              		.eabi_attribute 23, 3	@ Tag_ABI_FP_number_model
   5              		.eabi_attribute 24, 1	@ Tag_ABI_align8_needed
   6              		.eabi_attribute 25, 1	@ Tag_ABI_align8_preserved
   7              		.eabi_attribute 26, 1	@ Tag_ABI_enum_size
   8              		.eabi_attribute 30, 6	@ Tag_ABI_optimization_goals
   9              		.eabi_attribute 34, 1	@ Tag_CPU_unaligned_access
  10              		.eabi_attribute 18, 4	@ Tag_ABI_PCS_wchar_t
  11              		.file	"lpc17xx_timer.c"
  12              	@ GNU C89 (Arch Repository) version 7.1.0 (arm-none-eabi)
  13              	@	compiled by GNU C version 6.3.1 20170306, GMP version 6.1.2, MPFR version 3.1.5-p2, MPC version 1
  14              	
  15              	@ GGC heuristics: --param ggc-min-expand=100 --param ggc-min-heapsize=131072
  16              	@ options passed:  -I . -I config -I system -I core -I drivers -I FreeRTOS
  17              	@ -I FreeRTOS/include -I FreeRTOS/portable/GCC/ARM_CM3 -I FreeRTOS/portable
  18              	@ -I tasks/rc_task_leds -I tasks/rc_task_xbee -I modules/rc_leds
  19              	@ -I modules/rc_xbee -I modules/rc_scheduler -I drivers/rc_system
  20              	@ -I drivers/rc_gpio -I drivers/rc_uart -I drivers/rc_pinsel
  21              	@ -I drivers/rc_timer -I drivers/rc_adc -imultilib armv7-m
  22              	@ -MD out/lpc17xx_timer.d -MF out/lpc17xx_timer.d -MP
  23              	@ -MQ out/lpc17xx_timer.o -D__USES_INITFINI__ core/lpc17xx_timer.c
  24              	@ -mcpu=cortex-m3 -mthumb -auxbase-strip out/lpc17xx_timer.o -g -ggdb3 -O0
  25              	@ -Wall -Wstrict-prototypes -Wextra -std=gnu90 -ffunction-sections
  26              	@ -fdata-sections -fverbose-asm
  27              	@ options enabled:  -faggressive-loop-optimizations -fauto-inc-dec
  28              	@ -fchkp-check-incomplete-type -fchkp-check-read -fchkp-check-write
  29              	@ -fchkp-instrument-calls -fchkp-narrow-bounds -fchkp-optimize
  30              	@ -fchkp-store-bounds -fchkp-use-static-bounds
  31              	@ -fchkp-use-static-const-bounds -fchkp-use-wrappers -fcommon
  32              	@ -fdata-sections -fdelete-null-pointer-checks -fdwarf2-cfi-asm
  33              	@ -fearly-inlining -feliminate-unused-debug-types -ffp-int-builtin-inexact
  34              	@ -ffunction-cse -ffunction-sections -fgcse-lm -fgnu-runtime -fgnu-unique
  35              	@ -fident -finline-atomics -fira-hoist-pressure -fira-share-save-slots
  36              	@ -fira-share-spill-slots -fivopts -fkeep-static-consts
  37              	@ -fleading-underscore -flifetime-dse -flto-odr-type-merging -fmath-errno
  38              	@ -fmerge-debug-strings -fpeephole -fplt -fprefetch-loop-arrays
  39              	@ -freg-struct-return -fsched-critical-path-heuristic
  40              	@ -fsched-dep-count-heuristic -fsched-group-heuristic -fsched-interblock
  41              	@ -fsched-last-insn-heuristic -fsched-rank-heuristic -fsched-spec
  42              	@ -fsched-spec-insn-heuristic -fsched-stalled-insns-dep
  43              	@ -fsemantic-interposition -fshow-column -fshrink-wrap-separate
  44              	@ -fsigned-zeros -fsplit-ivs-in-unroller -fssa-backprop -fstdarg-opt
  45              	@ -fstrict-volatile-bitfields -fsync-libcalls -ftrapping-math -ftree-cselim
  46              	@ -ftree-forwprop -ftree-loop-if-convert -ftree-loop-im -ftree-loop-ivcanon
  47              	@ -ftree-loop-optimize -ftree-parallelize-loops= -ftree-phiprop
  48              	@ -ftree-reassoc -ftree-scev-cprop -funit-at-a-time -fverbose-asm
  49              	@ -fzero-initialized-in-bss -masm-syntax-unified -mfix-cortex-m3-ldrd
  50              	@ -mlittle-endian -mpic-data-is-text-relative -msched-prolog -mthumb
  51              	@ -munaligned-access -mvectorize-with-neon-quad
  52              	
  53              		.text
  54              	.Ltext0:
  55              		.cfi_sections	.debug_frame
  56              		.section	.text.TIM_GetPClock,"ax",%progbits
  57              		.align	1
ARM GAS  /tmp/ccKti1Oq.s 			page 2


  58              		.global	TIM_GetPClock
  59              		.syntax unified
  60              		.thumb
  61              		.thumb_func
  62              		.fpu softvfp
  63              		.type	TIM_GetPClock, %function
  64              	TIM_GetPClock:
  65              	.LFB55:
  66              		.file 1 "core/lpc17xx_timer.c"
   1:core/lpc17xx_timer.c **** /**
   2:core/lpc17xx_timer.c ****  * @file	: lpc17xx_timer.c
   3:core/lpc17xx_timer.c ****  * @brief	: Contains all functions support for Timer firmware library on LPC17xx
   4:core/lpc17xx_timer.c ****  * @version	: 1.0
   5:core/lpc17xx_timer.c ****  * @date	: 14. April. 2009
   6:core/lpc17xx_timer.c ****  * @author	: HieuNguyen
   7:core/lpc17xx_timer.c ****  **************************************************************************
   8:core/lpc17xx_timer.c ****  * Software that is described herein is for illustrative purposes only
   9:core/lpc17xx_timer.c ****  * which provides customers with programming information regarding the
  10:core/lpc17xx_timer.c ****  * products. This software is supplied "AS IS" without any warranties.
  11:core/lpc17xx_timer.c ****  * NXP Semiconductors assumes no responsibility or liability for the
  12:core/lpc17xx_timer.c ****  * use of the software, conveys no license or title under any patent,
  13:core/lpc17xx_timer.c ****  * copyright, or mask work right to the product. NXP Semiconductors
  14:core/lpc17xx_timer.c ****  * reserves the right to make changes in the software without
  15:core/lpc17xx_timer.c ****  * notification. NXP Semiconductors also make no representation or
  16:core/lpc17xx_timer.c ****  * warranty that such application will be suitable for the specified
  17:core/lpc17xx_timer.c ****  * use without further testing or modification.
  18:core/lpc17xx_timer.c ****  **********************************************************************/
  19:core/lpc17xx_timer.c **** 
  20:core/lpc17xx_timer.c **** /* Peripheral group ----------------------------------------------------------- */
  21:core/lpc17xx_timer.c **** /** @addtogroup TIM
  22:core/lpc17xx_timer.c ****  * @{
  23:core/lpc17xx_timer.c ****  */
  24:core/lpc17xx_timer.c **** 
  25:core/lpc17xx_timer.c **** /* Includes ------------------------------------------------------------------- */
  26:core/lpc17xx_timer.c **** #include "lpc17xx_timer.h"
  27:core/lpc17xx_timer.c **** #include "lpc17xx_clkpwr.h"
  28:core/lpc17xx_timer.c **** #include "lpc17xx_pinsel.h"
  29:core/lpc17xx_timer.c **** 
  30:core/lpc17xx_timer.c **** /* If this source file built with example, the LPC17xx FW library configuration
  31:core/lpc17xx_timer.c ****  * file in each example directory ("lpc17xx_libcfg.h") must be included,
  32:core/lpc17xx_timer.c ****  * otherwise the default FW library configuration file must be included instead
  33:core/lpc17xx_timer.c ****  */
  34:core/lpc17xx_timer.c **** #ifdef __BUILD_WITH_EXAMPLE__
  35:core/lpc17xx_timer.c **** #include "lpc17xx_libcfg.h"
  36:core/lpc17xx_timer.c **** #else
  37:core/lpc17xx_timer.c **** #include "lpc17xx_libcfg_default.h"
  38:core/lpc17xx_timer.c **** #endif /* __BUILD_WITH_EXAMPLE__ */
  39:core/lpc17xx_timer.c **** 
  40:core/lpc17xx_timer.c **** #ifdef _TIM
  41:core/lpc17xx_timer.c **** 
  42:core/lpc17xx_timer.c **** /* Private Functions ---------------------------------------------------------- */
  43:core/lpc17xx_timer.c **** /** @defgroup TIM_Private_Functions
  44:core/lpc17xx_timer.c ****  * @{
  45:core/lpc17xx_timer.c ****  */
  46:core/lpc17xx_timer.c **** 
  47:core/lpc17xx_timer.c **** uint32_t TIM_GetPClock (uint32_t timernum);
  48:core/lpc17xx_timer.c **** uint32_t TIM_ConverUSecToVal (uint32_t timernum, uint32_t usec);
ARM GAS  /tmp/ccKti1Oq.s 			page 3


  49:core/lpc17xx_timer.c **** uint32_t TIM_ConverPtrToTimeNum (LPC_TIM_TypeDef *TIMx);
  50:core/lpc17xx_timer.c **** 
  51:core/lpc17xx_timer.c **** 
  52:core/lpc17xx_timer.c **** /*********************************************************************//**
  53:core/lpc17xx_timer.c ****  * @brief 		Get peripheral clock of each timer controller
  54:core/lpc17xx_timer.c ****  * @param[in]	timernum Timer number
  55:core/lpc17xx_timer.c ****  * @return 		Peripheral clock of timer
  56:core/lpc17xx_timer.c ****  **********************************************************************/
  57:core/lpc17xx_timer.c **** 
  58:core/lpc17xx_timer.c **** uint32_t TIM_GetPClock (uint32_t timernum)
  59:core/lpc17xx_timer.c **** {
  67              		.loc 1 59 0
  68              		.cfi_startproc
  69              		@ args = 0, pretend = 0, frame = 16
  70              		@ frame_needed = 1, uses_anonymous_args = 0
  71 0000 80B5     		push	{r7, lr}	@
  72              		.cfi_def_cfa_offset 8
  73              		.cfi_offset 7, -8
  74              		.cfi_offset 14, -4
  75 0002 84B0     		sub	sp, sp, #16	@,,
  76              		.cfi_def_cfa_offset 24
  77 0004 00AF     		add	r7, sp, #0	@,,
  78              		.cfi_def_cfa_register 7
  79 0006 7860     		str	r0, [r7, #4]	@ timernum, timernum
  80              	@ core/lpc17xx_timer.c:61: 	switch (timernum)
  60:core/lpc17xx_timer.c **** 	uint32_t clkdlycnt;
  61:core/lpc17xx_timer.c **** 	switch (timernum)
  81              		.loc 1 61 0
  82 0008 7B68     		ldr	r3, [r7, #4]	@ tmp112, timernum
  83 000a 032B     		cmp	r3, #3	@ tmp112,
  84 000c 1ED8     		bhi	.L2	@
  85 000e 01A2     		adr	r2, .L4	@ tmp114,
  86 0010 52F823F0 		ldr	pc, [r2, r3, lsl #2]	@ tmp114, tmp112
  87              		.p2align 2
  88              	.L4:
  89 0014 25000000 		.word	.L3+1
  90 0018 2F000000 		.word	.L5+1
  91 001c 39000000 		.word	.L6+1
  92 0020 43000000 		.word	.L7+1
  93              		.p2align 1
  94              	.L3:
  95              	@ core/lpc17xx_timer.c:64: 		clkdlycnt = CLKPWR_GetPCLK (CLKPWR_PCLKSEL_TIMER0);
  62:core/lpc17xx_timer.c **** 	{
  63:core/lpc17xx_timer.c **** 	case 0:
  64:core/lpc17xx_timer.c **** 		clkdlycnt = CLKPWR_GetPCLK (CLKPWR_PCLKSEL_TIMER0);
  96              		.loc 1 64 0
  97 0024 0220     		movs	r0, #2	@,
  98 0026 FFF7FEFF 		bl	CLKPWR_GetPCLK	@
  99 002a F860     		str	r0, [r7, #12]	@, clkdlycnt
 100              	@ core/lpc17xx_timer.c:65: 		break;
  65:core/lpc17xx_timer.c **** 		break;
 101              		.loc 1 65 0
 102 002c 0EE0     		b	.L2	@
 103              	.L5:
 104              	@ core/lpc17xx_timer.c:68: 		clkdlycnt = CLKPWR_GetPCLK (CLKPWR_PCLKSEL_TIMER1);
  66:core/lpc17xx_timer.c **** 
  67:core/lpc17xx_timer.c **** 	case 1:
ARM GAS  /tmp/ccKti1Oq.s 			page 4


  68:core/lpc17xx_timer.c **** 		clkdlycnt = CLKPWR_GetPCLK (CLKPWR_PCLKSEL_TIMER1);
 105              		.loc 1 68 0
 106 002e 0420     		movs	r0, #4	@,
 107 0030 FFF7FEFF 		bl	CLKPWR_GetPCLK	@
 108 0034 F860     		str	r0, [r7, #12]	@, clkdlycnt
 109              	@ core/lpc17xx_timer.c:69: 		break;
  69:core/lpc17xx_timer.c **** 		break;
 110              		.loc 1 69 0
 111 0036 09E0     		b	.L2	@
 112              	.L6:
 113              	@ core/lpc17xx_timer.c:72: 		clkdlycnt = CLKPWR_GetPCLK (CLKPWR_PCLKSEL_TIMER2);
  70:core/lpc17xx_timer.c **** 
  71:core/lpc17xx_timer.c **** 	case 2:
  72:core/lpc17xx_timer.c **** 		clkdlycnt = CLKPWR_GetPCLK (CLKPWR_PCLKSEL_TIMER2);
 114              		.loc 1 72 0
 115 0038 2C20     		movs	r0, #44	@,
 116 003a FFF7FEFF 		bl	CLKPWR_GetPCLK	@
 117 003e F860     		str	r0, [r7, #12]	@, clkdlycnt
 118              	@ core/lpc17xx_timer.c:73: 		break;
  73:core/lpc17xx_timer.c **** 		break;
 119              		.loc 1 73 0
 120 0040 04E0     		b	.L2	@
 121              	.L7:
 122              	@ core/lpc17xx_timer.c:76: 		clkdlycnt = CLKPWR_GetPCLK (CLKPWR_PCLKSEL_TIMER3);
  74:core/lpc17xx_timer.c **** 
  75:core/lpc17xx_timer.c **** 	case 3:
  76:core/lpc17xx_timer.c **** 		clkdlycnt = CLKPWR_GetPCLK (CLKPWR_PCLKSEL_TIMER3);
 123              		.loc 1 76 0
 124 0042 2E20     		movs	r0, #46	@,
 125 0044 FFF7FEFF 		bl	CLKPWR_GetPCLK	@
 126 0048 F860     		str	r0, [r7, #12]	@, clkdlycnt
 127              	@ core/lpc17xx_timer.c:77: 		break;
  77:core/lpc17xx_timer.c **** 		break;
 128              		.loc 1 77 0
 129 004a 00BF     		nop
 130              	.L2:
 131              	@ core/lpc17xx_timer.c:79: 	return clkdlycnt;
  78:core/lpc17xx_timer.c **** 	}
  79:core/lpc17xx_timer.c **** 	return clkdlycnt;
 132              		.loc 1 79 0
 133 004c FB68     		ldr	r3, [r7, #12]	@ _14, clkdlycnt
 134              	@ core/lpc17xx_timer.c:80: }
  80:core/lpc17xx_timer.c **** }
 135              		.loc 1 80 0
 136 004e 1846     		mov	r0, r3	@, <retval>
 137 0050 1037     		adds	r7, r7, #16	@,,
 138              		.cfi_def_cfa_offset 8
 139 0052 BD46     		mov	sp, r7	@,
 140              		.cfi_def_cfa_register 13
 141              		@ sp needed	@
 142 0054 80BD     		pop	{r7, pc}	@
 143              		.cfi_endproc
 144              	.LFE55:
 145              		.size	TIM_GetPClock, .-TIM_GetPClock
 146              		.global	__aeabi_uldivmod
 147 0056 00BF     		.section	.text.TIM_ConverUSecToVal,"ax",%progbits
 148              		.align	1
ARM GAS  /tmp/ccKti1Oq.s 			page 5


 149              		.global	TIM_ConverUSecToVal
 150              		.syntax unified
 151              		.thumb
 152              		.thumb_func
 153              		.fpu softvfp
 154              		.type	TIM_ConverUSecToVal, %function
 155              	TIM_ConverUSecToVal:
 156              	.LFB56:
  81:core/lpc17xx_timer.c **** 
  82:core/lpc17xx_timer.c **** 
  83:core/lpc17xx_timer.c **** /*********************************************************************//**
  84:core/lpc17xx_timer.c ****  * @brief 		Convert a time to a timer count value
  85:core/lpc17xx_timer.c ****  * @param[in]	timernum Timer number
  86:core/lpc17xx_timer.c ****  * @param[in]	usec Time in microseconds
  87:core/lpc17xx_timer.c ****  * @return 		The number of required clock ticks to give the time delay
  88:core/lpc17xx_timer.c ****  **********************************************************************/
  89:core/lpc17xx_timer.c **** uint32_t TIM_ConverUSecToVal (uint32_t timernum, uint32_t usec)
  90:core/lpc17xx_timer.c **** {
 157              		.loc 1 90 0
 158              		.cfi_startproc
 159              		@ args = 0, pretend = 0, frame = 16
 160              		@ frame_needed = 1, uses_anonymous_args = 0
 161 0000 90B5     		push	{r4, r7, lr}	@
 162              		.cfi_def_cfa_offset 12
 163              		.cfi_offset 4, -12
 164              		.cfi_offset 7, -8
 165              		.cfi_offset 14, -4
 166 0002 85B0     		sub	sp, sp, #20	@,,
 167              		.cfi_def_cfa_offset 32
 168 0004 00AF     		add	r7, sp, #0	@,,
 169              		.cfi_def_cfa_register 7
 170 0006 7860     		str	r0, [r7, #4]	@ timernum, timernum
 171 0008 3960     		str	r1, [r7]	@ usec, usec
 172              	@ core/lpc17xx_timer.c:94: 	clkdlycnt = (uint64_t) TIM_GetPClock (timernum);
  91:core/lpc17xx_timer.c **** 	uint64_t clkdlycnt;
  92:core/lpc17xx_timer.c **** 
  93:core/lpc17xx_timer.c **** 	// Get Pclock of timer
  94:core/lpc17xx_timer.c **** 	clkdlycnt = (uint64_t) TIM_GetPClock (timernum);
 173              		.loc 1 94 0
 174 000a 7868     		ldr	r0, [r7, #4]	@, timernum
 175 000c FFF7FEFF 		bl	TIM_GetPClock	@
 176 0010 0346     		mov	r3, r0	@ _1,
 177 0012 4FF00004 		mov	r4, #0	@,
 178 0016 C7E90234 		strd	r3, [r7, #8]	@ tmp115,,
 179              	@ core/lpc17xx_timer.c:96: 	clkdlycnt = (clkdlycnt * usec) / 1000000;
  95:core/lpc17xx_timer.c **** 
  96:core/lpc17xx_timer.c **** 	clkdlycnt = (clkdlycnt * usec) / 1000000;
 180              		.loc 1 96 0
 181 001a 3B68     		ldr	r3, [r7]	@ tmp116, usec
 182 001c 4FF00004 		mov	r4, #0	@ _2,
 183 0020 BA68     		ldr	r2, [r7, #8]	@ tmp118, clkdlycnt
 184 0022 04FB02F1 		mul	r1, r4, r2	@ tmp117, _2, tmp118
 185 0026 FA68     		ldr	r2, [r7, #12]	@ tmp120, clkdlycnt
 186 0028 03FB02F2 		mul	r2, r3, r2	@ tmp119, _2, tmp120
 187 002c 0A44     		add	r2, r2, r1	@ tmp121, tmp117
 188 002e B968     		ldr	r1, [r7, #8]	@ tmp122, clkdlycnt
 189 0030 A1FB0301 		umull	r0, r1, r1, r3	@ _3, tmp122, _2
ARM GAS  /tmp/ccKti1Oq.s 			page 6


 190 0034 5318     		adds	r3, r2, r1	@ tmp123, tmp121, _3
 191 0036 1946     		mov	r1, r3	@ _3, tmp123
 192 0038 064A     		ldr	r2, .L11	@,
 193 003a 4FF00003 		mov	r3, #0	@,
 194 003e FFF7FEFF 		bl	__aeabi_uldivmod	@
 195              	.LVL0:
 196 0042 0346     		mov	r3, r0	@ tmp126,
 197 0044 0C46     		mov	r4, r1	@,
 198 0046 C7E90234 		strd	r3, [r7, #8]	@ tmp126,,
 199              	@ core/lpc17xx_timer.c:97: 	return (uint32_t) clkdlycnt;
  97:core/lpc17xx_timer.c **** 	return (uint32_t) clkdlycnt;
 200              		.loc 1 97 0
 201 004a BB68     		ldr	r3, [r7, #8]	@ _10, clkdlycnt
 202              	@ core/lpc17xx_timer.c:98: }
  98:core/lpc17xx_timer.c **** }
 203              		.loc 1 98 0
 204 004c 1846     		mov	r0, r3	@, <retval>
 205 004e 1437     		adds	r7, r7, #20	@,,
 206              		.cfi_def_cfa_offset 12
 207 0050 BD46     		mov	sp, r7	@,
 208              		.cfi_def_cfa_register 13
 209              		@ sp needed	@
 210 0052 90BD     		pop	{r4, r7, pc}	@
 211              	.L12:
 212              		.align	2
 213              	.L11:
 214 0054 40420F00 		.word	1000000
 215              		.cfi_endproc
 216              	.LFE56:
 217              		.size	TIM_ConverUSecToVal, .-TIM_ConverUSecToVal
 218              		.section	.text.TIM_ConverPtrToTimeNum,"ax",%progbits
 219              		.align	1
 220              		.global	TIM_ConverPtrToTimeNum
 221              		.syntax unified
 222              		.thumb
 223              		.thumb_func
 224              		.fpu softvfp
 225              		.type	TIM_ConverPtrToTimeNum, %function
 226              	TIM_ConverPtrToTimeNum:
 227              	.LFB57:
  99:core/lpc17xx_timer.c **** 
 100:core/lpc17xx_timer.c **** 
 101:core/lpc17xx_timer.c **** /*********************************************************************//**
 102:core/lpc17xx_timer.c ****  * @brief 		Convert a timer register pointer to a timer number
 103:core/lpc17xx_timer.c ****  * @param[in]	TIMx Pointer to a timer register set
 104:core/lpc17xx_timer.c ****  * @return 		The timer number (0 to 3) or -1 if register pointer is bad
 105:core/lpc17xx_timer.c ****  **********************************************************************/
 106:core/lpc17xx_timer.c **** uint32_t TIM_ConverPtrToTimeNum (LPC_TIM_TypeDef *TIMx)
 107:core/lpc17xx_timer.c **** {
 228              		.loc 1 107 0
 229              		.cfi_startproc
 230              		@ args = 0, pretend = 0, frame = 16
 231              		@ frame_needed = 1, uses_anonymous_args = 0
 232              		@ link register save eliminated.
 233 0000 80B4     		push	{r7}	@
 234              		.cfi_def_cfa_offset 4
 235              		.cfi_offset 7, -4
ARM GAS  /tmp/ccKti1Oq.s 			page 7


 236 0002 85B0     		sub	sp, sp, #20	@,,
 237              		.cfi_def_cfa_offset 24
 238 0004 00AF     		add	r7, sp, #0	@,,
 239              		.cfi_def_cfa_register 7
 240 0006 7860     		str	r0, [r7, #4]	@ TIMx, TIMx
 241              	@ core/lpc17xx_timer.c:108: 	uint32_t tnum = -1;
 108:core/lpc17xx_timer.c **** 	uint32_t tnum = -1;
 242              		.loc 1 108 0
 243 0008 4FF0FF33 		mov	r3, #-1	@ tmp112,
 244 000c FB60     		str	r3, [r7, #12]	@ tmp112, tnum
 245              	@ core/lpc17xx_timer.c:110: 	if (TIMx == LPC_TIM0)
 109:core/lpc17xx_timer.c **** 
 110:core/lpc17xx_timer.c **** 	if (TIMx == LPC_TIM0)
 246              		.loc 1 110 0
 247 000e 7B68     		ldr	r3, [r7, #4]	@ tmp113, TIMx
 248 0010 B3F1402F 		cmp	r3, #1073758208	@ tmp113,
 249 0014 02D1     		bne	.L14	@,
 250              	@ core/lpc17xx_timer.c:112: 		tnum = 0;
 111:core/lpc17xx_timer.c **** 	{
 112:core/lpc17xx_timer.c **** 		tnum = 0;
 251              		.loc 1 112 0
 252 0016 0023     		movs	r3, #0	@ tmp114,
 253 0018 FB60     		str	r3, [r7, #12]	@ tmp114, tnum
 254 001a 13E0     		b	.L15	@
 255              	.L14:
 256              	@ core/lpc17xx_timer.c:114: 	else if (TIMx == LPC_TIM1)
 113:core/lpc17xx_timer.c **** 	}
 114:core/lpc17xx_timer.c **** 	else if (TIMx == LPC_TIM1)
 257              		.loc 1 114 0
 258 001c 7B68     		ldr	r3, [r7, #4]	@ tmp115, TIMx
 259 001e 0C4A     		ldr	r2, .L19	@ tmp116,
 260 0020 9342     		cmp	r3, r2	@ tmp115, tmp116
 261 0022 02D1     		bne	.L16	@,
 262              	@ core/lpc17xx_timer.c:116: 		tnum = 1;
 115:core/lpc17xx_timer.c **** 	{
 116:core/lpc17xx_timer.c **** 		tnum = 1;
 263              		.loc 1 116 0
 264 0024 0123     		movs	r3, #1	@ tmp117,
 265 0026 FB60     		str	r3, [r7, #12]	@ tmp117, tnum
 266 0028 0CE0     		b	.L15	@
 267              	.L16:
 268              	@ core/lpc17xx_timer.c:118: 	else if (TIMx == LPC_TIM2)
 117:core/lpc17xx_timer.c **** 	}
 118:core/lpc17xx_timer.c **** 	else if (TIMx == LPC_TIM2)
 269              		.loc 1 118 0
 270 002a 7B68     		ldr	r3, [r7, #4]	@ tmp118, TIMx
 271 002c 094A     		ldr	r2, .L19+4	@ tmp119,
 272 002e 9342     		cmp	r3, r2	@ tmp118, tmp119
 273 0030 02D1     		bne	.L17	@,
 274              	@ core/lpc17xx_timer.c:120: 		tnum = 2;
 119:core/lpc17xx_timer.c **** 	{
 120:core/lpc17xx_timer.c **** 		tnum = 2;
 275              		.loc 1 120 0
 276 0032 0223     		movs	r3, #2	@ tmp120,
 277 0034 FB60     		str	r3, [r7, #12]	@ tmp120, tnum
 278 0036 05E0     		b	.L15	@
 279              	.L17:
ARM GAS  /tmp/ccKti1Oq.s 			page 8


 280              	@ core/lpc17xx_timer.c:122: 	else if (TIMx == LPC_TIM3)
 121:core/lpc17xx_timer.c **** 	}
 122:core/lpc17xx_timer.c **** 	else if (TIMx == LPC_TIM3)
 281              		.loc 1 122 0
 282 0038 7B68     		ldr	r3, [r7, #4]	@ tmp121, TIMx
 283 003a 074A     		ldr	r2, .L19+8	@ tmp122,
 284 003c 9342     		cmp	r3, r2	@ tmp121, tmp122
 285 003e 01D1     		bne	.L15	@,
 286              	@ core/lpc17xx_timer.c:124: 		tnum = 3;
 123:core/lpc17xx_timer.c **** 	{
 124:core/lpc17xx_timer.c **** 		tnum = 3;
 287              		.loc 1 124 0
 288 0040 0323     		movs	r3, #3	@ tmp123,
 289 0042 FB60     		str	r3, [r7, #12]	@ tmp123, tnum
 290              	.L15:
 291              	@ core/lpc17xx_timer.c:127: 	return tnum;
 125:core/lpc17xx_timer.c **** 	}
 126:core/lpc17xx_timer.c **** 
 127:core/lpc17xx_timer.c **** 	return tnum;
 292              		.loc 1 127 0
 293 0044 FB68     		ldr	r3, [r7, #12]	@ _8, tnum
 294              	@ core/lpc17xx_timer.c:128: }
 128:core/lpc17xx_timer.c **** }
 295              		.loc 1 128 0
 296 0046 1846     		mov	r0, r3	@, <retval>
 297 0048 1437     		adds	r7, r7, #20	@,,
 298              		.cfi_def_cfa_offset 4
 299 004a BD46     		mov	sp, r7	@,
 300              		.cfi_def_cfa_register 13
 301              		@ sp needed	@
 302 004c 80BC     		pop	{r7}	@
 303              		.cfi_restore 7
 304              		.cfi_def_cfa_offset 0
 305 004e 7047     		bx	lr	@
 306              	.L20:
 307              		.align	2
 308              	.L19:
 309 0050 00800040 		.word	1073774592
 310 0054 00000940 		.word	1074331648
 311 0058 00400940 		.word	1074348032
 312              		.cfi_endproc
 313              	.LFE57:
 314              		.size	TIM_ConverPtrToTimeNum, .-TIM_ConverPtrToTimeNum
 315              		.section	.rodata
 316              		.align	2
 317              	.LC0:
 318 0000 636F7265 		.ascii	"core/lpc17xx_timer.c\000"
 318      2F6C7063 
 318      31377878 
 318      5F74696D 
 318      65722E63 
 319              		.section	.text.TIM_GetIntStatus,"ax",%progbits
 320              		.align	1
 321              		.global	TIM_GetIntStatus
 322              		.syntax unified
 323              		.thumb
 324              		.thumb_func
ARM GAS  /tmp/ccKti1Oq.s 			page 9


 325              		.fpu softvfp
 326              		.type	TIM_GetIntStatus, %function
 327              	TIM_GetIntStatus:
 328              	.LFB58:
 129:core/lpc17xx_timer.c **** 
 130:core/lpc17xx_timer.c **** /**
 131:core/lpc17xx_timer.c ****  * @}
 132:core/lpc17xx_timer.c ****  */
 133:core/lpc17xx_timer.c **** 
 134:core/lpc17xx_timer.c **** 
 135:core/lpc17xx_timer.c **** /* Public Functions ----------------------------------------------------------- */
 136:core/lpc17xx_timer.c **** /** @addtogroup TIM_Public_Functions
 137:core/lpc17xx_timer.c ****  * @{
 138:core/lpc17xx_timer.c ****  */
 139:core/lpc17xx_timer.c **** 
 140:core/lpc17xx_timer.c **** /*********************************************************************//**
 141:core/lpc17xx_timer.c ****  * @brief 		Get Interrupt Status
 142:core/lpc17xx_timer.c ****  * @param[in]	TIMx Timer selection, should be TIM0, TIM1, TIM2, TIM3
 143:core/lpc17xx_timer.c ****  * @param[in]	IntFlag
 144:core/lpc17xx_timer.c ****  * @return 		FlagStatus
 145:core/lpc17xx_timer.c ****  * 				- SET : interrupt
 146:core/lpc17xx_timer.c ****  * 				- RESET : no interrupt
 147:core/lpc17xx_timer.c ****  **********************************************************************/
 148:core/lpc17xx_timer.c **** FlagStatus TIM_GetIntStatus(LPC_TIM_TypeDef *TIMx, uint8_t IntFlag)
 149:core/lpc17xx_timer.c **** {
 329              		.loc 1 149 0
 330              		.cfi_startproc
 331              		@ args = 0, pretend = 0, frame = 16
 332              		@ frame_needed = 1, uses_anonymous_args = 0
 333 0000 80B5     		push	{r7, lr}	@
 334              		.cfi_def_cfa_offset 8
 335              		.cfi_offset 7, -8
 336              		.cfi_offset 14, -4
 337 0002 84B0     		sub	sp, sp, #16	@,,
 338              		.cfi_def_cfa_offset 24
 339 0004 00AF     		add	r7, sp, #0	@,,
 340              		.cfi_def_cfa_register 7
 341 0006 7860     		str	r0, [r7, #4]	@ TIMx, TIMx
 342 0008 0B46     		mov	r3, r1	@ tmp117, IntFlag
 343 000a FB70     		strb	r3, [r7, #3]	@ tmp118, IntFlag
 344              	@ core/lpc17xx_timer.c:150: 	CHECK_PARAM(PARAM_TIMx(TIMx));
 150:core/lpc17xx_timer.c **** 	CHECK_PARAM(PARAM_TIMx(TIMx));
 345              		.loc 1 150 0
 346 000c 7B68     		ldr	r3, [r7, #4]	@ tmp119, TIMx
 347 000e B3F1402F 		cmp	r3, #1073758208	@ tmp119,
 348 0012 0FD0     		beq	.L22	@,
 349              	@ core/lpc17xx_timer.c:150: 	CHECK_PARAM(PARAM_TIMx(TIMx));
 350              		.loc 1 150 0 is_stmt 0 discriminator 1
 351 0014 7B68     		ldr	r3, [r7, #4]	@ tmp120, TIMx
 352 0016 1C4A     		ldr	r2, .L26	@ tmp121,
 353 0018 9342     		cmp	r3, r2	@ tmp120, tmp121
 354 001a 0BD0     		beq	.L22	@,
 355              	@ core/lpc17xx_timer.c:150: 	CHECK_PARAM(PARAM_TIMx(TIMx));
 356              		.loc 1 150 0 discriminator 2
 357 001c 7B68     		ldr	r3, [r7, #4]	@ tmp122, TIMx
 358 001e 1B4A     		ldr	r2, .L26+4	@ tmp123,
 359 0020 9342     		cmp	r3, r2	@ tmp122, tmp123
ARM GAS  /tmp/ccKti1Oq.s 			page 10


 360 0022 07D0     		beq	.L22	@,
 361              	@ core/lpc17xx_timer.c:150: 	CHECK_PARAM(PARAM_TIMx(TIMx));
 362              		.loc 1 150 0 discriminator 3
 363 0024 7B68     		ldr	r3, [r7, #4]	@ tmp124, TIMx
 364 0026 1A4A     		ldr	r2, .L26+8	@ tmp125,
 365 0028 9342     		cmp	r3, r2	@ tmp124, tmp125
 366 002a 03D0     		beq	.L22	@,
 367              	@ core/lpc17xx_timer.c:150: 	CHECK_PARAM(PARAM_TIMx(TIMx));
 368              		.loc 1 150 0 discriminator 4
 369 002c 9621     		movs	r1, #150	@,
 370 002e 1948     		ldr	r0, .L26+12	@,
 371 0030 FFF7FEFF 		bl	check_failed	@
 372              	.L22:
 373              	@ core/lpc17xx_timer.c:151: 	CHECK_PARAM(PARAM_TIM_INT_TYPE(IntFlag));
 151:core/lpc17xx_timer.c **** 	CHECK_PARAM(PARAM_TIM_INT_TYPE(IntFlag));
 374              		.loc 1 151 0 is_stmt 1
 375 0034 FB78     		ldrb	r3, [r7, #3]	@ zero_extendqisi2	@ tmp126, IntFlag
 376 0036 002B     		cmp	r3, #0	@ tmp126,
 377 0038 12D0     		beq	.L23	@,
 378              	@ core/lpc17xx_timer.c:151: 	CHECK_PARAM(PARAM_TIM_INT_TYPE(IntFlag));
 379              		.loc 1 151 0 is_stmt 0 discriminator 1
 380 003a FB78     		ldrb	r3, [r7, #3]	@ zero_extendqisi2	@ tmp127, IntFlag
 381 003c 012B     		cmp	r3, #1	@ tmp127,
 382 003e 0FD0     		beq	.L23	@,
 383              	@ core/lpc17xx_timer.c:151: 	CHECK_PARAM(PARAM_TIM_INT_TYPE(IntFlag));
 384              		.loc 1 151 0 discriminator 2
 385 0040 FB78     		ldrb	r3, [r7, #3]	@ zero_extendqisi2	@ tmp128, IntFlag
 386 0042 022B     		cmp	r3, #2	@ tmp128,
 387 0044 0CD0     		beq	.L23	@,
 388              	@ core/lpc17xx_timer.c:151: 	CHECK_PARAM(PARAM_TIM_INT_TYPE(IntFlag));
 389              		.loc 1 151 0 discriminator 3
 390 0046 FB78     		ldrb	r3, [r7, #3]	@ zero_extendqisi2	@ tmp129, IntFlag
 391 0048 032B     		cmp	r3, #3	@ tmp129,
 392 004a 09D0     		beq	.L23	@,
 393              	@ core/lpc17xx_timer.c:151: 	CHECK_PARAM(PARAM_TIM_INT_TYPE(IntFlag));
 394              		.loc 1 151 0 discriminator 4
 395 004c FB78     		ldrb	r3, [r7, #3]	@ zero_extendqisi2	@ tmp130, IntFlag
 396 004e 042B     		cmp	r3, #4	@ tmp130,
 397 0050 06D0     		beq	.L23	@,
 398              	@ core/lpc17xx_timer.c:151: 	CHECK_PARAM(PARAM_TIM_INT_TYPE(IntFlag));
 399              		.loc 1 151 0 discriminator 5
 400 0052 FB78     		ldrb	r3, [r7, #3]	@ zero_extendqisi2	@ tmp131, IntFlag
 401 0054 052B     		cmp	r3, #5	@ tmp131,
 402 0056 03D0     		beq	.L23	@,
 403              	@ core/lpc17xx_timer.c:151: 	CHECK_PARAM(PARAM_TIM_INT_TYPE(IntFlag));
 404              		.loc 1 151 0 discriminator 6
 405 0058 9721     		movs	r1, #151	@,
 406 005a 0E48     		ldr	r0, .L26+12	@,
 407 005c FFF7FEFF 		bl	check_failed	@
 408              	.L23:
 409              	@ core/lpc17xx_timer.c:152: 	uint8_t temp = (TIMx->IR)& TIM_IR_CLR(IntFlag);
 152:core/lpc17xx_timer.c **** 	uint8_t temp = (TIMx->IR)& TIM_IR_CLR(IntFlag);
 410              		.loc 1 152 0 is_stmt 1
 411 0060 7B68     		ldr	r3, [r7, #4]	@ tmp132, TIMx
 412 0062 1B68     		ldr	r3, [r3]	@ _1, TIMx_9(D)->IR
 413 0064 DAB2     		uxtb	r2, r3	@ _2, _1
 414 0066 FB78     		ldrb	r3, [r7, #3]	@ zero_extendqisi2	@ _3, IntFlag
ARM GAS  /tmp/ccKti1Oq.s 			page 11


 415 0068 0121     		movs	r1, #1	@ tmp133,
 416 006a 01FA03F3 		lsl	r3, r1, r3	@ _4, tmp133, _3
 417 006e DBB2     		uxtb	r3, r3	@ _5, _4
 418 0070 1340     		ands	r3, r3, r2	@, tmp134, _5, _2
 419 0072 FB73     		strb	r3, [r7, #15]	@ tmp135, temp
 420              	@ core/lpc17xx_timer.c:153: 	if (temp)
 153:core/lpc17xx_timer.c **** 	if (temp)
 421              		.loc 1 153 0
 422 0074 FB7B     		ldrb	r3, [r7, #15]	@ zero_extendqisi2	@ tmp136, temp
 423 0076 002B     		cmp	r3, #0	@ tmp136,
 424 0078 01D0     		beq	.L24	@,
 425              	@ core/lpc17xx_timer.c:154: 		return SET;
 154:core/lpc17xx_timer.c **** 		return SET;
 426              		.loc 1 154 0
 427 007a 0123     		movs	r3, #1	@ _6,
 428 007c 00E0     		b	.L25	@
 429              	.L24:
 430              	@ core/lpc17xx_timer.c:156: 	return RESET;
 155:core/lpc17xx_timer.c **** 
 156:core/lpc17xx_timer.c **** 	return RESET;
 431              		.loc 1 156 0
 432 007e 0023     		movs	r3, #0	@ _6,
 433              	.L25:
 434              	@ core/lpc17xx_timer.c:158: }
 157:core/lpc17xx_timer.c **** 
 158:core/lpc17xx_timer.c **** }
 435              		.loc 1 158 0
 436 0080 1846     		mov	r0, r3	@, <retval>
 437 0082 1037     		adds	r7, r7, #16	@,,
 438              		.cfi_def_cfa_offset 8
 439 0084 BD46     		mov	sp, r7	@,
 440              		.cfi_def_cfa_register 13
 441              		@ sp needed	@
 442 0086 80BD     		pop	{r7, pc}	@
 443              	.L27:
 444              		.align	2
 445              	.L26:
 446 0088 00800040 		.word	1073774592
 447 008c 00000940 		.word	1074331648
 448 0090 00400940 		.word	1074348032
 449 0094 00000000 		.word	.LC0
 450              		.cfi_endproc
 451              	.LFE58:
 452              		.size	TIM_GetIntStatus, .-TIM_GetIntStatus
 453              		.section	.text.TIM_GetIntCaptureStatus,"ax",%progbits
 454              		.align	1
 455              		.global	TIM_GetIntCaptureStatus
 456              		.syntax unified
 457              		.thumb
 458              		.thumb_func
 459              		.fpu softvfp
 460              		.type	TIM_GetIntCaptureStatus, %function
 461              	TIM_GetIntCaptureStatus:
 462              	.LFB59:
 159:core/lpc17xx_timer.c **** /*********************************************************************//**
 160:core/lpc17xx_timer.c ****  * @brief 		Get Capture Interrupt Status
 161:core/lpc17xx_timer.c ****  * @param[in]	TIMx Timer selection, should be TIM0, TIM1, TIM2, TIM3
ARM GAS  /tmp/ccKti1Oq.s 			page 12


 162:core/lpc17xx_timer.c ****  * @param[in]	IntFlag
 163:core/lpc17xx_timer.c ****  * @return 		FlagStatus
 164:core/lpc17xx_timer.c ****  * 				- SET : interrupt
 165:core/lpc17xx_timer.c ****  * 				- RESET : no interrupt
 166:core/lpc17xx_timer.c ****  **********************************************************************/
 167:core/lpc17xx_timer.c **** FlagStatus TIM_GetIntCaptureStatus(LPC_TIM_TypeDef *TIMx, uint8_t IntFlag)
 168:core/lpc17xx_timer.c **** {
 463              		.loc 1 168 0
 464              		.cfi_startproc
 465              		@ args = 0, pretend = 0, frame = 16
 466              		@ frame_needed = 1, uses_anonymous_args = 0
 467 0000 80B5     		push	{r7, lr}	@
 468              		.cfi_def_cfa_offset 8
 469              		.cfi_offset 7, -8
 470              		.cfi_offset 14, -4
 471 0002 84B0     		sub	sp, sp, #16	@,,
 472              		.cfi_def_cfa_offset 24
 473 0004 00AF     		add	r7, sp, #0	@,,
 474              		.cfi_def_cfa_register 7
 475 0006 7860     		str	r0, [r7, #4]	@ TIMx, TIMx
 476 0008 0B46     		mov	r3, r1	@ tmp118, IntFlag
 477 000a FB70     		strb	r3, [r7, #3]	@ tmp119, IntFlag
 478              	@ core/lpc17xx_timer.c:169: 	CHECK_PARAM(PARAM_TIMx(TIMx));
 169:core/lpc17xx_timer.c **** 	CHECK_PARAM(PARAM_TIMx(TIMx));
 479              		.loc 1 169 0
 480 000c 7B68     		ldr	r3, [r7, #4]	@ tmp120, TIMx
 481 000e B3F1402F 		cmp	r3, #1073758208	@ tmp120,
 482 0012 0FD0     		beq	.L29	@,
 483              	@ core/lpc17xx_timer.c:169: 	CHECK_PARAM(PARAM_TIMx(TIMx));
 484              		.loc 1 169 0 is_stmt 0 discriminator 1
 485 0014 7B68     		ldr	r3, [r7, #4]	@ tmp121, TIMx
 486 0016 1D4A     		ldr	r2, .L33	@ tmp122,
 487 0018 9342     		cmp	r3, r2	@ tmp121, tmp122
 488 001a 0BD0     		beq	.L29	@,
 489              	@ core/lpc17xx_timer.c:169: 	CHECK_PARAM(PARAM_TIMx(TIMx));
 490              		.loc 1 169 0 discriminator 2
 491 001c 7B68     		ldr	r3, [r7, #4]	@ tmp123, TIMx
 492 001e 1C4A     		ldr	r2, .L33+4	@ tmp124,
 493 0020 9342     		cmp	r3, r2	@ tmp123, tmp124
 494 0022 07D0     		beq	.L29	@,
 495              	@ core/lpc17xx_timer.c:169: 	CHECK_PARAM(PARAM_TIMx(TIMx));
 496              		.loc 1 169 0 discriminator 3
 497 0024 7B68     		ldr	r3, [r7, #4]	@ tmp125, TIMx
 498 0026 1B4A     		ldr	r2, .L33+8	@ tmp126,
 499 0028 9342     		cmp	r3, r2	@ tmp125, tmp126
 500 002a 03D0     		beq	.L29	@,
 501              	@ core/lpc17xx_timer.c:169: 	CHECK_PARAM(PARAM_TIMx(TIMx));
 502              		.loc 1 169 0 discriminator 4
 503 002c A921     		movs	r1, #169	@,
 504 002e 1A48     		ldr	r0, .L33+12	@,
 505 0030 FFF7FEFF 		bl	check_failed	@
 506              	.L29:
 507              	@ core/lpc17xx_timer.c:170: 	CHECK_PARAM(PARAM_TIM_INT_TYPE(IntFlag));
 170:core/lpc17xx_timer.c **** 	CHECK_PARAM(PARAM_TIM_INT_TYPE(IntFlag));
 508              		.loc 1 170 0 is_stmt 1
 509 0034 FB78     		ldrb	r3, [r7, #3]	@ zero_extendqisi2	@ tmp127, IntFlag
 510 0036 002B     		cmp	r3, #0	@ tmp127,
ARM GAS  /tmp/ccKti1Oq.s 			page 13


 511 0038 12D0     		beq	.L30	@,
 512              	@ core/lpc17xx_timer.c:170: 	CHECK_PARAM(PARAM_TIM_INT_TYPE(IntFlag));
 513              		.loc 1 170 0 is_stmt 0 discriminator 1
 514 003a FB78     		ldrb	r3, [r7, #3]	@ zero_extendqisi2	@ tmp128, IntFlag
 515 003c 012B     		cmp	r3, #1	@ tmp128,
 516 003e 0FD0     		beq	.L30	@,
 517              	@ core/lpc17xx_timer.c:170: 	CHECK_PARAM(PARAM_TIM_INT_TYPE(IntFlag));
 518              		.loc 1 170 0 discriminator 2
 519 0040 FB78     		ldrb	r3, [r7, #3]	@ zero_extendqisi2	@ tmp129, IntFlag
 520 0042 022B     		cmp	r3, #2	@ tmp129,
 521 0044 0CD0     		beq	.L30	@,
 522              	@ core/lpc17xx_timer.c:170: 	CHECK_PARAM(PARAM_TIM_INT_TYPE(IntFlag));
 523              		.loc 1 170 0 discriminator 3
 524 0046 FB78     		ldrb	r3, [r7, #3]	@ zero_extendqisi2	@ tmp130, IntFlag
 525 0048 032B     		cmp	r3, #3	@ tmp130,
 526 004a 09D0     		beq	.L30	@,
 527              	@ core/lpc17xx_timer.c:170: 	CHECK_PARAM(PARAM_TIM_INT_TYPE(IntFlag));
 528              		.loc 1 170 0 discriminator 4
 529 004c FB78     		ldrb	r3, [r7, #3]	@ zero_extendqisi2	@ tmp131, IntFlag
 530 004e 042B     		cmp	r3, #4	@ tmp131,
 531 0050 06D0     		beq	.L30	@,
 532              	@ core/lpc17xx_timer.c:170: 	CHECK_PARAM(PARAM_TIM_INT_TYPE(IntFlag));
 533              		.loc 1 170 0 discriminator 5
 534 0052 FB78     		ldrb	r3, [r7, #3]	@ zero_extendqisi2	@ tmp132, IntFlag
 535 0054 052B     		cmp	r3, #5	@ tmp132,
 536 0056 03D0     		beq	.L30	@,
 537              	@ core/lpc17xx_timer.c:170: 	CHECK_PARAM(PARAM_TIM_INT_TYPE(IntFlag));
 538              		.loc 1 170 0 discriminator 6
 539 0058 AA21     		movs	r1, #170	@,
 540 005a 0F48     		ldr	r0, .L33+12	@,
 541 005c FFF7FEFF 		bl	check_failed	@
 542              	.L30:
 543              	@ core/lpc17xx_timer.c:171: 	uint8_t temp = (TIMx->IR) & (1<<(4+IntFlag));
 171:core/lpc17xx_timer.c **** 	uint8_t temp = (TIMx->IR) & (1<<(4+IntFlag));
 544              		.loc 1 171 0 is_stmt 1
 545 0060 7B68     		ldr	r3, [r7, #4]	@ tmp133, TIMx
 546 0062 1B68     		ldr	r3, [r3]	@ _1, TIMx_10(D)->IR
 547 0064 DAB2     		uxtb	r2, r3	@ _2, _1
 548 0066 FB78     		ldrb	r3, [r7, #3]	@ zero_extendqisi2	@ _3, IntFlag
 549 0068 0433     		adds	r3, r3, #4	@ _4, _3,
 550 006a 0121     		movs	r1, #1	@ tmp134,
 551 006c 01FA03F3 		lsl	r3, r1, r3	@ _5, tmp134, _4
 552 0070 DBB2     		uxtb	r3, r3	@ _6, _5
 553 0072 1340     		ands	r3, r3, r2	@, tmp135, _6, _2
 554 0074 FB73     		strb	r3, [r7, #15]	@ tmp136, temp
 555              	@ core/lpc17xx_timer.c:172: 	if(temp)
 172:core/lpc17xx_timer.c **** 	if(temp)
 556              		.loc 1 172 0
 557 0076 FB7B     		ldrb	r3, [r7, #15]	@ zero_extendqisi2	@ tmp137, temp
 558 0078 002B     		cmp	r3, #0	@ tmp137,
 559 007a 01D0     		beq	.L31	@,
 560              	@ core/lpc17xx_timer.c:173: 		return SET;
 173:core/lpc17xx_timer.c **** 		return SET;
 561              		.loc 1 173 0
 562 007c 0123     		movs	r3, #1	@ _7,
 563 007e 00E0     		b	.L32	@
 564              	.L31:
ARM GAS  /tmp/ccKti1Oq.s 			page 14


 565              	@ core/lpc17xx_timer.c:174: 	return RESET;
 174:core/lpc17xx_timer.c **** 	return RESET;
 566              		.loc 1 174 0
 567 0080 0023     		movs	r3, #0	@ _7,
 568              	.L32:
 569              	@ core/lpc17xx_timer.c:175: }
 175:core/lpc17xx_timer.c **** }
 570              		.loc 1 175 0
 571 0082 1846     		mov	r0, r3	@, <retval>
 572 0084 1037     		adds	r7, r7, #16	@,,
 573              		.cfi_def_cfa_offset 8
 574 0086 BD46     		mov	sp, r7	@,
 575              		.cfi_def_cfa_register 13
 576              		@ sp needed	@
 577 0088 80BD     		pop	{r7, pc}	@
 578              	.L34:
 579 008a 00BF     		.align	2
 580              	.L33:
 581 008c 00800040 		.word	1073774592
 582 0090 00000940 		.word	1074331648
 583 0094 00400940 		.word	1074348032
 584 0098 00000000 		.word	.LC0
 585              		.cfi_endproc
 586              	.LFE59:
 587              		.size	TIM_GetIntCaptureStatus, .-TIM_GetIntCaptureStatus
 588              		.section	.text.TIM_ClearIntPending,"ax",%progbits
 589              		.align	1
 590              		.global	TIM_ClearIntPending
 591              		.syntax unified
 592              		.thumb
 593              		.thumb_func
 594              		.fpu softvfp
 595              		.type	TIM_ClearIntPending, %function
 596              	TIM_ClearIntPending:
 597              	.LFB60:
 176:core/lpc17xx_timer.c **** /*********************************************************************//**
 177:core/lpc17xx_timer.c ****  * @brief 		Clear Interrupt pending
 178:core/lpc17xx_timer.c ****  * @param[in]	TIMx Timer selection, should be TIM0, TIM1, TIM2, TIM3
 179:core/lpc17xx_timer.c ****  * @param[in]	IntFlag should be in TIM_INT_TYPE enum
 180:core/lpc17xx_timer.c ****  * @return 		None
 181:core/lpc17xx_timer.c ****  **********************************************************************/
 182:core/lpc17xx_timer.c **** void TIM_ClearIntPending(LPC_TIM_TypeDef *TIMx, uint8_t IntFlag)
 183:core/lpc17xx_timer.c **** {
 598              		.loc 1 183 0
 599              		.cfi_startproc
 600              		@ args = 0, pretend = 0, frame = 8
 601              		@ frame_needed = 1, uses_anonymous_args = 0
 602 0000 80B5     		push	{r7, lr}	@
 603              		.cfi_def_cfa_offset 8
 604              		.cfi_offset 7, -8
 605              		.cfi_offset 14, -4
 606 0002 82B0     		sub	sp, sp, #8	@,,
 607              		.cfi_def_cfa_offset 16
 608 0004 00AF     		add	r7, sp, #0	@,,
 609              		.cfi_def_cfa_register 7
 610 0006 7860     		str	r0, [r7, #4]	@ TIMx, TIMx
 611 0008 0B46     		mov	r3, r1	@ tmp115, IntFlag
ARM GAS  /tmp/ccKti1Oq.s 			page 15


 612 000a FB70     		strb	r3, [r7, #3]	@ tmp116, IntFlag
 613              	@ core/lpc17xx_timer.c:184: 	CHECK_PARAM(PARAM_TIMx(TIMx));
 184:core/lpc17xx_timer.c **** 	CHECK_PARAM(PARAM_TIMx(TIMx));
 614              		.loc 1 184 0
 615 000c 7B68     		ldr	r3, [r7, #4]	@ tmp117, TIMx
 616 000e B3F1402F 		cmp	r3, #1073758208	@ tmp117,
 617 0012 0FD0     		beq	.L36	@,
 618              	@ core/lpc17xx_timer.c:184: 	CHECK_PARAM(PARAM_TIMx(TIMx));
 619              		.loc 1 184 0 is_stmt 0 discriminator 1
 620 0014 7B68     		ldr	r3, [r7, #4]	@ tmp118, TIMx
 621 0016 194A     		ldr	r2, .L38	@ tmp119,
 622 0018 9342     		cmp	r3, r2	@ tmp118, tmp119
 623 001a 0BD0     		beq	.L36	@,
 624              	@ core/lpc17xx_timer.c:184: 	CHECK_PARAM(PARAM_TIMx(TIMx));
 625              		.loc 1 184 0 discriminator 2
 626 001c 7B68     		ldr	r3, [r7, #4]	@ tmp120, TIMx
 627 001e 184A     		ldr	r2, .L38+4	@ tmp121,
 628 0020 9342     		cmp	r3, r2	@ tmp120, tmp121
 629 0022 07D0     		beq	.L36	@,
 630              	@ core/lpc17xx_timer.c:184: 	CHECK_PARAM(PARAM_TIMx(TIMx));
 631              		.loc 1 184 0 discriminator 3
 632 0024 7B68     		ldr	r3, [r7, #4]	@ tmp122, TIMx
 633 0026 174A     		ldr	r2, .L38+8	@ tmp123,
 634 0028 9342     		cmp	r3, r2	@ tmp122, tmp123
 635 002a 03D0     		beq	.L36	@,
 636              	@ core/lpc17xx_timer.c:184: 	CHECK_PARAM(PARAM_TIMx(TIMx));
 637              		.loc 1 184 0 discriminator 4
 638 002c B821     		movs	r1, #184	@,
 639 002e 1648     		ldr	r0, .L38+12	@,
 640 0030 FFF7FEFF 		bl	check_failed	@
 641              	.L36:
 642              	@ core/lpc17xx_timer.c:185: 	CHECK_PARAM(PARAM_TIM_INT_TYPE(IntFlag));
 185:core/lpc17xx_timer.c **** 	CHECK_PARAM(PARAM_TIM_INT_TYPE(IntFlag));
 643              		.loc 1 185 0 is_stmt 1
 644 0034 FB78     		ldrb	r3, [r7, #3]	@ zero_extendqisi2	@ tmp124, IntFlag
 645 0036 002B     		cmp	r3, #0	@ tmp124,
 646 0038 12D0     		beq	.L37	@,
 647              	@ core/lpc17xx_timer.c:185: 	CHECK_PARAM(PARAM_TIM_INT_TYPE(IntFlag));
 648              		.loc 1 185 0 is_stmt 0 discriminator 1
 649 003a FB78     		ldrb	r3, [r7, #3]	@ zero_extendqisi2	@ tmp125, IntFlag
 650 003c 012B     		cmp	r3, #1	@ tmp125,
 651 003e 0FD0     		beq	.L37	@,
 652              	@ core/lpc17xx_timer.c:185: 	CHECK_PARAM(PARAM_TIM_INT_TYPE(IntFlag));
 653              		.loc 1 185 0 discriminator 2
 654 0040 FB78     		ldrb	r3, [r7, #3]	@ zero_extendqisi2	@ tmp126, IntFlag
 655 0042 022B     		cmp	r3, #2	@ tmp126,
 656 0044 0CD0     		beq	.L37	@,
 657              	@ core/lpc17xx_timer.c:185: 	CHECK_PARAM(PARAM_TIM_INT_TYPE(IntFlag));
 658              		.loc 1 185 0 discriminator 3
 659 0046 FB78     		ldrb	r3, [r7, #3]	@ zero_extendqisi2	@ tmp127, IntFlag
 660 0048 032B     		cmp	r3, #3	@ tmp127,
 661 004a 09D0     		beq	.L37	@,
 662              	@ core/lpc17xx_timer.c:185: 	CHECK_PARAM(PARAM_TIM_INT_TYPE(IntFlag));
 663              		.loc 1 185 0 discriminator 4
 664 004c FB78     		ldrb	r3, [r7, #3]	@ zero_extendqisi2	@ tmp128, IntFlag
 665 004e 042B     		cmp	r3, #4	@ tmp128,
 666 0050 06D0     		beq	.L37	@,
ARM GAS  /tmp/ccKti1Oq.s 			page 16


 667              	@ core/lpc17xx_timer.c:185: 	CHECK_PARAM(PARAM_TIM_INT_TYPE(IntFlag));
 668              		.loc 1 185 0 discriminator 5
 669 0052 FB78     		ldrb	r3, [r7, #3]	@ zero_extendqisi2	@ tmp129, IntFlag
 670 0054 052B     		cmp	r3, #5	@ tmp129,
 671 0056 03D0     		beq	.L37	@,
 672              	@ core/lpc17xx_timer.c:185: 	CHECK_PARAM(PARAM_TIM_INT_TYPE(IntFlag));
 673              		.loc 1 185 0 discriminator 6
 674 0058 B921     		movs	r1, #185	@,
 675 005a 0B48     		ldr	r0, .L38+12	@,
 676 005c FFF7FEFF 		bl	check_failed	@
 677              	.L37:
 678              	@ core/lpc17xx_timer.c:186: 	TIMx->IR |= TIM_IR_CLR(IntFlag);
 186:core/lpc17xx_timer.c **** 	TIMx->IR |= TIM_IR_CLR(IntFlag);
 679              		.loc 1 186 0 is_stmt 1
 680 0060 7B68     		ldr	r3, [r7, #4]	@ tmp130, TIMx
 681 0062 1B68     		ldr	r3, [r3]	@ _1, TIMx_8(D)->IR
 682 0064 FA78     		ldrb	r2, [r7, #3]	@ zero_extendqisi2	@ _2, IntFlag
 683 0066 0121     		movs	r1, #1	@ tmp131,
 684 0068 01FA02F2 		lsl	r2, r1, r2	@ _3, tmp131, _2
 685 006c 1A43     		orrs	r2, r2, r3	@, _5, _4, _1
 686 006e 7B68     		ldr	r3, [r7, #4]	@ tmp132, TIMx
 687 0070 1A60     		str	r2, [r3]	@ _5, TIMx_8(D)->IR
 688              	@ core/lpc17xx_timer.c:187: }
 187:core/lpc17xx_timer.c **** }
 689              		.loc 1 187 0
 690 0072 00BF     		nop
 691 0074 0837     		adds	r7, r7, #8	@,,
 692              		.cfi_def_cfa_offset 8
 693 0076 BD46     		mov	sp, r7	@,
 694              		.cfi_def_cfa_register 13
 695              		@ sp needed	@
 696 0078 80BD     		pop	{r7, pc}	@
 697              	.L39:
 698 007a 00BF     		.align	2
 699              	.L38:
 700 007c 00800040 		.word	1073774592
 701 0080 00000940 		.word	1074331648
 702 0084 00400940 		.word	1074348032
 703 0088 00000000 		.word	.LC0
 704              		.cfi_endproc
 705              	.LFE60:
 706              		.size	TIM_ClearIntPending, .-TIM_ClearIntPending
 707              		.section	.text.TIM_ClearIntCapturePending,"ax",%progbits
 708              		.align	1
 709              		.global	TIM_ClearIntCapturePending
 710              		.syntax unified
 711              		.thumb
 712              		.thumb_func
 713              		.fpu softvfp
 714              		.type	TIM_ClearIntCapturePending, %function
 715              	TIM_ClearIntCapturePending:
 716              	.LFB61:
 188:core/lpc17xx_timer.c **** 
 189:core/lpc17xx_timer.c **** /*********************************************************************//**
 190:core/lpc17xx_timer.c ****  * @brief 		Clear Capture Interrupt pending
 191:core/lpc17xx_timer.c ****  * @param[in]	TIMx Timer selection, should be TIM0, TIM1, TIM2, TIM3
 192:core/lpc17xx_timer.c ****  * @param[in]	IntFlag should be in TIM_INT_TYPE enum
ARM GAS  /tmp/ccKti1Oq.s 			page 17


 193:core/lpc17xx_timer.c ****  * @return 		None
 194:core/lpc17xx_timer.c ****  **********************************************************************/
 195:core/lpc17xx_timer.c **** void TIM_ClearIntCapturePending(LPC_TIM_TypeDef *TIMx, uint8_t IntFlag)
 196:core/lpc17xx_timer.c **** {
 717              		.loc 1 196 0
 718              		.cfi_startproc
 719              		@ args = 0, pretend = 0, frame = 8
 720              		@ frame_needed = 1, uses_anonymous_args = 0
 721 0000 80B5     		push	{r7, lr}	@
 722              		.cfi_def_cfa_offset 8
 723              		.cfi_offset 7, -8
 724              		.cfi_offset 14, -4
 725 0002 82B0     		sub	sp, sp, #8	@,,
 726              		.cfi_def_cfa_offset 16
 727 0004 00AF     		add	r7, sp, #0	@,,
 728              		.cfi_def_cfa_register 7
 729 0006 7860     		str	r0, [r7, #4]	@ TIMx, TIMx
 730 0008 0B46     		mov	r3, r1	@ tmp116, IntFlag
 731 000a FB70     		strb	r3, [r7, #3]	@ tmp117, IntFlag
 732              	@ core/lpc17xx_timer.c:197: 	CHECK_PARAM(PARAM_TIMx(TIMx));
 197:core/lpc17xx_timer.c **** 	CHECK_PARAM(PARAM_TIMx(TIMx));
 733              		.loc 1 197 0
 734 000c 7B68     		ldr	r3, [r7, #4]	@ tmp118, TIMx
 735 000e B3F1402F 		cmp	r3, #1073758208	@ tmp118,
 736 0012 0FD0     		beq	.L41	@,
 737              	@ core/lpc17xx_timer.c:197: 	CHECK_PARAM(PARAM_TIMx(TIMx));
 738              		.loc 1 197 0 is_stmt 0 discriminator 1
 739 0014 7B68     		ldr	r3, [r7, #4]	@ tmp119, TIMx
 740 0016 194A     		ldr	r2, .L43	@ tmp120,
 741 0018 9342     		cmp	r3, r2	@ tmp119, tmp120
 742 001a 0BD0     		beq	.L41	@,
 743              	@ core/lpc17xx_timer.c:197: 	CHECK_PARAM(PARAM_TIMx(TIMx));
 744              		.loc 1 197 0 discriminator 2
 745 001c 7B68     		ldr	r3, [r7, #4]	@ tmp121, TIMx
 746 001e 184A     		ldr	r2, .L43+4	@ tmp122,
 747 0020 9342     		cmp	r3, r2	@ tmp121, tmp122
 748 0022 07D0     		beq	.L41	@,
 749              	@ core/lpc17xx_timer.c:197: 	CHECK_PARAM(PARAM_TIMx(TIMx));
 750              		.loc 1 197 0 discriminator 3
 751 0024 7B68     		ldr	r3, [r7, #4]	@ tmp123, TIMx
 752 0026 174A     		ldr	r2, .L43+8	@ tmp124,
 753 0028 9342     		cmp	r3, r2	@ tmp123, tmp124
 754 002a 03D0     		beq	.L41	@,
 755              	@ core/lpc17xx_timer.c:197: 	CHECK_PARAM(PARAM_TIMx(TIMx));
 756              		.loc 1 197 0 discriminator 4
 757 002c C521     		movs	r1, #197	@,
 758 002e 1648     		ldr	r0, .L43+12	@,
 759 0030 FFF7FEFF 		bl	check_failed	@
 760              	.L41:
 761              	@ core/lpc17xx_timer.c:198: 	CHECK_PARAM(PARAM_TIM_INT_TYPE(IntFlag));
 198:core/lpc17xx_timer.c **** 	CHECK_PARAM(PARAM_TIM_INT_TYPE(IntFlag));
 762              		.loc 1 198 0 is_stmt 1
 763 0034 FB78     		ldrb	r3, [r7, #3]	@ zero_extendqisi2	@ tmp125, IntFlag
 764 0036 002B     		cmp	r3, #0	@ tmp125,
 765 0038 12D0     		beq	.L42	@,
 766              	@ core/lpc17xx_timer.c:198: 	CHECK_PARAM(PARAM_TIM_INT_TYPE(IntFlag));
 767              		.loc 1 198 0 is_stmt 0 discriminator 1
ARM GAS  /tmp/ccKti1Oq.s 			page 18


 768 003a FB78     		ldrb	r3, [r7, #3]	@ zero_extendqisi2	@ tmp126, IntFlag
 769 003c 012B     		cmp	r3, #1	@ tmp126,
 770 003e 0FD0     		beq	.L42	@,
 771              	@ core/lpc17xx_timer.c:198: 	CHECK_PARAM(PARAM_TIM_INT_TYPE(IntFlag));
 772              		.loc 1 198 0 discriminator 2
 773 0040 FB78     		ldrb	r3, [r7, #3]	@ zero_extendqisi2	@ tmp127, IntFlag
 774 0042 022B     		cmp	r3, #2	@ tmp127,
 775 0044 0CD0     		beq	.L42	@,
 776              	@ core/lpc17xx_timer.c:198: 	CHECK_PARAM(PARAM_TIM_INT_TYPE(IntFlag));
 777              		.loc 1 198 0 discriminator 3
 778 0046 FB78     		ldrb	r3, [r7, #3]	@ zero_extendqisi2	@ tmp128, IntFlag
 779 0048 032B     		cmp	r3, #3	@ tmp128,
 780 004a 09D0     		beq	.L42	@,
 781              	@ core/lpc17xx_timer.c:198: 	CHECK_PARAM(PARAM_TIM_INT_TYPE(IntFlag));
 782              		.loc 1 198 0 discriminator 4
 783 004c FB78     		ldrb	r3, [r7, #3]	@ zero_extendqisi2	@ tmp129, IntFlag
 784 004e 042B     		cmp	r3, #4	@ tmp129,
 785 0050 06D0     		beq	.L42	@,
 786              	@ core/lpc17xx_timer.c:198: 	CHECK_PARAM(PARAM_TIM_INT_TYPE(IntFlag));
 787              		.loc 1 198 0 discriminator 5
 788 0052 FB78     		ldrb	r3, [r7, #3]	@ zero_extendqisi2	@ tmp130, IntFlag
 789 0054 052B     		cmp	r3, #5	@ tmp130,
 790 0056 03D0     		beq	.L42	@,
 791              	@ core/lpc17xx_timer.c:198: 	CHECK_PARAM(PARAM_TIM_INT_TYPE(IntFlag));
 792              		.loc 1 198 0 discriminator 6
 793 0058 C621     		movs	r1, #198	@,
 794 005a 0B48     		ldr	r0, .L43+12	@,
 795 005c FFF7FEFF 		bl	check_failed	@
 796              	.L42:
 797              	@ core/lpc17xx_timer.c:199: 	TIMx->IR |= (1<<(4+IntFlag));
 199:core/lpc17xx_timer.c **** 	TIMx->IR |= (1<<(4+IntFlag));
 798              		.loc 1 199 0 is_stmt 1
 799 0060 7B68     		ldr	r3, [r7, #4]	@ tmp131, TIMx
 800 0062 1B68     		ldr	r3, [r3]	@ _1, TIMx_9(D)->IR
 801 0064 FA78     		ldrb	r2, [r7, #3]	@ zero_extendqisi2	@ _2, IntFlag
 802 0066 0432     		adds	r2, r2, #4	@ _3, _2,
 803 0068 0121     		movs	r1, #1	@ tmp132,
 804 006a 01FA02F2 		lsl	r2, r1, r2	@ _4, tmp132, _3
 805 006e 1A43     		orrs	r2, r2, r3	@, _6, _5, _1
 806 0070 7B68     		ldr	r3, [r7, #4]	@ tmp133, TIMx
 807 0072 1A60     		str	r2, [r3]	@ _6, TIMx_9(D)->IR
 808              	@ core/lpc17xx_timer.c:200: }
 200:core/lpc17xx_timer.c **** }
 809              		.loc 1 200 0
 810 0074 00BF     		nop
 811 0076 0837     		adds	r7, r7, #8	@,,
 812              		.cfi_def_cfa_offset 8
 813 0078 BD46     		mov	sp, r7	@,
 814              		.cfi_def_cfa_register 13
 815              		@ sp needed	@
 816 007a 80BD     		pop	{r7, pc}	@
 817              	.L44:
 818              		.align	2
 819              	.L43:
 820 007c 00800040 		.word	1073774592
 821 0080 00000940 		.word	1074331648
 822 0084 00400940 		.word	1074348032
ARM GAS  /tmp/ccKti1Oq.s 			page 19


 823 0088 00000000 		.word	.LC0
 824              		.cfi_endproc
 825              	.LFE61:
 826              		.size	TIM_ClearIntCapturePending, .-TIM_ClearIntCapturePending
 827              		.section	.text.TIM_ConfigStructInit,"ax",%progbits
 828              		.align	1
 829              		.global	TIM_ConfigStructInit
 830              		.syntax unified
 831              		.thumb
 832              		.thumb_func
 833              		.fpu softvfp
 834              		.type	TIM_ConfigStructInit, %function
 835              	TIM_ConfigStructInit:
 836              	.LFB62:
 201:core/lpc17xx_timer.c **** 
 202:core/lpc17xx_timer.c **** /*********************************************************************//**
 203:core/lpc17xx_timer.c **** * @brief 		Configuration for Timer at initial time
 204:core/lpc17xx_timer.c **** * @param[in] 	TimerCounterMode Should be :
 205:core/lpc17xx_timer.c **** * 					- PrescaleOption = TC_PRESCALE_USVAL,
 206:core/lpc17xx_timer.c **** * 					- PrescaleValue = 1
 207:core/lpc17xx_timer.c **** * 				Counter mode with
 208:core/lpc17xx_timer.c **** * 					- Caption channel 0
 209:core/lpc17xx_timer.c **** * @param[in] 	TIM_ConfigStruct pointer to TIM_TIMERCFG_Type or
 210:core/lpc17xx_timer.c **** * 				TIM_COUNTERCFG_Type
 211:core/lpc17xx_timer.c **** * @return 		None
 212:core/lpc17xx_timer.c ****  **********************************************************************/
 213:core/lpc17xx_timer.c **** void TIM_ConfigStructInit(uint8_t TimerCounterMode, void *TIM_ConfigStruct)
 214:core/lpc17xx_timer.c **** {
 837              		.loc 1 214 0
 838              		.cfi_startproc
 839              		@ args = 0, pretend = 0, frame = 16
 840              		@ frame_needed = 1, uses_anonymous_args = 0
 841              		@ link register save eliminated.
 842 0000 80B4     		push	{r7}	@
 843              		.cfi_def_cfa_offset 4
 844              		.cfi_offset 7, -4
 845 0002 85B0     		sub	sp, sp, #20	@,,
 846              		.cfi_def_cfa_offset 24
 847 0004 00AF     		add	r7, sp, #0	@,,
 848              		.cfi_def_cfa_register 7
 849 0006 0346     		mov	r3, r0	@ tmp110, TimerCounterMode
 850 0008 3960     		str	r1, [r7]	@ TIM_ConfigStruct, TIM_ConfigStruct
 851 000a FB71     		strb	r3, [r7, #7]	@ tmp111, TimerCounterMode
 852              	@ core/lpc17xx_timer.c:215: 	if (TimerCounterMode == TIM_TIMER_MODE )
 215:core/lpc17xx_timer.c **** 	if (TimerCounterMode == TIM_TIMER_MODE )
 853              		.loc 1 215 0
 854 000c FB79     		ldrb	r3, [r7, #7]	@ zero_extendqisi2	@ tmp112, TimerCounterMode
 855 000e 002B     		cmp	r3, #0	@ tmp112,
 856 0010 08D1     		bne	.L46	@,
 857              	.LBB2:
 858              	@ core/lpc17xx_timer.c:217: 		TIM_TIMERCFG_Type * pTimeCfg = (TIM_TIMERCFG_Type *)TIM_ConfigStruct;
 216:core/lpc17xx_timer.c **** 	{
 217:core/lpc17xx_timer.c **** 		TIM_TIMERCFG_Type * pTimeCfg = (TIM_TIMERCFG_Type *)TIM_ConfigStruct;
 859              		.loc 1 217 0
 860 0012 3B68     		ldr	r3, [r7]	@ tmp113, TIM_ConfigStruct
 861 0014 BB60     		str	r3, [r7, #8]	@ tmp113, pTimeCfg
 862              	@ core/lpc17xx_timer.c:218: 		pTimeCfg->PrescaleOption = TIM_PRESCALE_USVAL;
ARM GAS  /tmp/ccKti1Oq.s 			page 20


 218:core/lpc17xx_timer.c **** 		pTimeCfg->PrescaleOption = TIM_PRESCALE_USVAL;
 863              		.loc 1 218 0
 864 0016 BB68     		ldr	r3, [r7, #8]	@ tmp114, pTimeCfg
 865 0018 0122     		movs	r2, #1	@ tmp115,
 866 001a 1A70     		strb	r2, [r3]	@ tmp116, pTimeCfg_7->PrescaleOption
 867              	@ core/lpc17xx_timer.c:219: 		pTimeCfg->PrescaleValue = 1;
 219:core/lpc17xx_timer.c **** 		pTimeCfg->PrescaleValue = 1;
 868              		.loc 1 219 0
 869 001c BB68     		ldr	r3, [r7, #8]	@ tmp117, pTimeCfg
 870 001e 0122     		movs	r2, #1	@ tmp118,
 871 0020 5A60     		str	r2, [r3, #4]	@ tmp118, pTimeCfg_7->PrescaleValue
 872              	.LBE2:
 873              	@ core/lpc17xx_timer.c:227: }
 220:core/lpc17xx_timer.c **** 	}
 221:core/lpc17xx_timer.c **** 	else
 222:core/lpc17xx_timer.c **** 	{
 223:core/lpc17xx_timer.c **** 		TIM_COUNTERCFG_Type * pCounterCfg = (TIM_COUNTERCFG_Type *)TIM_ConfigStruct;
 224:core/lpc17xx_timer.c **** 		pCounterCfg->CountInputSelect = TIM_COUNTER_INCAP0;
 225:core/lpc17xx_timer.c **** 
 226:core/lpc17xx_timer.c **** 	}
 227:core/lpc17xx_timer.c **** }
 874              		.loc 1 227 0
 875 0022 04E0     		b	.L48	@
 876              	.L46:
 877              	.LBB3:
 878              	@ core/lpc17xx_timer.c:223: 		TIM_COUNTERCFG_Type * pCounterCfg = (TIM_COUNTERCFG_Type *)TIM_Config
 223:core/lpc17xx_timer.c **** 		pCounterCfg->CountInputSelect = TIM_COUNTER_INCAP0;
 879              		.loc 1 223 0
 880 0024 3B68     		ldr	r3, [r7]	@ tmp119, TIM_ConfigStruct
 881 0026 FB60     		str	r3, [r7, #12]	@ tmp119, pCounterCfg
 882              	@ core/lpc17xx_timer.c:224: 		pCounterCfg->CountInputSelect = TIM_COUNTER_INCAP0;
 224:core/lpc17xx_timer.c **** 
 883              		.loc 1 224 0
 884 0028 FB68     		ldr	r3, [r7, #12]	@ tmp120, pCounterCfg
 885 002a 0022     		movs	r2, #0	@ tmp121,
 886 002c 5A70     		strb	r2, [r3, #1]	@ tmp122, pCounterCfg_4->CountInputSelect
 887              	.L48:
 888              	.LBE3:
 889              	@ core/lpc17xx_timer.c:227: }
 890              		.loc 1 227 0
 891 002e 00BF     		nop
 892 0030 1437     		adds	r7, r7, #20	@,,
 893              		.cfi_def_cfa_offset 4
 894 0032 BD46     		mov	sp, r7	@,
 895              		.cfi_def_cfa_register 13
 896              		@ sp needed	@
 897 0034 80BC     		pop	{r7}	@
 898              		.cfi_restore 7
 899              		.cfi_def_cfa_offset 0
 900 0036 7047     		bx	lr	@
 901              		.cfi_endproc
 902              	.LFE62:
 903              		.size	TIM_ConfigStructInit, .-TIM_ConfigStructInit
 904              		.section	.text.TIM_Init,"ax",%progbits
 905              		.align	1
 906              		.global	TIM_Init
 907              		.syntax unified
ARM GAS  /tmp/ccKti1Oq.s 			page 21


 908              		.thumb
 909              		.thumb_func
 910              		.fpu softvfp
 911              		.type	TIM_Init, %function
 912              	TIM_Init:
 913              	.LFB63:
 228:core/lpc17xx_timer.c **** 
 229:core/lpc17xx_timer.c **** /*********************************************************************//**
 230:core/lpc17xx_timer.c ****  * @brief 		Initial Timer/Counter device
 231:core/lpc17xx_timer.c ****  * 				 	Set Clock frequency for Timer
 232:core/lpc17xx_timer.c ****  * 					Set initial configuration for Timer
 233:core/lpc17xx_timer.c ****  * @param[in]	TIMx  Timer selection, should be TIM0, TIM1, TIM2, TIM3
 234:core/lpc17xx_timer.c ****  * @param[in]	TimerCounterMode TIM_MODE_OPT
 235:core/lpc17xx_timer.c ****  * @param[in]	TIM_ConfigStruct pointer to TIM_TIMERCFG_Type
 236:core/lpc17xx_timer.c ****  * 				that contains the configuration information for the
 237:core/lpc17xx_timer.c ****  *                    specified Timer peripheral.
 238:core/lpc17xx_timer.c ****  * @return 		None
 239:core/lpc17xx_timer.c ****  **********************************************************************/
 240:core/lpc17xx_timer.c **** void TIM_Init(LPC_TIM_TypeDef *TIMx, uint8_t TimerCounterMode, void *TIM_ConfigStruct)
 241:core/lpc17xx_timer.c **** {
 914              		.loc 1 241 0
 915              		.cfi_startproc
 916              		@ args = 0, pretend = 0, frame = 32
 917              		@ frame_needed = 1, uses_anonymous_args = 0
 918 0000 80B5     		push	{r7, lr}	@
 919              		.cfi_def_cfa_offset 8
 920              		.cfi_offset 7, -8
 921              		.cfi_offset 14, -4
 922 0002 88B0     		sub	sp, sp, #32	@,,
 923              		.cfi_def_cfa_offset 40
 924 0004 00AF     		add	r7, sp, #0	@,,
 925              		.cfi_def_cfa_register 7
 926 0006 F860     		str	r0, [r7, #12]	@ TIMx, TIMx
 927 0008 0B46     		mov	r3, r1	@ tmp125, TimerCounterMode
 928 000a 7A60     		str	r2, [r7, #4]	@ TIM_ConfigStruct, TIM_ConfigStruct
 929 000c FB72     		strb	r3, [r7, #11]	@ tmp126, TimerCounterMode
 930              	@ core/lpc17xx_timer.c:246: 	CHECK_PARAM(PARAM_TIMx(TIMx));
 242:core/lpc17xx_timer.c **** 	TIM_TIMERCFG_Type *pTimeCfg;
 243:core/lpc17xx_timer.c **** 	TIM_COUNTERCFG_Type *pCounterCfg;
 244:core/lpc17xx_timer.c **** 	uint32_t timer;
 245:core/lpc17xx_timer.c **** 
 246:core/lpc17xx_timer.c **** 	CHECK_PARAM(PARAM_TIMx(TIMx));
 931              		.loc 1 246 0
 932 000e FB68     		ldr	r3, [r7, #12]	@ tmp127, TIMx
 933 0010 B3F1402F 		cmp	r3, #1073758208	@ tmp127,
 934 0014 0FD0     		beq	.L50	@,
 935              	@ core/lpc17xx_timer.c:246: 	CHECK_PARAM(PARAM_TIMx(TIMx));
 936              		.loc 1 246 0 is_stmt 0 discriminator 1
 937 0016 FB68     		ldr	r3, [r7, #12]	@ tmp128, TIMx
 938 0018 514A     		ldr	r2, .L60	@ tmp129,
 939 001a 9342     		cmp	r3, r2	@ tmp128, tmp129
 940 001c 0BD0     		beq	.L50	@,
 941              	@ core/lpc17xx_timer.c:246: 	CHECK_PARAM(PARAM_TIMx(TIMx));
 942              		.loc 1 246 0 discriminator 2
 943 001e FB68     		ldr	r3, [r7, #12]	@ tmp130, TIMx
 944 0020 504A     		ldr	r2, .L60+4	@ tmp131,
 945 0022 9342     		cmp	r3, r2	@ tmp130, tmp131
ARM GAS  /tmp/ccKti1Oq.s 			page 22


 946 0024 07D0     		beq	.L50	@,
 947              	@ core/lpc17xx_timer.c:246: 	CHECK_PARAM(PARAM_TIMx(TIMx));
 948              		.loc 1 246 0 discriminator 3
 949 0026 FB68     		ldr	r3, [r7, #12]	@ tmp132, TIMx
 950 0028 4F4A     		ldr	r2, .L60+8	@ tmp133,
 951 002a 9342     		cmp	r3, r2	@ tmp132, tmp133
 952 002c 03D0     		beq	.L50	@,
 953              	@ core/lpc17xx_timer.c:246: 	CHECK_PARAM(PARAM_TIMx(TIMx));
 954              		.loc 1 246 0 discriminator 4
 955 002e F621     		movs	r1, #246	@,
 956 0030 4E48     		ldr	r0, .L60+12	@,
 957 0032 FFF7FEFF 		bl	check_failed	@
 958              	.L50:
 959              	@ core/lpc17xx_timer.c:247: 	CHECK_PARAM(PARAM_TIM_MODE_OPT(TimerCounterMode));
 247:core/lpc17xx_timer.c **** 	CHECK_PARAM(PARAM_TIM_MODE_OPT(TimerCounterMode));
 960              		.loc 1 247 0 is_stmt 1
 961 0036 FB7A     		ldrb	r3, [r7, #11]	@ zero_extendqisi2	@ tmp134, TimerCounterMode
 962 0038 002B     		cmp	r3, #0	@ tmp134,
 963 003a 0CD0     		beq	.L51	@,
 964              	@ core/lpc17xx_timer.c:247: 	CHECK_PARAM(PARAM_TIM_MODE_OPT(TimerCounterMode));
 965              		.loc 1 247 0 is_stmt 0 discriminator 1
 966 003c FB7A     		ldrb	r3, [r7, #11]	@ zero_extendqisi2	@ tmp135, TimerCounterMode
 967 003e 012B     		cmp	r3, #1	@ tmp135,
 968 0040 09D0     		beq	.L51	@,
 969              	@ core/lpc17xx_timer.c:247: 	CHECK_PARAM(PARAM_TIM_MODE_OPT(TimerCounterMode));
 970              		.loc 1 247 0 discriminator 2
 971 0042 FB7A     		ldrb	r3, [r7, #11]	@ zero_extendqisi2	@ tmp136, TimerCounterMode
 972 0044 012B     		cmp	r3, #1	@ tmp136,
 973 0046 06D0     		beq	.L51	@,
 974              	@ core/lpc17xx_timer.c:247: 	CHECK_PARAM(PARAM_TIM_MODE_OPT(TimerCounterMode));
 975              		.loc 1 247 0 discriminator 3
 976 0048 FB7A     		ldrb	r3, [r7, #11]	@ zero_extendqisi2	@ tmp137, TimerCounterMode
 977 004a 012B     		cmp	r3, #1	@ tmp137,
 978 004c 03D0     		beq	.L51	@,
 979              	@ core/lpc17xx_timer.c:247: 	CHECK_PARAM(PARAM_TIM_MODE_OPT(TimerCounterMode));
 980              		.loc 1 247 0 discriminator 4
 981 004e F721     		movs	r1, #247	@,
 982 0050 4648     		ldr	r0, .L60+12	@,
 983 0052 FFF7FEFF 		bl	check_failed	@
 984              	.L51:
 985              	@ core/lpc17xx_timer.c:249: 	timer = TIM_ConverPtrToTimeNum(TIMx) ;
 248:core/lpc17xx_timer.c **** 
 249:core/lpc17xx_timer.c **** 	timer = TIM_ConverPtrToTimeNum(TIMx) ;
 986              		.loc 1 249 0 is_stmt 1
 987 0056 F868     		ldr	r0, [r7, #12]	@, TIMx
 988 0058 FFF7FEFF 		bl	TIM_ConverPtrToTimeNum	@
 989 005c F861     		str	r0, [r7, #28]	@, timer
 990              	@ core/lpc17xx_timer.c:251: 	if (TIMx== LPC_TIM0)
 250:core/lpc17xx_timer.c **** 	//set power
 251:core/lpc17xx_timer.c **** 	if (TIMx== LPC_TIM0)
 991              		.loc 1 251 0
 992 005e FB68     		ldr	r3, [r7, #12]	@ tmp138, TIMx
 993 0060 B3F1402F 		cmp	r3, #1073758208	@ tmp138,
 994 0064 08D1     		bne	.L52	@,
 995              	@ core/lpc17xx_timer.c:253: 		CLKPWR_ConfigPPWR (CLKPWR_PCONP_PCTIM0, ENABLE);
 252:core/lpc17xx_timer.c **** 	{
 253:core/lpc17xx_timer.c **** 		CLKPWR_ConfigPPWR (CLKPWR_PCONP_PCTIM0, ENABLE);
ARM GAS  /tmp/ccKti1Oq.s 			page 23


 996              		.loc 1 253 0
 997 0066 0121     		movs	r1, #1	@,
 998 0068 0220     		movs	r0, #2	@,
 999 006a FFF7FEFF 		bl	CLKPWR_ConfigPPWR	@
 1000              	@ core/lpc17xx_timer.c:254: 		CLKPWR_SetPCLKDiv (CLKPWR_PCLKSEL_TIMER0, CLKPWR_PCLKSEL_CCLK_DIV_4);
 254:core/lpc17xx_timer.c **** 		CLKPWR_SetPCLKDiv (CLKPWR_PCLKSEL_TIMER0, CLKPWR_PCLKSEL_CCLK_DIV_4);
 1001              		.loc 1 254 0
 1002 006e 0021     		movs	r1, #0	@,
 1003 0070 0220     		movs	r0, #2	@,
 1004 0072 FFF7FEFF 		bl	CLKPWR_SetPCLKDiv	@
 1005 0076 27E0     		b	.L53	@
 1006              	.L52:
 1007              	@ core/lpc17xx_timer.c:256: 	else if (TIMx== LPC_TIM1)
 255:core/lpc17xx_timer.c **** 	}
 256:core/lpc17xx_timer.c **** 	else if (TIMx== LPC_TIM1)
 1008              		.loc 1 256 0
 1009 0078 FB68     		ldr	r3, [r7, #12]	@ tmp139, TIMx
 1010 007a 394A     		ldr	r2, .L60	@ tmp140,
 1011 007c 9342     		cmp	r3, r2	@ tmp139, tmp140
 1012 007e 08D1     		bne	.L54	@,
 1013              	@ core/lpc17xx_timer.c:258: 		CLKPWR_ConfigPPWR (CLKPWR_PCONP_PCTIM1, ENABLE);
 257:core/lpc17xx_timer.c **** 	{
 258:core/lpc17xx_timer.c **** 		CLKPWR_ConfigPPWR (CLKPWR_PCONP_PCTIM1, ENABLE);
 1014              		.loc 1 258 0
 1015 0080 0121     		movs	r1, #1	@,
 1016 0082 0420     		movs	r0, #4	@,
 1017 0084 FFF7FEFF 		bl	CLKPWR_ConfigPPWR	@
 1018              	@ core/lpc17xx_timer.c:259: 		CLKPWR_SetPCLKDiv (CLKPWR_PCLKSEL_TIMER1, CLKPWR_PCLKSEL_CCLK_DIV_4);
 259:core/lpc17xx_timer.c **** 		CLKPWR_SetPCLKDiv (CLKPWR_PCLKSEL_TIMER1, CLKPWR_PCLKSEL_CCLK_DIV_4);
 1019              		.loc 1 259 0
 1020 0088 0021     		movs	r1, #0	@,
 1021 008a 0420     		movs	r0, #4	@,
 1022 008c FFF7FEFF 		bl	CLKPWR_SetPCLKDiv	@
 1023 0090 1AE0     		b	.L53	@
 1024              	.L54:
 1025              	@ core/lpc17xx_timer.c:263: 	else if (TIMx== LPC_TIM2)
 260:core/lpc17xx_timer.c **** 
 261:core/lpc17xx_timer.c **** 	}
 262:core/lpc17xx_timer.c **** 
 263:core/lpc17xx_timer.c **** 	else if (TIMx== LPC_TIM2)
 1026              		.loc 1 263 0
 1027 0092 FB68     		ldr	r3, [r7, #12]	@ tmp141, TIMx
 1028 0094 334A     		ldr	r2, .L60+4	@ tmp142,
 1029 0096 9342     		cmp	r3, r2	@ tmp141, tmp142
 1030 0098 09D1     		bne	.L55	@,
 1031              	@ core/lpc17xx_timer.c:265: 		CLKPWR_ConfigPPWR (CLKPWR_PCONP_PCTIM2, ENABLE);
 264:core/lpc17xx_timer.c **** 	{
 265:core/lpc17xx_timer.c **** 		CLKPWR_ConfigPPWR (CLKPWR_PCONP_PCTIM2, ENABLE);
 1032              		.loc 1 265 0
 1033 009a 0121     		movs	r1, #1	@,
 1034 009c 4FF48000 		mov	r0, #4194304	@,
 1035 00a0 FFF7FEFF 		bl	CLKPWR_ConfigPPWR	@
 1036              	@ core/lpc17xx_timer.c:266: 		CLKPWR_SetPCLKDiv (CLKPWR_PCLKSEL_TIMER2, CLKPWR_PCLKSEL_CCLK_DIV_4);
 266:core/lpc17xx_timer.c **** 		CLKPWR_SetPCLKDiv (CLKPWR_PCLKSEL_TIMER2, CLKPWR_PCLKSEL_CCLK_DIV_4);
 1037              		.loc 1 266 0
 1038 00a4 0021     		movs	r1, #0	@,
 1039 00a6 2C20     		movs	r0, #44	@,
ARM GAS  /tmp/ccKti1Oq.s 			page 24


 1040 00a8 FFF7FEFF 		bl	CLKPWR_SetPCLKDiv	@
 1041 00ac 0CE0     		b	.L53	@
 1042              	.L55:
 1043              	@ core/lpc17xx_timer.c:268: 	else if (TIMx== LPC_TIM3)
 267:core/lpc17xx_timer.c **** 	}
 268:core/lpc17xx_timer.c **** 	else if (TIMx== LPC_TIM3)
 1044              		.loc 1 268 0
 1045 00ae FB68     		ldr	r3, [r7, #12]	@ tmp143, TIMx
 1046 00b0 2D4A     		ldr	r2, .L60+8	@ tmp144,
 1047 00b2 9342     		cmp	r3, r2	@ tmp143, tmp144
 1048 00b4 08D1     		bne	.L53	@,
 1049              	@ core/lpc17xx_timer.c:270: 		CLKPWR_ConfigPPWR (CLKPWR_PCONP_PCTIM3, ENABLE);
 269:core/lpc17xx_timer.c **** 	{
 270:core/lpc17xx_timer.c **** 		CLKPWR_ConfigPPWR (CLKPWR_PCONP_PCTIM3, ENABLE);
 1050              		.loc 1 270 0
 1051 00b6 0121     		movs	r1, #1	@,
 1052 00b8 4FF40000 		mov	r0, #8388608	@,
 1053 00bc FFF7FEFF 		bl	CLKPWR_ConfigPPWR	@
 1054              	@ core/lpc17xx_timer.c:271: 		CLKPWR_SetPCLKDiv (CLKPWR_PCLKSEL_TIMER3, CLKPWR_PCLKSEL_CCLK_DIV_4);
 271:core/lpc17xx_timer.c **** 		CLKPWR_SetPCLKDiv (CLKPWR_PCLKSEL_TIMER3, CLKPWR_PCLKSEL_CCLK_DIV_4);
 1055              		.loc 1 271 0
 1056 00c0 0021     		movs	r1, #0	@,
 1057 00c2 2E20     		movs	r0, #46	@,
 1058 00c4 FFF7FEFF 		bl	CLKPWR_SetPCLKDiv	@
 1059              	.L53:
 1060              	@ core/lpc17xx_timer.c:275: 	TIMx->CCR &= ~TIM_CTCR_MODE_MASK;
 272:core/lpc17xx_timer.c **** 
 273:core/lpc17xx_timer.c **** 	}
 274:core/lpc17xx_timer.c **** 
 275:core/lpc17xx_timer.c **** 	TIMx->CCR &= ~TIM_CTCR_MODE_MASK;
 1061              		.loc 1 275 0
 1062 00c8 FB68     		ldr	r3, [r7, #12]	@ tmp145, TIMx
 1063 00ca 9B6A     		ldr	r3, [r3, #40]	@ _1, TIMx_21(D)->CCR
 1064 00cc 23F00302 		bic	r2, r3, #3	@ _2, _1,
 1065 00d0 FB68     		ldr	r3, [r7, #12]	@ tmp146, TIMx
 1066 00d2 9A62     		str	r2, [r3, #40]	@ _2, TIMx_21(D)->CCR
 1067              	@ core/lpc17xx_timer.c:276: 	TIMx->CCR |= TIM_TIMER_MODE;
 276:core/lpc17xx_timer.c **** 	TIMx->CCR |= TIM_TIMER_MODE;
 1068              		.loc 1 276 0
 1069 00d4 FB68     		ldr	r3, [r7, #12]	@ tmp147, TIMx
 1070 00d6 9A6A     		ldr	r2, [r3, #40]	@ _3, TIMx_21(D)->CCR
 1071 00d8 FB68     		ldr	r3, [r7, #12]	@ tmp148, TIMx
 1072 00da 9A62     		str	r2, [r3, #40]	@ _3, TIMx_21(D)->CCR
 1073              	@ core/lpc17xx_timer.c:278: 	TIMx->TC =0;
 277:core/lpc17xx_timer.c **** 
 278:core/lpc17xx_timer.c **** 	TIMx->TC =0;
 1074              		.loc 1 278 0
 1075 00dc FB68     		ldr	r3, [r7, #12]	@ tmp149, TIMx
 1076 00de 0022     		movs	r2, #0	@ tmp150,
 1077 00e0 9A60     		str	r2, [r3, #8]	@ tmp150, TIMx_21(D)->TC
 1078              	@ core/lpc17xx_timer.c:279: 	TIMx->PC =0;
 279:core/lpc17xx_timer.c **** 	TIMx->PC =0;
 1079              		.loc 1 279 0
 1080 00e2 FB68     		ldr	r3, [r7, #12]	@ tmp151, TIMx
 1081 00e4 0022     		movs	r2, #0	@ tmp152,
 1082 00e6 1A61     		str	r2, [r3, #16]	@ tmp152, TIMx_21(D)->PC
 1083              	@ core/lpc17xx_timer.c:280: 	TIMx->PR =0;
ARM GAS  /tmp/ccKti1Oq.s 			page 25


 280:core/lpc17xx_timer.c **** 	TIMx->PR =0;
 1084              		.loc 1 280 0
 1085 00e8 FB68     		ldr	r3, [r7, #12]	@ tmp153, TIMx
 1086 00ea 0022     		movs	r2, #0	@ tmp154,
 1087 00ec DA60     		str	r2, [r3, #12]	@ tmp154, TIMx_21(D)->PR
 1088              	@ core/lpc17xx_timer.c:281: 	if (TimerCounterMode == TIM_TIMER_MODE )
 281:core/lpc17xx_timer.c **** 	if (TimerCounterMode == TIM_TIMER_MODE )
 1089              		.loc 1 281 0
 1090 00ee FB7A     		ldrb	r3, [r7, #11]	@ zero_extendqisi2	@ tmp155, TimerCounterMode
 1091 00f0 002B     		cmp	r3, #0	@ tmp155,
 1092 00f2 1AD1     		bne	.L56	@,
 1093              	@ core/lpc17xx_timer.c:283: 		pTimeCfg = (TIM_TIMERCFG_Type *)TIM_ConfigStruct;
 282:core/lpc17xx_timer.c **** 	{
 283:core/lpc17xx_timer.c **** 		pTimeCfg = (TIM_TIMERCFG_Type *)TIM_ConfigStruct;
 1094              		.loc 1 283 0
 1095 00f4 7B68     		ldr	r3, [r7, #4]	@ tmp156, TIM_ConfigStruct
 1096 00f6 7B61     		str	r3, [r7, #20]	@ tmp156, pTimeCfg
 1097              	@ core/lpc17xx_timer.c:284: 		if (pTimeCfg->PrescaleOption  == TIM_PRESCALE_TICKVAL)
 284:core/lpc17xx_timer.c **** 		if (pTimeCfg->PrescaleOption  == TIM_PRESCALE_TICKVAL)
 1098              		.loc 1 284 0
 1099 00f8 7B69     		ldr	r3, [r7, #20]	@ tmp157, pTimeCfg
 1100 00fa 1B78     		ldrb	r3, [r3]	@ zero_extendqisi2	@ _4, pTimeCfg_45->PrescaleOption
 1101 00fc 002B     		cmp	r3, #0	@ _4,
 1102 00fe 05D1     		bne	.L57	@,
 1103              	@ core/lpc17xx_timer.c:286: 			TIMx->PR   = pTimeCfg->PrescaleValue -1  ;
 285:core/lpc17xx_timer.c **** 		{
 286:core/lpc17xx_timer.c **** 			TIMx->PR   = pTimeCfg->PrescaleValue -1  ;
 1104              		.loc 1 286 0
 1105 0100 7B69     		ldr	r3, [r7, #20]	@ tmp158, pTimeCfg
 1106 0102 5B68     		ldr	r3, [r3, #4]	@ _5, pTimeCfg_45->PrescaleValue
 1107 0104 5A1E     		subs	r2, r3, #1	@ _6, _5,
 1108 0106 FB68     		ldr	r3, [r7, #12]	@ tmp159, TIMx
 1109 0108 DA60     		str	r2, [r3, #12]	@ _6, TIMx_21(D)->PR
 1110 010a 20E0     		b	.L59	@
 1111              	.L57:
 1112              	@ core/lpc17xx_timer.c:290: 			TIMx->PR   = TIM_ConverUSecToVal (TIM_ConverPtrToTimeNum(TIMx),pTime
 287:core/lpc17xx_timer.c **** 		}
 288:core/lpc17xx_timer.c **** 		else
 289:core/lpc17xx_timer.c **** 		{
 290:core/lpc17xx_timer.c **** 			TIMx->PR   = TIM_ConverUSecToVal (TIM_ConverPtrToTimeNum(TIMx),pTimeCfg->PrescaleValue)-1;
 1113              		.loc 1 290 0
 1114 010c F868     		ldr	r0, [r7, #12]	@, TIMx
 1115 010e FFF7FEFF 		bl	TIM_ConverPtrToTimeNum	@
 1116 0112 0246     		mov	r2, r0	@ _7,
 1117 0114 7B69     		ldr	r3, [r7, #20]	@ tmp160, pTimeCfg
 1118 0116 5B68     		ldr	r3, [r3, #4]	@ _8, pTimeCfg_45->PrescaleValue
 1119 0118 1946     		mov	r1, r3	@, _8
 1120 011a 1046     		mov	r0, r2	@, _7
 1121 011c FFF7FEFF 		bl	TIM_ConverUSecToVal	@
 1122 0120 0346     		mov	r3, r0	@ _9,
 1123 0122 5A1E     		subs	r2, r3, #1	@ _10, _9,
 1124 0124 FB68     		ldr	r3, [r7, #12]	@ tmp161, TIMx
 1125 0126 DA60     		str	r2, [r3, #12]	@ _10, TIMx_21(D)->PR
 1126 0128 11E0     		b	.L59	@
 1127              	.L56:
 1128              	@ core/lpc17xx_timer.c:296: 		pCounterCfg = (TIM_COUNTERCFG_Type *)TIM_ConfigStruct;
 291:core/lpc17xx_timer.c **** 		}
ARM GAS  /tmp/ccKti1Oq.s 			page 26


 292:core/lpc17xx_timer.c **** 	}
 293:core/lpc17xx_timer.c **** 	else
 294:core/lpc17xx_timer.c **** 	{
 295:core/lpc17xx_timer.c **** 
 296:core/lpc17xx_timer.c **** 		pCounterCfg = (TIM_COUNTERCFG_Type *)TIM_ConfigStruct;
 1129              		.loc 1 296 0
 1130 012a 7B68     		ldr	r3, [r7, #4]	@ tmp162, TIM_ConfigStruct
 1131 012c BB61     		str	r3, [r7, #24]	@ tmp162, pCounterCfg
 1132              	@ core/lpc17xx_timer.c:297: 		TIMx->CCR  &= ~TIM_CTCR_INPUT_MASK;
 297:core/lpc17xx_timer.c **** 		TIMx->CCR  &= ~TIM_CTCR_INPUT_MASK;
 1133              		.loc 1 297 0
 1134 012e FB68     		ldr	r3, [r7, #12]	@ tmp163, TIMx
 1135 0130 9B6A     		ldr	r3, [r3, #40]	@ _11, TIMx_21(D)->CCR
 1136 0132 23F00C02 		bic	r2, r3, #12	@ _12, _11,
 1137 0136 FB68     		ldr	r3, [r7, #12]	@ tmp164, TIMx
 1138 0138 9A62     		str	r2, [r3, #40]	@ _12, TIMx_21(D)->CCR
 1139              	@ core/lpc17xx_timer.c:298: 		if (pCounterCfg->CountInputSelect == TIM_COUNTER_INCAP1)
 298:core/lpc17xx_timer.c **** 		if (pCounterCfg->CountInputSelect == TIM_COUNTER_INCAP1)
 1140              		.loc 1 298 0
 1141 013a BB69     		ldr	r3, [r7, #24]	@ tmp165, pCounterCfg
 1142 013c 5B78     		ldrb	r3, [r3, #1]	@ zero_extendqisi2	@ _13, pCounterCfg_42->CountInputSelect
 1143 013e 012B     		cmp	r3, #1	@ _13,
 1144 0140 05D1     		bne	.L59	@,
 1145              	@ core/lpc17xx_timer.c:299: 			TIMx->CCR |= _BIT(2);
 299:core/lpc17xx_timer.c **** 			TIMx->CCR |= _BIT(2);
 1146              		.loc 1 299 0
 1147 0142 FB68     		ldr	r3, [r7, #12]	@ tmp166, TIMx
 1148 0144 9B6A     		ldr	r3, [r3, #40]	@ _14, TIMx_21(D)->CCR
 1149 0146 43F00402 		orr	r2, r3, #4	@ _15, _14,
 1150 014a FB68     		ldr	r3, [r7, #12]	@ tmp167, TIMx
 1151 014c 9A62     		str	r2, [r3, #40]	@ _15, TIMx_21(D)->CCR
 1152              	.L59:
 1153              	@ core/lpc17xx_timer.c:303: 	TIMx->IR = 0xFFFFFFFF;
 300:core/lpc17xx_timer.c **** 	}
 301:core/lpc17xx_timer.c **** 
 302:core/lpc17xx_timer.c **** 	// Clear interrupt pending
 303:core/lpc17xx_timer.c **** 	TIMx->IR = 0xFFFFFFFF;
 1154              		.loc 1 303 0
 1155 014e FB68     		ldr	r3, [r7, #12]	@ tmp168, TIMx
 1156 0150 4FF0FF32 		mov	r2, #-1	@ tmp169,
 1157 0154 1A60     		str	r2, [r3]	@ tmp169, TIMx_21(D)->IR
 1158              	@ core/lpc17xx_timer.c:305: }
 304:core/lpc17xx_timer.c **** 
 305:core/lpc17xx_timer.c **** }
 1159              		.loc 1 305 0
 1160 0156 00BF     		nop
 1161 0158 2037     		adds	r7, r7, #32	@,,
 1162              		.cfi_def_cfa_offset 8
 1163 015a BD46     		mov	sp, r7	@,
 1164              		.cfi_def_cfa_register 13
 1165              		@ sp needed	@
 1166 015c 80BD     		pop	{r7, pc}	@
 1167              	.L61:
 1168 015e 00BF     		.align	2
 1169              	.L60:
 1170 0160 00800040 		.word	1073774592
 1171 0164 00000940 		.word	1074331648
ARM GAS  /tmp/ccKti1Oq.s 			page 27


 1172 0168 00400940 		.word	1074348032
 1173 016c 00000000 		.word	.LC0
 1174              		.cfi_endproc
 1175              	.LFE63:
 1176              		.size	TIM_Init, .-TIM_Init
 1177              		.section	.text.TIM_DeInit,"ax",%progbits
 1178              		.align	1
 1179              		.global	TIM_DeInit
 1180              		.syntax unified
 1181              		.thumb
 1182              		.thumb_func
 1183              		.fpu softvfp
 1184              		.type	TIM_DeInit, %function
 1185              	TIM_DeInit:
 1186              	.LFB64:
 306:core/lpc17xx_timer.c **** 
 307:core/lpc17xx_timer.c **** /*********************************************************************//**
 308:core/lpc17xx_timer.c ****  * @brief 		Close Timer/Counter device
 309:core/lpc17xx_timer.c ****  * @param[in]	TIMx  Pointer to timer device
 310:core/lpc17xx_timer.c ****  * @return 		None
 311:core/lpc17xx_timer.c ****  **********************************************************************/
 312:core/lpc17xx_timer.c **** void TIM_DeInit (LPC_TIM_TypeDef *TIMx)
 313:core/lpc17xx_timer.c **** {
 1187              		.loc 1 313 0
 1188              		.cfi_startproc
 1189              		@ args = 0, pretend = 0, frame = 8
 1190              		@ frame_needed = 1, uses_anonymous_args = 0
 1191 0000 80B5     		push	{r7, lr}	@
 1192              		.cfi_def_cfa_offset 8
 1193              		.cfi_offset 7, -8
 1194              		.cfi_offset 14, -4
 1195 0002 82B0     		sub	sp, sp, #8	@,,
 1196              		.cfi_def_cfa_offset 16
 1197 0004 00AF     		add	r7, sp, #0	@,,
 1198              		.cfi_def_cfa_register 7
 1199 0006 7860     		str	r0, [r7, #4]	@ TIMx, TIMx
 1200              	@ core/lpc17xx_timer.c:314: 	CHECK_PARAM(PARAM_TIMx(TIMx));
 314:core/lpc17xx_timer.c **** 	CHECK_PARAM(PARAM_TIMx(TIMx));
 1201              		.loc 1 314 0
 1202 0008 7B68     		ldr	r3, [r7, #4]	@ tmp110, TIMx
 1203 000a B3F1402F 		cmp	r3, #1073758208	@ tmp110,
 1204 000e 10D0     		beq	.L63	@,
 1205              	@ core/lpc17xx_timer.c:314: 	CHECK_PARAM(PARAM_TIMx(TIMx));
 1206              		.loc 1 314 0 is_stmt 0 discriminator 1
 1207 0010 7B68     		ldr	r3, [r7, #4]	@ tmp111, TIMx
 1208 0012 1E4A     		ldr	r2, .L69	@ tmp112,
 1209 0014 9342     		cmp	r3, r2	@ tmp111, tmp112
 1210 0016 0CD0     		beq	.L63	@,
 1211              	@ core/lpc17xx_timer.c:314: 	CHECK_PARAM(PARAM_TIMx(TIMx));
 1212              		.loc 1 314 0 discriminator 2
 1213 0018 7B68     		ldr	r3, [r7, #4]	@ tmp113, TIMx
 1214 001a 1D4A     		ldr	r2, .L69+4	@ tmp114,
 1215 001c 9342     		cmp	r3, r2	@ tmp113, tmp114
 1216 001e 08D0     		beq	.L63	@,
 1217              	@ core/lpc17xx_timer.c:314: 	CHECK_PARAM(PARAM_TIMx(TIMx));
 1218              		.loc 1 314 0 discriminator 3
 1219 0020 7B68     		ldr	r3, [r7, #4]	@ tmp115, TIMx
ARM GAS  /tmp/ccKti1Oq.s 			page 28


 1220 0022 1C4A     		ldr	r2, .L69+8	@ tmp116,
 1221 0024 9342     		cmp	r3, r2	@ tmp115, tmp116
 1222 0026 04D0     		beq	.L63	@,
 1223              	@ core/lpc17xx_timer.c:314: 	CHECK_PARAM(PARAM_TIMx(TIMx));
 1224              		.loc 1 314 0 discriminator 4
 1225 0028 4FF49D71 		mov	r1, #314	@,
 1226 002c 1A48     		ldr	r0, .L69+12	@,
 1227 002e FFF7FEFF 		bl	check_failed	@
 1228              	.L63:
 1229              	@ core/lpc17xx_timer.c:316: 	TIMx->TCR = 0x00;
 315:core/lpc17xx_timer.c **** 	// Disable timer/counter
 316:core/lpc17xx_timer.c **** 	TIMx->TCR = 0x00;
 1230              		.loc 1 316 0 is_stmt 1
 1231 0032 7B68     		ldr	r3, [r7, #4]	@ tmp117, TIMx
 1232 0034 0022     		movs	r2, #0	@ tmp118,
 1233 0036 5A60     		str	r2, [r3, #4]	@ tmp118, TIMx_3(D)->TCR
 1234              	@ core/lpc17xx_timer.c:319: 	if (TIMx== LPC_TIM0)
 317:core/lpc17xx_timer.c **** 
 318:core/lpc17xx_timer.c **** 	// Disable power
 319:core/lpc17xx_timer.c **** 	if (TIMx== LPC_TIM0)
 1235              		.loc 1 319 0
 1236 0038 7B68     		ldr	r3, [r7, #4]	@ tmp119, TIMx
 1237 003a B3F1402F 		cmp	r3, #1073758208	@ tmp119,
 1238 003e 04D1     		bne	.L64	@,
 1239              	@ core/lpc17xx_timer.c:320: 		CLKPWR_ConfigPPWR (CLKPWR_PCONP_PCTIM0, DISABLE);
 320:core/lpc17xx_timer.c **** 		CLKPWR_ConfigPPWR (CLKPWR_PCONP_PCTIM0, DISABLE);
 1240              		.loc 1 320 0
 1241 0040 0021     		movs	r1, #0	@,
 1242 0042 0220     		movs	r0, #2	@,
 1243 0044 FFF7FEFF 		bl	CLKPWR_ConfigPPWR	@
 1244              	@ core/lpc17xx_timer.c:331: }
 321:core/lpc17xx_timer.c **** 
 322:core/lpc17xx_timer.c **** 	else if (TIMx== LPC_TIM1)
 323:core/lpc17xx_timer.c **** 		CLKPWR_ConfigPPWR (CLKPWR_PCONP_PCTIM1, DISABLE);
 324:core/lpc17xx_timer.c **** 
 325:core/lpc17xx_timer.c **** 	else if (TIMx== LPC_TIM2)
 326:core/lpc17xx_timer.c **** 		CLKPWR_ConfigPPWR (CLKPWR_PCONP_PCTIM2, DISABLE);
 327:core/lpc17xx_timer.c **** 
 328:core/lpc17xx_timer.c **** 	else if (TIMx== LPC_TIM3)
 329:core/lpc17xx_timer.c **** 		CLKPWR_ConfigPPWR (CLKPWR_PCONP_PCTIM2, DISABLE);
 330:core/lpc17xx_timer.c **** 
 331:core/lpc17xx_timer.c **** }
 1245              		.loc 1 331 0
 1246 0048 1BE0     		b	.L68	@
 1247              	.L64:
 1248              	@ core/lpc17xx_timer.c:322: 	else if (TIMx== LPC_TIM1)
 322:core/lpc17xx_timer.c **** 		CLKPWR_ConfigPPWR (CLKPWR_PCONP_PCTIM1, DISABLE);
 1249              		.loc 1 322 0
 1250 004a 7B68     		ldr	r3, [r7, #4]	@ tmp120, TIMx
 1251 004c 0F4A     		ldr	r2, .L69	@ tmp121,
 1252 004e 9342     		cmp	r3, r2	@ tmp120, tmp121
 1253 0050 04D1     		bne	.L66	@,
 1254              	@ core/lpc17xx_timer.c:323: 		CLKPWR_ConfigPPWR (CLKPWR_PCONP_PCTIM1, DISABLE);
 323:core/lpc17xx_timer.c **** 
 1255              		.loc 1 323 0
 1256 0052 0021     		movs	r1, #0	@,
 1257 0054 0420     		movs	r0, #4	@,
ARM GAS  /tmp/ccKti1Oq.s 			page 29


 1258 0056 FFF7FEFF 		bl	CLKPWR_ConfigPPWR	@
 1259              	@ core/lpc17xx_timer.c:331: }
 1260              		.loc 1 331 0
 1261 005a 12E0     		b	.L68	@
 1262              	.L66:
 1263              	@ core/lpc17xx_timer.c:325: 	else if (TIMx== LPC_TIM2)
 325:core/lpc17xx_timer.c **** 		CLKPWR_ConfigPPWR (CLKPWR_PCONP_PCTIM2, DISABLE);
 1264              		.loc 1 325 0
 1265 005c 7B68     		ldr	r3, [r7, #4]	@ tmp122, TIMx
 1266 005e 0C4A     		ldr	r2, .L69+4	@ tmp123,
 1267 0060 9342     		cmp	r3, r2	@ tmp122, tmp123
 1268 0062 05D1     		bne	.L67	@,
 1269              	@ core/lpc17xx_timer.c:326: 		CLKPWR_ConfigPPWR (CLKPWR_PCONP_PCTIM2, DISABLE);
 326:core/lpc17xx_timer.c **** 
 1270              		.loc 1 326 0
 1271 0064 0021     		movs	r1, #0	@,
 1272 0066 4FF48000 		mov	r0, #4194304	@,
 1273 006a FFF7FEFF 		bl	CLKPWR_ConfigPPWR	@
 1274              	@ core/lpc17xx_timer.c:331: }
 1275              		.loc 1 331 0
 1276 006e 08E0     		b	.L68	@
 1277              	.L67:
 1278              	@ core/lpc17xx_timer.c:328: 	else if (TIMx== LPC_TIM3)
 328:core/lpc17xx_timer.c **** 		CLKPWR_ConfigPPWR (CLKPWR_PCONP_PCTIM2, DISABLE);
 1279              		.loc 1 328 0
 1280 0070 7B68     		ldr	r3, [r7, #4]	@ tmp124, TIMx
 1281 0072 084A     		ldr	r2, .L69+8	@ tmp125,
 1282 0074 9342     		cmp	r3, r2	@ tmp124, tmp125
 1283 0076 04D1     		bne	.L68	@,
 1284              	@ core/lpc17xx_timer.c:329: 		CLKPWR_ConfigPPWR (CLKPWR_PCONP_PCTIM2, DISABLE);
 329:core/lpc17xx_timer.c **** 
 1285              		.loc 1 329 0
 1286 0078 0021     		movs	r1, #0	@,
 1287 007a 4FF48000 		mov	r0, #4194304	@,
 1288 007e FFF7FEFF 		bl	CLKPWR_ConfigPPWR	@
 1289              	.L68:
 1290              	@ core/lpc17xx_timer.c:331: }
 1291              		.loc 1 331 0
 1292 0082 00BF     		nop
 1293 0084 0837     		adds	r7, r7, #8	@,,
 1294              		.cfi_def_cfa_offset 8
 1295 0086 BD46     		mov	sp, r7	@,
 1296              		.cfi_def_cfa_register 13
 1297              		@ sp needed	@
 1298 0088 80BD     		pop	{r7, pc}	@
 1299              	.L70:
 1300 008a 00BF     		.align	2
 1301              	.L69:
 1302 008c 00800040 		.word	1073774592
 1303 0090 00000940 		.word	1074331648
 1304 0094 00400940 		.word	1074348032
 1305 0098 00000000 		.word	.LC0
 1306              		.cfi_endproc
 1307              	.LFE64:
 1308              		.size	TIM_DeInit, .-TIM_DeInit
 1309              		.section	.text.TIM_Cmd,"ax",%progbits
 1310              		.align	1
ARM GAS  /tmp/ccKti1Oq.s 			page 30


 1311              		.global	TIM_Cmd
 1312              		.syntax unified
 1313              		.thumb
 1314              		.thumb_func
 1315              		.fpu softvfp
 1316              		.type	TIM_Cmd, %function
 1317              	TIM_Cmd:
 1318              	.LFB65:
 332:core/lpc17xx_timer.c **** 
 333:core/lpc17xx_timer.c **** /*********************************************************************//**
 334:core/lpc17xx_timer.c ****  * @brief	 	Start/Stop Timer/Counter device
 335:core/lpc17xx_timer.c ****  * @param[in]	TIMx Pointer to timer device
 336:core/lpc17xx_timer.c ****  * @param[in]	NewState
 337:core/lpc17xx_timer.c ****  * 				-	ENABLE  : set timer enable
 338:core/lpc17xx_timer.c ****  * 				-	DISABLE : disable timer
 339:core/lpc17xx_timer.c ****  * @return 		None
 340:core/lpc17xx_timer.c ****  **********************************************************************/
 341:core/lpc17xx_timer.c **** void TIM_Cmd(LPC_TIM_TypeDef *TIMx, FunctionalState NewState)
 342:core/lpc17xx_timer.c **** {
 1319              		.loc 1 342 0
 1320              		.cfi_startproc
 1321              		@ args = 0, pretend = 0, frame = 8
 1322              		@ frame_needed = 1, uses_anonymous_args = 0
 1323 0000 80B5     		push	{r7, lr}	@
 1324              		.cfi_def_cfa_offset 8
 1325              		.cfi_offset 7, -8
 1326              		.cfi_offset 14, -4
 1327 0002 82B0     		sub	sp, sp, #8	@,,
 1328              		.cfi_def_cfa_offset 16
 1329 0004 00AF     		add	r7, sp, #0	@,,
 1330              		.cfi_def_cfa_register 7
 1331 0006 7860     		str	r0, [r7, #4]	@ TIMx, TIMx
 1332 0008 0B46     		mov	r3, r1	@ tmp114, NewState
 1333 000a FB70     		strb	r3, [r7, #3]	@ tmp115, NewState
 1334              	@ core/lpc17xx_timer.c:343: 	CHECK_PARAM(PARAM_TIMx(TIMx));
 343:core/lpc17xx_timer.c **** 	CHECK_PARAM(PARAM_TIMx(TIMx));
 1335              		.loc 1 343 0
 1336 000c 7B68     		ldr	r3, [r7, #4]	@ tmp116, TIMx
 1337 000e B3F1402F 		cmp	r3, #1073758208	@ tmp116,
 1338 0012 10D0     		beq	.L72	@,
 1339              	@ core/lpc17xx_timer.c:343: 	CHECK_PARAM(PARAM_TIMx(TIMx));
 1340              		.loc 1 343 0 is_stmt 0 discriminator 1
 1341 0014 7B68     		ldr	r3, [r7, #4]	@ tmp117, TIMx
 1342 0016 124A     		ldr	r2, .L76	@ tmp118,
 1343 0018 9342     		cmp	r3, r2	@ tmp117, tmp118
 1344 001a 0CD0     		beq	.L72	@,
 1345              	@ core/lpc17xx_timer.c:343: 	CHECK_PARAM(PARAM_TIMx(TIMx));
 1346              		.loc 1 343 0 discriminator 2
 1347 001c 7B68     		ldr	r3, [r7, #4]	@ tmp119, TIMx
 1348 001e 114A     		ldr	r2, .L76+4	@ tmp120,
 1349 0020 9342     		cmp	r3, r2	@ tmp119, tmp120
 1350 0022 08D0     		beq	.L72	@,
 1351              	@ core/lpc17xx_timer.c:343: 	CHECK_PARAM(PARAM_TIMx(TIMx));
 1352              		.loc 1 343 0 discriminator 3
 1353 0024 7B68     		ldr	r3, [r7, #4]	@ tmp121, TIMx
 1354 0026 104A     		ldr	r2, .L76+8	@ tmp122,
 1355 0028 9342     		cmp	r3, r2	@ tmp121, tmp122
ARM GAS  /tmp/ccKti1Oq.s 			page 31


 1356 002a 04D0     		beq	.L72	@,
 1357              	@ core/lpc17xx_timer.c:343: 	CHECK_PARAM(PARAM_TIMx(TIMx));
 1358              		.loc 1 343 0 discriminator 4
 1359 002c 40F25711 		movw	r1, #343	@,
 1360 0030 0E48     		ldr	r0, .L76+12	@,
 1361 0032 FFF7FEFF 		bl	check_failed	@
 1362              	.L72:
 1363              	@ core/lpc17xx_timer.c:344: 	if (NewState == ENABLE)
 344:core/lpc17xx_timer.c **** 	if (NewState == ENABLE)
 1364              		.loc 1 344 0 is_stmt 1
 1365 0036 FB78     		ldrb	r3, [r7, #3]	@ zero_extendqisi2	@ tmp123, NewState
 1366 0038 012B     		cmp	r3, #1	@ tmp123,
 1367 003a 06D1     		bne	.L73	@,
 1368              	@ core/lpc17xx_timer.c:346: 		TIMx->TCR	|=  TIM_ENABLE;
 345:core/lpc17xx_timer.c **** 	{
 346:core/lpc17xx_timer.c **** 		TIMx->TCR	|=  TIM_ENABLE;
 1369              		.loc 1 346 0
 1370 003c 7B68     		ldr	r3, [r7, #4]	@ tmp124, TIMx
 1371 003e 5B68     		ldr	r3, [r3, #4]	@ _1, TIMx_7(D)->TCR
 1372 0040 43F00102 		orr	r2, r3, #1	@ _2, _1,
 1373 0044 7B68     		ldr	r3, [r7, #4]	@ tmp125, TIMx
 1374 0046 5A60     		str	r2, [r3, #4]	@ _2, TIMx_7(D)->TCR
 1375              	@ core/lpc17xx_timer.c:352: }
 347:core/lpc17xx_timer.c **** 	}
 348:core/lpc17xx_timer.c **** 	else
 349:core/lpc17xx_timer.c **** 	{
 350:core/lpc17xx_timer.c **** 		TIMx->TCR &= ~TIM_ENABLE;
 351:core/lpc17xx_timer.c **** 	}
 352:core/lpc17xx_timer.c **** }
 1376              		.loc 1 352 0
 1377 0048 05E0     		b	.L75	@
 1378              	.L73:
 1379              	@ core/lpc17xx_timer.c:350: 		TIMx->TCR &= ~TIM_ENABLE;
 350:core/lpc17xx_timer.c **** 	}
 1380              		.loc 1 350 0
 1381 004a 7B68     		ldr	r3, [r7, #4]	@ tmp126, TIMx
 1382 004c 5B68     		ldr	r3, [r3, #4]	@ _3, TIMx_7(D)->TCR
 1383 004e 23F00102 		bic	r2, r3, #1	@ _4, _3,
 1384 0052 7B68     		ldr	r3, [r7, #4]	@ tmp127, TIMx
 1385 0054 5A60     		str	r2, [r3, #4]	@ _4, TIMx_7(D)->TCR
 1386              	.L75:
 1387              	@ core/lpc17xx_timer.c:352: }
 1388              		.loc 1 352 0
 1389 0056 00BF     		nop
 1390 0058 0837     		adds	r7, r7, #8	@,,
 1391              		.cfi_def_cfa_offset 8
 1392 005a BD46     		mov	sp, r7	@,
 1393              		.cfi_def_cfa_register 13
 1394              		@ sp needed	@
 1395 005c 80BD     		pop	{r7, pc}	@
 1396              	.L77:
 1397 005e 00BF     		.align	2
 1398              	.L76:
 1399 0060 00800040 		.word	1073774592
 1400 0064 00000940 		.word	1074331648
 1401 0068 00400940 		.word	1074348032
 1402 006c 00000000 		.word	.LC0
ARM GAS  /tmp/ccKti1Oq.s 			page 32


 1403              		.cfi_endproc
 1404              	.LFE65:
 1405              		.size	TIM_Cmd, .-TIM_Cmd
 1406              		.section	.text.TIM_ResetCounter,"ax",%progbits
 1407              		.align	1
 1408              		.global	TIM_ResetCounter
 1409              		.syntax unified
 1410              		.thumb
 1411              		.thumb_func
 1412              		.fpu softvfp
 1413              		.type	TIM_ResetCounter, %function
 1414              	TIM_ResetCounter:
 1415              	.LFB66:
 353:core/lpc17xx_timer.c **** 
 354:core/lpc17xx_timer.c **** /*********************************************************************//**
 355:core/lpc17xx_timer.c ****  * @brief 		Reset Timer/Counter device,
 356:core/lpc17xx_timer.c ****  * 					Make TC and PC are synchronously reset on the next
 357:core/lpc17xx_timer.c ****  * 					positive edge of PCLK
 358:core/lpc17xx_timer.c ****  * @param[in]	TIMx Pointer to timer device
 359:core/lpc17xx_timer.c ****  * @return 		None
 360:core/lpc17xx_timer.c ****  **********************************************************************/
 361:core/lpc17xx_timer.c **** void TIM_ResetCounter(LPC_TIM_TypeDef *TIMx)
 362:core/lpc17xx_timer.c **** {
 1416              		.loc 1 362 0
 1417              		.cfi_startproc
 1418              		@ args = 0, pretend = 0, frame = 8
 1419              		@ frame_needed = 1, uses_anonymous_args = 0
 1420 0000 80B5     		push	{r7, lr}	@
 1421              		.cfi_def_cfa_offset 8
 1422              		.cfi_offset 7, -8
 1423              		.cfi_offset 14, -4
 1424 0002 82B0     		sub	sp, sp, #8	@,,
 1425              		.cfi_def_cfa_offset 16
 1426 0004 00AF     		add	r7, sp, #0	@,,
 1427              		.cfi_def_cfa_register 7
 1428 0006 7860     		str	r0, [r7, #4]	@ TIMx, TIMx
 1429              	@ core/lpc17xx_timer.c:363: 	CHECK_PARAM(PARAM_TIMx(TIMx));
 363:core/lpc17xx_timer.c **** 	CHECK_PARAM(PARAM_TIMx(TIMx));
 1430              		.loc 1 363 0
 1431 0008 7B68     		ldr	r3, [r7, #4]	@ tmp114, TIMx
 1432 000a B3F1402F 		cmp	r3, #1073758208	@ tmp114,
 1433 000e 10D0     		beq	.L79	@,
 1434              	@ core/lpc17xx_timer.c:363: 	CHECK_PARAM(PARAM_TIMx(TIMx));
 1435              		.loc 1 363 0 is_stmt 0 discriminator 1
 1436 0010 7B68     		ldr	r3, [r7, #4]	@ tmp115, TIMx
 1437 0012 104A     		ldr	r2, .L80	@ tmp116,
 1438 0014 9342     		cmp	r3, r2	@ tmp115, tmp116
 1439 0016 0CD0     		beq	.L79	@,
 1440              	@ core/lpc17xx_timer.c:363: 	CHECK_PARAM(PARAM_TIMx(TIMx));
 1441              		.loc 1 363 0 discriminator 2
 1442 0018 7B68     		ldr	r3, [r7, #4]	@ tmp117, TIMx
 1443 001a 0F4A     		ldr	r2, .L80+4	@ tmp118,
 1444 001c 9342     		cmp	r3, r2	@ tmp117, tmp118
 1445 001e 08D0     		beq	.L79	@,
 1446              	@ core/lpc17xx_timer.c:363: 	CHECK_PARAM(PARAM_TIMx(TIMx));
 1447              		.loc 1 363 0 discriminator 3
 1448 0020 7B68     		ldr	r3, [r7, #4]	@ tmp119, TIMx
ARM GAS  /tmp/ccKti1Oq.s 			page 33


 1449 0022 0E4A     		ldr	r2, .L80+8	@ tmp120,
 1450 0024 9342     		cmp	r3, r2	@ tmp119, tmp120
 1451 0026 04D0     		beq	.L79	@,
 1452              	@ core/lpc17xx_timer.c:363: 	CHECK_PARAM(PARAM_TIMx(TIMx));
 1453              		.loc 1 363 0 discriminator 4
 1454 0028 40F26B11 		movw	r1, #363	@,
 1455 002c 0C48     		ldr	r0, .L80+12	@,
 1456 002e FFF7FEFF 		bl	check_failed	@
 1457              	.L79:
 1458              	@ core/lpc17xx_timer.c:364: 	TIMx->TCR |= TIM_RESET;
 364:core/lpc17xx_timer.c **** 	TIMx->TCR |= TIM_RESET;
 1459              		.loc 1 364 0 is_stmt 1
 1460 0032 7B68     		ldr	r3, [r7, #4]	@ tmp121, TIMx
 1461 0034 5B68     		ldr	r3, [r3, #4]	@ _1, TIMx_6(D)->TCR
 1462 0036 43F00202 		orr	r2, r3, #2	@ _2, _1,
 1463 003a 7B68     		ldr	r3, [r7, #4]	@ tmp122, TIMx
 1464 003c 5A60     		str	r2, [r3, #4]	@ _2, TIMx_6(D)->TCR
 1465              	@ core/lpc17xx_timer.c:365: 	TIMx->TCR &= ~TIM_RESET;
 365:core/lpc17xx_timer.c **** 	TIMx->TCR &= ~TIM_RESET;
 1466              		.loc 1 365 0
 1467 003e 7B68     		ldr	r3, [r7, #4]	@ tmp123, TIMx
 1468 0040 5B68     		ldr	r3, [r3, #4]	@ _3, TIMx_6(D)->TCR
 1469 0042 23F00202 		bic	r2, r3, #2	@ _4, _3,
 1470 0046 7B68     		ldr	r3, [r7, #4]	@ tmp124, TIMx
 1471 0048 5A60     		str	r2, [r3, #4]	@ _4, TIMx_6(D)->TCR
 1472              	@ core/lpc17xx_timer.c:366: }
 366:core/lpc17xx_timer.c **** }
 1473              		.loc 1 366 0
 1474 004a 00BF     		nop
 1475 004c 0837     		adds	r7, r7, #8	@,,
 1476              		.cfi_def_cfa_offset 8
 1477 004e BD46     		mov	sp, r7	@,
 1478              		.cfi_def_cfa_register 13
 1479              		@ sp needed	@
 1480 0050 80BD     		pop	{r7, pc}	@
 1481              	.L81:
 1482 0052 00BF     		.align	2
 1483              	.L80:
 1484 0054 00800040 		.word	1073774592
 1485 0058 00000940 		.word	1074331648
 1486 005c 00400940 		.word	1074348032
 1487 0060 00000000 		.word	.LC0
 1488              		.cfi_endproc
 1489              	.LFE66:
 1490              		.size	TIM_ResetCounter, .-TIM_ResetCounter
 1491              		.section	.text.TIM_ConfigMatch,"ax",%progbits
 1492              		.align	1
 1493              		.global	TIM_ConfigMatch
 1494              		.syntax unified
 1495              		.thumb
 1496              		.thumb_func
 1497              		.fpu softvfp
 1498              		.type	TIM_ConfigMatch, %function
 1499              	TIM_ConfigMatch:
 1500              	.LFB67:
 367:core/lpc17xx_timer.c **** 
 368:core/lpc17xx_timer.c **** /*********************************************************************//**
ARM GAS  /tmp/ccKti1Oq.s 			page 34


 369:core/lpc17xx_timer.c ****  * @brief 		Configuration for Match register
 370:core/lpc17xx_timer.c ****  * @param[in]	TIMx Pointer to timer device
 371:core/lpc17xx_timer.c ****  * @param[in]   TIM_MatchConfigStruct Pointer to TIM_MATCHCFG_Type
 372:core/lpc17xx_timer.c ****  * 					- MatchChannel : choose channel 0 or 1
 373:core/lpc17xx_timer.c ****  * 					- IntOnMatch	 : if SET, interrupt will be generated when MRxx match
 374:core/lpc17xx_timer.c ****  * 									the value in TC
 375:core/lpc17xx_timer.c ****  * 					- StopOnMatch	 : if SET, TC and PC will be stopped whenM Rxx match
 376:core/lpc17xx_timer.c ****  * 									the value in TC
 377:core/lpc17xx_timer.c ****  * 					- ResetOnMatch : if SET, Reset on MR0 when MRxx match
 378:core/lpc17xx_timer.c ****  * 									the value in TC
 379:core/lpc17xx_timer.c ****  * 					-ExtMatchOutputType: Select output for external match
 380:core/lpc17xx_timer.c ****  * 						 +	 0:	Do nothing for external output pin if match
 381:core/lpc17xx_timer.c ****  *						 +   1:	Force external output pin to low if match
 382:core/lpc17xx_timer.c ****  *						 + 	 2: Force external output pin to high if match
 383:core/lpc17xx_timer.c ****  *						 + 	 3: Toggle external output pin if match
 384:core/lpc17xx_timer.c ****  *					MatchValue: Set the value to be compared with TC value
 385:core/lpc17xx_timer.c ****  * @return 		None
 386:core/lpc17xx_timer.c ****  **********************************************************************/
 387:core/lpc17xx_timer.c **** void TIM_ConfigMatch(LPC_TIM_TypeDef *TIMx, TIM_MATCHCFG_Type *TIM_MatchConfigStruct)
 388:core/lpc17xx_timer.c **** {
 1501              		.loc 1 388 0
 1502              		.cfi_startproc
 1503              		@ args = 0, pretend = 0, frame = 16
 1504              		@ frame_needed = 1, uses_anonymous_args = 0
 1505 0000 80B5     		push	{r7, lr}	@
 1506              		.cfi_def_cfa_offset 8
 1507              		.cfi_offset 7, -8
 1508              		.cfi_offset 14, -4
 1509 0002 84B0     		sub	sp, sp, #16	@,,
 1510              		.cfi_def_cfa_offset 24
 1511 0004 00AF     		add	r7, sp, #0	@,,
 1512              		.cfi_def_cfa_register 7
 1513 0006 7860     		str	r0, [r7, #4]	@ TIMx, TIMx
 1514 0008 3960     		str	r1, [r7]	@ TIM_MatchConfigStruct, TIM_MatchConfigStruct
 1515              	@ core/lpc17xx_timer.c:391: 	CHECK_PARAM(PARAM_TIMx(TIMx));
 389:core/lpc17xx_timer.c **** 	uint32_t timer;
 390:core/lpc17xx_timer.c **** 
 391:core/lpc17xx_timer.c **** 	CHECK_PARAM(PARAM_TIMx(TIMx));
 1516              		.loc 1 391 0
 1517 000a 7B68     		ldr	r3, [r7, #4]	@ tmp169, TIMx
 1518 000c B3F1402F 		cmp	r3, #1073758208	@ tmp169,
 1519 0010 10D0     		beq	.L83	@,
 1520              	@ core/lpc17xx_timer.c:391: 	CHECK_PARAM(PARAM_TIMx(TIMx));
 1521              		.loc 1 391 0 is_stmt 0 discriminator 1
 1522 0012 7B68     		ldr	r3, [r7, #4]	@ tmp170, TIMx
 1523 0014 4D4A     		ldr	r2, .L91	@ tmp171,
 1524 0016 9342     		cmp	r3, r2	@ tmp170, tmp171
 1525 0018 0CD0     		beq	.L83	@,
 1526              	@ core/lpc17xx_timer.c:391: 	CHECK_PARAM(PARAM_TIMx(TIMx));
 1527              		.loc 1 391 0 discriminator 2
 1528 001a 7B68     		ldr	r3, [r7, #4]	@ tmp172, TIMx
 1529 001c 4C4A     		ldr	r2, .L91+4	@ tmp173,
 1530 001e 9342     		cmp	r3, r2	@ tmp172, tmp173
 1531 0020 08D0     		beq	.L83	@,
 1532              	@ core/lpc17xx_timer.c:391: 	CHECK_PARAM(PARAM_TIMx(TIMx));
 1533              		.loc 1 391 0 discriminator 3
 1534 0022 7B68     		ldr	r3, [r7, #4]	@ tmp174, TIMx
ARM GAS  /tmp/ccKti1Oq.s 			page 35


 1535 0024 4B4A     		ldr	r2, .L91+8	@ tmp175,
 1536 0026 9342     		cmp	r3, r2	@ tmp174, tmp175
 1537 0028 04D0     		beq	.L83	@,
 1538              	@ core/lpc17xx_timer.c:391: 	CHECK_PARAM(PARAM_TIMx(TIMx));
 1539              		.loc 1 391 0 discriminator 4
 1540 002a 40F28711 		movw	r1, #391	@,
 1541 002e 4A48     		ldr	r0, .L91+12	@,
 1542 0030 FFF7FEFF 		bl	check_failed	@
 1543              	.L83:
 1544              	@ core/lpc17xx_timer.c:392: 	CHECK_PARAM(PARAM_TIM_EXTMATCH_OPT(TIM_MatchConfigStruct->ExtMatchOutp
 392:core/lpc17xx_timer.c **** 	CHECK_PARAM(PARAM_TIM_EXTMATCH_OPT(TIM_MatchConfigStruct->ExtMatchOutputType));
 1545              		.loc 1 392 0 is_stmt 1
 1546 0034 3B68     		ldr	r3, [r7]	@ tmp176, TIM_MatchConfigStruct
 1547 0036 1B79     		ldrb	r3, [r3, #4]	@ zero_extendqisi2	@ _1, TIM_MatchConfigStruct_69(D)->ExtMatchOutputType
 1548 0038 002B     		cmp	r3, #0	@ _1,
 1549 003a 10D0     		beq	.L84	@,
 1550              	@ core/lpc17xx_timer.c:392: 	CHECK_PARAM(PARAM_TIM_EXTMATCH_OPT(TIM_MatchConfigStruct->ExtMatchOutp
 1551              		.loc 1 392 0 is_stmt 0 discriminator 1
 1552 003c 3B68     		ldr	r3, [r7]	@ tmp177, TIM_MatchConfigStruct
 1553 003e 1B79     		ldrb	r3, [r3, #4]	@ zero_extendqisi2	@ _2, TIM_MatchConfigStruct_69(D)->ExtMatchOutputType
 1554 0040 012B     		cmp	r3, #1	@ _2,
 1555 0042 0CD0     		beq	.L84	@,
 1556              	@ core/lpc17xx_timer.c:392: 	CHECK_PARAM(PARAM_TIM_EXTMATCH_OPT(TIM_MatchConfigStruct->ExtMatchOutp
 1557              		.loc 1 392 0 discriminator 2
 1558 0044 3B68     		ldr	r3, [r7]	@ tmp178, TIM_MatchConfigStruct
 1559 0046 1B79     		ldrb	r3, [r3, #4]	@ zero_extendqisi2	@ _3, TIM_MatchConfigStruct_69(D)->ExtMatchOutputType
 1560 0048 022B     		cmp	r3, #2	@ _3,
 1561 004a 08D0     		beq	.L84	@,
 1562              	@ core/lpc17xx_timer.c:392: 	CHECK_PARAM(PARAM_TIM_EXTMATCH_OPT(TIM_MatchConfigStruct->ExtMatchOutp
 1563              		.loc 1 392 0 discriminator 3
 1564 004c 3B68     		ldr	r3, [r7]	@ tmp179, TIM_MatchConfigStruct
 1565 004e 1B79     		ldrb	r3, [r3, #4]	@ zero_extendqisi2	@ _4, TIM_MatchConfigStruct_69(D)->ExtMatchOutputType
 1566 0050 032B     		cmp	r3, #3	@ _4,
 1567 0052 04D0     		beq	.L84	@,
 1568              	@ core/lpc17xx_timer.c:392: 	CHECK_PARAM(PARAM_TIM_EXTMATCH_OPT(TIM_MatchConfigStruct->ExtMatchOutp
 1569              		.loc 1 392 0 discriminator 4
 1570 0054 4FF4C471 		mov	r1, #392	@,
 1571 0058 3F48     		ldr	r0, .L91+12	@,
 1572 005a FFF7FEFF 		bl	check_failed	@
 1573              	.L84:
 1574              	@ core/lpc17xx_timer.c:394: 	timer = TIM_ConverPtrToTimeNum(TIMx) ;
 393:core/lpc17xx_timer.c **** 
 394:core/lpc17xx_timer.c **** 	timer = TIM_ConverPtrToTimeNum(TIMx) ;
 1575              		.loc 1 394 0 is_stmt 1
 1576 005e 7868     		ldr	r0, [r7, #4]	@, TIMx
 1577 0060 FFF7FEFF 		bl	TIM_ConverPtrToTimeNum	@
 1578 0064 F860     		str	r0, [r7, #12]	@, timer
 1579              	@ core/lpc17xx_timer.c:395: 	switch(TIM_MatchConfigStruct->MatchChannel)
 395:core/lpc17xx_timer.c **** 	switch(TIM_MatchConfigStruct->MatchChannel)
 1580              		.loc 1 395 0
 1581 0066 3B68     		ldr	r3, [r7]	@ tmp180, TIM_MatchConfigStruct
 1582 0068 1B78     		ldrb	r3, [r3]	@ zero_extendqisi2	@ _5, TIM_MatchConfigStruct_69(D)->MatchChannel
 1583 006a 002B     		cmp	r3, #0	@ _6,
 1584 006c 02D0     		beq	.L86	@,
 1585 006e 012B     		cmp	r3, #1	@ _6,
 1586 0070 05D0     		beq	.L87	@,
 1587 0072 09E0     		b	.L85	@
ARM GAS  /tmp/ccKti1Oq.s 			page 36


 1588              	.L86:
 1589              	@ core/lpc17xx_timer.c:398: 		TIMx->MR0 = TIM_MatchConfigStruct->MatchValue;
 396:core/lpc17xx_timer.c **** 	{
 397:core/lpc17xx_timer.c **** 	case 0:
 398:core/lpc17xx_timer.c **** 		TIMx->MR0 = TIM_MatchConfigStruct->MatchValue;
 1590              		.loc 1 398 0
 1591 0074 3B68     		ldr	r3, [r7]	@ tmp181, TIM_MatchConfigStruct
 1592 0076 9A68     		ldr	r2, [r3, #8]	@ _7, TIM_MatchConfigStruct_69(D)->MatchValue
 1593 0078 7B68     		ldr	r3, [r7, #4]	@ tmp182, TIMx
 1594 007a 9A61     		str	r2, [r3, #24]	@ _7, TIMx_66(D)->MR0
 1595              	@ core/lpc17xx_timer.c:399: 		break;
 399:core/lpc17xx_timer.c **** 		break;
 1596              		.loc 1 399 0
 1597 007c 04E0     		b	.L85	@
 1598              	.L87:
 1599              	@ core/lpc17xx_timer.c:401: 		TIMx->MR1 = TIM_MatchConfigStruct->MatchValue;
 400:core/lpc17xx_timer.c **** 	case 1:
 401:core/lpc17xx_timer.c **** 		TIMx->MR1 = TIM_MatchConfigStruct->MatchValue;
 1600              		.loc 1 401 0
 1601 007e 3B68     		ldr	r3, [r7]	@ tmp183, TIM_MatchConfigStruct
 1602 0080 9A68     		ldr	r2, [r3, #8]	@ _8, TIM_MatchConfigStruct_69(D)->MatchValue
 1603 0082 7B68     		ldr	r3, [r7, #4]	@ tmp184, TIMx
 1604 0084 DA61     		str	r2, [r3, #28]	@ _8, TIMx_66(D)->MR1
 1605              	@ core/lpc17xx_timer.c:402: 		break;
 402:core/lpc17xx_timer.c **** 		break;
 1606              		.loc 1 402 0
 1607 0086 00BF     		nop
 1608              	.L85:
 1609              	@ core/lpc17xx_timer.c:405: 	TIMx->MCR &=~TIM_MCR_CHANNEL_MASKBIT(TIM_MatchConfigStruct->MatchChann
 403:core/lpc17xx_timer.c **** 	}
 404:core/lpc17xx_timer.c **** 	//interrupt on MRn
 405:core/lpc17xx_timer.c **** 	TIMx->MCR &=~TIM_MCR_CHANNEL_MASKBIT(TIM_MatchConfigStruct->MatchChannel);
 1610              		.loc 1 405 0
 1611 0088 7B68     		ldr	r3, [r7, #4]	@ tmp185, TIMx
 1612 008a 5A69     		ldr	r2, [r3, #20]	@ _9, TIMx_66(D)->MCR
 1613 008c 3B68     		ldr	r3, [r7]	@ tmp186, TIM_MatchConfigStruct
 1614 008e 1B78     		ldrb	r3, [r3]	@ zero_extendqisi2	@ _10, TIM_MatchConfigStruct_69(D)->MatchChannel
 1615 0090 1946     		mov	r1, r3	@ _11, _10
 1616 0092 0723     		movs	r3, #7	@ tmp187,
 1617 0094 8B40     		lsls	r3, r3, r1	@ _12, tmp187, _11
 1618 0096 DB43     		mvns	r3, r3	@ _14, _13
 1619 0098 1A40     		ands	r2, r2, r3	@, _15, _9, _14
 1620 009a 7B68     		ldr	r3, [r7, #4]	@ tmp188, TIMx
 1621 009c 5A61     		str	r2, [r3, #20]	@ _15, TIMx_66(D)->MCR
 1622              	@ core/lpc17xx_timer.c:407: 	if (TIM_MatchConfigStruct->IntOnMatch)
 406:core/lpc17xx_timer.c **** 
 407:core/lpc17xx_timer.c **** 	if (TIM_MatchConfigStruct->IntOnMatch)
 1623              		.loc 1 407 0
 1624 009e 3B68     		ldr	r3, [r7]	@ tmp189, TIM_MatchConfigStruct
 1625 00a0 5B78     		ldrb	r3, [r3, #1]	@ zero_extendqisi2	@ _16, TIM_MatchConfigStruct_69(D)->IntOnMatch
 1626 00a2 002B     		cmp	r3, #0	@ _16,
 1627 00a4 0DD0     		beq	.L88	@,
 1628              	@ core/lpc17xx_timer.c:408: 		TIMx->MCR |= TIM_INT_ON_MATCH(TIM_MatchConfigStruct->MatchChannel);
 408:core/lpc17xx_timer.c **** 		TIMx->MCR |= TIM_INT_ON_MATCH(TIM_MatchConfigStruct->MatchChannel);
 1629              		.loc 1 408 0
 1630 00a6 7B68     		ldr	r3, [r7, #4]	@ tmp190, TIMx
 1631 00a8 5A69     		ldr	r2, [r3, #20]	@ _17, TIMx_66(D)->MCR
ARM GAS  /tmp/ccKti1Oq.s 			page 37


 1632 00aa 3B68     		ldr	r3, [r7]	@ tmp191, TIM_MatchConfigStruct
 1633 00ac 1B78     		ldrb	r3, [r3]	@ zero_extendqisi2	@ _18, TIM_MatchConfigStruct_69(D)->MatchChannel
 1634 00ae 1946     		mov	r1, r3	@ _19, _18
 1635 00b0 0B46     		mov	r3, r1	@ tmp192, _19
 1636 00b2 5B00     		lsls	r3, r3, #1	@ tmp192, tmp192,
 1637 00b4 0B44     		add	r3, r3, r1	@ _20, _19
 1638 00b6 0121     		movs	r1, #1	@ tmp193,
 1639 00b8 01FA03F3 		lsl	r3, r1, r3	@ _21, tmp193, _20
 1640 00bc 1A43     		orrs	r2, r2, r3	@, _23, _17, _22
 1641 00be 7B68     		ldr	r3, [r7, #4]	@ tmp194, TIMx
 1642 00c0 5A61     		str	r2, [r3, #20]	@ _23, TIMx_66(D)->MCR
 1643              	.L88:
 1644              	@ core/lpc17xx_timer.c:411: 	if (TIM_MatchConfigStruct->ResetOnMatch)
 409:core/lpc17xx_timer.c **** 
 410:core/lpc17xx_timer.c **** 	//reset on MRn
 411:core/lpc17xx_timer.c **** 	if (TIM_MatchConfigStruct->ResetOnMatch)
 1645              		.loc 1 411 0
 1646 00c2 3B68     		ldr	r3, [r7]	@ tmp195, TIM_MatchConfigStruct
 1647 00c4 DB78     		ldrb	r3, [r3, #3]	@ zero_extendqisi2	@ _24, TIM_MatchConfigStruct_69(D)->ResetOnMatch
 1648 00c6 002B     		cmp	r3, #0	@ _24,
 1649 00c8 0ED0     		beq	.L89	@,
 1650              	@ core/lpc17xx_timer.c:412: 		TIMx->MCR |= TIM_RESET_ON_MATCH(TIM_MatchConfigStruct->MatchChannel);
 412:core/lpc17xx_timer.c **** 		TIMx->MCR |= TIM_RESET_ON_MATCH(TIM_MatchConfigStruct->MatchChannel);
 1651              		.loc 1 412 0
 1652 00ca 7B68     		ldr	r3, [r7, #4]	@ tmp196, TIMx
 1653 00cc 5A69     		ldr	r2, [r3, #20]	@ _25, TIMx_66(D)->MCR
 1654 00ce 3B68     		ldr	r3, [r7]	@ tmp197, TIM_MatchConfigStruct
 1655 00d0 1B78     		ldrb	r3, [r3]	@ zero_extendqisi2	@ _26, TIM_MatchConfigStruct_69(D)->MatchChannel
 1656 00d2 1946     		mov	r1, r3	@ _27, _26
 1657 00d4 0B46     		mov	r3, r1	@ tmp198, _27
 1658 00d6 5B00     		lsls	r3, r3, #1	@ tmp198, tmp198,
 1659 00d8 0B44     		add	r3, r3, r1	@ _28, _27
 1660 00da 0133     		adds	r3, r3, #1	@ _29, _28,
 1661 00dc 0121     		movs	r1, #1	@ tmp199,
 1662 00de 01FA03F3 		lsl	r3, r1, r3	@ _30, tmp199, _29
 1663 00e2 1A43     		orrs	r2, r2, r3	@, _32, _25, _31
 1664 00e4 7B68     		ldr	r3, [r7, #4]	@ tmp200, TIMx
 1665 00e6 5A61     		str	r2, [r3, #20]	@ _32, TIMx_66(D)->MCR
 1666              	.L89:
 1667              	@ core/lpc17xx_timer.c:415: 	if (TIM_MatchConfigStruct->StopOnMatch)
 413:core/lpc17xx_timer.c **** 
 414:core/lpc17xx_timer.c **** 	//stop on MRn
 415:core/lpc17xx_timer.c **** 	if (TIM_MatchConfigStruct->StopOnMatch)
 1668              		.loc 1 415 0
 1669 00e8 3B68     		ldr	r3, [r7]	@ tmp201, TIM_MatchConfigStruct
 1670 00ea 9B78     		ldrb	r3, [r3, #2]	@ zero_extendqisi2	@ _33, TIM_MatchConfigStruct_69(D)->StopOnMatch
 1671 00ec 002B     		cmp	r3, #0	@ _33,
 1672 00ee 0ED0     		beq	.L90	@,
 1673              	@ core/lpc17xx_timer.c:416: 		TIMx->MCR |= TIM_STOP_ON_MATCH(TIM_MatchConfigStruct->MatchChannel);
 416:core/lpc17xx_timer.c **** 		TIMx->MCR |= TIM_STOP_ON_MATCH(TIM_MatchConfigStruct->MatchChannel);
 1674              		.loc 1 416 0
 1675 00f0 7B68     		ldr	r3, [r7, #4]	@ tmp202, TIMx
 1676 00f2 5A69     		ldr	r2, [r3, #20]	@ _34, TIMx_66(D)->MCR
 1677 00f4 3B68     		ldr	r3, [r7]	@ tmp203, TIM_MatchConfigStruct
 1678 00f6 1B78     		ldrb	r3, [r3]	@ zero_extendqisi2	@ _35, TIM_MatchConfigStruct_69(D)->MatchChannel
 1679 00f8 1946     		mov	r1, r3	@ _36, _35
 1680 00fa 0B46     		mov	r3, r1	@ tmp204, _36
ARM GAS  /tmp/ccKti1Oq.s 			page 38


 1681 00fc 5B00     		lsls	r3, r3, #1	@ tmp204, tmp204,
 1682 00fe 0B44     		add	r3, r3, r1	@ _37, _36
 1683 0100 0233     		adds	r3, r3, #2	@ _38, _37,
 1684 0102 0121     		movs	r1, #1	@ tmp205,
 1685 0104 01FA03F3 		lsl	r3, r1, r3	@ _39, tmp205, _38
 1686 0108 1A43     		orrs	r2, r2, r3	@, _41, _34, _40
 1687 010a 7B68     		ldr	r3, [r7, #4]	@ tmp206, TIMx
 1688 010c 5A61     		str	r2, [r3, #20]	@ _41, TIMx_66(D)->MCR
 1689              	.L90:
 1690              	@ core/lpc17xx_timer.c:421: 	TIMx->EMR 	&= ~TIM_EM_MASK(TIM_MatchConfigStruct->MatchChannel);
 417:core/lpc17xx_timer.c **** //	TIMx->MCR = 0x02;
 418:core/lpc17xx_timer.c **** 
 419:core/lpc17xx_timer.c **** 	// match output type
 420:core/lpc17xx_timer.c **** 
 421:core/lpc17xx_timer.c **** 	TIMx->EMR 	&= ~TIM_EM_MASK(TIM_MatchConfigStruct->MatchChannel);
 1691              		.loc 1 421 0
 1692 010e 7B68     		ldr	r3, [r7, #4]	@ tmp207, TIMx
 1693 0110 DB6B     		ldr	r3, [r3, #60]	@ _42, TIMx_66(D)->EMR
 1694 0112 3A68     		ldr	r2, [r7]	@ tmp208, TIM_MatchConfigStruct
 1695 0114 1278     		ldrb	r2, [r2]	@ zero_extendqisi2	@ _43, TIM_MatchConfigStruct_69(D)->MatchChannel
 1696 0116 5200     		lsls	r2, r2, #1	@ _45, _44,
 1697 0118 0432     		adds	r2, r2, #4	@ _46, _45,
 1698 011a 0321     		movs	r1, #3	@ tmp209,
 1699 011c 01FA02F2 		lsl	r2, r1, r2	@ _47, tmp209, _46
 1700 0120 D243     		mvns	r2, r2	@ _48, _47
 1701 0122 1A40     		ands	r2, r2, r3	@, _50, _49, _42
 1702 0124 7B68     		ldr	r3, [r7, #4]	@ tmp210, TIMx
 1703 0126 DA63     		str	r2, [r3, #60]	@ _50, TIMx_66(D)->EMR
 1704              	@ core/lpc17xx_timer.c:422: 	TIMx->EMR    = TIM_EM_SET(TIM_MatchConfigStruct->MatchChannel,TIM_Matc
 422:core/lpc17xx_timer.c **** 	TIMx->EMR    = TIM_EM_SET(TIM_MatchConfigStruct->MatchChannel,TIM_MatchConfigStruct->ExtMatchOutpu
 1705              		.loc 1 422 0
 1706 0128 3B68     		ldr	r3, [r7]	@ tmp211, TIM_MatchConfigStruct
 1707 012a 1B79     		ldrb	r3, [r3, #4]	@ zero_extendqisi2	@ _51, TIM_MatchConfigStruct_69(D)->ExtMatchOutputType
 1708 012c 03F00302 		and	r2, r3, #3	@ _53, _52,
 1709 0130 3B68     		ldr	r3, [r7]	@ tmp212, TIM_MatchConfigStruct
 1710 0132 1B78     		ldrb	r3, [r3]	@ zero_extendqisi2	@ _54, TIM_MatchConfigStruct_69(D)->MatchChannel
 1711 0134 5B00     		lsls	r3, r3, #1	@ _56, _55,
 1712 0136 0433     		adds	r3, r3, #4	@ _57, _56,
 1713 0138 02FA03F3 		lsl	r3, r2, r3	@ _58, _53, _57
 1714 013c 1A46     		mov	r2, r3	@ _59, _58
 1715 013e 7B68     		ldr	r3, [r7, #4]	@ tmp213, TIMx
 1716 0140 DA63     		str	r2, [r3, #60]	@ _59, TIMx_66(D)->EMR
 1717              	@ core/lpc17xx_timer.c:423: }
 423:core/lpc17xx_timer.c **** }
 1718              		.loc 1 423 0
 1719 0142 00BF     		nop
 1720 0144 1037     		adds	r7, r7, #16	@,,
 1721              		.cfi_def_cfa_offset 8
 1722 0146 BD46     		mov	sp, r7	@,
 1723              		.cfi_def_cfa_register 13
 1724              		@ sp needed	@
 1725 0148 80BD     		pop	{r7, pc}	@
 1726              	.L92:
 1727 014a 00BF     		.align	2
 1728              	.L91:
 1729 014c 00800040 		.word	1073774592
 1730 0150 00000940 		.word	1074331648
ARM GAS  /tmp/ccKti1Oq.s 			page 39


 1731 0154 00400940 		.word	1074348032
 1732 0158 00000000 		.word	.LC0
 1733              		.cfi_endproc
 1734              	.LFE67:
 1735              		.size	TIM_ConfigMatch, .-TIM_ConfigMatch
 1736              		.section	.text.TIM_ConfigCapture,"ax",%progbits
 1737              		.align	1
 1738              		.global	TIM_ConfigCapture
 1739              		.syntax unified
 1740              		.thumb
 1741              		.thumb_func
 1742              		.fpu softvfp
 1743              		.type	TIM_ConfigCapture, %function
 1744              	TIM_ConfigCapture:
 1745              	.LFB68:
 424:core/lpc17xx_timer.c **** /*********************************************************************//**
 425:core/lpc17xx_timer.c ****  * @brief 		Configuration for Capture register
 426:core/lpc17xx_timer.c ****  * @param[in]	TIMx Pointer to timer device
 427:core/lpc17xx_timer.c ****  * 					- CaptureChannel: set the channel to capture data
 428:core/lpc17xx_timer.c ****  * 					- RisingEdge    : if SET, Capture at rising edge
 429:core/lpc17xx_timer.c ****  * 					- FallingEdge	: if SET, Capture at falling edge
 430:core/lpc17xx_timer.c ****  * 					- IntOnCaption  : if SET, Capture generate interrupt
 431:core/lpc17xx_timer.c ****  * @param[in]   TIM_CaptureConfigStruct	Pointer to TIM_CAPTURECFG_Type
 432:core/lpc17xx_timer.c ****  * @return 		None
 433:core/lpc17xx_timer.c ****  **********************************************************************/
 434:core/lpc17xx_timer.c **** void TIM_ConfigCapture(LPC_TIM_TypeDef *TIMx, TIM_CAPTURECFG_Type *TIM_CaptureConfigStruct)
 435:core/lpc17xx_timer.c **** {
 1746              		.loc 1 435 0
 1747              		.cfi_startproc
 1748              		@ args = 0, pretend = 0, frame = 16
 1749              		@ frame_needed = 1, uses_anonymous_args = 0
 1750 0000 80B5     		push	{r7, lr}	@
 1751              		.cfi_def_cfa_offset 8
 1752              		.cfi_offset 7, -8
 1753              		.cfi_offset 14, -4
 1754 0002 84B0     		sub	sp, sp, #16	@,,
 1755              		.cfi_def_cfa_offset 24
 1756 0004 00AF     		add	r7, sp, #0	@,,
 1757              		.cfi_def_cfa_register 7
 1758 0006 7860     		str	r0, [r7, #4]	@ TIMx, TIMx
 1759 0008 3960     		str	r1, [r7]	@ TIM_CaptureConfigStruct, TIM_CaptureConfigStruct
 1760              	@ core/lpc17xx_timer.c:438: 	CHECK_PARAM(PARAM_TIMx(TIMx));
 436:core/lpc17xx_timer.c **** 	uint32_t timer;
 437:core/lpc17xx_timer.c **** 
 438:core/lpc17xx_timer.c **** 	CHECK_PARAM(PARAM_TIMx(TIMx));
 1761              		.loc 1 438 0
 1762 000a 7B68     		ldr	r3, [r7, #4]	@ tmp143, TIMx
 1763 000c B3F1402F 		cmp	r3, #1073758208	@ tmp143,
 1764 0010 10D0     		beq	.L94	@,
 1765              	@ core/lpc17xx_timer.c:438: 	CHECK_PARAM(PARAM_TIMx(TIMx));
 1766              		.loc 1 438 0 is_stmt 0 discriminator 1
 1767 0012 7B68     		ldr	r3, [r7, #4]	@ tmp144, TIMx
 1768 0014 2D4A     		ldr	r2, .L99	@ tmp145,
 1769 0016 9342     		cmp	r3, r2	@ tmp144, tmp145
 1770 0018 0CD0     		beq	.L94	@,
 1771              	@ core/lpc17xx_timer.c:438: 	CHECK_PARAM(PARAM_TIMx(TIMx));
 1772              		.loc 1 438 0 discriminator 2
ARM GAS  /tmp/ccKti1Oq.s 			page 40


 1773 001a 7B68     		ldr	r3, [r7, #4]	@ tmp146, TIMx
 1774 001c 2C4A     		ldr	r2, .L99+4	@ tmp147,
 1775 001e 9342     		cmp	r3, r2	@ tmp146, tmp147
 1776 0020 08D0     		beq	.L94	@,
 1777              	@ core/lpc17xx_timer.c:438: 	CHECK_PARAM(PARAM_TIMx(TIMx));
 1778              		.loc 1 438 0 discriminator 3
 1779 0022 7B68     		ldr	r3, [r7, #4]	@ tmp148, TIMx
 1780 0024 2B4A     		ldr	r2, .L99+8	@ tmp149,
 1781 0026 9342     		cmp	r3, r2	@ tmp148, tmp149
 1782 0028 04D0     		beq	.L94	@,
 1783              	@ core/lpc17xx_timer.c:438: 	CHECK_PARAM(PARAM_TIMx(TIMx));
 1784              		.loc 1 438 0 discriminator 4
 1785 002a 4FF4DB71 		mov	r1, #438	@,
 1786 002e 2A48     		ldr	r0, .L99+12	@,
 1787 0030 FFF7FEFF 		bl	check_failed	@
 1788              	.L94:
 1789              	@ core/lpc17xx_timer.c:439: 	timer = TIM_ConverPtrToTimeNum(TIMx) ;
 439:core/lpc17xx_timer.c **** 	timer = TIM_ConverPtrToTimeNum(TIMx) ;
 1790              		.loc 1 439 0 is_stmt 1
 1791 0034 7868     		ldr	r0, [r7, #4]	@, TIMx
 1792 0036 FFF7FEFF 		bl	TIM_ConverPtrToTimeNum	@
 1793 003a F860     		str	r0, [r7, #12]	@, timer
 1794              	@ core/lpc17xx_timer.c:440: 	TIMx->CCR &= ~TIM_CCR_CHANNEL_MASKBIT(TIM_CaptureConfigStruct->Capture
 440:core/lpc17xx_timer.c **** 	TIMx->CCR &= ~TIM_CCR_CHANNEL_MASKBIT(TIM_CaptureConfigStruct->CaptureChannel);
 1795              		.loc 1 440 0
 1796 003c 7B68     		ldr	r3, [r7, #4]	@ tmp150, TIMx
 1797 003e 9A6A     		ldr	r2, [r3, #40]	@ _1, TIMx_38(D)->CCR
 1798 0040 3B68     		ldr	r3, [r7]	@ tmp151, TIM_CaptureConfigStruct
 1799 0042 1B78     		ldrb	r3, [r3]	@ zero_extendqisi2	@ _2, TIM_CaptureConfigStruct_43(D)->CaptureChannel
 1800 0044 1946     		mov	r1, r3	@ _3, _2
 1801 0046 0723     		movs	r3, #7	@ tmp152,
 1802 0048 8B40     		lsls	r3, r3, r1	@ _4, tmp152, _3
 1803 004a DB43     		mvns	r3, r3	@ _6, _5
 1804 004c 1A40     		ands	r2, r2, r3	@, _7, _1, _6
 1805 004e 7B68     		ldr	r3, [r7, #4]	@ tmp153, TIMx
 1806 0050 9A62     		str	r2, [r3, #40]	@ _7, TIMx_38(D)->CCR
 1807              	@ core/lpc17xx_timer.c:442: 	if (TIM_CaptureConfigStruct->RisingEdge)
 441:core/lpc17xx_timer.c **** 
 442:core/lpc17xx_timer.c **** 	if (TIM_CaptureConfigStruct->RisingEdge)
 1808              		.loc 1 442 0
 1809 0052 3B68     		ldr	r3, [r7]	@ tmp154, TIM_CaptureConfigStruct
 1810 0054 5B78     		ldrb	r3, [r3, #1]	@ zero_extendqisi2	@ _8, TIM_CaptureConfigStruct_43(D)->RisingEdge
 1811 0056 002B     		cmp	r3, #0	@ _8,
 1812 0058 0DD0     		beq	.L95	@,
 1813              	@ core/lpc17xx_timer.c:443: 		TIMx->CCR |= TIM_CAP_RISING(TIM_CaptureConfigStruct->CaptureChannel);
 443:core/lpc17xx_timer.c **** 		TIMx->CCR |= TIM_CAP_RISING(TIM_CaptureConfigStruct->CaptureChannel);
 1814              		.loc 1 443 0
 1815 005a 7B68     		ldr	r3, [r7, #4]	@ tmp155, TIMx
 1816 005c 9A6A     		ldr	r2, [r3, #40]	@ _9, TIMx_38(D)->CCR
 1817 005e 3B68     		ldr	r3, [r7]	@ tmp156, TIM_CaptureConfigStruct
 1818 0060 1B78     		ldrb	r3, [r3]	@ zero_extendqisi2	@ _10, TIM_CaptureConfigStruct_43(D)->CaptureChannel
 1819 0062 1946     		mov	r1, r3	@ _11, _10
 1820 0064 0B46     		mov	r3, r1	@ tmp157, _11
 1821 0066 5B00     		lsls	r3, r3, #1	@ tmp157, tmp157,
 1822 0068 0B44     		add	r3, r3, r1	@ _12, _11
 1823 006a 0121     		movs	r1, #1	@ tmp158,
 1824 006c 01FA03F3 		lsl	r3, r1, r3	@ _13, tmp158, _12
ARM GAS  /tmp/ccKti1Oq.s 			page 41


 1825 0070 1A43     		orrs	r2, r2, r3	@, _15, _9, _14
 1826 0072 7B68     		ldr	r3, [r7, #4]	@ tmp159, TIMx
 1827 0074 9A62     		str	r2, [r3, #40]	@ _15, TIMx_38(D)->CCR
 1828              	.L95:
 1829              	@ core/lpc17xx_timer.c:445: 	if (TIM_CaptureConfigStruct->FallingEdge)
 444:core/lpc17xx_timer.c **** 
 445:core/lpc17xx_timer.c **** 	if (TIM_CaptureConfigStruct->FallingEdge)
 1830              		.loc 1 445 0
 1831 0076 3B68     		ldr	r3, [r7]	@ tmp160, TIM_CaptureConfigStruct
 1832 0078 9B78     		ldrb	r3, [r3, #2]	@ zero_extendqisi2	@ _16, TIM_CaptureConfigStruct_43(D)->FallingEdge
 1833 007a 002B     		cmp	r3, #0	@ _16,
 1834 007c 0ED0     		beq	.L96	@,
 1835              	@ core/lpc17xx_timer.c:446: 		TIMx->CCR |= TIM_CAP_FALLING(TIM_CaptureConfigStruct->CaptureChannel)
 446:core/lpc17xx_timer.c **** 		TIMx->CCR |= TIM_CAP_FALLING(TIM_CaptureConfigStruct->CaptureChannel);
 1836              		.loc 1 446 0
 1837 007e 7B68     		ldr	r3, [r7, #4]	@ tmp161, TIMx
 1838 0080 9A6A     		ldr	r2, [r3, #40]	@ _17, TIMx_38(D)->CCR
 1839 0082 3B68     		ldr	r3, [r7]	@ tmp162, TIM_CaptureConfigStruct
 1840 0084 1B78     		ldrb	r3, [r3]	@ zero_extendqisi2	@ _18, TIM_CaptureConfigStruct_43(D)->CaptureChannel
 1841 0086 1946     		mov	r1, r3	@ _19, _18
 1842 0088 0B46     		mov	r3, r1	@ tmp163, _19
 1843 008a 5B00     		lsls	r3, r3, #1	@ tmp163, tmp163,
 1844 008c 0B44     		add	r3, r3, r1	@ _20, _19
 1845 008e 0133     		adds	r3, r3, #1	@ _21, _20,
 1846 0090 0121     		movs	r1, #1	@ tmp164,
 1847 0092 01FA03F3 		lsl	r3, r1, r3	@ _22, tmp164, _21
 1848 0096 1A43     		orrs	r2, r2, r3	@, _24, _17, _23
 1849 0098 7B68     		ldr	r3, [r7, #4]	@ tmp165, TIMx
 1850 009a 9A62     		str	r2, [r3, #40]	@ _24, TIMx_38(D)->CCR
 1851              	.L96:
 1852              	@ core/lpc17xx_timer.c:448: 	if (TIM_CaptureConfigStruct->IntOnCaption)
 447:core/lpc17xx_timer.c **** 
 448:core/lpc17xx_timer.c **** 	if (TIM_CaptureConfigStruct->IntOnCaption)
 1853              		.loc 1 448 0
 1854 009c 3B68     		ldr	r3, [r7]	@ tmp166, TIM_CaptureConfigStruct
 1855 009e DB78     		ldrb	r3, [r3, #3]	@ zero_extendqisi2	@ _25, TIM_CaptureConfigStruct_43(D)->IntOnCaption
 1856 00a0 002B     		cmp	r3, #0	@ _25,
 1857 00a2 0ED0     		beq	.L98	@,
 1858              	@ core/lpc17xx_timer.c:449: 		TIMx->CCR |= TIM_INT_ON_CAP(TIM_CaptureConfigStruct->CaptureChannel);
 449:core/lpc17xx_timer.c **** 		TIMx->CCR |= TIM_INT_ON_CAP(TIM_CaptureConfigStruct->CaptureChannel);
 1859              		.loc 1 449 0
 1860 00a4 7B68     		ldr	r3, [r7, #4]	@ tmp167, TIMx
 1861 00a6 9A6A     		ldr	r2, [r3, #40]	@ _26, TIMx_38(D)->CCR
 1862 00a8 3B68     		ldr	r3, [r7]	@ tmp168, TIM_CaptureConfigStruct
 1863 00aa 1B78     		ldrb	r3, [r3]	@ zero_extendqisi2	@ _27, TIM_CaptureConfigStruct_43(D)->CaptureChannel
 1864 00ac 1946     		mov	r1, r3	@ _28, _27
 1865 00ae 0B46     		mov	r3, r1	@ tmp169, _28
 1866 00b0 5B00     		lsls	r3, r3, #1	@ tmp169, tmp169,
 1867 00b2 0B44     		add	r3, r3, r1	@ _29, _28
 1868 00b4 0233     		adds	r3, r3, #2	@ _30, _29,
 1869 00b6 0121     		movs	r1, #1	@ tmp170,
 1870 00b8 01FA03F3 		lsl	r3, r1, r3	@ _31, tmp170, _30
 1871 00bc 1A43     		orrs	r2, r2, r3	@, _33, _26, _32
 1872 00be 7B68     		ldr	r3, [r7, #4]	@ tmp171, TIMx
 1873 00c0 9A62     		str	r2, [r3, #40]	@ _33, TIMx_38(D)->CCR
 1874              	.L98:
 1875              	@ core/lpc17xx_timer.c:450: }
ARM GAS  /tmp/ccKti1Oq.s 			page 42


 450:core/lpc17xx_timer.c **** }
 1876              		.loc 1 450 0
 1877 00c2 00BF     		nop
 1878 00c4 1037     		adds	r7, r7, #16	@,,
 1879              		.cfi_def_cfa_offset 8
 1880 00c6 BD46     		mov	sp, r7	@,
 1881              		.cfi_def_cfa_register 13
 1882              		@ sp needed	@
 1883 00c8 80BD     		pop	{r7, pc}	@
 1884              	.L100:
 1885 00ca 00BF     		.align	2
 1886              	.L99:
 1887 00cc 00800040 		.word	1073774592
 1888 00d0 00000940 		.word	1074331648
 1889 00d4 00400940 		.word	1074348032
 1890 00d8 00000000 		.word	.LC0
 1891              		.cfi_endproc
 1892              	.LFE68:
 1893              		.size	TIM_ConfigCapture, .-TIM_ConfigCapture
 1894              		.section	.text.TIM_GetCaptureValue,"ax",%progbits
 1895              		.align	1
 1896              		.global	TIM_GetCaptureValue
 1897              		.syntax unified
 1898              		.thumb
 1899              		.thumb_func
 1900              		.fpu softvfp
 1901              		.type	TIM_GetCaptureValue, %function
 1902              	TIM_GetCaptureValue:
 1903              	.LFB69:
 451:core/lpc17xx_timer.c **** 
 452:core/lpc17xx_timer.c **** /*********************************************************************//**
 453:core/lpc17xx_timer.c ****  * @brief 		Read value of capture register in timer/counter device
 454:core/lpc17xx_timer.c ****  * @param[in]	TIMx Pointer to timer/counter device
 455:core/lpc17xx_timer.c ****  * @param[in]	CaptureChannel: capture channel number
 456:core/lpc17xx_timer.c ****  * @return 		Value of capture register
 457:core/lpc17xx_timer.c ****  **********************************************************************/
 458:core/lpc17xx_timer.c **** uint32_t TIM_GetCaptureValue(LPC_TIM_TypeDef *TIMx, uint8_t CaptureChannel)
 459:core/lpc17xx_timer.c **** {
 1904              		.loc 1 459 0
 1905              		.cfi_startproc
 1906              		@ args = 0, pretend = 0, frame = 8
 1907              		@ frame_needed = 1, uses_anonymous_args = 0
 1908 0000 80B5     		push	{r7, lr}	@
 1909              		.cfi_def_cfa_offset 8
 1910              		.cfi_offset 7, -8
 1911              		.cfi_offset 14, -4
 1912 0002 82B0     		sub	sp, sp, #8	@,,
 1913              		.cfi_def_cfa_offset 16
 1914 0004 00AF     		add	r7, sp, #0	@,,
 1915              		.cfi_def_cfa_register 7
 1916 0006 7860     		str	r0, [r7, #4]	@ TIMx, TIMx
 1917 0008 0B46     		mov	r3, r1	@ tmp112, CaptureChannel
 1918 000a FB70     		strb	r3, [r7, #3]	@ tmp113, CaptureChannel
 1919              	@ core/lpc17xx_timer.c:460: 	CHECK_PARAM(PARAM_TIMx(TIMx));
 460:core/lpc17xx_timer.c **** 	CHECK_PARAM(PARAM_TIMx(TIMx));
 1920              		.loc 1 460 0
 1921 000c 7B68     		ldr	r3, [r7, #4]	@ tmp114, TIMx
ARM GAS  /tmp/ccKti1Oq.s 			page 43


 1922 000e B3F1402F 		cmp	r3, #1073758208	@ tmp114,
 1923 0012 10D0     		beq	.L102	@,
 1924              	@ core/lpc17xx_timer.c:460: 	CHECK_PARAM(PARAM_TIMx(TIMx));
 1925              		.loc 1 460 0 is_stmt 0 discriminator 1
 1926 0014 7B68     		ldr	r3, [r7, #4]	@ tmp115, TIMx
 1927 0016 134A     		ldr	r2, .L106	@ tmp116,
 1928 0018 9342     		cmp	r3, r2	@ tmp115, tmp116
 1929 001a 0CD0     		beq	.L102	@,
 1930              	@ core/lpc17xx_timer.c:460: 	CHECK_PARAM(PARAM_TIMx(TIMx));
 1931              		.loc 1 460 0 discriminator 2
 1932 001c 7B68     		ldr	r3, [r7, #4]	@ tmp117, TIMx
 1933 001e 124A     		ldr	r2, .L106+4	@ tmp118,
 1934 0020 9342     		cmp	r3, r2	@ tmp117, tmp118
 1935 0022 08D0     		beq	.L102	@,
 1936              	@ core/lpc17xx_timer.c:460: 	CHECK_PARAM(PARAM_TIMx(TIMx));
 1937              		.loc 1 460 0 discriminator 3
 1938 0024 7B68     		ldr	r3, [r7, #4]	@ tmp119, TIMx
 1939 0026 114A     		ldr	r2, .L106+8	@ tmp120,
 1940 0028 9342     		cmp	r3, r2	@ tmp119, tmp120
 1941 002a 04D0     		beq	.L102	@,
 1942              	@ core/lpc17xx_timer.c:460: 	CHECK_PARAM(PARAM_TIMx(TIMx));
 1943              		.loc 1 460 0 discriminator 4
 1944 002c 4FF4E671 		mov	r1, #460	@,
 1945 0030 0F48     		ldr	r0, .L106+12	@,
 1946 0032 FFF7FEFF 		bl	check_failed	@
 1947              	.L102:
 1948              	@ core/lpc17xx_timer.c:461: 	CHECK_PARAM(PARAM_TIM_COUNTER_INPUT_OPT(CaptureChannel));
 461:core/lpc17xx_timer.c **** 	CHECK_PARAM(PARAM_TIM_COUNTER_INPUT_OPT(CaptureChannel));
 1949              		.loc 1 461 0 is_stmt 1
 1950 0036 FB78     		ldrb	r3, [r7, #3]	@ zero_extendqisi2	@ tmp121, CaptureChannel
 1951 0038 002B     		cmp	r3, #0	@ tmp121,
 1952 003a 07D0     		beq	.L103	@,
 1953              	@ core/lpc17xx_timer.c:461: 	CHECK_PARAM(PARAM_TIM_COUNTER_INPUT_OPT(CaptureChannel));
 1954              		.loc 1 461 0 is_stmt 0 discriminator 1
 1955 003c FB78     		ldrb	r3, [r7, #3]	@ zero_extendqisi2	@ tmp122, CaptureChannel
 1956 003e 012B     		cmp	r3, #1	@ tmp122,
 1957 0040 04D0     		beq	.L103	@,
 1958              	@ core/lpc17xx_timer.c:461: 	CHECK_PARAM(PARAM_TIM_COUNTER_INPUT_OPT(CaptureChannel));
 1959              		.loc 1 461 0 discriminator 2
 1960 0042 40F2CD11 		movw	r1, #461	@,
 1961 0046 0A48     		ldr	r0, .L106+12	@,
 1962 0048 FFF7FEFF 		bl	check_failed	@
 1963              	.L103:
 1964              	@ core/lpc17xx_timer.c:463: 	if(CaptureChannel==0)
 462:core/lpc17xx_timer.c **** 
 463:core/lpc17xx_timer.c **** 	if(CaptureChannel==0)
 1965              		.loc 1 463 0 is_stmt 1
 1966 004c FB78     		ldrb	r3, [r7, #3]	@ zero_extendqisi2	@ tmp123, CaptureChannel
 1967 004e 002B     		cmp	r3, #0	@ tmp123,
 1968 0050 02D1     		bne	.L104	@,
 1969              	@ core/lpc17xx_timer.c:464: 		return TIMx->CR0;
 464:core/lpc17xx_timer.c **** 		return TIMx->CR0;
 1970              		.loc 1 464 0
 1971 0052 7B68     		ldr	r3, [r7, #4]	@ tmp124, TIMx
 1972 0054 DB6A     		ldr	r3, [r3, #44]	@ _1, TIMx_4(D)->CR0
 1973 0056 01E0     		b	.L105	@
 1974              	.L104:
ARM GAS  /tmp/ccKti1Oq.s 			page 44


 1975              	@ core/lpc17xx_timer.c:466: 		return TIMx->CR1;
 465:core/lpc17xx_timer.c **** 	else
 466:core/lpc17xx_timer.c **** 		return TIMx->CR1;
 1976              		.loc 1 466 0
 1977 0058 7B68     		ldr	r3, [r7, #4]	@ tmp125, TIMx
 1978 005a 1B6B     		ldr	r3, [r3, #48]	@ _1, TIMx_4(D)->CR1
 1979              	.L105:
 1980              	@ core/lpc17xx_timer.c:467: }
 467:core/lpc17xx_timer.c **** }
 1981              		.loc 1 467 0
 1982 005c 1846     		mov	r0, r3	@, <retval>
 1983 005e 0837     		adds	r7, r7, #8	@,,
 1984              		.cfi_def_cfa_offset 8
 1985 0060 BD46     		mov	sp, r7	@,
 1986              		.cfi_def_cfa_register 13
 1987              		@ sp needed	@
 1988 0062 80BD     		pop	{r7, pc}	@
 1989              	.L107:
 1990              		.align	2
 1991              	.L106:
 1992 0064 00800040 		.word	1073774592
 1993 0068 00000940 		.word	1074331648
 1994 006c 00400940 		.word	1074348032
 1995 0070 00000000 		.word	.LC0
 1996              		.cfi_endproc
 1997              	.LFE69:
 1998              		.size	TIM_GetCaptureValue, .-TIM_GetCaptureValue
 1999              		.section	.text.Timer0_Wait,"ax",%progbits
 2000              		.align	1
 2001              		.global	Timer0_Wait
 2002              		.syntax unified
 2003              		.thumb
 2004              		.thumb_func
 2005              		.fpu softvfp
 2006              		.type	Timer0_Wait, %function
 2007              	Timer0_Wait:
 2008              	.LFB70:
 468:core/lpc17xx_timer.c **** 
 469:core/lpc17xx_timer.c **** /**
 470:core/lpc17xx_timer.c ****  * @}
 471:core/lpc17xx_timer.c ****  */
 472:core/lpc17xx_timer.c **** 
 473:core/lpc17xx_timer.c **** 
 474:core/lpc17xx_timer.c **** void Timer0_Wait(uint32_t time)
 475:core/lpc17xx_timer.c **** {
 2009              		.loc 1 475 0
 2010              		.cfi_startproc
 2011              		@ args = 0, pretend = 0, frame = 32
 2012              		@ frame_needed = 1, uses_anonymous_args = 0
 2013 0000 80B5     		push	{r7, lr}	@
 2014              		.cfi_def_cfa_offset 8
 2015              		.cfi_offset 7, -8
 2016              		.cfi_offset 14, -4
 2017 0002 88B0     		sub	sp, sp, #32	@,,
 2018              		.cfi_def_cfa_offset 40
 2019 0004 00AF     		add	r7, sp, #0	@,,
 2020              		.cfi_def_cfa_register 7
ARM GAS  /tmp/ccKti1Oq.s 			page 45


 2021 0006 7860     		str	r0, [r7, #4]	@ time, time
 2022              	@ core/lpc17xx_timer.c:480: 	TIM_ConfigStruct.PrescaleOption = TIM_PRESCALE_USVAL;
 476:core/lpc17xx_timer.c **** 	TIM_TIMERCFG_Type TIM_ConfigStruct;
 477:core/lpc17xx_timer.c **** 	TIM_MATCHCFG_Type TIM_MatchConfigStruct ;
 478:core/lpc17xx_timer.c **** 
 479:core/lpc17xx_timer.c **** // Initialize timer 0, prescale count time of 1ms
 480:core/lpc17xx_timer.c **** 	TIM_ConfigStruct.PrescaleOption = TIM_PRESCALE_USVAL;
 2023              		.loc 1 480 0
 2024 0008 0123     		movs	r3, #1	@ tmp111,
 2025 000a 3B76     		strb	r3, [r7, #24]	@ tmp112, TIM_ConfigStruct.PrescaleOption
 2026              	@ core/lpc17xx_timer.c:481: 	TIM_ConfigStruct.PrescaleValue	= 1000;
 481:core/lpc17xx_timer.c **** 	TIM_ConfigStruct.PrescaleValue	= 1000;
 2027              		.loc 1 481 0
 2028 000c 4FF47A73 		mov	r3, #1000	@ tmp113,
 2029 0010 FB61     		str	r3, [r7, #28]	@ tmp113, TIM_ConfigStruct.PrescaleValue
 2030              	@ core/lpc17xx_timer.c:483: 	TIM_MatchConfigStruct.MatchChannel = 0;
 482:core/lpc17xx_timer.c **** 	// use channel 0, MR0
 483:core/lpc17xx_timer.c **** 	TIM_MatchConfigStruct.MatchChannel = 0;
 2031              		.loc 1 483 0
 2032 0012 0023     		movs	r3, #0	@ tmp114,
 2033 0014 3B73     		strb	r3, [r7, #12]	@ tmp115, TIM_MatchConfigStruct.MatchChannel
 2034              	@ core/lpc17xx_timer.c:485: 	TIM_MatchConfigStruct.IntOnMatch   = TRUE;
 484:core/lpc17xx_timer.c **** 	// Enable interrupt when MR0 matches the value in TC register
 485:core/lpc17xx_timer.c **** 	TIM_MatchConfigStruct.IntOnMatch   = TRUE;
 2035              		.loc 1 485 0
 2036 0016 0123     		movs	r3, #1	@ tmp116,
 2037 0018 7B73     		strb	r3, [r7, #13]	@ tmp117, TIM_MatchConfigStruct.IntOnMatch
 2038              	@ core/lpc17xx_timer.c:487: 	TIM_MatchConfigStruct.ResetOnMatch = FALSE;
 486:core/lpc17xx_timer.c **** 	//Enable reset on MR0: TIMER will not reset if MR0 matches it
 487:core/lpc17xx_timer.c **** 	TIM_MatchConfigStruct.ResetOnMatch = FALSE;
 2039              		.loc 1 487 0
 2040 001a 0023     		movs	r3, #0	@ tmp118,
 2041 001c FB73     		strb	r3, [r7, #15]	@ tmp119, TIM_MatchConfigStruct.ResetOnMatch
 2042              	@ core/lpc17xx_timer.c:489: 	TIM_MatchConfigStruct.StopOnMatch  = TRUE;
 488:core/lpc17xx_timer.c **** 	//Stop on MR0 if MR0 matches it
 489:core/lpc17xx_timer.c **** 	TIM_MatchConfigStruct.StopOnMatch  = TRUE;
 2043              		.loc 1 489 0
 2044 001e 0123     		movs	r3, #1	@ tmp120,
 2045 0020 BB73     		strb	r3, [r7, #14]	@ tmp121, TIM_MatchConfigStruct.StopOnMatch
 2046              	@ core/lpc17xx_timer.c:491: 	TIM_MatchConfigStruct.ExtMatchOutputType =TIM_EXTMATCH_NOTHING;
 490:core/lpc17xx_timer.c **** 	//do no thing for external output
 491:core/lpc17xx_timer.c **** 	TIM_MatchConfigStruct.ExtMatchOutputType =TIM_EXTMATCH_NOTHING;
 2047              		.loc 1 491 0
 2048 0022 0023     		movs	r3, #0	@ tmp122,
 2049 0024 3B74     		strb	r3, [r7, #16]	@ tmp123, TIM_MatchConfigStruct.ExtMatchOutputType
 2050              	@ core/lpc17xx_timer.c:493: 	TIM_MatchConfigStruct.MatchValue   = time;
 492:core/lpc17xx_timer.c **** 	// Set Match value, count value is time (timer * 1000uS =timer mS )
 493:core/lpc17xx_timer.c **** 	TIM_MatchConfigStruct.MatchValue   = time;
 2051              		.loc 1 493 0
 2052 0026 7B68     		ldr	r3, [r7, #4]	@ tmp124, time
 2053 0028 7B61     		str	r3, [r7, #20]	@ tmp124, TIM_MatchConfigStruct.MatchValue
 2054              	@ core/lpc17xx_timer.c:496: 	TIM_Init(LPC_TIM0, TIM_TIMER_MODE,&TIM_ConfigStruct);
 494:core/lpc17xx_timer.c **** 
 495:core/lpc17xx_timer.c **** 	// Set configuration for Tim_config and Tim_MatchConfig
 496:core/lpc17xx_timer.c **** 	TIM_Init(LPC_TIM0, TIM_TIMER_MODE,&TIM_ConfigStruct);
 2055              		.loc 1 496 0
 2056 002a 07F11803 		add	r3, r7, #24	@ tmp125,,
ARM GAS  /tmp/ccKti1Oq.s 			page 46


 2057 002e 1A46     		mov	r2, r3	@, tmp125
 2058 0030 0021     		movs	r1, #0	@,
 2059 0032 4FF04020 		mov	r0, #1073758208	@,
 2060 0036 FFF7FEFF 		bl	TIM_Init	@
 2061              	@ core/lpc17xx_timer.c:497: 	TIM_ConfigMatch(LPC_TIM0,&TIM_MatchConfigStruct);
 497:core/lpc17xx_timer.c **** 	TIM_ConfigMatch(LPC_TIM0,&TIM_MatchConfigStruct);
 2062              		.loc 1 497 0
 2063 003a 07F10C03 		add	r3, r7, #12	@ tmp126,,
 2064 003e 1946     		mov	r1, r3	@, tmp126
 2065 0040 4FF04020 		mov	r0, #1073758208	@,
 2066 0044 FFF7FEFF 		bl	TIM_ConfigMatch	@
 2067              	@ core/lpc17xx_timer.c:499: 	TIM_Cmd(LPC_TIM0,ENABLE);
 498:core/lpc17xx_timer.c **** 	// To start timer 0
 499:core/lpc17xx_timer.c **** 	TIM_Cmd(LPC_TIM0,ENABLE);
 2068              		.loc 1 499 0
 2069 0048 0121     		movs	r1, #1	@,
 2070 004a 4FF04020 		mov	r0, #1073758208	@,
 2071 004e FFF7FEFF 		bl	TIM_Cmd	@
 2072              	@ core/lpc17xx_timer.c:500: 	while ( !(TIM_GetIntStatus(LPC_TIM0,0)));
 500:core/lpc17xx_timer.c **** 	while ( !(TIM_GetIntStatus(LPC_TIM0,0)));
 2073              		.loc 1 500 0
 2074 0052 00BF     		nop
 2075              	.L109:
 2076              	@ core/lpc17xx_timer.c:500: 	while ( !(TIM_GetIntStatus(LPC_TIM0,0)));
 2077              		.loc 1 500 0 is_stmt 0 discriminator 1
 2078 0054 0021     		movs	r1, #0	@,
 2079 0056 4FF04020 		mov	r0, #1073758208	@,
 2080 005a FFF7FEFF 		bl	TIM_GetIntStatus	@
 2081 005e 0346     		mov	r3, r0	@ tmp127,
 2082 0060 002B     		cmp	r3, #0	@ _1,
 2083 0062 F7D0     		beq	.L109	@,
 2084              	@ core/lpc17xx_timer.c:501: 		TIM_ClearIntPending(LPC_TIM0,0);
 501:core/lpc17xx_timer.c **** 		TIM_ClearIntPending(LPC_TIM0,0);
 2085              		.loc 1 501 0 is_stmt 1
 2086 0064 0021     		movs	r1, #0	@,
 2087 0066 4FF04020 		mov	r0, #1073758208	@,
 2088 006a FFF7FEFF 		bl	TIM_ClearIntPending	@
 2089              	@ core/lpc17xx_timer.c:502: }
 502:core/lpc17xx_timer.c **** }
 2090              		.loc 1 502 0
 2091 006e 00BF     		nop
 2092 0070 2037     		adds	r7, r7, #32	@,,
 2093              		.cfi_def_cfa_offset 8
 2094 0072 BD46     		mov	sp, r7	@,
 2095              		.cfi_def_cfa_register 13
 2096              		@ sp needed	@
 2097 0074 80BD     		pop	{r7, pc}	@
 2098              		.cfi_endproc
 2099              	.LFE70:
 2100              		.size	Timer0_Wait, .-Timer0_Wait
 2101              		.section	.text.Timer0_us_Wait,"ax",%progbits
 2102              		.align	1
 2103              		.global	Timer0_us_Wait
 2104              		.syntax unified
 2105              		.thumb
 2106              		.thumb_func
 2107              		.fpu softvfp
ARM GAS  /tmp/ccKti1Oq.s 			page 47


 2108              		.type	Timer0_us_Wait, %function
 2109              	Timer0_us_Wait:
 2110              	.LFB71:
 503:core/lpc17xx_timer.c **** 
 504:core/lpc17xx_timer.c **** void Timer0_us_Wait(uint32_t time)
 505:core/lpc17xx_timer.c **** {
 2111              		.loc 1 505 0
 2112              		.cfi_startproc
 2113              		@ args = 0, pretend = 0, frame = 32
 2114              		@ frame_needed = 1, uses_anonymous_args = 0
 2115 0000 80B5     		push	{r7, lr}	@
 2116              		.cfi_def_cfa_offset 8
 2117              		.cfi_offset 7, -8
 2118              		.cfi_offset 14, -4
 2119 0002 88B0     		sub	sp, sp, #32	@,,
 2120              		.cfi_def_cfa_offset 40
 2121 0004 00AF     		add	r7, sp, #0	@,,
 2122              		.cfi_def_cfa_register 7
 2123 0006 7860     		str	r0, [r7, #4]	@ time, time
 2124              	@ core/lpc17xx_timer.c:510: 	TIM_ConfigStruct.PrescaleOption = TIM_PRESCALE_USVAL;
 506:core/lpc17xx_timer.c **** 	TIM_TIMERCFG_Type TIM_ConfigStruct;
 507:core/lpc17xx_timer.c **** 	TIM_MATCHCFG_Type TIM_MatchConfigStruct ;
 508:core/lpc17xx_timer.c **** 
 509:core/lpc17xx_timer.c **** // Initialize timer 0, prescale count time of 1ms
 510:core/lpc17xx_timer.c **** 	TIM_ConfigStruct.PrescaleOption = TIM_PRESCALE_USVAL;
 2125              		.loc 1 510 0
 2126 0008 0123     		movs	r3, #1	@ tmp111,
 2127 000a 3B76     		strb	r3, [r7, #24]	@ tmp112, TIM_ConfigStruct.PrescaleOption
 2128              	@ core/lpc17xx_timer.c:511: 	TIM_ConfigStruct.PrescaleValue	= 1;
 511:core/lpc17xx_timer.c **** 	TIM_ConfigStruct.PrescaleValue	= 1;
 2129              		.loc 1 511 0
 2130 000c 0123     		movs	r3, #1	@ tmp113,
 2131 000e FB61     		str	r3, [r7, #28]	@ tmp113, TIM_ConfigStruct.PrescaleValue
 2132              	@ core/lpc17xx_timer.c:513: 	TIM_MatchConfigStruct.MatchChannel = 0;
 512:core/lpc17xx_timer.c **** 	// use channel 0, MR0
 513:core/lpc17xx_timer.c **** 	TIM_MatchConfigStruct.MatchChannel = 0;
 2133              		.loc 1 513 0
 2134 0010 0023     		movs	r3, #0	@ tmp114,
 2135 0012 3B73     		strb	r3, [r7, #12]	@ tmp115, TIM_MatchConfigStruct.MatchChannel
 2136              	@ core/lpc17xx_timer.c:515: 	TIM_MatchConfigStruct.IntOnMatch   = TRUE;
 514:core/lpc17xx_timer.c **** 	// Enable interrupt when MR0 matches the value in TC register
 515:core/lpc17xx_timer.c **** 	TIM_MatchConfigStruct.IntOnMatch   = TRUE;
 2137              		.loc 1 515 0
 2138 0014 0123     		movs	r3, #1	@ tmp116,
 2139 0016 7B73     		strb	r3, [r7, #13]	@ tmp117, TIM_MatchConfigStruct.IntOnMatch
 2140              	@ core/lpc17xx_timer.c:517: 	TIM_MatchConfigStruct.ResetOnMatch = FALSE;
 516:core/lpc17xx_timer.c **** 	//Enable reset on MR0: TIMER will not reset if MR0 matches it
 517:core/lpc17xx_timer.c **** 	TIM_MatchConfigStruct.ResetOnMatch = FALSE;
 2141              		.loc 1 517 0
 2142 0018 0023     		movs	r3, #0	@ tmp118,
 2143 001a FB73     		strb	r3, [r7, #15]	@ tmp119, TIM_MatchConfigStruct.ResetOnMatch
 2144              	@ core/lpc17xx_timer.c:519: 	TIM_MatchConfigStruct.StopOnMatch  = TRUE;
 518:core/lpc17xx_timer.c **** 	//Stop on MR0 if MR0 matches it
 519:core/lpc17xx_timer.c **** 	TIM_MatchConfigStruct.StopOnMatch  = TRUE;
 2145              		.loc 1 519 0
 2146 001c 0123     		movs	r3, #1	@ tmp120,
 2147 001e BB73     		strb	r3, [r7, #14]	@ tmp121, TIM_MatchConfigStruct.StopOnMatch
ARM GAS  /tmp/ccKti1Oq.s 			page 48


 2148              	@ core/lpc17xx_timer.c:521: 	TIM_MatchConfigStruct.ExtMatchOutputType =TIM_EXTMATCH_NOTHING;
 520:core/lpc17xx_timer.c **** 	//do no thing for external output
 521:core/lpc17xx_timer.c **** 	TIM_MatchConfigStruct.ExtMatchOutputType =TIM_EXTMATCH_NOTHING;
 2149              		.loc 1 521 0
 2150 0020 0023     		movs	r3, #0	@ tmp122,
 2151 0022 3B74     		strb	r3, [r7, #16]	@ tmp123, TIM_MatchConfigStruct.ExtMatchOutputType
 2152              	@ core/lpc17xx_timer.c:523: 	TIM_MatchConfigStruct.MatchValue   = time;
 522:core/lpc17xx_timer.c **** 	// Set Match value, count value is time (timer * 1000uS =timer mS )
 523:core/lpc17xx_timer.c **** 	TIM_MatchConfigStruct.MatchValue   = time;
 2153              		.loc 1 523 0
 2154 0024 7B68     		ldr	r3, [r7, #4]	@ tmp124, time
 2155 0026 7B61     		str	r3, [r7, #20]	@ tmp124, TIM_MatchConfigStruct.MatchValue
 2156              	@ core/lpc17xx_timer.c:526: 	TIM_Init(LPC_TIM0, TIM_TIMER_MODE,&TIM_ConfigStruct);
 524:core/lpc17xx_timer.c **** 
 525:core/lpc17xx_timer.c **** 	// Set configuration for Tim_config and Tim_MatchConfig
 526:core/lpc17xx_timer.c **** 	TIM_Init(LPC_TIM0, TIM_TIMER_MODE,&TIM_ConfigStruct);
 2157              		.loc 1 526 0
 2158 0028 07F11803 		add	r3, r7, #24	@ tmp125,,
 2159 002c 1A46     		mov	r2, r3	@, tmp125
 2160 002e 0021     		movs	r1, #0	@,
 2161 0030 4FF04020 		mov	r0, #1073758208	@,
 2162 0034 FFF7FEFF 		bl	TIM_Init	@
 2163              	@ core/lpc17xx_timer.c:527: 	TIM_ConfigMatch(LPC_TIM0,&TIM_MatchConfigStruct);
 527:core/lpc17xx_timer.c **** 	TIM_ConfigMatch(LPC_TIM0,&TIM_MatchConfigStruct);
 2164              		.loc 1 527 0
 2165 0038 07F10C03 		add	r3, r7, #12	@ tmp126,,
 2166 003c 1946     		mov	r1, r3	@, tmp126
 2167 003e 4FF04020 		mov	r0, #1073758208	@,
 2168 0042 FFF7FEFF 		bl	TIM_ConfigMatch	@
 2169              	@ core/lpc17xx_timer.c:529: 	TIM_Cmd(LPC_TIM0,ENABLE);
 528:core/lpc17xx_timer.c **** 	// To start timer 0
 529:core/lpc17xx_timer.c **** 	TIM_Cmd(LPC_TIM0,ENABLE);
 2170              		.loc 1 529 0
 2171 0046 0121     		movs	r1, #1	@,
 2172 0048 4FF04020 		mov	r0, #1073758208	@,
 2173 004c FFF7FEFF 		bl	TIM_Cmd	@
 2174              	@ core/lpc17xx_timer.c:530: 	while ( !(TIM_GetIntStatus(LPC_TIM0,0)));
 530:core/lpc17xx_timer.c **** 	while ( !(TIM_GetIntStatus(LPC_TIM0,0)));
 2175              		.loc 1 530 0
 2176 0050 00BF     		nop
 2177              	.L111:
 2178              	@ core/lpc17xx_timer.c:530: 	while ( !(TIM_GetIntStatus(LPC_TIM0,0)));
 2179              		.loc 1 530 0 is_stmt 0 discriminator 1
 2180 0052 0021     		movs	r1, #0	@,
 2181 0054 4FF04020 		mov	r0, #1073758208	@,
 2182 0058 FFF7FEFF 		bl	TIM_GetIntStatus	@
 2183 005c 0346     		mov	r3, r0	@ tmp127,
 2184 005e 002B     		cmp	r3, #0	@ _1,
 2185 0060 F7D0     		beq	.L111	@,
 2186              	@ core/lpc17xx_timer.c:531: 		TIM_ClearIntPending(LPC_TIM0,0);
 531:core/lpc17xx_timer.c **** 		TIM_ClearIntPending(LPC_TIM0,0);
 2187              		.loc 1 531 0 is_stmt 1
 2188 0062 0021     		movs	r1, #0	@,
 2189 0064 4FF04020 		mov	r0, #1073758208	@,
 2190 0068 FFF7FEFF 		bl	TIM_ClearIntPending	@
 2191              	@ core/lpc17xx_timer.c:532: }
 532:core/lpc17xx_timer.c **** }
ARM GAS  /tmp/ccKti1Oq.s 			page 49


 2192              		.loc 1 532 0
 2193 006c 00BF     		nop
 2194 006e 2037     		adds	r7, r7, #32	@,,
 2195              		.cfi_def_cfa_offset 8
 2196 0070 BD46     		mov	sp, r7	@,
 2197              		.cfi_def_cfa_register 13
 2198              		@ sp needed	@
 2199 0072 80BD     		pop	{r7, pc}	@
 2200              		.cfi_endproc
 2201              	.LFE71:
 2202              		.size	Timer0_us_Wait, .-Timer0_us_Wait
 2203              		.text
 2204              	.Letext0:
 2205              		.file 2 "/usr/arm-none-eabi/include/machine/_default_types.h"
 2206              		.file 3 "/usr/arm-none-eabi/include/sys/_stdint.h"
 2207              		.file 4 "system/core_cm3.h"
 2208              		.file 5 "system/system_LPC17xx.h"
 2209              		.file 6 "system/LPC17xx.h"
 2210              		.file 7 "core/lpc_types.h"
 2211              		.file 8 "core/lpc17xx_timer.h"