ARM GAS  /tmp/ccneCrJk.s 			page 1


   1              		.cpu cortex-m3
   2              		.eabi_attribute 20, 1	@ Tag_ABI_FP_denormal
   3              		.eabi_attribute 21, 1	@ Tag_ABI_FP_exceptions
   4              		.eabi_attribute 23, 3	@ Tag_ABI_FP_number_model
   5              		.eabi_attribute 24, 1	@ Tag_ABI_align8_needed
   6              		.eabi_attribute 25, 1	@ Tag_ABI_align8_preserved
   7              		.eabi_attribute 26, 1	@ Tag_ABI_enum_size
   8              		.eabi_attribute 30, 6	@ Tag_ABI_optimization_goals
   9              		.eabi_attribute 34, 1	@ Tag_CPU_unaligned_access
  10              		.eabi_attribute 18, 4	@ Tag_ABI_PCS_wchar_t
  11              		.file	"lpc17xx_pinsel.c"
  12              	@ GNU C89 (Arch Repository) version 7.1.0 (arm-none-eabi)
  13              	@	compiled by GNU C version 6.3.1 20170306, GMP version 6.1.2, MPFR version 3.1.5-p2, MPC version 1
  14              	
  15              	@ GGC heuristics: --param ggc-min-expand=100 --param ggc-min-heapsize=131072
  16              	@ options passed:  -I . -I config -I system -I core -I drivers -I FreeRTOS
  17              	@ -I FreeRTOS/include -I FreeRTOS/portable/GCC/ARM_CM3 -I FreeRTOS/portable
  18              	@ -I tasks/rc_task_leds -I tasks/rc_task_xbee -I modules/rc_leds
  19              	@ -I modules/rc_xbee -I modules/rc_scheduler -I drivers/rc_system
  20              	@ -I drivers/rc_gpio -I drivers/rc_uart -I drivers/rc_pinsel
  21              	@ -I drivers/rc_timer -I drivers/rc_adc -imultilib armv7-m
  22              	@ -MD out/lpc17xx_pinsel.d -MF out/lpc17xx_pinsel.d -MP
  23              	@ -MQ out/lpc17xx_pinsel.o -D__USES_INITFINI__ core/lpc17xx_pinsel.c
  24              	@ -mcpu=cortex-m3 -mthumb -auxbase-strip out/lpc17xx_pinsel.o -g -ggdb3 -O0
  25              	@ -Wall -Wstrict-prototypes -Wextra -std=gnu90 -ffunction-sections
  26              	@ -fdata-sections -fverbose-asm
  27              	@ options enabled:  -faggressive-loop-optimizations -fauto-inc-dec
  28              	@ -fchkp-check-incomplete-type -fchkp-check-read -fchkp-check-write
  29              	@ -fchkp-instrument-calls -fchkp-narrow-bounds -fchkp-optimize
  30              	@ -fchkp-store-bounds -fchkp-use-static-bounds
  31              	@ -fchkp-use-static-const-bounds -fchkp-use-wrappers -fcommon
  32              	@ -fdata-sections -fdelete-null-pointer-checks -fdwarf2-cfi-asm
  33              	@ -fearly-inlining -feliminate-unused-debug-types -ffp-int-builtin-inexact
  34              	@ -ffunction-cse -ffunction-sections -fgcse-lm -fgnu-runtime -fgnu-unique
  35              	@ -fident -finline-atomics -fira-hoist-pressure -fira-share-save-slots
  36              	@ -fira-share-spill-slots -fivopts -fkeep-static-consts
  37              	@ -fleading-underscore -flifetime-dse -flto-odr-type-merging -fmath-errno
  38              	@ -fmerge-debug-strings -fpeephole -fplt -fprefetch-loop-arrays
  39              	@ -freg-struct-return -fsched-critical-path-heuristic
  40              	@ -fsched-dep-count-heuristic -fsched-group-heuristic -fsched-interblock
  41              	@ -fsched-last-insn-heuristic -fsched-rank-heuristic -fsched-spec
  42              	@ -fsched-spec-insn-heuristic -fsched-stalled-insns-dep
  43              	@ -fsemantic-interposition -fshow-column -fshrink-wrap-separate
  44              	@ -fsigned-zeros -fsplit-ivs-in-unroller -fssa-backprop -fstdarg-opt
  45              	@ -fstrict-volatile-bitfields -fsync-libcalls -ftrapping-math -ftree-cselim
  46              	@ -ftree-forwprop -ftree-loop-if-convert -ftree-loop-im -ftree-loop-ivcanon
  47              	@ -ftree-loop-optimize -ftree-parallelize-loops= -ftree-phiprop
  48              	@ -ftree-reassoc -ftree-scev-cprop -funit-at-a-time -fverbose-asm
  49              	@ -fzero-initialized-in-bss -masm-syntax-unified -mfix-cortex-m3-ldrd
  50              	@ -mlittle-endian -mpic-data-is-text-relative -msched-prolog -mthumb
  51              	@ -munaligned-access -mvectorize-with-neon-quad
  52              	
  53              		.text
  54              	.Ltext0:
  55              		.cfi_sections	.debug_frame
  56              		.section	.text.PINSEL_SetPinFunc,"ax",%progbits
  57              		.align	1
ARM GAS  /tmp/ccneCrJk.s 			page 2


  58              		.global	PINSEL_SetPinFunc
  59              		.syntax unified
  60              		.thumb
  61              		.thumb_func
  62              		.fpu softvfp
  63              		.type	PINSEL_SetPinFunc, %function
  64              	PINSEL_SetPinFunc:
  65              	.LFB55:
  66              		.file 1 "core/lpc17xx_pinsel.c"
   1:core/lpc17xx_pinsel.c **** /**
   2:core/lpc17xx_pinsel.c ****  * @file	: lpc17xx_pinsel.c
   3:core/lpc17xx_pinsel.c ****  * @brief	: Contains all functions support for Pin connect block firmware
   4:core/lpc17xx_pinsel.c ****  * 				library on LPC17xx
   5:core/lpc17xx_pinsel.c ****  * @version	: 1.0
   6:core/lpc17xx_pinsel.c ****  * @date	: 25. Feb. 2009
   7:core/lpc17xx_pinsel.c ****  * @author	: HoanTran
   8:core/lpc17xx_pinsel.c ****  **************************************************************************
   9:core/lpc17xx_pinsel.c ****  * Software that is described herein is for illustrative purposes only
  10:core/lpc17xx_pinsel.c ****  * which provides customers with programming information regarding the
  11:core/lpc17xx_pinsel.c ****  * products. This software is supplied "AS IS" without any warranties.
  12:core/lpc17xx_pinsel.c ****  * NXP Semiconductors assumes no responsibility or liability for the
  13:core/lpc17xx_pinsel.c ****  * use of the software, conveys no license or title under any patent,
  14:core/lpc17xx_pinsel.c ****  * copyright, or mask work right to the product. NXP Semiconductors
  15:core/lpc17xx_pinsel.c ****  * reserves the right to make changes in the software without
  16:core/lpc17xx_pinsel.c ****  * notification. NXP Semiconductors also make no representation or
  17:core/lpc17xx_pinsel.c ****  * warranty that such application will be suitable for the specified
  18:core/lpc17xx_pinsel.c ****  * use without further testing or modification.
  19:core/lpc17xx_pinsel.c ****  **********************************************************************/
  20:core/lpc17xx_pinsel.c **** 
  21:core/lpc17xx_pinsel.c **** /* Peripheral group ----------------------------------------------------------- */
  22:core/lpc17xx_pinsel.c **** /** @addtogroup PINSEL
  23:core/lpc17xx_pinsel.c ****  * @{
  24:core/lpc17xx_pinsel.c ****  */
  25:core/lpc17xx_pinsel.c **** 
  26:core/lpc17xx_pinsel.c **** /* Includes ------------------------------------------------------------------- */
  27:core/lpc17xx_pinsel.c **** #include "lpc17xx_pinsel.h"
  28:core/lpc17xx_pinsel.c **** 
  29:core/lpc17xx_pinsel.c **** 
  30:core/lpc17xx_pinsel.c **** /* Public Functions ----------------------------------------------------------- */
  31:core/lpc17xx_pinsel.c **** /** @addtogroup PINSEL_Public_Functions
  32:core/lpc17xx_pinsel.c ****  * @{
  33:core/lpc17xx_pinsel.c ****  */
  34:core/lpc17xx_pinsel.c **** 
  35:core/lpc17xx_pinsel.c **** /*********************************************************************//**
  36:core/lpc17xx_pinsel.c ****  * @brief 		Setup the pin selection function
  37:core/lpc17xx_pinsel.c ****  * @param[in]	portnum PORT number,
  38:core/lpc17xx_pinsel.c ****  * 				should be one of the following:
  39:core/lpc17xx_pinsel.c ****  * 				- PINSEL_PORT_0	: Port 0
  40:core/lpc17xx_pinsel.c ****  * 				- PINSEL_PORT_1	: Port 1
  41:core/lpc17xx_pinsel.c ****  * 				- PINSEL_PORT_2	: Port 2
  42:core/lpc17xx_pinsel.c ****  * 				- PINSEL_PORT_3	: Port 3
  43:core/lpc17xx_pinsel.c ****  *
  44:core/lpc17xx_pinsel.c ****  * @param[in]	pinnum	Pin number,
  45:core/lpc17xx_pinsel.c ****  * 				should be one of the following:
  46:core/lpc17xx_pinsel.c **** 				- PINSEL_PIN_0 : Pin 0
  47:core/lpc17xx_pinsel.c **** 				- PINSEL_PIN_1 : Pin 1
  48:core/lpc17xx_pinsel.c **** 				- PINSEL_PIN_2 : Pin 2
ARM GAS  /tmp/ccneCrJk.s 			page 3


  49:core/lpc17xx_pinsel.c **** 				- PINSEL_PIN_3 : Pin 3
  50:core/lpc17xx_pinsel.c **** 				- PINSEL_PIN_4 : Pin 4
  51:core/lpc17xx_pinsel.c **** 				- PINSEL_PIN_5 : Pin 5
  52:core/lpc17xx_pinsel.c **** 				- PINSEL_PIN_6 : Pin 6
  53:core/lpc17xx_pinsel.c **** 				- PINSEL_PIN_7 : Pin 7
  54:core/lpc17xx_pinsel.c **** 				- PINSEL_PIN_8 : Pin 8
  55:core/lpc17xx_pinsel.c **** 				- PINSEL_PIN_9 : Pin 9
  56:core/lpc17xx_pinsel.c **** 				- PINSEL_PIN_10 : Pin 10
  57:core/lpc17xx_pinsel.c **** 				- PINSEL_PIN_11 : Pin 11
  58:core/lpc17xx_pinsel.c **** 				- PINSEL_PIN_12 : Pin 12
  59:core/lpc17xx_pinsel.c **** 				- PINSEL_PIN_13 : Pin 13
  60:core/lpc17xx_pinsel.c **** 				- PINSEL_PIN_14 : Pin 14
  61:core/lpc17xx_pinsel.c **** 				- PINSEL_PIN_15 : Pin 15
  62:core/lpc17xx_pinsel.c **** 				- PINSEL_PIN_16 : Pin 16
  63:core/lpc17xx_pinsel.c **** 				- PINSEL_PIN_17 : Pin 17
  64:core/lpc17xx_pinsel.c **** 				- PINSEL_PIN_18 : Pin 18
  65:core/lpc17xx_pinsel.c **** 				- PINSEL_PIN_19 : Pin 19
  66:core/lpc17xx_pinsel.c **** 				- PINSEL_PIN_20 : Pin 20
  67:core/lpc17xx_pinsel.c **** 				- PINSEL_PIN_21 : Pin 21
  68:core/lpc17xx_pinsel.c **** 				- PINSEL_PIN_22 : Pin 22
  69:core/lpc17xx_pinsel.c **** 				- PINSEL_PIN_23 : Pin 23
  70:core/lpc17xx_pinsel.c **** 				- PINSEL_PIN_24 : Pin 24
  71:core/lpc17xx_pinsel.c **** 				- PINSEL_PIN_25 : Pin 25
  72:core/lpc17xx_pinsel.c **** 				- PINSEL_PIN_26 : Pin 26
  73:core/lpc17xx_pinsel.c **** 				- PINSEL_PIN_27 : Pin 27
  74:core/lpc17xx_pinsel.c **** 				- PINSEL_PIN_28 : Pin 28
  75:core/lpc17xx_pinsel.c **** 				- PINSEL_PIN_29 : Pin 29
  76:core/lpc17xx_pinsel.c **** 				- PINSEL_PIN_30 : Pin 30
  77:core/lpc17xx_pinsel.c **** 				- PINSEL_PIN_31 : Pin 31
  78:core/lpc17xx_pinsel.c **** 
  79:core/lpc17xx_pinsel.c ****  * @param[in] 	funcnum Function number,
  80:core/lpc17xx_pinsel.c ****  * 				should be one of the following:
  81:core/lpc17xx_pinsel.c ****  *				- PINSEL_FUNC_0 : default function
  82:core/lpc17xx_pinsel.c ****  *				- PINSEL_FUNC_1 : first alternate function
  83:core/lpc17xx_pinsel.c ****  *				- PINSEL_FUNC_2 : second alternate function
  84:core/lpc17xx_pinsel.c ****  *				- PINSEL_FUNC_3 : third alternate function
  85:core/lpc17xx_pinsel.c ****  *
  86:core/lpc17xx_pinsel.c ****  * @return 		None
  87:core/lpc17xx_pinsel.c ****  **********************************************************************/
  88:core/lpc17xx_pinsel.c **** void PINSEL_SetPinFunc ( uint8_t portnum, uint8_t pinnum, uint8_t funcnum)
  89:core/lpc17xx_pinsel.c **** {
  67              		.loc 1 89 0
  68              		.cfi_startproc
  69              		@ args = 0, pretend = 0, frame = 24
  70              		@ frame_needed = 1, uses_anonymous_args = 0
  71              		@ link register save eliminated.
  72 0000 80B4     		push	{r7}	@
  73              		.cfi_def_cfa_offset 4
  74              		.cfi_offset 7, -4
  75 0002 87B0     		sub	sp, sp, #28	@,,
  76              		.cfi_def_cfa_offset 32
  77 0004 00AF     		add	r7, sp, #0	@,,
  78              		.cfi_def_cfa_register 7
  79 0006 0346     		mov	r3, r0	@ tmp130, portnum
  80 0008 FB71     		strb	r3, [r7, #7]	@ tmp131, portnum
  81 000a 0B46     		mov	r3, r1	@ tmp133, tmp132
  82 000c BB71     		strb	r3, [r7, #6]	@ tmp133, pinnum
ARM GAS  /tmp/ccneCrJk.s 			page 4


  83 000e 1346     		mov	r3, r2	@ tmp135, tmp134
  84 0010 7B71     		strb	r3, [r7, #5]	@ tmp135, funcnum
  85              	@ core/lpc17xx_pinsel.c:90: 	uint32_t pinnum_t = pinnum;
  90:core/lpc17xx_pinsel.c **** 	uint32_t pinnum_t = pinnum;
  86              		.loc 1 90 0
  87 0012 BB79     		ldrb	r3, [r7, #6]	@ zero_extendqisi2	@ tmp136, pinnum
  88 0014 7B61     		str	r3, [r7, #20]	@ tmp136, pinnum_t
  89              	@ core/lpc17xx_pinsel.c:91: 	uint32_t pinselreg_idx = 2 * portnum;
  91:core/lpc17xx_pinsel.c **** 	uint32_t pinselreg_idx = 2 * portnum;
  90              		.loc 1 91 0
  91 0016 FB79     		ldrb	r3, [r7, #7]	@ zero_extendqisi2	@ _1, portnum
  92 0018 5B00     		lsls	r3, r3, #1	@ _2, _1,
  93 001a 3B61     		str	r3, [r7, #16]	@ _2, pinselreg_idx
  94              	@ core/lpc17xx_pinsel.c:92: 	uint32_t *pPinCon = (uint32_t *)&LPC_PINCON->PINSEL0;
  92:core/lpc17xx_pinsel.c **** 	uint32_t *pPinCon = (uint32_t *)&LPC_PINCON->PINSEL0;
  95              		.loc 1 92 0
  96 001c 174B     		ldr	r3, .L3	@ tmp137,
  97 001e FB60     		str	r3, [r7, #12]	@ tmp137, pPinCon
  98              	@ core/lpc17xx_pinsel.c:94: 	if (pinnum_t >= 16) {
  93:core/lpc17xx_pinsel.c **** 
  94:core/lpc17xx_pinsel.c **** 	if (pinnum_t >= 16) {
  99              		.loc 1 94 0
 100 0020 7B69     		ldr	r3, [r7, #20]	@ tmp138, pinnum_t
 101 0022 0F2B     		cmp	r3, #15	@ tmp138,
 102 0024 05D9     		bls	.L2	@,
 103              	@ core/lpc17xx_pinsel.c:95: 		pinnum_t -= 16;
  95:core/lpc17xx_pinsel.c **** 		pinnum_t -= 16;
 104              		.loc 1 95 0
 105 0026 7B69     		ldr	r3, [r7, #20]	@ tmp140, pinnum_t
 106 0028 103B     		subs	r3, r3, #16	@ tmp139, tmp140,
 107 002a 7B61     		str	r3, [r7, #20]	@ tmp139, pinnum_t
 108              	@ core/lpc17xx_pinsel.c:96: 		pinselreg_idx++;
  96:core/lpc17xx_pinsel.c **** 		pinselreg_idx++;
 109              		.loc 1 96 0
 110 002c 3B69     		ldr	r3, [r7, #16]	@ tmp142, pinselreg_idx
 111 002e 0133     		adds	r3, r3, #1	@ tmp141, tmp142,
 112 0030 3B61     		str	r3, [r7, #16]	@ tmp141, pinselreg_idx
 113              	.L2:
 114              	@ core/lpc17xx_pinsel.c:98: 	*(uint32_t *)(pPinCon + pinselreg_idx) &= ~(0x03UL << (pinnum_t * 2));
  97:core/lpc17xx_pinsel.c **** 	}
  98:core/lpc17xx_pinsel.c **** 	*(uint32_t *)(pPinCon + pinselreg_idx) &= ~(0x03UL << (pinnum_t * 2));
 115              		.loc 1 98 0
 116 0032 3B69     		ldr	r3, [r7, #16]	@ tmp143, pinselreg_idx
 117 0034 9B00     		lsls	r3, r3, #2	@ _3, tmp143,
 118 0036 FA68     		ldr	r2, [r7, #12]	@ tmp144, pPinCon
 119 0038 1344     		add	r3, r3, r2	@ _4, tmp144
 120 003a 1968     		ldr	r1, [r3]	@ _5, *_4
 121 003c 7B69     		ldr	r3, [r7, #20]	@ tmp145, pinnum_t
 122 003e 5B00     		lsls	r3, r3, #1	@ _6, tmp145,
 123 0040 0322     		movs	r2, #3	@ tmp146,
 124 0042 02FA03F3 		lsl	r3, r2, r3	@ _7, tmp146, _6
 125 0046 DA43     		mvns	r2, r3	@ _8, _7
 126 0048 3B69     		ldr	r3, [r7, #16]	@ tmp147, pinselreg_idx
 127 004a 9B00     		lsls	r3, r3, #2	@ _9, tmp147,
 128 004c F868     		ldr	r0, [r7, #12]	@ tmp148, pPinCon
 129 004e 0344     		add	r3, r3, r0	@ _10, tmp148
 130 0050 0A40     		ands	r2, r2, r1	@, _11, _8, _5
ARM GAS  /tmp/ccneCrJk.s 			page 5


 131 0052 1A60     		str	r2, [r3]	@ _11, *_10
 132              	@ core/lpc17xx_pinsel.c:99: 	*(uint32_t *)(pPinCon + pinselreg_idx) |= ((uint32_t)funcnum) << (pinn
  99:core/lpc17xx_pinsel.c **** 	*(uint32_t *)(pPinCon + pinselreg_idx) |= ((uint32_t)funcnum) << (pinnum_t * 2);
 133              		.loc 1 99 0
 134 0054 3B69     		ldr	r3, [r7, #16]	@ tmp149, pinselreg_idx
 135 0056 9B00     		lsls	r3, r3, #2	@ _12, tmp149,
 136 0058 FA68     		ldr	r2, [r7, #12]	@ tmp150, pPinCon
 137 005a 1344     		add	r3, r3, r2	@ _13, tmp150
 138 005c 1968     		ldr	r1, [r3]	@ _14, *_13
 139 005e 7A79     		ldrb	r2, [r7, #5]	@ zero_extendqisi2	@ _15, funcnum
 140 0060 7B69     		ldr	r3, [r7, #20]	@ tmp151, pinnum_t
 141 0062 5B00     		lsls	r3, r3, #1	@ _16, tmp151,
 142 0064 9A40     		lsls	r2, r2, r3	@ _17, _15, _16
 143 0066 3B69     		ldr	r3, [r7, #16]	@ tmp152, pinselreg_idx
 144 0068 9B00     		lsls	r3, r3, #2	@ _18, tmp152,
 145 006a F868     		ldr	r0, [r7, #12]	@ tmp153, pPinCon
 146 006c 0344     		add	r3, r3, r0	@ _19, tmp153
 147 006e 0A43     		orrs	r2, r2, r1	@, _20, _17, _14
 148 0070 1A60     		str	r2, [r3]	@ _20, *_19
 149              	@ core/lpc17xx_pinsel.c:100: }
 100:core/lpc17xx_pinsel.c **** }
 150              		.loc 1 100 0
 151 0072 00BF     		nop
 152 0074 1C37     		adds	r7, r7, #28	@,,
 153              		.cfi_def_cfa_offset 4
 154 0076 BD46     		mov	sp, r7	@,
 155              		.cfi_def_cfa_register 13
 156              		@ sp needed	@
 157 0078 80BC     		pop	{r7}	@
 158              		.cfi_restore 7
 159              		.cfi_def_cfa_offset 0
 160 007a 7047     		bx	lr	@
 161              	.L4:
 162              		.align	2
 163              	.L3:
 164 007c 00C00240 		.word	1073922048
 165              		.cfi_endproc
 166              	.LFE55:
 167              		.size	PINSEL_SetPinFunc, .-PINSEL_SetPinFunc
 168              		.section	.text.PINSEL_ConfigTraceFunc,"ax",%progbits
 169              		.align	1
 170              		.global	PINSEL_ConfigTraceFunc
 171              		.syntax unified
 172              		.thumb
 173              		.thumb_func
 174              		.fpu softvfp
 175              		.type	PINSEL_ConfigTraceFunc, %function
 176              	PINSEL_ConfigTraceFunc:
 177              	.LFB56:
 101:core/lpc17xx_pinsel.c **** 
 102:core/lpc17xx_pinsel.c **** 
 103:core/lpc17xx_pinsel.c **** 
 104:core/lpc17xx_pinsel.c **** /*********************************************************************//**
 105:core/lpc17xx_pinsel.c ****  * @brief 		Configure trace function
 106:core/lpc17xx_pinsel.c ****  * @param[in] 	NewState State of the Trace function configuration,
 107:core/lpc17xx_pinsel.c ****  * 				should be one of the following:
 108:core/lpc17xx_pinsel.c ****  * 				- ENABLE : Enable Trace Function
ARM GAS  /tmp/ccneCrJk.s 			page 6


 109:core/lpc17xx_pinsel.c ****  * 				- DISABLE : Disable Trace Function
 110:core/lpc17xx_pinsel.c ****  *
 111:core/lpc17xx_pinsel.c ****  * @return 		None
 112:core/lpc17xx_pinsel.c ****  **********************************************************************/
 113:core/lpc17xx_pinsel.c **** void PINSEL_ConfigTraceFunc(FunctionalState NewState)
 114:core/lpc17xx_pinsel.c **** {
 178              		.loc 1 114 0
 179              		.cfi_startproc
 180              		@ args = 0, pretend = 0, frame = 8
 181              		@ frame_needed = 1, uses_anonymous_args = 0
 182              		@ link register save eliminated.
 183 0000 80B4     		push	{r7}	@
 184              		.cfi_def_cfa_offset 4
 185              		.cfi_offset 7, -4
 186 0002 83B0     		sub	sp, sp, #12	@,,
 187              		.cfi_def_cfa_offset 16
 188 0004 00AF     		add	r7, sp, #0	@,,
 189              		.cfi_def_cfa_register 7
 190 0006 0346     		mov	r3, r0	@ tmp118, NewState
 191 0008 FB71     		strb	r3, [r7, #7]	@ tmp119, NewState
 192              	@ core/lpc17xx_pinsel.c:115: 	if (NewState == ENABLE) {
 115:core/lpc17xx_pinsel.c **** 	if (NewState == ENABLE) {
 193              		.loc 1 115 0
 194 000a FB79     		ldrb	r3, [r7, #7]	@ zero_extendqisi2	@ tmp120, NewState
 195 000c 012B     		cmp	r3, #1	@ tmp120,
 196 000e 06D1     		bne	.L6	@,
 197              	@ core/lpc17xx_pinsel.c:116: 		LPC_PINCON->PINSEL10 |= (0x01UL << 3);
 116:core/lpc17xx_pinsel.c **** 		LPC_PINCON->PINSEL10 |= (0x01UL << 3);
 198              		.loc 1 116 0
 199 0010 0A4B     		ldr	r3, .L9	@ _1,
 200 0012 9B6A     		ldr	r3, [r3, #40]	@ _2, _1->PINSEL10
 201 0014 094A     		ldr	r2, .L9	@ _3,
 202 0016 43F00803 		orr	r3, r3, #8	@ _4, _2,
 203 001a 9362     		str	r3, [r2, #40]	@ _4, _3->PINSEL10
 204              	@ core/lpc17xx_pinsel.c:120: }
 117:core/lpc17xx_pinsel.c **** 	} else if (NewState == DISABLE) {
 118:core/lpc17xx_pinsel.c **** 		LPC_PINCON->PINSEL10 &= ~(0x01UL << 3);
 119:core/lpc17xx_pinsel.c **** 	}
 120:core/lpc17xx_pinsel.c **** }
 205              		.loc 1 120 0
 206 001c 08E0     		b	.L8	@
 207              	.L6:
 208              	@ core/lpc17xx_pinsel.c:117: 	} else if (NewState == DISABLE) {
 117:core/lpc17xx_pinsel.c **** 	} else if (NewState == DISABLE) {
 209              		.loc 1 117 0
 210 001e FB79     		ldrb	r3, [r7, #7]	@ zero_extendqisi2	@ tmp121, NewState
 211 0020 002B     		cmp	r3, #0	@ tmp121,
 212 0022 05D1     		bne	.L8	@,
 213              	@ core/lpc17xx_pinsel.c:118: 		LPC_PINCON->PINSEL10 &= ~(0x01UL << 3);
 118:core/lpc17xx_pinsel.c **** 	}
 214              		.loc 1 118 0
 215 0024 054B     		ldr	r3, .L9	@ _5,
 216 0026 9B6A     		ldr	r3, [r3, #40]	@ _6, _5->PINSEL10
 217 0028 044A     		ldr	r2, .L9	@ _7,
 218 002a 23F00803 		bic	r3, r3, #8	@ _8, _6,
 219 002e 9362     		str	r3, [r2, #40]	@ _8, _7->PINSEL10
 220              	.L8:
ARM GAS  /tmp/ccneCrJk.s 			page 7


 221              	@ core/lpc17xx_pinsel.c:120: }
 222              		.loc 1 120 0
 223 0030 00BF     		nop
 224 0032 0C37     		adds	r7, r7, #12	@,,
 225              		.cfi_def_cfa_offset 4
 226 0034 BD46     		mov	sp, r7	@,
 227              		.cfi_def_cfa_register 13
 228              		@ sp needed	@
 229 0036 80BC     		pop	{r7}	@
 230              		.cfi_restore 7
 231              		.cfi_def_cfa_offset 0
 232 0038 7047     		bx	lr	@
 233              	.L10:
 234 003a 00BF     		.align	2
 235              	.L9:
 236 003c 00C00240 		.word	1073922048
 237              		.cfi_endproc
 238              	.LFE56:
 239              		.size	PINSEL_ConfigTraceFunc, .-PINSEL_ConfigTraceFunc
 240              		.section	.text.PINSEL_SetResistorMode,"ax",%progbits
 241              		.align	1
 242              		.global	PINSEL_SetResistorMode
 243              		.syntax unified
 244              		.thumb
 245              		.thumb_func
 246              		.fpu softvfp
 247              		.type	PINSEL_SetResistorMode, %function
 248              	PINSEL_SetResistorMode:
 249              	.LFB57:
 121:core/lpc17xx_pinsel.c **** 
 122:core/lpc17xx_pinsel.c **** 
 123:core/lpc17xx_pinsel.c **** 
 124:core/lpc17xx_pinsel.c **** /*********************************************************************//**
 125:core/lpc17xx_pinsel.c ****  * @brief 		Setup resistor mode for each pin
 126:core/lpc17xx_pinsel.c ****  * @param[in]	portnum PORT number,
 127:core/lpc17xx_pinsel.c ****  * 				should be one of the following:
 128:core/lpc17xx_pinsel.c ****  * 				- PINSEL_PORT_0	: Port 0
 129:core/lpc17xx_pinsel.c ****  * 				- PINSEL_PORT_1	: Port 1
 130:core/lpc17xx_pinsel.c ****  * 				- PINSEL_PORT_2	: Port 2
 131:core/lpc17xx_pinsel.c ****  * 				- PINSEL_PORT_3	: Port 3
 132:core/lpc17xx_pinsel.c ****  * @param[in]	pinnum	Pin number,
 133:core/lpc17xx_pinsel.c ****  * 				should be one of the following:
 134:core/lpc17xx_pinsel.c **** 				- PINSEL_PIN_0 : Pin 0
 135:core/lpc17xx_pinsel.c **** 				- PINSEL_PIN_1 : Pin 1
 136:core/lpc17xx_pinsel.c **** 				- PINSEL_PIN_2 : Pin 2
 137:core/lpc17xx_pinsel.c **** 				- PINSEL_PIN_3 : Pin 3
 138:core/lpc17xx_pinsel.c **** 				- PINSEL_PIN_4 : Pin 4
 139:core/lpc17xx_pinsel.c **** 				- PINSEL_PIN_5 : Pin 5
 140:core/lpc17xx_pinsel.c **** 				- PINSEL_PIN_6 : Pin 6
 141:core/lpc17xx_pinsel.c **** 				- PINSEL_PIN_7 : Pin 7
 142:core/lpc17xx_pinsel.c **** 				- PINSEL_PIN_8 : Pin 8
 143:core/lpc17xx_pinsel.c **** 				- PINSEL_PIN_9 : Pin 9
 144:core/lpc17xx_pinsel.c **** 				- PINSEL_PIN_10 : Pin 10
 145:core/lpc17xx_pinsel.c **** 				- PINSEL_PIN_11 : Pin 11
 146:core/lpc17xx_pinsel.c **** 				- PINSEL_PIN_12 : Pin 12
 147:core/lpc17xx_pinsel.c **** 				- PINSEL_PIN_13 : Pin 13
 148:core/lpc17xx_pinsel.c **** 				- PINSEL_PIN_14 : Pin 14
ARM GAS  /tmp/ccneCrJk.s 			page 8


 149:core/lpc17xx_pinsel.c **** 				- PINSEL_PIN_15 : Pin 15
 150:core/lpc17xx_pinsel.c **** 				- PINSEL_PIN_16 : Pin 16
 151:core/lpc17xx_pinsel.c **** 				- PINSEL_PIN_17 : Pin 17
 152:core/lpc17xx_pinsel.c **** 				- PINSEL_PIN_18 : Pin 18
 153:core/lpc17xx_pinsel.c **** 				- PINSEL_PIN_19 : Pin 19
 154:core/lpc17xx_pinsel.c **** 				- PINSEL_PIN_20 : Pin 20
 155:core/lpc17xx_pinsel.c **** 				- PINSEL_PIN_21 : Pin 21
 156:core/lpc17xx_pinsel.c **** 				- PINSEL_PIN_22 : Pin 22
 157:core/lpc17xx_pinsel.c **** 				- PINSEL_PIN_23 : Pin 23
 158:core/lpc17xx_pinsel.c **** 				- PINSEL_PIN_24 : Pin 24
 159:core/lpc17xx_pinsel.c **** 				- PINSEL_PIN_25 : Pin 25
 160:core/lpc17xx_pinsel.c **** 				- PINSEL_PIN_26 : Pin 26
 161:core/lpc17xx_pinsel.c **** 				- PINSEL_PIN_27 : Pin 27
 162:core/lpc17xx_pinsel.c **** 				- PINSEL_PIN_28 : Pin 28
 163:core/lpc17xx_pinsel.c **** 				- PINSEL_PIN_29 : Pin 29
 164:core/lpc17xx_pinsel.c **** 				- PINSEL_PIN_30 : Pin 30
 165:core/lpc17xx_pinsel.c **** 				- PINSEL_PIN_31 : Pin 31
 166:core/lpc17xx_pinsel.c **** 
 167:core/lpc17xx_pinsel.c ****  * @param[in] 	modenum: Mode number,
 168:core/lpc17xx_pinsel.c ****  * 				should be one of the following:
 169:core/lpc17xx_pinsel.c **** 				- PINSEL_PINMODE_PULLUP	: Internal pull-up resistor
 170:core/lpc17xx_pinsel.c **** 				- PINSEL_PINMODE_TRISTATE : Tri-state
 171:core/lpc17xx_pinsel.c **** 				- PINSEL_PINMODE_PULLDOWN : Internal pull-down resistor
 172:core/lpc17xx_pinsel.c **** 
 173:core/lpc17xx_pinsel.c ****  * @return 		None
 174:core/lpc17xx_pinsel.c ****  **********************************************************************/
 175:core/lpc17xx_pinsel.c **** void PINSEL_SetResistorMode ( uint8_t portnum, uint8_t pinnum, uint8_t modenum)
 176:core/lpc17xx_pinsel.c **** {
 250              		.loc 1 176 0
 251              		.cfi_startproc
 252              		@ args = 0, pretend = 0, frame = 24
 253              		@ frame_needed = 1, uses_anonymous_args = 0
 254              		@ link register save eliminated.
 255 0000 80B4     		push	{r7}	@
 256              		.cfi_def_cfa_offset 4
 257              		.cfi_offset 7, -4
 258 0002 87B0     		sub	sp, sp, #28	@,,
 259              		.cfi_def_cfa_offset 32
 260 0004 00AF     		add	r7, sp, #0	@,,
 261              		.cfi_def_cfa_register 7
 262 0006 0346     		mov	r3, r0	@ tmp130, portnum
 263 0008 FB71     		strb	r3, [r7, #7]	@ tmp131, portnum
 264 000a 0B46     		mov	r3, r1	@ tmp133, tmp132
 265 000c BB71     		strb	r3, [r7, #6]	@ tmp133, pinnum
 266 000e 1346     		mov	r3, r2	@ tmp135, tmp134
 267 0010 7B71     		strb	r3, [r7, #5]	@ tmp135, modenum
 268              	@ core/lpc17xx_pinsel.c:177: 	uint32_t pinnum_t = pinnum;
 177:core/lpc17xx_pinsel.c **** 	uint32_t pinnum_t = pinnum;
 269              		.loc 1 177 0
 270 0012 BB79     		ldrb	r3, [r7, #6]	@ zero_extendqisi2	@ tmp136, pinnum
 271 0014 7B61     		str	r3, [r7, #20]	@ tmp136, pinnum_t
 272              	@ core/lpc17xx_pinsel.c:178: 	uint32_t pinmodereg_idx = 2 * portnum;
 178:core/lpc17xx_pinsel.c **** 	uint32_t pinmodereg_idx = 2 * portnum;
 273              		.loc 1 178 0
 274 0016 FB79     		ldrb	r3, [r7, #7]	@ zero_extendqisi2	@ _1, portnum
 275 0018 5B00     		lsls	r3, r3, #1	@ _2, _1,
 276 001a 3B61     		str	r3, [r7, #16]	@ _2, pinmodereg_idx
ARM GAS  /tmp/ccneCrJk.s 			page 9


 277              	@ core/lpc17xx_pinsel.c:179: 	uint32_t *pPinCon = (uint32_t *)&LPC_PINCON->PINMODE0;
 179:core/lpc17xx_pinsel.c **** 	uint32_t *pPinCon = (uint32_t *)&LPC_PINCON->PINMODE0;
 278              		.loc 1 179 0
 279 001c 174B     		ldr	r3, .L13	@ tmp137,
 280 001e FB60     		str	r3, [r7, #12]	@ tmp137, pPinCon
 281              	@ core/lpc17xx_pinsel.c:181: 	if (pinnum_t >= 16) {
 180:core/lpc17xx_pinsel.c **** 
 181:core/lpc17xx_pinsel.c **** 	if (pinnum_t >= 16) {
 282              		.loc 1 181 0
 283 0020 7B69     		ldr	r3, [r7, #20]	@ tmp138, pinnum_t
 284 0022 0F2B     		cmp	r3, #15	@ tmp138,
 285 0024 05D9     		bls	.L12	@,
 286              	@ core/lpc17xx_pinsel.c:182: 		pinnum_t -= 16;
 182:core/lpc17xx_pinsel.c **** 		pinnum_t -= 16;
 287              		.loc 1 182 0
 288 0026 7B69     		ldr	r3, [r7, #20]	@ tmp140, pinnum_t
 289 0028 103B     		subs	r3, r3, #16	@ tmp139, tmp140,
 290 002a 7B61     		str	r3, [r7, #20]	@ tmp139, pinnum_t
 291              	@ core/lpc17xx_pinsel.c:183: 		pinmodereg_idx++ ;
 183:core/lpc17xx_pinsel.c **** 		pinmodereg_idx++ ;
 292              		.loc 1 183 0
 293 002c 3B69     		ldr	r3, [r7, #16]	@ tmp142, pinmodereg_idx
 294 002e 0133     		adds	r3, r3, #1	@ tmp141, tmp142,
 295 0030 3B61     		str	r3, [r7, #16]	@ tmp141, pinmodereg_idx
 296              	.L12:
 297              	@ core/lpc17xx_pinsel.c:186: 	*(uint32_t *)(pPinCon + pinmodereg_idx) &= ~(0x03UL << (pinnum_t * 2)
 184:core/lpc17xx_pinsel.c **** 	}
 185:core/lpc17xx_pinsel.c **** 
 186:core/lpc17xx_pinsel.c **** 	*(uint32_t *)(pPinCon + pinmodereg_idx) &= ~(0x03UL << (pinnum_t * 2));
 298              		.loc 1 186 0
 299 0032 3B69     		ldr	r3, [r7, #16]	@ tmp143, pinmodereg_idx
 300 0034 9B00     		lsls	r3, r3, #2	@ _3, tmp143,
 301 0036 FA68     		ldr	r2, [r7, #12]	@ tmp144, pPinCon
 302 0038 1344     		add	r3, r3, r2	@ _4, tmp144
 303 003a 1968     		ldr	r1, [r3]	@ _5, *_4
 304 003c 7B69     		ldr	r3, [r7, #20]	@ tmp145, pinnum_t
 305 003e 5B00     		lsls	r3, r3, #1	@ _6, tmp145,
 306 0040 0322     		movs	r2, #3	@ tmp146,
 307 0042 02FA03F3 		lsl	r3, r2, r3	@ _7, tmp146, _6
 308 0046 DA43     		mvns	r2, r3	@ _8, _7
 309 0048 3B69     		ldr	r3, [r7, #16]	@ tmp147, pinmodereg_idx
 310 004a 9B00     		lsls	r3, r3, #2	@ _9, tmp147,
 311 004c F868     		ldr	r0, [r7, #12]	@ tmp148, pPinCon
 312 004e 0344     		add	r3, r3, r0	@ _10, tmp148
 313 0050 0A40     		ands	r2, r2, r1	@, _11, _8, _5
 314 0052 1A60     		str	r2, [r3]	@ _11, *_10
 315              	@ core/lpc17xx_pinsel.c:187: 	*(uint32_t *)(pPinCon + pinmodereg_idx) |= ((uint32_t)modenum) << (pi
 187:core/lpc17xx_pinsel.c **** 	*(uint32_t *)(pPinCon + pinmodereg_idx) |= ((uint32_t)modenum) << (pinnum_t * 2);
 316              		.loc 1 187 0
 317 0054 3B69     		ldr	r3, [r7, #16]	@ tmp149, pinmodereg_idx
 318 0056 9B00     		lsls	r3, r3, #2	@ _12, tmp149,
 319 0058 FA68     		ldr	r2, [r7, #12]	@ tmp150, pPinCon
 320 005a 1344     		add	r3, r3, r2	@ _13, tmp150
 321 005c 1968     		ldr	r1, [r3]	@ _14, *_13
 322 005e 7A79     		ldrb	r2, [r7, #5]	@ zero_extendqisi2	@ _15, modenum
 323 0060 7B69     		ldr	r3, [r7, #20]	@ tmp151, pinnum_t
 324 0062 5B00     		lsls	r3, r3, #1	@ _16, tmp151,
ARM GAS  /tmp/ccneCrJk.s 			page 10


 325 0064 9A40     		lsls	r2, r2, r3	@ _17, _15, _16
 326 0066 3B69     		ldr	r3, [r7, #16]	@ tmp152, pinmodereg_idx
 327 0068 9B00     		lsls	r3, r3, #2	@ _18, tmp152,
 328 006a F868     		ldr	r0, [r7, #12]	@ tmp153, pPinCon
 329 006c 0344     		add	r3, r3, r0	@ _19, tmp153
 330 006e 0A43     		orrs	r2, r2, r1	@, _20, _17, _14
 331 0070 1A60     		str	r2, [r3]	@ _20, *_19
 332              	@ core/lpc17xx_pinsel.c:188: }
 188:core/lpc17xx_pinsel.c **** }
 333              		.loc 1 188 0
 334 0072 00BF     		nop
 335 0074 1C37     		adds	r7, r7, #28	@,,
 336              		.cfi_def_cfa_offset 4
 337 0076 BD46     		mov	sp, r7	@,
 338              		.cfi_def_cfa_register 13
 339              		@ sp needed	@
 340 0078 80BC     		pop	{r7}	@
 341              		.cfi_restore 7
 342              		.cfi_def_cfa_offset 0
 343 007a 7047     		bx	lr	@
 344              	.L14:
 345              		.align	2
 346              	.L13:
 347 007c 40C00240 		.word	1073922112
 348              		.cfi_endproc
 349              	.LFE57:
 350              		.size	PINSEL_SetResistorMode, .-PINSEL_SetResistorMode
 351              		.section	.text.PINSEL_SetOpenDrainMode,"ax",%progbits
 352              		.align	1
 353              		.global	PINSEL_SetOpenDrainMode
 354              		.syntax unified
 355              		.thumb
 356              		.thumb_func
 357              		.fpu softvfp
 358              		.type	PINSEL_SetOpenDrainMode, %function
 359              	PINSEL_SetOpenDrainMode:
 360              	.LFB58:
 189:core/lpc17xx_pinsel.c **** 
 190:core/lpc17xx_pinsel.c **** 
 191:core/lpc17xx_pinsel.c **** 
 192:core/lpc17xx_pinsel.c **** /*********************************************************************//**
 193:core/lpc17xx_pinsel.c ****  * @brief 		Setup Open drain mode for each pin
 194:core/lpc17xx_pinsel.c ****  * @param[in]	portnum PORT number,
 195:core/lpc17xx_pinsel.c ****  * 				should be one of the following:
 196:core/lpc17xx_pinsel.c ****  * 				- PINSEL_PORT_0	: Port 0
 197:core/lpc17xx_pinsel.c ****  * 				- PINSEL_PORT_1	: Port 1
 198:core/lpc17xx_pinsel.c ****  * 				- PINSEL_PORT_2	: Port 2
 199:core/lpc17xx_pinsel.c ****  * 				- PINSEL_PORT_3	: Port 3
 200:core/lpc17xx_pinsel.c ****  *
 201:core/lpc17xx_pinsel.c ****  * @param[in]	pinnum	Pin number,
 202:core/lpc17xx_pinsel.c ****  * 				should be one of the following:
 203:core/lpc17xx_pinsel.c **** 				- PINSEL_PIN_0 : Pin 0
 204:core/lpc17xx_pinsel.c **** 				- PINSEL_PIN_1 : Pin 1
 205:core/lpc17xx_pinsel.c **** 				- PINSEL_PIN_2 : Pin 2
 206:core/lpc17xx_pinsel.c **** 				- PINSEL_PIN_3 : Pin 3
 207:core/lpc17xx_pinsel.c **** 				- PINSEL_PIN_4 : Pin 4
 208:core/lpc17xx_pinsel.c **** 				- PINSEL_PIN_5 : Pin 5
ARM GAS  /tmp/ccneCrJk.s 			page 11


 209:core/lpc17xx_pinsel.c **** 				- PINSEL_PIN_6 : Pin 6
 210:core/lpc17xx_pinsel.c **** 				- PINSEL_PIN_7 : Pin 7
 211:core/lpc17xx_pinsel.c **** 				- PINSEL_PIN_8 : Pin 8
 212:core/lpc17xx_pinsel.c **** 				- PINSEL_PIN_9 : Pin 9
 213:core/lpc17xx_pinsel.c **** 				- PINSEL_PIN_10 : Pin 10
 214:core/lpc17xx_pinsel.c **** 				- PINSEL_PIN_11 : Pin 11
 215:core/lpc17xx_pinsel.c **** 				- PINSEL_PIN_12 : Pin 12
 216:core/lpc17xx_pinsel.c **** 				- PINSEL_PIN_13 : Pin 13
 217:core/lpc17xx_pinsel.c **** 				- PINSEL_PIN_14 : Pin 14
 218:core/lpc17xx_pinsel.c **** 				- PINSEL_PIN_15 : Pin 15
 219:core/lpc17xx_pinsel.c **** 				- PINSEL_PIN_16 : Pin 16
 220:core/lpc17xx_pinsel.c **** 				- PINSEL_PIN_17 : Pin 17
 221:core/lpc17xx_pinsel.c **** 				- PINSEL_PIN_18 : Pin 18
 222:core/lpc17xx_pinsel.c **** 				- PINSEL_PIN_19 : Pin 19
 223:core/lpc17xx_pinsel.c **** 				- PINSEL_PIN_20 : Pin 20
 224:core/lpc17xx_pinsel.c **** 				- PINSEL_PIN_21 : Pin 21
 225:core/lpc17xx_pinsel.c **** 				- PINSEL_PIN_22 : Pin 22
 226:core/lpc17xx_pinsel.c **** 				- PINSEL_PIN_23 : Pin 23
 227:core/lpc17xx_pinsel.c **** 				- PINSEL_PIN_24 : Pin 24
 228:core/lpc17xx_pinsel.c **** 				- PINSEL_PIN_25 : Pin 25
 229:core/lpc17xx_pinsel.c **** 				- PINSEL_PIN_26 : Pin 26
 230:core/lpc17xx_pinsel.c **** 				- PINSEL_PIN_27 : Pin 27
 231:core/lpc17xx_pinsel.c **** 				- PINSEL_PIN_28 : Pin 28
 232:core/lpc17xx_pinsel.c **** 				- PINSEL_PIN_29 : Pin 29
 233:core/lpc17xx_pinsel.c **** 				- PINSEL_PIN_30 : Pin 30
 234:core/lpc17xx_pinsel.c **** 				- PINSEL_PIN_31 : Pin 31
 235:core/lpc17xx_pinsel.c **** 
 236:core/lpc17xx_pinsel.c ****  * @param[in]	modenum  Open drain mode number,
 237:core/lpc17xx_pinsel.c ****  * 				should be one of the following:
 238:core/lpc17xx_pinsel.c ****  * 				- PINSEL_PINMODE_NORMAL : Pin is in the normal (not open drain) mode
 239:core/lpc17xx_pinsel.c ****  * 				- PINSEL_PINMODE_OPENDRAIN : Pin is in the open drain mode
 240:core/lpc17xx_pinsel.c ****  *
 241:core/lpc17xx_pinsel.c ****  * @return 		None
 242:core/lpc17xx_pinsel.c ****  **********************************************************************/
 243:core/lpc17xx_pinsel.c **** void PINSEL_SetOpenDrainMode( uint8_t portnum, uint8_t pinnum, uint8_t modenum)
 244:core/lpc17xx_pinsel.c **** {
 361              		.loc 1 244 0
 362              		.cfi_startproc
 363              		@ args = 0, pretend = 0, frame = 16
 364              		@ frame_needed = 1, uses_anonymous_args = 0
 365              		@ link register save eliminated.
 366 0000 80B4     		push	{r7}	@
 367              		.cfi_def_cfa_offset 4
 368              		.cfi_offset 7, -4
 369 0002 85B0     		sub	sp, sp, #20	@,,
 370              		.cfi_def_cfa_offset 24
 371 0004 00AF     		add	r7, sp, #0	@,,
 372              		.cfi_def_cfa_register 7
 373 0006 0346     		mov	r3, r0	@ tmp131, portnum
 374 0008 FB71     		strb	r3, [r7, #7]	@ tmp132, portnum
 375 000a 0B46     		mov	r3, r1	@ tmp134, tmp133
 376 000c BB71     		strb	r3, [r7, #6]	@ tmp134, pinnum
 377 000e 1346     		mov	r3, r2	@ tmp136, tmp135
 378 0010 7B71     		strb	r3, [r7, #5]	@ tmp136, modenum
 379              	@ core/lpc17xx_pinsel.c:245: 	uint32_t *pPinCon = (uint32_t *)&LPC_PINCON->PINMODE_OD0;
 245:core/lpc17xx_pinsel.c **** 	uint32_t *pPinCon = (uint32_t *)&LPC_PINCON->PINMODE_OD0;
 380              		.loc 1 245 0
ARM GAS  /tmp/ccneCrJk.s 			page 12


 381 0012 144B     		ldr	r3, .L19	@ tmp137,
 382 0014 FB60     		str	r3, [r7, #12]	@ tmp137, pPinCon
 383              	@ core/lpc17xx_pinsel.c:247: 	if (modenum == PINSEL_PINMODE_OPENDRAIN){
 246:core/lpc17xx_pinsel.c **** 
 247:core/lpc17xx_pinsel.c **** 	if (modenum == PINSEL_PINMODE_OPENDRAIN){
 384              		.loc 1 247 0
 385 0016 7B79     		ldrb	r3, [r7, #5]	@ zero_extendqisi2	@ tmp138, modenum
 386 0018 012B     		cmp	r3, #1	@ tmp138,
 387 001a 0ED1     		bne	.L16	@,
 388              	@ core/lpc17xx_pinsel.c:248: 		*(uint32_t *)(pPinCon + portnum) |= (0x01UL << pinnum);
 248:core/lpc17xx_pinsel.c **** 		*(uint32_t *)(pPinCon + portnum) |= (0x01UL << pinnum);
 389              		.loc 1 248 0
 390 001c FB79     		ldrb	r3, [r7, #7]	@ zero_extendqisi2	@ _1, portnum
 391 001e 9B00     		lsls	r3, r3, #2	@ _2, _1,
 392 0020 FA68     		ldr	r2, [r7, #12]	@ tmp139, pPinCon
 393 0022 1344     		add	r3, r3, r2	@ _3, tmp139
 394 0024 1968     		ldr	r1, [r3]	@ _4, *_3
 395 0026 BB79     		ldrb	r3, [r7, #6]	@ zero_extendqisi2	@ _5, pinnum
 396 0028 0122     		movs	r2, #1	@ tmp140,
 397 002a 9A40     		lsls	r2, r2, r3	@ _6, tmp140, _5
 398 002c FB79     		ldrb	r3, [r7, #7]	@ zero_extendqisi2	@ _7, portnum
 399 002e 9B00     		lsls	r3, r3, #2	@ _8, _7,
 400 0030 F868     		ldr	r0, [r7, #12]	@ tmp141, pPinCon
 401 0032 0344     		add	r3, r3, r0	@ _9, tmp141
 402 0034 0A43     		orrs	r2, r2, r1	@, _10, _6, _4
 403 0036 1A60     		str	r2, [r3]	@ _10, *_9
 404              	@ core/lpc17xx_pinsel.c:252: }
 249:core/lpc17xx_pinsel.c **** 	} else {
 250:core/lpc17xx_pinsel.c **** 		*(uint32_t *)(pPinCon + portnum) &= ~(0x01UL << pinnum);
 251:core/lpc17xx_pinsel.c **** 	}
 252:core/lpc17xx_pinsel.c **** }
 405              		.loc 1 252 0
 406 0038 0FE0     		b	.L18	@
 407              	.L16:
 408              	@ core/lpc17xx_pinsel.c:250: 		*(uint32_t *)(pPinCon + portnum) &= ~(0x01UL << pinnum);
 250:core/lpc17xx_pinsel.c **** 	}
 409              		.loc 1 250 0
 410 003a FB79     		ldrb	r3, [r7, #7]	@ zero_extendqisi2	@ _11, portnum
 411 003c 9B00     		lsls	r3, r3, #2	@ _12, _11,
 412 003e FA68     		ldr	r2, [r7, #12]	@ tmp142, pPinCon
 413 0040 1344     		add	r3, r3, r2	@ _13, tmp142
 414 0042 1968     		ldr	r1, [r3]	@ _14, *_13
 415 0044 BB79     		ldrb	r3, [r7, #6]	@ zero_extendqisi2	@ _15, pinnum
 416 0046 0122     		movs	r2, #1	@ tmp143,
 417 0048 02FA03F3 		lsl	r3, r2, r3	@ _16, tmp143, _15
 418 004c DA43     		mvns	r2, r3	@ _17, _16
 419 004e FB79     		ldrb	r3, [r7, #7]	@ zero_extendqisi2	@ _18, portnum
 420 0050 9B00     		lsls	r3, r3, #2	@ _19, _18,
 421 0052 F868     		ldr	r0, [r7, #12]	@ tmp144, pPinCon
 422 0054 0344     		add	r3, r3, r0	@ _20, tmp144
 423 0056 0A40     		ands	r2, r2, r1	@, _21, _17, _14
 424 0058 1A60     		str	r2, [r3]	@ _21, *_20
 425              	.L18:
 426              	@ core/lpc17xx_pinsel.c:252: }
 427              		.loc 1 252 0
 428 005a 00BF     		nop
 429 005c 1437     		adds	r7, r7, #20	@,,
ARM GAS  /tmp/ccneCrJk.s 			page 13


 430              		.cfi_def_cfa_offset 4
 431 005e BD46     		mov	sp, r7	@,
 432              		.cfi_def_cfa_register 13
 433              		@ sp needed	@
 434 0060 80BC     		pop	{r7}	@
 435              		.cfi_restore 7
 436              		.cfi_def_cfa_offset 0
 437 0062 7047     		bx	lr	@
 438              	.L20:
 439              		.align	2
 440              	.L19:
 441 0064 68C00240 		.word	1073922152
 442              		.cfi_endproc
 443              	.LFE58:
 444              		.size	PINSEL_SetOpenDrainMode, .-PINSEL_SetOpenDrainMode
 445              		.section	.text.PINSEL_SetI2C0Pins,"ax",%progbits
 446              		.align	1
 447              		.global	PINSEL_SetI2C0Pins
 448              		.syntax unified
 449              		.thumb
 450              		.thumb_func
 451              		.fpu softvfp
 452              		.type	PINSEL_SetI2C0Pins, %function
 453              	PINSEL_SetI2C0Pins:
 454              	.LFB59:
 253:core/lpc17xx_pinsel.c **** 
 254:core/lpc17xx_pinsel.c **** 
 255:core/lpc17xx_pinsel.c **** 
 256:core/lpc17xx_pinsel.c **** /*********************************************************************//**
 257:core/lpc17xx_pinsel.c ****  * @brief 		Setup I2C0 pins
 258:core/lpc17xx_pinsel.c ****  * @param[in]	i2cPinMode I2C pin mode,
 259:core/lpc17xx_pinsel.c ****  * 				should be one of the following:
 260:core/lpc17xx_pinsel.c ****  * 				- PINSEL_I2C_Normal_Mode : The standard drive mode
 261:core/lpc17xx_pinsel.c ****  * 				- PINSEL_I2C_Fast_Mode : Fast Mode Plus drive mode
 262:core/lpc17xx_pinsel.c ****  *
 263:core/lpc17xx_pinsel.c ****  * @param[in]	filterSlewRateEnable  should be:
 264:core/lpc17xx_pinsel.c ****  * 				- ENABLE: Enable filter and slew rate.
 265:core/lpc17xx_pinsel.c ****  * 				- DISABLE: Disable filter and slew rate.
 266:core/lpc17xx_pinsel.c ****  *
 267:core/lpc17xx_pinsel.c ****  * @return 		None
 268:core/lpc17xx_pinsel.c ****  **********************************************************************/
 269:core/lpc17xx_pinsel.c **** void PINSEL_SetI2C0Pins(uint8_t i2cPinMode, FunctionalState filterSlewRateEnable)
 270:core/lpc17xx_pinsel.c **** {
 455              		.loc 1 270 0
 456              		.cfi_startproc
 457              		@ args = 0, pretend = 0, frame = 16
 458              		@ frame_needed = 1, uses_anonymous_args = 0
 459              		@ link register save eliminated.
 460 0000 80B4     		push	{r7}	@
 461              		.cfi_def_cfa_offset 4
 462              		.cfi_offset 7, -4
 463 0002 85B0     		sub	sp, sp, #20	@,,
 464              		.cfi_def_cfa_offset 24
 465 0004 00AF     		add	r7, sp, #0	@,,
 466              		.cfi_def_cfa_register 7
 467 0006 0346     		mov	r3, r0	@ tmp111, i2cPinMode
 468 0008 0A46     		mov	r2, r1	@ tmp113, filterSlewRateEnable
ARM GAS  /tmp/ccneCrJk.s 			page 14


 469 000a FB71     		strb	r3, [r7, #7]	@ tmp112, i2cPinMode
 470 000c 1346     		mov	r3, r2	@ tmp114, tmp113
 471 000e BB71     		strb	r3, [r7, #6]	@ tmp114, filterSlewRateEnable
 472              	@ core/lpc17xx_pinsel.c:273: 	if (i2cPinMode == PINSEL_I2C_Fast_Mode){
 271:core/lpc17xx_pinsel.c **** 	uint32_t regVal;
 272:core/lpc17xx_pinsel.c **** 
 273:core/lpc17xx_pinsel.c **** 	if (i2cPinMode == PINSEL_I2C_Fast_Mode){
 473              		.loc 1 273 0
 474 0010 FB79     		ldrb	r3, [r7, #7]	@ zero_extendqisi2	@ tmp115, i2cPinMode
 475 0012 012B     		cmp	r3, #1	@ tmp115,
 476 0014 01D1     		bne	.L22	@,
 477              	@ core/lpc17xx_pinsel.c:274: 		regVal = PINSEL_I2CPADCFG_SCLDRV0 | PINSEL_I2CPADCFG_SDADRV0;
 274:core/lpc17xx_pinsel.c **** 		regVal = PINSEL_I2CPADCFG_SCLDRV0 | PINSEL_I2CPADCFG_SDADRV0;
 478              		.loc 1 274 0
 479 0016 0523     		movs	r3, #5	@ tmp116,
 480 0018 FB60     		str	r3, [r7, #12]	@ tmp116, regVal
 481              	.L22:
 482              	@ core/lpc17xx_pinsel.c:277: 	if (filterSlewRateEnable == DISABLE){
 275:core/lpc17xx_pinsel.c **** 	}
 276:core/lpc17xx_pinsel.c **** 
 277:core/lpc17xx_pinsel.c **** 	if (filterSlewRateEnable == DISABLE){
 483              		.loc 1 277 0
 484 001a BB79     		ldrb	r3, [r7, #6]	@ zero_extendqisi2	@ tmp117, filterSlewRateEnable
 485 001c 002B     		cmp	r3, #0	@ tmp117,
 486 001e 01D1     		bne	.L23	@,
 487              	@ core/lpc17xx_pinsel.c:278: 		regVal = PINSEL_I2CPADCFG_SCLI2C0 | PINSEL_I2CPADCFG_SDAI2C0;
 278:core/lpc17xx_pinsel.c **** 		regVal = PINSEL_I2CPADCFG_SCLI2C0 | PINSEL_I2CPADCFG_SDAI2C0;
 488              		.loc 1 278 0
 489 0020 0A23     		movs	r3, #10	@ tmp118,
 490 0022 FB60     		str	r3, [r7, #12]	@ tmp118, regVal
 491              	.L23:
 492              	@ core/lpc17xx_pinsel.c:280: 	LPC_PINCON->I2CPADCFG = regVal;
 279:core/lpc17xx_pinsel.c **** 	}
 280:core/lpc17xx_pinsel.c **** 	LPC_PINCON->I2CPADCFG = regVal;
 493              		.loc 1 280 0
 494 0024 034A     		ldr	r2, .L24	@ _1,
 495 0026 FB68     		ldr	r3, [r7, #12]	@ tmp119, regVal
 496 0028 D367     		str	r3, [r2, #124]	@ tmp119, _1->I2CPADCFG
 497              	@ core/lpc17xx_pinsel.c:281: }
 281:core/lpc17xx_pinsel.c **** }
 498              		.loc 1 281 0
 499 002a 00BF     		nop
 500 002c 1437     		adds	r7, r7, #20	@,,
 501              		.cfi_def_cfa_offset 4
 502 002e BD46     		mov	sp, r7	@,
 503              		.cfi_def_cfa_register 13
 504              		@ sp needed	@
 505 0030 80BC     		pop	{r7}	@
 506              		.cfi_restore 7
 507              		.cfi_def_cfa_offset 0
 508 0032 7047     		bx	lr	@
 509              	.L25:
 510              		.align	2
 511              	.L24:
 512 0034 00C00240 		.word	1073922048
 513              		.cfi_endproc
 514              	.LFE59:
ARM GAS  /tmp/ccneCrJk.s 			page 15


 515              		.size	PINSEL_SetI2C0Pins, .-PINSEL_SetI2C0Pins
 516              		.section	.text.PINSEL_ConfigPin,"ax",%progbits
 517              		.align	1
 518              		.global	PINSEL_ConfigPin
 519              		.syntax unified
 520              		.thumb
 521              		.thumb_func
 522              		.fpu softvfp
 523              		.type	PINSEL_ConfigPin, %function
 524              	PINSEL_ConfigPin:
 525              	.LFB60:
 282:core/lpc17xx_pinsel.c **** 
 283:core/lpc17xx_pinsel.c **** 
 284:core/lpc17xx_pinsel.c **** /*********************************************************************//**
 285:core/lpc17xx_pinsel.c ****  * @brief 		Configure Pin corresponding to specified parameters passed
 286:core/lpc17xx_pinsel.c ****  * 				in the PinCfg
 287:core/lpc17xx_pinsel.c ****  * @param[in]	PinCfg	Pointer to a PINSEL_CFG_Type structure
 288:core/lpc17xx_pinsel.c ****  *                    that contains the configuration information for the
 289:core/lpc17xx_pinsel.c ****  *                    specified pin.
 290:core/lpc17xx_pinsel.c ****  * @return 		None
 291:core/lpc17xx_pinsel.c ****  **********************************************************************/
 292:core/lpc17xx_pinsel.c **** void PINSEL_ConfigPin(PINSEL_CFG_Type *PinCfg)
 293:core/lpc17xx_pinsel.c **** {
 526              		.loc 1 293 0
 527              		.cfi_startproc
 528              		@ args = 0, pretend = 0, frame = 8
 529              		@ frame_needed = 1, uses_anonymous_args = 0
 530 0000 80B5     		push	{r7, lr}	@
 531              		.cfi_def_cfa_offset 8
 532              		.cfi_offset 7, -8
 533              		.cfi_offset 14, -4
 534 0002 82B0     		sub	sp, sp, #8	@,,
 535              		.cfi_def_cfa_offset 16
 536 0004 00AF     		add	r7, sp, #0	@,,
 537              		.cfi_def_cfa_register 7
 538 0006 7860     		str	r0, [r7, #4]	@ PinCfg, PinCfg
 539              	@ core/lpc17xx_pinsel.c:294: 	PINSEL_SetPinFunc(PinCfg->Portnum, PinCfg->Pinnum, PinCfg->Funcnum);
 294:core/lpc17xx_pinsel.c **** 	PINSEL_SetPinFunc(PinCfg->Portnum, PinCfg->Pinnum, PinCfg->Funcnum);
 540              		.loc 1 294 0
 541 0008 7B68     		ldr	r3, [r7, #4]	@ tmp119, PinCfg
 542 000a 1878     		ldrb	r0, [r3]	@ zero_extendqisi2	@ _1, PinCfg_11(D)->Portnum
 543 000c 7B68     		ldr	r3, [r7, #4]	@ tmp120, PinCfg
 544 000e 5978     		ldrb	r1, [r3, #1]	@ zero_extendqisi2	@ _2, PinCfg_11(D)->Pinnum
 545 0010 7B68     		ldr	r3, [r7, #4]	@ tmp121, PinCfg
 546 0012 9B78     		ldrb	r3, [r3, #2]	@ zero_extendqisi2	@ _3, PinCfg_11(D)->Funcnum
 547 0014 1A46     		mov	r2, r3	@, _3
 548 0016 FFF7FEFF 		bl	PINSEL_SetPinFunc	@
 549              	@ core/lpc17xx_pinsel.c:295: 	PINSEL_SetResistorMode(PinCfg->Portnum, PinCfg->Pinnum, PinCfg->Pinmo
 295:core/lpc17xx_pinsel.c **** 	PINSEL_SetResistorMode(PinCfg->Portnum, PinCfg->Pinnum, PinCfg->Pinmode);
 550              		.loc 1 295 0
 551 001a 7B68     		ldr	r3, [r7, #4]	@ tmp122, PinCfg
 552 001c 1878     		ldrb	r0, [r3]	@ zero_extendqisi2	@ _4, PinCfg_11(D)->Portnum
 553 001e 7B68     		ldr	r3, [r7, #4]	@ tmp123, PinCfg
 554 0020 5978     		ldrb	r1, [r3, #1]	@ zero_extendqisi2	@ _5, PinCfg_11(D)->Pinnum
 555 0022 7B68     		ldr	r3, [r7, #4]	@ tmp124, PinCfg
 556 0024 DB78     		ldrb	r3, [r3, #3]	@ zero_extendqisi2	@ _6, PinCfg_11(D)->Pinmode
 557 0026 1A46     		mov	r2, r3	@, _6
ARM GAS  /tmp/ccneCrJk.s 			page 16


 558 0028 FFF7FEFF 		bl	PINSEL_SetResistorMode	@
 559              	@ core/lpc17xx_pinsel.c:296: 	PINSEL_SetOpenDrainMode(PinCfg->Portnum, PinCfg->Pinnum, PinCfg->Open
 296:core/lpc17xx_pinsel.c **** 	PINSEL_SetOpenDrainMode(PinCfg->Portnum, PinCfg->Pinnum, PinCfg->OpenDrain);
 560              		.loc 1 296 0
 561 002c 7B68     		ldr	r3, [r7, #4]	@ tmp125, PinCfg
 562 002e 1878     		ldrb	r0, [r3]	@ zero_extendqisi2	@ _7, PinCfg_11(D)->Portnum
 563 0030 7B68     		ldr	r3, [r7, #4]	@ tmp126, PinCfg
 564 0032 5978     		ldrb	r1, [r3, #1]	@ zero_extendqisi2	@ _8, PinCfg_11(D)->Pinnum
 565 0034 7B68     		ldr	r3, [r7, #4]	@ tmp127, PinCfg
 566 0036 1B79     		ldrb	r3, [r3, #4]	@ zero_extendqisi2	@ _9, PinCfg_11(D)->OpenDrain
 567 0038 1A46     		mov	r2, r3	@, _9
 568 003a FFF7FEFF 		bl	PINSEL_SetOpenDrainMode	@
 569              	@ core/lpc17xx_pinsel.c:297: }
 297:core/lpc17xx_pinsel.c **** }
 570              		.loc 1 297 0
 571 003e 00BF     		nop
 572 0040 0837     		adds	r7, r7, #8	@,,
 573              		.cfi_def_cfa_offset 8
 574 0042 BD46     		mov	sp, r7	@,
 575              		.cfi_def_cfa_register 13
 576              		@ sp needed	@
 577 0044 80BD     		pop	{r7, pc}	@
 578              		.cfi_endproc
 579              	.LFE60:
 580              		.size	PINSEL_ConfigPin, .-PINSEL_ConfigPin
 581              		.text
 582              	.Letext0:
 583              		.file 2 "/usr/arm-none-eabi/include/machine/_default_types.h"
 584              		.file 3 "/usr/arm-none-eabi/include/sys/_stdint.h"
 585              		.file 4 "system/core_cm3.h"
 586              		.file 5 "system/system_LPC17xx.h"
 587              		.file 6 "system/LPC17xx.h"
 588              		.file 7 "core/lpc_types.h"
 589              		.file 8 "core/lpc17xx_pinsel.h"