ARM GAS  /tmp/ccKti1Oq.s 			page 1


   1              		.cpu cortex-m3
   2              		.eabi_attribute 20, 1	@ Tag_ABI_FP_denormal
   3              		.eabi_attribute 21, 1	@ Tag_ABI_FP_exceptions
   4              		.eabi_attribute 23, 3	@ Tag_ABI_FP_number_model
   5              		.eabi_attribute 24, 1	@ Tag_ABI_align8_needed
   6              		.eabi_attribute 25, 1	@ Tag_ABI_align8_preserved
   7              		.eabi_attribute 26, 1	@ Tag_ABI_enum_size
   8              		.eabi_attribute 30, 6	@ Tag_ABI_optimization_goals
   9              		.eabi_attribute 34, 1	@ Tag_CPU_unaligned_access
  10              		.eabi_attribute 18, 4	@ Tag_ABI_PCS_wchar_t
  11              		.file	"lpc17xx_timer.c"
  12              	@ GNU C89 (Arch Repository) version 7.1.0 (arm-none-eabi)
  13              	@	compiled by GNU C version 6.3.1 20170306, GMP version 6.1.2, MPFR version 3.1.5-p2, MPC version 1
  14              	
  15              	@ GGC heuristics: --param ggc-min-expand=100 --param ggc-min-heapsize=131072
  16              	@ options passed:  -I . -I config -I system -I core -I drivers -I FreeRTOS
  17              	@ -I FreeRTOS/include -I FreeRTOS/portable/GCC/ARM_CM3 -I FreeRTOS/portable
  18              	@ -I tasks/rc_task_leds -I tasks/rc_task_xbee -I modules/rc_leds
  19              	@ -I modules/rc_xbee -I modules/rc_scheduler -I drivers/rc_system
  20              	@ -I drivers/rc_gpio -I drivers/rc_uart -I drivers/rc_pinsel
  21              	@ -I drivers/rc_timer -I drivers/rc_adc -imultilib armv7-m
  22              	@ -MD out/lpc17xx_timer.d -MF out/lpc17xx_timer.d -MP
  23              	@ -MQ out/lpc17xx_timer.o -D__USES_INITFINI__ core/lpc17xx_timer.c
  24              	@ -mcpu=cortex-m3 -mthumb -auxbase-strip out/lpc17xx_timer.o -g -ggdb3 -O0
  25              	@ -Wall -Wstrict-prototypes -Wextra -std=gnu90 -ffunction-sections
  26              	@ -fdata-sections -fverbose-asm
  27              	@ options enabled:  -faggressive-loop-optimizations -fauto-inc-dec
  28              	@ -fchkp-check-incomplete-type -fchkp-check-read -fchkp-check-write
  29              	@ -fchkp-instrument-calls -fchkp-narrow-bounds -fchkp-optimize
  30              	@ -fchkp-store-bounds -fchkp-use-static-bounds
  31              	@ -fchkp-use-static-const-bounds -fchkp-use-wrappers -fcommon
  32              	@ -fdata-sections -fdelete-null-pointer-checks -fdwarf2-cfi-asm
  33              	@ -fearly-inlining -feliminate-unused-debug-types -ffp-int-builtin-inexact
  34              	@ -ffunction-cse -ffunction-sections -fgcse-lm -fgnu-runtime -fgnu-unique
  35              	@ -fident -finline-atomics -fira-hoist-pressure -fira-share-save-slots
  36              	@ -fira-share-spill-slots -fivopts -fkeep-static-consts
  37              	@ -fleading-underscore -flifetime-dse -flto-odr-type-merging -fmath-errno
  38              	@ -fmerge-debug-strings -fpeephole -fplt -fprefetch-loop-arrays
  39              	@ -freg-struct-return -fsched-critical-path-heuristic
  40              	@ -fsched-dep-count-heuristic -fsched-group-heuristic -fsched-interblock
  41              	@ -fsched-last-insn-heuristic -fsched-rank-heuristic -fsched-spec
  42              	@ -fsched-spec-insn-heuristic -fsched-stalled-insns-dep
  43              	@ -fsemantic-interposition -fshow-column -fshrink-wrap-separate
  44              	@ -fsigned-zeros -fsplit-ivs-in-unroller -fssa-backprop -fstdarg-opt
  45              	@ -fstrict-volatile-bitfields -fsync-libcalls -ftrapping-math -ftree-cselim
  46              	@ -ftree-forwprop -ftree-loop-if-convert -ftree-loop-im -ftree-loop-ivcanon
  47              	@ -ftree-loop-optimize -ftree-parallelize-loops= -ftree-phiprop
  48              	@ -ftree-reassoc -ftree-scev-cprop -funit-at-a-time -fverbose-asm
  49              	@ -fzero-initialized-in-bss -masm-syntax-unified -mfix-cortex-m3-ldrd
  50              	@ -mlittle-endian -mpic-data-is-text-relative -msched-prolog -mthumb
  51              	@ -munaligned-access -mvectorize-with-neon-quad
  52              	
  53              		.text
  54              	.Ltext0:
  55              		.cfi_sections	.debug_frame
  56              		.section	.text.TIM_GetPClock,"ax",%progbits
  57              		.align	1
ARM GAS  /tmp/ccKti1Oq.s 			page 2


  58              		.global	TIM_GetPClock
  59              		.syntax unified
  60              		.thumb
  61              		.thumb_func
  62              		.fpu softvfp
  63              		.type	TIM_GetPClock, %function
  64              	TIM_GetPClock:
  65              	.LFB55:
  66              		.file 1 "core/lpc17xx_timer.c"
   1:core/lpc17xx_timer.c **** /**
   2:core/lpc17xx_timer.c ****  * @file	: lpc17xx_timer.c
   3:core/lpc17xx_timer.c ****  * @brief	: Contains all functions support for Timer firmware library on LPC17xx
   4:core/lpc17xx_timer.c ****  * @version	: 1.0
   5:core/lpc17xx_timer.c ****  * @date	: 14. April. 2009
   6:core/lpc17xx_timer.c ****  * @author	: HieuNguyen
   7:core/lpc17xx_timer.c ****  **************************************************************************
   8:core/lpc17xx_timer.c ****  * Software that is described herein is for illustrative purposes only
   9:core/lpc17xx_timer.c ****  * which provides customers with programming information regarding the
  10:core/lpc17xx_timer.c ****  * products. This software is supplied "AS IS" without any warranties.
  11:core/lpc17xx_timer.c ****  * NXP Semiconductors assumes no responsibility or liability for the
  12:core/lpc17xx_timer.c ****  * use of the software, conveys no license or title under any patent,
  13:core/lpc17xx_timer.c ****  * copyright, or mask work right to the product. NXP Semiconductors
  14:core/lpc17xx_timer.c ****  * reserves the right to make changes in the software without
  15:core/lpc17xx_timer.c ****  * notification. NXP Semiconductors also make no representation or
  16:core/lpc17xx_timer.c ****  * warranty that such application will be suitable for the specified
  17:core/lpc17xx_timer.c ****  * use without further testing or modification.
  18:core/lpc17xx_timer.c ****  **********************************************************************/
  19:core/lpc17xx_timer.c **** 
  20:core/lpc17xx_timer.c **** /* Peripheral group ----------------------------------------------------------- */
  21:core/lpc17xx_timer.c **** /** @addtogroup TIM
  22:core/lpc17xx_timer.c ****  * @{
  23:core/lpc17xx_timer.c ****  */
  24:core/lpc17xx_timer.c **** 
  25:core/lpc17xx_timer.c **** /* Includes ------------------------------------------------------------------- */
  26:core/lpc17xx_timer.c **** #include "lpc17xx_timer.h"
  27:core/lpc17xx_timer.c **** #include "lpc17xx_clkpwr.h"
  28:core/lpc17xx_timer.c **** #include "lpc17xx_pinsel.h"
  29:core/lpc17xx_timer.c **** 
  30:core/lpc17xx_timer.c **** /* If this source file built with example, the LPC17xx FW library configuration
  31:core/lpc17xx_timer.c ****  * file in each example directory ("lpc17xx_libcfg.h") must be included,
  32:core/lpc17xx_timer.c ****  * otherwise the default FW library configuration file must be included instead
  33:core/lpc17xx_timer.c ****  */
  34:core/lpc17xx_timer.c **** #ifdef __BUILD_WITH_EXAMPLE__
  35:core/lpc17xx_timer.c **** #include "lpc17xx_libcfg.h"
  36:core/lpc17xx_timer.c **** #else
  37:core/lpc17xx_timer.c **** #include "lpc17xx_libcfg_default.h"
  38:core/lpc17xx_timer.c **** #endif /* __BUILD_WITH_EXAMPLE__ */
  39:core/lpc17xx_timer.c **** 
  40:core/lpc17xx_timer.c **** #ifdef _TIM
  41:core/lpc17xx_timer.c **** 
  42:core/lpc17xx_timer.c **** /* Private Functions ---------------------------------------------------------- */
  43:core/lpc17xx_timer.c **** /** @defgroup TIM_Private_Functions
  44:core/lpc17xx_timer.c ****  * @{
  45:core/lpc17xx_timer.c ****  */
  46:core/lpc17xx_timer.c **** 
  47:core/lpc17xx_timer.c **** uint32_t TIM_GetPClock (uint32_t timernum);
  48:core/lpc17xx_timer.c **** uint32_t TIM_ConverUSecToVal (uint32_t timernum, uint32_t usec);
ARM GAS  /tmp/ccKti1Oq.s 			page 3


  49:core/lpc17xx_timer.c **** uint32_t TIM_ConverPtrToTimeNum (LPC_TIM_TypeDef *TIMx);
  50:core/lpc17xx_timer.c **** 
  51:core/lpc17xx_timer.c **** 
  52:core/lpc17xx_timer.c **** /*********************************************************************//**
  53:core/lpc17xx_timer.c ****  * @brief 		Get peripheral clock of each timer controller
  54:core/lpc17xx_timer.c ****  * @param[in]	timernum Timer number
  55:core/lpc17xx_timer.c ****  * @return 		Peripheral clock of timer
  56:core/lpc17xx_timer.c ****  **********************************************************************/
  57:core/lpc17xx_timer.c **** 
  58:core/lpc17xx_timer.c **** uint32_t TIM_GetPClock (uint32_t timernum)
  59:core/lpc17xx_timer.c **** {
  67              		.loc 1 59 0
  68              		.cfi_startproc
  69              		@ args = 0, pretend = 0, frame = 16
  70              		@ frame_needed = 1, uses_anonymous_args = 0
  71 0000 80B5     		push	{r7, lr}	@
  72              		.cfi_def_cfa_offset 8
  73              		.cfi_offset 7, -8
  74              		.cfi_offset 14, -4
  75 0002 84B0     		sub	sp, sp, #16	@,,
  76              		.cfi_def_cfa_offset 24
  77 0004 00AF     		add	r7, sp, #0	@,,
  78              		.cfi_def_cfa_register 7
  79 0006 7860     		str	r0, [r7, #4]	@ timernum, timernum
  80              	@ core/lpc17xx_timer.c:61: 	switch (timernum)
  60:core/lpc17xx_timer.c **** 	uint32_t clkdlycnt;
  61:core/lpc17xx_timer.c **** 	switch (timernum)
  81              		.loc 1 61 0
  82 0008 7B68     		ldr	r3, [r7, #4]	@ tmp112, timernum
  83 000a 032B     		cmp	r3, #3	@ tmp112,
  84 000c 1ED8     		bhi	.L2	@
  85 000e 01A2     		adr	r2, .L4	@ tmp114,
  86 0010 52F823F0 		ldr	pc, [r2, r3, lsl #2]	@ tmp114, tmp112
  87              		.p2align 2
  88              	.L4:
  89 0014 25000000 		.word	.L3+1
  90 0018 2F000000 		.word	.L5+1
  91 001c 39000000 		.word	.L6+1
  92 0020 43000000 		.word	.L7+1
  93              		.p2align 1
  94              	.L3:
  95              	@ core/lpc17xx_timer.c:64: 		clkdlycnt = CLKPWR_GetPCLK (CLKPWR_PCLKSEL_TIMER0);
  62:core/lpc17xx_timer.c **** 	{
  63:core/lpc17xx_timer.c **** 	case 0:
  64:core/lpc17xx_timer.c **** 		clkdlycnt = CLKPWR_GetPCLK (CLKPWR_PCLKSEL_TIMER0);
  96              		.loc 1 64 0
  97 0024 0220     		movs	r0, #2	@,
  98 0026 FFF7FEFF 		bl	CLKPWR_GetPCLK	@
  99 002a F860     		str	r0, [r7, #12]	@, clkdlycnt
 100              	@ core/lpc17xx_timer.c:65: 		break;
  65:core/lpc17xx_timer.c **** 		break;
 101              		.loc 1 65 0
 102 002c 0EE0     		b	.L2	@
 103              	.L5:
 104              	@ core/lpc17xx_timer.c:68: 		clkdlycnt = CLKPWR_GetPCLK (CLKPWR_PCLKSEL_TIMER1);
  66:core/lpc17xx_timer.c **** 
  67:core/lpc17xx_timer.c **** 	case 1:
ARM GAS  /tmp/ccKti1Oq.s 			page 4


  68:core/lpc17xx_timer.c **** 		clkdlycnt = CLKPWR_GetPCLK (CLKPWR_PCLKSEL_TIMER1);
 105              		.loc 1 68 0
 106 002e 0420     		movs	r0, #4	@,
 107 0030 FFF7FEFF 		bl	CLKPWR_GetPCLK	@
 108 0034 F860     		str	r0, [r7, #12]	@, clkdlycnt
 109              	@ core/lpc17xx_timer.c:69: 		break;
  69:core/lpc17xx_timer.c **** 		break;
 110              		.loc 1 69 0
 111 0036 09E0     		b	.L2	@
 112              	.L6:
 113              	@ core/lpc17xx_timer.c:72: 		clkdlycnt = CLKPWR_GetPCLK (CLKPWR_PCLKSEL_TIMER2);
  70:core/lpc17xx_timer.c **** 
  71:core/lpc17xx_timer.c **** 	case 2:
  72:core/lpc17xx_timer.c **** 		clkdlycnt = CLKPWR_GetPCLK (CLKPWR_PCLKSEL_TIMER2);
 114              		.loc 1 72 0
 115 0038 2C20     		movs	r0, #44	@,
 116 003a FFF7FEFF 		bl	CLKPWR_GetPCLK	@
 117 003e F860     		str	r0, [r7, #12]	@, clkdlycnt
 118              	@ core/lpc17xx_timer.c:73: 		break;
  73:core/lpc17xx_timer.c **** 		break;
 119              		.loc 1 73 0
 120 0040 04E0     		b	.L2	@
 121              	.L7:
 122              	@ core/lpc17xx_timer.c:76: 		clkdlycnt = CLKPWR_GetPCLK (CLKPWR_PCLKSEL_TIMER3);
  74:core/lpc17xx_timer.c **** 
  75:core/lpc17xx_timer.c **** 	case 3:
  76:core/lpc17xx_timer.c **** 		clkdlycnt = CLKPWR_GetPCLK (CLKPWR_PCLKSEL_TIMER3);
 123              		.loc 1 76 0
 124 0042 2E20     		movs	r0, #46	@,
 125 0044 FFF7FEFF 		bl	CLKPWR_GetPCLK	@
 126 0048 F860     		str	r0, [r7, #12]	@, clkdlycnt
 127              	@ core/lpc17xx_timer.c:77: 		break;
  77:core/lpc17xx_timer.c **** 		break;
 128              		.loc 1 77 0
 129 004a 00BF     		nop
 130              	.L2:
 131              	@ core/lpc17xx_timer.c:79: 	return clkdlycnt;
  78:core/lpc17xx_timer.c **** 	}
  79:core/lpc17xx_timer.c **** 	return clkdlycnt;
 132              		.loc 1 79 0
 133 004c FB68     		ldr	r3, [r7, #12]	@ _14, clkdlycnt
 134              	@ core/lpc17xx_timer.c:80: }
  80:core/lpc17xx_timer.c **** }
 135              		.loc 1 80 0
 136 004e 1846     		mov	r0, r3	@, <retval>
 137 0050 1037     		adds	r7, r7, #16	@,,
 138              		.cfi_def_cfa_offset 8
 139 0052 BD46     		mov	sp, r7	@,
 140              		.cfi_def_cfa_register 13
 141              		@ sp needed	@
 142 0054 80BD     		pop	{r7, pc}	@
 143              		.cfi_endproc
 144              	.LFE55:
 145              		.size	TIM_GetPClock, .-TIM_GetPClock
 146              		.global	__aeabi_uldivmod
 147 0056 00BF     		.section	.text.TIM_ConverUSecToVal,"ax",%progbits
 148              		.align	1
ARM GAS  /tmp/ccKti1Oq.s 			page 5


 149              		.global	TIM_ConverUSecToVal
 150              		.syntax unified
 151              		.thumb
 152              		.thumb_func
 153              		.fpu softvfp
 154              		.type	TIM_ConverUSecToVal, %function
 155              	TIM_ConverUSecToVal:
 156              	.LFB56:
  81:core/lpc17xx_timer.c **** 
  82:core/lpc17xx_timer.c **** 
  83:core/lpc17xx_timer.c **** /*********************************************************************//**
  84:core/lpc17xx_timer.c ****  * @brief 		Convert a time to a timer count value
  85:core/lpc17xx_timer.c ****  * @param[in]	timernum Timer number
  86:core/lpc17xx_timer.c ****  * @param[in]	usec Time in microseconds
  87:core/lpc17xx_timer.c ****  * @return 		The number of required clock ticks to give the time delay
  88:core/lpc17xx_timer.c ****  **********************************************************************/
  89:core/lpc17xx_timer.c **** uint32_t TIM_ConverUSecToVal (uint32_t timernum, uint32_t usec)
  90:core/lpc17xx_timer.c **** {
 157              		.loc 1 90 0
 158              		.cfi_startproc
 159              		@ args = 0, pretend = 0, frame = 16
 160              		@ frame_needed = 1, uses_anonymous_args = 0
 161 0000 90B5     		push	{r4, r7, lr}	@
 162              		.cfi_def_cfa_offset 12
 163              		.cfi_offset 4, -12
 164              		.cfi_offset 7, -8
 165              		.cfi_offset 14, -4
 166 0002 85B0     		sub	sp, sp, #20	@,,
 167              		.cfi_def_cfa_offset 32
 168 0004 00AF     		add	r7, sp, #0	@,,
 169              		.cfi_def_cfa_register 7
 170 0006 7860     		str	r0, [r7, #4]	@ timernum, timernum
 171 0008 3960     		str	r1, [r7]	@ usec, usec
 172              	@ core/lpc17xx_timer.c:94: 	clkdlycnt = (uint64_t) TIM_GetPClock (timernum);
  91:core/lpc17xx_timer.c **** 	uint64_t clkdlycnt;
  92:core/lpc17xx_timer.c **** 
  93:core/lpc17xx_timer.c **** 	// Get Pclock of timer
  94:core/lpc17xx_timer.c **** 	clkdlycnt = (uint64_t) TIM_GetPClock (timernum);
 173              		.loc 1 94 0
 174 000a 7868     		ldr	r0, [r7, #4]	@, timernum
 175 000c FFF7FEFF 		bl	TIM_GetPClock	@
 176 0010 0346     		mov	r3, r0	@ _1,
 177 0012 4FF00004 		mov	r4, #0	@,
 178 0016 C7E90234 		strd	r3, [r7, #8]	@ tmp115,,
 179              	@ core/lpc17xx_timer.c:96: 	clkdlycnt = (clkdlycnt * usec) / 1000000;
  95:core/lpc17xx_timer.c **** 
  96:core/lpc17xx_timer.c **** 	clkdlycnt = (clkdlycnt * usec) / 1000000;
 180              		.loc 1 96 0
 181 001a 3B68     		ldr	r3, [r7]	@ tmp116, usec
 182 001c 4FF00004 		mov	r4, #0	@ _2,
 183 0020 BA68     		ldr	r2, [r7, #8]	@ tmp118, clkdlycnt
 184 0022 04FB02F1 		mul	r1, r4, r2	@ tmp117, _2, tmp118
 185 0026 FA68     		ldr	r2, [r7, #12]	@ tmp120, clkdlycnt
 186 0028 03FB02F2 		mul	r2, r3, r2	@ tmp119, _2, tmp120
 187 002c 0A44     		add	r2, r2, r1	@ tmp121, tmp117
 188 002e B968     		ldr	r1, [r7, #8]	@ tmp122, clkdlycnt
 189 0030 A1FB0301 		umull	r0, r1, r1, r3	@ _3, tmp122, _2
ARM GAS  /tmp/ccKti1Oq.s 			page 6


 190 0034 5318     		adds	r3, r2, r1	@ tmp123, tmp121, _3
 191 0036 1946     		mov	r1, r3	@ _3, tmp123
 192 0038 064A     		ldr	r2, .L11	@,
 193 003a 4FF00003 		mov	r3, #0	@,
 194 003e FFF7FEFF 		bl	__aeabi_uldivmod	@
 195              	.LVL0:
 196 0042 0346     		mov	r3, r0	@ tmp126,
 197 0044 0C46     		mov	r4, r1	@,
 198 0046 C7E90234 		strd	r3, [r7, #8]	@ tmp126,,
 199              	@ core/lpc17xx_timer.c:97: 	return (uint32_t) clkdlycnt;
  97:core/lpc17xx_timer.c **** 	return (uint32_t) clkdlycnt;
 200              		.loc 1 97 0
 201 004a BB68     		ldr	r3, [r7, #8]	@ _10, clkdlycnt
 202              	@ core/lpc17xx_timer.c:98: }
  98:core/lpc17xx_timer.c **** }
 203              		.loc 1 98 0
 204 004c 1846     		mov	r0, r3	@, <retval>
 205 004e 1437     		adds	r7, r7, #20	@,,
 206              		.cfi_def_cfa_offset 12
 207 0050 BD46     		mov	sp, r7	@,
 208              		.cfi_def_cfa_register 13
 209              		@ sp needed	@
 210 0052 90BD     		pop	{r4, r7, pc}	@
 211              	.L12:
 212              		.align	2
 213              	.L11:
 214 0054 40420F00 		.word	1000000
 215              		.cfi_endproc
 216              	.LFE56:
 217              		.size	TIM_ConverUSecToVal, .-TIM_ConverUSecToVal
 218              		.section	.text.TIM_ConverPtrToTimeNum,"ax",%progbits
 219              		.align	1
 220              		.global	TIM_ConverPtrToTimeNum
 221              		.syntax unified
 222              		.thumb
 223              		.thumb_func
 224              		.fpu softvfp
 225              		.type	TIM_ConverPtrToTimeNum, %function
 226              	TIM_ConverPtrToTimeNum:
 227              	.LFB57:
  99:core/lpc17xx_timer.c **** 
 100:core/lpc17xx_timer.c **** 
 101:core/lpc17xx_timer.c **** /*********************************************************************//**
 102:core/lpc17xx_timer.c ****  * @brief 		Convert a timer register pointer to a timer number
 103:core/lpc17xx_timer.c ****  * @param[in]	TIMx Pointer to a timer register set
 104:core/lpc17xx_timer.c ****  * @return 		The timer number (0 to 3) or -1 if register pointer is bad
 105:core/lpc17xx_timer.c ****  **********************************************************************/
 106:core/lpc17xx_timer.c **** uint32_t TIM_ConverPtrToTimeNum (LPC_TIM_TypeDef *TIMx)
 107:core/lpc17xx_timer.c **** {
 228              		.loc 1 107 0
 229              		.cfi_startproc
 230              		@ args = 0, pretend = 0, frame = 16
 231              		@ frame_needed = 1, uses_anonymous_args = 0
 232              		@ link register save eliminated.
 233 0000 80B4     		push	{r7}	@
 234              		.cfi_def_cfa_offset 4
 235              		.cfi_offset 7, -4
ARM GAS  /tmp/ccKti1Oq.s 			page 7


 236 0002 85B0     		sub	sp, sp, #20	@,,
 237              		.cfi_def_cfa_offset 24
 238 0004 00AF     		add	r7, sp, #0	@,,
 239              		.cfi_def_cfa_register 7
 240 0006 7860     		str	r0, [r7, #4]	@ TIMx, TIMx
 241              	@ core/lpc17xx_timer.c:108: 	uint32_t tnum = -1;
 108:core/lpc17xx_timer.c **** 	uint32_t tnum = -1;
 242              		.loc 1 108 0
 243 0008 4FF0FF33 		mov	r3, #-1	@ tmp112,
 244 000c FB60     		str	r3, [r7, #12]	@ tmp112, tnum
 245              	@ core/lpc17xx_timer.c:110: 	if (TIMx == LPC_TIM0)
 109:core/lpc17xx_timer.c **** 
 110:core/lpc17xx_timer.c **** 	if (TIMx == LPC_TIM0)
 246              		.loc 1 110 0
 247 000e 7B68     		ldr	r3, [r7, #4]	@ tmp113, TIMx
 248 0010 B3F1402F 		cmp	r3, #1073758208	@ tmp113,
 249 0014 02D1     		bne	.L14	@,
 250              	@ core/lpc17xx_timer.c:112: 		tnum = 0;
 111:core/lpc17xx_timer.c **** 	{
 112:core/lpc17xx_timer.c **** 		tnum = 0;
 251              		.loc 1 112 0
 252 0016 0023     		movs	r3, #0	@ tmp114,
 253 0018 FB60     		str	r3, [r7, #12]	@ tmp114, tnum
 254 001a 13E0     		b	.L15	@
 255              	.L14:
 256              	@ core/lpc17xx_timer.c:114: 	else if (TIMx == LPC_TIM1)
 113:core/lpc17xx_timer.c **** 	}
 114:core/lpc17xx_timer.c **** 	else if (TIMx == LPC_TIM1)
 257              		.loc 1 114 0
 258 001c 7B68     		ldr	r3, [r7, #4]	@ tmp115, TIMx
 259 001e 0C4A     		ldr	r2, .L19	@ tmp116,
 260 0020 9342     		cmp	r3, r2	@ tmp115, tmp116
 261 0022 02D1     		bne	.L16	@,
 262              	@ core/lpc17xx_timer.c:116: 		tnum = 1;
 115:core/lpc17xx_timer.c **** 	{
 116:core/lpc17xx_timer.c **** 		tnum = 1;
 263              		.loc 1 116 0
 264 0024 0123     		movs	r3, #1	@ tmp117,
 265 0026 FB60     		str	r3, [r7, #12]	@ tmp117, tnum
 266 0028 0CE0     		b	.L15	@
 267              	.L16:
 268              	@ core/lpc17xx_timer.c:118: 	else if (TIMx == LPC_TIM2)
 117:core/lpc17xx_timer.c **** 	}
 118:core/lpc17xx_timer.c **** 	else if (TIMx == LPC_TIM2)
 269              		.loc 1 118 0
 270 002a 7B68     		ldr	r3, [r7, #4]	@ tmp118, TIMx
 271 002c 094A     		ldr	r2, .L19+4	@ tmp119,
 272 002e 9342     		cmp	r3, r2	@ tmp118, tmp119
 273 0030 02D1     		bne	.L17	@,
 274              	@ core/lpc17xx_timer.c:120: 		tnum = 2;
 119:core/lpc17xx_timer.c **** 	{
 120:core/lpc17xx_timer.c **** 		tnum = 2;
 275              		.loc 1 120 0
 276 0032 0223     		movs	r3, #2	@ tmp120,
 277 0034 FB60     		str	r3, [r7, #12]	@ tmp120, tnum
 278 0036 05E0     		b	.L15	@
 279              	.L17:
ARM GAS  /tmp/ccKti1Oq.s 			page 8


 280              	@ core/lpc17xx_timer.c:122: 	else if (TIMx == LPC_TIM3)
 121:core/lpc17xx_timer.c **** 	}
 122:core/lpc17xx_timer.c **** 	else if (TIMx == LPC_TIM3)
 281              		.loc 1 122 0
 282 0038 7B68     		ldr	r3, [r7, #4]	@ tmp121, TIMx
 283 003a 074A     		ldr	r2, .L19+8	@ tmp122,
 284 003c 9342     		cmp	r3, r2	@ tmp121, tmp122
 285 003e 01D1     		bne	.L15	@,
 286              	@ core/lpc17xx_timer.c:124: 		tnum = 3;
 123:core/lpc17xx_timer.c **** 	{
 124:core/lpc17xx_timer.c **** 		tnum = 3;
 287              		.loc 1 124 0
 288 0040 0323     		movs	r3, #3	@ tmp123,
 289 0042 FB60     		str	r3, [r7, #12]	@ tmp123, tnum
 290              	.L15:
 291              	@ core/lpc17xx_timer.c:127: 	return tnum;
 125:core/lpc17xx_timer.c **** 	}
 126:core/lpc17xx_timer.c **** 
 127:core/lpc17xx_timer.c **** 	return tnum;
 292              		.loc 1 127 0
 293 0044 FB68     		ldr	r3, [r7, #12]	@ _8, tnum
 294              	@ core/lpc17xx_timer.c:128: }
 128:core/lpc17xx_timer.c **** }
 295              		.loc 1 128 0
 296 0046 1846     		mov	r0, r3	@, <retval>
 297 0048 1437     		adds	r7, r7, #20	@,,
 298              		.cfi_def_cfa_offset 4
 299 004a BD46     		mov	sp, r7	@,
 300              		.cfi_def_cfa_register 13
 301              		@ sp needed	@
 302 004c 80BC     		pop	{r7}	@
 303              		.cfi_restore 7
 304              		.cfi_def_cfa_offset 0
 305 004e 7047     		bx	lr	@
 306              	.L20:
 307              		.align	2
 308              	.L19:
 309 0050 00800040 		.word	1073774592
 310 0054 00000940 		.word	1074331648
 311 0058 00400940 		.word	1074348032
 312              		.cfi_endproc
 313              	.LFE57:
 314              		.size	TIM_ConverPtrToTimeNum, .-TIM_ConverPtrToTimeNum
 315              		.section	.rodata
 316              		.align	2
 317              	.LC0:
 318 0000 636F7265 		.ascii	"core/lpc17xx_timer.c\000"
 318      2F6C7063 
 318      31377878 
 318      5F74696D 
 318      65722E63 
 319              		.section	.text.TIM_GetIntStatus,"ax",%progbits
 320              		.align	1
 321              		.global	TIM_GetIntStatus
 322              		.syntax unified
 323              		.thumb
 324              		.thumb_func
ARM GAS  /tmp/ccKti1Oq.s 			page 9


 325              		.fpu softvfp
 326              		.type	TIM_GetIntStatus, %function
 327              	TIM_GetIntStatus:
 328              	.LFB58:
 129:core/lpc17xx_timer.c **** 
 130:core/lpc17xx_timer.c **** /**
 131:core/lpc17xx_timer.c ****  * @}
 132:core/lpc17xx_timer.c ****  */
 133:core/lpc17xx_timer.c **** 
 134:core/lpc17xx_timer.c **** 
 135:core/lpc17xx_timer.c **** /* Public Functions ----------------------------------------------------------- */
 136:core/lpc17xx_timer.c **** /** @addtogroup TIM_Public_Functions
 137:core/lpc17xx_timer.c ****  * @{
 138:core/lpc17xx_timer.c ****  */
 139:core/lpc17xx_timer.c **** 
 140:core/lpc17xx_timer.c **** /*********************************************************************//**
 141:core/lpc17xx_timer.c ****  * @brief 		Get Interrupt Status
 142:core/lpc17xx_timer.c ****  * @param[in]	TIMx Timer selection, should be TIM0, TIM1, TIM2, TIM3
 143:core/lpc17xx_timer.c ****  * @param[in]	IntFlag
 144:core/lpc17xx_timer.c ****  * @return 		FlagStatus
 145:core/lpc17xx_timer.c ****  * 				- SET : interrupt
 146:core/lpc17xx_timer.c ****  * 				- RESET : no interrupt
 147:core/lpc17xx_timer.c ****  **********************************************************************/
 148:core/lpc17xx_timer.c **** FlagStatus TIM_GetIntStatus(LPC_TIM_TypeDef *TIMx, uint8_t IntFlag)
 149:core/lpc17xx_timer.c **** {
 329              		.loc 1 149 0
 330              		.cfi_startproc
 331              		@ args = 0, pretend = 0, frame = 16
 332              		@ frame_needed = 1, uses_anonymous_args = 0
 333 0000 80B5     		push	{r7, lr}	@
 334              		.cfi_def_cfa_offset 8
 335              		.cfi_offset 7, -8
 336              		.cfi_offset 14, -4
 337 0002 84B0     		sub	sp, sp, #16	@,,
 338              		.cfi_def_cfa_offset 24
 339 0004 00AF     		add	r7, sp, #0	@,,
 340              		.cfi_def_cfa_register 7
 341 0006 7860     		str	r0, [r7, #4]	@ TIMx, TIMx
 342 0008 0B46     		mov	r3, r1	@ tmp117, IntFlag
 343 000a FB70     		strb	r3, [r7, #3]	@ tmp118, IntFlag
 344              	@ core/lpc17xx_timer.c:150: 	CHECK_PARAM(PARAM_TIMx(TIMx));
 150:core/lpc17xx_timer.c **** 	CHECK_PARAM(PARAM_TIMx(TIMx));
 345              		.loc 1 150 0
 346 000c 7B68     		ldr	r3, [r7, #4]	@ tmp119, TIMx
 347 000e B3F1402F 		cmp	r3, #1073758208	@ tmp119,
 348 0012 0FD0     		beq	.L22	@,
 349              	@ core/lpc17xx_timer.c:150: 	CHECK_PARAM(PARAM_TIMx(TIMx));
 350              		.loc 1 150 0 is_stmt 0 discriminator 1
 351 0014 7B68     		ldr	r3, [r7, #4]	@ tmp120, TIMx
 352 0016 1C4A     		ldr	r2, .L26	@ tmp121,
 353 0018 9342     		cmp	r3, r2	@ tmp120, tmp121
 354 001a 0BD0     		beq	.L22	@,
 355              	@ core/lpc17xx_timer.c:150: 	CHECK_PARAM(PARAM_TIMx(TIMx));
 356              		.loc 1 150 0 discriminator 2
 357 001c 7B68     		ldr	r3, [r7, #4]	@ tmp122, TIMx
 358 001e 1B4A     		ldr	r2, .L26+4	@ tmp123,
 359 0020 9342     		cmp	r3, r2	@ tmp122, tmp123
ARM GAS  /tmp/ccKti1Oq.s 			page 10


 360 0022 07D0     		beq	.L22	@,
 361              	@ core/lpc17xx_timer.c:150: 	CHECK_PARAM(PARAM_TIMx(TIMx));
 362              		.loc 1 150 0 discriminator 3
 363 0024 7B68     		ldr	r3, [r7, #4]	@ tmp124, TIMx
 364 0026 1A4A     		ldr	r2, .L26+8	@ tmp125,
 365 0028 9342     		cmp	r3, r2	@ tmp124, tmp125
 366 002a 03D0     		beq	.L22	@,
 367              	@ core/lpc17xx_timer.c:150: 	CHECK_PARAM(PARAM_TIMx(TIMx));
 368              		.loc 1 150 0 discriminator 4
 369 002c 9621     		movs	r1, #150	@,
 370 002e 1948     		ldr	r0, .L26+12	@,
 371 0030 FFF7FEFF 		bl	check_failed	@
 372              	.L22:
 373              	@ core/lpc17xx_timer.c:151: 	CHECK_PARAM(PARAM_TIM_INT_TYPE(IntFlag));
 151:core/lpc17xx_timer.c **** 	CHECK_PARAM(PARAM_TIM_INT_TYPE(IntFlag));
 374              		.loc 1 151 0 is_stmt 1
 375 0034 FB78     		ldrb	r3, [r7, #3]	@ zero_extendqisi2	@ tmp126, IntFlag
 376 0036 002B     		cmp	r3, #0	@ tmp126,
 377 0038 12D0     		beq	.L23	@,
 378              	@ core/lpc17xx_timer.c:151: 	CHECK_PARAM(PARAM_TIM_INT_TYPE(IntFlag));
 379              		.loc 1 151 0 is_stmt 0 discriminator 1
 380 003a FB78     		ldrb	r3, [r7, #3]	@ zero_extendqisi2	@ tmp127, IntFlag
 381 003c 012B     		cmp	r3, #1	@ tmp127,
 382 003e 0FD0     		beq	.L23	@,
 383              	@ core/lpc17xx_timer.c:151: 	CHECK_PARAM(PARAM_TIM_INT_TYPE(IntFlag));
 384              		.loc 1 151 0 discriminator 2
 385 0040 FB78     		ldrb	r3, [r7, #3]	@ zero_extendqisi2	@ tmp128, IntFlag
 386 0042 022B     		cmp	r3, #2	@ tmp128,
 387 0044 0CD0     		beq	.L23	@,
 388              	@ core/lpc17xx_timer.c:151: 	CHECK_PARAM(PARAM_TIM_INT_TYPE(IntFlag));
 389              		.loc 1 151 0 discriminator 3
 390 0046 FB78     		ldrb	r3, [r7, #3]	@ zero_extendqisi2	@ tmp129, IntFlag
 391 0048 032B     		cmp	r3, #3	@ tmp129,
 392 004a 09D0     		beq	.L23	@,
 393              	@ core/lpc17xx_timer.c:151: 	CHECK_PARAM(PARAM_TIM_INT_TYPE(IntFlag));
 394              		.loc 1 151 0 discriminator 4
 395 004c FB78     		ldrb	r3, [r7, #3]	@ zero_extendqisi2	@ tmp130, IntFlag
 396 004e 042B     		cmp	r3, #4	@ tmp130,
 397 0050 06D0     		beq	.L23	@,
 398              	@ core/lpc17xx_timer.c:151: 	CHECK_PARAM(PARAM_TIM_INT_TYPE(IntFlag));
 399              		.loc 1 151 0 discriminator 5
 400 0052 FB78     		ldrb	r3, [r7, #3]	@ zero_extendqisi2	@ tmp131, IntFlag
 401 0054 052B     		cmp	r3, #5	@ tmp131,
 402 0056 03D0     		beq	.L23	@,
 403              	@ core/lpc17xx_timer.c:151: 	CHECK_PARAM(PARAM_TIM_INT_TYPE(IntFlag));
 404              		.loc 1 151 0 discriminator 6
 405 0058 9721     		movs	r1, #151	@,
 406 005a 0E48     		ldr	r0, .L26+12	@,
 407 005c FFF7FEFF 		bl	check_failed	@
 408              	.L23:
 409              	@ core/lpc17xx_timer.c:152: 	uint8_t temp = (TIMx->IR)& TIM_IR_CLR(IntFlag);
 152:core/lpc17xx_timer.c **** 	uint8_t temp = (TIMx->IR)& TIM_IR_CLR(IntFlag);
 410              		.loc 1 152 0 is_stmt 1
 411 0060 7B68     		ldr	r3, [r7, #4]	@ tmp132, TIMx
 412 0062 1B68     		ldr	r3, [r3]	@ _1, TIMx_9(D)->IR
 413 0064 DAB2     		uxtb	r2, r3	@ _2, _1
 414 0066 FB78     		ldrb	r3, [r7, #3]	@ zero_extendqisi2	@ _3, IntFlag
ARM GAS  /tmp/ccKti1Oq.s 			page 11


 415 0068 0121     		movs	r1, #1	@ tmp133,
 416 006a 01FA03F3 		lsl	r3, r1, r3	@ _4, tmp133, _3
 417 006e DBB2     		uxtb	r3, r3	@ _5, _4
 418 0070 1340     		ands	r3, r3, r2	@, tmp134, _5, _2
 419 0072 FB73     		strb	r3, [r7, #15]	@ tmp135, temp
 420              	@ core/lpc17xx_timer.c:153: 	if (temp)
 153:core/lpc17xx_timer.c **** 	if (temp)
 421              		.loc 1 153 0
 422 0074 FB7B     		ldrb	r3, [r7, #15]	@ zero_extendqisi2	@ tmp136, temp
 423 0076 002B     		cmp	r3, #0	@ tmp136,
 424 0078 01D0     		beq	.L24	@,
 425              	@ core/lpc17xx_timer.c:154: 		return SET;
 154:core/lpc17xx_timer.c **** 		return SET;
 426              		.loc 1 154 0
 427 007a 0123     		movs	r3, #1	@ _6,
 428 007c 00E0     		b	.L25	@
 429              	.L24:
 430              	@ core/lpc17xx_timer.c:156: 	return RESET;
 155:core/lpc17xx_timer.c **** 
 156:core/lpc17xx_timer.c **** 	return RESET;
 431              		.loc 1 156 0
 432 007e 0023     		movs	r3, #0	@ _6,
 433              	.L25:
 434              	@ core/lpc17xx_timer.c:158: }
 157:core/lpc17xx_timer.c **** 
 158:core/lpc17xx_timer.c **** }
 435              		.loc 1 158 0
 436 0080 1846     		mov	r0, r3	@, <retval>
 437 0082 1037     		adds	r7, r7, #16	@,,
 438              		.cfi_def_cfa_offset 8
 439 0084 BD46     		mov	sp, r7	@,
 440              		.cfi_def_cfa_register 13
 441              		@ sp needed	@
 442 0086 80BD     		pop	{r7, pc}	@
 443              	.L27:
 444              		.align	2
 445              	.L26:
 446 0088 00800040 		.word	1073774592
 447 008c 00000940 		.word	1074331648
 448 0090 00400940 		.word	1074348032
 449 0094 00000000 		.word	.LC0
 450              		.cfi_endproc
 451              	.LFE58:
 452              		.size	TIM_GetIntStatus, .-TIM_GetIntStatus
 453              		.section	.text.TIM_GetIntCaptureStatus,"ax",%progbits
 454              		.align	1
 455              		.global	TIM_GetIntCaptureStatus
 456              		.syntax unified
 457              		.thumb
 458              		.thumb_func
 459              		.fpu softvfp
 460              		.type	TIM_GetIntCaptureStatus, %function
 461              	TIM_GetIntCaptureStatus:
 462              	.LFB59:
 159:core/lpc17xx_timer.c **** /*********************************************************************//**
 160:core/lpc17xx_timer.c ****  * @brief 		Get Capture Interrupt Status
 161:core/lpc17xx_timer.c ****  * @param[in]	TIMx Timer selection, should be TIM0, TIM1, TIM2, TIM3
ARM GAS  /tmp/ccKti1Oq.s 			page 12


 162:core/lpc17xx_timer.c ****  * @param[in]	IntFlag
 163:core/lpc17xx_timer.c ****  * @return 		FlagStatus
 164:core/lpc17xx_timer.c ****  * 				- SET : interrupt
 165:core/lpc17xx_timer.c ****  * 				- RESET : no interrupt
 166:core/lpc17xx_timer.c ****  **********************************************************************/
 167:core/lpc17xx_timer.c **** FlagStatus TIM_GetIntCaptureStatus(LPC_TIM_TypeDef *TIMx, uint8_t IntFlag)
 168:core/lpc17xx_timer.c **** {
 463              		.loc 1 168 0
 464              		.cfi_startproc
 465              		@ args = 0, pretend = 0, frame = 16
 466              		@ frame_needed = 1, uses_anonymous_args = 0
 467 0000 80B5     		push	{r7, lr}	@
 468              		.cfi_def_cfa_offset 8
 469              		.cfi_offset 7, -8
 470              		.cfi_offset 14, -4
 471 0002 84B0     		sub	sp, sp, #16	@,,
 472              		.cfi_def_cfa_offset 24
 473 0004 00AF     		add	r7, sp, #0	@,,
 474              		.cfi_def_cfa_register 7
 475 0006 7860     		str	r0, [r7, #4]	@ TIMx, TIMx
 476 0008 0B46     		mov	r3, r1	@ tmp118, IntFlag
 477 000a FB70     		strb	r3, [r7, #3]	@ tmp119, IntFlag
 478              	@ core/lpc17xx_timer.c:169: 	CHECK_PARAM(PARAM_TIMx(TIMx));
 169:core/lpc17xx_timer.c **** 	CHECK_PARAM(PARAM_TIMx(TIMx));
 479              		.loc 1 169 0
 480 000c 7B68     		ldr	r3, [r7, #4]	@ tmp120, TIMx
 481 000e B3F1402F 		cmp	r3, #1073758208	@ tmp120,
 482 0012 0FD0     		beq	.L29	@,
 483              	@ core/lpc17xx_timer.c:169: 	CHECK_PARAM(PARAM_TIMx(TIMx));
 484              		.loc 1 169 0 is_stmt 0 discriminator 1
 485 0014 7B68     		ldr	r3, [r7, #4]	@ tmp121, TIMx
 486 0016 1D4A     		ldr	r2, .L33	@ tmp122,
 487 0018 9342     		cmp	r3, r2	@ tmp121, tmp122
 488 001a 0BD0     		beq	.L29	@,
 489              	@ core/lpc17xx_timer.c:169: 	CHECK_PARAM(PARAM_TIMx(TIMx));
 490              		.loc 1 169 0 discriminator 2
 491 001c 7B68     		ldr	r3, [r7, #4]	@ tmp123, TIMx
 492 001e 1C4A     		ldr	r2, .L33+4	@ tmp124,
 493 0020 9342     		cmp	r3, r2	@ tmp123, tmp124
 494 0022 07D0     		beq	.L29	@,
 495              	@ core/lpc17xx_timer.c:169: 	CHECK_PARAM(PARAM_TIMx(TIMx));
 496              		.loc 1 169 0 discriminator 3
 497 0024 7B68     		ldr	r3, [r7, #4]	@ tmp125, TIMx
 498 0026 1B4A     		ldr	r2, .L33+8	@ tmp126,
 499 0028 9342     		cmp	r3, r2	@ tmp125, tmp126
 500 002a 03D0     		beq	.L29	@,
 501              	@ core/lpc17xx_timer.c:169: 	CHECK_PARAM(PARAM_TIMx(TIMx));
 502              		.loc 1 169 0 discriminator 4
 503 002c A921     		movs	r1, #169	@,
 504 002e 1A48     		ldr	r0, .L33+12	@,
 505 0030 FFF7FEFF 		bl	check_failed	@
 506              	.L29:
 507              	@ core/lpc17xx_timer.c:170: 	CHECK_PARAM(PARAM_TIM_INT_TYPE(IntFlag));
 170:core/lpc17xx_timer.c **** 	CHECK_PARAM(PARAM_TIM_INT_TYPE(IntFlag));
 508              		.loc 1 170 0 is_stmt 1
 509 0034 FB78     		ldrb	r3, [r7, #3]	@ zero_extendqisi2	@ tmp127, IntFlag
 510 0036 002B     		cmp	r3, #0	@ tmp127,
ARM GAS  /tmp/ccKti1Oq.s 			page 13


 511 0038 12D0     		beq	.L30	@,
 512              	@ core/lpc17xx_timer.c:170: 	CHECK_PARAM(PARAM_TIM_INT_TYPE(IntFlag));
 513              		.loc 1 170 0 is_stmt 0 discriminator 1
 514 003a FB78     		ldrb	r3, [r7, #3]	@ zero_extendqisi2	@ tmp128, IntFlag
 515 003c 012B     		cmp	r3, #1	@ tmp128,
 516 003e 0FD0     		beq	.L30	@,
 517              	@ core/lpc17xx_timer.c:170: 	CHECK_PARAM(PARAM_TIM_INT_TYPE(IntFlag));
 518              		.loc 1 170 0 discriminator 2
 519 0040 FB78     		ldrb	r3, [r7, #3]	@ zero_extendqisi2	@ tmp129, IntFlag
 520 0042 022B     		cmp	r3, #2	@ tmp129,
 521 0044 0CD0     		beq	.L30	@,
 522              	@ core/lpc17xx_timer.c:170: 	CHECK_PARAM(PARAM_TIM_INT_TYPE(IntFlag));
 523              		.loc 1 170 0 discriminator 3
 524 0046 FB78     		ldrb	r3, [r7, #3]	@ zero_extendqisi2	@ tmp130, IntFlag
 525 0048 032B     		cmp	r3, #3	@ tmp130,
 526 004a 09D0     		beq	.L30	@,
 527              	@ core/lpc17xx_timer.c:170: 	CHECK_PARAM(PARAM_TIM_INT_TYPE(IntFlag));
 528              		.loc 1 170 0 discriminator 4
 529 004c FB78     		ldrb	r3, [r7, #3]	@ zero_extendqisi2	@ tmp131, IntFlag
 530 004e 042B     		cmp	r3, #4	@ tmp131,
 531 0050 06D0     		beq	.L30	@,
 532              	@ core/lpc17xx_timer.c:170: 	CHECK_PARAM(PARAM_TIM_INT_TYPE(IntFlag));
 533              		.loc 1 170 0 discriminator 5
 534 0052 FB78     		ldrb	r3, [r7, #3]	@ zero_extendqisi2	@ tmp132, IntFlag
 535 0054 052B     		cmp	r3, #5	@ tmp132,
 536 0056 03D0     		beq	.L30	@,
 537              	@ core/lpc17xx_timer.c:170: 	CHECK_PARAM(PARAM_TIM_INT_TYPE(IntFlag));
 538              		.loc 1 170 0 discriminator 6
 539 0058 AA21     		movs	r1, #170	@,
 540 005a 0F48     		ldr	r0, .L33+12	@,
 541 005c FFF7FEFF 		bl	check_failed	@
 542              	.L30:
 543              	@ core/lpc17xx_timer.c:171: 	uint8_t temp = (TIMx->IR) & (1<<(4+IntFlag));
 171:core/lpc17xx_timer.c **** 	uint8_t temp = (TIMx->IR) & (1<<(4+IntFlag));
 544              		.loc 1 171 0 is_stmt 1
 545 0060 7B68     		ldr	r3, [r7, #4]	@ tmp133, TIMx
 546 0062 1B68     		ldr	r3, [r3]	@ _1, TIMx_10(D)->IR
 547 0064 DAB2     		uxtb	r2, r3	@ _2, _1
 548 0066 FB78     		ldrb	r3, [r7, #3]	@ zero_extendqisi2	@ _3, IntFlag
 549 0068 0433     		adds	r3, r3, #4	@ _4, _3,
 550 006a 0121     		movs	r1, #1	@ tmp134,
 551 006c 01FA03F3 		lsl	r3, r1, r3	@ _5, tmp134, _4
 552 0070 DBB2     		uxtb	r3, r3	@ _6, _5
 553 0072 1340     		ands	r3, r3, r2	@, tmp135, _6, _2
 554 0074 FB73     		strb	r3, [r7, #15]	@ tmp136, temp
 555              	@ core/lpc17xx_timer.c:172: 	if(temp)
 172:core/lpc17xx_timer.c **** 	if(temp)
 556              		.loc 1 172 0
 557 0076 FB7B     		ldrb	r3, [r7, #15]	@ zero_extendqisi2	@ tmp137, temp
 558 0078 002B     		cmp	r3, #0	@ tmp137,
 559 007a 01D0     		beq	.L31	@,
 560              	@ core/lpc17xx_timer.c:173: 		return SET;
 173:core/lpc17xx_timer.c **** 		return SET;
 561              		.loc 1 173 0
 562 007c 0123     		movs	r3, #1	@ _7,
 563 007e 00E0     		b	.L32	@
 564              	.L31:
ARM GAS  /tmp/ccKti1Oq.s 			page 14


 565              	@ core/lpc17xx_timer.c:174: 	return RESET;
 174:core/lpc17xx_timer.c **** 	return RESET;
 566              		.loc 1 174 0
 567 0080 0023     		movs	r3, #0	@ _7,
 568              	.L32:
 569              	@ core/lpc17xx_timer.c:175: }
 175:core/lpc17xx_timer.c **** }
 570              		.loc 1 175 0
 571 0082 1846     		mov	r0, r3	@, <retval>
 572 0084 1037     		adds	r7, r7, #16	@,,
 573              		.cfi_def_cfa_offset 8
 574 0086 BD46     		mov	sp, r7	@,
 575              		.cfi_def_cfa_register 13
 576              		@ sp needed	@
 577 0088 80BD     		pop	{r7, pc}	@
 578              	.L34:
 579 008a 00BF     		.align	2
 580              	.L33:
 581 008c 00800040 		.word	1073774592
 582 0090 00000940 		.word	1074331648
 583 0094 00400940 		.word	1074348032
 584 0098 00000000 		.word	.LC0
 585              		.cfi_endproc
 586              	.LFE59:
 587              		.size	TIM_GetIntCaptureStatus, .-TIM_GetIntCaptureStatus
 588              		.section	.text.TIM_ClearIntPending,"ax",%progbits
 589              		.align	1
 590              		.global	TIM_ClearIntPending
 591              		.syntax unified
 592              		.thumb
 593              		.thumb_func
 594              		.fpu softvfp
 595              		.type	TIM_ClearIntPending, %function
 596              	TIM_ClearIntPending:
 597              	.LFB60:
 176:core/lpc17xx_timer.c **** /*********************************************************************//**
 177:core/lpc17xx_timer.c ****  * @brief 		Clear Interrupt pending
 178:core/lpc17xx_timer.c ****  * @param[in]	TIMx Timer selection, should be TIM0, TIM1, TIM2, TIM3
 179:core/lpc17xx_timer.c ****  * @param[in]	IntFlag should be in TIM_INT_TYPE enum
 180:core/lpc17xx_timer.c ****  * @return 		None
 181:core/lpc17xx_timer.c ****  **********************************************************************/
 182:core/lpc17xx_timer.c **** void TIM_ClearIntPending(LPC_TIM_TypeDef *TIMx, uint8_t IntFlag)
 183:core/lpc17xx_timer.c **** {
 598              		.loc 1 183 0
 599              		.cfi_startproc
 600              		@ args = 0, pretend = 0, frame = 8
 601              		@ frame_needed = 1, uses_anonymous_args = 0
 602 0000 80B5     		push	{r7, lr}	@
 603              		.cfi_def_cfa_offset 8
 604              		.cfi_offset 7, -8
 605              		.cfi_offset 14, -4
 606 0002 82B0     		sub	sp, sp, #8	@,,
 607              		.cfi_def_cfa_offset 16
 608 0004 00AF     		add	r7, sp, #0	@,,
 609              		.cfi_def_cfa_register 7
 610 0006 7860     		str	r0, [r7, #4]	@ TIMx, TIMx
 611 0008 0B46     		mov	r3, r1	@ tmp115, IntFlag
ARM GAS  /tmp/ccKti1Oq.s 			page 15


 612 000a FB70     		strb	r3, [r7, #3]	@ tmp116, IntFlag
 613              	@ core/lpc17xx_timer.c:184: 	CHECK_PARAM(PARAM_TIMx(TIMx));
 184:core/lpc17xx_timer.c **** 	CHECK_PARAM(PARAM_TIMx(TIMx));
 614              		.loc 1 184 0
 615 000c 7B68     		ldr	r3, [r7, #4]	@ tmp117, TIMx
 616 000e B3F1402F 		cmp	r3, #1073758208	@ tmp117,
 617 0012 0FD0     		beq	.L36	@,
 618              	@ core/lpc17xx_timer.c:184: 	CHECK_PARAM(PARAM_TIMx(TIMx));
 619              		.loc 1 184 0 is_stmt 0 discriminator 1
 620 0014 7B68     		ldr	r3, [r7, #4]	@ tmp118, TIMx
 621 0016 194A     		ldr	r2, .L38	@ tmp119,
 622 0018 9342     		cmp	r3, r2	@ tmp118, tmp119
 623 001a 0BD0     		beq	.L36	@,
 624              	@ core/lpc17xx_timer.c:184: 	CHECK_PARAM(PARAM_TIMx(TIMx));
 625              		.loc 1 184 0 discriminator 2
 626 001c 7B68     		ldr	r3, [r7, #4]	@ tmp120, TIMx
 627 001e 184A     		ldr	r2, .L38+4	@ tmp121,
 628 0020 9342     		cmp	r3, r2	@ tmp120, tmp121
 629 0022 07D0     		beq	.L36	@,
 630              	@ core/lpc17xx_timer.c:184: 	CHECK_PARAM(PARAM_TIMx(TIMx));
 631              		.loc 1 184 0 discriminator 3
 632 0024 7B68     		ldr	r3, [r7, #4]	@ tmp122, TIMx
 633 0026 174A     		ldr	r2, .L38+8	@ tmp123,
 634 0028 9342     		cmp	r3, r2	@ tmp122, tmp123
 635 002a 03D0     		beq	.L36	@,
 636              	@ core/lpc17xx_timer.c:184: 	CHECK_PARAM(PARAM_TIMx(TIMx));
 637              		.loc 1 184 0 discriminator 4
 638 002c B821     		movs	r1, #184	@,
 639 002e 1648     		ldr	r0, .L38+12	@,
 640 0030 FFF7FEFF 		bl	check_failed	@
 641              	.L36:
 642              	@ core/lpc17xx_timer.c:185: 	CHECK_PARAM(PARAM_TIM_INT_TYPE(IntFlag));
 185:core/lpc17xx_timer.c **** 	CHECK_PARAM(PARAM_TIM_INT_TYPE(IntFlag));
 643              		.loc 1 185 0 is_stmt 1
 644 0034 FB78     		ldrb	r3, [r7, #3]	@ zero_extendqisi2	@ tmp124, IntFlag
 645 0036 002B     		cmp	r3, #0	@ tmp124,
 646 0038 12D0     		beq	.L37	@,
 647              	@ core/lpc17xx_timer.c:185: 	CHECK_PARAM(PARAM_TIM_INT_TYPE(IntFlag));
 648              		.loc 1 185 0 is_stmt 0 discriminator 1
 649 003a FB78     		ldrb	r3, [r7, #3]	@ zero_extendqisi2	@ tmp125, IntFlag
 650 003c 012B     		cmp	r3, #1	@ tmp125,
 651 003e 0FD0     		beq	.L37	@,
 652              	@ core/lpc17xx_timer.c:185: 	CHECK_PARAM(PARAM_TIM_INT_TYPE(IntFlag));
 653              		.loc 1 185 0 discriminator 2
 654 0040 FB78     		ldrb	r3, [r7, #3]	@ zero_extendqisi2	@ tmp126, IntFlag
 655 0042 022B     		cmp	r3, #2	@ tmp126,
 656 0044 0CD0     		beq	.L37	@,
 657              	@ core/lpc17xx_timer.c:185: 	CHECK_PARAM(PARAM_TIM_INT_TYPE(IntFlag));
 658              		.loc 1 185 0 discriminator 3
 659 0046 FB78     		ldrb	r3, [r7, #3]	@ zero_extendqisi2	@ tmp127, IntFlag
 660 0048 032B     		cmp	r3, #3	@ tmp127,
 661 004a 09D0     		beq	.L37	@,
 662              	@ core/lpc17xx_timer.c:185: 	CHECK_PARAM(PARAM_TIM_INT_TYPE(IntFlag));
 663              		.loc 1 185 0 discriminator 4
 664 004c FB78     		ldrb	r3, [r7, #3]	@ zero_extendqisi2	@ tmp128, IntFlag
 665 004e 042B     		cmp	r3, #4	@ tmp128,
 666 0050 06D0     		beq	.L37	@,
ARM GAS  /tmp/ccKti1Oq.s 			page 16


 667              	@ core/lpc17xx_timer.c:185: 	CHECK_PARAM(PARAM_TIM_INT_TYPE(IntFlag));
 668              		.loc 1 185 0 discriminator 5
 669 0052 FB78     		ldrb	r3, [r7, #3]	@ zero_extendqisi2	@ tmp129, IntFlag
 670 0054 052B     		cmp	r3, #5	@ tmp129,
 671 0056 03D0     		beq	.L37	@,
 672              	@ core/lpc17xx_timer.c:185: 	CHECK_PARAM(PARAM_TIM_INT_TYPE(IntFlag));
 673              		.loc 1 185 0 discriminator 6
 674 0058 B921     		movs	r1, #185	@,
 675 005a 0B48     		ldr	r0, .L38+12	@,
 676 005c FFF7FEFF 		bl	check_failed	@
 677              	.L37:
 678              	@ core/lpc17xx_timer.c:186: 	TIMx->IR |= TIM_IR_CLR(IntFlag);
 186:core/lpc17xx_timer.c **** 	TIMx->IR |= TIM_IR_CLR(IntFlag);
 679              		.loc 1 186 0 is_stmt 1
 680 0060 7B68     		ldr	r3, [r7, #4]	@ tmp130, TIMx
 681 0062 1B68     		ldr	r3, [r3]	@ _1, TIMx_8(D)->IR
 682 0064 FA78     		ldrb	r2, [r7, #3]	@ zero_extendqisi2	@ _2, IntFlag
 683 0066 0121     		movs	r1, #1	@ tmp131,
 684 0068 01FA02F2 		lsl	r2, r1, r2	@ _3, tmp131, _2
 685 006c 1A43     		orrs	r2, r2, r3	@, _5, _4, _1
 686 006e 7B68     		ldr	r3, [r7, #4]	@ tmp132, TIMx
 687 0070 1A60     		str	r2, [r3]	@ _5, TIMx_8(D)->IR
 688              	@ core/lpc17xx_timer.c:187: }
 187:core/lpc17xx_timer.c **** }
 689              		.loc 1 187 0
 690 0072 00BF     		nop
 691 0074 0837     		adds	r7, r7, #8	@,,
 692              		.cfi_def_cfa_offset 8
 693 0076 BD46     		mov	sp, r7	@,
 694              		.cfi_def_cfa_register 13
 695              		@ sp needed	@
 696 0078 80BD     		pop	{r7, pc}	@
 697              	.L39:
 698 007a 00BF     		.align	2
 699              	.L38:
 700 007c 00800040 		.word	1073774592
 701 0080 00000940 		.word	1074331648
 702 0084 00400940 		.word	1074348032
 703 0088 00000000 		.word	.LC0
 704              		.cfi_endproc
 705              	.LFE60:
 706              		.size	TIM_ClearIntPending, .-TIM_ClearIntPending
 707              		.section	.text.TIM_ClearIntCapturePending,"ax",%progbits
 708              		.align	1
 709              		.global	TIM_ClearIntCapturePending
 710              		.syntax unified
 711              		.thumb
 712              		.thumb_func
 713              		.fpu softvfp
 714              		.type	TIM_ClearIntCapturePending, %function
 715              	TIM_ClearIntCapturePending:
 716              	.LFB61:
 188:core/lpc17xx_timer.c **** 
 189:core/lpc17xx_timer.c **** /*********************************************************************//**
 190:core/lpc17xx_timer.c ****  * @brief 		Clear Capture Interrupt pending
 191:core/lpc17xx_timer.c ****  * @param[in]	TIMx Timer selection, should be TIM0, TIM1, TIM2, TIM3
 192:core/lpc17xx_timer.c ****  * @param[in]	IntFlag should be in TIM_INT_TYPE enum
ARM GAS  /tmp/ccKti1Oq.s 			page 17


 193:core/lpc17xx_timer.c ****  * @return 		None
 194:core/lpc17xx_timer.c ****  **********************************************************************/
 195:core/lpc17xx_timer.c **** void TIM_ClearIntCapturePending(LPC_TIM_TypeDef *TIMx, uint8_t IntFlag)
 196:core/lpc17xx_timer.c **** {
 717              		.loc 1 196 0
 718              		.cfi_startproc
 719              		@ args = 0, pretend = 0, frame = 8
 720              		@ frame_needed = 1, uses_anonymous_args = 0
 721 0000 80B5     		push	{r7, lr}	@
 722              		.cfi_def_cfa_offset 8
 723              		.cfi_offset 7, -8
 724              		.cfi_offset 14, -4
 725 0002 82B0     		sub	sp, sp, #8	@,,
 726              		.cfi_def_cfa_offset 16
 727 0004 00AF     		add	r7, sp, #0	@,,
 728              		.cfi_def_cfa_register 7
 729 0006 7860     		str	r0, [r7, #4]	@ TIMx, TIMx
 730 0008 0B46     		mov	r3, r1	@ tmp116, IntFlag
 731 000a FB70     		strb	r3, [r7, #3]	@ tmp117, IntFlag
 732              	@ core/lpc17xx_timer.c:197: 	CHECK_PARAM(PARAM_TIMx(TIMx));
 197:core/lpc17xx_timer.c **** 	CHECK_PARAM(PARAM_TIMx(TIMx));
 733              		.loc 1 197 0
 734 000c 7B68     		ldr	r3, [r7, #4]	@ tmp118, TIMx
 735 000e B3F1402F 		cmp	r3, #1073758208	@ tmp118,
 736 0012 0FD0     		beq	.L41	@,
 737              	@ core/lpc17xx_timer.c:197: 	CHECK_PARAM(PARAM_TIMx(TIMx));
 738              		.loc 1 197 0 is_stmt 0 discriminator 1
 739 0014 7B68     		ldr	r3, [r7, #4]	@ tmp119, TIMx
 740 0016 194A     		ldr	r2, .L43	@ tmp120,
 741 0018 9342     		cmp	r3, r2	@ tmp119, tmp120
 742 001a 0BD0     		beq	.L41	@,
 743              	@ core/lpc17xx_timer.c:197: 	CHECK_PARAM(PARAM_TIMx(TIMx));
 744              		.loc 1 197 0 discriminator 2
 745 001c 7B68     		ldr	r3, [r7, #4]	@ tmp121, TIMx
 746 001e 184A     		ldr	r2, .L43+4	@ tmp122,
 747 0020 9342     		cmp	r3, r2	@ tmp121, tmp122
 748 0022 07D0     		beq	.L41	@,
 749              	@ core/lpc17xx_timer.c:197: 	CHECK_PARAM(PARAM_TIMx(TIMx));
 750              		.loc 1 197 0 discriminator 3
 751 0024 7B68     		ldr	r3, [r7, #4]	@ tmp123, TIMx
 752 0026 174A     		ldr	r2, .L43+8	@ tmp124,
 753 0028 9342     		cmp	r3, r2	@ tmp123, tmp124
 754 002a 03D0     		beq	.L41	@,
 755              	@ core/lpc17xx_timer.c:197: 	CHECK_PARAM(PARAM_TIMx(TIMx));
 756              		.loc 1 197 0 discriminator 4
 757 002c C521     		movs	r1, #197	@,
 758 002e 1648     		ldr	r0, .L43+12	@,
 759 0030 FFF7FEFF 		bl	check_failed	@
 760              	.L41:
 761              	@ core/lpc17xx_timer.c:198: 	CHECK_PARAM(PARAM_TIM_INT_TYPE(IntFlag));
 198:core/lpc17xx_timer.c **** 	CHECK_PARAM(PARAM_TIM_INT_TYPE(IntFlag));
 762              		.loc 1 198 0 is_stmt 1
 763 0034 FB78     		ldrb	r3, [r7, #3]	@ zero_extendqisi2	@ tmp125, IntFlag
 764 0036 002B     		cmp	r3, #0	@ tmp125,
 765 0038 12D0     		beq	.L42	@,
 766              	@ core/lpc17xx_timer.c:198: 	CHECK_PARAM(PARAM_TIM_INT_TYPE(IntFlag));
 767              		.loc 1 198 0 is_stmt 0 discriminator 1
ARM GAS  /tmp/ccKti1Oq.s 			page 18


 768 003a FB78     		ldrb	r3, [r7, #3]	@ zero_extendqisi2	@ tmp126, IntFlag
 769 003c 012B     		cmp	r3, #1	@ tmp126,
 770 003e 0FD0     		beq	.L42	@,
 771              	@ core/lpc17xx_timer.c:198: 	CHECK_PARAM(PARAM_TIM_INT_TYPE(IntFlag));
 772              		.loc 1 198 0 discriminator 2
 773 0040 FB78     		ldrb	r3, [r7, #3]	@ zero_extendqisi2	@ tmp127, IntFlag
 774 0042 022B     		cmp	r3, #2	@ tmp127,
 775 0044 0CD0     		beq	.L42	@,
 776              	@ core/lpc17xx_timer.c:198: 	CHECK_PARAM(PARAM_TIM_INT_TYPE(IntFlag));
 777              		.loc 1 198 0 discriminator 3
 778 0046 FB78     		ldrb	r3, [r7, #3]	@ zero_extendqisi2	@ tmp128, IntFlag
 779 0048 032B     		cmp	r3, #3	@ tmp128,
 780 004a 09D0     		beq	.L42	@,
 781              	@ core/lpc17xx_timer.c:198: 	CHECK_PARAM(PARAM_TIM_INT_TYPE(IntFlag));
 782              		.loc 1 198 0 discriminator 4
 783 004c FB78     		ldrb	r3, [r7, #3]	@ zero_extendqisi2	@ tmp129, IntFlag
 784 004e 042B     		cmp	r3, #4	@ tmp129,
 785 0050 06D0     		beq	.L42	@,
 786              	@ core/lpc17xx_timer.c:198: 	CHECK_PARAM(PARAM_TIM_INT_TYPE(IntFlag));
 787              		.loc 1 198 0 discriminator 5
 788 0052 FB78     		ldrb	r3, [r7, #3]	@ zero_extendqisi2	@ tmp130, IntFlag
 789 0054 052B     		cmp	r3, #5	@ tmp130,
 790 0056 03D0     		beq	.L42	@,
 791              	@ core/lpc17xx_timer.c:198: 	CHECK_PARAM(PARAM_TIM_INT_TYPE(IntFlag));
 792              		.loc 1 198 0 discriminator 6
 793 0058 C621     		movs	r1, #198	@,
 794 005a 0B48     		ldr	r0, .L43+12	@,
 795 005c FFF7FEFF 		bl	check_failed	@
 796              	.L42:
 797              	@ core/lpc17xx_timer.c:199: 	TIMx->IR |= (1<<(4+IntFlag));
 199:core/lpc17xx_timer.c **** 	TIMx->IR |= (1<<(4+IntFlag));
 798              		.loc 1 199 0 is_stmt 1
 799 0060 7B68     		ldr	r3, [r7, #4]	@ tmp131, TIMx
 800 0062 1B68     		ldr	r3, [r3]	@ _1, TIMx_9(D)->IR
 801 0064 FA78     		ldrb	r2, [r7, #3]	@ zero_extendqisi2	@ _2, IntFlag
 802 0066 0432     		adds	r2, r2, #4	@ _3, _2,
 803 0068 0121     		movs	r1, #1	@ tmp132,
 804 006a 01FA02F2 		lsl	r2, r1, r2	@ _4, tmp132, _3
 805 006e 1A43     		orrs	r2, r2, r3	@, _6, _5, _1
 806 0070 7B68     		ldr	r3, [r7, #4]	@ tmp133, TIMx
 807 0072 1A60     		str	r2, [r3]	@ _6, TIMx_9(D)->IR
 808              	@ core/lpc17xx_timer.c:200: }
 200:core/lpc17xx_timer.c **** }
 809              		.loc 1 200 0
 810 0074 00BF     		nop
 811 0076 0837     		adds	r7, r7, #8	@,,
 812              		.cfi_def_cfa_offset 8
 813 0078 BD46     		mov	sp, r7	@,
 814              		.cfi_def_cfa_register 13
 815              		@ sp needed	@
 816 007a 80BD     		pop	{r7, pc}	@
 817              	.L44:
 818              		.align	2
 819              	.L43:
 820 007c 00800040 		.word	1073774592
 821 0080 00000940 		.word	1074331648
 822 0084 00400940 		.word	1074348032
ARM GAS  /tmp/ccKti1Oq.s 			page 19


 823 0088 00000000 		.word	.LC0
 824              		.cfi_endproc
 825              	.LFE61:
 826              		.size	TIM_ClearIntCapturePending, .-TIM_ClearIntCapturePending
 827              		.section	.text.TIM_ConfigStructInit,"ax",%progbits
 828              		.align	1
 829              		.global	TIM_ConfigStructInit
 830              		.syntax unified
 831              		.thumb
 832              		.thumb_func
 833              		.fpu softvfp
 834              		.type	TIM_ConfigStructInit, %function
 835              	TIM_ConfigStructInit:
 836              	.LFB62:
 201:core/lpc17xx_timer.c **** 
 202:core/lpc17xx_timer.c **** /*********************************************************************//**
 203:core/lpc17xx_timer.c **** * @brief 		Configuration for Timer at initial time
 204:core/lpc17xx_timer.c **** * @param[in] 	TimerCounterMode Should be :
 205:core/lpc17xx_timer.c **** * 					- PrescaleOption = TC_PRESCALE_USVAL,
 206:core/lpc17xx_timer.c **** * 					- PrescaleValue = 1
 207:core/lpc17xx_timer.c **** * 				Counter mode with
 208:core/lpc17xx_timer.c **** * 					- Caption channel 0
 209:core/lpc17xx_timer.c **** * @param[in] 	TIM_ConfigStruct pointer to TIM_TIMERCFG_Type or
 210:core/lpc17xx_timer.c **** * 				TIM_COUNTERCFG_Type
 211:core/lpc17xx_timer.c **** * @return 		None
 212:core/lpc17xx_timer.c ****  **********************************************************************/
 213:core/lpc17xx_timer.c **** void TIM_ConfigStructInit(uint8_t TimerCounterMode, void *TIM_ConfigStruct)
 214:core/lpc17xx_timer.c **** {
 837              		.loc 1 214 0
 838              		.cfi_startproc
 839              		@ args = 0, pretend = 0, frame = 16
 840              		@ frame_needed = 1, uses_anonymous_args = 0
 841              		@ link register save eliminated.
 842 0000 80B4     		push	{r7}	@
 843              		.cfi_def_cfa_offset 4
 844              		.cfi_offset 7, -4
 845 0002 85B0     		sub	sp, sp, #20	@,,
 846              		.cfi_def_cfa_offset 24
 847 0004 00AF     		add	r7, sp, #0	@,,
 848              		.cfi_def_cfa_register 7
 849 0006 0346     		mov	r3, r0	@ tmp110, TimerCounterMode
 850 0008 3960     		str	r1, [r7]	@ TIM_ConfigStruct, TIM_ConfigStruct
 851 000a FB71     		strb	r3, [r7, #7]	@ tmp111, TimerCounterMode
 852              	@ core/lpc17xx_timer.c:215: 	if (TimerCounterMode == TIM_TIMER_MODE )
 215:core/lpc17xx_timer.c **** 	if (TimerCounterMode == TIM_TIMER_MODE )
 853              		.loc 1 215 0
 854 000c FB79     		ldrb	r3, [r7, #7]	@ zero_extendqisi2	@ tmp112, TimerCounterMode
 855 000e 002B     		cmp	r3, #0	@ tmp112,
 856 0010 08D1     		bne	.L46	@,
 857              	.LBB2:
 858              	@ core/lpc17xx_timer.c:217: 		TIM_TIMERCFG_Type * pTimeCfg = (TIM_TIMERCFG_Type *)TIM_ConfigStruct;
 216:core/lpc17xx_timer.c **** 	{
 217:core/lpc17xx_timer.c **** 		TIM_TIMERCFG_Type * pTimeCfg = (TIM_TIMERCFG_Type *)TIM_ConfigStruct;
 859              		.loc 1 217 0
 860 0012 3B68     		ldr	r3, [r7]	@ tmp113, TIM_ConfigStruct
 861 0014 BB60     		str	r3, [r7, #8]	@ tmp113, pTimeCfg
 862              	@ core/lpc17xx_timer.c:218: 		pTimeCfg->PrescaleOption = TIM_PRESCALE_USVAL;
ARM GAS  /tmp/ccKti1Oq.s 			page 20


 218:core/lpc17xx_timer.c **** 		pTimeCfg->PrescaleOption = TIM_PRESCALE_USVAL;
 863              		.loc 1 218 0
 864 0016 BB68     		ldr	r3, [r7, #8]	@ tmp114, pTimeCfg
 865 0018 0122     		movs	r2, #1	@ tmp115,
 866 001a 1A70     		strb	r2, [r3]	@ tmp116, pTimeCfg_7->PrescaleOption
 867              	@ core/lpc17xx_timer.c:219: 		pTimeCfg->PrescaleValue = 1;
 219:core/lpc17xx_timer.c **** 		pTimeCfg->PrescaleValue = 1;
 868              		.loc 1 219 0
 869 001c BB68     		ldr	r3, [r7, #8]	@ tmp117, pTimeCfg
 870 001e 0122     		movs	r2, #1	@ tmp118,
 871 0020 5A60     		str	r2, [r3, #4]	@ tmp118, pTimeCfg_7->PrescaleValue
 872              	.LBE2:
 873              	@ core/lpc17xx_timer.c:227: }
 220:core/lpc17xx_timer.c **** 	}
 221:core/lpc17xx_timer.c **** 	else
 222:core/lpc17xx_timer.c **** 	{
 223:core/lpc17xx_timer.c **** 		TIM_COUNTERCFG_Type * pCounterCfg = (TIM_COUNTERCFG_Type *)TIM_ConfigStruct;
 224:core/lpc17xx_timer.c **** 		pCounterCfg->CountInputSelect = TIM_COUNTER_INCAP0;
 225:core/lpc17xx_timer.c **** 
 226:core/lpc17xx_timer.c **** 	}
 227:core/lpc17xx_timer.c **** }
 874              		.loc 1 227 0
 875 0022 04E0     		b	.L48	@
 876              	.L46:
 877              	.LBB3:
 878              	@ core/lpc17xx_timer.c:223: 		TIM_COUNTERCFG_Type * pCounterCfg = (TIM_COUNTERCFG_Type *)TIM_Config
 223:core/lpc17xx_timer.c **** 		pCounterCfg->CountInputSelect = TIM_COUNTER_INCAP0;
 879              		.loc 1 223 0
 880 0024 3B68     		ldr	r3, [r7]	@ tmp119, TIM_ConfigStruct
 881 0026 FB60     		str	r3, [r7, #12]	@ tmp119, pCounterCfg
 882              	@ core/lpc17xx_timer.c:224: 		pCounterCfg->CountInputSelect = TIM_COUNTER_INCAP0;
 224:core/lpc17xx_timer.c **** 
 883              		.loc 1 224 0
 884 0028 FB68     		ldr	r3, [r7, #12]	@ tmp120, pCounterCfg
 885 002a 0022     		movs	r2, #0	@ tmp121,
 886 002c 5A70     		strb	r2, [r3, #1]	@ tmp122, pCounterCfg_4->CountInputSelect
 887              	.L48:
 888              	.LBE3:
 889              	@ core/lpc17xx_timer.c:227: }
 890              		.loc 1 227 0
 891 002e 00BF     		nop
 892 0030 1437     		adds	r7, r7, #20	@,,
 893              		.cfi_def_cfa_offset 4
 894 0032 BD46     		mov	sp, r7	@,
 895              		.cfi_def_cfa_register 13
 896              		@ sp needed	@
 897 0034 80BC     		pop	{r7}	@
 898              		.cfi_restore 7
 899              		.cfi_def_cfa_offset 0
 900 0036 7047     		bx	lr	@
 901              		.cfi_endproc
 902              	.LFE62:
 903              		.size	TIM_ConfigStructInit, .-TIM_ConfigStructInit
 904              		.section	.text.TIM_Init,"ax",%progbits
 905              		.align	1
 906              		.global	TIM_Init
 907              		.syntax unified
ARM GAS  /tmp/ccKti1Oq.s 			page 21


 908              		.thumb
 909              		.thumb_func
 910              		.fpu softvfp
 911              		.type	TIM_Init, %function
 912              	TIM_Init:
 913              	.LFB63:
 228:core/lpc17xx_timer.c **** 
 229:core/lpc17xx_timer.c **** /*********************************************************************//**
 230:core/lpc17xx_timer.c ****  * @brief 		Initial Timer/Counter device
 231:core/lpc17xx_timer.c ****  * 				 	Set Clock frequency for Timer
 232:core/lpc17xx_timer.c ****  * 					Set initial configuration for Timer
 233:core/lpc17xx_timer.c ****  * @param[in]	TIMx  Timer selection, should be TIM0, TIM1, TIM2, TIM3
 234:core/lpc17xx_timer.c ****  * @param[in]	TimerCounterMode TIM_MODE_OPT
 235:core/lpc17xx_timer.c ****  * @param[in]	TIM_ConfigStruct pointer to TIM_TIMERCFG_Type
 236:core/lpc17xx_timer.c ****  * 				that contains the configuration information for the
 237:core/lpc17xx_timer.c ****  *                    specified Timer peripheral.
 238:core/lpc17xx_timer.c ****  * @return 		None
 239:core/lpc17xx_timer.c ****  **********************************************************************/
 240:core/lpc17xx_timer.c **** void TIM_Init(LPC_TIM_TypeDef *TIMx, uint8_t TimerCounterMode, void *TIM_ConfigStruct)
 241:core/lpc17xx_timer.c **** {
 914              		.loc 1 241 0
 915              		.cfi_startproc
 916              		@ args = 0, pretend = 0, frame = 32
 917              		@ frame_needed = 1, uses_anonymous_args = 0
 918 0000 80B5     		push	{r7, lr}	@
 919              		.cfi_def_cfa_offset 8
 920              		.cfi_offset 7, -8
 921              		.cfi_offset 14, -4
 922 0002 88B0     		sub	sp, sp, #32	@,,
 923              		.cfi_def_cfa_offset 40
 924 0004 00AF     		add	r7, sp, #0	@,,
 925              		.cfi_def_cfa_register 7
 926 0006 F860     		str	r0, [r7, #12]	@ TIMx, TIMx
 927 0008 0B46     		mov	r3, r1	@ tmp125, TimerCounterMode
 928 000a 7A60     		str	r2, [r7, #4]	@ TIM_ConfigStruct, TIM_ConfigStruct
 929 000c FB72     		strb	r3, [r7, #11]	@ tmp126, TimerCounterMode
 930              	@ core/lpc17xx_timer.c:246: 	CHECK_PARAM(PARAM_TIMx(TIMx));
 242:core/lpc17xx_timer.c **** 	TIM_TIMERCFG_Type *pTimeCfg;
 243:core/lpc17xx_timer.c **** 	TIM_COUNTERCFG_Type *pCounterCfg;
 244:core/lpc17xx_timer.c **** 	uint32_t timer;
 245:core/lpc17xx_timer.c **** 
 246:core/lpc17xx_timer.c **** 	CHECK_PARAM(PARAM_TIMx(TIMx));
 931              		.loc 1 246 0
 932 000e FB68     		ldr	r3, [r7, #12]	@ tmp127, TIMx
 933 0010 B3F1402F 		cmp	r3, #1073758208	@ tmp127,
 934 0014 0FD0     		beq	.L50	@,
 935              	@ core/lpc17xx_timer.c:246: 	CHECK_PARAM(PARAM_TIMx(TIMx));
 936              		.loc 1 246 0 is_stmt 0 discriminator 1
 937 0016 FB68     		ldr	r3, [r7, #12]	@ tmp128, TIMx
 938 0018 514A     		ldr	r2, .L60	@ tmp129,
 939 001a 9342     		cmp	r3, r2	@ tmp128, tmp129
 940 001c 0BD0     		beq	.L50	@,
 941              	@ core/lpc17xx_timer.c:246: 	CHECK_PARAM(PARAM_TIMx(TIMx));
 942              		.loc 1 246 0 discriminator 2
 943 001e FB68     		ldr	r3, [r7, #12]	@ tmp130, TIMx
 944 0020 504A     		ldr	r2, .L60+4	@ tmp131,
 945 0022 9342     		cmp	r3, r2	@ tmp130, tmp131
ARM GAS  /tmp/ccKti1Oq.s 			page 22


 946 0024 07D0     		beq	.L50	@,
 947              	@ core/lpc17xx_timer.c:246: 	CHECK_PARAM(PARAM_TIMx(TIMx));
 948              		.loc 1 246 0 discriminator 3
 949 0026 FB68     		ldr	r3, [r7, #12]	@ tmp132, TIMx
 950 0028 4F4A     		ldr	r2, .L60+8	@ tmp133,
 951 002a 9342     		cmp	r3, r2	@ tmp132, tmp133
 952 002c 03D0     		beq	.L50	@,
 953              	@ core/lpc17xx_timer.c:246: 	CHECK_PARAM(PARAM_TIMx(TIMx));
 954              		.loc 1 246 0 discriminator 4
 955 002e F621     		movs	r1, #246	@,
 956 0030 4E48     		ldr	r0, .L60+12	@,
 957 0032 FFF7FEFF 		bl	check_failed	@
 958              	.L50:
 959              	@ core/lpc17xx_timer.c:247: 	CHECK_PARAM(PARAM_TIM_MODE_OPT(TimerCounterMode));
 247:core/lpc17xx_timer.c **** 	CHECK_PARAM(PARAM_TIM_MODE_OPT(TimerCounterMode));
 960              		.loc 1 247 0 is_stmt 1
 961 0036 FB7A     		ldrb	r3, [r7, #11]	@ zero_extendqisi2	@ tmp134, TimerCounterMode
 962 0038 002B     		cmp	r3, #0	@ tmp134,
 963 003a 0CD0     		beq	.L51	@,
 964              	@ core/lpc17xx_timer.c:247: 	CHECK_PARAM(PARAM_TIM_MODE_OPT(TimerCounterMode));
 965              		.loc 1 247 0 is_stmt 0 discriminator 1
 966 003c FB7A     		ldrb	r3, [r7, #11]	@ zero_extendqisi2	@ tmp135, TimerCounterMode
 967 003e 012B     		cmp	r3, #1	@ tmp135,
 968 0040 09D0     		beq	.L51	@,
 969              	@ core/lpc17xx_timer.c:247: 	CHECK_PARAM(PARAM_TIM_MODE_OPT(TimerCounterMode));
 970              		.loc 1 247 0 discriminator 2
 971 0042 FB7A     		ldrb	r3, [r7, #11]	@ zero_extendqisi2	@ tmp136, TimerCounterMode
 972 0044 012B     		cmp	r3, #1	@ tmp136,
 973 0046 06D0     		beq	.L51	@,
 974              	@ core/lpc17xx_timer.c:247: 	CHECK_PARAM(PARAM_TIM_MODE_OPT(TimerCounterMode));
 975              		.loc 1 247 0 discriminator 3
 976 0048 FB7A     		ldrb	r3, [r7, #11]	@ zero_extendqisi2	@ tmp137, TimerCounterMode
 977 004a 012B     		cmp	r3, #1	@ tmp137,
 978 004c 03D0     		beq	.L51	@,
 979              	@ core/lpc17xx_timer.c:247: 	CHECK_PARAM(PARAM_TIM_MODE_OPT(TimerCounterMode));
 980              		.loc 1 247 0 discriminator 4
 981 004e F721     		movs	r1, #247	@,
 982 0050 4648     		ldr	r0, .L60+12	@,
 983 0052 FFF7FEFF 		bl	check_failed	@
 984              	.L51:
 985              	@ core/lpc17xx_timer.c:249: 	timer = TIM_ConverPtrToTimeNum(TIMx) ;
 248:core/lpc17xx_timer.c **** 
 249:core/lpc17xx_timer.c **** 	timer = TIM_ConverPtrToTimeNum(TIMx) ;
 986              		.loc 1 249 0 is_stmt 1
 987 0056 F868     		ldr	r0, [r7, #12]	@, TIMx
 988 0058 FFF7FEFF 		bl	TIM_ConverPtrToTimeNum	@
 989 005c F861     		str	r0, [r7, #28]	@, timer
 990              	@ core/lpc17xx_timer.c:251: 	if (TIMx== LPC_TIM0)
 250:core/lpc17xx_timer.c **** 	//set power
 251:core/lpc17xx_timer.c **** 	if (TIMx== LPC_TIM0)
 991              		.loc 1 251 0
 992 005e FB68     		ldr	r3, [r7, #12]	@ tmp138, TIMx
 993 0060 B3F1402F 		cmp	r3, #1073758208	@ tmp138,
 994 0064 08D1     		bne	.L52	@,
 995              	@ core/lpc17xx_timer.c:253: 		CLKPWR_ConfigPPWR (CLKPWR_PCONP_PCTIM0, ENABLE);
 252:core/lpc17xx_timer.c **** 	{
 253:core/lpc17xx_timer.c **** 		CLKPWR_ConfigPPWR (CLKPWR_PCONP_PCTIM0, ENABLE);
ARM GAS  /tmp/ccKti1Oq.s 			page 23


 996              		.loc 1 253 0
 997 0066 0121     		movs	r1, #1	@,
 998 0068 0220     		movs	r0, #2	@,
 999 006a FFF7FEFF 		bl	CLKPWR_ConfigPPWR	@
 1000              	@ core/lpc17xx_timer.c:254: 		CLKPWR_SetPCLKDiv (CLKPWR_PCLKSEL_TIMER0, CLKPWR_PCLKSEL_CCLK_DIV_4);
 254:core/lpc17xx_timer.c **** 		CLKPWR_SetPCLKDiv (CLKPWR_PCLKSEL_TIMER0, CLKPWR_PCLKSEL_CCLK_DIV_4);
 1001              		.loc 1 254 0
 1002 006e 0021     		movs	r1, #0	@,
 1003 0070 0220     		movs	r0, #2	@,
 1004 0072 FFF7FEFF 		bl	CLKPWR_SetPCLKDiv	@
 1005 0076 27E0     		b	.L53	@
 1006              	.L52:
 1007              	@ core/lpc17xx_timer.c:256: 	else if (TIMx== LPC_TIM1)
 255:core/lpc17xx_timer.c **** 	}
 256:core/lpc17xx_timer.c **** 	else if (TIMx== LPC_TIM1)
 1008              		.loc 1 256 0
 1009 0078 FB68     		ldr	r3, [r7, #12]	@ tmp139, TIMx
 1010 007a 394A     		ldr	r2, .L60	@ tmp140,
 1011 007c 9342     		cmp	r3, r2	@ tmp139, tmp140
 1012 007e 08D1     		bne	.L54	@,
 1013              	@ core/lpc17xx_timer.c:258: 		CLKPWR_ConfigPPWR (CLKPWR_PCONP_PCTIM1, ENABLE);
 257:core/lpc17xx_timer.c **** 	{
 258:core/lpc17xx_timer.c **** 		CLKPWR_ConfigPPWR (CLKPWR_PCONP_PCTIM1, ENABLE);
 1014              		.loc 1 258 0
 1015 0080 0121     		movs	r1, #1	@,
 1016 0082 0420     		movs	r0, #4	@,
 1017 0084 FFF7FEFF 		bl	CLKPWR_ConfigPPWR	@
 1018              	@ core/lpc17xx_timer.c:259: 		CLKPWR_SetPCLKDiv (CLKPWR_PCLKSEL_TIMER1, CLKPWR_PCLKSEL_CCLK_DIV_4);
 259:core/lpc17xx_timer.c **** 		CLKPWR_SetPCLKDiv (CLKPWR_PCLKSEL_TIMER1, CLKPWR_PCLKSEL_CCLK_DIV_4);
 1019              		.loc 1 259 0
 1020 0088 0021     		movs	r1, #0	@,
 1021 008a 0420     		movs	r0, #4	@,
 1022 008c FFF7FEFF 		bl	CLKPWR_SetPCLKDiv	@
 1023 0090 1AE0     		b	.L53	@
 1024              	.L54:
 1025              	@ core/lpc17xx_timer.c:263: 	else if (TIMx== LPC_TIM2)
 260:core/lpc17xx_timer.c **** 
 261:core/lpc17xx_timer.c **** 	}
 262:core/lpc17xx_timer.c **** 
 263:core/lpc17xx_timer.c **** 	else if (TIMx== LPC_TIM2)
 1026              		.loc 1 263 0
 1027 0092 FB68     		ldr	r3, [r7, #12]	@ tmp141, TIMx
 1028 0094 334A     		ldr	r2, .L60+4	@ tmp142,
 1029 0096 9342     		cmp	r3, r2	@ tmp141, tmp142
 1030 0098 09D1     		bne	.L55	@,
 1031              	@ core/lpc17xx_timer.c:265: 		CLKPWR_ConfigPPWR (CLKPWR_PCONP_PCTIM2, ENABLE);
 264:core/lpc17xx_timer.c **** 	{
 265:core/lpc17xx_timer.c **** 		CLKPWR_ConfigPPWR (CLKPWR_PCONP_PCTIM2, ENABLE);
 1032              		.loc 1 265 0
 1033 009a 0121     		movs	r1, #1	@,
 1034 009c 4FF48000 		mov	r0, #4194304	@,
 1035 00a0 FFF7FEFF 		bl	CLKPWR_ConfigPPWR	@
 1036              	@ core/lpc17xx_timer.c:266: 		CLKPWR_SetPCLKDiv (CLKPWR_PCLKSEL_TIMER2, CLKPWR_PCLKSEL_CCLK_DIV_4);
 266:core/lpc17xx_timer.c **** 		CLKPWR_SetPCLKDiv (CLKPWR_PCLKSEL_TIMER2, CLKPWR_PCLKSEL_CCLK_DIV_4);
 1037              		.loc 1 266 0
 1038 00a4 0021     		movs	r1, #0	@,
 1039 00a6 2C20     		movs	r0, #44	@,
ARM GAS  /tmp/ccKti1Oq.s 			page 24


 1040 00a8 FFF7FEFF 		bl	CLKPWR_SetPCLKDiv	@
 1041 00ac 0CE0     		b	.L53	@
 1042              	.L55:
 1043              	@ core/lpc17xx_timer.c:268: 	else if (TIMx== LPC_TIM3)
 267:core/lpc17xx_timer.c **** 	}
 268:core/lpc17xx_timer.c **** 	else if (TIMx== LPC_TIM3)
 1044              		.loc 1 268 0
 1045 00ae FB68     		ldr	r3, [r7, #12]	@ tmp143, TIMx
 1046 00b0 2D4A     		ldr	r2, .L60+8	@ tmp144,
 1047 00b2 9342     		cmp	r3, r2	@ tmp143, tmp144
 1048 00b4 08D1     		bne	.L53	@,
 1049              	@ core/lpc17xx_timer.c:270: 		CLKPWR_ConfigPPWR (CLKPWR_PCONP_PCTIM3, ENABLE);
 269:core/lpc17xx_timer.c **** 	{
 270:core/lpc17xx_timer.c **** 		CLKPWR_ConfigPPWR (CLKPWR_PCONP_PCTIM3, ENABLE);
 1050              		.loc 1 270 0
 1051 00b6 0121     		movs	r1, #1	@,
 1052 00b8 4FF40000 		mov	r0, #8388608	@,
 1053 00bc FFF7FEFF 		bl	CLKPWR_ConfigPPWR	@
 1054              	@ core/lpc17xx_timer.c:271: 		CLKPWR_SetPCLKDiv (CLKPWR_PCLKSEL_TIMER3, CLKPWR_PCLKSEL_CCLK_DIV_4);
 271:core/lpc17xx_timer.c **** 		CLKPWR_SetPCLKDiv (CLKPWR_PCLKSEL_TIMER3, CLKPWR_PCLKSEL_CCLK_DIV_4);
 1055              		.loc 1 271 0
 1056 00c0 0021     		movs	r1, #0	@,
 1057 00c2 2E20     		movs	r0, #46	@,
 1058 00c4 FFF7FEFF 		bl	CLKPWR_SetPCLKDiv	@
 1059              	.L53:
 1060              	@ core/lpc17xx_timer.c:275: 	TIMx->CCR &= ~TIM_CTCR_MODE_MASK;
 272:core/lpc17xx_timer.c **** 
 273:core/lpc17xx_timer.c **** 	}
 274:core/lpc17xx_timer.c **** 
 275:core/lpc17xx_timer.c **** 	TIMx->CCR &= ~TIM_CTCR_MODE_MASK;
 1061              		.loc 1 275 0
 1062 00c8 FB68     		ldr	r3, [r7, #12]	@ tmp145, TIMx
 1063 00ca 9B6A     		ldr	r3, [r3, #40]	@ _1, TIMx_21(D)->CCR
 1064 00cc 23F00302 		bic	r2, r3, #3	@ _2, _1,
 1065 00d0 FB68     		ldr	r3, [r7, #12]	@ tmp146, TIMx
 1066 00d2 9A62     		str	r2, [r3, #40]	@ _2, TIMx_21(D)->CCR
 1067              	@ core/lpc17xx_timer.c:276: 	TIMx->CCR |= TIM_TIMER_MODE;
 276:core/lpc17xx_timer.c **** 	TIMx->CCR |= TIM_TIMER_MODE;
 1068              		.loc 1 276 0
 1069 00d4 FB68     		ldr	r3, [r7, #12]	@ tmp147, TIMx
 1070 00d6 9A6A     		ldr	r2, [r3, #40]	@ _3, TIMx_21(D)->CCR
 1071 00d8 FB68     		ldr	r3, [r7, #12]	@ tmp148, TIMx
 1072 00da 9A62     		str	r2, [r3, #40]	@ _3, TIMx_21(D)->CCR
 1073              	@ core/lpc17xx_timer.c:278: 	TIMx->TC =0;
 277:core/lpc17xx_timer.c **** 
 278:core/lpc17xx_timer.c **** 	TIMx->TC =0;
 1074              		.loc 1 278 0
 1075 00dc FB68     		ldr	r3, [r7, #12]	@ tmp149, TIMx
 1076 00de 0022     		movs	r2, #0	@ tmp150,
 1077 00e0 9A60     		str	r2, [r3, #8]	@ tmp150, TIMx_21(D)->TC
 1078              	@ core/lpc17xx_timer.c:279: 	TIMx->PC =0;
 279:core/lpc17xx_timer.c **** 	TIMx->PC =0;
 1079              		.loc 1 279 0
 1080 00e2 FB68     		ldr	r3, [r7, #12]	@ tmp151, TIMx
 1081 00e4 0022     		movs	r2, #0	@ tmp152,
 1082 00e6 1A61     		str	r2, [r3, #16]	@ tmp152, TIMx_21(D)->PC
 1083              	@ core/lpc17xx_timer.c:280: 	TIMx->PR =0;
ARM GAS  /tmp/ccKti1Oq.s 			page 25


 280:core/lpc17xx_timer.c **** 	TIMx->PR =0;
 1084              		.loc 1 280 0
 1085 00e8 FB68     		ldr	r3, [r7, #12]	@ tmp153, TIMx
 1086 00ea 0022     		movs	r2, #0	@ tmp154,
 1087 00ec DA60     		str	r2, [r3, #12]	@ tmp154, TIMx_21(D)->PR
 1088              	@ core/lpc17xx_timer.c:281: 	if (TimerCounterMode == TIM_TIMER_MODE )
 281:core/lpc17xx_timer.c **** 	if (TimerCounterMode == TIM_TIMER_MODE )
 1089              		.loc 1 281 0
 1090 00ee FB7A     		ldrb	r3, [r7, #11]	@ zero_extendqisi2	@ tmp155, TimerCounterMode
 1091 00f0 002B     		cmp	r3, #0	@ tmp155,
 1092 00f2 1AD1     		bne	.L56	@,
 1093              	@ core/lpc17xx_timer.c:283: 		pTimeCfg = (TIM_TIMERCFG_Type *)TIM_ConfigStruct;
 282:core/lpc17xx_timer.c **** 	{
 283:core/lpc17xx_timer.c **** 		pTimeCfg = (TIM_TIMERCFG_Type *)TIM_ConfigStruct;
 1094              		.loc 1 283 0
 1095 00f4 7B68     		ldr	r3, [r7, #4]	@ tmp156, TIM_ConfigStruct
 1096 00f6 7B61     		str	r3, [r7, #20]	@ tmp156, pTimeCfg
 1097              	@ core/lpc17xx_timer.c:284: 		if (pTimeCfg->PrescaleOption  == TIM_PRESCALE_TICKVAL)
 284:core/lpc17xx_timer.c **** 		if (pTimeCfg->PrescaleOption  == TIM_PRESCALE_TICKVAL)
 1098              		.loc 1 284 0
 1099 00f8 7B69     		ldr	r3, [r7, #20]	@ tmp157, pTimeCfg
 1100 00fa 1B78     		ldrb	r3, [r3]	@ zero_extendqisi2	@ _4, pTimeCfg_45->PrescaleOption
 1101 00fc 002B     		cmp	r3, #0	@ _4,
 1102 00fe 05D1     		bne	.L57	@,
 1103              	@ core/lpc17xx_timer.c:286: 			TIMx->PR   = pTimeCfg->PrescaleValue -1  ;
 285:core/lpc17xx_timer.c **** 		{
 286:core/lpc17xx_timer.c **** 			TIMx->PR   = pTimeCfg->PrescaleValue -1  ;
 1104              		.loc 1 286 0
 1105 0100 7B69     		ldr	r3, [r7, #20]	@ tmp158, pTimeCfg
 1106 0102 5B68     		ldr	r3, [r3, #4]	@ _5, pTimeCfg_45->PrescaleValue
 1107 0104 5A1E     		subs	r2, r3, #1	@ _6, _5,
 1108 0106 FB68     		ldr	r3, [r7, #12]	@ tmp159, TIMx
 1109 0108 DA60     		str	r2, [r3, #12]	@ _6, TIMx_21(D)->PR
 1110 010a 20E0     		b	.L59	@
 1111              	.L57:
 1112              	@ core/lpc17xx_timer.c:290: 			TIMx->PR   = TIM_ConverUSecToVal (TIM_ConverPtrToTimeNum(TIMx),pTime
 287:core/lpc17xx_timer.c **** 		}
 288:core/lpc17xx_timer.c **** 		else
 289:core/lpc17xx_timer.c **** 		{
 290:core/lpc17xx_timer.c **** 			TIMx->PR   = TIM_ConverUSecToVal (TIM_ConverPtrToTimeNum(TIMx),pTimeCfg->PrescaleValue)-1;
 1113              		.loc 1 290 0
 1114 010c F868     		ldr	r0, [r7, #12]	@, TIMx
 1115 010e FFF7FEFF 		bl	TIM_ConverPtrToTimeNum	@
 1116 0112 0246     		mov	r2, r0	@ _7,
 1117 0114 7B69     		ldr	r3, [r7, #20]	@ tmp160, pTimeCfg
 1118 0116 5B68     		ldr	r3, [r3, #4]	@ _8, pTimeCfg_45->PrescaleValue
 1119 0118 1946     		mov	r1, r3	@, _8
 1120 011a 1046     		mov	r0, r2	@, _7
 1121 011c FFF7FEFF 		bl	TIM_ConverUSecToVal	@
 1122 0120 0346     		mov	r3, r0	@ _9,
 1123 0122 5A1E     		subs	r2, r3, #1	@ _10, _9,
 1124 0124 FB68     		ldr	r3, [r7, #12]	@ tmp161, TIMx
 1125 0126 DA60     		str	r2, [r3, #12]	@ _10, TIMx_21(D)->PR
 1126 0128 11E0     		b	.L59	@
 1127              	.L56:
 1128              	@ core/lpc17xx_timer.c:296: 		pCounterCfg = (TIM_COUNTERCFG_Type *)TIM_ConfigStruct;
 291:core/lpc17xx_timer.c **** 		}
ARM GAS  /tmp/ccKti1Oq.s 			page 26


 292:core/lpc17xx_timer.c **** 	}
 293:core/lpc17xx_timer.c **** 	else
 294:core/lpc17xx_timer.c **** 	{
 295:core/lpc17xx_timer.c **** 
 296:core/lpc17xx_timer.c **** 		pCounterCfg = (TIM_COUNTERCFG_Type *)TIM_ConfigStruct;
 1129              		.loc 1 296 0
 1130 012a 7B68     		ldr	r3, [r7, #4]	@ tmp162, TIM_ConfigStruct
 1131 012c BB61     		str	r3, [r7, #24]	@ tmp162, pCounterCfg
 1132              	@ core/lpc17xx_timer.c:297: 		TIMx->CCR  &= ~TIM_CTCR_INPUT_MASK;
 297:core/lpc17xx_timer.c **** 		TIMx->CCR  &= ~TIM_CTCR_INPUT_MASK;
 1133              		.loc 1 297 0
 1134 012e FB68     		ldr	r3, [r7, #12]	@ tmp163, TIMx
 1135 0130 9B6A     		ldr	r3, [r3, #40]	@ _11, TIMx_21(D)->CCR
 1136 0132 23F00C02 		bic	r2, r3, #12	@ _12, _11,
 1137 0136 FB68     		ldr	r3, [r7, #12]	@ tmp164, TIMx
 1138 0138 9A62     		str	r2, [r3, #40]	@ _12, TIMx_21(D)->CCR
 1139              	@ core/lpc17xx_timer.c:298: 		if (pCounterCfg->CountInputSelect == TIM_COUNTER_INCAP1)
 298:core/lpc17xx_timer.c **** 		if (pCounterCfg->CountInputSelect == TIM_COUNTER_INCAP1)
 1140              		.loc 1 298 0
 1141 013a BB69     		ldr	r3, [r7, #24]	@ tmp165, pCounterCfg
 1142 013c 5B78     		ldrb	r3, [r3, #1]	@ zero_extendqisi2	@ _13, pCounterCfg_42->CountInputSelect
 1143 013e 012B     		cmp	r3, #1	@ _13,
 1144 0140 05D1     		bne	.L59	@,
 1145              	@ core/lpc17xx_timer.c:299: 			TIMx->CCR |= _BIT(2);
 299:core/lpc17xx_timer.c **** 			TIMx->CCR |= _BIT(2);
 1146              		.loc 1 299 0
 1147 0142 FB68     		ldr	r3, [r7, #12]	@ tmp166, TIMx
 1148 0144 9B6A     		ldr	r3, [r3, #40]	@ _14, TIMx_21(D)->CCR
 1149 0146 43F00402 		orr	r2, r3, #4	@ _15, _14,
 1150 014a FB68     		ldr	r3, [r7, #12]	@ tmp167, TIMx
 1151 014c 9A62     		str	r2, [r3, #40]	@ _15, TIMx_21(D)->CCR
 1152              	.L59:
 1153              	@ core/lpc17xx_timer.c:303: 	TIMx->IR = 0xFFFFFFFF;
 300:core/lpc17xx_timer.c **** 	}
 301:core/lpc17xx_timer.c **** 
 302:core/lpc17xx_timer.c **** 	// Clear interrupt pending
 303:core/lpc17xx_timer.c **** 	TIMx->IR = 0xFFFFFFFF;
 1154              		.loc 1 303 0
 1155 014e FB68     		ldr	r3, [r7, #12]	@ tmp168, TIMx
 1156 0150 4FF0FF32 		mov	r2, #-1	@ tmp169,
 1157 0154 1A60     		str	r2, [r3]	@ tmp169, TIMx_21(D)->IR
 1158              	@ core/lpc17xx_timer.c:305: }
 304:core/lpc17xx_timer.c **** 
 305:core/lpc17xx_timer.c **** }
 1159              		.loc 1 305 0
 1160 0156 00BF     		nop
 1161 0158 2037     		adds	r7, r7, #32	@,,
 1162              		.cfi_def_cfa_offset 8
 1163 015a BD46     		mov	sp, r7	@,
 1164              		.cfi_def_cfa_register 13
 1165              		@ sp needed	@
 1166 015c 80BD     		pop	{r7, pc}	@
 1167              	.L61:
 1168 015e 00BF     		.align	2
 1169              	.L60:
 1170 0160 00800040 		.word	1073774592
 1171 0164 00000940 		.word	1074331648
ARM GAS  /tmp/ccKti1Oq.s 			page 27


 1172 0168 00400940 		.word	1074348032
 1173 016c 00000000 		.word	.LC0
 1174              		.cfi_endproc
 1175              	.LFE63:
 1176              		.size	TIM_Init, .-TIM_Init
 1177              		.section	.text.TIM_DeInit,"ax",%progbits
 1178              		.align	1
 1179              		.global	TIM_DeInit
 1180              		.syntax unified
 1181              		.thumb
 1182              		.thumb_func
 1183              		.fpu softvfp
 1184              		.type	TIM_DeInit, %function
 1185              	TIM_DeInit:
 1186              	.LFB64:
 306:core/lpc17xx_timer.c **** 
 307:core/lpc17xx_timer.c **** /*********************************************************************//**
 308:core/lpc17xx_timer.c ****  * @brief 		Close Timer/Counter device
 309:core/lpc17xx_timer.c ****  * @param[in]	TIMx  Pointer to timer device
 310:core/lpc17xx_timer.c ****  * @return 		None
 311:core/lpc17xx_timer.c ****  **********************************************************************/
 312:core/lpc17xx_timer.c **** void TIM_DeInit (LPC_TIM_TypeDef *TIMx)
 313:core/lpc17xx_timer.c **** {
 1187              		.loc 1 313 0
 1188              		.cfi_startproc
 1189              		@ args = 0, pretend = 0, frame = 8
 1190              		@ frame_needed = 1, uses_anonymous_args = 0
 1191 0000 80B5     		push	{r7, lr}	@
 1192              		.cfi_def_cfa_offset 8
 1193              		.cfi_offset 7, -8
 1194              		.cfi_offset 14, -4
 1195 0002 82B0     		sub	sp, sp, #8	@,,
 1196              		.cfi_def_cfa_offset 16
 1197 0004 00AF     		add	r7, sp, #0	@,,
 1198              		.cfi_def_cfa_register 7
 1199 0006 7860     		str	r0, [r7, #4]	@ TIMx, TIMx
 1200              	@ core/lpc17xx_timer.c:314: 	CHECK_PARAM(PARAM_TIMx(TIMx));
 314:core/lpc17xx_timer.c **** 	CHECK_PARAM(PARAM_TIMx(TIMx));
 1201              		.loc 1 314 0
 1202 0008 7B68     		ldr	r3, [r7, #4]	@ tmp110, TIMx
 1203 000a B3F1402F 		cmp	r3, #1073758208	@ tmp110,
 1204 000e 10D0     		beq	.L63	@,
 1205              	@ core/lpc17xx_timer.c:314: 	CHECK_PARAM(PARAM_TIMx(TIMx));
 1206              		.loc 1 314 0 is_stmt 0 discriminator 1
 1207 0010 7B68     		ldr	r3, [r7, #4]	@ tmp111, TIMx
 1208 0012 1E4A     		ldr	r2, .L69	@ tmp112,
 1209 0014 9342     		cmp	r3, r2	@ tmp111, tmp112
 1210 0016 0CD0     		beq	.L63	@,
 1211              	@ core/lpc17xx_timer.c:314: 	CHECK_PARAM(PARAM_TIMx(TIMx));
 1212              		.loc 1 314 0 discriminator 2
 1213 0018 7B68     		ldr	r3, [r7, #4]	@ tmp113, TIMx
 1214 001a 1D4A     		ldr	r2, .L69+4	@ tmp114,
 1215 001c 9342     		cmp	r3, r2	@ tmp113, tmp114
 1216 001e 08D0     		beq	.L63	@,
 1217              	@ core/lpc17xx_timer.c:314: 	CHECK_PARAM(PARAM_TIMx(TIMx));
 1218              		.loc 1 314 0 discriminator 3
 1219 0020 7B68     		ldr	r3, [r7, #4]	@ tmp115, TIMx
ARM GAS  /tmp/ccKti1Oq.s 			page 28


 1220 0022 1C4A     		ldr	r2, .L69+8	@ tmp116,
 1221 0024 9342     		cmp	r3, r2	@ tmp115, tmp116
 1222 0026 04D0     		beq	.L63	@,
 1223              	@ core/lpc17xx_timer.c:314: 	CHECK_PARAM(PARAM_TIMx(TIMx));
 1224              		.loc 1 314 0 discriminator 4
 1225 0028 4FF49D71 		mov	r1, #314	@,
 1226 002c 1A48     		ldr	r0, .L69+12	@,
 1227 002e FFF7FEFF 		bl	check_failed	@
 1228              	.L63:
 1229              	@ core/lpc17xx_timer.c:316: 	TIMx->TCR = 0x00;
 315:core/lpc17xx_timer.c **** 	// Disable timer/counter
 316:core/lpc17xx_timer.c **** 	TIMx->TCR = 0x00;
 1230              		.loc 1 316 0 is_stmt 1
 1231 0032 7B68     		ldr	r3, [r7, #4]	@ tmp117, TIMx
 1232 0034 0022     		movs	r2, #0	@ tmp118,
 1233 0036 5A60     		str	r2, [r3, #4]	@ tmp118, TIMx_3(D)->TCR
 1234              	@ core/lpc17xx_timer.c:319: 	if (TIMx== LPC_TIM0)
 317:core/lpc17xx_timer.c **** 
 318:core/lpc17xx_timer.c **** 	// Disable power
 319:core/lpc17xx_timer.c **** 	if (TIMx== LPC_TIM0)
 1235              		.loc 1 319 0
 1236 0038 7B68     		ldr	r3, [r7, #4]	@ tmp119, TIMx
 1237 003a B3F1402F 		cmp	r3, #1073758208	@ tmp119,
 1238 003e 04D1     		bne	.L64	@,
 1239              	@ core/lpc17xx_timer.c:320: 		CLKPWR_ConfigPPWR (CLKPWR_PCONP_PCTIM0, DISABLE);
 320:core/lpc17xx_timer.c **** 		CLKPWR_ConfigPPWR (CLKPWR_PCONP_PCTIM0, DISABLE);
 1240              		.loc 1 320 0
 1241 0040 0021     		movs	r1, #0	@,
 1242 0042 0220     		movs	r0, #2	@,
 1243 0044 FFF7FEFF 		bl	CLKPWR_ConfigPPWR	@
 1244              	@ core/lpc17xx_timer.c:331: }
 321:core/lpc17xx_timer.c **** 
 322:core/lpc17xx_timer.c **** 	else if (TIMx== LPC_TIM1)
 323:core/lpc17xx_timer.c **** 		CLKPWR_ConfigPPWR (CLKPWR_PCONP_PCTIM1, DISABLE);
 324:core/lpc17xx_timer.c **** 
 325:core/lpc17xx_timer.c **** 	else if (TIMx== LPC_TIM2)
 326:core/lpc17xx_timer.c **** 		CLKPWR_ConfigPPWR (CLKPWR_PCONP_PCTIM2, DISABLE);
 327:core/lpc17xx_timer.c **** 
 328:core/lpc17xx_timer.c **** 	else if (TIMx== LPC_TIM3)
 329:core/lpc17xx_timer.c **** 		CLKPWR_ConfigPPWR (CLKPWR_PCONP_PCTIM2, DISABLE);
 330:core/lpc17xx_timer.c **** 
 331:core/lpc17xx_timer.c **** }
 1245              		.loc 1 331 0
 1246 0048 1BE0     		b	.L68	@
 1247              	.L64:
 1248              	@ core/lpc17xx_timer.c:322: 	else if (TIMx== LPC_TIM1)
 322:core/lpc17xx_timer.c **** 		CLKPWR_ConfigPPWR (CLKPWR_PCONP_PCTIM1, DISABLE);
 1249              		.loc 1 322 0
 1250 004a 7B68     		ldr	r3, [r7, #4]	@ tmp120, TIMx
 1251 004c 0F4A     		ldr	r2, .L69	@ tmp121,
 1252 004e 9342     		cmp	r3, r2	@ tmp120, tmp121
 1253 0050 04D1     		bne	.L66	@,
 1254              	@ core/lpc17xx_timer.c:323: 		CLKPWR_ConfigPPWR (CLKPWR_PCONP_PCTIM1, DISABLE);
 323:core/lpc17xx_timer.c **** 
 1255              		.loc 1 323 0
 1256 0052 0021     		movs	r1, #0	@,
 1257 0054 0420     		movs	r0, #4	@,
ARM GAS  /tmp/ccKti1Oq.s 			page 29


 1258 0056 FFF7FEFF 		bl	CLKPWR_ConfigPPWR	@
 1259              	@ core/lpc17xx_timer.c:331: }
 1260              		.loc 1 331 0
 1261 005a 12E0     		b	.L68	@
 1262              	.L66:
 1263              	@ core/lpc17xx_timer.c:325: 	else if (TIMx== LPC_TIM2)
 325:core/lpc17xx_timer.c **** 		CLKPWR_ConfigPPWR (CLKPWR_PCONP_PCTIM2, DISABLE);
 1264              		.loc 1 325 0
 1265 005c 7B68     		ldr	r3, [r7, #4]	@ tmp122, TIMx
 1266 005e 0C4A     		ldr	r2, .L69+4	@ tmp123,
 1267 0060 9342     		cmp	r3, r2	@ tmp122, tmp123
 1268 0062 05D1     		bne	.L67	@,
 1269              	@ core/lpc17xx_timer.c:326: 		CLKPWR_ConfigPPWR (CLKPWR_PCONP_PCTIM2, DISABLE);
 326:core/lpc17xx_timer.c **** 
 1270              		.loc 1 326 0
 1271 0064 0021     		movs	r1, #0	@,
 1272 0066 4FF48000 		mov	r0, #4194304	@,
 1273 006a FFF7FEFF 		bl	CLKPWR_ConfigPPWR	@
 1274              	@ core/lpc17xx_timer.c:331: }
 1275              		.loc 1 331 0
 1276 006e 08E0     		b	.L68	@
 1277              	.L67:
 1278              	@ core/lpc17xx_timer.c:328: 	else if (TIMx== LPC_TIM3)
 328:core/lpc17xx_timer.c **** 		CLKPWR_ConfigPPWR (CLKPWR_PCONP_PCTIM2, DISABLE);
 1279              		.loc 1 328 0
 1280 0070 7B68     		ldr	r3, [r7, #4]	@ tmp124, TIMx
 1281 0072 084A     		ldr	r2, .L69+8	@ tmp125,
 1282 0074 9342     		cmp	r3, r2	@ tmp124, tmp125
 1283 0076 04D1     		bne	.L68	@,
 1284              	@ core/lpc17xx_timer.c:329: 		CLKPWR_ConfigPPWR (CLKPWR_PCONP_PCTIM2, DISABLE);
 329:core/lpc17xx_timer.c **** 
 1285              		.loc 1 329 0
 1286 0078 0021     		movs	r1, #0	@,
 1287 007a 4FF48000 		mov	r0, #4194304	@,
 1288 007e FFF7FEFF 		bl	CLKPWR_ConfigPPWR	@
 1289              	.L68:
 1290              	@ core/lpc17xx_timer.c:331: }
 1291              		.loc 1 331 0
 1292 0082 00BF     		nop
 1293 0084 0837     		adds	r7, r7, #8	@,,
 1294              		.cfi_def_cfa_offset 8
 1295 0086 BD46     		mov	sp, r7	@,
 1296              		.cfi_def_cfa_register 13
 1297              		@ sp needed	@
 1298 0088 80BD     		pop	{r7, pc}	@
 1299              	.L70:
 1300 008a 00BF     		.align	2
 1301              	.L69:
 1302 008c 00800040 		.word	1073774592
 1303 0090 00000940 		.word	1074331648
 1304 0094 00400940 		.word	1074348032
 1305 0098 00000000 		.word	.LC0
 1306              		.cfi_endproc
 1307              	.LFE64:
 1308              		.size	TIM_DeInit, .-TIM_DeInit
 1309              		.section	.text.TIM_Cmd,"ax",%progbits
 1310              		.align	1
ARM GAS  /tmp/ccKti1Oq.s 			page 30


 1311              		.global	TIM_Cmd
 1312              		.syntax unified
 1313              		.thumb
 1314              		.thumb_func
 1315              		.fpu softvfp
 1316              		.type	TIM_Cmd, %function
 1317              	TIM_Cmd:
 1318              	.LFB65:
 332:core/lpc17xx_timer.c **** 
 333:core/lpc17xx_timer.c **** /*********************************************************************//**
 334:core/lpc17xx_timer.c ****  * @brief	 	Start/Stop Timer/Counter device
 335:core/lpc17xx_timer.c ****  * @param[in]	TIMx Pointer to timer device
 336:core/lpc17xx_timer.c ****  * @param[in]	NewState
 337:core/lpc17xx_timer.c ****  * 				-	ENABLE  : set timer enable
 338:core/lpc17xx_timer.c ****  * 				-	DISABLE : disable timer
 339:core/lpc17xx_timer.c ****  * @return 		None
 340:core/lpc17xx_timer.c ****  **********************************************************************/
 341:core/lpc17xx_timer.c **** void TIM_Cmd(LPC_TIM_TypeDef *TIMx, FunctionalState NewState)
 342:core/lpc17xx_timer.c **** {
 1319              		.loc 1 342 0
 1320              		.cfi_startproc
 1321              		@ args = 0, pretend = 0, frame = 8
 1322              		@ frame_needed = 1, uses_anonymous_args = 0
 1323 0000 80B5     		push	{r7, lr}	@
 1324              		.cfi_def_cfa_offset 8
 1325              		.cfi_offset 7, -8
 1326              		.cfi_offset 14, -4
 1327 0002 82B0     		sub	sp, sp, #8	@,,
 1328              		.cfi_def_cfa_offset 16
 1329 0004 00AF     		add	r7, sp, #0	@,,
 1330              		.cfi_def_cfa_register 7
 1331 0006 7860     		str	r0, [r7, #4]	@ TIMx, TIMx
 1332 0008 0B46     		mov	r3, r1	@ tmp114, NewState
 1333 000a FB70     		strb	r3, [r7, #3]	@ tmp115, NewState
 1334              	@ core/lpc17xx_timer.c:343: 	CHECK_PARAM(PARAM_TIMx(TIMx));
 343:core/lpc17xx_timer.c **** 	CHECK_PARAM(PARAM_TIMx(TIMx));
 1335              		.loc 1 343 0
 1336 000c 7B68     		ldr	r3, [r7, #4]	@ tmp116, TIMx
 1337 000e B3F1402F 		cmp	r3, #1073758208	@ tmp116,
 1338 0012 10D0     		beq	.L72	@,
 1339              	@ core/lpc17xx_timer.c:343: 	CHECK_PARAM(PARAM_TIMx(TIMx));
 1340              		.loc 1 343 0 is_stmt 0 discriminator 1
 1341 0014 7B68     		ldr	r3, [r7, #4]	@ tmp117, TIMx
 1342 0016 124A     		ldr	r2, .L76	@ tmp118,
 1343 0018 9342     		cmp	r3, r2	@ tmp117, tmp118
 1344 001a 0CD0     		beq	.L72	@,
 1345              	@ core/lpc17xx_timer.c:343: 	CHECK_PARAM(PARAM_TIMx(TIMx));
 1346              		.loc 1 343 0 discriminator 2
 1347 001c 7B68     		ldr	r3, [r7, #4]	@ tmp119, TIMx
 1348 001e 114A     		ldr	r2, .L76+4	@ tmp120,
 1349 0020 9342     		cmp	r3, r2	@ tmp119, tmp120
 1350 0022 08D0     		beq	.L72	@,
 1351              	@ core/lpc17xx_timer.c:343: 	CHECK_PARAM(PARAM_TIMx(TIMx));
 1352              		.loc 1 343 0 discriminator 3
 1353 0024 7B68     		ldr	r3, [r7, #4]	@ tmp121, TIMx
 1354 0026 104A     		ldr	r2, .L76+8	@ tmp122,
 1355 0028 9342     		cmp	r3, r2	@ tmp121, tmp122
ARM GAS  /tmp/ccKti1Oq.s 			page 31


 1356 002a 04D0     		beq	.L72	@,
 1357              	@ core/lpc17xx_timer.c:343: 	CHECK_PARAM(PARAM_TIMx(TIMx));
 1358              		.loc 1 343 0 discriminator 4
 1359 002c 40F25711 		movw	r1, #343	@,
 1360 0030 0E48     		ldr	r0, .L76+12	@,
 1361 0032 FFF7FEFF 		bl	check_failed	@
 1362              	.L72:
 1363              	@ core/lpc17xx_timer.c:344: 	if (NewState == ENABLE)
 344:core/lpc17xx_timer.c **** 	if (NewState == ENABLE)
 1364              		.loc 1 344 0 is_stmt 1
 1365 0036 FB78     		ldrb	r3, [r7, #3]	@ zero_extendqisi2	@ tmp123, NewState
 1366 0038 012B     		cmp	r3, #1	@ tmp123,
 1367 003a 06D1     		bne	.L73	@,
 1368              	@ core/lpc17xx_timer.c:346: 		TIMx->TCR	|=  TIM_ENABLE;
 345:core/lpc17xx_timer.c **** 	{
 346:core/lpc17xx_timer.c **** 		TIMx->TCR	|=  TIM_ENABLE;
 1369              		.loc 1 346 0
 1370 003c 7B68     		ldr	r3, [r7, #4]	@ tmp124, TIMx
 1371 003e 5B68     		ldr	r3, [r3, #4]	@ _1, TIMx_7(D)->TCR
 1372 0040 43F00102 		orr	r2, r3, #1	@ _2, _1,
 1373 0044 7B68     		ldr	r3, [r7, #4]	@ tmp125, TIMx
 1374 0046 5A60     		str	r2, [r3, #4]	@ _2, TIMx_7(D)->TCR
 1375              	@ core/lpc17xx_timer.c:352: }
 347:core/lpc17xx_timer.c **** 	}
 348:core/lpc17xx_timer.c **** 	else
 349:core/lpc17xx_timer.c **** 	{
 350:core/lpc17xx_timer.c **** 		TIMx->TCR &= ~TIM_ENABLE;
 351:core/lpc17xx_timer.c **** 	}
 352:core/lpc17xx_timer.c **** }
 1376              		.loc 1 352 0
 1377 0048 05E0     		b	.L75	@
 1378              	.L73:
 1379              	@ core/lpc17xx_timer.c:350: 		TIMx->TCR &= ~TIM_ENABLE;
 350:core/lpc17xx_timer.c **** 	}
 1380              		.loc 1 350 0
 1381 004a 7B68     		ldr	r3, [r7, #4]	@ tmp126, TIMx
 1382 004c 5B68     		ldr	r3, [r3, #4]	@ _3, TIMx_7(D)->TCR
 1383 004e 23F00102 		bic	r2, r3, #1	@ _4, _3,
 1384 0052 7B68     		ldr	r3, [r7, #4]	@ tmp127, TIMx
 1385 0054 5A60     		str	r2, [r3, #4]	@ _4, TIMx_7(D)->TCR
 1386              	.L75:
 1387              	@ core/lpc17xx_timer.c:352: }
 1388              		.loc 1 352 0
 1389 0056 00BF     		nop
 1390 0058 0837     		adds	r7, r7, #8	@,,
 1391              		.cfi_def_cfa_offset 8
 1392 005a BD46     		mov	sp, r7	@,
 1393              		.cfi_def_cfa_register 13
 1394              		@ sp needed	@
 1395 005c 80BD     		pop	{r7, pc}	@
 1396              	.L77:
 1397 005e 00BF     		.align	2
 1398              	.L76:
 1399 0060 00800040 		.word	1073774592
 1400 0064 00000940 		.word	1074331648
 1401 0068 00400940 		.word	1074348032
 1402 006c 00000000 		.word	.LC0
ARM GAS  /tmp/ccKti1Oq.s 			page 32


 1403              		.cfi_endproc
 1404              	.LFE65:
 1405              		.size	TIM_Cmd, .-TIM_Cmd
 1406              		.section	.text.TIM_ResetCounter,"ax",%progbits
 1407              		.align	1
 1408              		.global	TIM_ResetCounter
 1409              		.syntax unified
 1410              		.thumb
 1411              		.thumb_func
 1412              		.fpu softvfp
 1413              		.type	TIM_ResetCounter, %function
 1414              	TIM_ResetCounter:
 1415              	.LFB66:
 353:core/lpc17xx_timer.c **** 
 354:core/lpc17xx_timer.c **** /*********************************************************************//**
 355:core/lpc17xx_timer.c ****  * @brief 		Reset Timer/Counter device,
 356:core/lpc17xx_timer.c ****  * 					Make TC and PC are synchronously reset on the next
 357:core/lpc17xx_timer.c ****  * 					positive edge of PCLK
 358:core/lpc17xx_timer.c ****  * @param[in]	TIMx Pointer to timer device
 359:core/lpc17xx_timer.c ****  * @return 		None
 360:core/lpc17xx_timer.c ****  **********************************************************************/
 361:core/lpc17xx_timer.c **** void TIM_ResetCounter(LPC_TIM_TypeDef *TIMx)
 362:core/lpc17xx_timer.c **** {
 1416              		.loc 1 362 0
 1417              		.cfi_startproc
 1418              		@ args = 0, pretend = 0, frame = 8
 1419              		@ frame_needed = 1, uses_anonymous_args = 0
 1420 0000 80B5     		push	{r7, lr}	@
 1421              		.cfi_def_cfa_offset 8
 1422              		.cfi_offset 7, -8
 1423              		.cfi_offset 14, -4
 1424 0002 82B0     		sub	sp, sp, #8	@,,
 1425              		.cfi_def_cfa_offset 16
 1426 0004 00AF     		add	r7, sp, #0	@,,
 1427              		.cfi_def_cfa_register 7
 1428 0006 7860     		str	r0, [r7, #4]	@ TIMx, TIMx
 1429              	@ core/lpc17xx_timer.c:363: 	CHECK_PARAM(PARAM_TIMx(TIMx));
 363:core/lpc17xx_timer.c **** 	CHECK_PARAM(PARAM_TIMx(TIMx));
 1430              		.loc 1 363 0
 1431 0008 7B68     		ldr	r3, [r7, #4]	@ tmp114, TIMx
 1432 000a B3F1402F 		cmp	r3, #1073758208	@ tmp114,
 1433 000e 10D0     		beq	.L79	@,
 1434              	@ core/lpc17xx_timer.c:363: 	CHECK_PARAM(PARAM_TIMx(TIMx));
 1435              		.loc 1 363 0 is_stmt 0 discriminator 1
 1436 0010 7B68     		ldr	r3, [r7, #4]	@ tmp115, TIMx
 1437 0012 104A     		ldr	r2, .L80	@ tmp116,
 1438 0014 9342     		cmp	r3, r2	@ tmp115, tmp116
 1439 0016 0CD0     		beq	.L79	@,
 1440              	@ core/lpc17xx_timer.c:363: 	CHECK_PARAM(PARAM_TIMx(TIMx));
 1441              		.loc 1 363 0 discriminator 2
 1442 0018 7B68     		ldr	r3, [r7, #4]	@ tmp117, TIMx
 1443 001a 0F4A     		ldr	r2, .L80+4	@ tmp118,
 1444 001c 9342     		cmp	r3, r2	@ tmp117, tmp118
 1445 001e 08D0     		beq	.L79	@,
 1446              	@ core/lpc17xx_timer.c:363: 	CHECK_PARAM(PARAM_TIMx(TIMx));
 1447              		.loc 1 363 0 discriminator 3
 1448 0020 7B68     		ldr	r3, [r7, #4]	@ tmp119, TIMx
ARM GAS  /tmp/ccKti1Oq.s 			page 33


 1449 0022 0E4A     		ldr	r2, .L80+8	@ tmp120,
 1450 0024 9342     		cmp	r3, r2	@ tmp119, tmp120
 1451 0026 04D0     		beq	.L79	@,
 1452              	@ core/lpc17xx_timer.c:363: 	CHECK_PARAM(PARAM_TIMx(TIMx));
 1453              		.loc 1 363 0 discriminator 4
 1454 0028 40F26B11 		movw	r1, #363	@,
 1455 002c 0C48     		ldr	r0, .L80+12	@,
 1456 002e FFF7FEFF 		bl	check_failed	@
 1457              	.L79:
 1458              	@ core/lpc17xx_timer.c:364: 	TIMx->TCR |= TIM_RESET;
 364:core/lpc17xx_timer.c **** 	TIMx->TCR |= TIM_RESET;
 1459              		.loc 1 364 0 is_stmt 1
 1460 0032 7B68     		ldr	r3, [r7, #4]	@ tmp121, TIMx
 1461 0034 5B68     		ldr	r3, [r3, #4]	@ _1, TIMx_6(D)->TCR
 1462 0036 43F00202 		orr	r2, r3, #2	@ _2, _1,
 1463 003a 7B68     		ldr	r3, [r7, #4]	@ tmp122, TIMx
 1464 003c 5A60     		str	r2, [r3, #4]	@ _2, TIMx_6(D)->TCR
 1465              	@ core/lpc17xx_timer.c:365: 	TIMx->TCR &= ~TIM_RESET;
 365:core/lpc17xx_timer.c **** 	TIMx->TCR &= ~TIM_RESET;
 1466              		.loc 1 365 0
 1467 003e 7B68     		ldr	r3, [r7, #4]	@ tmp123, TIMx
 1468 0040 5B68     		ldr	r3, [r3, #4]	@ _3, TIMx_6(D)->TCR
 1469 0042 23F00202 		bic	r2, r3, #2	@ _4, _3,
 1470 0046 7B68     		ldr	r3, [r7, #4]	@ tmp124, TIMx
 1471 0048 5A60     		str	r2, [r3, #4]	@ _4, TIMx_6(D)->TCR
 1472              	@ core/lpc17xx_timer.c:366: }
 366:core/lpc17xx_timer.c **** }
 1473              		.loc 1 366 0
 1474 004a 00BF     		nop
 1475 004c 0837     		adds	r7, r7, #8	@,,
 1476              		.cfi_def_cfa_offset 8
 1477 004e BD46     		mov	sp, r7	@,
 1478              		.cfi_def_cfa_register 13
 1479              		@ sp needed	@
 1480 0050 80BD     		pop	{r7, pc}	@
 1481              	.L81:
 1482 0052 00BF     		.align	2
 1483              	.L80:
 1484 0054 00800040 		.word	1073774592
 1485 0058 00000940 		.word	1074331648
 1486 005c 00400940 		.word	1074348032
 1487 0060 00000000 		.word	.LC0
 1488              		.cfi_endproc
 1489              	.LFE66:
 1490              		.size	TIM_ResetCounter, .-TIM_ResetCounter
 1491              		.section	.text.TIM_ConfigMatch,"ax",%progbits
 1492              		.align	1
 1493              		.global	TIM_ConfigMatch
 1494              		.syntax unified
 1495              		.thumb
 1496              		.thumb_func
 1497              		.fpu softvfp
 1498              		.type	TIM_ConfigMatch, %function
 1499              	TIM_ConfigMatch:
 1500              	.LFB67:
 367:core/lpc17xx_timer.c **** 
 368:core/lpc17xx_timer.c **** /*********************************************************************//**
ARM GAS  /tmp/ccKti1Oq.s 			page 34


 369:core/lpc17xx_timer.c ****  * @brief 		Configuration for Match register
 370:core/lpc17xx_timer.c ****  * @param[in]	TIMx Pointer to timer device
 371:core/lpc17xx_timer.c ****  * @param[in]   TIM_MatchConfigStruct Pointer to TIM_MATCHCFG_Type
 372:core/lpc17xx_timer.c ****  * 					- MatchChannel : choose channel 0 or 1
 373:core/lpc17xx_timer.c ****  * 					- IntOnMatch	 : if SET, interrupt will be generated when MRxx match
 374:core/lpc17xx_timer.c ****  * 									the value in TC
 375:core/lpc17xx_timer.c ****  * 					- StopOnMatch	 : if SET, TC and PC will be stopped whenM Rxx match
 376:core/lpc17xx_timer.c ****  * 									the value in TC
 377:core/lpc17xx_timer.c ****  * 					- ResetOnMatch : if SET, Reset on MR0 when MRxx match
 378:core/lpc17xx_timer.c ****  * 									the value in TC
 379:core/lpc17xx_timer.c ****  * 					-ExtMatchOutputType: Select output for external match
 380:core/lpc17xx_timer.c ****  * 						 +	 0:	Do nothing for external output pin if match
 381:core/lpc17xx_timer.c ****  *						 +   1:	Force external output pin to low if match
 382:core/lpc17xx_timer.c ****  *						 + 	 2: Force external output pin to high if match
 383:core/lpc17xx_timer.c ****  *						 + 	 3: Toggle external output pin if match
 384:core/lpc17xx_timer.c ****  *					MatchValue: Set the value to be compared with TC value
 385:core/lpc17xx_timer.c ****  * @return 		None
 386:core/lpc17xx_timer.c ****  **********************************************************************/
 387:core/lpc17xx_timer.c **** void TIM_ConfigMatch(LPC_TIM_TypeDef *TIMx, TIM_MATCHCFG_Type *TIM_MatchConfigStruct)
 388:core/lpc17xx_timer.c **** {
 1501              		.loc 1 388 0
 1502              		.cfi_startproc
 1503              		@ args = 0, pretend = 0, frame = 16
 1504              		@ frame_needed = 1, uses_anonymous_args = 0
 1505 0000 80B5     		push	{r7, lr}	@
 1506              		.cfi_def_cfa_offset 8
 1507              		.cfi_offset 7, -8
 1508              		.cfi_offset 14, -4
 1509 0002 84B0     		sub	sp, sp, #16	@,,
 1510              		.cfi_def_cfa_offset 24
 1511 0004 00AF     		add	r7, sp, #0	@,,
 1512              		.cfi_def_cfa_register 7
 1513 0006 7860     		str	r0, [r7, #4]	@ TIMx, TIMx
 1514 0008 3960     		str	r1, [r7]	@ TIM_MatchConfigStruct, TIM_MatchConfigStruct
 1515              	@ core/lpc17xx_timer.c:391: 	CHECK_PARAM(PARAM_TIMx(TIMx));
 389:core/lpc17xx_timer.c **** 	uint32_t timer;
 390:core/lpc17xx_timer.c **** 
 391:core/lpc17xx_timer.c **** 	CHECK_PARAM(PARAM_TIMx(TIMx));
 1516              		.loc 1 391 0
 1517 000a 7B68     		ldr	r3, [r7, #4]	@ tmp169, TIMx
 1518 000c B3F1402F 		cmp	r3, #1073758208	@ tmp169,
 1519 0010 10D0     		beq	.L83	@,
 1520              	@ core/lpc17xx_timer.c:391: 	CHECK_PARAM(PARAM_TIMx(TIMx));
 1521              		.loc 1 391 0 is_stmt 0 discriminator 1
 1522 0012 7B68     		ldr	r3, [r7, #4]	@ tmp170, TIMx
 1523 0014 4D4A     		ldr	r2, .L91	@ tmp171,
 1524 0016 9342     		cmp	r3, r2	@ tmp170, tmp171
 1525 0018 0CD0     		beq	.L83	@,
 1526              	@ core/lpc17xx_timer.c:391: 	CHECK_PARAM(PARAM_TIMx(TIMx));
 1527              		.loc 1 391 0 discriminator 2
 1528 001a 7B68     		ldr	r3, [r7, #4]	@ tmp172, TIMx
 1529 001c 4C4A     		ldr	r2, .L91+4	@ tmp173,
 1530 001e 9342     		cmp	r3, r2	@ tmp172, tmp173
 1531 0020 08D0     		beq	.L83	@,
 1532              	@ core/lpc17xx_timer.c:391: 	CHECK_PARAM(PARAM_TIMx(TIMx));
 1533              		.loc 1 391 0 discriminator 3
 1534 0022 7B68     		ldr	r3, [r7, #4]	@ tmp174, TIMx
ARM GAS  /tmp/ccKti1Oq.s 			page 35


 1535 0024 4B4A     		ldr	r2, .L91+8	@ tmp175,
 1536 0026 9342     		cmp	r3, r2	@ tmp174, tmp175
 1537 0028 04D0     		beq	.L83	@,
 1538              	@ core/lpc17xx_timer.c:391: 	CHECK_PARAM(PARAM_TIMx(TIMx));
 1539              		.loc 1 391 0 discriminator 4
 1540 002a 40F28711 		movw	r1, #391	@,
 1541 002e 4A48     		ldr	r0, .L91+12	@,
 1542 0030 FFF7FEFF 		bl	check_failed	@
 1543              	.L83:
 1544              	@ core/lpc17xx_timer.c:392: 	CHECK_PARAM(PARAM_TIM_EXTMATCH_OPT(TIM_MatchConfigStruct->ExtMatchOutp
 392:core/lpc17xx_timer.c **** 	CHECK_PARAM(PARAM_TIM_EXTMATCH_OPT(TIM_MatchConfigStruct->ExtMatchOutputType));
 1545              		.loc 1 392 0 is_stmt 1
 1546 0034 3B68     		ldr	r3, [r7]	@ tmp176, TIM_MatchConfigStruct
 1547 0036 1B79     		ldrb	r3, [r3, #4]	@ zero_extendqisi2	@ _1, TIM_MatchConfigStruct_69(D)->ExtMatchOutputType
 1548 0038 002B     		cmp	r3, #0	@ _1,
 1549 003a 10D0     		beq	.L84	@,
 1550              	@ core/lpc17xx_timer.c:392: 	CHECK_PARAM(PARAM_TIM_EXTMATCH_OPT(TIM_MatchConfigStruct->ExtMatchOutp
 1551              		.loc 1 392 0 is_stmt 0 discriminator 1
 1552 003c 3B68     		ldr	r3, [r7]	@ tmp177, TIM_MatchConfigStruct
 1553 003e 1B79     		ldrb	r3, [r3, #4]	@ zero_extendqisi2	@ _2, TIM_MatchConfigStruct_69(D)->ExtMatchOutputType
 1554 0040 012B     		cmp	r3, #1	@ _2,
 1555 0042 0CD0     		beq	.L84	@,
 1556              	@ core/lpc17xx_timer.c:392: 	CHECK_PARAM(PARAM_TIM_EXTMATCH_OPT(TIM_MatchConfigStruct->ExtMatchOutp
 1557              		.loc 1 392 0 discriminator 2
 1558 0044 3B68     		ldr	r3, [r7]	@ tmp178, TIM_MatchConfigStruct
 1559 0046 1B79     		ldrb	r3, [r3, #4]	@ zero_extendqisi2	@ _3, TIM_MatchConfigStruct_69(D)->ExtMatchOutputType
 1560 0048 022B     		cmp	r3, #2	@ _3,
 1561 004a 08D0     		beq	.L84	@,
 1562              	@ core/lpc17xx_timer.c:392: 	CHECK_PARAM(PARAM_TIM_EXTMATCH_OPT(TIM_MatchConfigStruct->ExtMatchOutp
 1563              		.loc 1 392 0 discriminator 3
 1564 004c 3B68     		ldr	r3, [r7]	@ tmp179, TIM_MatchConfigStruct
 1565 004e 1B79     		ldrb	r3, [r3, #4]	@ zero_extendqisi2	@ _4, TIM_MatchConfigStruct_69(D)->ExtMatchOutputType
 1566 0050 032B     		cmp	r3, #3	@ _4,
 1567 0052 04D0     		beq	.L84	@,
 1568              	@ core/lpc17xx_timer.c:392: 	CHECK_PARAM(PARAM_TIM_EXTMATCH_OPT(TIM_MatchConfigStruct->ExtMatchOutp
 1569              		.loc 1 392 0 discriminator 4
 1570 0054 4FF4C471 		mov	r1, #392	@,
 1571 0058 3F48     		ldr	r0, .L91+12	@,
 1572 005a FFF7FEFF 		bl	check_failed	@
 1573              	.L84:
 1574              	@ core/lpc17xx_timer.c:394: 	timer = TIM_ConverPtrToTimeNum(TIMx) ;
 393:core/lpc17xx_timer.c **** 
 394:core/lpc17xx_timer.c **** 	timer = TIM_ConverPtrToTimeNum(TIMx) ;
 1575              		.loc 1 394 0 is_stmt 1
 1576 005e 7868     		ldr	r0, [r7, #4]	@, TIMx
 1577 0060 FFF7FEFF 		bl	TIM_ConverPtrToTimeNum	@
 1578 0064 F860     		str	r0, [r7, #12]	@, timer
 1579              	@ core/lpc17xx_timer.c:395: 	switch(TIM_MatchConfigStruct->MatchChannel)
 395:core/lpc17xx_timer.c **** 	switch(TIM_MatchConfigStruct->MatchChannel)
 1580              		.loc 1 395 0
 1581 0066 3B68     		ldr	r3, [r7]	@ tmp180, TIM_MatchConfigStruct
 1582 0068 1B78     		ldrb	r3, [r3]	@ zero_extendqisi2	@ _5, TIM_MatchConfigStruct_69(D)->MatchChannel
 1583 006a 002B     		cmp	r3, #0	@ _6,
 1584 006c 02D0     		beq	.L86	@,
 1585 006e 012B     		cmp	r3, #1	@ _6,
 1586 0070 05D0     		beq	.L87	@,
 1587 0072 09E0     		b	.L85	@
ARM GAS  /tmp/ccKti1Oq.s 			page 36


 1588              	.L86:
 1589              	@ core/lpc17xx_timer.c:398: 		TIMx->MR0 = TIM_MatchConfigStruct->MatchValue;
 396:core/lpc17xx_timer.c **** 	{
 397:core/lpc17xx_timer.c **** 	case 0:
 398:core/lpc17xx_timer.c **** 		TIMx->MR0 = TIM_MatchConfigStruct->MatchValue;
 1590              		.loc 1 398 0
 1591 0074 3B68     		ldr	r3, [r7]	@ tmp181, TIM_MatchConfigStruct
 1592 0076 9A68     		ldr	r2, [r3, #8]	@ _7, TIM_MatchConfigStruct_69(D)->MatchValue
 1593 0078 7B68     		ldr	r3, [r7, #4]	@ tmp182, TIMx
 1594 007a 9A61     		str	r2, [r3, #24]	@ _7, TIMx_66(D)->MR0
 1595              	@ core/lpc17xx_timer.c:399: 		break;
 399:core/lpc17xx_timer.c **** 		break;
 1596              		.loc 1 399 0
 1597 007c 04E0     		b	.L85	@
 1598              	.L87:
 1599              	@ core/lpc17xx_timer.c:401: 		TIMx->MR1 = TIM_MatchConfigStruct->MatchValue;
 400:core/lpc17xx_timer.c **** 	case 1:
 401:core/lpc17xx_timer.c **** 		TIMx->MR1 = TIM_MatchConfigStruct->MatchValue;
 1600              		.loc 1 401 0
 1601 007e 3B68     		ldr	r3, [r7]	@ tmp183, TIM_MatchConfigStruct
 1602 0080 9A68     		ldr	r2, [r3, #8]	@ _8, TIM_MatchConfigStruct_69(D)->MatchValue
 1603 0082 7B68     		ldr	r3, [r7, #4]	@ tmp184, TIMx
 1604 0084 DA61     		str	r2, [r3, #28]	@ _8, TIMx_66(D)->MR1
 1605              	@ core/lpc17xx_timer.c:402: 		break;
 402:core/lpc17xx_timer.c **** 		break;
 1606              		.loc 1 402 0
 1607 0086 00BF     		nop
 1608              	.L85:
 1609              	@ core/lpc17xx_timer.c:405: 	TIMx->MCR &=~TIM_MCR_CHANNEL_MASKBIT(TIM_MatchConfigStruct->MatchChann
 403:core/lpc17xx_timer.c **** 	}
 404:core/lpc17xx_timer.c **** 	//interrupt on MRn
 405:core/lpc17xx_timer.c **** 	TIMx->MCR &=~TIM_MCR_CHANNEL_MASKBIT(TIM_MatchConfigStruct->MatchChannel);
 1610              		.loc 1 405 0
 1611 0088 7B68     		ldr	r3, [r7, #4]	@ tmp185, TIMx
 1612 008a 5A69     		ldr	r2, [r3, #20]	@ _9, TIMx_66(D)->MCR
 1613 008c 3B68     		ldr	r3, [r7]	@ tmp186, TIM_MatchConfigStruct
 1614 008e 1B78     		ldrb	r3, [r3]	@ zero_extendqisi2	@ _10, TIM_MatchConfigStruct_69(D)->MatchChannel
 1615 0090 1946     		mov	r1, r3	@ _11, _10
 1616 0092 0723     		movs	r3, #7	@ tmp187,
 1617 0094 8B40     		lsls	r3, r3, r1	@ _12, tmp187, _11
 1618 0096 DB43     		mvns	r3, r3	@ _14, _13
 1619 0098 1A40     		ands	r2, r2, r3	@, _15, _9, _14
 1620 009a 7B68     		ldr	r3, [r7, #4]	@ tmp188, TIMx
 1621 009c 5A61     		str	r2, [r3, #20]	@ _15, TIMx_66(D)->MCR
 1622              	@ core/lpc17xx_timer.c:407: 	if (TIM_MatchConfigStruct->IntOnMatch)
 406:core/lpc17xx_timer.c **** 
 407:core/lpc17xx_timer.c **** 	if (TIM_MatchConfigStruct->IntOnMatch)
 1623              		.loc 1 407 0
 1624 009e 3B68     		ldr	r3, [r7]	@ tmp189, TIM_MatchConfigStruct
 1625 00a0 5B78     		ldrb	r3, [r3, #1]	@ zero_extendqisi2	@ _16, TIM_MatchConfigStruct_69(D)->IntOnMatch
 1626 00a2 002B     		cmp	r3, #0	@ _16,
 1627 00a4 0DD0     		beq	.L88	@,
 1628              	@ core/lpc17xx_timer.c:408: 		TIMx->MCR |= TIM_INT_ON_MATCH(TIM_MatchConfigStruct->MatchChannel);
 408:core/lpc17xx_timer.c **** 		TIMx->MCR |= TIM_INT_ON_MATCH(TIM_MatchConfigStruct->MatchChannel);
 1629              		.loc 1 408 0
 1630 00a6 7B68     		ldr	r3, [r7, #4]	@ tmp190, TIMx
 1631 00a8 5A69     		ldr	r2, [r3, #20]	@ _17, TIMx_66(D)->MCR
ARM GAS  /tmp/ccKti1Oq.s 			page 37


 1632 00aa 3B68     		ldr	r3, [r7]	@ tmp191, TIM_MatchConfigStruct
 1633 00ac 1B78     		ldrb	r3, [r3]	@ zero_extendqisi2	@ _18, TIM_MatchConfigStruct_69(D)->MatchChannel
 1634 00ae 1946     		mov	r1, r3	@ _19, _18
 1635 00b0 0B46     		mov	r3, r1	@ tmp192, _19
 1636 00b2 5B00     		lsls	r3, r3, #1	@ tmp192, tmp192,
 1637 00b4 0B44     		add	r3, r3, r1	@ _20, _19
 1638 00b6 0121     		movs	r1, #1	@ tmp193,
 1639 00b8 01FA03F3 		lsl	r3, r1, r3	@ _21, tmp193, _20
 1640 00bc 1A43     		orrs	r2, r2, r3	@, _23, _17, _22
 1641 00be 7B68     		ldr	r3, [r7, #4]	@ tmp194, TIMx
 1642 00c0 5A61     		str	r2, [r3, #20]	@ _23, TIMx_66(D)->MCR
 1643              	.L88:
 1644              	@ core/lpc17xx_timer.c:411: 	if (TIM_MatchConfigStruct->ResetOnMatch)
 409:core/lpc17xx_timer.c **** 
 410:core/lpc17xx_timer.c **** 	//reset on MRn
 411:core/lpc17xx_timer.c **** 	if (TIM_MatchConfigStruct->ResetOnMatch)
 1645              		.loc 1 411 0
 1646 00c2 3B68     		ldr	r3, [r7]	@ tmp195, TIM_MatchConfigStruct
 1647 00c4 DB78     		ldrb	r3, [r3, #3]	@ zero_extendqisi2	@ _24, TIM_MatchConfigStruct_69(D)->ResetOnMatch
 1648 00c6 002B     		cmp	r3, #0	@ _24,
 1649 00c8 0ED0     		beq	.L89	@,
 1650              	@ core/lpc17xx_timer.c:412: 		TIMx->MCR |= TIM_RESET_ON_MATCH(TIM_MatchConfigStruct->MatchChannel);
 412:core/lpc17xx_timer.c **** 		TIMx->MCR |= TIM_RESET_ON_MATCH(TIM_MatchConfigStruct->MatchChannel);
 1651              		.loc 1 412 0
 1652 00ca 7B68     		ldr	r3, [r7, #4]	@ tmp196, TIMx
 1653 00cc 5A69     		ldr	r2, [r3, #20]	@ _25, TIMx_66(D)->MCR
 1654 00ce 3B68     		ldr	r3, [r7]	@ tmp197, TIM_MatchConfigStruct
 1655 00d0 1B78     		ldrb	r3, [r3]	@ zero_extendqisi2	@ _26, TIM_MatchConfigStruct_69(D)->MatchChannel
 1656 00d2 1946     		mov	r1, r3	@ _27, _26
 1657 00d4 0B46     		mov	r3, r1	@ tmp198, _27
 1658 00d6 5B00     		lsls	r3, r3, #1	@ tmp198, tmp198,
 1659 00d8 0B44     		add	r3, r3, r1	@ _28, _27
 1660 00da 0133     		adds	r3, r3, #1	@ _29, _28,
 1661 00dc 0121     		movs	r1, #1	@ tmp199,
 1662 00de 01FA03F3 		lsl	r3, r1, r3	@ _30, tmp199, _29
 1663 00e2 1A43     		orrs	r2, r2, r3	@, _32, _25, _31
 1664 00e4 7B68     		ldr	r3, [r7, #4]	@ tmp200, TIMx
 1665 00e6 5A61     		str	r2, [r3, #20]	@ _32, TIMx_66(D)->MCR
 1666              	.L89:
 1667              	@ core/lpc17xx_timer.c:415: 	if (TIM_MatchConfigStruct->StopOnMatch)
 413:core/lpc17xx_timer.c **** 
 414:core/lpc17xx_timer.c **** 	//stop on MRn
 415:core/lpc17xx_timer.c **** 	if (TIM_MatchConfigStruct->StopOnMatch)
 1668              		.loc 1 415 0
 1669 00e8 3B68     		ldr	r3, [r7]	@ tmp201, TIM_MatchConfigStruct
 1670 00ea 9B78     		ldrb	r3, [r3, #2]	@ zero_extendqisi2	@ _33, TIM_MatchConfigStruct_69(D)->StopOnMatch
 1671 00ec 002B     		cmp	r3, #0	@ _33,
 1672 00ee 0ED0     		beq	.L90	@,
 1673              	@ core/lpc17xx_timer.c:416: 		TIMx->MCR |= TIM_STOP_ON_MATCH(TIM_MatchConfigStruct->MatchChannel);
 416:core/lpc17xx_timer.c **** 		TIMx->MCR |= TIM_STOP_ON_MATCH(TIM_MatchConfigStruct->MatchChannel);
 1674              		.loc 1 416 0
 1675 00f0 7B68     		ldr	r3, [r7, #4]	@ tmp202, TIMx
 1676 00f2 5A69     		ldr	r2, [r3, #20]	@ _34, TIMx_66(D)->MCR
 1677 00f4 3B68     		ldr	r3, [r7]	@ tmp203, TIM_MatchConfigStruct
 1678 00f6 1B78     		ldrb	r3, [r3]	@ zero_extendqisi2	@ _35, TIM_MatchConfigStruct_69(D)->MatchChannel
 1679 00f8 1946     		mov	r1, r3	@ _36, _35
 1680 00fa 0B46     		mov	r3, r1	@ tmp204, _36
ARM GAS  /tmp/ccKti1Oq.s 			page 38


 1681 00fc 5B00     		lsls	r3, r3, #1	@ tmp204, tmp204,
 1682 00fe 0B44     		add	r3, r3, r1	@ _37, _36
 1683 0100 0233     		adds	r3, r3, #2	@ _38, _37,
 1684 0102 0121     		movs	r1, #1	@ tmp205,
 1685 0104 01FA03F3 		lsl	r3, r1, r3	@ _39, tmp205, _38
 1686 0108 1A43     		orrs	r2, r2, r3	@, _41, _34, _40
 1687 010a 7B68     		ldr	r3, [r7, #4]	@ tmp206, TIMx
 1688 010c 5A61     		str	r2, [r3, #20]	@ _41, TIMx_66(D)->MCR
 1689              	.L90:
 1690              	@ core/lpc17xx_timer.c:421: 	TIMx->EMR 	&= ~TIM_EM_MASK(TIM_MatchConfigStruct->MatchChannel);
 417:core/lpc17xx_timer.c **** //	TIMx->MCR = 0x02;
 418:core/lpc17xx_timer.c **** 
 419:core/lpc17xx_timer.c **** 	// match output type
 420:core/lpc17xx_timer.c **** 
 421:core/lpc17xx_timer.c **** 	TIMx->EMR 	&= ~TIM_EM_MASK(TIM_MatchConfigStruct->MatchChannel);
 1691              		.loc 1 421 0
 1692 010e 7B68     		ldr	r3, [r7, #4]	@ tmp207, TIMx
 1693 0110 DB6B     		ldr	r3, [r3, #60]	@ _42, TIMx_66(D)->EMR
 1694 0112 3A68     		ldr	r2, [r7]	@ tmp208, TIM_MatchConfigStruct
 1695 0114 1278     		ldrb	r2, [r2]	@ zero_extendqisi2	@ _43, TIM_MatchConfigStruct_69(D)->MatchChannel
 1696 0116 5200     		lsls	r2, r2, #1	@ _45, _44,
 1697 0118 0432     		adds	r2, r2, #4	@ _46, _45,
 1698 011a 0321     		movs	r1, #3	@ tmp209,
 1699 011c 01FA02F2 		lsl	r2, r1, r2	@ _47, tmp209, _46
 1700 0120 D243     		mvns	r2, r2	@ _48, _47
 1701 0122 1A40     		ands	r2, r2, r3	@, _50, _49, _42
 1702 0124 7B68     		ldr	r3, [r7, #4]	@ tmp210, TIMx
 1703 0126 DA63     		str	r2, [r3, #60]	@ _50, TIMx_66(D)->EMR
 1704              	@ core/lpc17xx_timer.c:422: 	TIMx->EMR    = TIM_EM_SET(TIM_MatchConfigStruct->MatchChannel,TIM_Matc
 422:core/lpc17xx_timer.c **** 	TIMx->EMR    = TIM_EM_SET(TIM_MatchConfigStruct->MatchChannel,TIM_MatchConfigStruct->ExtMatchOutpu
 1705              		.loc 1 422 0
 1706 0128 3B68     		ldr	r3, [r7]	@ tmp211, TIM_MatchConfigStruct
 1707 012a 1B79     		ldrb	r3, [r3, #4]	@ zero_extendqisi2	@ _51, TIM_MatchConfigStruct_69(D)->ExtMatchOutputType
 1708 012c 03F00302 		and	r2, r3, #3	@ _53, _52,
 1709 0130 3B68     		ldr	r3, [r7]	@ tmp212, TIM_MatchConfigStruct
 1710 0132 1B78     		ldrb	r3, [r3]	@ zero_extendqisi2	@ _54, TIM_MatchConfigStruct_69(D)->MatchChannel
 1711 0134 5B00     		lsls	r3, r3, #1	@ _56, _55,
 1712 0136 0433     		adds	r3, r3, #4	@ _57, _56,
 1713 0138 02FA03F3 		lsl	r3, r2, r3	@ _58, _53, _57
 1714 013c 1A46     		mov	r2, r3	@ _59, _58
 1715 013e 7B68     		ldr	r3, [r7, #4]	@ tmp213, TIMx
 1716 0140 DA63     		str	r2, [r3, #60]	@ _59, TIMx_66(D)->EMR
 1717              	@ core/lpc17xx_timer.c:423: }
 423:core/lpc17xx_timer.c **** }
 1718              		.loc 1 423 0
 1719 0142 00BF     		nop
 1720 0144 1037     		adds	r7, r7, #16	@,,
 1721              		.cfi_def_cfa_offset 8
 1722 0146 BD46     		mov	sp, r7	@,
 1723              		.cfi_def_cfa_register 13
 1724              		@ sp needed	@
 1725 0148 80BD     		pop	{r7, pc}	@
 1726              	.L92:
 1727 014a 00BF     		.align	2
 1728              	.L91:
 1729 014c 00800040 		.word	1073774592
 1730 0150 00000940 		.word	1074331648
ARM GAS  /tmp/ccKti1Oq.s 			page 39


 1731 0154 00400940 		.word	1074348032
 1732 0158 00000000 		.word	.LC0
 1733              		.cfi_endproc
 1734              	.LFE67:
 1735              		.size	TIM_ConfigMatch, .-TIM_ConfigMatch
 1736              		.section	.text.TIM_ConfigCapture,"ax",%progbits
 1737              		.align	1
 1738              		.global	TIM_ConfigCapture
 1739              		.syntax unified
 1740              		.thumb
 1741              		.thumb_func
 1742              		.fpu softvfp
 1743              		.type	TIM_ConfigCapture, %function
 1744              	TIM_ConfigCapture:
 1745              	.LFB68:
 424:core/lpc17xx_timer.c **** /*********************************************************************//**
 425:core/lpc17xx_timer.c ****  * @brief 		Configuration for Capture register
 426:core/lpc17xx_timer.c ****  * @param[in]	TIMx Pointer to timer device
 427:core/lpc17xx_timer.c ****  * 					- CaptureChannel: set the channel to capture data
 428:core/lpc17xx_timer.c ****  * 					- RisingEdge    : if SET, Capture at rising edge
 429:core/lpc17xx_timer.c ****  * 					- FallingEdge	: if SET, Capture at falling edge
 430:core/lpc17xx_timer.c ****  * 					- IntOnCaption  : if SET, Capture generate interrupt
 431:core/lpc17xx_timer.c ****  * @param[in]   TIM_CaptureConfigStruct	Pointer to TIM_CAPTURECFG_Type
 432:core/lpc17xx_timer.c ****  * @return 		None
 433:core/lpc17xx_timer.c ****  **********************************************************************/
 434:core/lpc17xx_timer.c **** void TIM_ConfigCapture(LPC_TIM_TypeDef *TIMx, TIM_CAPTURECFG_Type *TIM_CaptureConfigStruct)
 435:core/lpc17xx_timer.c **** {
 1746              		.loc 1 435 0
 1747              		.cfi_startproc
 1748              		@ args = 0, pretend = 0, frame = 16
 1749              		@ frame_needed = 1, uses_anonymous_args = 0
 1750 0000 80B5     		push	{r7, lr}	@
 1751              		.cfi_def_cfa_offset 8
 1752              		.cfi_offset 7, -8
 1753              		.cfi_offset 14, -4
 1754 0002 84B0     		sub	sp, sp, #16	@,,
 1755              		.cfi_def_cfa_offset 24
 1756 0004 00AF     		add	r7, sp, #0	@,,
 1757              		.cfi_def_cfa_register 7
 1758 0006 7860     		str	r0, [r7, #4]	@ TIMx, TIMx
 1759 0008 3960     		str	r1, [r7]	@ TIM_CaptureConfigStruct, TIM_CaptureConfigStruct
 1760              	@ core/lpc17xx_timer.c:438: 	CHECK_PARAM(PARAM_TIMx(TIMx));
 436:core/lpc17xx_timer.c **** 	uint32_t timer;
 437:core/lpc17xx_timer.c **** 
 438:core/lpc17xx_timer.c **** 	CHECK_PARAM(PARAM_TIMx(TIMx));
 1761              		.loc 1 438 0
 1762 000a 7B68     		ldr	r3, [r7, #4]	@ tmp143, TIMx
 1763 000c B3F1402F 		cmp	r3, #1073758208	@ tmp143,
 1764 0010 10D0     		beq	.L94	@,
 1765              	@ core/lpc17xx_timer.c:438: 	CHECK_PARAM(PARAM_TIMx(TIMx));
 1766              		.loc 1 438 0 is_stmt 0 discriminator 1
 1767 0012 7B68     		ldr	r3, [r7, #4]	@ tmp144, TIMx
 1768 0014 2D4A     		ldr	r2, .L99	@ tmp145,
 1769 0016 9342     		cmp	r3, r2	@ tmp144, tmp145
 1770 0018 0CD0     		beq	.L94	@,
 1771              	@ core/lpc17xx_timer.c:438: 	CHECK_PARAM(PARAM_TIMx(TIMx));
 1772              		.loc 1 438 0 discriminator 2
ARM GAS  /tmp/ccKti1Oq.s 			page 40


 1773 001a 7B68     		ldr	r3, [r7, #4]	@ tmp146, TIMx
 1774 001c 2C4A     		ldr	r2, .L99+4	@ tmp147,
 1775 001e 9342     		cmp	r3, r2	@ tmp146, tmp147
 1776 0020 08D0     		beq	.L94	@,
 1777              	@ core/lpc17xx_timer.c:438: 	CHECK_PARAM(PARAM_TIMx(TIMx));
 1778              		.loc 1 438 0 discriminator 3
 1779 0022 7B68     		ldr	r3, [r7, #4]	@ tmp148, TIMx
 1780 0024 2B4A     		ldr	r2, .L99+8	@ tmp149,
 1781 0026 9342     		cmp	r3, r2	@ tmp148, tmp149
 1782 0028 04D0     		beq	.L94	@,
 1783              	@ core/lpc17xx_timer.c:438: 	CHECK_PARAM(PARAM_TIMx(TIMx));
 1784              		.loc 1 438 0 discriminator 4
 1785 002a 4FF4DB71 		mov	r1, #438	@,
 1786 002e 2A48     		ldr	r0, .L99+12	@,
 1787 0030 FFF7FEFF 		bl	check_failed	@
 1788              	.L94:
 1789              	@ core/lpc17xx_timer.c:439: 	timer = TIM_ConverPtrToTimeNum(TIMx) ;
 439:core/lpc17xx_timer.c **** 	timer = TIM_ConverPtrToTimeNum(TIMx) ;
 1790              		.loc 1 439 0 is_stmt 1
 1791 0034 7868     		ldr	r0, [r7, #4]	@, TIMx
 1792 0036 FFF7FEFF 		bl	TIM_ConverPtrToTimeNum	@
 1793 003a F860     		str	r0, [r7, #12]	@, timer
 1794              	@ core/lpc17xx_timer.c:440: 	TIMx->CCR &= ~TIM_CCR_CHANNEL_MASKBIT(TIM_CaptureConfigStruct->Capture
 440:core/lpc17xx_timer.c **** 	TIMx->CCR &= ~TIM_CCR_CHANNEL_MASKBIT(TIM_CaptureConfigStruct->CaptureChannel);
 1795              		.loc 1 440 0
 1796 003c 7B68     		ldr	r3, [r7, #4]	@ tmp150, TIMx
 1797 003e 9A6A     		ldr	r2, [r3, #40]	@ _1, TIMx_38(D)->CCR
 1798 0040 3B68     		ldr	r3, [r7]	@ tmp151, TIM_CaptureConfigStruct
 1799 0042 1B78     		ldrb	r3, [r3]	@ zero_extendqisi2	@ _2, TIM_CaptureConfigStruct_43(D)->CaptureChannel
 1800 0044 1946     		mov	r1, r3	@ _3, _2
 1801 0046 0723     		movs	r3, #7	@ tmp152,
 1802 0048 8B40     		lsls	r3, r3, r1	@ _4, tmp152, _3
 1803 004a DB43     		mvns	r3, r3	@ _6, _5
 1804 004c 1A40     		ands	r2, r2, r3	@, _7, _1, _6
 1805 004e 7B68     		ldr	r3, [r7, #4]	@ tmp153, TIMx
 1806 0050 9A62     		str	r2, [r3, #40]	@ _7, TIMx_38(D)->CCR
 1807              	@ core/lpc17xx_timer.c:442: 	if (TIM_CaptureConfigStruct->RisingEdge)
 441:core/lpc17xx_timer.c **** 
 442:core/lpc17xx_timer.c **** 	if (TIM_CaptureConfigStruct->RisingEdge)
 1808              		.loc 1 442 0
 1809 0052 3B68     		ldr	r3, [r7]	@ tmp154, TIM_CaptureConfigStruct
 1810 0054 5B78     		ldrb	r3, [r3, #1]	@ zero_extendqisi2	@ _8, TIM_CaptureConfigStruct_43(D)->RisingEdge
 1811 0056 002B     		cmp	r3, #0	@ _8,
 1812 0058 0DD0     		beq	.L95	@,
 1813              	@ core/lpc17xx_timer.c:443: 		TIMx->CCR |= TIM_CAP_RISING(TIM_CaptureConfigStruct->CaptureChannel);
 443:core/lpc17xx_timer.c **** 		TIMx->CCR |= TIM_CAP_RISING(TIM_CaptureConfigStruct->CaptureChannel);
 1814              		.loc 1 443 0
 1815 005a 7B68     		ldr	r3, [r7, #4]	@ tmp155, TIMx
 1816 005c 9A6A     		ldr	r2, [r3, #40]	@ _9, TIMx_38(D)->CCR
 1817 005e 3B68     		ldr	r3, [r7]	@ tmp156, TIM_CaptureConfigStruct
 1818 0060 1B78     		ldrb	r3, [r3]	@ zero_extendqisi2	@ _10, TIM_CaptureConfigStruct_43(D)->CaptureChannel
 1819 0062 1946     		mov	r1, r3	@ _11, _10
 1820 0064 0B46     		mov	r3, r1	@ tmp157, _11
 1821 0066 5B00     		lsls	r3, r3, #1	@ tmp157, tmp157,
 1822 0068 0B44     		add	r3, r3, r1	@ _12, _11
 1823 006a 0121     		movs	r1, #1	@ tmp158,
 1824 006c 01FA03F3 		lsl	r3, r1, r3	@ _13, tmp158, _12
ARM GAS  /tmp/ccKti1Oq.s 			page 41


 1825 0070 1A43     		orrs	r2, r2, r3	@, _15, _9, _14
 1826 0072 7B68     		ldr	r3, [r7, #4]	@ tmp159, TIMx
 1827 0074 9A62     		str	r2, [r3, #40]	@ _15, TIMx_38(D)->CCR
 1828              	.L95:
 1829              	@ core/lpc17xx_timer.c:445: 	if (TIM_CaptureConfigStruct->FallingEdge)
 444:core/lpc17xx_timer.c **** 
 445:core/lpc17xx_timer.c **** 	if (TIM_CaptureConfigStruct->FallingEdge)
 1830              		.loc 1 445 0
 1831 0076 3B68     		ldr	r3, [r7]	@ tmp160, TIM_CaptureConfigStruct
 1832 0078 9B78     		ldrb	r3, [r3, #2]	@ zero_extendqisi2	@ _16, TIM_CaptureConfigStruct_43(D)->FallingEdge
 1833 007a 002B     		cmp	r3, #0	@ _16,
 1834 007c 0ED0     		beq	.L96	@,
 1835              	@ core/lpc17xx_timer.c:446: 		TIMx->CCR |= TIM_CAP_FALLING(TIM_CaptureConfigStruct->CaptureChannel)
 446:core/lpc17xx_timer.c **** 		TIMx->CCR |= TIM_CAP_FALLING(TIM_CaptureConfigStruct->CaptureChannel);
 1836              		.loc 1 446 0
 1837 007e 7B68     		ldr	r3, [r7, #4]	@ tmp161, TIMx
 1838 0080 9A6A     		ldr	r2, [r3, #40]	@ _17, TIMx_38(D)->CCR
 1839 0082 3B68     		ldr	r3, [r7]	@ tmp162, TIM_CaptureConfigStruct
 1840 0084 1B78     		ldrb	r3, [r3]	@ zero_extendqisi2	@ _18, TIM_CaptureConfigStruct_43(D)->CaptureChannel
 1841 0086 1946     		mov	r1, r3	@ _19, _18
 1842 0088 0B46     		mov	r3, r1	@ tmp163, _19
 1843 008a 5B00     		lsls	r3, r3, #1	@ tmp163, tmp163,
 1844 008c 0B44     		add	r3, r3, r1	@ _20, _19
 1845 008e 0133     		adds	r3, r3, #1	@ _21, _20,
 1846 0090 0121     		movs	r1, #1	@ tmp164,
 1847 0092 01FA03F3 		lsl	r3, r1, r3	@ _22, tmp164, _21
 1848 0096 1A43     		orrs	r2, r2, r3	@, _24, _17, _23
 1849 0098 7B68     		ldr	r3, [r7, #4]	@ tmp165, TIMx
 1850 009a 9A62     		str	r2, [r3, #40]	@ _24, TIMx_38(D)->CCR
 1851              	.L96:
 1852              	@ core/lpc17xx_timer.c:448: 	if (TIM_CaptureConfigStruct->IntOnCaption)
 447:core/lpc17xx_timer.c **** 
 448:core/lpc17xx_timer.c **** 	if (TIM_CaptureConfigStruct->IntOnCaption)
 1853              		.loc 1 448 0
 1854 009c 3B68     		ldr	r3, [r7]	@ tmp166, TIM_CaptureConfigStruct
 1855 009e DB78     		ldrb	r3, [r3, #3]	@ zero_extendqisi2	@ _25, TIM_CaptureConfigStruct_43(D)->IntOnCaption
 1856 00a0 002B     		cmp	r3, #0	@ _25,
 1857 00a2 0ED0     		beq	.L98	@,
 1858              	@ core/lpc17xx_timer.c:449: 		TIMx->CCR |= TIM_INT_ON_CAP(TIM_CaptureConfigStruct->CaptureChannel);
 449:core/lpc17xx_timer.c **** 		TIMx->CCR |= TIM_INT_ON_CAP(TIM_CaptureConfigStruct->CaptureChannel);
 1859              		.loc 1 449 0
 1860 00a4 7B68     		ldr	r3, [r7, #4]	@ tmp167, TIMx
 1861 00a6 9A6A     		ldr	r2, [r3, #40]	@ _26, TIMx_38(D)->CCR
 1862 00a8 3B68     		ldr	r3, [r7]	@ tmp168, TIM_CaptureConfigStruct
 1863 00aa 1B78     		ldrb	r3, [r3]	@ zero_extendqisi2	@ _27, TIM_CaptureConfigStruct_43(D)->CaptureChannel
 1864 00ac 1946     		mov	r1, r3	@ _28, _27
 1865 00ae 0B46     		mov	r3, r1	@ tmp169, _28
 1866 00b0 5B00     		lsls	r3, r3, #1	@ tmp169, tmp169,
 1867 00b2 0B44     		add	r3, r3, r1	@ _29, _28
 1868 00b4 0233     		adds	r3, r3, #2	@ _30, _29,
 1869 00b6 0121     		movs	r1, #1	@ tmp170,
 1870 00b8 01FA03F3 		lsl	r3, r1, r3	@ _31, tmp170, _30
 1871 00bc 1A43     		orrs	r2, r2, r3	@, _33, _26, _32
 1872 00be 7B68     		ldr	r3, [r7, #4]	@ tmp171, TIMx
 1873 00c0 9A62     		str	r2, [r3, #40]	@ _33, TIMx_38(D)->CCR
 1874              	.L98:
 1875              	@ core/lpc17xx_timer.c:450: }
ARM GAS  /tmp/ccKti1Oq.s 			page 42


 450:core/lpc17xx_timer.c **** }
 1876              		.loc 1 450 0
 1877 00c2 00BF     		nop
 1878 00c4 1037     		adds	r7, r7, #16	@,,
 1879              		.cfi_def_cfa_offset 8
 1880 00c6 BD46     		mov	sp, r7	@,
 1881              		.cfi_def_cfa_register 13
 1882              		@ sp needed	@
 1883 00c8 80BD     		pop	{r7, pc}	@
 1884              	.L100:
 1885 00ca 00BF     		.align	2
 1886              	.L99:
 1887 00cc 00800040 		.word	1073774592
 1888 00d0 00000940 		.word	1074331648
 1889 00d4 00400940 		.word	1074348032
 1890 00d8 00000000 		.word	.LC0
 1891              		.cfi_endproc
 1892              	.LFE68:
 1893              		.size	TIM_ConfigCapture, .-TIM_ConfigCapture
 1894              		.section	.text.TIM_GetCaptureValue,"ax",%progbits
 1895              		.align	1
 1896              		.global	TIM_GetCaptureValue
 1897              		.syntax unified
 1898              		.thumb
 1899              		.thumb_func
 1900              		.fpu softvfp
 1901              		.type	TIM_GetCaptureValue, %function
 1902              	TIM_GetCaptureValue:
 1903              	.LFB69:
 451:core/lpc17xx_timer.c **** 
 452:core/lpc17xx_timer.c **** /*********************************************************************//**
 453:core/lpc17xx_timer.c ****  * @brief 		Read value of capture register in timer/counter device
 454:core/lpc17xx_timer.c ****  * @param[in]	TIMx Pointer to timer/counter device
 455:core/lpc17xx_timer.c ****  * @param[in]	CaptureChannel: capture channel number
 456:core/lpc17xx_timer.c ****  * @return 		Value of capture register
 457:core/lpc17xx_timer.c ****  **********************************************************************/
 458:core/lpc17xx_timer.c **** uint32_t TIM_GetCaptureValue(LPC_TIM_TypeDef *TIMx, uint8_t CaptureChannel)
 459:core/lpc17xx_timer.c **** {
 1904              		.loc 1 459 0
 1905              		.cfi_startproc
 1906              		@ args = 0, pretend = 0, frame = 8
 1907              		@ frame_needed = 1, uses_anonymous_args = 0
 1908 0000 80B5     		push	{r7, lr}	@
 1909              		.cfi_def_cfa_offset 8
 1910              		.cfi_offset 7, -8
 1911              		.cfi_offset 14, -4
 1912 0002 82B0     		sub	sp, sp, #8	@,,
 1913              		.cfi_def_cfa_offset 16
 1914 0004 00AF     		add	r7, sp, #0	@,,
 1915              		.cfi_def_cfa_register 7
 1916 0006 7860     		str	r0, [r7, #4]	@ TIMx, TIMx
 1917 0008 0B46     		mov	r3, r1	@ tmp112, CaptureChannel
 1918 000a FB70     		strb	r3, [r7, #3]	@ tmp113, CaptureChannel
 1919              	@ core/lpc17xx_timer.c:460: 	CHECK_PARAM(PARAM_TIMx(TIMx));
 460:core/lpc17xx_timer.c **** 	CHECK_PARAM(PARAM_TIMx(TIMx));
 1920              		.loc 1 460 0
 1921 000c 7B68     		ldr	r3, [r7, #4]	@ tmp114, TIMx
ARM GAS  /tmp/ccKti1Oq.s 			page 43


 1922 000e B3F1402F 		cmp	r3, #1073758208	@ tmp114,
 1923 0012 10D0     		beq	.L102	@,
 1924              	@ core/lpc17xx_timer.c:460: 	CHECK_PARAM(PARAM_TIMx(TIMx));
 1925              		.loc 1 460 0 is_stmt 0 discriminator 1
 1926 0014 7B68     		ldr	r3, [r7, #4]	@ tmp115, TIMx
 1927 0016 134A     		ldr	r2, .L106	@ tmp116,
 1928 0018 9342     		cmp	r3, r2	@ tmp115, tmp116
 1929 001a 0CD0     		beq	.L102	@,
 1930              	@ core/lpc17xx_timer.c:460: 	CHECK_PARAM(PARAM_TIMx(TIMx));
 1931              		.loc 1 460 0 discriminator 2
 1932 001c 7B68     		ldr	r3, [r7, #4]	@ tmp117, TIMx
 1933 001e 124A     		ldr	r2, .L106+4	@ tmp118,
 1934 0020 9342     		cmp	r3, r2	@ tmp117, tmp118
 1935 0022 08D0     		beq	.L102	@,
 1936              	@ core/lpc17xx_timer.c:460: 	CHECK_PARAM(PARAM_TIMx(TIMx));
 1937              		.loc 1 460 0 discriminator 3
 1938 0024 7B68     		ldr	r3, [r7, #4]	@ tmp119, TIMx
 1939 0026 114A     		ldr	r2, .L106+8	@ tmp120,
 1940 0028 9342     		cmp	r3, r2	@ tmp119, tmp120
 1941 002a 04D0     		beq	.L102	@,
 1942              	@ core/lpc17xx_timer.c:460: 	CHECK_PARAM(PARAM_TIMx(TIMx));
 1943              		.loc 1 460 0 discriminator 4
 1944 002c 4FF4E671 		mov	r1, #460	@,
 1945 0030 0F48     		ldr	r0, .L106+12	@,
 1946 0032 FFF7FEFF 		bl	check_failed	@
 1947              	.L102:
 1948              	@ core/lpc17xx_timer.c:461: 	CHECK_PARAM(PARAM_TIM_COUNTER_INPUT_OPT(CaptureChannel));
 461:core/lpc17xx_timer.c **** 	CHECK_PARAM(PARAM_TIM_COUNTER_INPUT_OPT(CaptureChannel));
 1949              		.loc 1 461 0 is_stmt 1
 1950 0036 FB78     		ldrb	r3, [r7, #3]	@ zero_extendqisi2	@ tmp121, CaptureChannel
 1951 0038 002B     		cmp	r3, #0	@ tmp121,
 1952 003a 07D0     		beq	.L103	@,
 1953              	@ core/lpc17xx_timer.c:461: 	CHECK_PARAM(PARAM_TIM_COUNTER_INPUT_OPT(CaptureChannel));
 1954              		.loc 1 461 0 is_stmt 0 discriminator 1
 1955 003c FB78     		ldrb	r3, [r7, #3]	@ zero_extendqisi2	@ tmp122, CaptureChannel
 1956 003e 012B     		cmp	r3, #1	@ tmp122,
 1957 0040 04D0     		beq	.L103	@,
 1958              	@ core/lpc17xx_timer.c:461: 	CHECK_PARAM(PARAM_TIM_COUNTER_INPUT_OPT(CaptureChannel));
 1959              		.loc 1 461 0 discriminator 2
 1960 0042 40F2CD11 		movw	r1, #461	@,
 1961 0046 0A48     		ldr	r0, .L106+12	@,
 1962 0048 FFF7FEFF 		bl	check_failed	@
 1963              	.L103:
 1964              	@ core/lpc17xx_timer.c:463: 	if(CaptureChannel==0)
 462:core/lpc17xx_timer.c **** 
 463:core/lpc17xx_timer.c **** 	if(CaptureChannel==0)
 1965              		.loc 1 463 0 is_stmt 1
 1966 004c FB78     		ldrb	r3, [r7, #3]	@ zero_extendqisi2	@ tmp123, CaptureChannel
 1967 004e 002B     		cmp	r3, #0	@ tmp123,
 1968 0050 02D1     		bne	.L104	@,
 1969              	@ core/lpc17xx_timer.c:464: 		return TIMx->CR0;
 464:core/lpc17xx_timer.c **** 		return TIMx->CR0;
 1970              		.loc 1 464 0
 1971 0052 7B68     		ldr	r3, [r7, #4]	@ tmp124, TIMx
 1972 0054 DB6A     		ldr	r3, [r3, #44]	@ _1, TIMx_4(D)->CR0
 1973 0056 01E0     		b	.L105	@
 1974              	.L104:
ARM GAS  /tmp/ccKti1Oq.s 			page 44


 1975              	@ core/lpc17xx_timer.c:466: 		return TIMx->CR1;
 465:core/lpc17xx_timer.c **** 	else
 466:core/lpc17xx_timer.c **** 		return TIMx->CR1;
 1976              		.loc 1 466 0
 1977 0058 7B68     		ldr	r3, [r7, #4]	@ tmp125, TIMx
 1978 005a 1B6B     		ldr	r3, [r3, #48]	@ _1, TIMx_4(D)->CR1
 1979              	.L105:
 1980              	@ core/lpc17xx_timer.c:467: }
 467:core/lpc17xx_timer.c **** }
 1981              		.loc 1 467 0
 1982 005c 1846     		mov	r0, r3	@, <retval>
 1983 005e 0837     		adds	r7, r7, #8	@,,
 1984              		.cfi_def_cfa_offset 8
 1985 0060 BD46     		mov	sp, r7	@,
 1986              		.cfi_def_cfa_register 13
 1987              		@ sp needed	@
 1988 0062 80BD     		pop	{r7, pc}	@
 1989              	.L107:
 1990              		.align	2
 1991              	.L106:
 1992 0064 00800040 		.word	1073774592
 1993 0068 00000940 		.word	1074331648
 1994 006c 00400940 		.word	1074348032
 1995 0070 00000000 		.word	.LC0
 1996              		.cfi_endproc
 1997              	.LFE69:
 1998              		.size	TIM_GetCaptureValue, .-TIM_GetCaptureValue
 1999              		.section	.text.Timer0_Wait,"ax",%progbits
 2000              		.align	1
 2001              		.global	Timer0_Wait
 2002              		.syntax unified
 2003              		.thumb
 2004              		.thumb_func
 2005              		.fpu softvfp
 2006              		.type	Timer0_Wait, %function
 2007              	Timer0_Wait:
 2008              	.LFB70:
 468:core/lpc17xx_timer.c **** 
 469:core/lpc17xx_timer.c **** /**
 470:core/lpc17xx_timer.c ****  * @}
 471:core/lpc17xx_timer.c ****  */
 472:core/lpc17xx_timer.c **** 
 473:core/lpc17xx_timer.c **** 
 474:core/lpc17xx_timer.c **** void Timer0_Wait(uint32_t time)
 475:core/lpc17xx_timer.c **** {
 2009              		.loc 1 475 0
 2010              		.cfi_startproc
 2011              		@ args = 0, pretend = 0, frame = 32
 2012              		@ frame_needed = 1, uses_anonymous_args = 0
 2013 0000 80B5     		push	{r7, lr}	@
 2014              		.cfi_def_cfa_offset 8
 2015              		.cfi_offset 7, -8
 2016              		.cfi_offset 14, -4
 2017 0002 88B0     		sub	sp, sp, #32	@,,
 2018              		.cfi_def_cfa_offset 40
 2019 0004 00AF     		add	r7, sp, #0	@,,
 2020              		.cfi_def_cfa_register 7
ARM GAS  /tmp/ccKti1Oq.s 			page 45


 2021 0006 7860     		str	r0, [r7, #4]	@ time, time
 2022              	@ core/lpc17xx_timer.c:480: 	TIM_ConfigStruct.PrescaleOption = TIM_PRESCALE_USVAL;
 476:core/lpc17xx_timer.c **** 	TIM_TIMERCFG_Type TIM_ConfigStruct;
 477:core/lpc17xx_timer.c **** 	TIM_MATCHCFG_Type TIM_MatchConfigStruct ;
 478:core/lpc17xx_timer.c **** 
 479:core/lpc17xx_timer.c **** // Initialize timer 0, prescale count time of 1ms
 480:core/lpc17xx_timer.c **** 	TIM_ConfigStruct.PrescaleOption = TIM_PRESCALE_USVAL;
 2023              		.loc 1 480 0
 2024 0008 0123     		movs	r3, #1	@ tmp111,
 2025 000a 3B76     		strb	r3, [r7, #24]	@ tmp112, TIM_ConfigStruct.PrescaleOption
 2026              	@ core/lpc17xx_timer.c:481: 	TIM_ConfigStruct.PrescaleValue	= 1000;
 481:core/lpc17xx_timer.c **** 	TIM_ConfigStruct.PrescaleValue	= 1000;
 2027              		.loc 1 481 0
 2028 000c 4FF47A73 		mov	r3, #1000	@ tmp113,
 2029 0010 FB61     		str	r3, [r7, #28]	@ tmp113, TIM_ConfigStruct.PrescaleValue
 2030              	@ core/lpc17xx_timer.c:483: 	TIM_MatchConfigStruct.MatchChannel = 0;
 482:core/lpc17xx_timer.c **** 	// use channel 0, MR0
 483:core/lpc17xx_timer.c **** 	TIM_MatchConfigStruct.MatchChannel = 0;
 2031              		.loc 1 483 0
 2032 0012 0023     		movs	r3, #0	@ tmp114,
 2033 0014 3B73     		strb	r3, [r7, #12]	@ tmp115, TIM_MatchConfigStruct.MatchChannel
 2034              	@ core/lpc17xx_timer.c:485: 	TIM_MatchConfigStruct.IntOnMatch   = TRUE;
 484:core/lpc17xx_timer.c **** 	// Enable interrupt when MR0 matches the value in TC register
 485:core/lpc17xx_timer.c **** 	TIM_MatchConfigStruct.IntOnMatch   = TRUE;
 2035              		.loc 1 485 0
 2036 0016 0123     		movs	r3, #1	@ tmp116,
 2037 0018 7B73     		strb	r3, [r7, #13]	@ tmp117, TIM_MatchConfigStruct.IntOnMatch
 2038              	@ core/lpc17xx_timer.c:487: 	TIM_MatchConfigStruct.ResetOnMatch = FALSE;
 486:core/lpc17xx_timer.c **** 	//Enable reset on MR0: TIMER will not reset if MR0 matches it
 487:core/lpc17xx_timer.c **** 	TIM_MatchConfigStruct.ResetOnMatch = FALSE;
 2039              		.loc 1 487 0
 2040 001a 0023     		movs	r3, #0	@ tmp118,
 2041 001c FB73     		strb	r3, [r7, #15]	@ tmp119, TIM_MatchConfigStruct.ResetOnMatch
 2042              	@ core/lpc17xx_timer.c:489: 	TIM_MatchConfigStruct.StopOnMatch  = TRUE;
 488:core/lpc17xx_timer.c **** 	//Stop on MR0 if MR0 matches it
 489:core/lpc17xx_timer.c **** 	TIM_MatchConfigStruct.StopOnMatch  = TRUE;
 2043              		.loc 1 489 0
 2044 001e 0123     		movs	r3, #1	@ tmp120,
 2045 0020 BB73     		strb	r3, [r7, #14]	@ tmp121, TIM_MatchConfigStruct.StopOnMatch
 2046              	@ core/lpc17xx_timer.c:491: 	TIM_MatchConfigStruct.ExtMatchOutputType =TIM_EXTMATCH_NOTHING;
 490:core/lpc17xx_timer.c **** 	//do no thing for external output
 491:core/lpc17xx_timer.c **** 	TIM_MatchConfigStruct.ExtMatchOutputType =TIM_EXTMATCH_NOTHING;
 2047              		.loc 1 491 0
 2048 0022 0023     		movs	r3, #0	@ tmp122,
 2049 0024 3B74     		strb	r3, [r7, #16]	@ tmp123, TIM_MatchConfigStruct.ExtMatchOutputType
 2050              	@ core/lpc17xx_timer.c:493: 	TIM_MatchConfigStruct.MatchValue   = time;
 492:core/lpc17xx_timer.c **** 	// Set Match value, count value is time (timer * 1000uS =timer mS )
 493:core/lpc17xx_timer.c **** 	TIM_MatchConfigStruct.MatchValue   = time;
 2051              		.loc 1 493 0
 2052 0026 7B68     		ldr	r3, [r7, #4]	@ tmp124, time
 2053 0028 7B61     		str	r3, [r7, #20]	@ tmp124, TIM_MatchConfigStruct.MatchValue
 2054              	@ core/lpc17xx_timer.c:496: 	TIM_Init(LPC_TIM0, TIM_TIMER_MODE,&TIM_ConfigStruct);
 494:core/lpc17xx_timer.c **** 
 495:core/lpc17xx_timer.c **** 	// Set configuration for Tim_config and Tim_MatchConfig
 496:core/lpc17xx_timer.c **** 	TIM_Init(LPC_TIM0, TIM_TIMER_MODE,&TIM_ConfigStruct);
 2055              		.loc 1 496 0
 2056 002a 07F11803 		add	r3, r7, #24	@ tmp125,,
ARM GAS  /tmp/ccKti1Oq.s 			page 46


 2057 002e 1A46     		mov	r2, r3	@, tmp125
 2058 0030 0021     		movs	r1, #0	@,
 2059 0032 4FF04020 		mov	r0, #1073758208	@,
 2060 0036 FFF7FEFF 		bl	TIM_Init	@
 2061              	@ core/lpc17xx_timer.c:497: 	TIM_ConfigMatch(LPC_TIM0,&TIM_MatchConfigStruct);
 497:core/lpc17xx_timer.c **** 	TIM_ConfigMatch(LPC_TIM0,&TIM_MatchConfigStruct);
 2062              		.loc 1 497 0
 2063 003a 07F10C03 		add	r3, r7, #12	@ tmp126,,
 2064 003e 1946     		mov	r1, r3	@, tmp126
 2065 0040 4FF04020 		mov	r0, #1073758208	@,
 2066 0044 FFF7FEFF 		bl	TIM_ConfigMatch	@
 2067              	@ core/lpc17xx_timer.c:499: 	TIM_Cmd(LPC_TIM0,ENABLE);
 498:core/lpc17xx_timer.c **** 	// To start timer 0
 499:core/lpc17xx_timer.c **** 	TIM_Cmd(LPC_TIM0,ENABLE);
 2068              		.loc 1 499 0
 2069 0048 0121     		movs	r1, #1	@,
 2070 004a 4FF04020 		mov	r0, #1073758208	@,
 2071 004e FFF7FEFF 		bl	TIM_Cmd	@
 2072              	@ core/lpc17xx_timer.c:500: 	while ( !(TIM_GetIntStatus(LPC_TIM0,0)));
 500:core/lpc17xx_timer.c **** 	while ( !(TIM_GetIntStatus(LPC_TIM0,0)));
 2073              		.loc 1 500 0
 2074 0052 00BF     		nop
 2075              	.L109:
 2076              	@ core/lpc17xx_timer.c:500: 	while ( !(TIM_GetIntStatus(LPC_TIM0,0)));
 2077              		.loc 1 500 0 is_stmt 0 discriminator 1
 2078 0054 0021     		movs	r1, #0	@,
 2079 0056 4FF04020 		mov	r0, #1073758208	@,
 2080 005a FFF7FEFF 		bl	TIM_GetIntStatus	@
 2081 005e 0346     		mov	r3, r0	@ tmp127,
 2082 0060 002B     		cmp	r3, #0	@ _1,
 2083 0062 F7D0     		beq	.L109	@,
 2084              	@ core/lpc17xx_timer.c:501: 		TIM_ClearIntPending(LPC_TIM0,0);
 501:core/lpc17xx_timer.c **** 		TIM_ClearIntPending(LPC_TIM0,0);
 2085              		.loc 1 501 0 is_stmt 1
 2086 0064 0021     		movs	r1, #0	@,
 2087 0066 4FF04020 		mov	r0, #1073758208	@,
 2088 006a FFF7FEFF 		bl	TIM_ClearIntPending	@
 2089              	@ core/lpc17xx_timer.c:502: }
 502:core/lpc17xx_timer.c **** }
 2090              		.loc 1 502 0
 2091 006e 00BF     		nop
 2092 0070 2037     		adds	r7, r7, #32	@,,
 2093              		.cfi_def_cfa_offset 8
 2094 0072 BD46     		mov	sp, r7	@,
 2095              		.cfi_def_cfa_register 13
 2096              		@ sp needed	@
 2097 0074 80BD     		pop	{r7, pc}	@
 2098              		.cfi_endproc
 2099              	.LFE70:
 2100              		.size	Timer0_Wait, .-Timer0_Wait
 2101              		.section	.text.Timer0_us_Wait,"ax",%progbits
 2102              		.align	1
 2103              		.global	Timer0_us_Wait
 2104              		.syntax unified
 2105              		.thumb
 2106              		.thumb_func
 2107              		.fpu softvfp
ARM GAS  /tmp/ccKti1Oq.s 			page 47


 2108              		.type	Timer0_us_Wait, %function
 2109              	Timer0_us_Wait:
 2110              	.LFB71:
 503:core/lpc17xx_timer.c **** 
 504:core/lpc17xx_timer.c **** void Timer0_us_Wait(uint32_t time)
 505:core/lpc17xx_timer.c **** {
 2111              		.loc 1 505 0
 2112              		.cfi_startproc
 2113              		@ args = 0, pretend = 0, frame = 32
 2114              		@ frame_needed = 1, uses_anonymous_args = 0
 2115 0000 80B5     		push	{r7, lr}	@
 2116              		.cfi_def_cfa_offset 8
 2117              		.cfi_offset 7, -8
 2118              		.cfi_offset 14, -4
 2119 0002 88B0     		sub	sp, sp, #32	@,,
 2120              		.cfi_def_cfa_offset 40
 2121 0004 00AF     		add	r7, sp, #0	@,,
 2122              		.cfi_def_cfa_register 7
 2123 0006 7860     		str	r0, [r7, #4]	@ time, time
 2124              	@ core/lpc17xx_timer.c:510: 	TIM_ConfigStruct.PrescaleOption = TIM_PRESCALE_USVAL;
 506:core/lpc17xx_timer.c **** 	TIM_TIMERCFG_Type TIM_ConfigStruct;
 507:core/lpc17xx_timer.c **** 	TIM_MATCHCFG_Type TIM_MatchConfigStruct ;
 508:core/lpc17xx_timer.c **** 
 509:core/lpc17xx_timer.c **** // Initialize timer 0, prescale count time of 1ms
 510:core/lpc17xx_timer.c **** 	TIM_ConfigStruct.PrescaleOption = TIM_PRESCALE_USVAL;
 2125              		.loc 1 510 0
 2126 0008 0123     		movs	r3, #1	@ tmp111,
 2127 000a 3B76     		strb	r3, [r7, #24]	@ tmp112, TIM_ConfigStruct.PrescaleOption
 2128              	@ core/lpc17xx_timer.c:511: 	TIM_ConfigStruct.PrescaleValue	= 1;
 511:core/lpc17xx_timer.c **** 	TIM_ConfigStruct.PrescaleValue	= 1;
 2129              		.loc 1 511 0
 2130 000c 0123     		movs	r3, #1	@ tmp113,
 2131 000e FB61     		str	r3, [r7, #28]	@ tmp113, TIM_ConfigStruct.PrescaleValue
 2132              	@ core/lpc17xx_timer.c:513: 	TIM_MatchConfigStruct.MatchChannel = 0;
 512:core/lpc17xx_timer.c **** 	// use channel 0, MR0
 513:core/lpc17xx_timer.c **** 	TIM_MatchConfigStruct.MatchChannel = 0;
 2133              		.loc 1 513 0
 2134 0010 0023     		movs	r3, #0	@ tmp114,
 2135 0012 3B73     		strb	r3, [r7, #12]	@ tmp115, TIM_MatchConfigStruct.MatchChannel
 2136              	@ core/lpc17xx_timer.c:515: 	TIM_MatchConfigStruct.IntOnMatch   = TRUE;
 514:core/lpc17xx_timer.c **** 	// Enable interrupt when MR0 matches the value in TC register
 515:core/lpc17xx_timer.c **** 	TIM_MatchConfigStruct.IntOnMatch   = TRUE;
 2137              		.loc 1 515 0
 2138 0014 0123     		movs	r3, #1	@ tmp116,
 2139 0016 7B73     		strb	r3, [r7, #13]	@ tmp117, TIM_MatchConfigStruct.IntOnMatch
 2140              	@ core/lpc17xx_timer.c:517: 	TIM_MatchConfigStruct.ResetOnMatch = FALSE;
 516:core/lpc17xx_timer.c **** 	//Enable reset on MR0: TIMER will not reset if MR0 matches it
 517:core/lpc17xx_timer.c **** 	TIM_MatchConfigStruct.ResetOnMatch = FALSE;
 2141              		.loc 1 517 0
 2142 0018 0023     		movs	r3, #0	@ tmp118,
 2143 001a FB73     		strb	r3, [r7, #15]	@ tmp119, TIM_MatchConfigStruct.ResetOnMatch
 2144              	@ core/lpc17xx_timer.c:519: 	TIM_MatchConfigStruct.StopOnMatch  = TRUE;
 518:core/lpc17xx_timer.c **** 	//Stop on MR0 if MR0 matches it
 519:core/lpc17xx_timer.c **** 	TIM_MatchConfigStruct.StopOnMatch  = TRUE;
 2145              		.loc 1 519 0
 2146 001c 0123     		movs	r3, #1	@ tmp120,
 2147 001e BB73     		strb	r3, [r7, #14]	@ tmp121, TIM_MatchConfigStruct.StopOnMatch
ARM GAS  /tmp/ccKti1Oq.s 			page 48


 2148              	@ core/lpc17xx_timer.c:521: 	TIM_MatchConfigStruct.ExtMatchOutputType =TIM_EXTMATCH_NOTHING;
 520:core/lpc17xx_timer.c **** 	//do no thing for external output
 521:core/lpc17xx_timer.c **** 	TIM_MatchConfigStruct.ExtMatchOutputType =TIM_EXTMATCH_NOTHING;
 2149              		.loc 1 521 0
 2150 0020 0023     		movs	r3, #0	@ tmp122,
 2151 0022 3B74     		strb	r3, [r7, #16]	@ tmp123, TIM_MatchConfigStruct.ExtMatchOutputType
 2152              	@ core/lpc17xx_timer.c:523: 	TIM_MatchConfigStruct.MatchValue   = time;
 522:core/lpc17xx_timer.c **** 	// Set Match value, count value is time (timer * 1000uS =timer mS )
 523:core/lpc17xx_timer.c **** 	TIM_MatchConfigStruct.MatchValue   = time;
 2153              		.loc 1 523 0
 2154 0024 7B68     		ldr	r3, [r7, #4]	@ tmp124, time
 2155 0026 7B61     		str	r3, [r7, #20]	@ tmp124, TIM_MatchConfigStruct.MatchValue
 2156              	@ core/lpc17xx_timer.c:526: 	TIM_Init(LPC_TIM0, TIM_TIMER_MODE,&TIM_ConfigStruct);
 524:core/lpc17xx_timer.c **** 
 525:core/lpc17xx_timer.c **** 	// Set configuration for Tim_config and Tim_MatchConfig
 526:core/lpc17xx_timer.c **** 	TIM_Init(LPC_TIM0, TIM_TIMER_MODE,&TIM_ConfigStruct);
 2157              		.loc 1 526 0
 2158 0028 07F11803 		add	r3, r7, #24	@ tmp125,,
 2159 002c 1A46     		mov	r2, r3	@, tmp125
 2160 002e 0021     		movs	r1, #0	@,
 2161 0030 4FF04020 		mov	r0, #1073758208	@,
 2162 0034 FFF7FEFF 		bl	TIM_Init	@
 2163              	@ core/lpc17xx_timer.c:527: 	TIM_ConfigMatch(LPC_TIM0,&TIM_MatchConfigStruct);
 527:core/lpc17xx_timer.c **** 	TIM_ConfigMatch(LPC_TIM0,&TIM_MatchConfigStruct);
 2164              		.loc 1 527 0
 2165 0038 07F10C03 		add	r3, r7, #12	@ tmp126,,
 2166 003c 1946     		mov	r1, r3	@, tmp126
 2167 003e 4FF04020 		mov	r0, #1073758208	@,
 2168 0042 FFF7FEFF 		bl	TIM_ConfigMatch	@
 2169              	@ core/lpc17xx_timer.c:529: 	TIM_Cmd(LPC_TIM0,ENABLE);
 528:core/lpc17xx_timer.c **** 	// To start timer 0
 529:core/lpc17xx_timer.c **** 	TIM_Cmd(LPC_TIM0,ENABLE);
 2170              		.loc 1 529 0
 2171 0046 0121     		movs	r1, #1	@,
 2172 0048 4FF04020 		mov	r0, #1073758208	@,
 2173 004c FFF7FEFF 		bl	TIM_Cmd	@
 2174              	@ core/lpc17xx_timer.c:530: 	while ( !(TIM_GetIntStatus(LPC_TIM0,0)));
 530:core/lpc17xx_timer.c **** 	while ( !(TIM_GetIntStatus(LPC_TIM0,0)));
 2175              		.loc 1 530 0
 2176 0050 00BF     		nop
 2177              	.L111:
 2178              	@ core/lpc17xx_timer.c:530: 	while ( !(TIM_GetIntStatus(LPC_TIM0,0)));
 2179              		.loc 1 530 0 is_stmt 0 discriminator 1
 2180 0052 0021     		movs	r1, #0	@,
 2181 0054 4FF04020 		mov	r0, #1073758208	@,
 2182 0058 FFF7FEFF 		bl	TIM_GetIntStatus	@
 2183 005c 0346     		mov	r3, r0	@ tmp127,
 2184 005e 002B     		cmp	r3, #0	@ _1,
 2185 0060 F7D0     		beq	.L111	@,
 2186              	@ core/lpc17xx_timer.c:531: 		TIM_ClearIntPending(LPC_TIM0,0);
 531:core/lpc17xx_timer.c **** 		TIM_ClearIntPending(LPC_TIM0,0);
 2187              		.loc 1 531 0 is_stmt 1
 2188 0062 0021     		movs	r1, #0	@,
 2189 0064 4FF04020 		mov	r0, #1073758208	@,
 2190 0068 FFF7FEFF 		bl	TIM_ClearIntPending	@
 2191              	@ core/lpc17xx_timer.c:532: }
 532:core/lpc17xx_timer.c **** }
ARM GAS  /tmp/ccKti1Oq.s 			page 49


 2192              		.loc 1 532 0
 2193 006c 00BF     		nop
 2194 006e 2037     		adds	r7, r7, #32	@,,
 2195              		.cfi_def_cfa_offset 8
 2196 0070 BD46     		mov	sp, r7	@,
 2197              		.cfi_def_cfa_register 13
 2198              		@ sp needed	@
 2199 0072 80BD     		pop	{r7, pc}	@
 2200              		.cfi_endproc
 2201              	.LFE71:
 2202              		.size	Timer0_us_Wait, .-Timer0_us_Wait
 2203              		.text
 2204              	.Letext0:
 2205              		.file 2 "/usr/arm-none-eabi/include/machine/_default_types.h"
 2206              		.file 3 "/usr/arm-none-eabi/include/sys/_stdint.h"
 2207              		.file 4 "system/core_cm3.h"
 2208              		.file 5 "system/system_LPC17xx.h"
 2209              		.file 6 "system/LPC17xx.h"
 2210              		.file 7 "core/lpc_types.h"
 2211              		.file 8 "core/lpc17xx_timer.h"
 2212              		.section	.debug_info,"",%progbits
 2213              	.Ldebug_info0:
 2214 0000 AA080000 		.4byte	0x8aa
 2215 0004 0400     		.2byte	0x4
 2216 0006 00000000 		.4byte	.Ldebug_abbrev0
 2217 000a 04       		.byte	0x4
 2218 000b 01       		.uleb128 0x1
 2219 000c A7570000 		.4byte	.LASF1339
 2220 0010 01       		.byte	0x1
 2221 0011 00000000 		.4byte	.LASF1340
 2222 0015 CD8F0000 		.4byte	.LASF1341
 2223 0019 00000000 		.4byte	.Ldebug_ranges0+0
 2224 001d 00000000 		.4byte	0
 2225 0021 00000000 		.4byte	.Ldebug_line0
 2226 0025 00000000 		.4byte	.Ldebug_macro0
 2227 0029 02       		.uleb128 0x2
 2228 002a 01       		.byte	0x1
 2229 002b 06       		.byte	0x6
 2230 002c B0220000 		.4byte	.LASF1239
 2231 0030 03       		.uleb128 0x3
 2232 0031 FE140000 		.4byte	.LASF1243
 2233 0035 02       		.byte	0x2
 2234 0036 2B       		.byte	0x2b
 2235 0037 3B000000 		.4byte	0x3b
 2236 003b 02       		.uleb128 0x2
 2237 003c 01       		.byte	0x1
 2238 003d 08       		.byte	0x8
 2239 003e 08250000 		.4byte	.LASF1240
 2240 0042 02       		.uleb128 0x2
 2241 0043 02       		.byte	0x2
 2242 0044 05       		.byte	0x5
 2243 0045 73860000 		.4byte	.LASF1241
 2244 0049 02       		.uleb128 0x2
 2245 004a 02       		.byte	0x2
 2246 004b 07       		.byte	0x7
 2247 004c 73970000 		.4byte	.LASF1242
 2248 0050 03       		.uleb128 0x3
ARM GAS  /tmp/ccKti1Oq.s 			page 50


 2249 0051 DD9A0000 		.4byte	.LASF1244
 2250 0055 02       		.byte	0x2
 2251 0056 4D       		.byte	0x4d
 2252 0057 5B000000 		.4byte	0x5b
 2253 005b 02       		.uleb128 0x2
 2254 005c 04       		.byte	0x4
 2255 005d 05       		.byte	0x5
 2256 005e 5A190000 		.4byte	.LASF1245
 2257 0062 03       		.uleb128 0x3
 2258 0063 5F530000 		.4byte	.LASF1246
 2259 0067 02       		.byte	0x2
 2260 0068 4F       		.byte	0x4f
 2261 0069 6D000000 		.4byte	0x6d
 2262 006d 02       		.uleb128 0x2
 2263 006e 04       		.byte	0x4
 2264 006f 07       		.byte	0x7
 2265 0070 F7450000 		.4byte	.LASF1247
 2266 0074 02       		.uleb128 0x2
 2267 0075 08       		.byte	0x8
 2268 0076 05       		.byte	0x5
 2269 0077 EC530000 		.4byte	.LASF1248
 2270 007b 03       		.uleb128 0x3
 2271 007c 2A450000 		.4byte	.LASF1249
 2272 0080 02       		.byte	0x2
 2273 0081 69       		.byte	0x69
 2274 0082 86000000 		.4byte	0x86
 2275 0086 02       		.uleb128 0x2
 2276 0087 08       		.byte	0x8
 2277 0088 07       		.byte	0x7
 2278 0089 44710000 		.4byte	.LASF1250
 2279 008d 04       		.uleb128 0x4
 2280 008e 04       		.byte	0x4
 2281 008f 05       		.byte	0x5
 2282 0090 696E7400 		.ascii	"int\000"
 2283 0094 02       		.uleb128 0x2
 2284 0095 04       		.byte	0x4
 2285 0096 07       		.byte	0x7
 2286 0097 4D5D0000 		.4byte	.LASF1251
 2287 009b 03       		.uleb128 0x3
 2288 009c C3220000 		.4byte	.LASF1252
 2289 00a0 03       		.byte	0x3
 2290 00a1 18       		.byte	0x18
 2291 00a2 30000000 		.4byte	0x30
 2292 00a6 03       		.uleb128 0x3
 2293 00a7 8F050000 		.4byte	.LASF1253
 2294 00ab 03       		.byte	0x3
 2295 00ac 2C       		.byte	0x2c
 2296 00ad 50000000 		.4byte	0x50
 2297 00b1 05       		.uleb128 0x5
 2298 00b2 A6000000 		.4byte	0xa6
 2299 00b6 03       		.uleb128 0x3
 2300 00b7 C9930000 		.4byte	.LASF1254
 2301 00bb 03       		.byte	0x3
 2302 00bc 30       		.byte	0x30
 2303 00bd 62000000 		.4byte	0x62
 2304 00c1 05       		.uleb128 0x5
 2305 00c2 B6000000 		.4byte	0xb6
ARM GAS  /tmp/ccKti1Oq.s 			page 51


 2306 00c6 06       		.uleb128 0x6
 2307 00c7 C1000000 		.4byte	0xc1
 2308 00cb 03       		.uleb128 0x3
 2309 00cc BE860000 		.4byte	.LASF1255
 2310 00d0 03       		.byte	0x3
 2311 00d1 3C       		.byte	0x3c
 2312 00d2 7B000000 		.4byte	0x7b
 2313 00d6 07       		.uleb128 0x7
 2314 00d7 B7590000 		.4byte	.LASF1256
 2315 00db 04       		.byte	0x4
 2316 00dc 8204     		.2byte	0x482
 2317 00de B1000000 		.4byte	0xb1
 2318 00e2 08       		.uleb128 0x8
 2319 00e3 78480000 		.4byte	.LASF1257
 2320 00e7 05       		.byte	0x5
 2321 00e8 28       		.byte	0x28
 2322 00e9 B6000000 		.4byte	0xb6
 2323 00ed 09       		.uleb128 0x9
 2324 00ee B6000000 		.4byte	0xb6
 2325 00f2 FD000000 		.4byte	0xfd
 2326 00f6 0A       		.uleb128 0xa
 2327 00f7 94000000 		.4byte	0x94
 2328 00fb 0B       		.byte	0xb
 2329 00fc 00       		.byte	0
 2330 00fd 0B       		.uleb128 0xb
 2331 00fe 74       		.byte	0x74
 2332 00ff 06       		.byte	0x6
 2333 0100 1A01     		.2byte	0x11a
 2334 0102 E0010000 		.4byte	0x1e0
 2335 0106 0C       		.uleb128 0xc
 2336 0107 495200   		.ascii	"IR\000"
 2337 010a 06       		.byte	0x6
 2338 010b 1C01     		.2byte	0x11c
 2339 010d C1000000 		.4byte	0xc1
 2340 0111 00       		.byte	0
 2341 0112 0C       		.uleb128 0xc
 2342 0113 54435200 		.ascii	"TCR\000"
 2343 0117 06       		.byte	0x6
 2344 0118 1D01     		.2byte	0x11d
 2345 011a C1000000 		.4byte	0xc1
 2346 011e 04       		.byte	0x4
 2347 011f 0C       		.uleb128 0xc
 2348 0120 544300   		.ascii	"TC\000"
 2349 0123 06       		.byte	0x6
 2350 0124 1E01     		.2byte	0x11e
 2351 0126 C1000000 		.4byte	0xc1
 2352 012a 08       		.byte	0x8
 2353 012b 0C       		.uleb128 0xc
 2354 012c 505200   		.ascii	"PR\000"
 2355 012f 06       		.byte	0x6
 2356 0130 1F01     		.2byte	0x11f
 2357 0132 C1000000 		.4byte	0xc1
 2358 0136 0C       		.byte	0xc
 2359 0137 0C       		.uleb128 0xc
 2360 0138 504300   		.ascii	"PC\000"
 2361 013b 06       		.byte	0x6
 2362 013c 2001     		.2byte	0x120
ARM GAS  /tmp/ccKti1Oq.s 			page 52


 2363 013e C1000000 		.4byte	0xc1
 2364 0142 10       		.byte	0x10
 2365 0143 0C       		.uleb128 0xc
 2366 0144 4D435200 		.ascii	"MCR\000"
 2367 0148 06       		.byte	0x6
 2368 0149 2101     		.2byte	0x121
 2369 014b C1000000 		.4byte	0xc1
 2370 014f 14       		.byte	0x14
 2371 0150 0C       		.uleb128 0xc
 2372 0151 4D523000 		.ascii	"MR0\000"
 2373 0155 06       		.byte	0x6
 2374 0156 2201     		.2byte	0x122
 2375 0158 C1000000 		.4byte	0xc1
 2376 015c 18       		.byte	0x18
 2377 015d 0C       		.uleb128 0xc
 2378 015e 4D523100 		.ascii	"MR1\000"
 2379 0162 06       		.byte	0x6
 2380 0163 2301     		.2byte	0x123
 2381 0165 C1000000 		.4byte	0xc1
 2382 0169 1C       		.byte	0x1c
 2383 016a 0C       		.uleb128 0xc
 2384 016b 4D523200 		.ascii	"MR2\000"
 2385 016f 06       		.byte	0x6
 2386 0170 2401     		.2byte	0x124
 2387 0172 C1000000 		.4byte	0xc1
 2388 0176 20       		.byte	0x20
 2389 0177 0C       		.uleb128 0xc
 2390 0178 4D523300 		.ascii	"MR3\000"
 2391 017c 06       		.byte	0x6
 2392 017d 2501     		.2byte	0x125
 2393 017f C1000000 		.4byte	0xc1
 2394 0183 24       		.byte	0x24
 2395 0184 0C       		.uleb128 0xc
 2396 0185 43435200 		.ascii	"CCR\000"
 2397 0189 06       		.byte	0x6
 2398 018a 2601     		.2byte	0x126
 2399 018c C1000000 		.4byte	0xc1
 2400 0190 28       		.byte	0x28
 2401 0191 0C       		.uleb128 0xc
 2402 0192 43523000 		.ascii	"CR0\000"
 2403 0196 06       		.byte	0x6
 2404 0197 2701     		.2byte	0x127
 2405 0199 C6000000 		.4byte	0xc6
 2406 019d 2C       		.byte	0x2c
 2407 019e 0C       		.uleb128 0xc
 2408 019f 43523100 		.ascii	"CR1\000"
 2409 01a3 06       		.byte	0x6
 2410 01a4 2801     		.2byte	0x128
 2411 01a6 C6000000 		.4byte	0xc6
 2412 01aa 30       		.byte	0x30
 2413 01ab 0D       		.uleb128 0xd
 2414 01ac F4240000 		.4byte	.LASF1258
 2415 01b0 06       		.byte	0x6
 2416 01b1 2901     		.2byte	0x129
 2417 01b3 E0010000 		.4byte	0x1e0
 2418 01b7 34       		.byte	0x34
 2419 01b8 0C       		.uleb128 0xc
ARM GAS  /tmp/ccKti1Oq.s 			page 53


 2420 01b9 454D5200 		.ascii	"EMR\000"
 2421 01bd 06       		.byte	0x6
 2422 01be 2A01     		.2byte	0x12a
 2423 01c0 C1000000 		.4byte	0xc1
 2424 01c4 3C       		.byte	0x3c
 2425 01c5 0D       		.uleb128 0xd
 2426 01c6 FE240000 		.4byte	.LASF1259
 2427 01ca 06       		.byte	0x6
 2428 01cb 2B01     		.2byte	0x12b
 2429 01cd ED000000 		.4byte	0xed
 2430 01d1 40       		.byte	0x40
 2431 01d2 0D       		.uleb128 0xd
 2432 01d3 600C0000 		.4byte	.LASF1260
 2433 01d7 06       		.byte	0x6
 2434 01d8 2C01     		.2byte	0x12c
 2435 01da C1000000 		.4byte	0xc1
 2436 01de 70       		.byte	0x70
 2437 01df 00       		.byte	0
 2438 01e0 09       		.uleb128 0x9
 2439 01e1 B6000000 		.4byte	0xb6
 2440 01e5 F0010000 		.4byte	0x1f0
 2441 01e9 0A       		.uleb128 0xa
 2442 01ea 94000000 		.4byte	0x94
 2443 01ee 01       		.byte	0x1
 2444 01ef 00       		.byte	0
 2445 01f0 0E       		.uleb128 0xe
 2446 01f1 CA650000 		.4byte	.LASF1261
 2447 01f5 06       		.byte	0x6
 2448 01f6 2D01     		.2byte	0x12d
 2449 01f8 FD000000 		.4byte	0xfd
 2450 01fc 09       		.uleb128 0x9
 2451 01fd 9B000000 		.4byte	0x9b
 2452 0201 0C020000 		.4byte	0x20c
 2453 0205 0A       		.uleb128 0xa
 2454 0206 94000000 		.4byte	0x94
 2455 020a 02       		.byte	0x2
 2456 020b 00       		.byte	0
 2457 020c 0F       		.uleb128 0xf
 2458 020d 07       		.byte	0x7
 2459 020e 01       		.byte	0x1
 2460 020f 3B000000 		.4byte	0x3b
 2461 0213 07       		.byte	0x7
 2462 0214 2D       		.byte	0x2d
 2463 0215 26020000 		.4byte	0x226
 2464 0219 10       		.uleb128 0x10
 2465 021a 3E670000 		.4byte	.LASF1262
 2466 021e 00       		.byte	0
 2467 021f 10       		.uleb128 0x10
 2468 0220 008A0000 		.4byte	.LASF1263
 2469 0224 01       		.byte	0x1
 2470 0225 00       		.byte	0
 2471 0226 0F       		.uleb128 0xf
 2472 0227 07       		.byte	0x7
 2473 0228 01       		.byte	0x1
 2474 0229 3B000000 		.4byte	0x3b
 2475 022d 07       		.byte	0x7
 2476 022e 32       		.byte	0x32
ARM GAS  /tmp/ccKti1Oq.s 			page 54


 2477 022f 40020000 		.4byte	0x240
 2478 0233 10       		.uleb128 0x10
 2479 0234 F57A0000 		.4byte	.LASF1264
 2480 0238 00       		.byte	0
 2481 0239 11       		.uleb128 0x11
 2482 023a 53455400 		.ascii	"SET\000"
 2483 023e 01       		.byte	0x1
 2484 023f 00       		.byte	0
 2485 0240 03       		.uleb128 0x3
 2486 0241 E07D0000 		.4byte	.LASF1265
 2487 0245 07       		.byte	0x7
 2488 0246 32       		.byte	0x32
 2489 0247 26020000 		.4byte	0x226
 2490 024b 0F       		.uleb128 0xf
 2491 024c 07       		.byte	0x7
 2492 024d 01       		.byte	0x1
 2493 024e 3B000000 		.4byte	0x3b
 2494 0252 07       		.byte	0x7
 2495 0253 38       		.byte	0x38
 2496 0254 65020000 		.4byte	0x265
 2497 0258 10       		.uleb128 0x10
 2498 0259 F7680000 		.4byte	.LASF1266
 2499 025d 00       		.byte	0
 2500 025e 10       		.uleb128 0x10
 2501 025f D38A0000 		.4byte	.LASF1267
 2502 0263 01       		.byte	0x1
 2503 0264 00       		.byte	0
 2504 0265 03       		.uleb128 0x3
 2505 0266 3A700000 		.4byte	.LASF1268
 2506 026a 07       		.byte	0x7
 2507 026b 38       		.byte	0x38
 2508 026c 4B020000 		.4byte	0x24b
 2509 0270 02       		.uleb128 0x2
 2510 0271 01       		.byte	0x1
 2511 0272 08       		.byte	0x8
 2512 0273 142D0000 		.4byte	.LASF489
 2513 0277 0F       		.uleb128 0xf
 2514 0278 07       		.byte	0x7
 2515 0279 01       		.byte	0x1
 2516 027a 3B000000 		.4byte	0x3b
 2517 027e 08       		.byte	0x8
 2518 027f 93       		.byte	0x93
 2519 0280 A9020000 		.4byte	0x2a9
 2520 0284 10       		.uleb128 0x10
 2521 0285 12810000 		.4byte	.LASF1269
 2522 0289 00       		.byte	0
 2523 028a 10       		.uleb128 0x10
 2524 028b 17670000 		.4byte	.LASF1270
 2525 028f 01       		.byte	0x1
 2526 0290 10       		.uleb128 0x10
 2527 0291 B2500000 		.4byte	.LASF1271
 2528 0295 02       		.byte	0x2
 2529 0296 10       		.uleb128 0x10
 2530 0297 B9350000 		.4byte	.LASF1272
 2531 029b 03       		.byte	0x3
 2532 029c 10       		.uleb128 0x10
 2533 029d 519C0000 		.4byte	.LASF1273
ARM GAS  /tmp/ccKti1Oq.s 			page 55


 2534 02a1 04       		.byte	0x4
 2535 02a2 10       		.uleb128 0x10
 2536 02a3 8A850000 		.4byte	.LASF1274
 2537 02a7 05       		.byte	0x5
 2538 02a8 00       		.byte	0
 2539 02a9 0F       		.uleb128 0xf
 2540 02aa 07       		.byte	0x7
 2541 02ab 01       		.byte	0x1
 2542 02ac 3B000000 		.4byte	0x3b
 2543 02b0 08       		.byte	0x8
 2544 02b1 A1       		.byte	0xa1
 2545 02b2 CF020000 		.4byte	0x2cf
 2546 02b6 10       		.uleb128 0x10
 2547 02b7 723C0000 		.4byte	.LASF1275
 2548 02bb 00       		.byte	0
 2549 02bc 10       		.uleb128 0x10
 2550 02bd 59990000 		.4byte	.LASF1276
 2551 02c1 01       		.byte	0x1
 2552 02c2 10       		.uleb128 0x10
 2553 02c3 90260000 		.4byte	.LASF1277
 2554 02c7 02       		.byte	0x2
 2555 02c8 10       		.uleb128 0x10
 2556 02c9 8D650000 		.4byte	.LASF1278
 2557 02cd 03       		.byte	0x3
 2558 02ce 00       		.byte	0
 2559 02cf 0F       		.uleb128 0xf
 2560 02d0 07       		.byte	0x7
 2561 02d1 01       		.byte	0x1
 2562 02d2 3B000000 		.4byte	0x3b
 2563 02d6 08       		.byte	0x8
 2564 02d7 AB       		.byte	0xab
 2565 02d8 E9020000 		.4byte	0x2e9
 2566 02dc 10       		.uleb128 0x10
 2567 02dd 66200000 		.4byte	.LASF1279
 2568 02e1 00       		.byte	0
 2569 02e2 10       		.uleb128 0x10
 2570 02e3 283B0000 		.4byte	.LASF1280
 2571 02e7 01       		.byte	0x1
 2572 02e8 00       		.byte	0
 2573 02e9 0F       		.uleb128 0xf
 2574 02ea 07       		.byte	0x7
 2575 02eb 01       		.byte	0x1
 2576 02ec 3B000000 		.4byte	0x3b
 2577 02f0 08       		.byte	0x8
 2578 02f1 B2       		.byte	0xb2
 2579 02f2 03030000 		.4byte	0x303
 2580 02f6 10       		.uleb128 0x10
 2581 02f7 E2820000 		.4byte	.LASF1281
 2582 02fb 00       		.byte	0
 2583 02fc 10       		.uleb128 0x10
 2584 02fd F5820000 		.4byte	.LASF1282
 2585 0301 01       		.byte	0x1
 2586 0302 00       		.byte	0
 2587 0303 0F       		.uleb128 0xf
 2588 0304 07       		.byte	0x7
 2589 0305 01       		.byte	0x1
 2590 0306 3B000000 		.4byte	0x3b
ARM GAS  /tmp/ccKti1Oq.s 			page 56


 2591 030a 08       		.byte	0x8
 2592 030b BA       		.byte	0xba
 2593 030c 29030000 		.4byte	0x329
 2594 0310 10       		.uleb128 0x10
 2595 0311 551C0000 		.4byte	.LASF1283
 2596 0315 00       		.byte	0
 2597 0316 10       		.uleb128 0x10
 2598 0317 9E510000 		.4byte	.LASF1284
 2599 031b 01       		.byte	0x1
 2600 031c 10       		.uleb128 0x10
 2601 031d 20300000 		.4byte	.LASF1285
 2602 0321 02       		.byte	0x2
 2603 0322 10       		.uleb128 0x10
 2604 0323 2FA10000 		.4byte	.LASF1286
 2605 0327 03       		.byte	0x3
 2606 0328 00       		.byte	0
 2607 0329 12       		.uleb128 0x12
 2608 032a 08       		.byte	0x8
 2609 032b 08       		.byte	0x8
 2610 032c CF       		.byte	0xcf
 2611 032d 56030000 		.4byte	0x356
 2612 0331 13       		.uleb128 0x13
 2613 0332 456B0000 		.4byte	.LASF1287
 2614 0336 08       		.byte	0x8
 2615 0337 D2       		.byte	0xd2
 2616 0338 9B000000 		.4byte	0x9b
 2617 033c 00       		.byte	0
 2618 033d 13       		.uleb128 0x13
 2619 033e 88600000 		.4byte	.LASF1288
 2620 0342 08       		.byte	0x8
 2621 0343 D6       		.byte	0xd6
 2622 0344 FC010000 		.4byte	0x1fc
 2623 0348 01       		.byte	0x1
 2624 0349 13       		.uleb128 0x13
 2625 034a 6F740000 		.4byte	.LASF1289
 2626 034e 08       		.byte	0x8
 2627 034f D7       		.byte	0xd7
 2628 0350 B6000000 		.4byte	0xb6
 2629 0354 04       		.byte	0x4
 2630 0355 00       		.byte	0
 2631 0356 03       		.uleb128 0x3
 2632 0357 528C0000 		.4byte	.LASF1290
 2633 035b 08       		.byte	0x8
 2634 035c D8       		.byte	0xd8
 2635 035d 29030000 		.4byte	0x329
 2636 0361 12       		.uleb128 0x12
 2637 0362 04       		.byte	0x4
 2638 0363 08       		.byte	0x8
 2639 0364 DB       		.byte	0xdb
 2640 0365 8E030000 		.4byte	0x38e
 2641 0369 13       		.uleb128 0x13
 2642 036a E07C0000 		.4byte	.LASF1291
 2643 036e 08       		.byte	0x8
 2644 036f DD       		.byte	0xdd
 2645 0370 9B000000 		.4byte	0x9b
 2646 0374 00       		.byte	0
 2647 0375 13       		.uleb128 0x13
ARM GAS  /tmp/ccKti1Oq.s 			page 57


 2648 0376 BA2F0000 		.4byte	.LASF1292
 2649 037a 08       		.byte	0x8
 2650 037b E1       		.byte	0xe1
 2651 037c 9B000000 		.4byte	0x9b
 2652 0380 01       		.byte	0x1
 2653 0381 13       		.uleb128 0x13
 2654 0382 88600000 		.4byte	.LASF1288
 2655 0386 08       		.byte	0x8
 2656 0387 E2       		.byte	0xe2
 2657 0388 8E030000 		.4byte	0x38e
 2658 038c 02       		.byte	0x2
 2659 038d 00       		.byte	0
 2660 038e 09       		.uleb128 0x9
 2661 038f 9B000000 		.4byte	0x9b
 2662 0393 9E030000 		.4byte	0x39e
 2663 0397 0A       		.uleb128 0xa
 2664 0398 94000000 		.4byte	0x94
 2665 039c 01       		.byte	0x1
 2666 039d 00       		.byte	0
 2667 039e 03       		.uleb128 0x3
 2668 039f 1C790000 		.4byte	.LASF1293
 2669 03a3 08       		.byte	0x8
 2670 03a4 E3       		.byte	0xe3
 2671 03a5 61030000 		.4byte	0x361
 2672 03a9 12       		.uleb128 0x12
 2673 03aa 0C       		.byte	0xc
 2674 03ab 08       		.byte	0x8
 2675 03ac E6       		.byte	0xe6
 2676 03ad 06040000 		.4byte	0x406
 2677 03b1 13       		.uleb128 0x13
 2678 03b2 2D960000 		.4byte	.LASF1294
 2679 03b6 08       		.byte	0x8
 2680 03b7 E7       		.byte	0xe7
 2681 03b8 9B000000 		.4byte	0x9b
 2682 03bc 00       		.byte	0
 2683 03bd 13       		.uleb128 0x13
 2684 03be 965C0000 		.4byte	.LASF1295
 2685 03c2 08       		.byte	0x8
 2686 03c3 E9       		.byte	0xe9
 2687 03c4 9B000000 		.4byte	0x9b
 2688 03c8 01       		.byte	0x1
 2689 03c9 13       		.uleb128 0x13
 2690 03ca 1E8F0000 		.4byte	.LASF1296
 2691 03ce 08       		.byte	0x8
 2692 03cf ED       		.byte	0xed
 2693 03d0 9B000000 		.4byte	0x9b
 2694 03d4 02       		.byte	0x2
 2695 03d5 13       		.uleb128 0x13
 2696 03d6 D1560000 		.4byte	.LASF1297
 2697 03da 08       		.byte	0x8
 2698 03db F1       		.byte	0xf1
 2699 03dc 9B000000 		.4byte	0x9b
 2700 03e0 03       		.byte	0x3
 2701 03e1 13       		.uleb128 0x13
 2702 03e2 205D0000 		.4byte	.LASF1298
 2703 03e6 08       		.byte	0x8
 2704 03e7 F6       		.byte	0xf6
ARM GAS  /tmp/ccKti1Oq.s 			page 58


 2705 03e8 9B000000 		.4byte	0x9b
 2706 03ec 04       		.byte	0x4
 2707 03ed 13       		.uleb128 0x13
 2708 03ee 88600000 		.4byte	.LASF1288
 2709 03f2 08       		.byte	0x8
 2710 03f3 FC       		.byte	0xfc
 2711 03f4 FC010000 		.4byte	0x1fc
 2712 03f8 05       		.byte	0x5
 2713 03f9 13       		.uleb128 0x13
 2714 03fa 07570000 		.4byte	.LASF1299
 2715 03fe 08       		.byte	0x8
 2716 03ff FD       		.byte	0xfd
 2717 0400 B6000000 		.4byte	0xb6
 2718 0404 08       		.byte	0x8
 2719 0405 00       		.byte	0
 2720 0406 03       		.uleb128 0x3
 2721 0407 08150000 		.4byte	.LASF1300
 2722 040b 08       		.byte	0x8
 2723 040c FE       		.byte	0xfe
 2724 040d A9030000 		.4byte	0x3a9
 2725 0411 0B       		.uleb128 0xb
 2726 0412 04       		.byte	0x4
 2727 0413 08       		.byte	0x8
 2728 0414 0201     		.2byte	0x102
 2729 0416 4F040000 		.4byte	0x44f
 2730 041a 0D       		.uleb128 0xd
 2731 041b 65380000 		.4byte	.LASF1301
 2732 041f 08       		.byte	0x8
 2733 0420 0301     		.2byte	0x103
 2734 0422 9B000000 		.4byte	0x9b
 2735 0426 00       		.byte	0
 2736 0427 0D       		.uleb128 0xd
 2737 0428 1E5A0000 		.4byte	.LASF1302
 2738 042c 08       		.byte	0x8
 2739 042d 0501     		.2byte	0x105
 2740 042f 9B000000 		.4byte	0x9b
 2741 0433 01       		.byte	0x1
 2742 0434 0D       		.uleb128 0xd
 2743 0435 DC790000 		.4byte	.LASF1303
 2744 0439 08       		.byte	0x8
 2745 043a 0901     		.2byte	0x109
 2746 043c 9B000000 		.4byte	0x9b
 2747 0440 02       		.byte	0x2
 2748 0441 0D       		.uleb128 0xd
 2749 0442 23010000 		.4byte	.LASF1304
 2750 0446 08       		.byte	0x8
 2751 0447 0D01     		.2byte	0x10d
 2752 0449 9B000000 		.4byte	0x9b
 2753 044d 03       		.byte	0x3
 2754 044e 00       		.byte	0
 2755 044f 0E       		.uleb128 0xe
 2756 0450 C78D0000 		.4byte	.LASF1305
 2757 0454 08       		.byte	0x8
 2758 0455 1201     		.2byte	0x112
 2759 0457 11040000 		.4byte	0x411
 2760 045b 14       		.uleb128 0x14
 2761 045c 66780000 		.4byte	.LASF1308
ARM GAS  /tmp/ccKti1Oq.s 			page 59


 2762 0460 01       		.byte	0x1
 2763 0461 F801     		.2byte	0x1f8
 2764 0463 00000000 		.4byte	.LFB71
 2765 0467 74000000 		.4byte	.LFE71-.LFB71
 2766 046b 01       		.uleb128 0x1
 2767 046c 9C       		.byte	0x9c
 2768 046d 9F040000 		.4byte	0x49f
 2769 0471 15       		.uleb128 0x15
 2770 0472 EE7C0000 		.4byte	.LASF1310
 2771 0476 01       		.byte	0x1
 2772 0477 F801     		.2byte	0x1f8
 2773 0479 B6000000 		.4byte	0xb6
 2774 047d 02       		.uleb128 0x2
 2775 047e 91       		.byte	0x91
 2776 047f 5C       		.sleb128 -36
 2777 0480 16       		.uleb128 0x16
 2778 0481 3D4D0000 		.4byte	.LASF1306
 2779 0485 01       		.byte	0x1
 2780 0486 FA01     		.2byte	0x1fa
 2781 0488 56030000 		.4byte	0x356
 2782 048c 02       		.uleb128 0x2
 2783 048d 91       		.byte	0x91
 2784 048e 70       		.sleb128 -16
 2785 048f 16       		.uleb128 0x16
 2786 0490 47820000 		.4byte	.LASF1307
 2787 0494 01       		.byte	0x1
 2788 0495 FB01     		.2byte	0x1fb
 2789 0497 06040000 		.4byte	0x406
 2790 049b 02       		.uleb128 0x2
 2791 049c 91       		.byte	0x91
 2792 049d 64       		.sleb128 -28
 2793 049e 00       		.byte	0
 2794 049f 14       		.uleb128 0x14
 2795 04a0 236F0000 		.4byte	.LASF1309
 2796 04a4 01       		.byte	0x1
 2797 04a5 DA01     		.2byte	0x1da
 2798 04a7 00000000 		.4byte	.LFB70
 2799 04ab 76000000 		.4byte	.LFE70-.LFB70
 2800 04af 01       		.uleb128 0x1
 2801 04b0 9C       		.byte	0x9c
 2802 04b1 E3040000 		.4byte	0x4e3
 2803 04b5 15       		.uleb128 0x15
 2804 04b6 EE7C0000 		.4byte	.LASF1310
 2805 04ba 01       		.byte	0x1
 2806 04bb DA01     		.2byte	0x1da
 2807 04bd B6000000 		.4byte	0xb6
 2808 04c1 02       		.uleb128 0x2
 2809 04c2 91       		.byte	0x91
 2810 04c3 5C       		.sleb128 -36
 2811 04c4 16       		.uleb128 0x16
 2812 04c5 3D4D0000 		.4byte	.LASF1306
 2813 04c9 01       		.byte	0x1
 2814 04ca DC01     		.2byte	0x1dc
 2815 04cc 56030000 		.4byte	0x356
 2816 04d0 02       		.uleb128 0x2
 2817 04d1 91       		.byte	0x91
 2818 04d2 70       		.sleb128 -16
ARM GAS  /tmp/ccKti1Oq.s 			page 60


 2819 04d3 16       		.uleb128 0x16
 2820 04d4 47820000 		.4byte	.LASF1307
 2821 04d8 01       		.byte	0x1
 2822 04d9 DD01     		.2byte	0x1dd
 2823 04db 06040000 		.4byte	0x406
 2824 04df 02       		.uleb128 0x2
 2825 04e0 91       		.byte	0x91
 2826 04e1 64       		.sleb128 -28
 2827 04e2 00       		.byte	0
 2828 04e3 17       		.uleb128 0x17
 2829 04e4 BD5C0000 		.4byte	.LASF1328
 2830 04e8 01       		.byte	0x1
 2831 04e9 CA01     		.2byte	0x1ca
 2832 04eb B6000000 		.4byte	0xb6
 2833 04ef 00000000 		.4byte	.LFB69
 2834 04f3 74000000 		.4byte	.LFE69-.LFB69
 2835 04f7 01       		.uleb128 0x1
 2836 04f8 9C       		.byte	0x9c
 2837 04f9 1C050000 		.4byte	0x51c
 2838 04fd 15       		.uleb128 0x15
 2839 04fe 88810000 		.4byte	.LASF1311
 2840 0502 01       		.byte	0x1
 2841 0503 CA01     		.2byte	0x1ca
 2842 0505 1C050000 		.4byte	0x51c
 2843 0509 02       		.uleb128 0x2
 2844 050a 91       		.byte	0x91
 2845 050b 74       		.sleb128 -12
 2846 050c 15       		.uleb128 0x15
 2847 050d 65380000 		.4byte	.LASF1301
 2848 0511 01       		.byte	0x1
 2849 0512 CA01     		.2byte	0x1ca
 2850 0514 9B000000 		.4byte	0x9b
 2851 0518 02       		.uleb128 0x2
 2852 0519 91       		.byte	0x91
 2853 051a 73       		.sleb128 -13
 2854 051b 00       		.byte	0
 2855 051c 18       		.uleb128 0x18
 2856 051d 04       		.byte	0x4
 2857 051e F0010000 		.4byte	0x1f0
 2858 0522 14       		.uleb128 0x14
 2859 0523 16160000 		.4byte	.LASF1312
 2860 0527 01       		.byte	0x1
 2861 0528 B201     		.2byte	0x1b2
 2862 052a 00000000 		.4byte	.LFB68
 2863 052e DC000000 		.4byte	.LFE68-.LFB68
 2864 0532 01       		.uleb128 0x1
 2865 0533 9C       		.byte	0x9c
 2866 0534 66050000 		.4byte	0x566
 2867 0538 15       		.uleb128 0x15
 2868 0539 88810000 		.4byte	.LASF1311
 2869 053d 01       		.byte	0x1
 2870 053e B201     		.2byte	0x1b2
 2871 0540 1C050000 		.4byte	0x51c
 2872 0544 02       		.uleb128 0x2
 2873 0545 91       		.byte	0x91
 2874 0546 6C       		.sleb128 -20
 2875 0547 15       		.uleb128 0x15
ARM GAS  /tmp/ccKti1Oq.s 			page 61


 2876 0548 129F0000 		.4byte	.LASF1313
 2877 054c 01       		.byte	0x1
 2878 054d B201     		.2byte	0x1b2
 2879 054f 66050000 		.4byte	0x566
 2880 0553 02       		.uleb128 0x2
 2881 0554 91       		.byte	0x91
 2882 0555 68       		.sleb128 -24
 2883 0556 16       		.uleb128 0x16
 2884 0557 2D310000 		.4byte	.LASF1314
 2885 055b 01       		.byte	0x1
 2886 055c B401     		.2byte	0x1b4
 2887 055e B6000000 		.4byte	0xb6
 2888 0562 02       		.uleb128 0x2
 2889 0563 91       		.byte	0x91
 2890 0564 74       		.sleb128 -12
 2891 0565 00       		.byte	0
 2892 0566 18       		.uleb128 0x18
 2893 0567 04       		.byte	0x4
 2894 0568 4F040000 		.4byte	0x44f
 2895 056c 14       		.uleb128 0x14
 2896 056d 098B0000 		.4byte	.LASF1315
 2897 0571 01       		.byte	0x1
 2898 0572 8301     		.2byte	0x183
 2899 0574 00000000 		.4byte	.LFB67
 2900 0578 5C010000 		.4byte	.LFE67-.LFB67
 2901 057c 01       		.uleb128 0x1
 2902 057d 9C       		.byte	0x9c
 2903 057e B0050000 		.4byte	0x5b0
 2904 0582 15       		.uleb128 0x15
 2905 0583 88810000 		.4byte	.LASF1311
 2906 0587 01       		.byte	0x1
 2907 0588 8301     		.2byte	0x183
 2908 058a 1C050000 		.4byte	0x51c
 2909 058e 02       		.uleb128 0x2
 2910 058f 91       		.byte	0x91
 2911 0590 6C       		.sleb128 -20
 2912 0591 15       		.uleb128 0x15
 2913 0592 47820000 		.4byte	.LASF1307
 2914 0596 01       		.byte	0x1
 2915 0597 8301     		.2byte	0x183
 2916 0599 B0050000 		.4byte	0x5b0
 2917 059d 02       		.uleb128 0x2
 2918 059e 91       		.byte	0x91
 2919 059f 68       		.sleb128 -24
 2920 05a0 16       		.uleb128 0x16
 2921 05a1 2D310000 		.4byte	.LASF1314
 2922 05a5 01       		.byte	0x1
 2923 05a6 8501     		.2byte	0x185
 2924 05a8 B6000000 		.4byte	0xb6
 2925 05ac 02       		.uleb128 0x2
 2926 05ad 91       		.byte	0x91
 2927 05ae 74       		.sleb128 -12
 2928 05af 00       		.byte	0
 2929 05b0 18       		.uleb128 0x18
 2930 05b1 04       		.byte	0x4
 2931 05b2 06040000 		.4byte	0x406
 2932 05b6 14       		.uleb128 0x14
ARM GAS  /tmp/ccKti1Oq.s 			page 62


 2933 05b7 43500000 		.4byte	.LASF1316
 2934 05bb 01       		.byte	0x1
 2935 05bc 6901     		.2byte	0x169
 2936 05be 00000000 		.4byte	.LFB66
 2937 05c2 64000000 		.4byte	.LFE66-.LFB66
 2938 05c6 01       		.uleb128 0x1
 2939 05c7 9C       		.byte	0x9c
 2940 05c8 DC050000 		.4byte	0x5dc
 2941 05cc 15       		.uleb128 0x15
 2942 05cd 88810000 		.4byte	.LASF1311
 2943 05d1 01       		.byte	0x1
 2944 05d2 6901     		.2byte	0x169
 2945 05d4 1C050000 		.4byte	0x51c
 2946 05d8 02       		.uleb128 0x2
 2947 05d9 91       		.byte	0x91
 2948 05da 74       		.sleb128 -12
 2949 05db 00       		.byte	0
 2950 05dc 14       		.uleb128 0x14
 2951 05dd 13020000 		.4byte	.LASF1317
 2952 05e1 01       		.byte	0x1
 2953 05e2 5501     		.2byte	0x155
 2954 05e4 00000000 		.4byte	.LFB65
 2955 05e8 70000000 		.4byte	.LFE65-.LFB65
 2956 05ec 01       		.uleb128 0x1
 2957 05ed 9C       		.byte	0x9c
 2958 05ee 11060000 		.4byte	0x611
 2959 05f2 15       		.uleb128 0x15
 2960 05f3 88810000 		.4byte	.LASF1311
 2961 05f7 01       		.byte	0x1
 2962 05f8 5501     		.2byte	0x155
 2963 05fa 1C050000 		.4byte	0x51c
 2964 05fe 02       		.uleb128 0x2
 2965 05ff 91       		.byte	0x91
 2966 0600 74       		.sleb128 -12
 2967 0601 15       		.uleb128 0x15
 2968 0602 215E0000 		.4byte	.LASF1318
 2969 0606 01       		.byte	0x1
 2970 0607 5501     		.2byte	0x155
 2971 0609 65020000 		.4byte	0x265
 2972 060d 02       		.uleb128 0x2
 2973 060e 91       		.byte	0x91
 2974 060f 73       		.sleb128 -13
 2975 0610 00       		.byte	0
 2976 0611 14       		.uleb128 0x14
 2977 0612 03890000 		.4byte	.LASF1319
 2978 0616 01       		.byte	0x1
 2979 0617 3801     		.2byte	0x138
 2980 0619 00000000 		.4byte	.LFB64
 2981 061d 9C000000 		.4byte	.LFE64-.LFB64
 2982 0621 01       		.uleb128 0x1
 2983 0622 9C       		.byte	0x9c
 2984 0623 37060000 		.4byte	0x637
 2985 0627 15       		.uleb128 0x15
 2986 0628 88810000 		.4byte	.LASF1311
 2987 062c 01       		.byte	0x1
 2988 062d 3801     		.2byte	0x138
 2989 062f 1C050000 		.4byte	0x51c
ARM GAS  /tmp/ccKti1Oq.s 			page 63


 2990 0633 02       		.uleb128 0x2
 2991 0634 91       		.byte	0x91
 2992 0635 74       		.sleb128 -12
 2993 0636 00       		.byte	0
 2994 0637 19       		.uleb128 0x19
 2995 0638 2F2F0000 		.4byte	.LASF1320
 2996 063c 01       		.byte	0x1
 2997 063d F0       		.byte	0xf0
 2998 063e 00000000 		.4byte	.LFB63
 2999 0642 70010000 		.4byte	.LFE63-.LFB63
 3000 0646 01       		.uleb128 0x1
 3001 0647 9C       		.byte	0x9c
 3002 0648 A1060000 		.4byte	0x6a1
 3003 064c 1A       		.uleb128 0x1a
 3004 064d 88810000 		.4byte	.LASF1311
 3005 0651 01       		.byte	0x1
 3006 0652 F0       		.byte	0xf0
 3007 0653 1C050000 		.4byte	0x51c
 3008 0657 02       		.uleb128 0x2
 3009 0658 91       		.byte	0x91
 3010 0659 64       		.sleb128 -28
 3011 065a 1A       		.uleb128 0x1a
 3012 065b 05870000 		.4byte	.LASF1321
 3013 065f 01       		.byte	0x1
 3014 0660 F0       		.byte	0xf0
 3015 0661 9B000000 		.4byte	0x9b
 3016 0665 02       		.uleb128 0x2
 3017 0666 91       		.byte	0x91
 3018 0667 63       		.sleb128 -29
 3019 0668 1A       		.uleb128 0x1a
 3020 0669 3D4D0000 		.4byte	.LASF1306
 3021 066d 01       		.byte	0x1
 3022 066e F0       		.byte	0xf0
 3023 066f A1060000 		.4byte	0x6a1
 3024 0673 02       		.uleb128 0x2
 3025 0674 91       		.byte	0x91
 3026 0675 5C       		.sleb128 -36
 3027 0676 1B       		.uleb128 0x1b
 3028 0677 33310000 		.4byte	.LASF1322
 3029 067b 01       		.byte	0x1
 3030 067c F2       		.byte	0xf2
 3031 067d A3060000 		.4byte	0x6a3
 3032 0681 02       		.uleb128 0x2
 3033 0682 91       		.byte	0x91
 3034 0683 6C       		.sleb128 -20
 3035 0684 1B       		.uleb128 0x1b
 3036 0685 69160000 		.4byte	.LASF1323
 3037 0689 01       		.byte	0x1
 3038 068a F3       		.byte	0xf3
 3039 068b A9060000 		.4byte	0x6a9
 3040 068f 02       		.uleb128 0x2
 3041 0690 91       		.byte	0x91
 3042 0691 70       		.sleb128 -16
 3043 0692 1B       		.uleb128 0x1b
 3044 0693 2D310000 		.4byte	.LASF1314
 3045 0697 01       		.byte	0x1
 3046 0698 F4       		.byte	0xf4
ARM GAS  /tmp/ccKti1Oq.s 			page 64


 3047 0699 B6000000 		.4byte	0xb6
 3048 069d 02       		.uleb128 0x2
 3049 069e 91       		.byte	0x91
 3050 069f 74       		.sleb128 -12
 3051 06a0 00       		.byte	0
 3052 06a1 1C       		.uleb128 0x1c
 3053 06a2 04       		.byte	0x4
 3054 06a3 18       		.uleb128 0x18
 3055 06a4 04       		.byte	0x4
 3056 06a5 56030000 		.4byte	0x356
 3057 06a9 18       		.uleb128 0x18
 3058 06aa 04       		.byte	0x4
 3059 06ab 9E030000 		.4byte	0x39e
 3060 06af 1D       		.uleb128 0x1d
 3061 06b0 363C0000 		.4byte	.LASF1324
 3062 06b4 01       		.byte	0x1
 3063 06b5 D5       		.byte	0xd5
 3064 06b6 00000000 		.4byte	.LFB62
 3065 06ba 38000000 		.4byte	.LFE62-.LFB62
 3066 06be 01       		.uleb128 0x1
 3067 06bf 9C       		.byte	0x9c
 3068 06c0 15070000 		.4byte	0x715
 3069 06c4 1A       		.uleb128 0x1a
 3070 06c5 05870000 		.4byte	.LASF1321
 3071 06c9 01       		.byte	0x1
 3072 06ca D5       		.byte	0xd5
 3073 06cb 9B000000 		.4byte	0x9b
 3074 06cf 02       		.uleb128 0x2
 3075 06d0 91       		.byte	0x91
 3076 06d1 6F       		.sleb128 -17
 3077 06d2 1A       		.uleb128 0x1a
 3078 06d3 3D4D0000 		.4byte	.LASF1306
 3079 06d7 01       		.byte	0x1
 3080 06d8 D5       		.byte	0xd5
 3081 06d9 A1060000 		.4byte	0x6a1
 3082 06dd 02       		.uleb128 0x2
 3083 06de 91       		.byte	0x91
 3084 06df 68       		.sleb128 -24
 3085 06e0 1E       		.uleb128 0x1e
 3086 06e1 12000000 		.4byte	.LBB2
 3087 06e5 10000000 		.4byte	.LBE2-.LBB2
 3088 06e9 FC060000 		.4byte	0x6fc
 3089 06ed 1B       		.uleb128 0x1b
 3090 06ee 33310000 		.4byte	.LASF1322
 3091 06f2 01       		.byte	0x1
 3092 06f3 D9       		.byte	0xd9
 3093 06f4 A3060000 		.4byte	0x6a3
 3094 06f8 02       		.uleb128 0x2
 3095 06f9 91       		.byte	0x91
 3096 06fa 70       		.sleb128 -16
 3097 06fb 00       		.byte	0
 3098 06fc 1F       		.uleb128 0x1f
 3099 06fd 24000000 		.4byte	.LBB3
 3100 0701 0A000000 		.4byte	.LBE3-.LBB3
 3101 0705 1B       		.uleb128 0x1b
 3102 0706 69160000 		.4byte	.LASF1323
 3103 070a 01       		.byte	0x1
ARM GAS  /tmp/ccKti1Oq.s 			page 65


 3104 070b DF       		.byte	0xdf
 3105 070c A9060000 		.4byte	0x6a9
 3106 0710 02       		.uleb128 0x2
 3107 0711 91       		.byte	0x91
 3108 0712 74       		.sleb128 -12
 3109 0713 00       		.byte	0
 3110 0714 00       		.byte	0
 3111 0715 19       		.uleb128 0x19
 3112 0716 E0130000 		.4byte	.LASF1325
 3113 071a 01       		.byte	0x1
 3114 071b C3       		.byte	0xc3
 3115 071c 00000000 		.4byte	.LFB61
 3116 0720 8C000000 		.4byte	.LFE61-.LFB61
 3117 0724 01       		.uleb128 0x1
 3118 0725 9C       		.byte	0x9c
 3119 0726 47070000 		.4byte	0x747
 3120 072a 1A       		.uleb128 0x1a
 3121 072b 88810000 		.4byte	.LASF1311
 3122 072f 01       		.byte	0x1
 3123 0730 C3       		.byte	0xc3
 3124 0731 1C050000 		.4byte	0x51c
 3125 0735 02       		.uleb128 0x2
 3126 0736 91       		.byte	0x91
 3127 0737 74       		.sleb128 -12
 3128 0738 1A       		.uleb128 0x1a
 3129 0739 53170000 		.4byte	.LASF1326
 3130 073d 01       		.byte	0x1
 3131 073e C3       		.byte	0xc3
 3132 073f 9B000000 		.4byte	0x9b
 3133 0743 02       		.uleb128 0x2
 3134 0744 91       		.byte	0x91
 3135 0745 73       		.sleb128 -13
 3136 0746 00       		.byte	0
 3137 0747 19       		.uleb128 0x19
 3138 0748 DD300000 		.4byte	.LASF1327
 3139 074c 01       		.byte	0x1
 3140 074d B6       		.byte	0xb6
 3141 074e 00000000 		.4byte	.LFB60
 3142 0752 8C000000 		.4byte	.LFE60-.LFB60
 3143 0756 01       		.uleb128 0x1
 3144 0757 9C       		.byte	0x9c
 3145 0758 79070000 		.4byte	0x779
 3146 075c 1A       		.uleb128 0x1a
 3147 075d 88810000 		.4byte	.LASF1311
 3148 0761 01       		.byte	0x1
 3149 0762 B6       		.byte	0xb6
 3150 0763 1C050000 		.4byte	0x51c
 3151 0767 02       		.uleb128 0x2
 3152 0768 91       		.byte	0x91
 3153 0769 74       		.sleb128 -12
 3154 076a 1A       		.uleb128 0x1a
 3155 076b 53170000 		.4byte	.LASF1326
 3156 076f 01       		.byte	0x1
 3157 0770 B6       		.byte	0xb6
 3158 0771 9B000000 		.4byte	0x9b
 3159 0775 02       		.uleb128 0x2
 3160 0776 91       		.byte	0x91
ARM GAS  /tmp/ccKti1Oq.s 			page 66


 3161 0777 73       		.sleb128 -13
 3162 0778 00       		.byte	0
 3163 0779 20       		.uleb128 0x20
 3164 077a 26940000 		.4byte	.LASF1329
 3165 077e 01       		.byte	0x1
 3166 077f A7       		.byte	0xa7
 3167 0780 40020000 		.4byte	0x240
 3168 0784 00000000 		.4byte	.LFB59
 3169 0788 9C000000 		.4byte	.LFE59-.LFB59
 3170 078c 01       		.uleb128 0x1
 3171 078d 9C       		.byte	0x9c
 3172 078e BD070000 		.4byte	0x7bd
 3173 0792 1A       		.uleb128 0x1a
 3174 0793 88810000 		.4byte	.LASF1311
 3175 0797 01       		.byte	0x1
 3176 0798 A7       		.byte	0xa7
 3177 0799 1C050000 		.4byte	0x51c
 3178 079d 02       		.uleb128 0x2
 3179 079e 91       		.byte	0x91
 3180 079f 6C       		.sleb128 -20
 3181 07a0 1A       		.uleb128 0x1a
 3182 07a1 53170000 		.4byte	.LASF1326
 3183 07a5 01       		.byte	0x1
 3184 07a6 A7       		.byte	0xa7
 3185 07a7 9B000000 		.4byte	0x9b
 3186 07ab 02       		.uleb128 0x2
 3187 07ac 91       		.byte	0x91
 3188 07ad 6B       		.sleb128 -21
 3189 07ae 1B       		.uleb128 0x1b
 3190 07af 8E9C0000 		.4byte	.LASF1330
 3191 07b3 01       		.byte	0x1
 3192 07b4 AB       		.byte	0xab
 3193 07b5 9B000000 		.4byte	0x9b
 3194 07b9 02       		.uleb128 0x2
 3195 07ba 91       		.byte	0x91
 3196 07bb 77       		.sleb128 -9
 3197 07bc 00       		.byte	0
 3198 07bd 20       		.uleb128 0x20
 3199 07be 855C0000 		.4byte	.LASF1331
 3200 07c2 01       		.byte	0x1
 3201 07c3 94       		.byte	0x94
 3202 07c4 40020000 		.4byte	0x240
 3203 07c8 00000000 		.4byte	.LFB58
 3204 07cc 98000000 		.4byte	.LFE58-.LFB58
 3205 07d0 01       		.uleb128 0x1
 3206 07d1 9C       		.byte	0x9c
 3207 07d2 01080000 		.4byte	0x801
 3208 07d6 1A       		.uleb128 0x1a
 3209 07d7 88810000 		.4byte	.LASF1311
 3210 07db 01       		.byte	0x1
 3211 07dc 94       		.byte	0x94
 3212 07dd 1C050000 		.4byte	0x51c
 3213 07e1 02       		.uleb128 0x2
 3214 07e2 91       		.byte	0x91
 3215 07e3 6C       		.sleb128 -20
 3216 07e4 1A       		.uleb128 0x1a
 3217 07e5 53170000 		.4byte	.LASF1326
ARM GAS  /tmp/ccKti1Oq.s 			page 67


 3218 07e9 01       		.byte	0x1
 3219 07ea 94       		.byte	0x94
 3220 07eb 9B000000 		.4byte	0x9b
 3221 07ef 02       		.uleb128 0x2
 3222 07f0 91       		.byte	0x91
 3223 07f1 6B       		.sleb128 -21
 3224 07f2 1B       		.uleb128 0x1b
 3225 07f3 8E9C0000 		.4byte	.LASF1330
 3226 07f7 01       		.byte	0x1
 3227 07f8 98       		.byte	0x98
 3228 07f9 9B000000 		.4byte	0x9b
 3229 07fd 02       		.uleb128 0x2
 3230 07fe 91       		.byte	0x91
 3231 07ff 77       		.sleb128 -9
 3232 0800 00       		.byte	0
 3233 0801 21       		.uleb128 0x21
 3234 0802 B7490000 		.4byte	.LASF1332
 3235 0806 01       		.byte	0x1
 3236 0807 6A       		.byte	0x6a
 3237 0808 B6000000 		.4byte	0xb6
 3238 080c 00000000 		.4byte	.LFB57
 3239 0810 5C000000 		.4byte	.LFE57-.LFB57
 3240 0814 01       		.uleb128 0x1
 3241 0815 9C       		.byte	0x9c
 3242 0816 37080000 		.4byte	0x837
 3243 081a 1A       		.uleb128 0x1a
 3244 081b 88810000 		.4byte	.LASF1311
 3245 081f 01       		.byte	0x1
 3246 0820 6A       		.byte	0x6a
 3247 0821 1C050000 		.4byte	0x51c
 3248 0825 02       		.uleb128 0x2
 3249 0826 91       		.byte	0x91
 3250 0827 6C       		.sleb128 -20
 3251 0828 1B       		.uleb128 0x1b
 3252 0829 D8060000 		.4byte	.LASF1333
 3253 082d 01       		.byte	0x1
 3254 082e 6C       		.byte	0x6c
 3255 082f B6000000 		.4byte	0xb6
 3256 0833 02       		.uleb128 0x2
 3257 0834 91       		.byte	0x91
 3258 0835 74       		.sleb128 -12
 3259 0836 00       		.byte	0
 3260 0837 20       		.uleb128 0x20
 3261 0838 75780000 		.4byte	.LASF1334
 3262 083c 01       		.byte	0x1
 3263 083d 59       		.byte	0x59
 3264 083e B6000000 		.4byte	0xb6
 3265 0842 00000000 		.4byte	.LFB56
 3266 0846 58000000 		.4byte	.LFE56-.LFB56
 3267 084a 01       		.uleb128 0x1
 3268 084b 9C       		.byte	0x9c
 3269 084c 7B080000 		.4byte	0x87b
 3270 0850 1A       		.uleb128 0x1a
 3271 0851 C0300000 		.4byte	.LASF1335
 3272 0855 01       		.byte	0x1
 3273 0856 59       		.byte	0x59
 3274 0857 B6000000 		.4byte	0xb6
ARM GAS  /tmp/ccKti1Oq.s 			page 68


 3275 085b 02       		.uleb128 0x2
 3276 085c 91       		.byte	0x91
 3277 085d 64       		.sleb128 -28
 3278 085e 1A       		.uleb128 0x1a
 3279 085f 69030000 		.4byte	.LASF1336
 3280 0863 01       		.byte	0x1
 3281 0864 59       		.byte	0x59
 3282 0865 B6000000 		.4byte	0xb6
 3283 0869 02       		.uleb128 0x2
 3284 086a 91       		.byte	0x91
 3285 086b 60       		.sleb128 -32
 3286 086c 1B       		.uleb128 0x1b
 3287 086d 9F3F0000 		.4byte	.LASF1337
 3288 0871 01       		.byte	0x1
 3289 0872 5B       		.byte	0x5b
 3290 0873 CB000000 		.4byte	0xcb
 3291 0877 02       		.uleb128 0x2
 3292 0878 91       		.byte	0x91
 3293 0879 68       		.sleb128 -24
 3294 087a 00       		.byte	0
 3295 087b 22       		.uleb128 0x22
 3296 087c CE4C0000 		.4byte	.LASF1338
 3297 0880 01       		.byte	0x1
 3298 0881 3A       		.byte	0x3a
 3299 0882 B6000000 		.4byte	0xb6
 3300 0886 00000000 		.4byte	.LFB55
 3301 088a 56000000 		.4byte	.LFE55-.LFB55
 3302 088e 01       		.uleb128 0x1
 3303 088f 9C       		.byte	0x9c
 3304 0890 1A       		.uleb128 0x1a
 3305 0891 C0300000 		.4byte	.LASF1335
 3306 0895 01       		.byte	0x1
 3307 0896 3A       		.byte	0x3a
 3308 0897 B6000000 		.4byte	0xb6
 3309 089b 02       		.uleb128 0x2
 3310 089c 91       		.byte	0x91
 3311 089d 6C       		.sleb128 -20
 3312 089e 1B       		.uleb128 0x1b
 3313 089f 9F3F0000 		.4byte	.LASF1337
 3314 08a3 01       		.byte	0x1
 3315 08a4 3C       		.byte	0x3c
 3316 08a5 B6000000 		.4byte	0xb6
 3317 08a9 02       		.uleb128 0x2
 3318 08aa 91       		.byte	0x91
 3319 08ab 74       		.sleb128 -12
 3320 08ac 00       		.byte	0
 3321 08ad 00       		.byte	0
 3322              		.section	.debug_abbrev,"",%progbits
 3323              	.Ldebug_abbrev0:
 3324 0000 01       		.uleb128 0x1
 3325 0001 11       		.uleb128 0x11
 3326 0002 01       		.byte	0x1
 3327 0003 25       		.uleb128 0x25
 3328 0004 0E       		.uleb128 0xe
 3329 0005 13       		.uleb128 0x13
 3330 0006 0B       		.uleb128 0xb
 3331 0007 03       		.uleb128 0x3
ARM GAS  /tmp/ccKti1Oq.s 			page 69


 3332 0008 0E       		.uleb128 0xe
 3333 0009 1B       		.uleb128 0x1b
 3334 000a 0E       		.uleb128 0xe
 3335 000b 55       		.uleb128 0x55
 3336 000c 17       		.uleb128 0x17
 3337 000d 11       		.uleb128 0x11
 3338 000e 01       		.uleb128 0x1
 3339 000f 10       		.uleb128 0x10
 3340 0010 17       		.uleb128 0x17
 3341 0011 9942     		.uleb128 0x2119
 3342 0013 17       		.uleb128 0x17
 3343 0014 00       		.byte	0
 3344 0015 00       		.byte	0
 3345 0016 02       		.uleb128 0x2
 3346 0017 24       		.uleb128 0x24
 3347 0018 00       		.byte	0
 3348 0019 0B       		.uleb128 0xb
 3349 001a 0B       		.uleb128 0xb
 3350 001b 3E       		.uleb128 0x3e
 3351 001c 0B       		.uleb128 0xb
 3352 001d 03       		.uleb128 0x3
 3353 001e 0E       		.uleb128 0xe
 3354 001f 00       		.byte	0
 3355 0020 00       		.byte	0
 3356 0021 03       		.uleb128 0x3
 3357 0022 16       		.uleb128 0x16
 3358 0023 00       		.byte	0
 3359 0024 03       		.uleb128 0x3
 3360 0025 0E       		.uleb128 0xe
 3361 0026 3A       		.uleb128 0x3a
 3362 0027 0B       		.uleb128 0xb
 3363 0028 3B       		.uleb128 0x3b
 3364 0029 0B       		.uleb128 0xb
 3365 002a 49       		.uleb128 0x49
 3366 002b 13       		.uleb128 0x13
 3367 002c 00       		.byte	0
 3368 002d 00       		.byte	0
 3369 002e 04       		.uleb128 0x4
 3370 002f 24       		.uleb128 0x24
 3371 0030 00       		.byte	0
 3372 0031 0B       		.uleb128 0xb
 3373 0032 0B       		.uleb128 0xb
 3374 0033 3E       		.uleb128 0x3e
 3375 0034 0B       		.uleb128 0xb
 3376 0035 03       		.uleb128 0x3
 3377 0036 08       		.uleb128 0x8
 3378 0037 00       		.byte	0
 3379 0038 00       		.byte	0
 3380 0039 05       		.uleb128 0x5
 3381 003a 35       		.uleb128 0x35
 3382 003b 00       		.byte	0
 3383 003c 49       		.uleb128 0x49
 3384 003d 13       		.uleb128 0x13
 3385 003e 00       		.byte	0
 3386 003f 00       		.byte	0
 3387 0040 06       		.uleb128 0x6
 3388 0041 26       		.uleb128 0x26
ARM GAS  /tmp/ccKti1Oq.s 			page 70


 3389 0042 00       		.byte	0
 3390 0043 49       		.uleb128 0x49
 3391 0044 13       		.uleb128 0x13
 3392 0045 00       		.byte	0
 3393 0046 00       		.byte	0
 3394 0047 07       		.uleb128 0x7
 3395 0048 34       		.uleb128 0x34
 3396 0049 00       		.byte	0
 3397 004a 03       		.uleb128 0x3
 3398 004b 0E       		.uleb128 0xe
 3399 004c 3A       		.uleb128 0x3a
 3400 004d 0B       		.uleb128 0xb
 3401 004e 3B       		.uleb128 0x3b
 3402 004f 05       		.uleb128 0x5
 3403 0050 49       		.uleb128 0x49
 3404 0051 13       		.uleb128 0x13
 3405 0052 3F       		.uleb128 0x3f
 3406 0053 19       		.uleb128 0x19
 3407 0054 3C       		.uleb128 0x3c
 3408 0055 19       		.uleb128 0x19
 3409 0056 00       		.byte	0
 3410 0057 00       		.byte	0
 3411 0058 08       		.uleb128 0x8
 3412 0059 34       		.uleb128 0x34
 3413 005a 00       		.byte	0
 3414 005b 03       		.uleb128 0x3
 3415 005c 0E       		.uleb128 0xe
 3416 005d 3A       		.uleb128 0x3a
 3417 005e 0B       		.uleb128 0xb
 3418 005f 3B       		.uleb128 0x3b
 3419 0060 0B       		.uleb128 0xb
 3420 0061 49       		.uleb128 0x49
 3421 0062 13       		.uleb128 0x13
 3422 0063 3F       		.uleb128 0x3f
 3423 0064 19       		.uleb128 0x19
 3424 0065 3C       		.uleb128 0x3c
 3425 0066 19       		.uleb128 0x19
 3426 0067 00       		.byte	0
 3427 0068 00       		.byte	0
 3428 0069 09       		.uleb128 0x9
 3429 006a 01       		.uleb128 0x1
 3430 006b 01       		.byte	0x1
 3431 006c 49       		.uleb128 0x49
 3432 006d 13       		.uleb128 0x13
 3433 006e 01       		.uleb128 0x1
 3434 006f 13       		.uleb128 0x13
 3435 0070 00       		.byte	0
 3436 0071 00       		.byte	0
 3437 0072 0A       		.uleb128 0xa
 3438 0073 21       		.uleb128 0x21
 3439 0074 00       		.byte	0
 3440 0075 49       		.uleb128 0x49
 3441 0076 13       		.uleb128 0x13
 3442 0077 2F       		.uleb128 0x2f
 3443 0078 0B       		.uleb128 0xb
 3444 0079 00       		.byte	0
 3445 007a 00       		.byte	0
ARM GAS  /tmp/ccKti1Oq.s 			page 71


 3446 007b 0B       		.uleb128 0xb
 3447 007c 13       		.uleb128 0x13
 3448 007d 01       		.byte	0x1
 3449 007e 0B       		.uleb128 0xb
 3450 007f 0B       		.uleb128 0xb
 3451 0080 3A       		.uleb128 0x3a
 3452 0081 0B       		.uleb128 0xb
 3453 0082 3B       		.uleb128 0x3b
 3454 0083 05       		.uleb128 0x5
 3455 0084 01       		.uleb128 0x1
 3456 0085 13       		.uleb128 0x13
 3457 0086 00       		.byte	0
 3458 0087 00       		.byte	0
 3459 0088 0C       		.uleb128 0xc
 3460 0089 0D       		.uleb128 0xd
 3461 008a 00       		.byte	0
 3462 008b 03       		.uleb128 0x3
 3463 008c 08       		.uleb128 0x8
 3464 008d 3A       		.uleb128 0x3a
 3465 008e 0B       		.uleb128 0xb
 3466 008f 3B       		.uleb128 0x3b
 3467 0090 05       		.uleb128 0x5
 3468 0091 49       		.uleb128 0x49
 3469 0092 13       		.uleb128 0x13
 3470 0093 38       		.uleb128 0x38
 3471 0094 0B       		.uleb128 0xb
 3472 0095 00       		.byte	0
 3473 0096 00       		.byte	0
 3474 0097 0D       		.uleb128 0xd
 3475 0098 0D       		.uleb128 0xd
 3476 0099 00       		.byte	0
 3477 009a 03       		.uleb128 0x3
 3478 009b 0E       		.uleb128 0xe
 3479 009c 3A       		.uleb128 0x3a
 3480 009d 0B       		.uleb128 0xb
 3481 009e 3B       		.uleb128 0x3b
 3482 009f 05       		.uleb128 0x5
 3483 00a0 49       		.uleb128 0x49
 3484 00a1 13       		.uleb128 0x13
 3485 00a2 38       		.uleb128 0x38
 3486 00a3 0B       		.uleb128 0xb
 3487 00a4 00       		.byte	0
 3488 00a5 00       		.byte	0
 3489 00a6 0E       		.uleb128 0xe
 3490 00a7 16       		.uleb128 0x16
 3491 00a8 00       		.byte	0
 3492 00a9 03       		.uleb128 0x3
 3493 00aa 0E       		.uleb128 0xe
 3494 00ab 3A       		.uleb128 0x3a
 3495 00ac 0B       		.uleb128 0xb
 3496 00ad 3B       		.uleb128 0x3b
 3497 00ae 05       		.uleb128 0x5
 3498 00af 49       		.uleb128 0x49
 3499 00b0 13       		.uleb128 0x13
 3500 00b1 00       		.byte	0
 3501 00b2 00       		.byte	0
 3502 00b3 0F       		.uleb128 0xf
ARM GAS  /tmp/ccKti1Oq.s 			page 72


 3503 00b4 04       		.uleb128 0x4
 3504 00b5 01       		.byte	0x1
 3505 00b6 3E       		.uleb128 0x3e
 3506 00b7 0B       		.uleb128 0xb
 3507 00b8 0B       		.uleb128 0xb
 3508 00b9 0B       		.uleb128 0xb
 3509 00ba 49       		.uleb128 0x49
 3510 00bb 13       		.uleb128 0x13
 3511 00bc 3A       		.uleb128 0x3a
 3512 00bd 0B       		.uleb128 0xb
 3513 00be 3B       		.uleb128 0x3b
 3514 00bf 0B       		.uleb128 0xb
 3515 00c0 01       		.uleb128 0x1
 3516 00c1 13       		.uleb128 0x13
 3517 00c2 00       		.byte	0
 3518 00c3 00       		.byte	0
 3519 00c4 10       		.uleb128 0x10
 3520 00c5 28       		.uleb128 0x28
 3521 00c6 00       		.byte	0
 3522 00c7 03       		.uleb128 0x3
 3523 00c8 0E       		.uleb128 0xe
 3524 00c9 1C       		.uleb128 0x1c
 3525 00ca 0B       		.uleb128 0xb
 3526 00cb 00       		.byte	0
 3527 00cc 00       		.byte	0
 3528 00cd 11       		.uleb128 0x11
 3529 00ce 28       		.uleb128 0x28
 3530 00cf 00       		.byte	0
 3531 00d0 03       		.uleb128 0x3
 3532 00d1 08       		.uleb128 0x8
 3533 00d2 1C       		.uleb128 0x1c
 3534 00d3 0B       		.uleb128 0xb
 3535 00d4 00       		.byte	0
 3536 00d5 00       		.byte	0
 3537 00d6 12       		.uleb128 0x12
 3538 00d7 13       		.uleb128 0x13
 3539 00d8 01       		.byte	0x1
 3540 00d9 0B       		.uleb128 0xb
 3541 00da 0B       		.uleb128 0xb
 3542 00db 3A       		.uleb128 0x3a
 3543 00dc 0B       		.uleb128 0xb
 3544 00dd 3B       		.uleb128 0x3b
 3545 00de 0B       		.uleb128 0xb
 3546 00df 01       		.uleb128 0x1
 3547 00e0 13       		.uleb128 0x13
 3548 00e1 00       		.byte	0
 3549 00e2 00       		.byte	0
 3550 00e3 13       		.uleb128 0x13
 3551 00e4 0D       		.uleb128 0xd
 3552 00e5 00       		.byte	0
 3553 00e6 03       		.uleb128 0x3
 3554 00e7 0E       		.uleb128 0xe
 3555 00e8 3A       		.uleb128 0x3a
 3556 00e9 0B       		.uleb128 0xb
 3557 00ea 3B       		.uleb128 0x3b
 3558 00eb 0B       		.uleb128 0xb
 3559 00ec 49       		.uleb128 0x49
ARM GAS  /tmp/ccKti1Oq.s 			page 73


 3560 00ed 13       		.uleb128 0x13
 3561 00ee 38       		.uleb128 0x38
 3562 00ef 0B       		.uleb128 0xb
 3563 00f0 00       		.byte	0
 3564 00f1 00       		.byte	0
 3565 00f2 14       		.uleb128 0x14
 3566 00f3 2E       		.uleb128 0x2e
 3567 00f4 01       		.byte	0x1
 3568 00f5 3F       		.uleb128 0x3f
 3569 00f6 19       		.uleb128 0x19
 3570 00f7 03       		.uleb128 0x3
 3571 00f8 0E       		.uleb128 0xe
 3572 00f9 3A       		.uleb128 0x3a
 3573 00fa 0B       		.uleb128 0xb
 3574 00fb 3B       		.uleb128 0x3b
 3575 00fc 05       		.uleb128 0x5
 3576 00fd 27       		.uleb128 0x27
 3577 00fe 19       		.uleb128 0x19
 3578 00ff 11       		.uleb128 0x11
 3579 0100 01       		.uleb128 0x1
 3580 0101 12       		.uleb128 0x12
 3581 0102 06       		.uleb128 0x6
 3582 0103 40       		.uleb128 0x40
 3583 0104 18       		.uleb128 0x18
 3584 0105 9642     		.uleb128 0x2116
 3585 0107 19       		.uleb128 0x19
 3586 0108 01       		.uleb128 0x1
 3587 0109 13       		.uleb128 0x13
 3588 010a 00       		.byte	0
 3589 010b 00       		.byte	0
 3590 010c 15       		.uleb128 0x15
 3591 010d 05       		.uleb128 0x5
 3592 010e 00       		.byte	0
 3593 010f 03       		.uleb128 0x3
 3594 0110 0E       		.uleb128 0xe
 3595 0111 3A       		.uleb128 0x3a
 3596 0112 0B       		.uleb128 0xb
 3597 0113 3B       		.uleb128 0x3b
 3598 0114 05       		.uleb128 0x5
 3599 0115 49       		.uleb128 0x49
 3600 0116 13       		.uleb128 0x13
 3601 0117 02       		.uleb128 0x2
 3602 0118 18       		.uleb128 0x18
 3603 0119 00       		.byte	0
 3604 011a 00       		.byte	0
 3605 011b 16       		.uleb128 0x16
 3606 011c 34       		.uleb128 0x34
 3607 011d 00       		.byte	0
 3608 011e 03       		.uleb128 0x3
 3609 011f 0E       		.uleb128 0xe
 3610 0120 3A       		.uleb128 0x3a
 3611 0121 0B       		.uleb128 0xb
 3612 0122 3B       		.uleb128 0x3b
 3613 0123 05       		.uleb128 0x5
 3614 0124 49       		.uleb128 0x49
 3615 0125 13       		.uleb128 0x13
 3616 0126 02       		.uleb128 0x2
ARM GAS  /tmp/ccKti1Oq.s 			page 74


 3617 0127 18       		.uleb128 0x18
 3618 0128 00       		.byte	0
 3619 0129 00       		.byte	0
 3620 012a 17       		.uleb128 0x17
 3621 012b 2E       		.uleb128 0x2e
 3622 012c 01       		.byte	0x1
 3623 012d 3F       		.uleb128 0x3f
 3624 012e 19       		.uleb128 0x19
 3625 012f 03       		.uleb128 0x3
 3626 0130 0E       		.uleb128 0xe
 3627 0131 3A       		.uleb128 0x3a
 3628 0132 0B       		.uleb128 0xb
 3629 0133 3B       		.uleb128 0x3b
 3630 0134 05       		.uleb128 0x5
 3631 0135 27       		.uleb128 0x27
 3632 0136 19       		.uleb128 0x19
 3633 0137 49       		.uleb128 0x49
 3634 0138 13       		.uleb128 0x13
 3635 0139 11       		.uleb128 0x11
 3636 013a 01       		.uleb128 0x1
 3637 013b 12       		.uleb128 0x12
 3638 013c 06       		.uleb128 0x6
 3639 013d 40       		.uleb128 0x40
 3640 013e 18       		.uleb128 0x18
 3641 013f 9642     		.uleb128 0x2116
 3642 0141 19       		.uleb128 0x19
 3643 0142 01       		.uleb128 0x1
 3644 0143 13       		.uleb128 0x13
 3645 0144 00       		.byte	0
 3646 0145 00       		.byte	0
 3647 0146 18       		.uleb128 0x18
 3648 0147 0F       		.uleb128 0xf
 3649 0148 00       		.byte	0
 3650 0149 0B       		.uleb128 0xb
 3651 014a 0B       		.uleb128 0xb
 3652 014b 49       		.uleb128 0x49
 3653 014c 13       		.uleb128 0x13
 3654 014d 00       		.byte	0
 3655 014e 00       		.byte	0
 3656 014f 19       		.uleb128 0x19
 3657 0150 2E       		.uleb128 0x2e
 3658 0151 01       		.byte	0x1
 3659 0152 3F       		.uleb128 0x3f
 3660 0153 19       		.uleb128 0x19
 3661 0154 03       		.uleb128 0x3
 3662 0155 0E       		.uleb128 0xe
 3663 0156 3A       		.uleb128 0x3a
 3664 0157 0B       		.uleb128 0xb
 3665 0158 3B       		.uleb128 0x3b
 3666 0159 0B       		.uleb128 0xb
 3667 015a 27       		.uleb128 0x27
 3668 015b 19       		.uleb128 0x19
 3669 015c 11       		.uleb128 0x11
 3670 015d 01       		.uleb128 0x1
 3671 015e 12       		.uleb128 0x12
 3672 015f 06       		.uleb128 0x6
 3673 0160 40       		.uleb128 0x40
ARM GAS  /tmp/ccKti1Oq.s 			page 75


 3674 0161 18       		.uleb128 0x18
 3675 0162 9642     		.uleb128 0x2116
 3676 0164 19       		.uleb128 0x19
 3677 0165 01       		.uleb128 0x1
 3678 0166 13       		.uleb128 0x13
 3679 0167 00       		.byte	0
 3680 0168 00       		.byte	0
 3681 0169 1A       		.uleb128 0x1a
 3682 016a 05       		.uleb128 0x5
 3683 016b 00       		.byte	0
 3684 016c 03       		.uleb128 0x3
 3685 016d 0E       		.uleb128 0xe
 3686 016e 3A       		.uleb128 0x3a
 3687 016f 0B       		.uleb128 0xb
 3688 0170 3B       		.uleb128 0x3b
 3689 0171 0B       		.uleb128 0xb
 3690 0172 49       		.uleb128 0x49
 3691 0173 13       		.uleb128 0x13
 3692 0174 02       		.uleb128 0x2
 3693 0175 18       		.uleb128 0x18
 3694 0176 00       		.byte	0
 3695 0177 00       		.byte	0
 3696 0178 1B       		.uleb128 0x1b
 3697 0179 34       		.uleb128 0x34
 3698 017a 00       		.byte	0
 3699 017b 03       		.uleb128 0x3
 3700 017c 0E       		.uleb128 0xe
 3701 017d 3A       		.uleb128 0x3a
 3702 017e 0B       		.uleb128 0xb
 3703 017f 3B       		.uleb128 0x3b
 3704 0180 0B       		.uleb128 0xb
 3705 0181 49       		.uleb128 0x49
 3706 0182 13       		.uleb128 0x13
 3707 0183 02       		.uleb128 0x2
 3708 0184 18       		.uleb128 0x18
 3709 0185 00       		.byte	0
 3710 0186 00       		.byte	0
 3711 0187 1C       		.uleb128 0x1c
 3712 0188 0F       		.uleb128 0xf
 3713 0189 00       		.byte	0
 3714 018a 0B       		.uleb128 0xb
 3715 018b 0B       		.uleb128 0xb
 3716 018c 00       		.byte	0
 3717 018d 00       		.byte	0
 3718 018e 1D       		.uleb128 0x1d
 3719 018f 2E       		.uleb128 0x2e
 3720 0190 01       		.byte	0x1
 3721 0191 3F       		.uleb128 0x3f
 3722 0192 19       		.uleb128 0x19
 3723 0193 03       		.uleb128 0x3
 3724 0194 0E       		.uleb128 0xe
 3725 0195 3A       		.uleb128 0x3a
 3726 0196 0B       		.uleb128 0xb
 3727 0197 3B       		.uleb128 0x3b
 3728 0198 0B       		.uleb128 0xb
 3729 0199 27       		.uleb128 0x27
 3730 019a 19       		.uleb128 0x19
ARM GAS  /tmp/ccKti1Oq.s 			page 76


 3731 019b 11       		.uleb128 0x11
 3732 019c 01       		.uleb128 0x1
 3733 019d 12       		.uleb128 0x12
 3734 019e 06       		.uleb128 0x6
 3735 019f 40       		.uleb128 0x40
 3736 01a0 18       		.uleb128 0x18
 3737 01a1 9742     		.uleb128 0x2117
 3738 01a3 19       		.uleb128 0x19
 3739 01a4 01       		.uleb128 0x1
 3740 01a5 13       		.uleb128 0x13
 3741 01a6 00       		.byte	0
 3742 01a7 00       		.byte	0
 3743 01a8 1E       		.uleb128 0x1e
 3744 01a9 0B       		.uleb128 0xb
 3745 01aa 01       		.byte	0x1
 3746 01ab 11       		.uleb128 0x11
 3747 01ac 01       		.uleb128 0x1
 3748 01ad 12       		.uleb128 0x12
 3749 01ae 06       		.uleb128 0x6
 3750 01af 01       		.uleb128 0x1
 3751 01b0 13       		.uleb128 0x13
 3752 01b1 00       		.byte	0
 3753 01b2 00       		.byte	0
 3754 01b3 1F       		.uleb128 0x1f
 3755 01b4 0B       		.uleb128 0xb
 3756 01b5 01       		.byte	0x1
 3757 01b6 11       		.uleb128 0x11
 3758 01b7 01       		.uleb128 0x1
 3759 01b8 12       		.uleb128 0x12
 3760 01b9 06       		.uleb128 0x6
 3761 01ba 00       		.byte	0
 3762 01bb 00       		.byte	0
 3763 01bc 20       		.uleb128 0x20
 3764 01bd 2E       		.uleb128 0x2e
 3765 01be 01       		.byte	0x1
 3766 01bf 3F       		.uleb128 0x3f
 3767 01c0 19       		.uleb128 0x19
 3768 01c1 03       		.uleb128 0x3
 3769 01c2 0E       		.uleb128 0xe
 3770 01c3 3A       		.uleb128 0x3a
 3771 01c4 0B       		.uleb128 0xb
 3772 01c5 3B       		.uleb128 0x3b
 3773 01c6 0B       		.uleb128 0xb
 3774 01c7 27       		.uleb128 0x27
 3775 01c8 19       		.uleb128 0x19
 3776 01c9 49       		.uleb128 0x49
 3777 01ca 13       		.uleb128 0x13
 3778 01cb 11       		.uleb128 0x11
 3779 01cc 01       		.uleb128 0x1
 3780 01cd 12       		.uleb128 0x12
 3781 01ce 06       		.uleb128 0x6
 3782 01cf 40       		.uleb128 0x40
 3783 01d0 18       		.uleb128 0x18
 3784 01d1 9642     		.uleb128 0x2116
 3785 01d3 19       		.uleb128 0x19
 3786 01d4 01       		.uleb128 0x1
 3787 01d5 13       		.uleb128 0x13
ARM GAS  /tmp/ccKti1Oq.s 			page 77


 3788 01d6 00       		.byte	0
 3789 01d7 00       		.byte	0
 3790 01d8 21       		.uleb128 0x21
 3791 01d9 2E       		.uleb128 0x2e
 3792 01da 01       		.byte	0x1
 3793 01db 3F       		.uleb128 0x3f
 3794 01dc 19       		.uleb128 0x19
 3795 01dd 03       		.uleb128 0x3
 3796 01de 0E       		.uleb128 0xe
 3797 01df 3A       		.uleb128 0x3a
 3798 01e0 0B       		.uleb128 0xb
 3799 01e1 3B       		.uleb128 0x3b
 3800 01e2 0B       		.uleb128 0xb
 3801 01e3 27       		.uleb128 0x27
 3802 01e4 19       		.uleb128 0x19
 3803 01e5 49       		.uleb128 0x49
 3804 01e6 13       		.uleb128 0x13
 3805 01e7 11       		.uleb128 0x11
 3806 01e8 01       		.uleb128 0x1
 3807 01e9 12       		.uleb128 0x12
 3808 01ea 06       		.uleb128 0x6
 3809 01eb 40       		.uleb128 0x40
 3810 01ec 18       		.uleb128 0x18
 3811 01ed 9742     		.uleb128 0x2117
 3812 01ef 19       		.uleb128 0x19
 3813 01f0 01       		.uleb128 0x1
 3814 01f1 13       		.uleb128 0x13
 3815 01f2 00       		.byte	0
 3816 01f3 00       		.byte	0
 3817 01f4 22       		.uleb128 0x22
 3818 01f5 2E       		.uleb128 0x2e
 3819 01f6 01       		.byte	0x1
 3820 01f7 3F       		.uleb128 0x3f
 3821 01f8 19       		.uleb128 0x19
 3822 01f9 03       		.uleb128 0x3
 3823 01fa 0E       		.uleb128 0xe
 3824 01fb 3A       		.uleb128 0x3a
 3825 01fc 0B       		.uleb128 0xb
 3826 01fd 3B       		.uleb128 0x3b
 3827 01fe 0B       		.uleb128 0xb
 3828 01ff 27       		.uleb128 0x27
 3829 0200 19       		.uleb128 0x19
 3830 0201 49       		.uleb128 0x49
 3831 0202 13       		.uleb128 0x13
 3832 0203 11       		.uleb128 0x11
 3833 0204 01       		.uleb128 0x1
 3834 0205 12       		.uleb128 0x12
 3835 0206 06       		.uleb128 0x6
 3836 0207 40       		.uleb128 0x40
 3837 0208 18       		.uleb128 0x18
 3838 0209 9642     		.uleb128 0x2116
 3839 020b 19       		.uleb128 0x19
 3840 020c 00       		.byte	0
 3841 020d 00       		.byte	0
 3842 020e 00       		.byte	0
 3843              		.section	.debug_aranges,"",%progbits
 3844 0000 9C000000 		.4byte	0x9c
ARM GAS  /tmp/ccKti1Oq.s 			page 78


 3845 0004 0200     		.2byte	0x2
 3846 0006 00000000 		.4byte	.Ldebug_info0
 3847 000a 04       		.byte	0x4
 3848 000b 00       		.byte	0
 3849 000c 0000     		.2byte	0
 3850 000e 0000     		.2byte	0
 3851 0010 00000000 		.4byte	.LFB55
 3852 0014 56000000 		.4byte	.LFE55-.LFB55
 3853 0018 00000000 		.4byte	.LFB56
 3854 001c 58000000 		.4byte	.LFE56-.LFB56
 3855 0020 00000000 		.4byte	.LFB57
 3856 0024 5C000000 		.4byte	.LFE57-.LFB57
 3857 0028 00000000 		.4byte	.LFB58
 3858 002c 98000000 		.4byte	.LFE58-.LFB58
 3859 0030 00000000 		.4byte	.LFB59
 3860 0034 9C000000 		.4byte	.LFE59-.LFB59
 3861 0038 00000000 		.4byte	.LFB60
 3862 003c 8C000000 		.4byte	.LFE60-.LFB60
 3863 0040 00000000 		.4byte	.LFB61
 3864 0044 8C000000 		.4byte	.LFE61-.LFB61
 3865 0048 00000000 		.4byte	.LFB62
 3866 004c 38000000 		.4byte	.LFE62-.LFB62
 3867 0050 00000000 		.4byte	.LFB63
 3868 0054 70010000 		.4byte	.LFE63-.LFB63
 3869 0058 00000000 		.4byte	.LFB64
 3870 005c 9C000000 		.4byte	.LFE64-.LFB64
 3871 0060 00000000 		.4byte	.LFB65
 3872 0064 70000000 		.4byte	.LFE65-.LFB65
 3873 0068 00000000 		.4byte	.LFB66
 3874 006c 64000000 		.4byte	.LFE66-.LFB66
 3875 0070 00000000 		.4byte	.LFB67
 3876 0074 5C010000 		.4byte	.LFE67-.LFB67
 3877 0078 00000000 		.4byte	.LFB68
 3878 007c DC000000 		.4byte	.LFE68-.LFB68
 3879 0080 00000000 		.4byte	.LFB69
 3880 0084 74000000 		.4byte	.LFE69-.LFB69
 3881 0088 00000000 		.4byte	.LFB70
 3882 008c 76000000 		.4byte	.LFE70-.LFB70
 3883 0090 00000000 		.4byte	.LFB71
 3884 0094 74000000 		.4byte	.LFE71-.LFB71
 3885 0098 00000000 		.4byte	0
 3886 009c 00000000 		.4byte	0
 3887              		.section	.debug_ranges,"",%progbits
 3888              	.Ldebug_ranges0:
 3889 0000 00000000 		.4byte	.LFB55
 3890 0004 56000000 		.4byte	.LFE55
 3891 0008 00000000 		.4byte	.LFB56
 3892 000c 58000000 		.4byte	.LFE56
 3893 0010 00000000 		.4byte	.LFB57
 3894 0014 5C000000 		.4byte	.LFE57
 3895 0018 00000000 		.4byte	.LFB58
 3896 001c 98000000 		.4byte	.LFE58
 3897 0020 00000000 		.4byte	.LFB59
 3898 0024 9C000000 		.4byte	.LFE59
 3899 0028 00000000 		.4byte	.LFB60
 3900 002c 8C000000 		.4byte	.LFE60
 3901 0030 00000000 		.4byte	.LFB61
ARM GAS  /tmp/ccKti1Oq.s 			page 79


 3902 0034 8C000000 		.4byte	.LFE61
 3903 0038 00000000 		.4byte	.LFB62
 3904 003c 38000000 		.4byte	.LFE62
 3905 0040 00000000 		.4byte	.LFB63
 3906 0044 70010000 		.4byte	.LFE63
 3907 0048 00000000 		.4byte	.LFB64
 3908 004c 9C000000 		.4byte	.LFE64
 3909 0050 00000000 		.4byte	.LFB65
 3910 0054 70000000 		.4byte	.LFE65
 3911 0058 00000000 		.4byte	.LFB66
 3912 005c 64000000 		.4byte	.LFE66
 3913 0060 00000000 		.4byte	.LFB67
 3914 0064 5C010000 		.4byte	.LFE67
 3915 0068 00000000 		.4byte	.LFB68
 3916 006c DC000000 		.4byte	.LFE68
 3917 0070 00000000 		.4byte	.LFB69
 3918 0074 74000000 		.4byte	.LFE69
 3919 0078 00000000 		.4byte	.LFB70
 3920 007c 76000000 		.4byte	.LFE70
 3921 0080 00000000 		.4byte	.LFB71
 3922 0084 74000000 		.4byte	.LFE71
 3923 0088 00000000 		.4byte	0
 3924 008c 00000000 		.4byte	0
 3925              		.section	.debug_macro,"",%progbits
 3926              	.Ldebug_macro0:
 3927 0000 0400     		.2byte	0x4
 3928 0002 02       		.byte	0x2
 3929 0003 00000000 		.4byte	.Ldebug_line0
 3930 0007 07       		.byte	0x7
 3931 0008 00000000 		.4byte	.Ldebug_macro1
 3932 000c 03       		.byte	0x3
 3933 000d 00       		.uleb128 0
 3934 000e 01       		.uleb128 0x1
 3935 000f 03       		.byte	0x3
 3936 0010 1A       		.uleb128 0x1a
 3937 0011 08       		.uleb128 0x8
 3938 0012 05       		.byte	0x5
 3939 0013 1B       		.uleb128 0x1b
 3940 0014 573B0000 		.4byte	.LASF434
 3941 0018 03       		.byte	0x3
 3942 0019 1E       		.uleb128 0x1e
 3943 001a 06       		.uleb128 0x6
 3944 001b 07       		.byte	0x7
 3945 001c 00000000 		.4byte	.Ldebug_macro2
 3946 0020 03       		.byte	0x3
 3947 0021 67       		.uleb128 0x67
 3948 0022 04       		.uleb128 0x4
 3949 0023 07       		.byte	0x7
 3950 0024 00000000 		.4byte	.Ldebug_macro3
 3951              		.file 9 "/usr/lib/gcc/arm-none-eabi/7.1.0/include/stdint.h"
 3952 0028 03       		.byte	0x3
 3953 0029 50       		.uleb128 0x50
 3954 002a 09       		.uleb128 0x9
 3955              		.file 10 "/usr/arm-none-eabi/include/stdint.h"
 3956 002b 03       		.byte	0x3
 3957 002c 09       		.uleb128 0x9
 3958 002d 0A       		.uleb128 0xa
ARM GAS  /tmp/ccKti1Oq.s 			page 80


 3959 002e 05       		.byte	0x5
 3960 002f 0A       		.uleb128 0xa
 3961 0030 0E240000 		.4byte	.LASF446
 3962 0034 03       		.byte	0x3
 3963 0035 0C       		.uleb128 0xc
 3964 0036 02       		.uleb128 0x2
 3965 0037 05       		.byte	0x5
 3966 0038 06       		.uleb128 0x6
 3967 0039 23670000 		.4byte	.LASF447
 3968              		.file 11 "/usr/arm-none-eabi/include/sys/features.h"
 3969 003d 03       		.byte	0x3
 3970 003e 08       		.uleb128 0x8
 3971 003f 0B       		.uleb128 0xb
 3972 0040 05       		.byte	0x5
 3973 0041 16       		.uleb128 0x16
 3974 0042 0F2B0000 		.4byte	.LASF448
 3975              		.file 12 "/usr/arm-none-eabi/include/_newlib_version.h"
 3976 0046 03       		.byte	0x3
 3977 0047 1C       		.uleb128 0x1c
 3978 0048 0C       		.uleb128 0xc
 3979 0049 07       		.byte	0x7
 3980 004a 00000000 		.4byte	.Ldebug_macro4
 3981 004e 04       		.byte	0x4
 3982 004f 07       		.byte	0x7
 3983 0050 00000000 		.4byte	.Ldebug_macro5
 3984 0054 04       		.byte	0x4
 3985 0055 07       		.byte	0x7
 3986 0056 00000000 		.4byte	.Ldebug_macro6
 3987 005a 04       		.byte	0x4
 3988              		.file 13 "/usr/arm-none-eabi/include/sys/_intsup.h"
 3989 005b 03       		.byte	0x3
 3990 005c 0D       		.uleb128 0xd
 3991 005d 0D       		.uleb128 0xd
 3992 005e 07       		.byte	0x7
 3993 005f 00000000 		.4byte	.Ldebug_macro7
 3994 0063 04       		.byte	0x4
 3995 0064 03       		.byte	0x3
 3996 0065 0E       		.uleb128 0xe
 3997 0066 03       		.uleb128 0x3
 3998 0067 07       		.byte	0x7
 3999 0068 00000000 		.4byte	.Ldebug_macro8
 4000 006c 04       		.byte	0x4
 4001 006d 07       		.byte	0x7
 4002 006e 00000000 		.4byte	.Ldebug_macro9
 4003 0072 04       		.byte	0x4
 4004 0073 05       		.byte	0x5
 4005 0074 0D       		.uleb128 0xd
 4006 0075 27080000 		.4byte	.LASF600
 4007 0079 04       		.byte	0x4
 4008              		.file 14 "system/core_cmInstr.h"
 4009 007a 03       		.byte	0x3
 4010 007b 51       		.uleb128 0x51
 4011 007c 0E       		.uleb128 0xe
 4012 007d 07       		.byte	0x7
 4013 007e 00000000 		.4byte	.Ldebug_macro10
 4014 0082 04       		.byte	0x4
 4015              		.file 15 "system/core_cmFunc.h"
ARM GAS  /tmp/ccKti1Oq.s 			page 81


 4016 0083 03       		.byte	0x3
 4017 0084 52       		.uleb128 0x52
 4018 0085 0F       		.uleb128 0xf
 4019 0086 05       		.byte	0x5
 4020 0087 19       		.uleb128 0x19
 4021 0088 83580000 		.4byte	.LASF604
 4022 008c 04       		.byte	0x4
 4023 008d 07       		.byte	0x7
 4024 008e 00000000 		.4byte	.Ldebug_macro11
 4025 0092 04       		.byte	0x4
 4026 0093 03       		.byte	0x3
 4027 0094 68       		.uleb128 0x68
 4028 0095 05       		.uleb128 0x5
 4029 0096 05       		.byte	0x5
 4030 0097 1B       		.uleb128 0x1b
 4031 0098 520D0000 		.4byte	.LASF886
 4032 009c 04       		.byte	0x4
 4033 009d 07       		.byte	0x7
 4034 009e 00000000 		.4byte	.Ldebug_macro12
 4035 00a2 04       		.byte	0x4
 4036 00a3 03       		.byte	0x3
 4037 00a4 1F       		.uleb128 0x1f
 4038 00a5 07       		.uleb128 0x7
 4039 00a6 07       		.byte	0x7
 4040 00a7 00000000 		.4byte	.Ldebug_macro13
 4041 00ab 04       		.byte	0x4
 4042 00ac 07       		.byte	0x7
 4043 00ad 00000000 		.4byte	.Ldebug_macro14
 4044 00b1 04       		.byte	0x4
 4045              		.file 16 "core/lpc17xx_clkpwr.h"
 4046 00b2 03       		.byte	0x3
 4047 00b3 1B       		.uleb128 0x1b
 4048 00b4 10       		.uleb128 0x10
 4049 00b5 07       		.byte	0x7
 4050 00b6 00000000 		.4byte	.Ldebug_macro15
 4051 00ba 04       		.byte	0x4
 4052              		.file 17 "core/lpc17xx_pinsel.h"
 4053 00bb 03       		.byte	0x3
 4054 00bc 1C       		.uleb128 0x1c
 4055 00bd 11       		.uleb128 0x11
 4056 00be 07       		.byte	0x7
 4057 00bf 00000000 		.4byte	.Ldebug_macro16
 4058 00c3 04       		.byte	0x4
 4059              		.file 18 "core/lpc17xx_libcfg_default.h"
 4060 00c4 03       		.byte	0x3
 4061 00c5 25       		.uleb128 0x25
 4062 00c6 12       		.uleb128 0x12
 4063 00c7 07       		.byte	0x7
 4064 00c8 00000000 		.4byte	.Ldebug_macro17
 4065 00cc 04       		.byte	0x4
 4066 00cd 04       		.byte	0x4
 4067 00ce 00       		.byte	0
 4068              		.section	.debug_macro,"G",%progbits,wm4.0.575902ec30e623f99ccb935f1e727f1f,comdat
 4069              	.Ldebug_macro1:
 4070 0000 0400     		.2byte	0x4
 4071 0002 00       		.byte	0
 4072 0003 05       		.byte	0x5
ARM GAS  /tmp/ccKti1Oq.s 			page 82


 4073 0004 00       		.uleb128 0
 4074 0005 D0600000 		.4byte	.LASF0
 4075 0009 05       		.byte	0x5
 4076 000a 00       		.uleb128 0
 4077 000b 650C0000 		.4byte	.LASF1
 4078 000f 05       		.byte	0x5
 4079 0010 00       		.uleb128 0
 4080 0011 86460000 		.4byte	.LASF2
 4081 0015 05       		.byte	0x5
 4082 0016 00       		.uleb128 0
 4083 0017 3C7D0000 		.4byte	.LASF3
 4084 001b 05       		.byte	0x5
 4085 001c 00       		.uleb128 0
 4086 001d 49230000 		.4byte	.LASF4
 4087 0021 05       		.byte	0x5
 4088 0022 00       		.uleb128 0
 4089 0023 8F120000 		.4byte	.LASF5
 4090 0027 05       		.byte	0x5
 4091 0028 00       		.uleb128 0
 4092 0029 03880000 		.4byte	.LASF6
 4093 002d 05       		.byte	0x5
 4094 002e 00       		.uleb128 0
 4095 002f A9260000 		.4byte	.LASF7
 4096 0033 05       		.byte	0x5
 4097 0034 00       		.uleb128 0
 4098 0035 1C430000 		.4byte	.LASF8
 4099 0039 05       		.byte	0x5
 4100 003a 00       		.uleb128 0
 4101 003b 2A4D0000 		.4byte	.LASF9
 4102 003f 05       		.byte	0x5
 4103 0040 00       		.uleb128 0
 4104 0041 119E0000 		.4byte	.LASF10
 4105 0045 05       		.byte	0x5
 4106 0046 00       		.uleb128 0
 4107 0047 84040000 		.4byte	.LASF11
 4108 004b 05       		.byte	0x5
 4109 004c 00       		.uleb128 0
 4110 004d 62760000 		.4byte	.LASF12
 4111 0051 05       		.byte	0x5
 4112 0052 00       		.uleb128 0
 4113 0053 2C930000 		.4byte	.LASF13
 4114 0057 05       		.byte	0x5
 4115 0058 00       		.uleb128 0
 4116 0059 7A1F0000 		.4byte	.LASF14
 4117 005d 05       		.byte	0x5
 4118 005e 00       		.uleb128 0
 4119 005f 11060000 		.4byte	.LASF15
 4120 0063 05       		.byte	0x5
 4121 0064 00       		.uleb128 0
 4122 0065 B1290000 		.4byte	.LASF16
 4123 0069 05       		.byte	0x5
 4124 006a 00       		.uleb128 0
 4125 006b ED890000 		.4byte	.LASF17
 4126 006f 05       		.byte	0x5
 4127 0070 00       		.uleb128 0
 4128 0071 52200000 		.4byte	.LASF18
 4129 0075 05       		.byte	0x5
ARM GAS  /tmp/ccKti1Oq.s 			page 83


 4130 0076 00       		.uleb128 0
 4131 0077 642C0000 		.4byte	.LASF19
 4132 007b 05       		.byte	0x5
 4133 007c 00       		.uleb128 0
 4134 007d 07840000 		.4byte	.LASF20
 4135 0081 05       		.byte	0x5
 4136 0082 00       		.uleb128 0
 4137 0083 0A580000 		.4byte	.LASF21
 4138 0087 05       		.byte	0x5
 4139 0088 00       		.uleb128 0
 4140 0089 E1850000 		.4byte	.LASF22
 4141 008d 05       		.byte	0x5
 4142 008e 00       		.uleb128 0
 4143 008f D8700000 		.4byte	.LASF23
 4144 0093 05       		.byte	0x5
 4145 0094 00       		.uleb128 0
 4146 0095 A7110000 		.4byte	.LASF24
 4147 0099 05       		.byte	0x5
 4148 009a 00       		.uleb128 0
 4149 009b DC070000 		.4byte	.LASF25
 4150 009f 05       		.byte	0x5
 4151 00a0 00       		.uleb128 0
 4152 00a1 655A0000 		.4byte	.LASF26
 4153 00a5 05       		.byte	0x5
 4154 00a6 00       		.uleb128 0
 4155 00a7 26610000 		.4byte	.LASF27
 4156 00ab 05       		.byte	0x5
 4157 00ac 00       		.uleb128 0
 4158 00ad 9F1B0000 		.4byte	.LASF28
 4159 00b1 05       		.byte	0x5
 4160 00b2 00       		.uleb128 0
 4161 00b3 F6070000 		.4byte	.LASF29
 4162 00b7 05       		.byte	0x5
 4163 00b8 00       		.uleb128 0
 4164 00b9 09720000 		.4byte	.LASF30
 4165 00bd 05       		.byte	0x5
 4166 00be 00       		.uleb128 0
 4167 00bf CA2C0000 		.4byte	.LASF31
 4168 00c3 05       		.byte	0x5
 4169 00c4 00       		.uleb128 0
 4170 00c5 4A5C0000 		.4byte	.LASF32
 4171 00c9 05       		.byte	0x5
 4172 00ca 00       		.uleb128 0
 4173 00cb C89B0000 		.4byte	.LASF33
 4174 00cf 05       		.byte	0x5
 4175 00d0 00       		.uleb128 0
 4176 00d1 ED5E0000 		.4byte	.LASF34
 4177 00d5 05       		.byte	0x5
 4178 00d6 00       		.uleb128 0
 4179 00d7 CF740000 		.4byte	.LASF35
 4180 00db 05       		.byte	0x5
 4181 00dc 00       		.uleb128 0
 4182 00dd 671E0000 		.4byte	.LASF36
 4183 00e1 05       		.byte	0x5
 4184 00e2 00       		.uleb128 0
 4185 00e3 564A0000 		.4byte	.LASF37
 4186 00e7 05       		.byte	0x5
ARM GAS  /tmp/ccKti1Oq.s 			page 84


 4187 00e8 00       		.uleb128 0
 4188 00e9 89080000 		.4byte	.LASF38
 4189 00ed 05       		.byte	0x5
 4190 00ee 00       		.uleb128 0
 4191 00ef 590A0000 		.4byte	.LASF39
 4192 00f3 05       		.byte	0x5
 4193 00f4 00       		.uleb128 0
 4194 00f5 249E0000 		.4byte	.LASF40
 4195 00f9 05       		.byte	0x5
 4196 00fa 00       		.uleb128 0
 4197 00fb 8A570000 		.4byte	.LASF41
 4198 00ff 05       		.byte	0x5
 4199 0100 00       		.uleb128 0
 4200 0101 53610000 		.4byte	.LASF42
 4201 0105 05       		.byte	0x5
 4202 0106 00       		.uleb128 0
 4203 0107 A8460000 		.4byte	.LASF43
 4204 010b 05       		.byte	0x5
 4205 010c 00       		.uleb128 0
 4206 010d 63900000 		.4byte	.LASF44
 4207 0111 05       		.byte	0x5
 4208 0112 00       		.uleb128 0
 4209 0113 3B840000 		.4byte	.LASF45
 4210 0117 05       		.byte	0x5
 4211 0118 00       		.uleb128 0
 4212 0119 B41B0000 		.4byte	.LASF46
 4213 011d 05       		.byte	0x5
 4214 011e 00       		.uleb128 0
 4215 011f 19970000 		.4byte	.LASF47
 4216 0123 05       		.byte	0x5
 4217 0124 00       		.uleb128 0
 4218 0125 056F0000 		.4byte	.LASF48
 4219 0129 05       		.byte	0x5
 4220 012a 00       		.uleb128 0
 4221 012b AB140000 		.4byte	.LASF49
 4222 012f 05       		.byte	0x5
 4223 0130 00       		.uleb128 0
 4224 0131 1B180000 		.4byte	.LASF50
 4225 0135 05       		.byte	0x5
 4226 0136 00       		.uleb128 0
 4227 0137 95310000 		.4byte	.LASF51
 4228 013b 05       		.byte	0x5
 4229 013c 00       		.uleb128 0
 4230 013d 6F7D0000 		.4byte	.LASF52
 4231 0141 05       		.byte	0x5
 4232 0142 00       		.uleb128 0
 4233 0143 ED4B0000 		.4byte	.LASF53
 4234 0147 05       		.byte	0x5
 4235 0148 00       		.uleb128 0
 4236 0149 031B0000 		.4byte	.LASF54
 4237 014d 05       		.byte	0x5
 4238 014e 00       		.uleb128 0
 4239 014f 93730000 		.4byte	.LASF55
 4240 0153 05       		.byte	0x5
 4241 0154 00       		.uleb128 0
 4242 0155 DB4D0000 		.4byte	.LASF56
 4243 0159 05       		.byte	0x5
ARM GAS  /tmp/ccKti1Oq.s 			page 85


 4244 015a 00       		.uleb128 0
 4245 015b F60C0000 		.4byte	.LASF57
 4246 015f 05       		.byte	0x5
 4247 0160 00       		.uleb128 0
 4248 0161 F9480000 		.4byte	.LASF58
 4249 0165 05       		.byte	0x5
 4250 0166 00       		.uleb128 0
 4251 0167 40950000 		.4byte	.LASF59
 4252 016b 05       		.byte	0x5
 4253 016c 00       		.uleb128 0
 4254 016d D6720000 		.4byte	.LASF60
 4255 0171 05       		.byte	0x5
 4256 0172 00       		.uleb128 0
 4257 0173 D62D0000 		.4byte	.LASF61
 4258 0177 05       		.byte	0x5
 4259 0178 00       		.uleb128 0
 4260 0179 5D820000 		.4byte	.LASF62
 4261 017d 05       		.byte	0x5
 4262 017e 00       		.uleb128 0
 4263 017f 8B820000 		.4byte	.LASF63
 4264 0183 05       		.byte	0x5
 4265 0184 00       		.uleb128 0
 4266 0185 36440000 		.4byte	.LASF64
 4267 0189 05       		.byte	0x5
 4268 018a 00       		.uleb128 0
 4269 018b BF340000 		.4byte	.LASF65
 4270 018f 05       		.byte	0x5
 4271 0190 00       		.uleb128 0
 4272 0191 EA320000 		.4byte	.LASF66
 4273 0195 05       		.byte	0x5
 4274 0196 00       		.uleb128 0
 4275 0197 9A5F0000 		.4byte	.LASF67
 4276 019b 05       		.byte	0x5
 4277 019c 00       		.uleb128 0
 4278 019d D1710000 		.4byte	.LASF68
 4279 01a1 05       		.byte	0x5
 4280 01a2 00       		.uleb128 0
 4281 01a3 DEA00000 		.4byte	.LASF69
 4282 01a7 05       		.byte	0x5
 4283 01a8 00       		.uleb128 0
 4284 01a9 7C9A0000 		.4byte	.LASF70
 4285 01ad 05       		.byte	0x5
 4286 01ae 00       		.uleb128 0
 4287 01af 80690000 		.4byte	.LASF71
 4288 01b3 05       		.byte	0x5
 4289 01b4 00       		.uleb128 0
 4290 01b5 B5040000 		.4byte	.LASF72
 4291 01b9 05       		.byte	0x5
 4292 01ba 00       		.uleb128 0
 4293 01bb D7520000 		.4byte	.LASF73
 4294 01bf 05       		.byte	0x5
 4295 01c0 00       		.uleb128 0
 4296 01c1 75720000 		.4byte	.LASF74
 4297 01c5 05       		.byte	0x5
 4298 01c6 00       		.uleb128 0
 4299 01c7 6A960000 		.4byte	.LASF75
 4300 01cb 05       		.byte	0x5
ARM GAS  /tmp/ccKti1Oq.s 			page 86


 4301 01cc 00       		.uleb128 0
 4302 01cd 0A030000 		.4byte	.LASF76
 4303 01d1 05       		.byte	0x5
 4304 01d2 00       		.uleb128 0
 4305 01d3 A7990000 		.4byte	.LASF77
 4306 01d7 05       		.byte	0x5
 4307 01d8 00       		.uleb128 0
 4308 01d9 66480000 		.4byte	.LASF78
 4309 01dd 05       		.byte	0x5
 4310 01de 00       		.uleb128 0
 4311 01df 33620000 		.4byte	.LASF79
 4312 01e3 05       		.byte	0x5
 4313 01e4 00       		.uleb128 0
 4314 01e5 288C0000 		.4byte	.LASF80
 4315 01e9 05       		.byte	0x5
 4316 01ea 00       		.uleb128 0
 4317 01eb 49520000 		.4byte	.LASF81
 4318 01ef 05       		.byte	0x5
 4319 01f0 00       		.uleb128 0
 4320 01f1 DD540000 		.4byte	.LASF82
 4321 01f5 05       		.byte	0x5
 4322 01f6 00       		.uleb128 0
 4323 01f7 7B9C0000 		.4byte	.LASF83
 4324 01fb 05       		.byte	0x5
 4325 01fc 00       		.uleb128 0
 4326 01fd 78570000 		.4byte	.LASF84
 4327 0201 05       		.byte	0x5
 4328 0202 00       		.uleb128 0
 4329 0203 BC130000 		.4byte	.LASF85
 4330 0207 05       		.byte	0x5
 4331 0208 00       		.uleb128 0
 4332 0209 3A960000 		.4byte	.LASF86
 4333 020d 05       		.byte	0x5
 4334 020e 00       		.uleb128 0
 4335 020f 6E030000 		.4byte	.LASF87
 4336 0213 05       		.byte	0x5
 4337 0214 00       		.uleb128 0
 4338 0215 3F030000 		.4byte	.LASF88
 4339 0219 05       		.byte	0x5
 4340 021a 00       		.uleb128 0
 4341 021b D59F0000 		.4byte	.LASF89
 4342 021f 05       		.byte	0x5
 4343 0220 00       		.uleb128 0
 4344 0221 731B0000 		.4byte	.LASF90
 4345 0225 05       		.byte	0x5
 4346 0226 00       		.uleb128 0
 4347 0227 7D070000 		.4byte	.LASF91
 4348 022b 05       		.byte	0x5
 4349 022c 00       		.uleb128 0
 4350 022d A9880000 		.4byte	.LASF92
 4351 0231 05       		.byte	0x5
 4352 0232 00       		.uleb128 0
 4353 0233 D73C0000 		.4byte	.LASF93
 4354 0237 05       		.byte	0x5
 4355 0238 00       		.uleb128 0
 4356 0239 C28C0000 		.4byte	.LASF94
 4357 023d 05       		.byte	0x5
ARM GAS  /tmp/ccKti1Oq.s 			page 87


 4358 023e 00       		.uleb128 0
 4359 023f 6E450000 		.4byte	.LASF95
 4360 0243 05       		.byte	0x5
 4361 0244 00       		.uleb128 0
 4362 0245 7D8B0000 		.4byte	.LASF96
 4363 0249 05       		.byte	0x5
 4364 024a 00       		.uleb128 0
 4365 024b CE490000 		.4byte	.LASF97
 4366 024f 05       		.byte	0x5
 4367 0250 00       		.uleb128 0
 4368 0251 664F0000 		.4byte	.LASF98
 4369 0255 05       		.byte	0x5
 4370 0256 00       		.uleb128 0
 4371 0257 EC0E0000 		.4byte	.LASF99
 4372 025b 05       		.byte	0x5
 4373 025c 00       		.uleb128 0
 4374 025d 2F280000 		.4byte	.LASF100
 4375 0261 05       		.byte	0x5
 4376 0262 00       		.uleb128 0
 4377 0263 B1410000 		.4byte	.LASF101
 4378 0267 05       		.byte	0x5
 4379 0268 00       		.uleb128 0
 4380 0269 4A410000 		.4byte	.LASF102
 4381 026d 05       		.byte	0x5
 4382 026e 00       		.uleb128 0
 4383 026f 94420000 		.4byte	.LASF103
 4384 0273 05       		.byte	0x5
 4385 0274 00       		.uleb128 0
 4386 0275 686A0000 		.4byte	.LASF104
 4387 0279 05       		.byte	0x5
 4388 027a 00       		.uleb128 0
 4389 027b 02970000 		.4byte	.LASF105
 4390 027f 05       		.byte	0x5
 4391 0280 00       		.uleb128 0
 4392 0281 29330000 		.4byte	.LASF106
 4393 0285 05       		.byte	0x5
 4394 0286 00       		.uleb128 0
 4395 0287 BA9C0000 		.4byte	.LASF107
 4396 028b 05       		.byte	0x5
 4397 028c 00       		.uleb128 0
 4398 028d CE3E0000 		.4byte	.LASF108
 4399 0291 05       		.byte	0x5
 4400 0292 00       		.uleb128 0
 4401 0293 EF8D0000 		.4byte	.LASF109
 4402 0297 05       		.byte	0x5
 4403 0298 00       		.uleb128 0
 4404 0299 83110000 		.4byte	.LASF110
 4405 029d 05       		.byte	0x5
 4406 029e 00       		.uleb128 0
 4407 029f 8B5D0000 		.4byte	.LASF111
 4408 02a3 05       		.byte	0x5
 4409 02a4 00       		.uleb128 0
 4410 02a5 D9610000 		.4byte	.LASF112
 4411 02a9 05       		.byte	0x5
 4412 02aa 00       		.uleb128 0
 4413 02ab 7B840000 		.4byte	.LASF113
 4414 02af 05       		.byte	0x5
ARM GAS  /tmp/ccKti1Oq.s 			page 88


 4415 02b0 00       		.uleb128 0
 4416 02b1 FA440000 		.4byte	.LASF114
 4417 02b5 05       		.byte	0x5
 4418 02b6 00       		.uleb128 0
 4419 02b7 043D0000 		.4byte	.LASF115
 4420 02bb 05       		.byte	0x5
 4421 02bc 00       		.uleb128 0
 4422 02bd 4A0A0000 		.4byte	.LASF116
 4423 02c1 05       		.byte	0x5
 4424 02c2 00       		.uleb128 0
 4425 02c3 DD230000 		.4byte	.LASF117
 4426 02c7 05       		.byte	0x5
 4427 02c8 00       		.uleb128 0
 4428 02c9 AE860000 		.4byte	.LASF118
 4429 02cd 05       		.byte	0x5
 4430 02ce 00       		.uleb128 0
 4431 02cf 7C440000 		.4byte	.LASF119
 4432 02d3 05       		.byte	0x5
 4433 02d4 00       		.uleb128 0
 4434 02d5 39350000 		.4byte	.LASF120
 4435 02d9 05       		.byte	0x5
 4436 02da 00       		.uleb128 0
 4437 02db C36F0000 		.4byte	.LASF121
 4438 02df 05       		.byte	0x5
 4439 02e0 00       		.uleb128 0
 4440 02e1 366E0000 		.4byte	.LASF122
 4441 02e5 05       		.byte	0x5
 4442 02e6 00       		.uleb128 0
 4443 02e7 848E0000 		.4byte	.LASF123
 4444 02eb 05       		.byte	0x5
 4445 02ec 00       		.uleb128 0
 4446 02ed AD5F0000 		.4byte	.LASF124
 4447 02f1 05       		.byte	0x5
 4448 02f2 00       		.uleb128 0
 4449 02f3 91760000 		.4byte	.LASF125
 4450 02f7 05       		.byte	0x5
 4451 02f8 00       		.uleb128 0
 4452 02f9 1A150000 		.4byte	.LASF126
 4453 02fd 05       		.byte	0x5
 4454 02fe 00       		.uleb128 0
 4455 02ff 08470000 		.4byte	.LASF127
 4456 0303 05       		.byte	0x5
 4457 0304 00       		.uleb128 0
 4458 0305 068F0000 		.4byte	.LASF128
 4459 0309 05       		.byte	0x5
 4460 030a 00       		.uleb128 0
 4461 030b D6190000 		.4byte	.LASF129
 4462 030f 05       		.byte	0x5
 4463 0310 00       		.uleb128 0
 4464 0311 92100000 		.4byte	.LASF130
 4465 0315 05       		.byte	0x5
 4466 0316 00       		.uleb128 0
 4467 0317 15140000 		.4byte	.LASF131
 4468 031b 05       		.byte	0x5
 4469 031c 00       		.uleb128 0
 4470 031d C7860000 		.4byte	.LASF132
 4471 0321 05       		.byte	0x5
ARM GAS  /tmp/ccKti1Oq.s 			page 89


 4472 0322 00       		.uleb128 0
 4473 0323 301F0000 		.4byte	.LASF133
 4474 0327 05       		.byte	0x5
 4475 0328 00       		.uleb128 0
 4476 0329 10700000 		.4byte	.LASF134
 4477 032d 05       		.byte	0x5
 4478 032e 00       		.uleb128 0
 4479 032f A9150000 		.4byte	.LASF135
 4480 0333 05       		.byte	0x5
 4481 0334 00       		.uleb128 0
 4482 0335 D6550000 		.4byte	.LASF136
 4483 0339 05       		.byte	0x5
 4484 033a 00       		.uleb128 0
 4485 033b EC4A0000 		.4byte	.LASF137
 4486 033f 05       		.byte	0x5
 4487 0340 00       		.uleb128 0
 4488 0341 5B600000 		.4byte	.LASF138
 4489 0345 05       		.byte	0x5
 4490 0346 00       		.uleb128 0
 4491 0347 1F460000 		.4byte	.LASF139
 4492 034b 05       		.byte	0x5
 4493 034c 00       		.uleb128 0
 4494 034d 6B5F0000 		.4byte	.LASF140
 4495 0351 05       		.byte	0x5
 4496 0352 00       		.uleb128 0
 4497 0353 1C480000 		.4byte	.LASF141
 4498 0357 05       		.byte	0x5
 4499 0358 00       		.uleb128 0
 4500 0359 501F0000 		.4byte	.LASF142
 4501 035d 05       		.byte	0x5
 4502 035e 00       		.uleb128 0
 4503 035f C9530000 		.4byte	.LASF143
 4504 0363 05       		.byte	0x5
 4505 0364 00       		.uleb128 0
 4506 0365 944D0000 		.4byte	.LASF144
 4507 0369 05       		.byte	0x5
 4508 036a 00       		.uleb128 0
 4509 036b DF5E0000 		.4byte	.LASF145
 4510 036f 05       		.byte	0x5
 4511 0370 00       		.uleb128 0
 4512 0371 745D0000 		.4byte	.LASF146
 4513 0375 05       		.byte	0x5
 4514 0376 00       		.uleb128 0
 4515 0377 17220000 		.4byte	.LASF147
 4516 037b 05       		.byte	0x5
 4517 037c 00       		.uleb128 0
 4518 037d 661F0000 		.4byte	.LASF148
 4519 0381 05       		.byte	0x5
 4520 0382 00       		.uleb128 0
 4521 0383 8D250000 		.4byte	.LASF149
 4522 0387 05       		.byte	0x5
 4523 0388 00       		.uleb128 0
 4524 0389 45220000 		.4byte	.LASF150
 4525 038d 05       		.byte	0x5
 4526 038e 00       		.uleb128 0
 4527 038f 7A520000 		.4byte	.LASF151
 4528 0393 05       		.byte	0x5
ARM GAS  /tmp/ccKti1Oq.s 			page 90


 4529 0394 00       		.uleb128 0
 4530 0395 B82E0000 		.4byte	.LASF152
 4531 0399 05       		.byte	0x5
 4532 039a 00       		.uleb128 0
 4533 039b F1350000 		.4byte	.LASF153
 4534 039f 05       		.byte	0x5
 4535 03a0 00       		.uleb128 0
 4536 03a1 AC330000 		.4byte	.LASF154
 4537 03a5 05       		.byte	0x5
 4538 03a6 00       		.uleb128 0
 4539 03a7 74080000 		.4byte	.LASF155
 4540 03ab 05       		.byte	0x5
 4541 03ac 00       		.uleb128 0
 4542 03ad 13450000 		.4byte	.LASF156
 4543 03b1 05       		.byte	0x5
 4544 03b2 00       		.uleb128 0
 4545 03b3 31230000 		.4byte	.LASF157
 4546 03b7 05       		.byte	0x5
 4547 03b8 00       		.uleb128 0
 4548 03b9 FB9F0000 		.4byte	.LASF158
 4549 03bd 05       		.byte	0x5
 4550 03be 00       		.uleb128 0
 4551 03bf 30830000 		.4byte	.LASF159
 4552 03c3 05       		.byte	0x5
 4553 03c4 00       		.uleb128 0
 4554 03c5 2D6B0000 		.4byte	.LASF160
 4555 03c9 05       		.byte	0x5
 4556 03ca 00       		.uleb128 0
 4557 03cb 3C9E0000 		.4byte	.LASF161
 4558 03cf 05       		.byte	0x5
 4559 03d0 00       		.uleb128 0
 4560 03d1 074D0000 		.4byte	.LASF162
 4561 03d5 05       		.byte	0x5
 4562 03d6 00       		.uleb128 0
 4563 03d7 62060000 		.4byte	.LASF163
 4564 03db 05       		.byte	0x5
 4565 03dc 00       		.uleb128 0
 4566 03dd 3F8A0000 		.4byte	.LASF164
 4567 03e1 05       		.byte	0x5
 4568 03e2 00       		.uleb128 0
 4569 03e3 44970000 		.4byte	.LASF165
 4570 03e7 05       		.byte	0x5
 4571 03e8 00       		.uleb128 0
 4572 03e9 181A0000 		.4byte	.LASF166
 4573 03ed 05       		.byte	0x5
 4574 03ee 00       		.uleb128 0
 4575 03ef 9E440000 		.4byte	.LASF167
 4576 03f3 05       		.byte	0x5
 4577 03f4 00       		.uleb128 0
 4578 03f5 B78E0000 		.4byte	.LASF168
 4579 03f9 05       		.byte	0x5
 4580 03fa 00       		.uleb128 0
 4581 03fb D1310000 		.4byte	.LASF169
 4582 03ff 05       		.byte	0x5
 4583 0400 00       		.uleb128 0
 4584 0401 49880000 		.4byte	.LASF170
 4585 0405 05       		.byte	0x5
ARM GAS  /tmp/ccKti1Oq.s 			page 91


 4586 0406 00       		.uleb128 0
 4587 0407 C9800000 		.4byte	.LASF171
 4588 040b 05       		.byte	0x5
 4589 040c 00       		.uleb128 0
 4590 040d BF090000 		.4byte	.LASF172
 4591 0411 05       		.byte	0x5
 4592 0412 00       		.uleb128 0
 4593 0413 1D960000 		.4byte	.LASF173
 4594 0417 05       		.byte	0x5
 4595 0418 00       		.uleb128 0
 4596 0419 A6090000 		.4byte	.LASF174
 4597 041d 05       		.byte	0x5
 4598 041e 00       		.uleb128 0
 4599 041f 31630000 		.4byte	.LASF175
 4600 0423 05       		.byte	0x5
 4601 0424 00       		.uleb128 0
 4602 0425 DC280000 		.4byte	.LASF176
 4603 0429 05       		.byte	0x5
 4604 042a 00       		.uleb128 0
 4605 042b BF970000 		.4byte	.LASF177
 4606 042f 05       		.byte	0x5
 4607 0430 00       		.uleb128 0
 4608 0431 55000000 		.4byte	.LASF178
 4609 0435 05       		.byte	0x5
 4610 0436 00       		.uleb128 0
 4611 0437 308E0000 		.4byte	.LASF179
 4612 043b 05       		.byte	0x5
 4613 043c 00       		.uleb128 0
 4614 043d 6A530000 		.4byte	.LASF180
 4615 0441 05       		.byte	0x5
 4616 0442 00       		.uleb128 0
 4617 0443 96850000 		.4byte	.LASF181
 4618 0447 05       		.byte	0x5
 4619 0448 00       		.uleb128 0
 4620 0449 5C4C0000 		.4byte	.LASF182
 4621 044d 05       		.byte	0x5
 4622 044e 00       		.uleb128 0
 4623 044f 394F0000 		.4byte	.LASF183
 4624 0453 05       		.byte	0x5
 4625 0454 00       		.uleb128 0
 4626 0455 D26D0000 		.4byte	.LASF184
 4627 0459 05       		.byte	0x5
 4628 045a 00       		.uleb128 0
 4629 045b F03A0000 		.4byte	.LASF185
 4630 045f 05       		.byte	0x5
 4631 0460 00       		.uleb128 0
 4632 0461 9A540000 		.4byte	.LASF186
 4633 0465 05       		.byte	0x5
 4634 0466 00       		.uleb128 0
 4635 0467 A18E0000 		.4byte	.LASF187
 4636 046b 05       		.byte	0x5
 4637 046c 00       		.uleb128 0
 4638 046d C36C0000 		.4byte	.LASF188
 4639 0471 05       		.byte	0x5
 4640 0472 00       		.uleb128 0
 4641 0473 D30E0000 		.4byte	.LASF189
 4642 0477 05       		.byte	0x5
ARM GAS  /tmp/ccKti1Oq.s 			page 92


 4643 0478 00       		.uleb128 0
 4644 0479 DA650000 		.4byte	.LASF190
 4645 047d 05       		.byte	0x5
 4646 047e 00       		.uleb128 0
 4647 047f 071D0000 		.4byte	.LASF191
 4648 0483 05       		.byte	0x5
 4649 0484 00       		.uleb128 0
 4650 0485 C00D0000 		.4byte	.LASF192
 4651 0489 05       		.byte	0x5
 4652 048a 00       		.uleb128 0
 4653 048b 35090000 		.4byte	.LASF193
 4654 048f 05       		.byte	0x5
 4655 0490 00       		.uleb128 0
 4656 0491 08830000 		.4byte	.LASF194
 4657 0495 05       		.byte	0x5
 4658 0496 00       		.uleb128 0
 4659 0497 897B0000 		.4byte	.LASF195
 4660 049b 05       		.byte	0x5
 4661 049c 00       		.uleb128 0
 4662 049d 8C5A0000 		.4byte	.LASF196
 4663 04a1 05       		.byte	0x5
 4664 04a2 00       		.uleb128 0
 4665 04a3 3A4B0000 		.4byte	.LASF197
 4666 04a7 05       		.byte	0x5
 4667 04a8 00       		.uleb128 0
 4668 04a9 BF720000 		.4byte	.LASF198
 4669 04ad 05       		.byte	0x5
 4670 04ae 00       		.uleb128 0
 4671 04af 9A970000 		.4byte	.LASF199
 4672 04b3 05       		.byte	0x5
 4673 04b4 00       		.uleb128 0
 4674 04b5 7B3A0000 		.4byte	.LASF200
 4675 04b9 05       		.byte	0x5
 4676 04ba 00       		.uleb128 0
 4677 04bb C7880000 		.4byte	.LASF201
 4678 04bf 05       		.byte	0x5
 4679 04c0 00       		.uleb128 0
 4680 04c1 9F960000 		.4byte	.LASF202
 4681 04c5 05       		.byte	0x5
 4682 04c6 00       		.uleb128 0
 4683 04c7 48130000 		.4byte	.LASF203
 4684 04cb 05       		.byte	0x5
 4685 04cc 00       		.uleb128 0
 4686 04cd 31100000 		.4byte	.LASF204
 4687 04d1 05       		.byte	0x5
 4688 04d2 00       		.uleb128 0
 4689 04d3 A4560000 		.4byte	.LASF205
 4690 04d7 05       		.byte	0x5
 4691 04d8 00       		.uleb128 0
 4692 04d9 71240000 		.4byte	.LASF206
 4693 04dd 05       		.byte	0x5
 4694 04de 00       		.uleb128 0
 4695 04df 23040000 		.4byte	.LASF207
 4696 04e3 05       		.byte	0x5
 4697 04e4 00       		.uleb128 0
 4698 04e5 C00A0000 		.4byte	.LASF208
 4699 04e9 05       		.byte	0x5
ARM GAS  /tmp/ccKti1Oq.s 			page 93


 4700 04ea 00       		.uleb128 0
 4701 04eb DE560000 		.4byte	.LASF209
 4702 04ef 05       		.byte	0x5
 4703 04f0 00       		.uleb128 0
 4704 04f1 68000000 		.4byte	.LASF210
 4705 04f5 05       		.byte	0x5
 4706 04f6 00       		.uleb128 0
 4707 04f7 C20F0000 		.4byte	.LASF211
 4708 04fb 05       		.byte	0x5
 4709 04fc 00       		.uleb128 0
 4710 04fd C85E0000 		.4byte	.LASF212
 4711 0501 05       		.byte	0x5
 4712 0502 00       		.uleb128 0
 4713 0503 53020000 		.4byte	.LASF213
 4714 0507 05       		.byte	0x5
 4715 0508 00       		.uleb128 0
 4716 0509 1E810000 		.4byte	.LASF214
 4717 050d 05       		.byte	0x5
 4718 050e 00       		.uleb128 0
 4719 050f 3A9C0000 		.4byte	.LASF215
 4720 0513 05       		.byte	0x5
 4721 0514 00       		.uleb128 0
 4722 0515 3D750000 		.4byte	.LASF216
 4723 0519 05       		.byte	0x5
 4724 051a 00       		.uleb128 0
 4725 051b 8E200000 		.4byte	.LASF217
 4726 051f 05       		.byte	0x5
 4727 0520 00       		.uleb128 0
 4728 0521 FB1D0000 		.4byte	.LASF218
 4729 0525 05       		.byte	0x5
 4730 0526 00       		.uleb128 0
 4731 0527 1E440000 		.4byte	.LASF219
 4732 052b 05       		.byte	0x5
 4733 052c 00       		.uleb128 0
 4734 052d 883B0000 		.4byte	.LASF220
 4735 0531 05       		.byte	0x5
 4736 0532 00       		.uleb128 0
 4737 0533 FE190000 		.4byte	.LASF221
 4738 0537 05       		.byte	0x5
 4739 0538 00       		.uleb128 0
 4740 0539 427B0000 		.4byte	.LASF222
 4741 053d 05       		.byte	0x5
 4742 053e 00       		.uleb128 0
 4743 053f 79560000 		.4byte	.LASF223
 4744 0543 05       		.byte	0x5
 4745 0544 00       		.uleb128 0
 4746 0545 761A0000 		.4byte	.LASF224
 4747 0549 05       		.byte	0x5
 4748 054a 00       		.uleb128 0
 4749 054b 16250000 		.4byte	.LASF225
 4750 054f 05       		.byte	0x5
 4751 0550 00       		.uleb128 0
 4752 0551 7C4D0000 		.4byte	.LASF226
 4753 0555 05       		.byte	0x5
 4754 0556 00       		.uleb128 0
 4755 0557 5B170000 		.4byte	.LASF227
 4756 055b 05       		.byte	0x5
ARM GAS  /tmp/ccKti1Oq.s 			page 94


 4757 055c 00       		.uleb128 0
 4758 055d 471A0000 		.4byte	.LASF228
 4759 0561 05       		.byte	0x5
 4760 0562 00       		.uleb128 0
 4761 0563 D9660000 		.4byte	.LASF229
 4762 0567 05       		.byte	0x5
 4763 0568 00       		.uleb128 0
 4764 0569 CB2F0000 		.4byte	.LASF230
 4765 056d 05       		.byte	0x5
 4766 056e 00       		.uleb128 0
 4767 056f B4470000 		.4byte	.LASF231
 4768 0573 05       		.byte	0x5
 4769 0574 00       		.uleb128 0
 4770 0575 67070000 		.4byte	.LASF232
 4771 0579 05       		.byte	0x5
 4772 057a 00       		.uleb128 0
 4773 057b 3B3B0000 		.4byte	.LASF233
 4774 057f 05       		.byte	0x5
 4775 0580 00       		.uleb128 0
 4776 0581 5E140000 		.4byte	.LASF234
 4777 0585 05       		.byte	0x5
 4778 0586 00       		.uleb128 0
 4779 0587 EE030000 		.4byte	.LASF235
 4780 058b 05       		.byte	0x5
 4781 058c 00       		.uleb128 0
 4782 058d 2E710000 		.4byte	.LASF236
 4783 0591 05       		.byte	0x5
 4784 0592 00       		.uleb128 0
 4785 0593 42600000 		.4byte	.LASF237
 4786 0597 05       		.byte	0x5
 4787 0598 00       		.uleb128 0
 4788 0599 11080000 		.4byte	.LASF238
 4789 059d 05       		.byte	0x5
 4790 059e 00       		.uleb128 0
 4791 059f 058A0000 		.4byte	.LASF239
 4792 05a3 05       		.byte	0x5
 4793 05a4 00       		.uleb128 0
 4794 05a5 AF210000 		.4byte	.LASF240
 4795 05a9 05       		.byte	0x5
 4796 05aa 00       		.uleb128 0
 4797 05ab B0960000 		.4byte	.LASF241
 4798 05af 05       		.byte	0x5
 4799 05b0 00       		.uleb128 0
 4800 05b1 A93F0000 		.4byte	.LASF242
 4801 05b5 05       		.byte	0x5
 4802 05b6 00       		.uleb128 0
 4803 05b7 9E620000 		.4byte	.LASF243
 4804 05bb 05       		.byte	0x5
 4805 05bc 00       		.uleb128 0
 4806 05bd D11A0000 		.4byte	.LASF244
 4807 05c1 05       		.byte	0x5
 4808 05c2 00       		.uleb128 0
 4809 05c3 DD250000 		.4byte	.LASF245
 4810 05c7 05       		.byte	0x5
 4811 05c8 00       		.uleb128 0
 4812 05c9 62840000 		.4byte	.LASF246
 4813 05cd 05       		.byte	0x5
ARM GAS  /tmp/ccKti1Oq.s 			page 95


 4814 05ce 00       		.uleb128 0
 4815 05cf A3250000 		.4byte	.LASF247
 4816 05d3 05       		.byte	0x5
 4817 05d4 00       		.uleb128 0
 4818 05d5 D5000000 		.4byte	.LASF248
 4819 05d9 05       		.byte	0x5
 4820 05da 00       		.uleb128 0
 4821 05db F2280000 		.4byte	.LASF249
 4822 05df 05       		.byte	0x5
 4823 05e0 00       		.uleb128 0
 4824 05e1 009F0000 		.4byte	.LASF250
 4825 05e5 05       		.byte	0x5
 4826 05e6 00       		.uleb128 0
 4827 05e7 FB590000 		.4byte	.LASF251
 4828 05eb 05       		.byte	0x5
 4829 05ec 00       		.uleb128 0
 4830 05ed D9450000 		.4byte	.LASF252
 4831 05f1 05       		.byte	0x5
 4832 05f2 00       		.uleb128 0
 4833 05f3 219C0000 		.4byte	.LASF253
 4834 05f7 05       		.byte	0x5
 4835 05f8 00       		.uleb128 0
 4836 05f9 44110000 		.4byte	.LASF254
 4837 05fd 05       		.byte	0x5
 4838 05fe 00       		.uleb128 0
 4839 05ff 4E400000 		.4byte	.LASF255
 4840 0603 05       		.byte	0x5
 4841 0604 00       		.uleb128 0
 4842 0605 E32F0000 		.4byte	.LASF256
 4843 0609 05       		.byte	0x5
 4844 060a 00       		.uleb128 0
 4845 060b 60300000 		.4byte	.LASF257
 4846 060f 05       		.byte	0x5
 4847 0610 00       		.uleb128 0
 4848 0611 500E0000 		.4byte	.LASF258
 4849 0615 05       		.byte	0x5
 4850 0616 00       		.uleb128 0
 4851 0617 DA3F0000 		.4byte	.LASF259
 4852 061b 05       		.byte	0x5
 4853 061c 00       		.uleb128 0
 4854 061d 1F230000 		.4byte	.LASF260
 4855 0621 05       		.byte	0x5
 4856 0622 00       		.uleb128 0
 4857 0623 F9850000 		.4byte	.LASF261
 4858 0627 05       		.byte	0x5
 4859 0628 00       		.uleb128 0
 4860 0629 A0060000 		.4byte	.LASF262
 4861 062d 05       		.byte	0x5
 4862 062e 00       		.uleb128 0
 4863 062f 5A5D0000 		.4byte	.LASF263
 4864 0633 05       		.byte	0x5
 4865 0634 00       		.uleb128 0
 4866 0635 67490000 		.4byte	.LASF264
 4867 0639 05       		.byte	0x5
 4868 063a 00       		.uleb128 0
 4869 063b 9B860000 		.4byte	.LASF265
 4870 063f 05       		.byte	0x5
ARM GAS  /tmp/ccKti1Oq.s 			page 96


 4871 0640 00       		.uleb128 0
 4872 0641 426A0000 		.4byte	.LASF266
 4873 0645 05       		.byte	0x5
 4874 0646 00       		.uleb128 0
 4875 0647 75160000 		.4byte	.LASF267
 4876 064b 05       		.byte	0x5
 4877 064c 00       		.uleb128 0
 4878 064d 20590000 		.4byte	.LASF268
 4879 0651 05       		.byte	0x5
 4880 0652 00       		.uleb128 0
 4881 0653 BA520000 		.4byte	.LASF269
 4882 0657 05       		.byte	0x5
 4883 0658 00       		.uleb128 0
 4884 0659 938D0000 		.4byte	.LASF270
 4885 065d 05       		.byte	0x5
 4886 065e 00       		.uleb128 0
 4887 065f 766A0000 		.4byte	.LASF271
 4888 0663 05       		.byte	0x5
 4889 0664 00       		.uleb128 0
 4890 0665 97040000 		.4byte	.LASF272
 4891 0669 05       		.byte	0x5
 4892 066a 00       		.uleb128 0
 4893 066b 99600000 		.4byte	.LASF273
 4894 066f 05       		.byte	0x5
 4895 0670 00       		.uleb128 0
 4896 0671 97630000 		.4byte	.LASF274
 4897 0675 05       		.byte	0x5
 4898 0676 00       		.uleb128 0
 4899 0677 F20F0000 		.4byte	.LASF275
 4900 067b 05       		.byte	0x5
 4901 067c 00       		.uleb128 0
 4902 067d 0FA00000 		.4byte	.LASF276
 4903 0681 05       		.byte	0x5
 4904 0682 00       		.uleb128 0
 4905 0683 AB8C0000 		.4byte	.LASF277
 4906 0687 05       		.byte	0x5
 4907 0688 00       		.uleb128 0
 4908 0689 4D740000 		.4byte	.LASF278
 4909 068d 05       		.byte	0x5
 4910 068e 00       		.uleb128 0
 4911 068f 3F830000 		.4byte	.LASF279
 4912 0693 05       		.byte	0x5
 4913 0694 00       		.uleb128 0
 4914 0695 86970000 		.4byte	.LASF280
 4915 0699 05       		.byte	0x5
 4916 069a 00       		.uleb128 0
 4917 069b 58930000 		.4byte	.LASF281
 4918 069f 05       		.byte	0x5
 4919 06a0 00       		.uleb128 0
 4920 06a1 0F8E0000 		.4byte	.LASF282
 4921 06a5 05       		.byte	0x5
 4922 06a6 00       		.uleb128 0
 4923 06a7 5E810000 		.4byte	.LASF283
 4924 06ab 05       		.byte	0x5
 4925 06ac 00       		.uleb128 0
 4926 06ad E69B0000 		.4byte	.LASF284
 4927 06b1 05       		.byte	0x5
ARM GAS  /tmp/ccKti1Oq.s 			page 97


 4928 06b2 00       		.uleb128 0
 4929 06b3 770C0000 		.4byte	.LASF285
 4930 06b7 05       		.byte	0x5
 4931 06b8 00       		.uleb128 0
 4932 06b9 EA4F0000 		.4byte	.LASF286
 4933 06bd 05       		.byte	0x5
 4934 06be 00       		.uleb128 0
 4935 06bf 72920000 		.4byte	.LASF287
 4936 06c3 05       		.byte	0x5
 4937 06c4 00       		.uleb128 0
 4938 06c5 421D0000 		.4byte	.LASF288
 4939 06c9 05       		.byte	0x5
 4940 06ca 00       		.uleb128 0
 4941 06cb A68D0000 		.4byte	.LASF289
 4942 06cf 05       		.byte	0x5
 4943 06d0 00       		.uleb128 0
 4944 06d1 43A10000 		.4byte	.LASF290
 4945 06d5 05       		.byte	0x5
 4946 06d6 00       		.uleb128 0
 4947 06d7 9E720000 		.4byte	.LASF291
 4948 06db 05       		.byte	0x5
 4949 06dc 00       		.uleb128 0
 4950 06dd 2B740000 		.4byte	.LASF292
 4951 06e1 05       		.byte	0x5
 4952 06e2 00       		.uleb128 0
 4953 06e3 56240000 		.4byte	.LASF293
 4954 06e7 05       		.byte	0x5
 4955 06e8 00       		.uleb128 0
 4956 06e9 58940000 		.4byte	.LASF294
 4957 06ed 05       		.byte	0x5
 4958 06ee 00       		.uleb128 0
 4959 06ef 55390000 		.4byte	.LASF295
 4960 06f3 05       		.byte	0x5
 4961 06f4 00       		.uleb128 0
 4962 06f5 2A5E0000 		.4byte	.LASF296
 4963 06f9 05       		.byte	0x5
 4964 06fa 00       		.uleb128 0
 4965 06fb 1E090000 		.4byte	.LASF297
 4966 06ff 05       		.byte	0x5
 4967 0700 00       		.uleb128 0
 4968 0701 4A070000 		.4byte	.LASF298
 4969 0705 05       		.byte	0x5
 4970 0706 00       		.uleb128 0
 4971 0707 AB800000 		.4byte	.LASF299
 4972 070b 05       		.byte	0x5
 4973 070c 00       		.uleb128 0
 4974 070d E1180000 		.4byte	.LASF300
 4975 0711 05       		.byte	0x5
 4976 0712 00       		.uleb128 0
 4977 0713 CF850000 		.4byte	.LASF301
 4978 0717 05       		.byte	0x5
 4979 0718 00       		.uleb128 0
 4980 0719 FC040000 		.4byte	.LASF302
 4981 071d 05       		.byte	0x5
 4982 071e 00       		.uleb128 0
 4983 071f 4D6E0000 		.4byte	.LASF303
 4984 0723 05       		.byte	0x5
ARM GAS  /tmp/ccKti1Oq.s 			page 98


 4985 0724 00       		.uleb128 0
 4986 0725 C2950000 		.4byte	.LASF304
 4987 0729 05       		.byte	0x5
 4988 072a 00       		.uleb128 0
 4989 072b 9E520000 		.4byte	.LASF305
 4990 072f 05       		.byte	0x5
 4991 0730 00       		.uleb128 0
 4992 0731 47190000 		.4byte	.LASF306
 4993 0735 05       		.byte	0x5
 4994 0736 00       		.uleb128 0
 4995 0737 A4350000 		.4byte	.LASF307
 4996 073b 05       		.byte	0x5
 4997 073c 00       		.uleb128 0
 4998 073d 674E0000 		.4byte	.LASF308
 4999 0741 05       		.byte	0x5
 5000 0742 00       		.uleb128 0
 5001 0743 DD370000 		.4byte	.LASF309
 5002 0747 05       		.byte	0x5
 5003 0748 00       		.uleb128 0
 5004 0749 4C3A0000 		.4byte	.LASF310
 5005 074d 05       		.byte	0x5
 5006 074e 00       		.uleb128 0
 5007 074f 90840000 		.4byte	.LASF311
 5008 0753 05       		.byte	0x5
 5009 0754 00       		.uleb128 0
 5010 0755 608E0000 		.4byte	.LASF312
 5011 0759 05       		.byte	0x5
 5012 075a 00       		.uleb128 0
 5013 075b A7740000 		.4byte	.LASF313
 5014 075f 05       		.byte	0x5
 5015 0760 00       		.uleb128 0
 5016 0761 ED020000 		.4byte	.LASF314
 5017 0765 05       		.byte	0x5
 5018 0766 00       		.uleb128 0
 5019 0767 DA8A0000 		.4byte	.LASF315
 5020 076b 05       		.byte	0x5
 5021 076c 00       		.uleb128 0
 5022 076d BD710000 		.4byte	.LASF316
 5023 0771 05       		.byte	0x5
 5024 0772 00       		.uleb128 0
 5025 0773 2B530000 		.4byte	.LASF317
 5026 0777 05       		.byte	0x5
 5027 0778 00       		.uleb128 0
 5028 0779 E2770000 		.4byte	.LASF318
 5029 077d 05       		.byte	0x5
 5030 077e 00       		.uleb128 0
 5031 077f DD950000 		.4byte	.LASF319
 5032 0783 05       		.byte	0x5
 5033 0784 00       		.uleb128 0
 5034 0785 0D7D0000 		.4byte	.LASF320
 5035 0789 05       		.byte	0x5
 5036 078a 00       		.uleb128 0
 5037 078b 1A490000 		.4byte	.LASF321
 5038 078f 05       		.byte	0x5
 5039 0790 00       		.uleb128 0
 5040 0791 C6020000 		.4byte	.LASF322
 5041 0795 05       		.byte	0x5
ARM GAS  /tmp/ccKti1Oq.s 			page 99


 5042 0796 00       		.uleb128 0
 5043 0797 61400000 		.4byte	.LASF323
 5044 079b 05       		.byte	0x5
 5045 079c 00       		.uleb128 0
 5046 079d 43760000 		.4byte	.LASF324
 5047 07a1 05       		.byte	0x5
 5048 07a2 00       		.uleb128 0
 5049 07a3 C4290000 		.4byte	.LASF325
 5050 07a7 05       		.byte	0x5
 5051 07a8 00       		.uleb128 0
 5052 07a9 568D0000 		.4byte	.LASF326
 5053 07ad 05       		.byte	0x5
 5054 07ae 00       		.uleb128 0
 5055 07af ED8E0000 		.4byte	.LASF327
 5056 07b3 05       		.byte	0x5
 5057 07b4 00       		.uleb128 0
 5058 07b5 F55D0000 		.4byte	.LASF328
 5059 07b9 05       		.byte	0x5
 5060 07ba 00       		.uleb128 0
 5061 07bb EE330000 		.4byte	.LASF329
 5062 07bf 05       		.byte	0x5
 5063 07c0 00       		.uleb128 0
 5064 07c1 9D8C0000 		.4byte	.LASF330
 5065 07c5 05       		.byte	0x5
 5066 07c6 00       		.uleb128 0
 5067 07c7 5E7C0000 		.4byte	.LASF331
 5068 07cb 05       		.byte	0x5
 5069 07cc 00       		.uleb128 0
 5070 07cd E3980000 		.4byte	.LASF332
 5071 07d1 05       		.byte	0x5
 5072 07d2 00       		.uleb128 0
 5073 07d3 1C390000 		.4byte	.LASF333
 5074 07d7 05       		.byte	0x5
 5075 07d8 00       		.uleb128 0
 5076 07d9 24120000 		.4byte	.LASF334
 5077 07dd 05       		.byte	0x5
 5078 07de 00       		.uleb128 0
 5079 07df CE070000 		.4byte	.LASF335
 5080 07e3 05       		.byte	0x5
 5081 07e4 00       		.uleb128 0
 5082 07e5 B0720000 		.4byte	.LASF336
 5083 07e9 05       		.byte	0x5
 5084 07ea 00       		.uleb128 0
 5085 07eb CA780000 		.4byte	.LASF337
 5086 07ef 05       		.byte	0x5
 5087 07f0 00       		.uleb128 0
 5088 07f1 A3280000 		.4byte	.LASF338
 5089 07f5 05       		.byte	0x5
 5090 07f6 00       		.uleb128 0
 5091 07f7 15040000 		.4byte	.LASF339
 5092 07fb 05       		.byte	0x5
 5093 07fc 00       		.uleb128 0
 5094 07fd F35F0000 		.4byte	.LASF340
 5095 0801 05       		.byte	0x5
 5096 0802 00       		.uleb128 0
 5097 0803 E8520000 		.4byte	.LASF341
 5098 0807 05       		.byte	0x5
ARM GAS  /tmp/ccKti1Oq.s 			page 100


 5099 0808 00       		.uleb128 0
 5100 0809 12130000 		.4byte	.LASF342
 5101 080d 05       		.byte	0x5
 5102 080e 00       		.uleb128 0
 5103 080f B47D0000 		.4byte	.LASF343
 5104 0813 05       		.byte	0x5
 5105 0814 00       		.uleb128 0
 5106 0815 97110000 		.4byte	.LASF344
 5107 0819 05       		.byte	0x5
 5108 081a 00       		.uleb128 0
 5109 081b 4D7D0000 		.4byte	.LASF345
 5110 081f 05       		.byte	0x5
 5111 0820 00       		.uleb128 0
 5112 0821 655C0000 		.4byte	.LASF346
 5113 0825 05       		.byte	0x5
 5114 0826 00       		.uleb128 0
 5115 0827 16930000 		.4byte	.LASF347
 5116 082b 05       		.byte	0x5
 5117 082c 00       		.uleb128 0
 5118 082d 80750000 		.4byte	.LASF348
 5119 0831 05       		.byte	0x5
 5120 0832 00       		.uleb128 0
 5121 0833 FB7A0000 		.4byte	.LASF349
 5122 0837 05       		.byte	0x5
 5123 0838 00       		.uleb128 0
 5124 0839 DC2E0000 		.4byte	.LASF350
 5125 083d 05       		.byte	0x5
 5126 083e 00       		.uleb128 0
 5127 083f B6550000 		.4byte	.LASF351
 5128 0843 05       		.byte	0x5
 5129 0844 00       		.uleb128 0
 5130 0845 0A7B0000 		.4byte	.LASF352
 5131 0849 05       		.byte	0x5
 5132 084a 00       		.uleb128 0
 5133 084b 09460000 		.4byte	.LASF353
 5134 084f 05       		.byte	0x5
 5135 0850 00       		.uleb128 0
 5136 0851 01330000 		.4byte	.LASF354
 5137 0855 05       		.byte	0x5
 5138 0856 00       		.uleb128 0
 5139 0857 379D0000 		.4byte	.LASF355
 5140 085b 05       		.byte	0x5
 5141 085c 00       		.uleb128 0
 5142 085d 1D1D0000 		.4byte	.LASF356
 5143 0861 05       		.byte	0x5
 5144 0862 00       		.uleb128 0
 5145 0863 BE010000 		.4byte	.LASF357
 5146 0867 05       		.byte	0x5
 5147 0868 00       		.uleb128 0
 5148 0869 190C0000 		.4byte	.LASF358
 5149 086d 05       		.byte	0x5
 5150 086e 00       		.uleb128 0
 5151 086f 99950000 		.4byte	.LASF359
 5152 0873 05       		.byte	0x5
 5153 0874 00       		.uleb128 0
 5154 0875 F6620000 		.4byte	.LASF360
 5155 0879 05       		.byte	0x5
ARM GAS  /tmp/ccKti1Oq.s 			page 101


 5156 087a 00       		.uleb128 0
 5157 087b 192D0000 		.4byte	.LASF361
 5158 087f 05       		.byte	0x5
 5159 0880 00       		.uleb128 0
 5160 0881 3A1B0000 		.4byte	.LASF362
 5161 0885 05       		.byte	0x5
 5162 0886 00       		.uleb128 0
 5163 0887 3B050000 		.4byte	.LASF363
 5164 088b 05       		.byte	0x5
 5165 088c 00       		.uleb128 0
 5166 088d 7F120000 		.4byte	.LASF364
 5167 0891 05       		.byte	0x5
 5168 0892 00       		.uleb128 0
 5169 0893 468D0000 		.4byte	.LASF365
 5170 0897 05       		.byte	0x5
 5171 0898 00       		.uleb128 0
 5172 0899 5E440000 		.4byte	.LASF366
 5173 089d 05       		.byte	0x5
 5174 089e 00       		.uleb128 0
 5175 089f 33410000 		.4byte	.LASF367
 5176 08a3 05       		.byte	0x5
 5177 08a4 00       		.uleb128 0
 5178 08a5 D80D0000 		.4byte	.LASF368
 5179 08a9 05       		.byte	0x5
 5180 08aa 00       		.uleb128 0
 5181 08ab F5860000 		.4byte	.LASF369
 5182 08af 05       		.byte	0x5
 5183 08b0 00       		.uleb128 0
 5184 08b1 2E7E0000 		.4byte	.LASF370
 5185 08b5 05       		.byte	0x5
 5186 08b6 00       		.uleb128 0
 5187 08b7 F40B0000 		.4byte	.LASF371
 5188 08bb 05       		.byte	0x5
 5189 08bc 00       		.uleb128 0
 5190 08bd 292D0000 		.4byte	.LASF372
 5191 08c1 05       		.byte	0x5
 5192 08c2 00       		.uleb128 0
 5193 08c3 116E0000 		.4byte	.LASF373
 5194 08c7 05       		.byte	0x5
 5195 08c8 00       		.uleb128 0
 5196 08c9 371C0000 		.4byte	.LASF374
 5197 08cd 05       		.byte	0x5
 5198 08ce 00       		.uleb128 0
 5199 08cf 72630000 		.4byte	.LASF375
 5200 08d3 05       		.byte	0x5
 5201 08d4 00       		.uleb128 0
 5202 08d5 1E860000 		.4byte	.LASF376
 5203 08d9 05       		.byte	0x5
 5204 08da 00       		.uleb128 0
 5205 08db 8D230000 		.4byte	.LASF377
 5206 08df 05       		.byte	0x5
 5207 08e0 00       		.uleb128 0
 5208 08e1 75010000 		.4byte	.LASF378
 5209 08e5 05       		.byte	0x5
 5210 08e6 00       		.uleb128 0
 5211 08e7 74380000 		.4byte	.LASF379
 5212 08eb 05       		.byte	0x5
ARM GAS  /tmp/ccKti1Oq.s 			page 102


 5213 08ec 00       		.uleb128 0
 5214 08ed 117E0000 		.4byte	.LASF380
 5215 08f1 05       		.byte	0x5
 5216 08f2 00       		.uleb128 0
 5217 08f3 0D530000 		.4byte	.LASF381
 5218 08f7 05       		.byte	0x5
 5219 08f8 00       		.uleb128 0
 5220 08f9 EA550000 		.4byte	.LASF382
 5221 08fd 05       		.byte	0x5
 5222 08fe 00       		.uleb128 0
 5223 08ff 7A390000 		.4byte	.LASF383
 5224 0903 05       		.byte	0x5
 5225 0904 00       		.uleb128 0
 5226 0905 AC420000 		.4byte	.LASF384
 5227 0909 05       		.byte	0x5
 5228 090a 00       		.uleb128 0
 5229 090b A9450000 		.4byte	.LASF385
 5230 090f 05       		.byte	0x5
 5231 0910 00       		.uleb128 0
 5232 0911 AE2C0000 		.4byte	.LASF386
 5233 0915 05       		.byte	0x5
 5234 0916 00       		.uleb128 0
 5235 0917 19580000 		.4byte	.LASF387
 5236 091b 05       		.byte	0x5
 5237 091c 00       		.uleb128 0
 5238 091d DB8D0000 		.4byte	.LASF388
 5239 0921 05       		.byte	0x5
 5240 0922 00       		.uleb128 0
 5241 0923 B9600000 		.4byte	.LASF389
 5242 0927 06       		.byte	0x6
 5243 0928 00       		.uleb128 0
 5244 0929 C4550000 		.4byte	.LASF390
 5245 092d 05       		.byte	0x5
 5246 092e 00       		.uleb128 0
 5247 092f CD420000 		.4byte	.LASF391
 5248 0933 05       		.byte	0x5
 5249 0934 00       		.uleb128 0
 5250 0935 894F0000 		.4byte	.LASF392
 5251 0939 06       		.byte	0x6
 5252 093a 00       		.uleb128 0
 5253 093b AB6E0000 		.4byte	.LASF393
 5254 093f 05       		.byte	0x5
 5255 0940 00       		.uleb128 0
 5256 0941 8D810000 		.4byte	.LASF394
 5257 0945 06       		.byte	0x6
 5258 0946 00       		.uleb128 0
 5259 0947 9C680000 		.4byte	.LASF395
 5260 094b 05       		.byte	0x5
 5261 094c 00       		.uleb128 0
 5262 094d 546A0000 		.4byte	.LASF396
 5263 0951 05       		.byte	0x5
 5264 0952 00       		.uleb128 0
 5265 0953 7B9B0000 		.4byte	.LASF397
 5266 0957 05       		.byte	0x5
 5267 0958 00       		.uleb128 0
 5268 0959 E2420000 		.4byte	.LASF398
 5269 095d 06       		.byte	0x6
ARM GAS  /tmp/ccKti1Oq.s 			page 103


 5270 095e 00       		.uleb128 0
 5271 095f C37D0000 		.4byte	.LASF399
 5272 0963 06       		.byte	0x6
 5273 0964 00       		.uleb128 0
 5274 0965 7D670000 		.4byte	.LASF400
 5275 0969 05       		.byte	0x5
 5276 096a 00       		.uleb128 0
 5277 096b 95640000 		.4byte	.LASF401
 5278 096f 05       		.byte	0x5
 5279 0970 00       		.uleb128 0
 5280 0971 07440000 		.4byte	.LASF402
 5281 0975 05       		.byte	0x5
 5282 0976 00       		.uleb128 0
 5283 0977 A3080000 		.4byte	.LASF403
 5284 097b 05       		.byte	0x5
 5285 097c 00       		.uleb128 0
 5286 097d 38650000 		.4byte	.LASF404
 5287 0981 05       		.byte	0x5
 5288 0982 00       		.uleb128 0
 5289 0983 90530000 		.4byte	.LASF405
 5290 0987 05       		.byte	0x5
 5291 0988 00       		.uleb128 0
 5292 0989 67720000 		.4byte	.LASF406
 5293 098d 05       		.byte	0x5
 5294 098e 00       		.uleb128 0
 5295 098f B3970000 		.4byte	.LASF407
 5296 0993 05       		.byte	0x5
 5297 0994 00       		.uleb128 0
 5298 0995 C3900000 		.4byte	.LASF408
 5299 0999 05       		.byte	0x5
 5300 099a 00       		.uleb128 0
 5301 099b EF7B0000 		.4byte	.LASF409
 5302 099f 05       		.byte	0x5
 5303 09a0 00       		.uleb128 0
 5304 09a1 3C690000 		.4byte	.LASF410
 5305 09a5 05       		.byte	0x5
 5306 09a6 00       		.uleb128 0
 5307 09a7 02980000 		.4byte	.LASF411
 5308 09ab 05       		.byte	0x5
 5309 09ac 00       		.uleb128 0
 5310 09ad 26470000 		.4byte	.LASF412
 5311 09b1 05       		.byte	0x5
 5312 09b2 00       		.uleb128 0
 5313 09b3 81150000 		.4byte	.LASF413
 5314 09b7 06       		.byte	0x6
 5315 09b8 00       		.uleb128 0
 5316 09b9 84550000 		.4byte	.LASF414
 5317 09bd 06       		.byte	0x6
 5318 09be 00       		.uleb128 0
 5319 09bf 91460000 		.4byte	.LASF415
 5320 09c3 06       		.byte	0x6
 5321 09c4 00       		.uleb128 0
 5322 09c5 93660000 		.4byte	.LASF416
 5323 09c9 06       		.byte	0x6
 5324 09ca 00       		.uleb128 0
 5325 09cb 73580000 		.4byte	.LASF417
 5326 09cf 06       		.byte	0x6
ARM GAS  /tmp/ccKti1Oq.s 			page 104


 5327 09d0 00       		.uleb128 0
 5328 09d1 55800000 		.4byte	.LASF418
 5329 09d5 06       		.byte	0x6
 5330 09d6 00       		.uleb128 0
 5331 09d7 C91E0000 		.4byte	.LASF419
 5332 09db 06       		.byte	0x6
 5333 09dc 00       		.uleb128 0
 5334 09dd 95740000 		.4byte	.LASF420
 5335 09e1 06       		.byte	0x6
 5336 09e2 00       		.uleb128 0
 5337 09e3 DC1C0000 		.4byte	.LASF421
 5338 09e7 06       		.byte	0x6
 5339 09e8 00       		.uleb128 0
 5340 09e9 AA0E0000 		.4byte	.LASF422
 5341 09ed 06       		.byte	0x6
 5342 09ee 00       		.uleb128 0
 5343 09ef B75A0000 		.4byte	.LASF423
 5344 09f3 05       		.byte	0x5
 5345 09f4 00       		.uleb128 0
 5346 09f5 2C1D0000 		.4byte	.LASF424
 5347 09f9 05       		.byte	0x5
 5348 09fa 00       		.uleb128 0
 5349 09fb BF1A0000 		.4byte	.LASF425
 5350 09ff 05       		.byte	0x5
 5351 0a00 00       		.uleb128 0
 5352 0a01 173C0000 		.4byte	.LASF426
 5353 0a05 05       		.byte	0x5
 5354 0a06 00       		.uleb128 0
 5355 0a07 D1670000 		.4byte	.LASF427
 5356 0a0b 05       		.byte	0x5
 5357 0a0c 00       		.uleb128 0
 5358 0a0d FF3B0000 		.4byte	.LASF428
 5359 0a11 05       		.byte	0x5
 5360 0a12 00       		.uleb128 0
 5361 0a13 11610000 		.4byte	.LASF429
 5362 0a17 05       		.byte	0x5
 5363 0a18 00       		.uleb128 0
 5364 0a19 B08F0000 		.4byte	.LASF430
 5365 0a1d 05       		.byte	0x5
 5366 0a1e 00       		.uleb128 0
 5367 0a1f E8490000 		.4byte	.LASF431
 5368 0a23 05       		.byte	0x5
 5369 0a24 00       		.uleb128 0
 5370 0a25 C67B0000 		.4byte	.LASF432
 5371 0a29 05       		.byte	0x5
 5372 0a2a 00       		.uleb128 0
 5373 0a2b 81290000 		.4byte	.LASF433
 5374 0a2f 00       		.byte	0
 5375              		.section	.debug_macro,"G",%progbits,wm4.LPC17xx.h.27.964facdaadd4aa3f18ac78c8a78f0013,comdat
 5376              	.Ldebug_macro2:
 5377 0000 0400     		.2byte	0x4
 5378 0002 00       		.byte	0
 5379 0003 05       		.byte	0x5
 5380 0004 1B       		.uleb128 0x1b
 5381 0005 D1130000 		.4byte	.LASF435
 5382 0009 05       		.byte	0x5
 5383 000a 62       		.uleb128 0x62
ARM GAS  /tmp/ccKti1Oq.s 			page 105


 5384 000b 204A0000 		.4byte	.LASF436
 5385 000f 05       		.byte	0x5
 5386 0010 63       		.uleb128 0x63
 5387 0011 872D0000 		.4byte	.LASF437
 5388 0015 05       		.byte	0x5
 5389 0016 64       		.uleb128 0x64
 5390 0017 886A0000 		.4byte	.LASF438
 5391 001b 00       		.byte	0
 5392              		.section	.debug_macro,"G",%progbits,wm4.core_cm3.h.32.ec4df48419563a0d596421d1133ac586,comdat
 5393              	.Ldebug_macro3:
 5394 0000 0400     		.2byte	0x4
 5395 0002 00       		.byte	0
 5396 0003 05       		.byte	0x5
 5397 0004 20       		.uleb128 0x20
 5398 0005 B82D0000 		.4byte	.LASF439
 5399 0009 05       		.byte	0x5
 5400 000a 37       		.uleb128 0x37
 5401 000b 0E710000 		.4byte	.LASF440
 5402 000f 05       		.byte	0x5
 5403 0010 38       		.uleb128 0x38
 5404 0011 C33D0000 		.4byte	.LASF441
 5405 0015 05       		.byte	0x5
 5406 0016 39       		.uleb128 0x39
 5407 0017 8B270000 		.4byte	.LASF442
 5408 001b 05       		.byte	0x5
 5409 001c 3B       		.uleb128 0x3b
 5410 001d A5490000 		.4byte	.LASF443
 5411 0021 05       		.byte	0x5
 5412 0022 47       		.uleb128 0x47
 5413 0023 F2140000 		.4byte	.LASF444
 5414 0027 05       		.byte	0x5
 5415 0028 48       		.uleb128 0x48
 5416 0029 755C0000 		.4byte	.LASF445
 5417 002d 00       		.byte	0
 5418              		.section	.debug_macro,"G",%progbits,wm4._newlib_version.h.4.3572908597b70d672d181fc7fc501c19,comda
 5419              	.Ldebug_macro4:
 5420 0000 0400     		.2byte	0x4
 5421 0002 00       		.byte	0
 5422 0003 05       		.byte	0x5
 5423 0004 04       		.uleb128 0x4
 5424 0005 F7520000 		.4byte	.LASF449
 5425 0009 05       		.byte	0x5
 5426 000a 06       		.uleb128 0x6
 5427 000b 53690000 		.4byte	.LASF450
 5428 000f 05       		.byte	0x5
 5429 0010 07       		.uleb128 0x7
 5430 0011 D5210000 		.4byte	.LASF451
 5431 0015 05       		.byte	0x5
 5432 0016 08       		.uleb128 0x8
 5433 0017 7B200000 		.4byte	.LASF452
 5434 001b 05       		.byte	0x5
 5435 001c 09       		.uleb128 0x9
 5436 001d 8E700000 		.4byte	.LASF453
 5437 0021 00       		.byte	0
 5438              		.section	.debug_macro,"G",%progbits,wm4.features.h.33.863f3be0b2e521e624fcc7d6fa31d2ca,comdat
 5439              	.Ldebug_macro5:
 5440 0000 0400     		.2byte	0x4
ARM GAS  /tmp/ccKti1Oq.s 			page 106


 5441 0002 00       		.byte	0
 5442 0003 05       		.byte	0x5
 5443 0004 21       		.uleb128 0x21
 5444 0005 F3180000 		.4byte	.LASF454
 5445 0009 05       		.byte	0x5
 5446 000a 28       		.uleb128 0x28
 5447 000b F98C0000 		.4byte	.LASF455
 5448 000f 06       		.byte	0x6
 5449 0010 8001     		.uleb128 0x80
 5450 0012 3F910000 		.4byte	.LASF456
 5451 0016 05       		.byte	0x5
 5452 0017 8101     		.uleb128 0x81
 5453 0019 854A0000 		.4byte	.LASF457
 5454 001d 06       		.byte	0x6
 5455 001e 8501     		.uleb128 0x85
 5456 0020 CB460000 		.4byte	.LASF458
 5457 0024 05       		.byte	0x5
 5458 0025 8601     		.uleb128 0x86
 5459 0027 F7940000 		.4byte	.LASF459
 5460 002b 06       		.byte	0x6
 5461 002c 8701     		.uleb128 0x87
 5462 002e C59F0000 		.4byte	.LASF460
 5463 0032 05       		.byte	0x5
 5464 0033 8801     		.uleb128 0x88
 5465 0035 181F0000 		.4byte	.LASF461
 5466 0039 06       		.byte	0x6
 5467 003a 9B01     		.uleb128 0x9b
 5468 003c E5410000 		.4byte	.LASF462
 5469 0040 05       		.byte	0x5
 5470 0041 9C01     		.uleb128 0x9c
 5471 0043 0D5A0000 		.4byte	.LASF463
 5472 0047 05       		.byte	0x5
 5473 0048 F201     		.uleb128 0xf2
 5474 004a F83F0000 		.4byte	.LASF464
 5475 004e 05       		.byte	0x5
 5476 004f F801     		.uleb128 0xf8
 5477 0051 63580000 		.4byte	.LASF465
 5478 0055 05       		.byte	0x5
 5479 0056 8002     		.uleb128 0x100
 5480 0058 8E720000 		.4byte	.LASF466
 5481 005c 05       		.byte	0x5
 5482 005d 8802     		.uleb128 0x108
 5483 005f 30220000 		.4byte	.LASF467
 5484 0063 05       		.byte	0x5
 5485 0064 9002     		.uleb128 0x110
 5486 0066 99210000 		.4byte	.LASF468
 5487 006a 05       		.byte	0x5
 5488 006b 9402     		.uleb128 0x114
 5489 006d 816D0000 		.4byte	.LASF469
 5490 0071 05       		.byte	0x5
 5491 0072 9A02     		.uleb128 0x11a
 5492 0074 D15B0000 		.4byte	.LASF470
 5493 0078 05       		.byte	0x5
 5494 0079 AA02     		.uleb128 0x12a
 5495 007b 94000000 		.4byte	.LASF471
 5496 007f 05       		.byte	0x5
 5497 0080 BA02     		.uleb128 0x13a
ARM GAS  /tmp/ccKti1Oq.s 			page 107


 5498 0082 428C0000 		.4byte	.LASF472
 5499 0086 00       		.byte	0
 5500              		.section	.debug_macro,"G",%progbits,wm4._default_types.h.15.247e5cd201eca3442cbf5404108c4935,comda
 5501              	.Ldebug_macro6:
 5502 0000 0400     		.2byte	0x4
 5503 0002 00       		.byte	0
 5504 0003 05       		.byte	0x5
 5505 0004 0F       		.uleb128 0xf
 5506 0005 505A0000 		.4byte	.LASF473
 5507 0009 05       		.byte	0x5
 5508 000a 1A       		.uleb128 0x1a
 5509 000b AF760000 		.4byte	.LASF474
 5510 000f 05       		.byte	0x5
 5511 0010 21       		.uleb128 0x21
 5512 0011 9A8A0000 		.4byte	.LASF475
 5513 0015 05       		.byte	0x5
 5514 0016 2F       		.uleb128 0x2f
 5515 0017 C5450000 		.4byte	.LASF476
 5516 001b 05       		.byte	0x5
 5517 001c 3D       		.uleb128 0x3d
 5518 001d F1300000 		.4byte	.LASF477
 5519 0021 05       		.byte	0x5
 5520 0022 53       		.uleb128 0x53
 5521 0023 D7970000 		.4byte	.LASF478
 5522 0027 05       		.byte	0x5
 5523 0028 6D       		.uleb128 0x6d
 5524 0029 BD6D0000 		.4byte	.LASF479
 5525 002d 05       		.byte	0x5
 5526 002e 8C01     		.uleb128 0x8c
 5527 0030 F7600000 		.4byte	.LASF480
 5528 0034 05       		.byte	0x5
 5529 0035 A601     		.uleb128 0xa6
 5530 0037 A41A0000 		.4byte	.LASF481
 5531 003b 05       		.byte	0x5
 5532 003c BC01     		.uleb128 0xbc
 5533 003e 3A800000 		.4byte	.LASF482
 5534 0042 05       		.byte	0x5
 5535 0043 CE01     		.uleb128 0xce
 5536 0045 6B590000 		.4byte	.LASF483
 5537 0049 06       		.byte	0x6
 5538 004a F401     		.uleb128 0xf4
 5539 004c B76D0000 		.4byte	.LASF484
 5540 0050 00       		.byte	0
 5541              		.section	.debug_macro,"G",%progbits,wm4._intsup.h.10.cce27fed8484c08a33f522034c30d2b5,comdat
 5542              	.Ldebug_macro7:
 5543 0000 0400     		.2byte	0x4
 5544 0002 00       		.byte	0
 5545 0003 05       		.byte	0x5
 5546 0004 0A       		.uleb128 0xa
 5547 0005 16940000 		.4byte	.LASF485
 5548 0009 05       		.byte	0x5
 5549 000a 10       		.uleb128 0x10
 5550 000b D8240000 		.4byte	.LASF486
 5551 000f 06       		.byte	0x6
 5552 0010 2A       		.uleb128 0x2a
 5553 0011 18460000 		.4byte	.LASF487
 5554 0015 06       		.byte	0x6
ARM GAS  /tmp/ccKti1Oq.s 			page 108


 5555 0016 2B       		.uleb128 0x2b
 5556 0017 910A0000 		.4byte	.LASF488
 5557 001b 06       		.byte	0x6
 5558 001c 2C       		.uleb128 0x2c
 5559 001d 142D0000 		.4byte	.LASF489
 5560 0021 06       		.byte	0x6
 5561 0022 2D       		.uleb128 0x2d
 5562 0023 166A0000 		.4byte	.LASF490
 5563 0027 02       		.byte	0x2
 5564 0028 2E       		.uleb128 0x2e
 5565 0029 696E7400 		.ascii	"int\000"
 5566 002d 06       		.byte	0x6
 5567 002e 2F       		.uleb128 0x2f
 5568 002f D79E0000 		.4byte	.LASF491
 5569 0033 06       		.byte	0x6
 5570 0034 30       		.uleb128 0x30
 5571 0035 ED690000 		.4byte	.LASF492
 5572 0039 05       		.byte	0x5
 5573 003a 31       		.uleb128 0x31
 5574 003b 660D0000 		.4byte	.LASF493
 5575 003f 05       		.byte	0x5
 5576 0040 32       		.uleb128 0x32
 5577 0041 38970000 		.4byte	.LASF494
 5578 0045 05       		.byte	0x5
 5579 0046 33       		.uleb128 0x33
 5580 0047 91600000 		.4byte	.LASF495
 5581 004b 05       		.byte	0x5
 5582 004c 34       		.uleb128 0x34
 5583 004d 719D0000 		.4byte	.LASF496
 5584 0051 05       		.byte	0x5
 5585 0052 35       		.uleb128 0x35
 5586 0053 064F0000 		.4byte	.LASF497
 5587 0057 05       		.byte	0x5
 5588 0058 36       		.uleb128 0x36
 5589 0059 F34D0000 		.4byte	.LASF498
 5590 005d 05       		.byte	0x5
 5591 005e 37       		.uleb128 0x37
 5592 005f D59A0000 		.4byte	.LASF499
 5593 0063 05       		.byte	0x5
 5594 0064 40       		.uleb128 0x40
 5595 0065 F7430000 		.4byte	.LASF500
 5596 0069 05       		.byte	0x5
 5597 006a 47       		.uleb128 0x47
 5598 006b 71990000 		.4byte	.LASF501
 5599 006f 05       		.byte	0x5
 5600 0070 4F       		.uleb128 0x4f
 5601 0071 D30B0000 		.4byte	.LASF502
 5602 0075 05       		.byte	0x5
 5603 0076 5A       		.uleb128 0x5a
 5604 0077 C45F0000 		.4byte	.LASF503
 5605 007b 05       		.byte	0x5
 5606 007c 65       		.uleb128 0x65
 5607 007d A48F0000 		.4byte	.LASF504
 5608 0081 05       		.byte	0x5
 5609 0082 6E       		.uleb128 0x6e
 5610 0083 9C150000 		.4byte	.LASF505
 5611 0087 05       		.byte	0x5
ARM GAS  /tmp/ccKti1Oq.s 			page 109


 5612 0088 75       		.uleb128 0x75
 5613 0089 398C0000 		.4byte	.LASF506
 5614 008d 05       		.byte	0x5
 5615 008e 7E       		.uleb128 0x7e
 5616 008f 73210000 		.4byte	.LASF507
 5617 0093 05       		.byte	0x5
 5618 0094 8501     		.uleb128 0x85
 5619 0096 FC4E0000 		.4byte	.LASF508
 5620 009a 05       		.byte	0x5
 5621 009b 9001     		.uleb128 0x90
 5622 009d 1C4D0000 		.4byte	.LASF509
 5623 00a1 05       		.byte	0x5
 5624 00a2 9401     		.uleb128 0x94
 5625 00a4 D7330000 		.4byte	.LASF510
 5626 00a8 05       		.byte	0x5
 5627 00a9 9F01     		.uleb128 0x9f
 5628 00ab E7860000 		.4byte	.LASF511
 5629 00af 05       		.byte	0x5
 5630 00b0 AA01     		.uleb128 0xaa
 5631 00b2 8E150000 		.4byte	.LASF512
 5632 00b6 05       		.byte	0x5
 5633 00b7 B301     		.uleb128 0xb3
 5634 00b9 FF6C0000 		.4byte	.LASF513
 5635 00bd 06       		.byte	0x6
 5636 00be B501     		.uleb128 0xb5
 5637 00c0 18460000 		.4byte	.LASF487
 5638 00c4 06       		.byte	0x6
 5639 00c5 B601     		.uleb128 0xb6
 5640 00c7 910A0000 		.4byte	.LASF488
 5641 00cb 06       		.byte	0x6
 5642 00cc B701     		.uleb128 0xb7
 5643 00ce 142D0000 		.4byte	.LASF489
 5644 00d2 06       		.byte	0x6
 5645 00d3 B801     		.uleb128 0xb8
 5646 00d5 166A0000 		.4byte	.LASF490
 5647 00d9 02       		.byte	0x2
 5648 00da B901     		.uleb128 0xb9
 5649 00dc 696E7400 		.ascii	"int\000"
 5650 00e0 06       		.byte	0x6
 5651 00e1 BA01     		.uleb128 0xba
 5652 00e3 ED690000 		.4byte	.LASF492
 5653 00e7 06       		.byte	0x6
 5654 00e8 BF01     		.uleb128 0xbf
 5655 00ea D79E0000 		.4byte	.LASF491
 5656 00ee 00       		.byte	0
 5657              		.section	.debug_macro,"G",%progbits,wm4._stdint.h.10.c24fa3af3bc1706662bb5593a907e841,comdat
 5658              	.Ldebug_macro8:
 5659 0000 0400     		.2byte	0x4
 5660 0002 00       		.byte	0
 5661 0003 05       		.byte	0x5
 5662 0004 0A       		.uleb128 0xa
 5663 0005 754A0000 		.4byte	.LASF514
 5664 0009 05       		.byte	0x5
 5665 000a 15       		.uleb128 0x15
 5666 000b 19800000 		.4byte	.LASF515
 5667 000f 05       		.byte	0x5
 5668 0010 19       		.uleb128 0x19
ARM GAS  /tmp/ccKti1Oq.s 			page 110


 5669 0011 9D220000 		.4byte	.LASF516
 5670 0015 05       		.byte	0x5
 5671 0016 1B       		.uleb128 0x1b
 5672 0017 BE310000 		.4byte	.LASF517
 5673 001b 05       		.byte	0x5
 5674 001c 21       		.uleb128 0x21
 5675 001d 673E0000 		.4byte	.LASF518
 5676 0021 05       		.byte	0x5
 5677 0022 25       		.uleb128 0x25
 5678 0023 D1120000 		.4byte	.LASF519
 5679 0027 05       		.byte	0x5
 5680 0028 27       		.uleb128 0x27
 5681 0029 D64F0000 		.4byte	.LASF520
 5682 002d 05       		.byte	0x5
 5683 002e 2D       		.uleb128 0x2d
 5684 002f 874E0000 		.4byte	.LASF521
 5685 0033 05       		.byte	0x5
 5686 0034 31       		.uleb128 0x31
 5687 0035 55030000 		.4byte	.LASF522
 5688 0039 05       		.byte	0x5
 5689 003a 33       		.uleb128 0x33
 5690 003b 73470000 		.4byte	.LASF523
 5691 003f 05       		.byte	0x5
 5692 0040 39       		.uleb128 0x39
 5693 0041 C9790000 		.4byte	.LASF524
 5694 0045 05       		.byte	0x5
 5695 0046 3D       		.uleb128 0x3d
 5696 0047 0C5D0000 		.4byte	.LASF525
 5697 004b 05       		.byte	0x5
 5698 004c 3F       		.uleb128 0x3f
 5699 004d 698B0000 		.4byte	.LASF526
 5700 0051 05       		.byte	0x5
 5701 0052 44       		.uleb128 0x44
 5702 0053 79360000 		.4byte	.LASF527
 5703 0057 05       		.byte	0x5
 5704 0058 49       		.uleb128 0x49
 5705 0059 D9730000 		.4byte	.LASF528
 5706 005d 05       		.byte	0x5
 5707 005e 4E       		.uleb128 0x4e
 5708 005f 3F170000 		.4byte	.LASF529
 5709 0063 05       		.byte	0x5
 5710 0064 53       		.uleb128 0x53
 5711 0065 8A770000 		.4byte	.LASF530
 5712 0069 00       		.byte	0
 5713              		.section	.debug_macro,"G",%progbits,wm4.stdint.h.23.d53047a68f4a85177f80b422d52785ed,comdat
 5714              	.Ldebug_macro9:
 5715 0000 0400     		.2byte	0x4
 5716 0002 00       		.byte	0
 5717 0003 05       		.byte	0x5
 5718 0004 17       		.uleb128 0x17
 5719 0005 B59A0000 		.4byte	.LASF531
 5720 0009 05       		.byte	0x5
 5721 000a 1D       		.uleb128 0x1d
 5722 000b C3370000 		.4byte	.LASF532
 5723 000f 05       		.byte	0x5
 5724 0010 23       		.uleb128 0x23
 5725 0011 19410000 		.4byte	.LASF533
ARM GAS  /tmp/ccKti1Oq.s 			page 111


 5726 0015 05       		.byte	0x5
 5727 0016 29       		.uleb128 0x29
 5728 0017 E73E0000 		.4byte	.LASF534
 5729 001b 05       		.byte	0x5
 5730 001c 35       		.uleb128 0x35
 5731 001d A6610000 		.4byte	.LASF535
 5732 0021 05       		.byte	0x5
 5733 0022 3F       		.uleb128 0x3f
 5734 0023 815F0000 		.4byte	.LASF536
 5735 0027 05       		.byte	0x5
 5736 0028 49       		.uleb128 0x49
 5737 0029 79100000 		.4byte	.LASF537
 5738 002d 05       		.byte	0x5
 5739 002e 53       		.uleb128 0x53
 5740 002f 68290000 		.4byte	.LASF538
 5741 0033 05       		.byte	0x5
 5742 0034 8001     		.uleb128 0x80
 5743 0036 529F0000 		.4byte	.LASF539
 5744 003a 05       		.byte	0x5
 5745 003b 8101     		.uleb128 0x81
 5746 003d B5620000 		.4byte	.LASF540
 5747 0041 05       		.byte	0x5
 5748 0042 8201     		.uleb128 0x82
 5749 0044 E91C0000 		.4byte	.LASF541
 5750 0048 05       		.byte	0x5
 5751 0049 9801     		.uleb128 0x98
 5752 004b F4410000 		.4byte	.LASF542
 5753 004f 05       		.byte	0x5
 5754 0050 9901     		.uleb128 0x99
 5755 0052 3A0D0000 		.4byte	.LASF543
 5756 0056 05       		.byte	0x5
 5757 0057 9A01     		.uleb128 0x9a
 5758 0059 629A0000 		.4byte	.LASF544
 5759 005d 05       		.byte	0x5
 5760 005e A201     		.uleb128 0xa2
 5761 0060 AA8A0000 		.4byte	.LASF545
 5762 0064 05       		.byte	0x5
 5763 0065 A301     		.uleb128 0xa3
 5764 0067 CE140000 		.4byte	.LASF546
 5765 006b 05       		.byte	0x5
 5766 006c A401     		.uleb128 0xa4
 5767 006e DD880000 		.4byte	.LASF547
 5768 0072 05       		.byte	0x5
 5769 0073 AE01     		.uleb128 0xae
 5770 0075 52660000 		.4byte	.LASF548
 5771 0079 05       		.byte	0x5
 5772 007a AF01     		.uleb128 0xaf
 5773 007c 770F0000 		.4byte	.LASF549
 5774 0080 05       		.byte	0x5
 5775 0081 B001     		.uleb128 0xb0
 5776 0083 BC690000 		.4byte	.LASF550
 5777 0087 05       		.byte	0x5
 5778 0088 B801     		.uleb128 0xb8
 5779 008a 2A390000 		.4byte	.LASF551
 5780 008e 05       		.byte	0x5
 5781 008f B901     		.uleb128 0xb9
 5782 0091 280C0000 		.4byte	.LASF552
ARM GAS  /tmp/ccKti1Oq.s 			page 112


 5783 0095 05       		.byte	0x5
 5784 0096 BA01     		.uleb128 0xba
 5785 0098 11350000 		.4byte	.LASF553
 5786 009c 05       		.byte	0x5
 5787 009d C401     		.uleb128 0xc4
 5788 009f D07B0000 		.4byte	.LASF554
 5789 00a3 05       		.byte	0x5
 5790 00a4 C501     		.uleb128 0xc5
 5791 00a6 D0320000 		.4byte	.LASF555
 5792 00aa 05       		.byte	0x5
 5793 00ab C601     		.uleb128 0xc6
 5794 00ad 2F540000 		.4byte	.LASF556
 5795 00b1 05       		.byte	0x5
 5796 00b2 D401     		.uleb128 0xd4
 5797 00b4 36850000 		.4byte	.LASF557
 5798 00b8 05       		.byte	0x5
 5799 00b9 D501     		.uleb128 0xd5
 5800 00bb 3F380000 		.4byte	.LASF558
 5801 00bf 05       		.byte	0x5
 5802 00c0 D601     		.uleb128 0xd6
 5803 00c2 A7810000 		.4byte	.LASF559
 5804 00c6 05       		.byte	0x5
 5805 00c7 E601     		.uleb128 0xe6
 5806 00c9 33870000 		.4byte	.LASF560
 5807 00cd 05       		.byte	0x5
 5808 00ce E701     		.uleb128 0xe7
 5809 00d0 F25C0000 		.4byte	.LASF561
 5810 00d4 05       		.byte	0x5
 5811 00d5 E801     		.uleb128 0xe8
 5812 00d7 7D210000 		.4byte	.LASF562
 5813 00db 05       		.byte	0x5
 5814 00dc F601     		.uleb128 0xf6
 5815 00de 28160000 		.4byte	.LASF563
 5816 00e2 05       		.byte	0x5
 5817 00e3 F701     		.uleb128 0xf7
 5818 00e5 22130000 		.4byte	.LASF564
 5819 00e9 05       		.byte	0x5
 5820 00ea F801     		.uleb128 0xf8
 5821 00ec 5B710000 		.4byte	.LASF565
 5822 00f0 05       		.byte	0x5
 5823 00f1 8602     		.uleb128 0x106
 5824 00f3 505E0000 		.4byte	.LASF566
 5825 00f7 05       		.byte	0x5
 5826 00f8 8702     		.uleb128 0x107
 5827 00fa F1270000 		.4byte	.LASF567
 5828 00fe 05       		.byte	0x5
 5829 00ff 8802     		.uleb128 0x108
 5830 0101 E5710000 		.4byte	.LASF568
 5831 0105 05       		.byte	0x5
 5832 0106 9602     		.uleb128 0x116
 5833 0108 0A0A0000 		.4byte	.LASF569
 5834 010c 05       		.byte	0x5
 5835 010d 9702     		.uleb128 0x117
 5836 010f D20C0000 		.4byte	.LASF570
 5837 0113 05       		.byte	0x5
 5838 0114 9802     		.uleb128 0x118
 5839 0116 38810000 		.4byte	.LASF571
ARM GAS  /tmp/ccKti1Oq.s 			page 113


 5840 011a 05       		.byte	0x5
 5841 011b A602     		.uleb128 0x126
 5842 011d 75170000 		.4byte	.LASF572
 5843 0121 05       		.byte	0x5
 5844 0122 A702     		.uleb128 0x127
 5845 0124 8D360000 		.4byte	.LASF573
 5846 0128 05       		.byte	0x5
 5847 0129 A802     		.uleb128 0x128
 5848 012b EB7D0000 		.4byte	.LASF574
 5849 012f 05       		.byte	0x5
 5850 0130 B602     		.uleb128 0x136
 5851 0132 EE660000 		.4byte	.LASF575
 5852 0136 05       		.byte	0x5
 5853 0137 B702     		.uleb128 0x137
 5854 0139 AA940000 		.4byte	.LASF576
 5855 013d 05       		.byte	0x5
 5856 013e B802     		.uleb128 0x138
 5857 0140 5E550000 		.4byte	.LASF577
 5858 0144 05       		.byte	0x5
 5859 0145 C602     		.uleb128 0x146
 5860 0147 B4320000 		.4byte	.LASF578
 5861 014b 05       		.byte	0x5
 5862 014c C702     		.uleb128 0x147
 5863 014e CB220000 		.4byte	.LASF579
 5864 0152 05       		.byte	0x5
 5865 0153 CF02     		.uleb128 0x14f
 5866 0155 FA4D0000 		.4byte	.LASF580
 5867 0159 05       		.byte	0x5
 5868 015a D702     		.uleb128 0x157
 5869 015c 89780000 		.4byte	.LASF581
 5870 0160 05       		.byte	0x5
 5871 0161 DD02     		.uleb128 0x15d
 5872 0163 E23D0000 		.4byte	.LASF582
 5873 0167 05       		.byte	0x5
 5874 0168 DE02     		.uleb128 0x15e
 5875 016a 382F0000 		.4byte	.LASF583
 5876 016e 05       		.byte	0x5
 5877 016f E202     		.uleb128 0x162
 5878 0171 700D0000 		.4byte	.LASF584
 5879 0175 05       		.byte	0x5
 5880 0176 E602     		.uleb128 0x166
 5881 0178 682D0000 		.4byte	.LASF585
 5882 017c 05       		.byte	0x5
 5883 017d EB02     		.uleb128 0x16b
 5884 017f 05230000 		.4byte	.LASF586
 5885 0183 05       		.byte	0x5
 5886 0184 F602     		.uleb128 0x176
 5887 0186 77140000 		.4byte	.LASF587
 5888 018a 05       		.byte	0x5
 5889 018b 8003     		.uleb128 0x180
 5890 018d 31550000 		.4byte	.LASF588
 5891 0191 05       		.byte	0x5
 5892 0192 8503     		.uleb128 0x185
 5893 0194 2A000000 		.4byte	.LASF589
 5894 0198 05       		.byte	0x5
 5895 0199 8C03     		.uleb128 0x18c
 5896 019b 88480000 		.4byte	.LASF590
ARM GAS  /tmp/ccKti1Oq.s 			page 114


 5897 019f 05       		.byte	0x5
 5898 01a0 8D03     		.uleb128 0x18d
 5899 01a2 EF830000 		.4byte	.LASF591
 5900 01a6 05       		.byte	0x5
 5901 01a7 9803     		.uleb128 0x198
 5902 01a9 2C110000 		.4byte	.LASF592
 5903 01ad 05       		.byte	0x5
 5904 01ae 9903     		.uleb128 0x199
 5905 01b0 6B930000 		.4byte	.LASF593
 5906 01b4 05       		.byte	0x5
 5907 01b5 A403     		.uleb128 0x1a4
 5908 01b7 A5000000 		.4byte	.LASF594
 5909 01bb 05       		.byte	0x5
 5910 01bc A503     		.uleb128 0x1a5
 5911 01be A45D0000 		.4byte	.LASF595
 5912 01c2 05       		.byte	0x5
 5913 01c3 B103     		.uleb128 0x1b1
 5914 01c5 CD410000 		.4byte	.LASF596
 5915 01c9 05       		.byte	0x5
 5916 01ca B203     		.uleb128 0x1b2
 5917 01cc F37C0000 		.4byte	.LASF597
 5918 01d0 05       		.byte	0x5
 5919 01d1 C103     		.uleb128 0x1c1
 5920 01d3 4E2D0000 		.4byte	.LASF598
 5921 01d7 05       		.byte	0x5
 5922 01d8 C203     		.uleb128 0x1c2
 5923 01da 656D0000 		.4byte	.LASF599
 5924 01de 00       		.byte	0
 5925              		.section	.debug_macro,"G",%progbits,wm4.core_cmInstr.h.25.367280a3dbe1a27f086157cbbb6352e1,comdat
 5926              	.Ldebug_macro10:
 5927 0000 0400     		.2byte	0x4
 5928 0002 00       		.byte	0
 5929 0003 05       		.byte	0x5
 5930 0004 19       		.uleb128 0x19
 5931 0005 CF980000 		.4byte	.LASF601
 5932 0009 05       		.byte	0x5
 5933 000a CE05     		.uleb128 0x2ce
 5934 000c 040B0000 		.4byte	.LASF602
 5935 0010 05       		.byte	0x5
 5936 0011 DE05     		.uleb128 0x2de
 5937 0013 7D870000 		.4byte	.LASF603
 5938 0017 00       		.byte	0
 5939              		.section	.debug_macro,"G",%progbits,wm4.core_cm3.h.90.d0c8a7fd6bb95729c958e48b22262446,comdat
 5940              	.Ldebug_macro11:
 5941 0000 0400     		.2byte	0x4
 5942 0002 00       		.byte	0
 5943 0003 05       		.byte	0x5
 5944 0004 5A       		.uleb128 0x5a
 5945 0005 E44E0000 		.4byte	.LASF605
 5946 0009 05       		.byte	0x5
 5947 000a 60       		.uleb128 0x60
 5948 000b CD8B0000 		.4byte	.LASF606
 5949 000f 05       		.byte	0x5
 5950 0010 62       		.uleb128 0x62
 5951 0011 8F3D0000 		.4byte	.LASF607
 5952 0015 05       		.byte	0x5
 5953 0016 63       		.uleb128 0x63
ARM GAS  /tmp/ccKti1Oq.s 			page 115


 5954 0017 3A890000 		.4byte	.LASF608
 5955 001b 05       		.byte	0x5
 5956 001c 8702     		.uleb128 0x107
 5957 001e C3760000 		.4byte	.LASF609
 5958 0022 05       		.byte	0x5
 5959 0023 8802     		.uleb128 0x108
 5960 0025 33470000 		.4byte	.LASF610
 5961 0029 05       		.byte	0x5
 5962 002a 8A02     		.uleb128 0x10a
 5963 002c 59790000 		.4byte	.LASF611
 5964 0030 05       		.byte	0x5
 5965 0031 8B02     		.uleb128 0x10b
 5966 0033 BE5D0000 		.4byte	.LASF612
 5967 0037 05       		.byte	0x5
 5968 0038 8D02     		.uleb128 0x10d
 5969 003a 4F350000 		.4byte	.LASF613
 5970 003e 05       		.byte	0x5
 5971 003f 8E02     		.uleb128 0x10e
 5972 0041 97050000 		.4byte	.LASF614
 5973 0045 05       		.byte	0x5
 5974 0046 9002     		.uleb128 0x110
 5975 0048 61510000 		.4byte	.LASF615
 5976 004c 05       		.byte	0x5
 5977 004d 9102     		.uleb128 0x111
 5978 004f A16A0000 		.4byte	.LASF616
 5979 0053 05       		.byte	0x5
 5980 0054 9402     		.uleb128 0x114
 5981 0056 928B0000 		.4byte	.LASF617
 5982 005a 05       		.byte	0x5
 5983 005b 9502     		.uleb128 0x115
 5984 005d 66350000 		.4byte	.LASF618
 5985 0061 05       		.byte	0x5
 5986 0062 9702     		.uleb128 0x117
 5987 0064 3D3D0000 		.4byte	.LASF619
 5988 0068 05       		.byte	0x5
 5989 0069 9802     		.uleb128 0x118
 5990 006b F5810000 		.4byte	.LASF620
 5991 006f 05       		.byte	0x5
 5992 0070 9A02     		.uleb128 0x11a
 5993 0072 568A0000 		.4byte	.LASF621
 5994 0076 05       		.byte	0x5
 5995 0077 9B02     		.uleb128 0x11b
 5996 0079 75330000 		.4byte	.LASF622
 5997 007d 05       		.byte	0x5
 5998 007e 9D02     		.uleb128 0x11d
 5999 0080 200D0000 		.4byte	.LASF623
 6000 0084 05       		.byte	0x5
 6001 0085 9E02     		.uleb128 0x11e
 6002 0087 E7080000 		.4byte	.LASF624
 6003 008b 05       		.byte	0x5
 6004 008c A002     		.uleb128 0x120
 6005 008e 335D0000 		.4byte	.LASF625
 6006 0092 05       		.byte	0x5
 6007 0093 A102     		.uleb128 0x121
 6008 0095 922B0000 		.4byte	.LASF626
 6009 0099 05       		.byte	0x5
 6010 009a A302     		.uleb128 0x123
ARM GAS  /tmp/ccKti1Oq.s 			page 116


 6011 009c 57680000 		.4byte	.LASF627
 6012 00a0 05       		.byte	0x5
 6013 00a1 A402     		.uleb128 0x124
 6014 00a3 E3470000 		.4byte	.LASF628
 6015 00a7 05       		.byte	0x5
 6016 00a8 A602     		.uleb128 0x126
 6017 00aa 2C820000 		.4byte	.LASF629
 6018 00ae 05       		.byte	0x5
 6019 00af A702     		.uleb128 0x127
 6020 00b1 35450000 		.4byte	.LASF630
 6021 00b5 05       		.byte	0x5
 6022 00b6 A902     		.uleb128 0x129
 6023 00b8 EC580000 		.4byte	.LASF631
 6024 00bc 05       		.byte	0x5
 6025 00bd AA02     		.uleb128 0x12a
 6026 00bf D0390000 		.4byte	.LASF632
 6027 00c3 05       		.byte	0x5
 6028 00c4 AC02     		.uleb128 0x12c
 6029 00c6 F0200000 		.4byte	.LASF633
 6030 00ca 05       		.byte	0x5
 6031 00cb AD02     		.uleb128 0x12d
 6032 00cd C4590000 		.4byte	.LASF634
 6033 00d1 05       		.byte	0x5
 6034 00d2 AF02     		.uleb128 0x12f
 6035 00d4 390F0000 		.4byte	.LASF635
 6036 00d8 05       		.byte	0x5
 6037 00d9 B002     		.uleb128 0x130
 6038 00db 19240000 		.4byte	.LASF636
 6039 00df 05       		.byte	0x5
 6040 00e0 B302     		.uleb128 0x133
 6041 00e2 EA960000 		.4byte	.LASF637
 6042 00e6 05       		.byte	0x5
 6043 00e7 B402     		.uleb128 0x134
 6044 00e9 5E830000 		.4byte	.LASF638
 6045 00ed 05       		.byte	0x5
 6046 00ee B602     		.uleb128 0x136
 6047 00f0 29910000 		.4byte	.LASF639
 6048 00f4 05       		.byte	0x5
 6049 00f5 B702     		.uleb128 0x137
 6050 00f7 1B020000 		.4byte	.LASF640
 6051 00fb 05       		.byte	0x5
 6052 00fc BA02     		.uleb128 0x13a
 6053 00fe B54C0000 		.4byte	.LASF641
 6054 0102 05       		.byte	0x5
 6055 0103 BB02     		.uleb128 0x13b
 6056 0105 975B0000 		.4byte	.LASF642
 6057 0109 05       		.byte	0x5
 6058 010a BD02     		.uleb128 0x13d
 6059 010c 42530000 		.4byte	.LASF643
 6060 0110 05       		.byte	0x5
 6061 0111 BE02     		.uleb128 0x13e
 6062 0113 569E0000 		.4byte	.LASF644
 6063 0117 05       		.byte	0x5
 6064 0118 C002     		.uleb128 0x140
 6065 011a EE8A0000 		.4byte	.LASF645
 6066 011e 05       		.byte	0x5
 6067 011f C102     		.uleb128 0x141
ARM GAS  /tmp/ccKti1Oq.s 			page 117


 6068 0121 91830000 		.4byte	.LASF646
 6069 0125 05       		.byte	0x5
 6070 0126 C302     		.uleb128 0x143
 6071 0128 66120000 		.4byte	.LASF647
 6072 012c 05       		.byte	0x5
 6073 012d C402     		.uleb128 0x144
 6074 012f 2D2C0000 		.4byte	.LASF648
 6075 0133 05       		.byte	0x5
 6076 0134 C602     		.uleb128 0x146
 6077 0136 733D0000 		.4byte	.LASF649
 6078 013a 05       		.byte	0x5
 6079 013b C702     		.uleb128 0x147
 6080 013d F2980000 		.4byte	.LASF650
 6081 0141 05       		.byte	0x5
 6082 0142 C902     		.uleb128 0x149
 6083 0144 81990000 		.4byte	.LASF651
 6084 0148 05       		.byte	0x5
 6085 0149 CA02     		.uleb128 0x14a
 6086 014b 43040000 		.4byte	.LASF652
 6087 014f 05       		.byte	0x5
 6088 0150 CC02     		.uleb128 0x14c
 6089 0152 71820000 		.4byte	.LASF653
 6090 0156 05       		.byte	0x5
 6091 0157 CD02     		.uleb128 0x14d
 6092 0159 81430000 		.4byte	.LASF654
 6093 015d 05       		.byte	0x5
 6094 015e D002     		.uleb128 0x150
 6095 0160 65670000 		.4byte	.LASF655
 6096 0164 05       		.byte	0x5
 6097 0165 D102     		.uleb128 0x151
 6098 0167 AF9D0000 		.4byte	.LASF656
 6099 016b 05       		.byte	0x5
 6100 016c D302     		.uleb128 0x153
 6101 016e 7D310000 		.4byte	.LASF657
 6102 0172 05       		.byte	0x5
 6103 0173 D402     		.uleb128 0x154
 6104 0175 E2210000 		.4byte	.LASF658
 6105 0179 05       		.byte	0x5
 6106 017a D602     		.uleb128 0x156
 6107 017c 63310000 		.4byte	.LASF659
 6108 0180 05       		.byte	0x5
 6109 0181 D702     		.uleb128 0x157
 6110 0183 E3260000 		.4byte	.LASF660
 6111 0187 05       		.byte	0x5
 6112 0188 DA02     		.uleb128 0x15a
 6113 018a 094A0000 		.4byte	.LASF661
 6114 018e 05       		.byte	0x5
 6115 018f DB02     		.uleb128 0x15b
 6116 0191 971D0000 		.4byte	.LASF662
 6117 0195 05       		.byte	0x5
 6118 0196 DD02     		.uleb128 0x15d
 6119 0198 7D740000 		.4byte	.LASF663
 6120 019c 05       		.byte	0x5
 6121 019d DE02     		.uleb128 0x15e
 6122 019f F2740000 		.4byte	.LASF664
 6123 01a3 05       		.byte	0x5
 6124 01a4 E002     		.uleb128 0x160
ARM GAS  /tmp/ccKti1Oq.s 			page 118


 6125 01a6 79760000 		.4byte	.LASF665
 6126 01aa 05       		.byte	0x5
 6127 01ab E102     		.uleb128 0x161
 6128 01ad 5F370000 		.4byte	.LASF666
 6129 01b1 05       		.byte	0x5
 6130 01b2 E302     		.uleb128 0x163
 6131 01b4 7B640000 		.4byte	.LASF667
 6132 01b8 05       		.byte	0x5
 6133 01b9 E402     		.uleb128 0x164
 6134 01bb 3B080000 		.4byte	.LASF668
 6135 01bf 05       		.byte	0x5
 6136 01c0 E602     		.uleb128 0x166
 6137 01c2 F1840000 		.4byte	.LASF669
 6138 01c6 05       		.byte	0x5
 6139 01c7 E702     		.uleb128 0x167
 6140 01c9 6C020000 		.4byte	.LASF670
 6141 01cd 05       		.byte	0x5
 6142 01ce E902     		.uleb128 0x169
 6143 01d0 F6010000 		.4byte	.LASF671
 6144 01d4 05       		.byte	0x5
 6145 01d5 EA02     		.uleb128 0x16a
 6146 01d7 8A160000 		.4byte	.LASF672
 6147 01db 05       		.byte	0x5
 6148 01dc ED02     		.uleb128 0x16d
 6149 01de B76B0000 		.4byte	.LASF673
 6150 01e2 05       		.byte	0x5
 6151 01e3 EE02     		.uleb128 0x16e
 6152 01e5 0B7A0000 		.4byte	.LASF674
 6153 01e9 05       		.byte	0x5
 6154 01ea F002     		.uleb128 0x170
 6155 01ec 3D340000 		.4byte	.LASF675
 6156 01f0 05       		.byte	0x5
 6157 01f1 F102     		.uleb128 0x171
 6158 01f3 BA750000 		.4byte	.LASF676
 6159 01f7 05       		.byte	0x5
 6160 01f8 F302     		.uleb128 0x173
 6161 01fa 069A0000 		.4byte	.LASF677
 6162 01fe 05       		.byte	0x5
 6163 01ff F402     		.uleb128 0x174
 6164 0201 0F3A0000 		.4byte	.LASF678
 6165 0205 05       		.byte	0x5
 6166 0206 F602     		.uleb128 0x176
 6167 0208 7D860000 		.4byte	.LASF679
 6168 020c 05       		.byte	0x5
 6169 020d F702     		.uleb128 0x177
 6170 020f CE640000 		.4byte	.LASF680
 6171 0213 05       		.byte	0x5
 6172 0214 F902     		.uleb128 0x179
 6173 0216 FD7B0000 		.4byte	.LASF681
 6174 021a 05       		.byte	0x5
 6175 021b FA02     		.uleb128 0x17a
 6176 021d 5C3F0000 		.4byte	.LASF682
 6177 0221 05       		.byte	0x5
 6178 0222 FC02     		.uleb128 0x17c
 6179 0224 83710000 		.4byte	.LASF683
 6180 0228 05       		.byte	0x5
 6181 0229 FD02     		.uleb128 0x17d
ARM GAS  /tmp/ccKti1Oq.s 			page 119


 6182 022b AA4B0000 		.4byte	.LASF684
 6183 022f 05       		.byte	0x5
 6184 0230 FF02     		.uleb128 0x17f
 6185 0232 FC780000 		.4byte	.LASF685
 6186 0236 05       		.byte	0x5
 6187 0237 8003     		.uleb128 0x180
 6188 0239 4F2B0000 		.4byte	.LASF686
 6189 023d 05       		.byte	0x5
 6190 023e 8203     		.uleb128 0x182
 6191 0240 A15C0000 		.4byte	.LASF687
 6192 0244 05       		.byte	0x5
 6193 0245 8303     		.uleb128 0x183
 6194 0247 C92B0000 		.4byte	.LASF688
 6195 024b 05       		.byte	0x5
 6196 024c 8503     		.uleb128 0x185
 6197 024e D21F0000 		.4byte	.LASF689
 6198 0252 05       		.byte	0x5
 6199 0253 8603     		.uleb128 0x186
 6200 0255 D9290000 		.4byte	.LASF690
 6201 0259 05       		.byte	0x5
 6202 025a 8803     		.uleb128 0x188
 6203 025c 414C0000 		.4byte	.LASF691
 6204 0260 05       		.byte	0x5
 6205 0261 8903     		.uleb128 0x189
 6206 0263 427E0000 		.4byte	.LASF692
 6207 0267 05       		.byte	0x5
 6208 0268 8B03     		.uleb128 0x18b
 6209 026a C8770000 		.4byte	.LASF693
 6210 026e 05       		.byte	0x5
 6211 026f 8C03     		.uleb128 0x18c
 6212 0271 2E490000 		.4byte	.LASF694
 6213 0275 05       		.byte	0x5
 6214 0276 8E03     		.uleb128 0x18e
 6215 0278 B1360000 		.4byte	.LASF695
 6216 027c 05       		.byte	0x5
 6217 027d 8F03     		.uleb128 0x18f
 6218 027f F4540000 		.4byte	.LASF696
 6219 0283 05       		.byte	0x5
 6220 0284 9103     		.uleb128 0x191
 6221 0286 95290000 		.4byte	.LASF697
 6222 028a 05       		.byte	0x5
 6223 028b 9203     		.uleb128 0x192
 6224 028d 130E0000 		.4byte	.LASF698
 6225 0291 05       		.byte	0x5
 6226 0292 9403     		.uleb128 0x194
 6227 0294 059C0000 		.4byte	.LASF699
 6228 0298 05       		.byte	0x5
 6229 0299 9503     		.uleb128 0x195
 6230 029b EE730000 		.4byte	.LASF700
 6231 029f 05       		.byte	0x5
 6232 02a0 9803     		.uleb128 0x198
 6233 02a2 93380000 		.4byte	.LASF701
 6234 02a6 05       		.byte	0x5
 6235 02a7 9903     		.uleb128 0x199
 6236 02a9 85900000 		.4byte	.LASF702
 6237 02ad 05       		.byte	0x5
 6238 02ae 9B03     		.uleb128 0x19b
ARM GAS  /tmp/ccKti1Oq.s 			page 120


 6239 02b0 91140000 		.4byte	.LASF703
 6240 02b4 05       		.byte	0x5
 6241 02b5 9C03     		.uleb128 0x19c
 6242 02b7 953A0000 		.4byte	.LASF704
 6243 02bb 05       		.byte	0x5
 6244 02bc 9E03     		.uleb128 0x19e
 6245 02be 25030000 		.4byte	.LASF705
 6246 02c2 05       		.byte	0x5
 6247 02c3 9F03     		.uleb128 0x19f
 6248 02c5 57730000 		.4byte	.LASF706
 6249 02c9 05       		.byte	0x5
 6250 02ca A203     		.uleb128 0x1a2
 6251 02cc F5700000 		.4byte	.LASF707
 6252 02d0 05       		.byte	0x5
 6253 02d1 A303     		.uleb128 0x1a3
 6254 02d3 BE500000 		.4byte	.LASF708
 6255 02d7 05       		.byte	0x5
 6256 02d8 A503     		.uleb128 0x1a5
 6257 02da 06630000 		.4byte	.LASF709
 6258 02de 05       		.byte	0x5
 6259 02df A603     		.uleb128 0x1a6
 6260 02e1 96580000 		.4byte	.LASF710
 6261 02e5 05       		.byte	0x5
 6262 02e6 A803     		.uleb128 0x1a8
 6263 02e8 EC1A0000 		.4byte	.LASF711
 6264 02ec 05       		.byte	0x5
 6265 02ed A903     		.uleb128 0x1a9
 6266 02ef F0000000 		.4byte	.LASF712
 6267 02f3 05       		.byte	0x5
 6268 02f4 AC03     		.uleb128 0x1ac
 6269 02f6 BE190000 		.4byte	.LASF713
 6270 02fa 05       		.byte	0x5
 6271 02fb AD03     		.uleb128 0x1ad
 6272 02fd 2E580000 		.4byte	.LASF714
 6273 0301 05       		.byte	0x5
 6274 0302 AF03     		.uleb128 0x1af
 6275 0304 E4440000 		.4byte	.LASF715
 6276 0308 05       		.byte	0x5
 6277 0309 B003     		.uleb128 0x1b0
 6278 030b 0E3E0000 		.4byte	.LASF716
 6279 030f 05       		.byte	0x5
 6280 0310 B203     		.uleb128 0x1b2
 6281 0312 A1240000 		.4byte	.LASF717
 6282 0316 05       		.byte	0x5
 6283 0317 B303     		.uleb128 0x1b3
 6284 0319 33120000 		.4byte	.LASF718
 6285 031d 05       		.byte	0x5
 6286 031e B503     		.uleb128 0x1b5
 6287 0320 1D660000 		.4byte	.LASF719
 6288 0324 05       		.byte	0x5
 6289 0325 B603     		.uleb128 0x1b6
 6290 0327 E49D0000 		.4byte	.LASF720
 6291 032b 05       		.byte	0x5
 6292 032c B803     		.uleb128 0x1b8
 6293 032e 53160000 		.4byte	.LASF721
 6294 0332 05       		.byte	0x5
 6295 0333 B903     		.uleb128 0x1b9
ARM GAS  /tmp/ccKti1Oq.s 			page 121


 6296 0335 CA1D0000 		.4byte	.LASF722
 6297 0339 05       		.byte	0x5
 6298 033a CF03     		.uleb128 0x1cf
 6299 033c A5370000 		.4byte	.LASF723
 6300 0340 05       		.byte	0x5
 6301 0341 D003     		.uleb128 0x1d0
 6302 0343 39570000 		.4byte	.LASF724
 6303 0347 05       		.byte	0x5
 6304 0348 D203     		.uleb128 0x1d2
 6305 034a 6B0E0000 		.4byte	.LASF725
 6306 034e 05       		.byte	0x5
 6307 034f D303     		.uleb128 0x1d3
 6308 0351 DD060000 		.4byte	.LASF726
 6309 0355 05       		.byte	0x5
 6310 0356 D503     		.uleb128 0x1d5
 6311 0358 9E170000 		.4byte	.LASF727
 6312 035c 05       		.byte	0x5
 6313 035d D603     		.uleb128 0x1d6
 6314 035f 6E7A0000 		.4byte	.LASF728
 6315 0363 05       		.byte	0x5
 6316 0364 D803     		.uleb128 0x1d8
 6317 0366 85320000 		.4byte	.LASF729
 6318 036a 05       		.byte	0x5
 6319 036b D903     		.uleb128 0x1d9
 6320 036d A9820000 		.4byte	.LASF730
 6321 0371 05       		.byte	0x5
 6322 0372 DC03     		.uleb128 0x1dc
 6323 0374 3E940000 		.4byte	.LASF731
 6324 0378 05       		.byte	0x5
 6325 0379 DD03     		.uleb128 0x1dd
 6326 037b 891E0000 		.4byte	.LASF732
 6327 037f 05       		.byte	0x5
 6328 0380 E003     		.uleb128 0x1e0
 6329 0382 E0670000 		.4byte	.LASF733
 6330 0386 05       		.byte	0x5
 6331 0387 E103     		.uleb128 0x1e1
 6332 0389 02600000 		.4byte	.LASF734
 6333 038d 05       		.byte	0x5
 6334 038e E403     		.uleb128 0x1e4
 6335 0390 E90A0000 		.4byte	.LASF735
 6336 0394 05       		.byte	0x5
 6337 0395 E503     		.uleb128 0x1e5
 6338 0397 E3380000 		.4byte	.LASF736
 6339 039b 05       		.byte	0x5
 6340 039c E703     		.uleb128 0x1e7
 6341 039e FB130000 		.4byte	.LASF737
 6342 03a2 05       		.byte	0x5
 6343 03a3 E803     		.uleb128 0x1e8
 6344 03a5 62950000 		.4byte	.LASF738
 6345 03a9 05       		.byte	0x5
 6346 03aa EA03     		.uleb128 0x1ea
 6347 03ac C9470000 		.4byte	.LASF739
 6348 03b0 05       		.byte	0x5
 6349 03b1 EB03     		.uleb128 0x1eb
 6350 03b3 6B6E0000 		.4byte	.LASF740
 6351 03b7 05       		.byte	0x5
 6352 03b8 9D04     		.uleb128 0x21d
ARM GAS  /tmp/ccKti1Oq.s 			page 122


 6353 03ba ED100000 		.4byte	.LASF741
 6354 03be 05       		.byte	0x5
 6355 03bf 9E04     		.uleb128 0x21e
 6356 03c1 7A9D0000 		.4byte	.LASF742
 6357 03c5 05       		.byte	0x5
 6358 03c6 A104     		.uleb128 0x221
 6359 03c8 6A1C0000 		.4byte	.LASF743
 6360 03cc 05       		.byte	0x5
 6361 03cd A204     		.uleb128 0x222
 6362 03cf F1360000 		.4byte	.LASF744
 6363 03d3 05       		.byte	0x5
 6364 03d4 A404     		.uleb128 0x224
 6365 03d6 DF0B0000 		.4byte	.LASF745
 6366 03da 05       		.byte	0x5
 6367 03db A504     		.uleb128 0x225
 6368 03dd F9900000 		.4byte	.LASF746
 6369 03e1 05       		.byte	0x5
 6370 03e2 A704     		.uleb128 0x227
 6371 03e4 BE9E0000 		.4byte	.LASF747
 6372 03e8 05       		.byte	0x5
 6373 03e9 A804     		.uleb128 0x228
 6374 03eb 08170000 		.4byte	.LASF748
 6375 03ef 05       		.byte	0x5
 6376 03f0 AA04     		.uleb128 0x22a
 6377 03f2 E2430000 		.4byte	.LASF749
 6378 03f6 05       		.byte	0x5
 6379 03f7 AB04     		.uleb128 0x22b
 6380 03f9 74280000 		.4byte	.LASF750
 6381 03fd 05       		.byte	0x5
 6382 03fe AD04     		.uleb128 0x22d
 6383 0400 138C0000 		.4byte	.LASF751
 6384 0404 05       		.byte	0x5
 6385 0405 AE04     		.uleb128 0x22e
 6386 0407 3C590000 		.4byte	.LASF752
 6387 040b 05       		.byte	0x5
 6388 040c B004     		.uleb128 0x230
 6389 040e 27750000 		.4byte	.LASF753
 6390 0412 05       		.byte	0x5
 6391 0413 B104     		.uleb128 0x231
 6392 0415 016C0000 		.4byte	.LASF754
 6393 0419 05       		.byte	0x5
 6394 041a B304     		.uleb128 0x233
 6395 041c C9300000 		.4byte	.LASF755
 6396 0420 05       		.byte	0x5
 6397 0421 B404     		.uleb128 0x234
 6398 0423 87470000 		.4byte	.LASF756
 6399 0427 05       		.byte	0x5
 6400 0428 B604     		.uleb128 0x236
 6401 042a 239A0000 		.4byte	.LASF757
 6402 042e 05       		.byte	0x5
 6403 042f B704     		.uleb128 0x237
 6404 0431 7E1C0000 		.4byte	.LASF758
 6405 0435 05       		.byte	0x5
 6406 0436 BA04     		.uleb128 0x23a
 6407 0438 182F0000 		.4byte	.LASF759
 6408 043c 05       		.byte	0x5
 6409 043d BB04     		.uleb128 0x23b
ARM GAS  /tmp/ccKti1Oq.s 			page 123


 6410 043f E85B0000 		.4byte	.LASF760
 6411 0443 05       		.byte	0x5
 6412 0444 BE04     		.uleb128 0x23e
 6413 0446 DB5C0000 		.4byte	.LASF761
 6414 044a 05       		.byte	0x5
 6415 044b BF04     		.uleb128 0x23f
 6416 044d E08B0000 		.4byte	.LASF762
 6417 0451 05       		.byte	0x5
 6418 0452 C204     		.uleb128 0x242
 6419 0454 6F410000 		.4byte	.LASF763
 6420 0458 05       		.byte	0x5
 6421 0459 C304     		.uleb128 0x243
 6422 045b 2E8B0000 		.4byte	.LASF764
 6423 045f 05       		.byte	0x5
 6424 0460 C604     		.uleb128 0x246
 6425 0462 BB560000 		.4byte	.LASF765
 6426 0466 05       		.byte	0x5
 6427 0467 C704     		.uleb128 0x247
 6428 0469 7A800000 		.4byte	.LASF766
 6429 046d 05       		.byte	0x5
 6430 046e C904     		.uleb128 0x249
 6431 0470 E0760000 		.4byte	.LASF767
 6432 0474 05       		.byte	0x5
 6433 0475 CA04     		.uleb128 0x24a
 6434 0477 15920000 		.4byte	.LASF768
 6435 047b 05       		.byte	0x5
 6436 047c CC04     		.uleb128 0x24c
 6437 047e 00940000 		.4byte	.LASF769
 6438 0482 05       		.byte	0x5
 6439 0483 CD04     		.uleb128 0x24d
 6440 0485 ACA10000 		.4byte	.LASF770
 6441 0489 05       		.byte	0x5
 6442 048a E604     		.uleb128 0x266
 6443 048c 193F0000 		.4byte	.LASF771
 6444 0490 05       		.byte	0x5
 6445 0491 E704     		.uleb128 0x267
 6446 0493 8C1F0000 		.4byte	.LASF772
 6447 0497 05       		.byte	0x5
 6448 0498 EA04     		.uleb128 0x26a
 6449 049a 854C0000 		.4byte	.LASF773
 6450 049e 05       		.byte	0x5
 6451 049f EB04     		.uleb128 0x26b
 6452 04a1 82340000 		.4byte	.LASF774
 6453 04a5 05       		.byte	0x5
 6454 04a6 ED04     		.uleb128 0x26d
 6455 04a8 720A0000 		.4byte	.LASF775
 6456 04ac 05       		.byte	0x5
 6457 04ad EE04     		.uleb128 0x26e
 6458 04af CE050000 		.4byte	.LASF776
 6459 04b3 05       		.byte	0x5
 6460 04b4 F004     		.uleb128 0x270
 6461 04b6 DA8C0000 		.4byte	.LASF777
 6462 04ba 05       		.byte	0x5
 6463 04bb F104     		.uleb128 0x271
 6464 04bd F27E0000 		.4byte	.LASF778
 6465 04c1 05       		.byte	0x5
 6466 04c2 8F05     		.uleb128 0x28f
ARM GAS  /tmp/ccKti1Oq.s 			page 124


 6467 04c4 586F0000 		.4byte	.LASF779
 6468 04c8 05       		.byte	0x5
 6469 04c9 9005     		.uleb128 0x290
 6470 04cb 155F0000 		.4byte	.LASF780
 6471 04cf 05       		.byte	0x5
 6472 04d0 9205     		.uleb128 0x292
 6473 04d2 330A0000 		.4byte	.LASF781
 6474 04d6 05       		.byte	0x5
 6475 04d7 9305     		.uleb128 0x293
 6476 04d9 D4090000 		.4byte	.LASF782
 6477 04dd 05       		.byte	0x5
 6478 04de 9505     		.uleb128 0x295
 6479 04e0 488E0000 		.4byte	.LASF783
 6480 04e4 05       		.byte	0x5
 6481 04e5 9605     		.uleb128 0x296
 6482 04e7 07690000 		.4byte	.LASF784
 6483 04eb 05       		.byte	0x5
 6484 04ec 9905     		.uleb128 0x299
 6485 04ee A8950000 		.4byte	.LASF785
 6486 04f2 05       		.byte	0x5
 6487 04f3 9A05     		.uleb128 0x29a
 6488 04f5 9D4F0000 		.4byte	.LASF786
 6489 04f9 05       		.byte	0x5
 6490 04fa 9C05     		.uleb128 0x29c
 6491 04fc 013F0000 		.4byte	.LASF787
 6492 0500 05       		.byte	0x5
 6493 0501 9D05     		.uleb128 0x29d
 6494 0503 8B300000 		.4byte	.LASF788
 6495 0507 05       		.byte	0x5
 6496 0508 9F05     		.uleb128 0x29f
 6497 050a 22A00000 		.4byte	.LASF789
 6498 050e 05       		.byte	0x5
 6499 050f A005     		.uleb128 0x2a0
 6500 0511 9E480000 		.4byte	.LASF790
 6501 0515 05       		.byte	0x5
 6502 0516 A305     		.uleb128 0x2a3
 6503 0518 357F0000 		.4byte	.LASF791
 6504 051c 05       		.byte	0x5
 6505 051d A405     		.uleb128 0x2a4
 6506 051f A23B0000 		.4byte	.LASF792
 6507 0523 05       		.byte	0x5
 6508 0524 A705     		.uleb128 0x2a7
 6509 0526 DE7E0000 		.4byte	.LASF793
 6510 052a 05       		.byte	0x5
 6511 052b A805     		.uleb128 0x2a8
 6512 052d AE380000 		.4byte	.LASF794
 6513 0531 05       		.byte	0x5
 6514 0532 AA05     		.uleb128 0x2aa
 6515 0534 34880000 		.4byte	.LASF795
 6516 0538 05       		.byte	0x5
 6517 0539 AB05     		.uleb128 0x2ab
 6518 053b 974A0000 		.4byte	.LASF796
 6519 053f 05       		.byte	0x5
 6520 0540 AD05     		.uleb128 0x2ad
 6521 0542 24680000 		.4byte	.LASF797
 6522 0546 05       		.byte	0x5
 6523 0547 AE05     		.uleb128 0x2ae
ARM GAS  /tmp/ccKti1Oq.s 			page 125


 6524 0549 489B0000 		.4byte	.LASF798
 6525 054d 05       		.byte	0x5
 6526 054e B105     		.uleb128 0x2b1
 6527 0550 BD000000 		.4byte	.LASF799
 6528 0554 05       		.byte	0x5
 6529 0555 B205     		.uleb128 0x2b2
 6530 0557 95190000 		.4byte	.LASF800
 6531 055b 05       		.byte	0x5
 6532 055c B405     		.uleb128 0x2b4
 6533 055e 5C7D0000 		.4byte	.LASF801
 6534 0562 05       		.byte	0x5
 6535 0563 B505     		.uleb128 0x2b5
 6536 0565 91750000 		.4byte	.LASF802
 6537 0569 05       		.byte	0x5
 6538 056a B705     		.uleb128 0x2b7
 6539 056c A3840000 		.4byte	.LASF803
 6540 0570 05       		.byte	0x5
 6541 0571 B805     		.uleb128 0x2b8
 6542 0573 181E0000 		.4byte	.LASF804
 6543 0577 05       		.byte	0x5
 6544 0578 BA05     		.uleb128 0x2ba
 6545 057a 4E0C0000 		.4byte	.LASF805
 6546 057e 05       		.byte	0x5
 6547 057f BB05     		.uleb128 0x2bb
 6548 0581 8C0C0000 		.4byte	.LASF806
 6549 0585 05       		.byte	0x5
 6550 0586 BD05     		.uleb128 0x2bd
 6551 0588 79270000 		.4byte	.LASF807
 6552 058c 05       		.byte	0x5
 6553 058d BE05     		.uleb128 0x2be
 6554 058f 8A410000 		.4byte	.LASF808
 6555 0593 05       		.byte	0x5
 6556 0594 C005     		.uleb128 0x2c0
 6557 0596 E4620000 		.4byte	.LASF809
 6558 059a 05       		.byte	0x5
 6559 059b C105     		.uleb128 0x2c1
 6560 059d DE6E0000 		.4byte	.LASF810
 6561 05a1 05       		.byte	0x5
 6562 05a2 C305     		.uleb128 0x2c3
 6563 05a4 BC850000 		.4byte	.LASF811
 6564 05a8 05       		.byte	0x5
 6565 05a9 C405     		.uleb128 0x2c4
 6566 05ab 8B400000 		.4byte	.LASF812
 6567 05af 05       		.byte	0x5
 6568 05b0 C605     		.uleb128 0x2c6
 6569 05b2 77300000 		.4byte	.LASF813
 6570 05b6 05       		.byte	0x5
 6571 05b7 C705     		.uleb128 0x2c7
 6572 05b9 B8920000 		.4byte	.LASF814
 6573 05bd 05       		.byte	0x5
 6574 05be C905     		.uleb128 0x2c9
 6575 05c0 A3710000 		.4byte	.LASF815
 6576 05c4 05       		.byte	0x5
 6577 05c5 CA05     		.uleb128 0x2ca
 6578 05c7 D46B0000 		.4byte	.LASF816
 6579 05cb 05       		.byte	0x5
 6580 05cc E105     		.uleb128 0x2e1
ARM GAS  /tmp/ccKti1Oq.s 			page 126


 6581 05ce 16880000 		.4byte	.LASF817
 6582 05d2 05       		.byte	0x5
 6583 05d3 E205     		.uleb128 0x2e2
 6584 05d5 85930000 		.4byte	.LASF818
 6585 05d9 05       		.byte	0x5
 6586 05da E405     		.uleb128 0x2e4
 6587 05dc 57360000 		.4byte	.LASF819
 6588 05e0 05       		.byte	0x5
 6589 05e1 E505     		.uleb128 0x2e5
 6590 05e3 F09C0000 		.4byte	.LASF820
 6591 05e7 05       		.byte	0x5
 6592 05e8 E705     		.uleb128 0x2e7
 6593 05ea 818F0000 		.4byte	.LASF821
 6594 05ee 05       		.byte	0x5
 6595 05ef E805     		.uleb128 0x2e8
 6596 05f1 1E720000 		.4byte	.LASF822
 6597 05f5 05       		.byte	0x5
 6598 05f6 EA05     		.uleb128 0x2ea
 6599 05f8 43770000 		.4byte	.LASF823
 6600 05fc 05       		.byte	0x5
 6601 05fd EB05     		.uleb128 0x2eb
 6602 05ff CC2A0000 		.4byte	.LASF824
 6603 0603 05       		.byte	0x5
 6604 0604 ED05     		.uleb128 0x2ed
 6605 0606 24770000 		.4byte	.LASF825
 6606 060a 05       		.byte	0x5
 6607 060b EE05     		.uleb128 0x2ee
 6608 060d 694B0000 		.4byte	.LASF826
 6609 0611 05       		.byte	0x5
 6610 0612 F005     		.uleb128 0x2f0
 6611 0614 C07E0000 		.4byte	.LASF827
 6612 0618 05       		.byte	0x5
 6613 0619 F105     		.uleb128 0x2f1
 6614 061b A2180000 		.4byte	.LASF828
 6615 061f 05       		.byte	0x5
 6616 0620 F305     		.uleb128 0x2f3
 6617 0622 AD8B0000 		.4byte	.LASF829
 6618 0626 05       		.byte	0x5
 6619 0627 F405     		.uleb128 0x2f4
 6620 0629 375B0000 		.4byte	.LASF830
 6621 062d 05       		.byte	0x5
 6622 062e F605     		.uleb128 0x2f6
 6623 0630 37790000 		.4byte	.LASF831
 6624 0634 05       		.byte	0x5
 6625 0635 F705     		.uleb128 0x2f7
 6626 0637 60880000 		.4byte	.LASF832
 6627 063b 05       		.byte	0x5
 6628 063c F905     		.uleb128 0x2f9
 6629 063e 202B0000 		.4byte	.LASF833
 6630 0642 05       		.byte	0x5
 6631 0643 FA05     		.uleb128 0x2fa
 6632 0645 A9200000 		.4byte	.LASF834
 6633 0649 05       		.byte	0x5
 6634 064a FC05     		.uleb128 0x2fc
 6635 064c 977D0000 		.4byte	.LASF835
 6636 0650 05       		.byte	0x5
 6637 0651 FD05     		.uleb128 0x2fd
ARM GAS  /tmp/ccKti1Oq.s 			page 127


 6638 0653 18320000 		.4byte	.LASF836
 6639 0657 05       		.byte	0x5
 6640 0658 FF05     		.uleb128 0x2ff
 6641 065a 6B3B0000 		.4byte	.LASF837
 6642 065e 05       		.byte	0x5
 6643 065f 8006     		.uleb128 0x300
 6644 0661 B9170000 		.4byte	.LASF838
 6645 0665 05       		.byte	0x5
 6646 0666 8206     		.uleb128 0x302
 6647 0668 CA960000 		.4byte	.LASF839
 6648 066c 05       		.byte	0x5
 6649 066d 8306     		.uleb128 0x303
 6650 066f FA370000 		.4byte	.LASF840
 6651 0673 05       		.byte	0x5
 6652 0674 8606     		.uleb128 0x306
 6653 0676 4F750000 		.4byte	.LASF841
 6654 067a 05       		.byte	0x5
 6655 067b 8706     		.uleb128 0x307
 6656 067d 18360000 		.4byte	.LASF842
 6657 0681 05       		.byte	0x5
 6658 0682 8906     		.uleb128 0x309
 6659 0684 16870000 		.4byte	.LASF843
 6660 0688 05       		.byte	0x5
 6661 0689 8A06     		.uleb128 0x30a
 6662 068b 5B220000 		.4byte	.LASF844
 6663 068f 05       		.byte	0x5
 6664 0690 8D06     		.uleb128 0x30d
 6665 0692 B50E0000 		.4byte	.LASF845
 6666 0696 05       		.byte	0x5
 6667 0697 8E06     		.uleb128 0x30e
 6668 0699 92670000 		.4byte	.LASF846
 6669 069d 05       		.byte	0x5
 6670 069e 9006     		.uleb128 0x310
 6671 06a0 5B520000 		.4byte	.LASF847
 6672 06a4 05       		.byte	0x5
 6673 06a5 9106     		.uleb128 0x311
 6674 06a7 4A7F0000 		.4byte	.LASF848
 6675 06ab 05       		.byte	0x5
 6676 06ac 9306     		.uleb128 0x313
 6677 06ae 1A1B0000 		.4byte	.LASF849
 6678 06b2 05       		.byte	0x5
 6679 06b3 9406     		.uleb128 0x314
 6680 06b5 F3500000 		.4byte	.LASF850
 6681 06b9 05       		.byte	0x5
 6682 06ba 9606     		.uleb128 0x316
 6683 06bc EE9A0000 		.4byte	.LASF851
 6684 06c0 05       		.byte	0x5
 6685 06c1 9706     		.uleb128 0x317
 6686 06c3 AA100000 		.4byte	.LASF852
 6687 06c7 05       		.byte	0x5
 6688 06c8 9906     		.uleb128 0x319
 6689 06ca 246A0000 		.4byte	.LASF853
 6690 06ce 05       		.byte	0x5
 6691 06cf 9A06     		.uleb128 0x31a
 6692 06d1 C9160000 		.4byte	.LASF854
 6693 06d5 05       		.byte	0x5
 6694 06d6 9C06     		.uleb128 0x31c
ARM GAS  /tmp/ccKti1Oq.s 			page 128


 6695 06d8 511B0000 		.4byte	.LASF855
 6696 06dc 05       		.byte	0x5
 6697 06dd 9D06     		.uleb128 0x31d
 6698 06df F01B0000 		.4byte	.LASF856
 6699 06e3 05       		.byte	0x5
 6700 06e4 9F06     		.uleb128 0x31f
 6701 06e6 F1340000 		.4byte	.LASF857
 6702 06ea 05       		.byte	0x5
 6703 06eb A006     		.uleb128 0x320
 6704 06ed 48250000 		.4byte	.LASF858
 6705 06f1 05       		.byte	0x5
 6706 06f2 A206     		.uleb128 0x322
 6707 06f4 8A0B0000 		.4byte	.LASF859
 6708 06f8 05       		.byte	0x5
 6709 06f9 A306     		.uleb128 0x323
 6710 06fb FE4F0000 		.4byte	.LASF860
 6711 06ff 05       		.byte	0x5
 6712 0700 A506     		.uleb128 0x325
 6713 0702 AB2A0000 		.4byte	.LASF861
 6714 0706 05       		.byte	0x5
 6715 0707 A606     		.uleb128 0x326
 6716 0709 09560000 		.4byte	.LASF862
 6717 070d 05       		.byte	0x5
 6718 070e A806     		.uleb128 0x328
 6719 0710 A2790000 		.4byte	.LASF863
 6720 0714 05       		.byte	0x5
 6721 0715 A906     		.uleb128 0x329
 6722 0717 30010000 		.4byte	.LASF864
 6723 071b 05       		.byte	0x5
 6724 071c AB06     		.uleb128 0x32b
 6725 071e 44670000 		.4byte	.LASF865
 6726 0722 05       		.byte	0x5
 6727 0723 AC06     		.uleb128 0x32c
 6728 0725 3D2A0000 		.4byte	.LASF866
 6729 0729 05       		.byte	0x5
 6730 072a AE06     		.uleb128 0x32e
 6731 072c A7020000 		.4byte	.LASF867
 6732 0730 05       		.byte	0x5
 6733 0731 AF06     		.uleb128 0x32f
 6734 0733 7D7E0000 		.4byte	.LASF868
 6735 0737 05       		.byte	0x5
 6736 0738 B106     		.uleb128 0x331
 6737 073a 1C8A0000 		.4byte	.LASF869
 6738 073e 05       		.byte	0x5
 6739 073f B206     		.uleb128 0x332
 6740 0741 C55A0000 		.4byte	.LASF870
 6741 0745 05       		.byte	0x5
 6742 0746 BC06     		.uleb128 0x33c
 6743 0748 E4040000 		.4byte	.LASF871
 6744 074c 05       		.byte	0x5
 6745 074d BD06     		.uleb128 0x33d
 6746 074f 08590000 		.4byte	.LASF872
 6747 0753 05       		.byte	0x5
 6748 0754 BE06     		.uleb128 0x33e
 6749 0756 1D050000 		.4byte	.LASF873
 6750 075a 05       		.byte	0x5
 6751 075b BF06     		.uleb128 0x33f
ARM GAS  /tmp/ccKti1Oq.s 			page 129


 6752 075d F8170000 		.4byte	.LASF874
 6753 0761 05       		.byte	0x5
 6754 0762 C006     		.uleb128 0x340
 6755 0764 268D0000 		.4byte	.LASF875
 6756 0768 05       		.byte	0x5
 6757 0769 C106     		.uleb128 0x341
 6758 076b B30C0000 		.4byte	.LASF876
 6759 076f 05       		.byte	0x5
 6760 0770 C306     		.uleb128 0x343
 6761 0772 72790000 		.4byte	.LASF877
 6762 0776 05       		.byte	0x5
 6763 0777 C406     		.uleb128 0x344
 6764 0779 13280000 		.4byte	.LASF878
 6765 077d 05       		.byte	0x5
 6766 077e C506     		.uleb128 0x345
 6767 0780 114F0000 		.4byte	.LASF879
 6768 0784 05       		.byte	0x5
 6769 0785 C606     		.uleb128 0x346
 6770 0787 4B050000 		.4byte	.LASF880
 6771 078b 05       		.byte	0x5
 6772 078c C706     		.uleb128 0x347
 6773 078e A84D0000 		.4byte	.LASF881
 6774 0792 05       		.byte	0x5
 6775 0793 C806     		.uleb128 0x348
 6776 0795 4E4D0000 		.4byte	.LASF882
 6777 0799 05       		.byte	0x5
 6778 079a CB06     		.uleb128 0x34b
 6779 079c D13A0000 		.4byte	.LASF883
 6780 07a0 05       		.byte	0x5
 6781 07a1 CC06     		.uleb128 0x34c
 6782 07a3 71660000 		.4byte	.LASF884
 6783 07a7 05       		.byte	0x5
 6784 07a8 8309     		.uleb128 0x483
 6785 07aa 184E0000 		.4byte	.LASF885
 6786 07ae 00       		.byte	0
 6787              		.section	.debug_macro,"G",%progbits,wm4.LPC17xx.h.953.77a3a85f2f7c5b921d480655a6f3d5b1,comdat
 6788              	.Ldebug_macro12:
 6789 0000 0400     		.2byte	0x4
 6790 0002 00       		.byte	0
 6791 0003 05       		.byte	0x5
 6792 0004 B907     		.uleb128 0x3b9
 6793 0006 C06E0000 		.4byte	.LASF887
 6794 000a 05       		.byte	0x5
 6795 000b BA07     		.uleb128 0x3ba
 6796 000d 573D0000 		.4byte	.LASF888
 6797 0011 05       		.byte	0x5
 6798 0012 BF07     		.uleb128 0x3bf
 6799 0014 4B5F0000 		.4byte	.LASF889
 6800 0018 05       		.byte	0x5
 6801 0019 C007     		.uleb128 0x3c0
 6802 001b 1B840000 		.4byte	.LASF890
 6803 001f 05       		.byte	0x5
 6804 0020 C207     		.uleb128 0x3c2
 6805 0022 BB060000 		.4byte	.LASF891
 6806 0026 05       		.byte	0x5
 6807 0027 C307     		.uleb128 0x3c3
 6808 0029 3A680000 		.4byte	.LASF892
ARM GAS  /tmp/ccKti1Oq.s 			page 130


 6809 002d 05       		.byte	0x5
 6810 002e C407     		.uleb128 0x3c4
 6811 0030 E8220000 		.4byte	.LASF893
 6812 0034 05       		.byte	0x5
 6813 0035 C507     		.uleb128 0x3c5
 6814 0037 D41B0000 		.4byte	.LASF894
 6815 003b 05       		.byte	0x5
 6816 003c C607     		.uleb128 0x3c6
 6817 003e 3A2E0000 		.4byte	.LASF895
 6818 0042 05       		.byte	0x5
 6819 0043 C907     		.uleb128 0x3c9
 6820 0045 63770000 		.4byte	.LASF896
 6821 0049 05       		.byte	0x5
 6822 004a CA07     		.uleb128 0x3ca
 6823 004c 5A340000 		.4byte	.LASF897
 6824 0050 05       		.byte	0x5
 6825 0051 CB07     		.uleb128 0x3cb
 6826 0053 BA430000 		.4byte	.LASF898
 6827 0057 05       		.byte	0x5
 6828 0058 CC07     		.uleb128 0x3cc
 6829 005a 6E1D0000 		.4byte	.LASF899
 6830 005e 05       		.byte	0x5
 6831 005f CD07     		.uleb128 0x3cd
 6832 0061 3D480000 		.4byte	.LASF900
 6833 0065 05       		.byte	0x5
 6834 0066 CE07     		.uleb128 0x3ce
 6835 0068 1B760000 		.4byte	.LASF901
 6836 006c 05       		.byte	0x5
 6837 006d CF07     		.uleb128 0x3cf
 6838 006f 775E0000 		.4byte	.LASF902
 6839 0073 05       		.byte	0x5
 6840 0074 D007     		.uleb128 0x3d0
 6841 0076 4B3C0000 		.4byte	.LASF903
 6842 007a 05       		.byte	0x5
 6843 007b D107     		.uleb128 0x3d1
 6844 007d 842A0000 		.4byte	.LASF904
 6845 0081 05       		.byte	0x5
 6846 0082 D207     		.uleb128 0x3d2
 6847 0084 DC4C0000 		.4byte	.LASF905
 6848 0088 05       		.byte	0x5
 6849 0089 D307     		.uleb128 0x3d3
 6850 008b 34140000 		.4byte	.LASF906
 6851 008f 05       		.byte	0x5
 6852 0090 D407     		.uleb128 0x3d4
 6853 0092 B1660000 		.4byte	.LASF907
 6854 0096 05       		.byte	0x5
 6855 0097 D507     		.uleb128 0x3d5
 6856 0099 42650000 		.4byte	.LASF908
 6857 009d 05       		.byte	0x5
 6858 009e D607     		.uleb128 0x3d6
 6859 00a0 11420000 		.4byte	.LASF909
 6860 00a4 05       		.byte	0x5
 6861 00a5 D707     		.uleb128 0x3d7
 6862 00a7 197B0000 		.4byte	.LASF910
 6863 00ab 05       		.byte	0x5
 6864 00ac D807     		.uleb128 0x3d8
 6865 00ae AA0B0000 		.4byte	.LASF911
ARM GAS  /tmp/ccKti1Oq.s 			page 131


 6866 00b2 05       		.byte	0x5
 6867 00b3 D907     		.uleb128 0x3d9
 6868 00b5 4F910000 		.4byte	.LASF912
 6869 00b9 05       		.byte	0x5
 6870 00ba DA07     		.uleb128 0x3da
 6871 00bc 5E460000 		.4byte	.LASF913
 6872 00c0 05       		.byte	0x5
 6873 00c1 DB07     		.uleb128 0x3db
 6874 00c3 4B540000 		.4byte	.LASF914
 6875 00c7 05       		.byte	0x5
 6876 00c8 DE07     		.uleb128 0x3de
 6877 00ca 3F3E0000 		.4byte	.LASF915
 6878 00ce 05       		.byte	0x5
 6879 00cf DF07     		.uleb128 0x3df
 6880 00d1 EF150000 		.4byte	.LASF916
 6881 00d5 05       		.byte	0x5
 6882 00d6 E007     		.uleb128 0x3e0
 6883 00d8 706F0000 		.4byte	.LASF917
 6884 00dc 05       		.byte	0x5
 6885 00dd E107     		.uleb128 0x3e1
 6886 00df 4B210000 		.4byte	.LASF918
 6887 00e3 05       		.byte	0x5
 6888 00e4 E207     		.uleb128 0x3e2
 6889 00e6 2F6F0000 		.4byte	.LASF919
 6890 00ea 05       		.byte	0x5
 6891 00eb E307     		.uleb128 0x3e3
 6892 00ed 61850000 		.4byte	.LASF920
 6893 00f1 05       		.byte	0x5
 6894 00f2 E407     		.uleb128 0x3e4
 6895 00f4 2F730000 		.4byte	.LASF921
 6896 00f8 05       		.byte	0x5
 6897 00f9 E507     		.uleb128 0x3e5
 6898 00fb 79060000 		.4byte	.LASF922
 6899 00ff 05       		.byte	0x5
 6900 0100 E607     		.uleb128 0x3e6
 6901 0102 105B0000 		.4byte	.LASF923
 6902 0106 05       		.byte	0x5
 6903 0107 E707     		.uleb128 0x3e7
 6904 0109 3C6D0000 		.4byte	.LASF924
 6905 010d 05       		.byte	0x5
 6906 010e E807     		.uleb128 0x3e8
 6907 0110 1A4C0000 		.4byte	.LASF925
 6908 0114 05       		.byte	0x5
 6909 0115 E907     		.uleb128 0x3e9
 6910 0117 9A0A0000 		.4byte	.LASF926
 6911 011b 05       		.byte	0x5
 6912 011c EC07     		.uleb128 0x3ec
 6913 011e 37460000 		.4byte	.LASF927
 6914 0122 05       		.byte	0x5
 6915 0123 ED07     		.uleb128 0x3ed
 6916 0125 CF680000 		.4byte	.LASF928
 6917 0129 05       		.byte	0x5
 6918 012a EE07     		.uleb128 0x3ee
 6919 012c D43B0000 		.4byte	.LASF929
 6920 0130 05       		.byte	0x5
 6921 0131 EF07     		.uleb128 0x3ef
 6922 0133 52870000 		.4byte	.LASF930
ARM GAS  /tmp/ccKti1Oq.s 			page 132


 6923 0137 05       		.byte	0x5
 6924 0138 F007     		.uleb128 0x3f0
 6925 013a 38A00000 		.4byte	.LASF931
 6926 013e 05       		.byte	0x5
 6927 013f F107     		.uleb128 0x3f1
 6928 0141 986F0000 		.4byte	.LASF932
 6929 0145 05       		.byte	0x5
 6930 0146 F207     		.uleb128 0x3f2
 6931 0148 122A0000 		.4byte	.LASF933
 6932 014c 05       		.byte	0x5
 6933 014d F307     		.uleb128 0x3f3
 6934 014f 36510000 		.4byte	.LASF934
 6935 0153 05       		.byte	0x5
 6936 0154 F407     		.uleb128 0x3f4
 6937 0156 0D650000 		.4byte	.LASF935
 6938 015a 05       		.byte	0x5
 6939 015b F507     		.uleb128 0x3f5
 6940 015d 06100000 		.4byte	.LASF936
 6941 0161 05       		.byte	0x5
 6942 0162 F607     		.uleb128 0x3f6
 6943 0164 D7510000 		.4byte	.LASF937
 6944 0168 05       		.byte	0x5
 6945 0169 F907     		.uleb128 0x3f9
 6946 016b 8D550000 		.4byte	.LASF938
 6947 016f 05       		.byte	0x5
 6948 0170 FA07     		.uleb128 0x3fa
 6949 0172 50560000 		.4byte	.LASF939
 6950 0176 05       		.byte	0x5
 6951 0177 FB07     		.uleb128 0x3fb
 6952 0179 042C0000 		.4byte	.LASF940
 6953 017d 05       		.byte	0x5
 6954 017e FC07     		.uleb128 0x3fc
 6955 0180 B5A00000 		.4byte	.LASF941
 6956 0184 05       		.byte	0x5
 6957 0185 FD07     		.uleb128 0x3fd
 6958 0187 357C0000 		.4byte	.LASF942
 6959 018b 05       		.byte	0x5
 6960 018c 8208     		.uleb128 0x402
 6961 018e 9F770000 		.4byte	.LASF943
 6962 0192 05       		.byte	0x5
 6963 0193 8308     		.uleb128 0x403
 6964 0195 86590000 		.4byte	.LASF944
 6965 0199 05       		.byte	0x5
 6966 019a 8408     		.uleb128 0x404
 6967 019c C1110000 		.4byte	.LASF945
 6968 01a0 05       		.byte	0x5
 6969 01a1 8508     		.uleb128 0x405
 6970 01a3 02620000 		.4byte	.LASF946
 6971 01a7 05       		.byte	0x5
 6972 01a8 8608     		.uleb128 0x406
 6973 01aa 910F0000 		.4byte	.LASF947
 6974 01ae 05       		.byte	0x5
 6975 01af 8708     		.uleb128 0x407
 6976 01b1 7D2C0000 		.4byte	.LASF948
 6977 01b5 05       		.byte	0x5
 6978 01b6 8808     		.uleb128 0x408
 6979 01b8 76180000 		.4byte	.LASF949
ARM GAS  /tmp/ccKti1Oq.s 			page 133


 6980 01bc 05       		.byte	0x5
 6981 01bd 8908     		.uleb128 0x409
 6982 01bf 57320000 		.4byte	.LASF950
 6983 01c3 05       		.byte	0x5
 6984 01c4 8A08     		.uleb128 0x40a
 6985 01c6 AB730000 		.4byte	.LASF951
 6986 01ca 05       		.byte	0x5
 6987 01cb 8B08     		.uleb128 0x40b
 6988 01cd 0F340000 		.4byte	.LASF952
 6989 01d1 05       		.byte	0x5
 6990 01d2 8C08     		.uleb128 0x40c
 6991 01d4 B9080000 		.4byte	.LASF953
 6992 01d8 05       		.byte	0x5
 6993 01d9 8D08     		.uleb128 0x40d
 6994 01db 9D530000 		.4byte	.LASF954
 6995 01df 05       		.byte	0x5
 6996 01e0 8E08     		.uleb128 0x40e
 6997 01e2 E1800000 		.4byte	.LASF955
 6998 01e6 05       		.byte	0x5
 6999 01e7 8F08     		.uleb128 0x40f
 7000 01e9 2A8F0000 		.4byte	.LASF956
 7001 01ed 05       		.byte	0x5
 7002 01ee 9008     		.uleb128 0x410
 7003 01f0 44330000 		.4byte	.LASF957
 7004 01f4 05       		.byte	0x5
 7005 01f5 9108     		.uleb128 0x411
 7006 01f7 37290000 		.4byte	.LASF958
 7007 01fb 05       		.byte	0x5
 7008 01fc 9208     		.uleb128 0x412
 7009 01fe 1C070000 		.4byte	.LASF959
 7010 0202 05       		.byte	0x5
 7011 0203 9308     		.uleb128 0x413
 7012 0205 5F230000 		.4byte	.LASF960
 7013 0209 05       		.byte	0x5
 7014 020a 9408     		.uleb128 0x414
 7015 020c AF230000 		.4byte	.LASF961
 7016 0210 05       		.byte	0x5
 7017 0211 9508     		.uleb128 0x415
 7018 0213 44920000 		.4byte	.LASF962
 7019 0217 05       		.byte	0x5
 7020 0218 9608     		.uleb128 0x416
 7021 021a 55430000 		.4byte	.LASF963
 7022 021e 05       		.byte	0x5
 7023 021f 9708     		.uleb128 0x417
 7024 0221 D36C0000 		.4byte	.LASF964
 7025 0225 05       		.byte	0x5
 7026 0226 9808     		.uleb128 0x418
 7027 0228 562E0000 		.4byte	.LASF965
 7028 022c 05       		.byte	0x5
 7029 022d 9908     		.uleb128 0x419
 7030 022f 022E0000 		.4byte	.LASF966
 7031 0233 05       		.byte	0x5
 7032 0234 9A08     		.uleb128 0x41a
 7033 0236 5F2F0000 		.4byte	.LASF967
 7034 023a 05       		.byte	0x5
 7035 023b 9B08     		.uleb128 0x41b
 7036 023d D2930000 		.4byte	.LASF968
ARM GAS  /tmp/ccKti1Oq.s 			page 134


 7037 0241 05       		.byte	0x5
 7038 0242 9C08     		.uleb128 0x41c
 7039 0244 E62C0000 		.4byte	.LASF969
 7040 0248 05       		.byte	0x5
 7041 0249 9D08     		.uleb128 0x41d
 7042 024b 4D100000 		.4byte	.LASF970
 7043 024f 05       		.byte	0x5
 7044 0250 9E08     		.uleb128 0x41e
 7045 0252 48890000 		.4byte	.LASF971
 7046 0256 05       		.byte	0x5
 7047 0257 9F08     		.uleb128 0x41f
 7048 0259 91070000 		.4byte	.LASF972
 7049 025d 05       		.byte	0x5
 7050 025e A008     		.uleb128 0x420
 7051 0260 4D090000 		.4byte	.LASF973
 7052 0264 05       		.byte	0x5
 7053 0265 A108     		.uleb128 0x421
 7054 0267 9E390000 		.4byte	.LASF974
 7055 026b 05       		.byte	0x5
 7056 026c A208     		.uleb128 0x422
 7057 026e 32300000 		.4byte	.LASF975
 7058 0272 05       		.byte	0x5
 7059 0273 A308     		.uleb128 0x423
 7060 0275 66420000 		.4byte	.LASF976
 7061 0279 05       		.byte	0x5
 7062 027a A408     		.uleb128 0x424
 7063 027c 8E0D0000 		.4byte	.LASF977
 7064 0280 05       		.byte	0x5
 7065 0281 A508     		.uleb128 0x425
 7066 0283 1F210000 		.4byte	.LASF978
 7067 0287 05       		.byte	0x5
 7068 0288 A608     		.uleb128 0x426
 7069 028a 45280000 		.4byte	.LASF979
 7070 028e 05       		.byte	0x5
 7071 028f A708     		.uleb128 0x427
 7072 0291 20200000 		.4byte	.LASF980
 7073 0295 05       		.byte	0x5
 7074 0296 A808     		.uleb128 0x428
 7075 0298 8B920000 		.4byte	.LASF981
 7076 029c 05       		.byte	0x5
 7077 029d A908     		.uleb128 0x429
 7078 029f B7840000 		.4byte	.LASF982
 7079 02a3 05       		.byte	0x5
 7080 02a4 AA08     		.uleb128 0x42a
 7081 02a6 F5A00000 		.4byte	.LASF983
 7082 02aa 05       		.byte	0x5
 7083 02ab AB08     		.uleb128 0x42b
 7084 02ad 1C270000 		.4byte	.LASF984
 7085 02b1 05       		.byte	0x5
 7086 02b2 AC08     		.uleb128 0x42c
 7087 02b4 14400000 		.4byte	.LASF985
 7088 02b8 05       		.byte	0x5
 7089 02b9 AD08     		.uleb128 0x42d
 7090 02bb A67C0000 		.4byte	.LASF986
 7091 02bf 05       		.byte	0x5
 7092 02c0 AE08     		.uleb128 0x42e
 7093 02c2 6C7C0000 		.4byte	.LASF987
ARM GAS  /tmp/ccKti1Oq.s 			page 135


 7094 02c6 05       		.byte	0x5
 7095 02c7 AF08     		.uleb128 0x42f
 7096 02c9 0E9B0000 		.4byte	.LASF988
 7097 02cd 05       		.byte	0x5
 7098 02ce B008     		.uleb128 0x430
 7099 02d0 28060000 		.4byte	.LASF989
 7100 02d4 05       		.byte	0x5
 7101 02d5 B108     		.uleb128 0x431
 7102 02d7 A23E0000 		.4byte	.LASF990
 7103 02db 00       		.byte	0
 7104              		.section	.debug_macro,"G",%progbits,wm4.lpc_types.h.31.fe468f0c170b3f2fb639f9a689afb2c4,comdat
 7105              	.Ldebug_macro13:
 7106 0000 0400     		.2byte	0x4
 7107 0002 00       		.byte	0
 7108 0003 05       		.byte	0x5
 7109 0004 1F       		.uleb128 0x1f
 7110 0005 BB9B0000 		.4byte	.LASF991
 7111 0009 05       		.byte	0x5
 7112 000a 33       		.uleb128 0x33
 7113 000b F8720000 		.4byte	.LASF992
 7114 000f 05       		.byte	0x5
 7115 0010 39       		.uleb128 0x39
 7116 0011 1C370000 		.4byte	.LASF993
 7117 0015 06       		.byte	0x6
 7118 0016 5F       		.uleb128 0x5f
 7119 0017 D0000000 		.4byte	.LASF994
 7120 001b 05       		.byte	0x5
 7121 001c 61       		.uleb128 0x61
 7122 001d 2B800000 		.4byte	.LASF995
 7123 0021 06       		.byte	0x6
 7124 0022 67       		.uleb128 0x67
 7125 0023 9F350000 		.4byte	.LASF996
 7126 0027 05       		.byte	0x5
 7127 0028 69       		.uleb128 0x69
 7128 0029 10330000 		.4byte	.LASF997
 7129 002d 06       		.byte	0x6
 7130 002e 78       		.uleb128 0x78
 7131 002f 0B400000 		.4byte	.LASF998
 7132 0033 05       		.byte	0x5
 7133 0034 7A       		.uleb128 0x7a
 7134 0035 05900000 		.4byte	.LASF999
 7135 0039 05       		.byte	0x5
 7136 003a 7E       		.uleb128 0x7e
 7137 003b 94370000 		.4byte	.LASF1000
 7138 003f 05       		.byte	0x5
 7139 0040 8201     		.uleb128 0x82
 7140 0042 74940000 		.4byte	.LASF1001
 7141 0046 05       		.byte	0x5
 7142 0047 8501     		.uleb128 0x85
 7143 0049 412B0000 		.4byte	.LASF1002
 7144 004d 05       		.byte	0x5
 7145 004e 8701     		.uleb128 0x87
 7146 0050 82490000 		.4byte	.LASF1003
 7147 0054 00       		.byte	0
 7148              		.section	.debug_macro,"G",%progbits,wm4.lpc17xx_timer.h.48.9c5b76a52ea125e9dfa6c9525b9fba77,comdat
 7149              	.Ldebug_macro14:
 7150 0000 0400     		.2byte	0x4
ARM GAS  /tmp/ccKti1Oq.s 			page 136


 7151 0002 00       		.byte	0
 7152 0003 05       		.byte	0x5
 7153 0004 30       		.uleb128 0x30
 7154 0005 EC970000 		.4byte	.LASF1004
 7155 0009 05       		.byte	0x5
 7156 000a 36       		.uleb128 0x36
 7157 000b 880E0000 		.4byte	.LASF1005
 7158 000f 05       		.byte	0x5
 7159 0010 38       		.uleb128 0x38
 7160 0011 9D9F0000 		.4byte	.LASF1006
 7161 0015 05       		.byte	0x5
 7162 0016 3E       		.uleb128 0x3e
 7163 0017 9A2D0000 		.4byte	.LASF1007
 7164 001b 05       		.byte	0x5
 7165 001c 40       		.uleb128 0x40
 7166 001d B1640000 		.4byte	.LASF1008
 7167 0021 05       		.byte	0x5
 7168 0022 42       		.uleb128 0x42
 7169 0023 083B0000 		.4byte	.LASF1009
 7170 0027 05       		.byte	0x5
 7171 0028 48       		.uleb128 0x48
 7172 0029 F2690000 		.4byte	.LASF1010
 7173 002d 05       		.byte	0x5
 7174 002e 4A       		.uleb128 0x4a
 7175 002f 63A00000 		.4byte	.LASF1011
 7176 0033 05       		.byte	0x5
 7177 0034 4C       		.uleb128 0x4c
 7178 0035 469D0000 		.4byte	.LASF1012
 7179 0039 05       		.byte	0x5
 7180 003a 4E       		.uleb128 0x4e
 7181 003b 5C8F0000 		.4byte	.LASF1013
 7182 003f 05       		.byte	0x5
 7183 0040 50       		.uleb128 0x50
 7184 0041 8E130000 		.4byte	.LASF1014
 7185 0045 05       		.byte	0x5
 7186 0046 55       		.uleb128 0x55
 7187 0047 EE6F0000 		.4byte	.LASF1015
 7188 004b 05       		.byte	0x5
 7189 004c 57       		.uleb128 0x57
 7190 004d D0900000 		.4byte	.LASF1016
 7191 0051 05       		.byte	0x5
 7192 0052 59       		.uleb128 0x59
 7193 0053 3E420000 		.4byte	.LASF1017
 7194 0057 05       		.byte	0x5
 7195 0058 5B       		.uleb128 0x5b
 7196 0059 9A4E0000 		.4byte	.LASF1018
 7197 005d 05       		.byte	0x5
 7198 005e 5D       		.uleb128 0x5d
 7199 005f 60110000 		.4byte	.LASF1019
 7200 0063 05       		.byte	0x5
 7201 0064 5F       		.uleb128 0x5f
 7202 0065 A3120000 		.4byte	.LASF1020
 7203 0069 05       		.byte	0x5
 7204 006a 66       		.uleb128 0x66
 7205 006b 68390000 		.4byte	.LASF1021
 7206 006f 05       		.byte	0x5
 7207 0070 68       		.uleb128 0x68
ARM GAS  /tmp/ccKti1Oq.s 			page 137


 7208 0071 B8240000 		.4byte	.LASF1022
 7209 0075 05       		.byte	0x5
 7210 0076 6A       		.uleb128 0x6a
 7211 0077 DB600000 		.4byte	.LASF1023
 7212 007b 05       		.byte	0x5
 7213 007c 6C       		.uleb128 0x6c
 7214 007d 6B600000 		.4byte	.LASF1024
 7215 0081 05       		.byte	0x5
 7216 0082 6E       		.uleb128 0x6e
 7217 0083 05120000 		.4byte	.LASF1025
 7218 0087 05       		.byte	0x5
 7219 0088 70       		.uleb128 0x70
 7220 0089 19260000 		.4byte	.LASF1026
 7221 008d 05       		.byte	0x5
 7222 008e 72       		.uleb128 0x72
 7223 008f 0E890000 		.4byte	.LASF1027
 7224 0093 05       		.byte	0x5
 7225 0094 74       		.uleb128 0x74
 7226 0095 8A240000 		.4byte	.LASF1028
 7227 0099 05       		.byte	0x5
 7228 009a 79       		.uleb128 0x79
 7229 009b C44D0000 		.4byte	.LASF1029
 7230 009f 05       		.byte	0x5
 7231 00a0 7B       		.uleb128 0x7b
 7232 00a1 1D7C0000 		.4byte	.LASF1030
 7233 00a5 05       		.byte	0x5
 7234 00a6 7D       		.uleb128 0x7d
 7235 00a7 739F0000 		.4byte	.LASF1031
 7236 00ab 05       		.byte	0x5
 7237 00ac 7E       		.uleb128 0x7e
 7238 00ad 959A0000 		.4byte	.LASF1032
 7239 00b1 05       		.byte	0x5
 7240 00b2 9B01     		.uleb128 0x9b
 7241 00b4 B4630000 		.4byte	.LASF1033
 7242 00b8 05       		.byte	0x5
 7243 00b9 A701     		.uleb128 0xa7
 7244 00bb 77910000 		.4byte	.LASF1034
 7245 00bf 05       		.byte	0x5
 7246 00c0 AF01     		.uleb128 0xaf
 7247 00c2 45620000 		.4byte	.LASF1035
 7248 00c6 05       		.byte	0x5
 7249 00c7 B601     		.uleb128 0xb6
 7250 00c9 92030000 		.4byte	.LASF1036
 7251 00cd 05       		.byte	0x5
 7252 00ce C001     		.uleb128 0xc0
 7253 00d0 326C0000 		.4byte	.LASF1037
 7254 00d4 05       		.byte	0x5
 7255 00d5 CB01     		.uleb128 0xcb
 7256 00d7 8B7F0000 		.4byte	.LASF1038
 7257 00db 05       		.byte	0x5
 7258 00dc 9F02     		.uleb128 0x11f
 7259 00de 0E980000 		.4byte	.LASF1039
 7260 00e2 00       		.byte	0
 7261              		.section	.debug_macro,"G",%progbits,wm4.lpc17xx_clkpwr.h.28.ed653d213cc31b181c2f984ea62223b0,comda
 7262              	.Ldebug_macro15:
 7263 0000 0400     		.2byte	0x4
 7264 0002 00       		.byte	0
ARM GAS  /tmp/ccKti1Oq.s 			page 138


 7265 0003 05       		.byte	0x5
 7266 0004 1C       		.uleb128 0x1c
 7267 0005 21780000 		.4byte	.LASF1040
 7268 0009 05       		.byte	0x5
 7269 000a 33       		.uleb128 0x33
 7270 000b 34900000 		.4byte	.LASF1041
 7271 000f 05       		.byte	0x5
 7272 0010 35       		.uleb128 0x35
 7273 0011 ED1F0000 		.4byte	.LASF1042
 7274 0015 05       		.byte	0x5
 7275 0016 37       		.uleb128 0x37
 7276 0017 1B5C0000 		.4byte	.LASF1043
 7277 001b 05       		.byte	0x5
 7278 001c 39       		.uleb128 0x39
 7279 001d C3150000 		.4byte	.LASF1044
 7280 0021 05       		.byte	0x5
 7281 0022 3E       		.uleb128 0x3e
 7282 0023 546B0000 		.4byte	.LASF1045
 7283 0027 05       		.byte	0x5
 7284 0028 40       		.uleb128 0x40
 7285 0029 7C500000 		.4byte	.LASF1046
 7286 002d 05       		.byte	0x5
 7287 002e 42       		.uleb128 0x42
 7288 002f 866B0000 		.4byte	.LASF1047
 7289 0033 05       		.byte	0x5
 7290 0034 44       		.uleb128 0x44
 7291 0035 E6310000 		.4byte	.LASF1048
 7292 0039 05       		.byte	0x5
 7293 003a 46       		.uleb128 0x46
 7294 003b 34780000 		.4byte	.LASF1049
 7295 003f 05       		.byte	0x5
 7296 0040 48       		.uleb128 0x48
 7297 0041 3E180000 		.4byte	.LASF1050
 7298 0045 05       		.byte	0x5
 7299 0046 4A       		.uleb128 0x4a
 7300 0047 E8920000 		.4byte	.LASF1051
 7301 004b 05       		.byte	0x5
 7302 004c 4C       		.uleb128 0x4c
 7303 004d F5760000 		.4byte	.LASF1052
 7304 0051 05       		.byte	0x5
 7305 0052 4E       		.uleb128 0x4e
 7306 0053 7FA10000 		.4byte	.LASF1053
 7307 0057 05       		.byte	0x5
 7308 0058 53       		.uleb128 0x53
 7309 0059 52640000 		.4byte	.LASF1054
 7310 005d 05       		.byte	0x5
 7311 005e 55       		.uleb128 0x55
 7312 005f B3540000 		.4byte	.LASF1055
 7313 0063 05       		.byte	0x5
 7314 0064 57       		.uleb128 0x57
 7315 0065 2F990000 		.4byte	.LASF1056
 7316 0069 05       		.byte	0x5
 7317 006a 5C       		.uleb128 0x5c
 7318 006b EA2E0000 		.4byte	.LASF1057
 7319 006f 05       		.byte	0x5
 7320 0070 5E       		.uleb128 0x5e
 7321 0071 822E0000 		.4byte	.LASF1058
ARM GAS  /tmp/ccKti1Oq.s 			page 139


 7322 0075 05       		.byte	0x5
 7323 0076 60       		.uleb128 0x60
 7324 0077 0E6D0000 		.4byte	.LASF1059
 7325 007b 05       		.byte	0x5
 7326 007c 65       		.uleb128 0x65
 7327 007d D9460000 		.4byte	.LASF1060
 7328 0081 05       		.byte	0x5
 7329 0082 67       		.uleb128 0x67
 7330 0083 40860000 		.4byte	.LASF1061
 7331 0087 05       		.byte	0x5
 7332 0088 69       		.uleb128 0x69
 7333 0089 A6700000 		.4byte	.LASF1062
 7334 008d 05       		.byte	0x5
 7335 008e 6B       		.uleb128 0x6b
 7336 008f CD010000 		.4byte	.LASF1063
 7337 0093 05       		.byte	0x5
 7338 0094 6D       		.uleb128 0x6d
 7339 0095 72680000 		.4byte	.LASF1064
 7340 0099 05       		.byte	0x5
 7341 009a 72       		.uleb128 0x72
 7342 009b A1780000 		.4byte	.LASF1065
 7343 009f 05       		.byte	0x5
 7344 00a0 77       		.uleb128 0x77
 7345 00a1 9F5E0000 		.4byte	.LASF1066
 7346 00a5 05       		.byte	0x5
 7347 00a6 79       		.uleb128 0x79
 7348 00a7 CF480000 		.4byte	.LASF1067
 7349 00ab 05       		.byte	0x5
 7350 00ac 7B       		.uleb128 0x7b
 7351 00ad F62F0000 		.4byte	.LASF1068
 7352 00b1 05       		.byte	0x5
 7353 00b2 8001     		.uleb128 0x80
 7354 00b4 C5350000 		.4byte	.LASF1069
 7355 00b8 05       		.byte	0x5
 7356 00b9 8201     		.uleb128 0x82
 7357 00bb FF0E0000 		.4byte	.LASF1070
 7358 00bf 05       		.byte	0x5
 7359 00c0 8401     		.uleb128 0x84
 7360 00c2 FA670000 		.4byte	.LASF1071
 7361 00c6 05       		.byte	0x5
 7362 00c7 8901     		.uleb128 0x89
 7363 00c9 E5120000 		.4byte	.LASF1072
 7364 00cd 05       		.byte	0x5
 7365 00ce 8B01     		.uleb128 0x8b
 7366 00d0 084B0000 		.4byte	.LASF1073
 7367 00d4 05       		.byte	0x5
 7368 00d5 8D01     		.uleb128 0x8d
 7369 00d7 AF510000 		.4byte	.LASF1074
 7370 00db 05       		.byte	0x5
 7371 00dc 8F01     		.uleb128 0x8f
 7372 00de B1890000 		.4byte	.LASF1075
 7373 00e2 05       		.byte	0x5
 7374 00e3 9101     		.uleb128 0x91
 7375 00e5 55A10000 		.4byte	.LASF1076
 7376 00e9 05       		.byte	0x5
 7377 00ea 9601     		.uleb128 0x96
 7378 00ec E86D0000 		.4byte	.LASF1077
ARM GAS  /tmp/ccKti1Oq.s 			page 140


 7379 00f0 05       		.byte	0x5
 7380 00f1 9B01     		.uleb128 0x9b
 7381 00f3 389A0000 		.4byte	.LASF1078
 7382 00f7 05       		.byte	0x5
 7383 00f8 9F01     		.uleb128 0x9f
 7384 00fa 62130000 		.4byte	.LASF1079
 7385 00fe 05       		.byte	0x5
 7386 00ff A301     		.uleb128 0xa3
 7387 0101 0C850000 		.4byte	.LASF1080
 7388 0105 05       		.byte	0x5
 7389 0106 A801     		.uleb128 0xa8
 7390 0108 364E0000 		.4byte	.LASF1081
 7391 010c 05       		.byte	0x5
 7392 010d AA01     		.uleb128 0xaa
 7393 010f C0990000 		.4byte	.LASF1082
 7394 0113 05       		.byte	0x5
 7395 0114 B001     		.uleb128 0xb0
 7396 0116 919B0000 		.4byte	.LASF1083
 7397 011a 05       		.byte	0x5
 7398 011b B201     		.uleb128 0xb2
 7399 011d 69260000 		.4byte	.LASF1084
 7400 0121 05       		.byte	0x5
 7401 0122 B401     		.uleb128 0xb4
 7402 0124 63190000 		.4byte	.LASF1085
 7403 0128 05       		.byte	0x5
 7404 0129 B901     		.uleb128 0xb9
 7405 012b E8790000 		.4byte	.LASF1086
 7406 012f 05       		.byte	0x5
 7407 0130 BB01     		.uleb128 0xbb
 7408 0132 D05F0000 		.4byte	.LASF1087
 7409 0136 05       		.byte	0x5
 7410 0137 BD01     		.uleb128 0xbd
 7411 0139 304A0000 		.4byte	.LASF1088
 7412 013d 05       		.byte	0x5
 7413 013e BF01     		.uleb128 0xbf
 7414 0140 383F0000 		.4byte	.LASF1089
 7415 0144 05       		.byte	0x5
 7416 0145 C101     		.uleb128 0xc1
 7417 0147 F7750000 		.4byte	.LASF1090
 7418 014b 05       		.byte	0x5
 7419 014c C301     		.uleb128 0xc3
 7420 014e C64A0000 		.4byte	.LASF1091
 7421 0152 05       		.byte	0x5
 7422 0153 C501     		.uleb128 0xc5
 7423 0155 989E0000 		.4byte	.LASF1092
 7424 0159 05       		.byte	0x5
 7425 015a C701     		.uleb128 0xc7
 7426 015c FD510000 		.4byte	.LASF1093
 7427 0160 05       		.byte	0x5
 7428 0161 C901     		.uleb128 0xc9
 7429 0163 7A3E0000 		.4byte	.LASF1094
 7430 0167 05       		.byte	0x5
 7431 0168 CD01     		.uleb128 0xcd
 7432 016a 1D3D0000 		.4byte	.LASF1095
 7433 016e 05       		.byte	0x5
 7434 016f E101     		.uleb128 0xe1
 7435 0171 C14E0000 		.4byte	.LASF1096
ARM GAS  /tmp/ccKti1Oq.s 			page 141


 7436 0175 05       		.byte	0x5
 7437 0176 E301     		.uleb128 0xe3
 7438 0178 F6420000 		.4byte	.LASF1097
 7439 017c 05       		.byte	0x5
 7440 017d E501     		.uleb128 0xe5
 7441 017f 4C630000 		.4byte	.LASF1098
 7442 0183 05       		.byte	0x5
 7443 0184 E701     		.uleb128 0xe7
 7444 0186 7A960000 		.4byte	.LASF1099
 7445 018a 05       		.byte	0x5
 7446 018b E901     		.uleb128 0xe9
 7447 018d 926D0000 		.4byte	.LASF1100
 7448 0191 05       		.byte	0x5
 7449 0192 EB01     		.uleb128 0xeb
 7450 0194 A97A0000 		.4byte	.LASF1101
 7451 0198 05       		.byte	0x5
 7452 0199 ED01     		.uleb128 0xed
 7453 019b 24520000 		.4byte	.LASF1102
 7454 019f 05       		.byte	0x5
 7455 01a0 EF01     		.uleb128 0xef
 7456 01a2 431E0000 		.4byte	.LASF1103
 7457 01a6 05       		.byte	0x5
 7458 01a7 F101     		.uleb128 0xf1
 7459 01a9 8A3C0000 		.4byte	.LASF1104
 7460 01ad 05       		.byte	0x5
 7461 01ae F301     		.uleb128 0xf3
 7462 01b0 530F0000 		.4byte	.LASF1105
 7463 01b4 05       		.byte	0x5
 7464 01b5 F501     		.uleb128 0xf5
 7465 01b7 D8780000 		.4byte	.LASF1106
 7466 01bb 05       		.byte	0x5
 7467 01bc F701     		.uleb128 0xf7
 7468 01be 1B950000 		.4byte	.LASF1107
 7469 01c2 05       		.byte	0x5
 7470 01c3 F901     		.uleb128 0xf9
 7471 01c5 6A050000 		.4byte	.LASF1108
 7472 01c9 05       		.byte	0x5
 7473 01ca FB01     		.uleb128 0xfb
 7474 01cc 69650000 		.4byte	.LASF1109
 7475 01d0 05       		.byte	0x5
 7476 01d1 FD01     		.uleb128 0xfd
 7477 01d3 F5400000 		.4byte	.LASF1110
 7478 01d7 05       		.byte	0x5
 7479 01d8 FF01     		.uleb128 0xff
 7480 01da 7A510000 		.4byte	.LASF1111
 7481 01de 05       		.byte	0x5
 7482 01df 8102     		.uleb128 0x101
 7483 01e1 CA830000 		.4byte	.LASF1112
 7484 01e5 05       		.byte	0x5
 7485 01e6 8302     		.uleb128 0x103
 7486 01e8 EE0D0000 		.4byte	.LASF1113
 7487 01ec 05       		.byte	0x5
 7488 01ed 8502     		.uleb128 0x105
 7489 01ef 7F090000 		.4byte	.LASF1114
 7490 01f3 05       		.byte	0x5
 7491 01f4 8702     		.uleb128 0x107
 7492 01f6 9C3D0000 		.4byte	.LASF1115
ARM GAS  /tmp/ccKti1Oq.s 			page 142


 7493 01fa 05       		.byte	0x5
 7494 01fb 8902     		.uleb128 0x109
 7495 01fd 778C0000 		.4byte	.LASF1116
 7496 0201 05       		.byte	0x5
 7497 0202 8B02     		.uleb128 0x10b
 7498 0204 2F430000 		.4byte	.LASF1117
 7499 0208 05       		.byte	0x5
 7500 0209 8D02     		.uleb128 0x10d
 7501 020b C7580000 		.4byte	.LASF1118
 7502 020f 05       		.byte	0x5
 7503 0210 8F02     		.uleb128 0x10f
 7504 0212 F5250000 		.4byte	.LASF1119
 7505 0216 05       		.byte	0x5
 7506 0217 9102     		.uleb128 0x111
 7507 0219 CD360000 		.4byte	.LASF1120
 7508 021d 05       		.byte	0x5
 7509 021e 9302     		.uleb128 0x113
 7510 0220 CE7A0000 		.4byte	.LASF1121
 7511 0224 05       		.byte	0x5
 7512 0225 9502     		.uleb128 0x115
 7513 0227 56270000 		.4byte	.LASF1122
 7514 022b 05       		.byte	0x5
 7515 022c 9C02     		.uleb128 0x11c
 7516 022e EE1E0000 		.4byte	.LASF1123
 7517 0232 05       		.byte	0x5
 7518 0233 9E02     		.uleb128 0x11e
 7519 0235 FA530000 		.4byte	.LASF1124
 7520 0239 05       		.byte	0x5
 7521 023a A002     		.uleb128 0x120
 7522 023c 708A0000 		.4byte	.LASF1125
 7523 0240 05       		.byte	0x5
 7524 0241 A702     		.uleb128 0x127
 7525 0243 939C0000 		.4byte	.LASF1126
 7526 0247 05       		.byte	0x5
 7527 0248 A902     		.uleb128 0x129
 7528 024a 295A0000 		.4byte	.LASF1127
 7529 024e 05       		.byte	0x5
 7530 024f AB02     		.uleb128 0x12b
 7531 0251 2A9F0000 		.4byte	.LASF1128
 7532 0255 05       		.byte	0x5
 7533 0256 AD02     		.uleb128 0x12d
 7534 0258 F5650000 		.4byte	.LASF1129
 7535 025c 05       		.byte	0x5
 7536 025d AF02     		.uleb128 0x12f
 7537 025f C99C0000 		.4byte	.LASF1130
 7538 0263 05       		.byte	0x5
 7539 0264 B102     		.uleb128 0x131
 7540 0266 5A150000 		.4byte	.LASF1131
 7541 026a 05       		.byte	0x5
 7542 026b B302     		.uleb128 0x133
 7543 026d 8FA00000 		.4byte	.LASF1132
 7544 0271 05       		.byte	0x5
 7545 0272 B502     		.uleb128 0x135
 7546 0274 942F0000 		.4byte	.LASF1133
 7547 0278 05       		.byte	0x5
 7548 0279 B702     		.uleb128 0x137
 7549 027b B41C0000 		.4byte	.LASF1134
ARM GAS  /tmp/ccKti1Oq.s 			page 143


 7550 027f 05       		.byte	0x5
 7551 0280 B902     		.uleb128 0x139
 7552 0282 487A0000 		.4byte	.LASF1135
 7553 0286 05       		.byte	0x5
 7554 0287 BB02     		.uleb128 0x13b
 7555 0289 3C310000 		.4byte	.LASF1136
 7556 028d 05       		.byte	0x5
 7557 028e BD02     		.uleb128 0x13d
 7558 0290 CE400000 		.4byte	.LASF1137
 7559 0294 05       		.byte	0x5
 7560 0295 BF02     		.uleb128 0x13f
 7561 0297 54500000 		.4byte	.LASF1138
 7562 029b 05       		.byte	0x5
 7563 029c C102     		.uleb128 0x141
 7564 029e BC260000 		.4byte	.LASF1139
 7565 02a2 05       		.byte	0x5
 7566 02a3 C302     		.uleb128 0x143
 7567 02a5 CF810000 		.4byte	.LASF1140
 7568 02a9 05       		.byte	0x5
 7569 02aa C502     		.uleb128 0x145
 7570 02ac 73540000 		.4byte	.LASF1141
 7571 02b0 05       		.byte	0x5
 7572 02b1 C702     		.uleb128 0x147
 7573 02b3 A2650000 		.4byte	.LASF1142
 7574 02b7 05       		.byte	0x5
 7575 02b8 C902     		.uleb128 0x149
 7576 02ba AF3C0000 		.4byte	.LASF1143
 7577 02be 05       		.byte	0x5
 7578 02bf CB02     		.uleb128 0x14b
 7579 02c1 96010000 		.4byte	.LASF1144
 7580 02c5 05       		.byte	0x5
 7581 02c6 CD02     		.uleb128 0x14d
 7582 02c8 6B8D0000 		.4byte	.LASF1145
 7583 02cc 05       		.byte	0x5
 7584 02cd CF02     		.uleb128 0x14f
 7585 02cf B3280000 		.4byte	.LASF1146
 7586 02d3 05       		.byte	0x5
 7587 02d4 D102     		.uleb128 0x151
 7588 02d6 80450000 		.4byte	.LASF1147
 7589 02da 05       		.byte	0x5
 7590 02db D302     		.uleb128 0x153
 7591 02dd 32150000 		.4byte	.LASF1148
 7592 02e1 05       		.byte	0x5
 7593 02e2 D502     		.uleb128 0x155
 7594 02e4 06310000 		.4byte	.LASF1149
 7595 02e8 05       		.byte	0x5
 7596 02e9 D702     		.uleb128 0x157
 7597 02eb CE940000 		.4byte	.LASF1150
 7598 02ef 05       		.byte	0x5
 7599 02f0 D902     		.uleb128 0x159
 7600 02f2 89890000 		.4byte	.LASF1151
 7601 02f6 05       		.byte	0x5
 7602 02f7 DB02     		.uleb128 0x15b
 7603 02f9 12570000 		.4byte	.LASF1152
 7604 02fd 00       		.byte	0
 7605              		.section	.debug_macro,"G",%progbits,wm4.lpc17xx_pinsel.h.28.bc46bf1b2bb0ba1d039ea141cd9f6585,comda
 7606              	.Ldebug_macro16:
ARM GAS  /tmp/ccKti1Oq.s 			page 144


 7607 0000 0400     		.2byte	0x4
 7608 0002 00       		.byte	0
 7609 0003 05       		.byte	0x5
 7610 0004 1C       		.uleb128 0x1c
 7611 0005 4A700000 		.4byte	.LASF1153
 7612 0009 05       		.byte	0x5
 7613 000a 33       		.uleb128 0x33
 7614 000b 85610000 		.4byte	.LASF1154
 7615 000f 05       		.byte	0x5
 7616 0010 34       		.uleb128 0x34
 7617 0011 31660000 		.4byte	.LASF1155
 7618 0015 05       		.byte	0x5
 7619 0016 35       		.uleb128 0x35
 7620 0017 DF9E0000 		.4byte	.LASF1156
 7621 001b 05       		.byte	0x5
 7622 001c 36       		.uleb128 0x36
 7623 001d FC950000 		.4byte	.LASF1157
 7624 0021 05       		.byte	0x5
 7625 0022 49       		.uleb128 0x49
 7626 0023 D9890000 		.4byte	.LASF1158
 7627 0027 05       		.byte	0x5
 7628 0028 4A       		.uleb128 0x4a
 7629 0029 1D630000 		.4byte	.LASF1159
 7630 002d 05       		.byte	0x5
 7631 002e 4B       		.uleb128 0x4b
 7632 002f 673A0000 		.4byte	.LASF1160
 7633 0033 05       		.byte	0x5
 7634 0034 4C       		.uleb128 0x4c
 7635 0035 07950000 		.4byte	.LASF1161
 7636 0039 05       		.byte	0x5
 7637 003a 4D       		.uleb128 0x4d
 7638 003b 0A860000 		.4byte	.LASF1162
 7639 003f 05       		.byte	0x5
 7640 0040 53       		.uleb128 0x53
 7641 0041 8B1B0000 		.4byte	.LASF1163
 7642 0045 05       		.byte	0x5
 7643 0046 54       		.uleb128 0x54
 7644 0047 A14C0000 		.4byte	.LASF1164
 7645 004b 05       		.byte	0x5
 7646 004c 55       		.uleb128 0x55
 7647 004d 621A0000 		.4byte	.LASF1165
 7648 0051 05       		.byte	0x5
 7649 0052 56       		.uleb128 0x56
 7650 0053 D0440000 		.4byte	.LASF1166
 7651 0057 05       		.byte	0x5
 7652 0058 5D       		.uleb128 0x5d
 7653 0059 42000000 		.4byte	.LASF1167
 7654 005d 05       		.byte	0x5
 7655 005e 5E       		.uleb128 0x5e
 7656 005f D9530000 		.4byte	.LASF1168
 7657 0063 05       		.byte	0x5
 7658 0064 5F       		.uleb128 0x5f
 7659 0065 3D5E0000 		.4byte	.LASF1169
 7660 0069 05       		.byte	0x5
 7661 006a 60       		.uleb128 0x60
 7662 006b BE610000 		.4byte	.LASF1170
 7663 006f 05       		.byte	0x5
ARM GAS  /tmp/ccKti1Oq.s 			page 145


 7664 0070 61       		.uleb128 0x61
 7665 0071 6D750000 		.4byte	.LASF1171
 7666 0075 05       		.byte	0x5
 7667 0076 62       		.uleb128 0x62
 7668 0077 04110000 		.4byte	.LASF1172
 7669 007b 05       		.byte	0x5
 7670 007c 63       		.uleb128 0x63
 7671 007d 233C0000 		.4byte	.LASF1173
 7672 0081 05       		.byte	0x5
 7673 0082 64       		.uleb128 0x64
 7674 0083 D1620000 		.4byte	.LASF1174
 7675 0087 05       		.byte	0x5
 7676 0088 65       		.uleb128 0x65
 7677 0089 648C0000 		.4byte	.LASF1175
 7678 008d 05       		.byte	0x5
 7679 008e 66       		.uleb128 0x66
 7680 008f F2110000 		.4byte	.LASF1176
 7681 0093 05       		.byte	0x5
 7682 0094 67       		.uleb128 0x67
 7683 0095 0A210000 		.4byte	.LASF1177
 7684 0099 05       		.byte	0x5
 7685 009a 68       		.uleb128 0x68
 7686 009b CF040000 		.4byte	.LASF1178
 7687 009f 05       		.byte	0x5
 7688 00a0 69       		.uleb128 0x69
 7689 00a1 9F320000 		.4byte	.LASF1179
 7690 00a5 05       		.byte	0x5
 7691 00a6 6A       		.uleb128 0x6a
 7692 00a7 198B0000 		.4byte	.LASF1180
 7693 00ab 05       		.byte	0x5
 7694 00ac 6B       		.uleb128 0x6b
 7695 00ad 7A5B0000 		.4byte	.LASF1181
 7696 00b1 05       		.byte	0x5
 7697 00b2 6C       		.uleb128 0x6c
 7698 00b3 B9400000 		.4byte	.LASF1182
 7699 00b7 05       		.byte	0x5
 7700 00b8 6D       		.uleb128 0x6d
 7701 00b9 6B690000 		.4byte	.LASF1183
 7702 00bd 05       		.byte	0x5
 7703 00be 6E       		.uleb128 0x6e
 7704 00bf 17110000 		.4byte	.LASF1184
 7705 00c3 05       		.byte	0x5
 7706 00c4 6F       		.uleb128 0x6f
 7707 00c5 F9230000 		.4byte	.LASF1185
 7708 00c9 05       		.byte	0x5
 7709 00ca 70       		.uleb128 0x70
 7710 00cb 5D700000 		.4byte	.LASF1186
 7711 00cf 05       		.byte	0x5
 7712 00d0 71       		.uleb128 0x71
 7713 00d1 49550000 		.4byte	.LASF1187
 7714 00d5 05       		.byte	0x5
 7715 00d6 72       		.uleb128 0x72
 7716 00d7 B17B0000 		.4byte	.LASF1188
 7717 00db 05       		.byte	0x5
 7718 00dc 73       		.uleb128 0x73
 7719 00dd 70610000 		.4byte	.LASF1189
 7720 00e1 05       		.byte	0x5
ARM GAS  /tmp/ccKti1Oq.s 			page 146


 7721 00e2 74       		.uleb128 0x74
 7722 00e3 90490000 		.4byte	.LASF1190
 7723 00e7 05       		.byte	0x5
 7724 00e8 75       		.uleb128 0x75
 7725 00e9 74890000 		.4byte	.LASF1191
 7726 00ed 05       		.byte	0x5
 7727 00ee 76       		.uleb128 0x76
 7728 00ef 0C780000 		.4byte	.LASF1192
 7729 00f3 05       		.byte	0x5
 7730 00f4 77       		.uleb128 0x77
 7731 00f5 15000000 		.4byte	.LASF1193
 7732 00f9 05       		.byte	0x5
 7733 00fa 78       		.uleb128 0x78
 7734 00fb 889F0000 		.4byte	.LASF1194
 7735 00ff 05       		.byte	0x5
 7736 0100 79       		.uleb128 0x79
 7737 0101 F1990000 		.4byte	.LASF1195
 7738 0105 05       		.byte	0x5
 7739 0106 7A       		.uleb128 0x7a
 7740 0107 DC270000 		.4byte	.LASF1196
 7741 010b 05       		.byte	0x5
 7742 010c 7B       		.uleb128 0x7b
 7743 010d A7690000 		.4byte	.LASF1197
 7744 0111 05       		.byte	0x5
 7745 0112 7C       		.uleb128 0x7c
 7746 0113 D8690000 		.4byte	.LASF1198
 7747 0117 05       		.byte	0x5
 7748 0118 8201     		.uleb128 0x82
 7749 011a 6D7B0000 		.4byte	.LASF1199
 7750 011e 05       		.byte	0x5
 7751 011f 8301     		.uleb128 0x83
 7752 0121 4C960000 		.4byte	.LASF1200
 7753 0125 05       		.byte	0x5
 7754 0126 8401     		.uleb128 0x84
 7755 0128 5D9C0000 		.4byte	.LASF1201
 7756 012c 05       		.byte	0x5
 7757 012d 8A01     		.uleb128 0x8a
 7758 012f 72700000 		.4byte	.LASF1202
 7759 0133 05       		.byte	0x5
 7760 0134 8B01     		.uleb128 0x8b
 7761 0136 B0680000 		.4byte	.LASF1203
 7762 013a 05       		.byte	0x5
 7763 013b 9101     		.uleb128 0x91
 7764 013d 4C260000 		.4byte	.LASF1204
 7765 0141 05       		.byte	0x5
 7766 0142 9201     		.uleb128 0x92
 7767 0144 3D930000 		.4byte	.LASF1205
 7768 0148 00       		.byte	0
 7769              		.section	.debug_macro,"G",%progbits,wm4.lpc17xx_libcfg_default.h.27.7c412cdf4245ef94b86bdcf981a232
 7770              	.Ldebug_macro17:
 7771 0000 0400     		.2byte	0x4
 7772 0002 00       		.byte	0
 7773 0003 05       		.byte	0x5
 7774 0004 1B       		.uleb128 0x1b
 7775 0005 217D0000 		.4byte	.LASF1206
 7776 0009 05       		.byte	0x5
 7777 000a 2A       		.uleb128 0x2a
ARM GAS  /tmp/ccKti1Oq.s 			page 147


 7778 000b 180D0000 		.4byte	.LASF1207
 7779 000f 05       		.byte	0x5
 7780 0010 32       		.uleb128 0x32
 7781 0011 FF680000 		.4byte	.LASF1208
 7782 0015 05       		.byte	0x5
 7783 0016 35       		.uleb128 0x35
 7784 0017 8F5B0000 		.4byte	.LASF1209
 7785 001b 05       		.byte	0x5
 7786 001c 36       		.uleb128 0x36
 7787 001d B1520000 		.4byte	.LASF1210
 7788 0021 05       		.byte	0x5
 7789 0022 37       		.uleb128 0x37
 7790 0023 CF700000 		.4byte	.LASF1211
 7791 0027 05       		.byte	0x5
 7792 0028 38       		.uleb128 0x38
 7793 0029 73440000 		.4byte	.LASF1212
 7794 002d 05       		.byte	0x5
 7795 002e 39       		.uleb128 0x39
 7796 002f 300F0000 		.4byte	.LASF1213
 7797 0033 05       		.byte	0x5
 7798 0034 3C       		.uleb128 0x3c
 7799 0035 B6710000 		.4byte	.LASF1214
 7800 0039 05       		.byte	0x5
 7801 003a 3F       		.uleb128 0x3f
 7802 003b CE9A0000 		.4byte	.LASF1215
 7803 003f 05       		.byte	0x5
 7804 0040 40       		.uleb128 0x40
 7805 0041 D1610000 		.4byte	.LASF1216
 7806 0045 05       		.byte	0x5
 7807 0046 41       		.uleb128 0x41
 7808 0047 CE2D0000 		.4byte	.LASF1217
 7809 004b 05       		.byte	0x5
 7810 004c 45       		.uleb128 0x45
 7811 004d 4A1B0000 		.4byte	.LASF1218
 7812 0051 05       		.byte	0x5
 7813 0052 46       		.uleb128 0x46
 7814 0053 21330000 		.4byte	.LASF1219
 7815 0057 05       		.byte	0x5
 7816 0058 47       		.uleb128 0x47
 7817 0059 B39B0000 		.4byte	.LASF1220
 7818 005d 05       		.byte	0x5
 7819 005e 48       		.uleb128 0x48
 7820 005f 1C6A0000 		.4byte	.LASF1221
 7821 0063 05       		.byte	0x5
 7822 0064 4B       		.uleb128 0x4b
 7823 0065 3C040000 		.4byte	.LASF1222
 7824 0069 05       		.byte	0x5
 7825 006a 4E       		.uleb128 0x4e
 7826 006b 30790000 		.4byte	.LASF1223
 7827 006f 05       		.byte	0x5
 7828 0070 52       		.uleb128 0x52
 7829 0071 813C0000 		.4byte	.LASF1224
 7830 0075 05       		.byte	0x5
 7831 0076 56       		.uleb128 0x56
 7832 0077 6E4A0000 		.4byte	.LASF1225
 7833 007b 05       		.byte	0x5
 7834 007c 59       		.uleb128 0x59
ARM GAS  /tmp/ccKti1Oq.s 			page 148


 7835 007d C2790000 		.4byte	.LASF1226
 7836 0081 05       		.byte	0x5
 7837 0082 5D       		.uleb128 0x5d
 7838 0083 8C660000 		.4byte	.LASF1227
 7839 0087 05       		.byte	0x5
 7840 0088 5E       		.uleb128 0x5e
 7841 0089 5F3A0000 		.4byte	.LASF1228
 7842 008d 05       		.byte	0x5
 7843 008e 61       		.uleb128 0x61
 7844 008f AD1C0000 		.4byte	.LASF1229
 7845 0093 05       		.byte	0x5
 7846 0094 64       		.uleb128 0x64
 7847 0095 90630000 		.4byte	.LASF1230
 7848 0099 05       		.byte	0x5
 7849 009a 67       		.uleb128 0x67
 7850 009b D15C0000 		.4byte	.LASF1231
 7851 009f 05       		.byte	0x5
 7852 00a0 68       		.uleb128 0x68
 7853 00a1 24540000 		.4byte	.LASF1232
 7854 00a5 05       		.byte	0x5
 7855 00a6 6B       		.uleb128 0x6b
 7856 00a7 E79A0000 		.4byte	.LASF1233
 7857 00ab 05       		.byte	0x5
 7858 00ac 6E       		.uleb128 0x6e
 7859 00ad E5330000 		.4byte	.LASF1234
 7860 00b1 05       		.byte	0x5
 7861 00b2 71       		.uleb128 0x71
 7862 00b3 25930000 		.4byte	.LASF1235
 7863 00b7 05       		.byte	0x5
 7864 00b8 74       		.uleb128 0x74
 7865 00b9 BC220000 		.4byte	.LASF1236
 7866 00bd 05       		.byte	0x5
 7867 00be 77       		.uleb128 0x77
 7868 00bf 9F990000 		.4byte	.LASF1237
 7869 00c3 05       		.byte	0x5
 7870 00c4 8601     		.uleb128 0x86
 7871 00c6 DA6A0000 		.4byte	.LASF1238
 7872 00ca 00       		.byte	0
 7873              		.section	.debug_line,"",%progbits
 7874              	.Ldebug_line0:
 7875 0000 5A050000 		.section	.debug_str,"MS",%progbits,1
 7875      0200D901 
 7875      00000201 
 7875      FB0E0D00 
 7875      01010101 
 7876              	.LASF1340:
 7877 0000 636F7265 		.ascii	"core/lpc17xx_timer.c\000"
 7877      2F6C7063 
 7877      31377878 
 7877      5F74696D 
 7877      65722E63 
 7878              	.LASF1193:
 7879 0015 50494E53 		.ascii	"PINSEL_PIN_26 ((26))\000"
 7879      454C5F50 
 7879      494E5F32 
 7879      36202828 
 7879      32362929 
ARM GAS  /tmp/ccKti1Oq.s 			page 149


 7880              	.LASF589:
 7881 002a 57494E54 		.ascii	"WINT_MIN (__WINT_MIN__)\000"
 7881      5F4D494E 
 7881      20285F5F 
 7881      57494E54 
 7881      5F4D494E 
 7882              	.LASF1167:
 7883 0042 50494E53 		.ascii	"PINSEL_PIN_0 ((0))\000"
 7883      454C5F50 
 7883      494E5F30 
 7883      20282830 
 7883      292900
 7884              	.LASF178:
 7885 0055 5F5F4445 		.ascii	"__DECIMAL_DIG__ 17\000"
 7885      43494D41 
 7885      4C5F4449 
 7885      475F5F20 
 7885      313700
 7886              	.LASF210:
 7887 0068 5F5F464C 		.ascii	"__FLT64_EPSILON__ 2.2204460492503131e-16F64\000"
 7887      5436345F 
 7887      45505349 
 7887      4C4F4E5F 
 7887      5F20322E 
 7888              	.LASF471:
 7889 0094 5F5F5356 		.ascii	"__SVID_VISIBLE 1\000"
 7889      49445F56 
 7889      49534942 
 7889      4C452031 
 7889      00
 7890              	.LASF594:
 7891 00a5 494E5433 		.ascii	"INT32_C(x) __INT32_C(x)\000"
 7891      325F4328 
 7891      7829205F 
 7891      5F494E54 
 7891      33325F43 
 7892              	.LASF799:
 7893 00bd 4D50555F 		.ascii	"MPU_RASR_XN_Pos 28\000"
 7893      52415352 
 7893      5F584E5F 
 7893      506F7320 
 7893      323800
 7894              	.LASF994:
 7895 00d0 5F424954 		.ascii	"_BIT\000"
 7895      00
 7896              	.LASF248:
 7897 00d5 5F5F4445 		.ascii	"__DEC128_EPSILON__ 1E-33DL\000"
 7897      43313238 
 7897      5F455053 
 7897      494C4F4E 
 7897      5F5F2031 
 7898              	.LASF712:
 7899 00f0 5343425F 		.ascii	"SCB_HFSR_VECTTBL_Msk (1UL << SCB_HFSR_VECTTBL_Pos)\000"
 7899      48465352 
 7899      5F564543 
 7899      5454424C 
 7899      5F4D736B 
ARM GAS  /tmp/ccKti1Oq.s 			page 150


 7900              	.LASF1304:
 7901 0123 496E744F 		.ascii	"IntOnCaption\000"
 7901      6E436170 
 7901      74696F6E 
 7901      00
 7902              	.LASF864:
 7903 0130 436F7265 		.ascii	"CoreDebug_DEMCR_VC_CHKERR_Msk (1UL << CoreDebug_DEM"
 7903      44656275 
 7903      675F4445 
 7903      4D43525F 
 7903      56435F43 
 7904 0163 43525F56 		.ascii	"CR_VC_CHKERR_Pos)\000"
 7904      435F4348 
 7904      4B455252 
 7904      5F506F73 
 7904      2900
 7905              	.LASF378:
 7906 0175 5F5F4743 		.ascii	"__GCC_ATOMIC_WCHAR_T_LOCK_FREE 2\000"
 7906      435F4154 
 7906      4F4D4943 
 7906      5F574348 
 7906      41525F54 
 7907              	.LASF1144:
 7908 0196 434C4B50 		.ascii	"CLKPWR_PCONP_PCTIM2 ((uint32_t)(1<<22))\000"
 7908      57525F50 
 7908      434F4E50 
 7908      5F504354 
 7908      494D3220 
 7909              	.LASF357:
 7910 01be 5F5F5441 		.ascii	"__TA_IBIT__ 64\000"
 7910      5F494249 
 7910      545F5F20 
 7910      363400
 7911              	.LASF1063:
 7912 01cd 434C4B50 		.ascii	"CLKPWR_PLL0STAT_PLLC ((uint32_t)(1<<25))\000"
 7912      57525F50 
 7912      4C4C3053 
 7912      5441545F 
 7912      504C4C43 
 7913              	.LASF671:
 7914 01f6 5343425F 		.ascii	"SCB_CCR_NONBASETHRDENA_Pos 0\000"
 7914      4343525F 
 7914      4E4F4E42 
 7914      41534554 
 7914      48524445 
 7915              	.LASF1317:
 7916 0213 54494D5F 		.ascii	"TIM_Cmd\000"
 7916      436D6400 
 7917              	.LASF640:
 7918 021b 5343425F 		.ascii	"SCB_VTOR_TBLOFF_Msk (0x3FFFFFUL << SCB_VTOR_TBLOFF_"
 7918      56544F52 
 7918      5F54424C 
 7918      4F46465F 
 7918      4D736B20 
 7919 024e 506F7329 		.ascii	"Pos)\000"
 7919      00
 7920              	.LASF213:
ARM GAS  /tmp/ccKti1Oq.s 			page 151


 7921 0253 5F5F464C 		.ascii	"__FLT64_HAS_INFINITY__ 1\000"
 7921      5436345F 
 7921      4841535F 
 7921      494E4649 
 7921      4E495459 
 7922              	.LASF670:
 7923 026c 5343425F 		.ascii	"SCB_CCR_USERSETMPEND_Msk (1UL << SCB_CCR_USERSETMPE"
 7923      4343525F 
 7923      55534552 
 7923      5345544D 
 7923      50454E44 
 7924 029f 4E445F50 		.ascii	"ND_Pos)\000"
 7924      6F732900 
 7925              	.LASF867:
 7926 02a7 436F7265 		.ascii	"CoreDebug_DEMCR_VC_MMERR_Pos 4\000"
 7926      44656275 
 7926      675F4445 
 7926      4D43525F 
 7926      56435F4D 
 7927              	.LASF322:
 7928 02c6 5F5F4C4C 		.ascii	"__LLACCUM_MIN__ (-0X1P31LLK-0X1P31LLK)\000"
 7928      41434355 
 7928      4D5F4D49 
 7928      4E5F5F20 
 7928      282D3058 
 7929              	.LASF314:
 7930 02ed 5F5F4C41 		.ascii	"__LACCUM_EPSILON__ 0x1P-31LK\000"
 7930      4343554D 
 7930      5F455053 
 7930      494C4F4E 
 7930      5F5F2030 
 7931              	.LASF76:
 7932 030a 5F5F5054 		.ascii	"__PTRDIFF_MAX__ 0x7fffffff\000"
 7932      52444946 
 7932      465F4D41 
 7932      585F5F20 
 7932      30783766 
 7933              	.LASF705:
 7934 0325 5343425F 		.ascii	"SCB_CFSR_MEMFAULTSR_Pos 0\000"
 7934      43465352 
 7934      5F4D454D 
 7934      4641554C 
 7934      5453525F 
 7935              	.LASF88:
 7936 033f 5F5F494E 		.ascii	"__INTMAX_C(c) c ## LL\000"
 7936      544D4158 
 7936      5F432863 
 7936      29206320 
 7936      2323204C 
 7937              	.LASF522:
 7938 0355 5F55494E 		.ascii	"_UINT32_T_DECLARED \000"
 7938      5433325F 
 7938      545F4445 
 7938      434C4152 
 7938      45442000 
 7939              	.LASF1336:
 7940 0369 75736563 		.ascii	"usec\000"
ARM GAS  /tmp/ccKti1Oq.s 			page 152


 7940      00
 7941              	.LASF87:
 7942 036e 5F5F494E 		.ascii	"__INTMAX_MAX__ 0x7fffffffffffffffLL\000"
 7942      544D4158 
 7942      5F4D4158 
 7942      5F5F2030 
 7942      78376666 
 7943              	.LASF1036:
 7944 0392 50415241 		.ascii	"PARAM_TIM_COUNTER_INPUT_OPT(OPT) ((OPT == TIM_COUNT"
 7944      4D5F5449 
 7944      4D5F434F 
 7944      554E5445 
 7944      525F494E 
 7945 03c5 45525F49 		.ascii	"ER_INCAP0)||(OPT == TIM_COUNTER_INCAP1))\000"
 7945      4E434150 
 7945      30297C7C 
 7945      284F5054 
 7945      203D3D20 
 7946              	.LASF235:
 7947 03ee 5F5F4445 		.ascii	"__DEC32_SUBNORMAL_MIN__ 0.000001E-95DF\000"
 7947      4333325F 
 7947      5355424E 
 7947      4F524D41 
 7947      4C5F4D49 
 7948              	.LASF339:
 7949 0415 5F5F5451 		.ascii	"__TQ_IBIT__ 0\000"
 7949      5F494249 
 7949      545F5F20 
 7949      3000
 7950              	.LASF207:
 7951 0423 5F5F464C 		.ascii	"__FLT64_DECIMAL_DIG__ 17\000"
 7951      5436345F 
 7951      44454349 
 7951      4D414C5F 
 7951      4449475F 
 7952              	.LASF1222:
 7953 043c 5F54494D 		.ascii	"_TIM 1\000"
 7953      203100
 7954              	.LASF652:
 7955 0443 5343425F 		.ascii	"SCB_AIRCR_VECTCLRACTIVE_Msk (1UL << SCB_AIRCR_VECTC"
 7955      41495243 
 7955      525F5645 
 7955      4354434C 
 7955      52414354 
 7956 0476 4C524143 		.ascii	"LRACTIVE_Pos)\000"
 7956      54495645 
 7956      5F506F73 
 7956      2900
 7957              	.LASF11:
 7958 0484 5F5F4154 		.ascii	"__ATOMIC_CONSUME 1\000"
 7958      4F4D4943 
 7958      5F434F4E 
 7958      53554D45 
 7958      203100
 7959              	.LASF272:
 7960 0497 5F5F4C46 		.ascii	"__LFRACT_MIN__ (-0.5LR-0.5LR)\000"
 7960      52414354 
ARM GAS  /tmp/ccKti1Oq.s 			page 153


 7960      5F4D494E 
 7960      5F5F2028 
 7960      2D302E35 
 7961              	.LASF72:
 7962 04b5 5F5F5743 		.ascii	"__WCHAR_MAX__ 0xffffffffU\000"
 7962      4841525F 
 7962      4D41585F 
 7962      5F203078 
 7962      66666666 
 7963              	.LASF1178:
 7964 04cf 50494E53 		.ascii	"PINSEL_PIN_11 ((11))\000"
 7964      454C5F50 
 7964      494E5F31 
 7964      31202828 
 7964      31312929 
 7965              	.LASF871:
 7966 04e4 5343535F 		.ascii	"SCS_BASE (0xE000E000UL)\000"
 7966      42415345 
 7966      20283078 
 7966      45303030 
 7966      45303030 
 7967              	.LASF302:
 7968 04fc 5F5F4143 		.ascii	"__ACCUM_MIN__ (-0X1P15K-0X1P15K)\000"
 7968      43554D5F 
 7968      4D494E5F 
 7968      5F20282D 
 7968      30583150 
 7969              	.LASF873:
 7970 051d 436F7265 		.ascii	"CoreDebug_BASE (0xE000EDF0UL)\000"
 7970      44656275 
 7970      675F4241 
 7970      53452028 
 7970      30784530 
 7971              	.LASF363:
 7972 053b 5F5F5544 		.ascii	"__UDA_IBIT__ 32\000"
 7972      415F4942 
 7972      49545F5F 
 7972      20333200 
 7973              	.LASF880:
 7974 054b 4E564943 		.ascii	"NVIC ((NVIC_Type *) NVIC_BASE)\000"
 7974      2028284E 
 7974      5649435F 
 7974      54797065 
 7974      202A2920 
 7975              	.LASF1108:
 7976 056a 434C4B50 		.ascii	"CLKPWR_PCLKSEL_CAN2 ((uint32_t)(28))\000"
 7976      57525F50 
 7976      434C4B53 
 7976      454C5F43 
 7976      414E3220 
 7977              	.LASF1253:
 7978 058f 696E7433 		.ascii	"int32_t\000"
 7978      325F7400 
 7979              	.LASF614:
 7980 0597 5343425F 		.ascii	"SCB_CPUID_PARTNO_Msk (0xFFFUL << SCB_CPUID_PARTNO_P"
 7980      43505549 
 7980      445F5041 
ARM GAS  /tmp/ccKti1Oq.s 			page 154


 7980      52544E4F 
 7980      5F4D736B 
 7981 05ca 6F732900 		.ascii	"os)\000"
 7982              	.LASF776:
 7983 05ce 496E7454 		.ascii	"IntType_ACTLR_DISDEFWBUF_Msk (1UL << IntType_ACTLR_"
 7983      7970655F 
 7983      4143544C 
 7983      525F4449 
 7983      53444546 
 7984 0601 44495344 		.ascii	"DISDEFWBUF_Pos)\000"
 7984      45465742 
 7984      55465F50 
 7984      6F732900 
 7985              	.LASF15:
 7986 0611 5F5F5349 		.ascii	"__SIZEOF_LONG_LONG__ 8\000"
 7986      5A454F46 
 7986      5F4C4F4E 
 7986      475F4C4F 
 7986      4E475F5F 
 7987              	.LASF989:
 7988 0628 4C50435F 		.ascii	"LPC_GPDMACH7 ((LPC_GPDMACH_TypeDef *) LPC_GPDMACH7_"
 7988      4750444D 
 7988      41434837 
 7988      2028284C 
 7988      50435F47 
 7989 065b 42415345 		.ascii	"BASE )\000"
 7989      202900
 7990              	.LASF163:
 7991 0662 5F5F4442 		.ascii	"__DBL_MAX_10_EXP__ 308\000"
 7991      4C5F4D41 
 7991      585F3130 
 7991      5F455850 
 7991      5F5F2033 
 7992              	.LASF922:
 7993 0679 4C50435F 		.ascii	"LPC_I2S_BASE (LPC_APB1_BASE + 0x28000)\000"
 7993      4932535F 
 7993      42415345 
 7993      20284C50 
 7993      435F4150 
 7994              	.LASF262:
 7995 06a0 5F5F4652 		.ascii	"__FRACT_MIN__ (-0.5R-0.5R)\000"
 7995      4143545F 
 7995      4D494E5F 
 7995      5F20282D 
 7995      302E3552 
 7996              	.LASF891:
 7997 06bb 4C50435F 		.ascii	"LPC_GPIO_BASE (0x2009C000UL)\000"
 7997      4750494F 
 7997      5F424153 
 7997      45202830 
 7997      78323030 
 7998              	.LASF1333:
 7999 06d8 746E756D 		.ascii	"tnum\000"
 7999      00
 8000              	.LASF726:
 8001 06dd 53797354 		.ascii	"SysTick_CTRL_CLKSOURCE_Msk (1UL << SysTick_CTRL_CLK"
 8001      69636B5F 
ARM GAS  /tmp/ccKti1Oq.s 			page 155


 8001      4354524C 
 8001      5F434C4B 
 8001      534F5552 
 8002 0710 534F5552 		.ascii	"SOURCE_Pos)\000"
 8002      43455F50 
 8002      6F732900 
 8003              	.LASF959:
 8004 071c 4C50435F 		.ascii	"LPC_PWM1 ((LPC_PWM_TypeDef *) LPC_PWM1_BASE )\000"
 8004      50574D31 
 8004      2028284C 
 8004      50435F50 
 8004      574D5F54 
 8005              	.LASF298:
 8006 074a 5F5F5553 		.ascii	"__USACCUM_MAX__ 0XFFFFP-8UHK\000"
 8006      41434355 
 8006      4D5F4D41 
 8006      585F5F20 
 8006      30584646 
 8007              	.LASF232:
 8008 0767 5F5F4445 		.ascii	"__DEC32_MIN__ 1E-95DF\000"
 8008      4333325F 
 8008      4D494E5F 
 8008      5F203145 
 8008      2D393544 
 8009              	.LASF91:
 8010 077d 5F5F494E 		.ascii	"__INTMAX_WIDTH__ 64\000"
 8010      544D4158 
 8010      5F574944 
 8010      54485F5F 
 8010      20363400 
 8011              	.LASF972:
 8012 0791 4C50435F 		.ascii	"LPC_CANAF_RAM ((LPC_CANAF_RAM_TypeDef *) LPC_CANAF_"
 8012      43414E41 
 8012      465F5241 
 8012      4D202828 
 8012      4C50435F 
 8013 07c4 52414D5F 		.ascii	"RAM_BASE)\000"
 8013      42415345 
 8013      2900
 8014              	.LASF335:
 8015 07ce 5F5F5351 		.ascii	"__SQ_IBIT__ 0\000"
 8015      5F494249 
 8015      545F5F20 
 8015      3000
 8016              	.LASF25:
 8017 07dc 5F5F4F52 		.ascii	"__ORDER_PDP_ENDIAN__ 3412\000"
 8017      4445525F 
 8017      5044505F 
 8017      454E4449 
 8017      414E5F5F 
 8018              	.LASF29:
 8019 07f6 5F5F5349 		.ascii	"__SIZE_TYPE__ unsigned int\000"
 8019      5A455F54 
 8019      5950455F 
 8019      5F20756E 
 8019      7369676E 
 8020              	.LASF238:
ARM GAS  /tmp/ccKti1Oq.s 			page 156


 8021 0811 5F5F4445 		.ascii	"__DEC64_MAX_EXP__ 385\000"
 8021      4336345F 
 8021      4D41585F 
 8021      4558505F 
 8021      5F203338 
 8022              	.LASF600:
 8023 0827 5F474343 		.ascii	"_GCC_WRAP_STDINT_H \000"
 8023      5F575241 
 8023      505F5354 
 8023      44494E54 
 8023      5F482000 
 8024              	.LASF668:
 8025 083b 5343425F 		.ascii	"SCB_CCR_UNALIGN_TRP_Msk (1UL << SCB_CCR_UNALIGN_TRP"
 8025      4343525F 
 8025      554E414C 
 8025      49474E5F 
 8025      5452505F 
 8026 086e 5F506F73 		.ascii	"_Pos)\000"
 8026      2900
 8027              	.LASF155:
 8028 0874 5F5F464C 		.ascii	"__FLT_HAS_DENORM__ 1\000"
 8028      545F4841 
 8028      535F4445 
 8028      4E4F524D 
 8028      5F5F2031 
 8029              	.LASF38:
 8030 0889 5F5F494E 		.ascii	"__INT8_TYPE__ signed char\000"
 8030      54385F54 
 8030      5950455F 
 8030      5F207369 
 8030      676E6564 
 8031              	.LASF403:
 8032 08a3 5F5F4152 		.ascii	"__ARM_ARCH_PROFILE 77\000"
 8032      4D5F4152 
 8032      43485F50 
 8032      524F4649 
 8032      4C452037 
 8033              	.LASF953:
 8034 08b9 4C50435F 		.ascii	"LPC_TIM3 ((LPC_TIM_TypeDef *) LPC_TIM3_BASE )\000"
 8034      54494D33 
 8034      2028284C 
 8034      50435F54 
 8034      494D5F54 
 8035              	.LASF624:
 8036 08e7 5343425F 		.ascii	"SCB_ICSR_PENDSTSET_Msk (1UL << SCB_ICSR_PENDSTSET_P"
 8036      49435352 
 8036      5F50454E 
 8036      44535453 
 8036      45545F4D 
 8037 091a 6F732900 		.ascii	"os)\000"
 8038              	.LASF297:
 8039 091e 5F5F5553 		.ascii	"__USACCUM_MIN__ 0.0UHK\000"
 8039      41434355 
 8039      4D5F4D49 
 8039      4E5F5F20 
 8039      302E3055 
 8040              	.LASF193:
ARM GAS  /tmp/ccKti1Oq.s 			page 157


 8041 0935 5F5F464C 		.ascii	"__FLT32_DECIMAL_DIG__ 9\000"
 8041      5433325F 
 8041      44454349 
 8041      4D414C5F 
 8041      4449475F 
 8042              	.LASF973:
 8043 094d 4C50435F 		.ascii	"LPC_CANAF ((LPC_CANAF_TypeDef *) LPC_CANAF_BASE )\000"
 8043      43414E41 
 8043      46202828 
 8043      4C50435F 
 8043      43414E41 
 8044              	.LASF1114:
 8045 097f 434C4B50 		.ascii	"CLKPWR_PCLKSEL_TIMER2 ((uint32_t)(44))\000"
 8045      57525F50 
 8045      434C4B53 
 8045      454C5F54 
 8045      494D4552 
 8046              	.LASF174:
 8047 09a6 5F5F4C44 		.ascii	"__LDBL_MIN_EXP__ (-1021)\000"
 8047      424C5F4D 
 8047      494E5F45 
 8047      58505F5F 
 8047      20282D31 
 8048              	.LASF172:
 8049 09bf 5F5F4C44 		.ascii	"__LDBL_MANT_DIG__ 53\000"
 8049      424C5F4D 
 8049      414E545F 
 8049      4449475F 
 8049      5F203533 
 8050              	.LASF782:
 8051 09d4 4D50555F 		.ascii	"MPU_TYPE_DREGION_Msk (0xFFUL << MPU_TYPE_DREGION_Po"
 8051      54595045 
 8051      5F445245 
 8051      47494F4E 
 8051      5F4D736B 
 8052 0a07 732900   		.ascii	"s)\000"
 8053              	.LASF569:
 8054 0a0a 494E545F 		.ascii	"INT_FAST16_MIN (-__INT_FAST16_MAX__ - 1)\000"
 8054      46415354 
 8054      31365F4D 
 8054      494E2028 
 8054      2D5F5F49 
 8055              	.LASF781:
 8056 0a33 4D50555F 		.ascii	"MPU_TYPE_DREGION_Pos 8\000"
 8056      54595045 
 8056      5F445245 
 8056      47494F4E 
 8056      5F506F73 
 8057              	.LASF116:
 8058 0a4a 5F5F5549 		.ascii	"__UINT8_C(c) c\000"
 8058      4E54385F 
 8058      43286329 
 8058      206300
 8059              	.LASF39:
 8060 0a59 5F5F494E 		.ascii	"__INT16_TYPE__ short int\000"
 8060      5431365F 
 8060      54595045 
ARM GAS  /tmp/ccKti1Oq.s 			page 158


 8060      5F5F2073 
 8060      686F7274 
 8061              	.LASF775:
 8062 0a72 496E7454 		.ascii	"IntType_ACTLR_DISDEFWBUF_Pos 1\000"
 8062      7970655F 
 8062      4143544C 
 8062      525F4449 
 8062      53444546 
 8063              	.LASF488:
 8064 0a91 756E7369 		.ascii	"unsigned\000"
 8064      676E6564 
 8064      00
 8065              	.LASF926:
 8066 0a9a 4C50435F 		.ascii	"LPC_SC_BASE (LPC_APB1_BASE + 0x7C000)\000"
 8066      53435F42 
 8066      41534520 
 8066      284C5043 
 8066      5F415042 
 8067              	.LASF208:
 8068 0ac0 5F5F464C 		.ascii	"__FLT64_MAX__ 1.7976931348623157e+308F64\000"
 8068      5436345F 
 8068      4D41585F 
 8068      5F20312E 
 8068      37393736 
 8069              	.LASF735:
 8070 0ae9 53797354 		.ascii	"SysTick_CALIB_NOREF_Pos 31\000"
 8070      69636B5F 
 8070      43414C49 
 8070      425F4E4F 
 8070      5245465F 
 8071              	.LASF602:
 8072 0b04 5F5F5353 		.ascii	"__SSAT(ARG1,ARG2) ({ uint32_t __RES, __ARG1 = (ARG1"
 8072      41542841 
 8072      5247312C 
 8072      41524732 
 8072      2920287B 
 8073 0b37 293B205F 		.ascii	"); __ASM (\"ssat %0, %1, %2\" : \"=r\" (__RES) : \""
 8073      5F41534D 
 8073      20282273 
 8073      73617420 
 8073      25302C20 
 8074 0b65 49222028 		.ascii	"I\" (ARG2), \"r\" (__ARG1) ); __RES; })\000"
 8074      41524732 
 8074      292C2022 
 8074      72222028 
 8074      5F5F4152 
 8075              	.LASF859:
 8076 0b8a 436F7265 		.ascii	"CoreDebug_DEMCR_VC_BUSERR_Pos 8\000"
 8076      44656275 
 8076      675F4445 
 8076      4D43525F 
 8076      56435F42 
 8077              	.LASF911:
 8078 0baa 4C50435F 		.ascii	"LPC_CANCR_BASE (LPC_APB0_BASE + 0x40000)\000"
 8078      43414E43 
 8078      525F4241 
 8078      53452028 
ARM GAS  /tmp/ccKti1Oq.s 			page 159


 8078      4C50435F 
 8079              	.LASF502:
 8080 0bd3 5F5F494E 		.ascii	"__INT8 \"hh\"\000"
 8080      54382022 
 8080      68682200 
 8081              	.LASF745:
 8082 0bdf 49544D5F 		.ascii	"ITM_TCR_ATBID_Pos 16\000"
 8082      5443525F 
 8082      41544249 
 8082      445F506F 
 8082      73203136 
 8083              	.LASF371:
 8084 0bf4 5F5F4743 		.ascii	"__GCC_HAVE_SYNC_COMPARE_AND_SWAP_1 1\000"
 8084      435F4841 
 8084      56455F53 
 8084      594E435F 
 8084      434F4D50 
 8085              	.LASF358:
 8086 0c19 5F5F5548 		.ascii	"__UHA_FBIT__ 8\000"
 8086      415F4642 
 8086      49545F5F 
 8086      203800
 8087              	.LASF552:
 8088 0c28 494E545F 		.ascii	"INT_LEAST16_MAX (__INT_LEAST16_MAX__)\000"
 8088      4C454153 
 8088      5431365F 
 8088      4D415820 
 8088      285F5F49 
 8089              	.LASF805:
 8090 0c4e 4D50555F 		.ascii	"MPU_RASR_S_Pos 18\000"
 8090      52415352 
 8090      5F535F50 
 8090      6F732031 
 8090      3800
 8091              	.LASF1260:
 8092 0c60 43544352 		.ascii	"CTCR\000"
 8092      00
 8093              	.LASF1:
 8094 0c65 5F5F5354 		.ascii	"__STDC_HOSTED__ 1\000"
 8094      44435F48 
 8094      4F535445 
 8094      445F5F20 
 8094      3100
 8095              	.LASF285:
 8096 0c77 5F5F554C 		.ascii	"__ULLFRACT_FBIT__ 64\000"
 8096      4C465241 
 8096      43545F46 
 8096      4249545F 
 8096      5F203634 
 8097              	.LASF806:
 8098 0c8c 4D50555F 		.ascii	"MPU_RASR_S_Msk (1UL << MPU_RASR_S_Pos)\000"
 8098      52415352 
 8098      5F535F4D 
 8098      736B2028 
 8098      31554C20 
 8099              	.LASF876:
 8100 0cb3 5343425F 		.ascii	"SCB_BASE (SCS_BASE + 0x0D00UL)\000"
ARM GAS  /tmp/ccKti1Oq.s 			page 160


 8100      42415345 
 8100      20285343 
 8100      535F4241 
 8100      5345202B 
 8101              	.LASF570:
 8102 0cd2 494E545F 		.ascii	"INT_FAST16_MAX (__INT_FAST16_MAX__)\000"
 8102      46415354 
 8102      31365F4D 
 8102      41582028 
 8102      5F5F494E 
 8103              	.LASF57:
 8104 0cf6 5F5F494E 		.ascii	"__INT_FAST64_TYPE__ long long int\000"
 8104      545F4641 
 8104      53543634 
 8104      5F545950 
 8104      455F5F20 
 8105              	.LASF1207:
 8106 0d18 44454255 		.ascii	"DEBUG 1\000"
 8106      47203100 
 8107              	.LASF623:
 8108 0d20 5343425F 		.ascii	"SCB_ICSR_PENDSTSET_Pos 26\000"
 8108      49435352 
 8108      5F50454E 
 8108      44535453 
 8108      45545F50 
 8109              	.LASF543:
 8110 0d3a 494E5438 		.ascii	"INT8_MAX (__INT8_MAX__)\000"
 8110      5F4D4158 
 8110      20285F5F 
 8110      494E5438 
 8110      5F4D4158 
 8111              	.LASF886:
 8112 0d52 5F5F5359 		.ascii	"__SYSTEM_LPC17xx_H \000"
 8112      5354454D 
 8112      5F4C5043 
 8112      31377878 
 8112      5F482000 
 8113              	.LASF493:
 8114 0d66 7369676E 		.ascii	"signed +0\000"
 8114      6564202B 
 8114      3000
 8115              	.LASF584:
 8116 0d70 50545244 		.ascii	"PTRDIFF_MAX (__PTRDIFF_MAX__)\000"
 8116      4946465F 
 8116      4D415820 
 8116      285F5F50 
 8116      54524449 
 8117              	.LASF977:
 8118 0d8e 4C50435F 		.ascii	"LPC_MCPWM ((LPC_MCPWM_TypeDef *) LPC_MCPWM_BASE )\000"
 8118      4D435057 
 8118      4D202828 
 8118      4C50435F 
 8118      4D435057 
 8119              	.LASF192:
 8120 0dc0 5F5F464C 		.ascii	"__FLT32_MAX_10_EXP__ 38\000"
 8120      5433325F 
 8120      4D41585F 
ARM GAS  /tmp/ccKti1Oq.s 			page 161


 8120      31305F45 
 8120      58505F5F 
 8121              	.LASF368:
 8122 0dd8 5F5F474E 		.ascii	"__GNUC_GNU_INLINE__ 1\000"
 8122      55435F47 
 8122      4E555F49 
 8122      4E4C494E 
 8122      455F5F20 
 8123              	.LASF1113:
 8124 0dee 434C4B50 		.ascii	"CLKPWR_PCLKSEL_SSP0 ((uint32_t)(42))\000"
 8124      57525F50 
 8124      434C4B53 
 8124      454C5F53 
 8124      53503020 
 8125              	.LASF698:
 8126 0e13 5343425F 		.ascii	"SCB_SHCSR_BUSFAULTACT_Msk (1UL << SCB_SHCSR_BUSFAUL"
 8126      53484353 
 8126      525F4255 
 8126      53464155 
 8126      4C544143 
 8127 0e46 54414354 		.ascii	"TACT_Pos)\000"
 8127      5F506F73 
 8127      2900
 8128              	.LASF258:
 8129 0e50 5F5F5553 		.ascii	"__USFRACT_MAX__ 0XFFP-8UHR\000"
 8129      46524143 
 8129      545F4D41 
 8129      585F5F20 
 8129      30584646 
 8130              	.LASF725:
 8131 0e6b 53797354 		.ascii	"SysTick_CTRL_CLKSOURCE_Pos 2\000"
 8131      69636B5F 
 8131      4354524C 
 8131      5F434C4B 
 8131      534F5552 
 8132              	.LASF1005:
 8133 0e88 54494D5F 		.ascii	"TIM_MATCH_INT(n) (_BIT(n & 0x0F))\000"
 8133      4D415443 
 8133      485F494E 
 8133      54286E29 
 8133      20285F42 
 8134              	.LASF422:
 8135 0eaa 5F5F4152 		.ascii	"__ARM_NEON\000"
 8135      4D5F4E45 
 8135      4F4E00
 8136              	.LASF845:
 8137 0eb5 436F7265 		.ascii	"CoreDebug_DEMCR_TRCENA_Pos 24\000"
 8137      44656275 
 8137      675F4445 
 8137      4D43525F 
 8137      54524345 
 8138              	.LASF189:
 8139 0ed3 5F5F464C 		.ascii	"__FLT32_MIN_EXP__ (-125)\000"
 8139      5433325F 
 8139      4D494E5F 
 8139      4558505F 
 8139      5F20282D 
ARM GAS  /tmp/ccKti1Oq.s 			page 162


 8140              	.LASF99:
 8141 0eec 5F5F5549 		.ascii	"__UINT8_MAX__ 0xff\000"
 8141      4E54385F 
 8141      4D41585F 
 8141      5F203078 
 8141      666600
 8142              	.LASF1070:
 8143 0eff 434C4B50 		.ascii	"CLKPWR_PLL1CFG_PSEL(n) ((uint32_t)((n&0x03)<<5))\000"
 8143      57525F50 
 8143      4C4C3143 
 8143      46475F50 
 8143      53454C28 
 8144              	.LASF1213:
 8145 0f30 5F554152 		.ascii	"_UART3 1\000"
 8145      54332031 
 8145      00
 8146              	.LASF635:
 8147 0f39 5343425F 		.ascii	"SCB_ICSR_VECTACTIVE_Pos 0\000"
 8147      49435352 
 8147      5F564543 
 8147      54414354 
 8147      4956455F 
 8148              	.LASF1105:
 8149 0f53 434C4B50 		.ascii	"CLKPWR_PCLKSEL_DAC ((uint32_t)(22))\000"
 8149      57525F50 
 8149      434C4B53 
 8149      454C5F44 
 8149      41432028 
 8150              	.LASF549:
 8151 0f77 494E5431 		.ascii	"INT16_MAX (__INT16_MAX__)\000"
 8151      365F4D41 
 8151      5820285F 
 8151      5F494E54 
 8151      31365F4D 
 8152              	.LASF947:
 8153 0f91 4C50435F 		.ascii	"LPC_GPIO3 ((LPC_GPIO_TypeDef *) LPC_GPIO3_BASE )\000"
 8153      4750494F 
 8153      33202828 
 8153      4C50435F 
 8153      4750494F 
 8154              	.LASF211:
 8155 0fc2 5F5F464C 		.ascii	"__FLT64_DENORM_MIN__ 4.9406564584124654e-324F64\000"
 8155      5436345F 
 8155      44454E4F 
 8155      524D5F4D 
 8155      494E5F5F 
 8156              	.LASF275:
 8157 0ff2 5F5F554C 		.ascii	"__ULFRACT_FBIT__ 32\000"
 8157      46524143 
 8157      545F4642 
 8157      49545F5F 
 8157      20333200 
 8158              	.LASF936:
 8159 1006 4C50435F 		.ascii	"LPC_GPDMACH7_BASE (LPC_AHB_BASE + 0x041E0)\000"
 8159      4750444D 
 8159      41434837 
 8159      5F424153 
ARM GAS  /tmp/ccKti1Oq.s 			page 163


 8159      4520284C 
 8160              	.LASF204:
 8161 1031 5F5F464C 		.ascii	"__FLT64_MIN_10_EXP__ (-307)\000"
 8161      5436345F 
 8161      4D494E5F 
 8161      31305F45 
 8161      58505F5F 
 8162              	.LASF970:
 8163 104d 4C50435F 		.ascii	"LPC_ADC ((LPC_ADC_TypeDef *) LPC_ADC_BASE )\000"
 8163      41444320 
 8163      28284C50 
 8163      435F4144 
 8163      435F5479 
 8164              	.LASF537:
 8165 1079 5F5F696E 		.ascii	"__int_fast32_t_defined 1\000"
 8165      745F6661 
 8165      73743332 
 8165      5F745F64 
 8165      6566696E 
 8166              	.LASF130:
 8167 1092 5F5F494E 		.ascii	"__INT_FAST64_WIDTH__ 64\000"
 8167      545F4641 
 8167      53543634 
 8167      5F574944 
 8167      54485F5F 
 8168              	.LASF852:
 8169 10aa 436F7265 		.ascii	"CoreDebug_DEMCR_MON_PEND_Msk (1UL << CoreDebug_DEMC"
 8169      44656275 
 8169      675F4445 
 8169      4D43525F 
 8169      4D4F4E5F 
 8170 10dd 525F4D4F 		.ascii	"R_MON_PEND_Pos)\000"
 8170      4E5F5045 
 8170      4E445F50 
 8170      6F732900 
 8171              	.LASF741:
 8172 10ed 49544D5F 		.ascii	"ITM_TPR_PRIVMASK_Pos 0\000"
 8172      5450525F 
 8172      50524956 
 8172      4D41534B 
 8172      5F506F73 
 8173              	.LASF1172:
 8174 1104 50494E53 		.ascii	"PINSEL_PIN_5 ((5))\000"
 8174      454C5F50 
 8174      494E5F35 
 8174      20282835 
 8174      292900
 8175              	.LASF1184:
 8176 1117 50494E53 		.ascii	"PINSEL_PIN_17 ((17))\000"
 8176      454C5F50 
 8176      494E5F31 
 8176      37202828 
 8176      31372929 
 8177              	.LASF592:
 8178 112c 494E5431 		.ascii	"INT16_C(x) __INT16_C(x)\000"
 8178      365F4328 
 8178      7829205F 
ARM GAS  /tmp/ccKti1Oq.s 			page 164


 8178      5F494E54 
 8178      31365F43 
 8179              	.LASF254:
 8180 1144 5F5F5346 		.ascii	"__SFRACT_EPSILON__ 0x1P-7HR\000"
 8180      52414354 
 8180      5F455053 
 8180      494C4F4E 
 8180      5F5F2030 
 8181              	.LASF1019:
 8182 1160 54494D5F 		.ascii	"TIM_CCR_MASKBIT ((uint32_t)(0x3F))\000"
 8182      4343525F 
 8182      4D41534B 
 8182      42495420 
 8182      28287569 
 8183              	.LASF110:
 8184 1183 5F5F494E 		.ascii	"__INT32_C(c) c ## L\000"
 8184      5433325F 
 8184      43286329 
 8184      20632023 
 8184      23204C00 
 8185              	.LASF344:
 8186 1197 5F5F5553 		.ascii	"__USQ_FBIT__ 32\000"
 8186      515F4642 
 8186      49545F5F 
 8186      20333200 
 8187              	.LASF24:
 8188 11a7 5F5F4F52 		.ascii	"__ORDER_BIG_ENDIAN__ 4321\000"
 8188      4445525F 
 8188      4249475F 
 8188      454E4449 
 8188      414E5F5F 
 8189              	.LASF945:
 8190 11c1 4C50435F 		.ascii	"LPC_GPIO1 ((LPC_GPIO_TypeDef *) LPC_GPIO1_BASE )\000"
 8190      4750494F 
 8190      31202828 
 8190      4C50435F 
 8190      4750494F 
 8191              	.LASF1176:
 8192 11f2 50494E53 		.ascii	"PINSEL_PIN_9 ((9))\000"
 8192      454C5F50 
 8192      494E5F39 
 8192      20282839 
 8192      292900
 8193              	.LASF1025:
 8194 1205 54494D5F 		.ascii	"TIM_EM_TOGGLE ((uint8_t)(0x3))\000"
 8194      454D5F54 
 8194      4F47474C 
 8194      45202828 
 8194      75696E74 
 8195              	.LASF334:
 8196 1224 5F5F5351 		.ascii	"__SQ_FBIT__ 31\000"
 8196      5F464249 
 8196      545F5F20 
 8196      333100
 8197              	.LASF718:
 8198 1233 5343425F 		.ascii	"SCB_DFSR_DWTTRAP_Msk (1UL << SCB_DFSR_DWTTRAP_Pos)\000"
 8198      44465352 
ARM GAS  /tmp/ccKti1Oq.s 			page 165


 8198      5F445754 
 8198      54524150 
 8198      5F4D736B 
 8199              	.LASF647:
 8200 1266 5343425F 		.ascii	"SCB_AIRCR_PRIGROUP_Pos 8\000"
 8200      41495243 
 8200      525F5052 
 8200      4947524F 
 8200      55505F50 
 8201              	.LASF364:
 8202 127f 5F5F5554 		.ascii	"__UTA_FBIT__ 64\000"
 8202      415F4642 
 8202      49545F5F 
 8202      20363400 
 8203              	.LASF5:
 8204 128f 5F5F5645 		.ascii	"__VERSION__ \"7.1.0\"\000"
 8204      5253494F 
 8204      4E5F5F20 
 8204      22372E31 
 8204      2E302200 
 8205              	.LASF1020:
 8206 12a3 54494D5F 		.ascii	"TIM_CCR_CHANNEL_MASKBIT(n) ((uint32_t)(7<<n))\000"
 8206      4343525F 
 8206      4348414E 
 8206      4E454C5F 
 8206      4D41534B 
 8207              	.LASF519:
 8208 12d1 5F55494E 		.ascii	"_UINT16_T_DECLARED \000"
 8208      5431365F 
 8208      545F4445 
 8208      434C4152 
 8208      45442000 
 8209              	.LASF1072:
 8210 12e5 434C4B50 		.ascii	"CLKPWR_PLL1STAT_MSEL(n) ((uint32_t)(n&0x1F))\000"
 8210      57525F50 
 8210      4C4C3153 
 8210      5441545F 
 8210      4D53454C 
 8211              	.LASF342:
 8212 1312 5F5F5548 		.ascii	"__UHQ_FBIT__ 16\000"
 8212      515F4642 
 8212      49545F5F 
 8212      20313600 
 8213              	.LASF564:
 8214 1322 494E545F 		.ascii	"INT_LEAST64_MAX (__INT_LEAST64_MAX__)\000"
 8214      4C454153 
 8214      5436345F 
 8214      4D415820 
 8214      285F5F49 
 8215              	.LASF203:
 8216 1348 5F5F464C 		.ascii	"__FLT64_MIN_EXP__ (-1021)\000"
 8216      5436345F 
 8216      4D494E5F 
 8216      4558505F 
 8216      5F20282D 
 8217              	.LASF1079:
 8218 1362 434C4B50 		.ascii	"CLKPWR_USBCLKCFG_BITMASK ((uint32_t)(0x0F))\000"
ARM GAS  /tmp/ccKti1Oq.s 			page 166


 8218      57525F55 
 8218      5342434C 
 8218      4B434647 
 8218      5F424954 
 8219              	.LASF1014:
 8220 138e 54494D5F 		.ascii	"TIM_MCR_CHANNEL_MASKBIT(n) ((uint32_t)(7<<n))\000"
 8220      4D43525F 
 8220      4348414E 
 8220      4E454C5F 
 8220      4D41534B 
 8221              	.LASF85:
 8222 13bc 5F5F5054 		.ascii	"__PTRDIFF_WIDTH__ 32\000"
 8222      52444946 
 8222      465F5749 
 8222      4454485F 
 8222      5F203332 
 8223              	.LASF435:
 8224 13d1 5F5F4C50 		.ascii	"__LPC17xx_H__ \000"
 8224      43313778 
 8224      785F485F 
 8224      5F2000
 8225              	.LASF1325:
 8226 13e0 54494D5F 		.ascii	"TIM_ClearIntCapturePending\000"
 8226      436C6561 
 8226      72496E74 
 8226      43617074 
 8226      75726550 
 8227              	.LASF737:
 8228 13fb 53797354 		.ascii	"SysTick_CALIB_SKEW_Pos 30\000"
 8228      69636B5F 
 8228      43414C49 
 8228      425F534B 
 8228      45575F50 
 8229              	.LASF131:
 8230 1415 5F5F5549 		.ascii	"__UINT_FAST8_MAX__ 0xffffffffU\000"
 8230      4E545F46 
 8230      41535438 
 8230      5F4D4158 
 8230      5F5F2030 
 8231              	.LASF906:
 8232 1434 4C50435F 		.ascii	"LPC_PINCON_BASE (LPC_APB0_BASE + 0x2C000)\000"
 8232      50494E43 
 8232      4F4E5F42 
 8232      41534520 
 8232      284C5043 
 8233              	.LASF234:
 8234 145e 5F5F4445 		.ascii	"__DEC32_EPSILON__ 1E-6DF\000"
 8234      4333325F 
 8234      45505349 
 8234      4C4F4E5F 
 8234      5F203145 
 8235              	.LASF587:
 8236 1477 57434841 		.ascii	"WCHAR_MAX (__WCHAR_MAX__)\000"
 8236      525F4D41 
 8236      5820285F 
 8236      5F574348 
 8236      41525F4D 
ARM GAS  /tmp/ccKti1Oq.s 			page 167


 8237              	.LASF703:
 8238 1491 5343425F 		.ascii	"SCB_CFSR_BUSFAULTSR_Pos 8\000"
 8238      43465352 
 8238      5F425553 
 8238      4641554C 
 8238      5453525F 
 8239              	.LASF49:
 8240 14ab 5F5F494E 		.ascii	"__INT_LEAST64_TYPE__ long long int\000"
 8240      545F4C45 
 8240      41535436 
 8240      345F5459 
 8240      50455F5F 
 8241              	.LASF546:
 8242 14ce 494E545F 		.ascii	"INT_LEAST8_MAX (__INT_LEAST8_MAX__)\000"
 8242      4C454153 
 8242      54385F4D 
 8242      41582028 
 8242      5F5F494E 
 8243              	.LASF444:
 8244 14f2 5F5F4153 		.ascii	"__ASM __asm\000"
 8244      4D205F5F 
 8244      61736D00 
 8245              	.LASF1243:
 8246 14fe 5F5F7569 		.ascii	"__uint8_t\000"
 8246      6E74385F 
 8246      7400
 8247              	.LASF1300:
 8248 1508 54494D5F 		.ascii	"TIM_MATCHCFG_Type\000"
 8248      4D415443 
 8248      48434647 
 8248      5F547970 
 8248      6500
 8249              	.LASF126:
 8250 151a 5F5F494E 		.ascii	"__INT_FAST16_WIDTH__ 32\000"
 8250      545F4641 
 8250      53543136 
 8250      5F574944 
 8250      54485F5F 
 8251              	.LASF1148:
 8252 1532 434C4B50 		.ascii	"CLKPWR_PCONP_PCI2C2 ((uint32_t)(1<<26))\000"
 8252      57525F50 
 8252      434F4E50 
 8252      5F504349 
 8252      32433220 
 8253              	.LASF1131:
 8254 155a 434C4B50 		.ascii	"CLKPWR_PCONP_PCI2C0 ((uint32_t)(1<<7))\000"
 8254      57525F50 
 8254      434F4E50 
 8254      5F504349 
 8254      32433020 
 8255              	.LASF413:
 8256 1581 5F5F5646 		.ascii	"__VFP_FP__ 1\000"
 8256      505F4650 
 8256      5F5F2031 
 8256      00
 8257              	.LASF512:
 8258 158e 5F5F4C45 		.ascii	"__LEAST32 \"l\"\000"
ARM GAS  /tmp/ccKti1Oq.s 			page 168


 8258      41535433 
 8258      3220226C 
 8258      2200
 8259              	.LASF505:
 8260 159c 5F5F494E 		.ascii	"__INT64 \"ll\"\000"
 8260      54363420 
 8260      226C6C22 
 8260      00
 8261              	.LASF135:
 8262 15a9 5F5F494E 		.ascii	"__INTPTR_MAX__ 0x7fffffff\000"
 8262      54505452 
 8262      5F4D4158 
 8262      5F5F2030 
 8262      78376666 
 8263              	.LASF1044:
 8264 15c3 434C4B50 		.ascii	"CLKPWR_CLKSRCSEL_BITMASK ((uint32_t)(0x03))\000"
 8264      57525F43 
 8264      4C4B5352 
 8264      4353454C 
 8264      5F424954 
 8265              	.LASF916:
 8266 15ef 4C50435F 		.ascii	"LPC_DAC_BASE (LPC_APB1_BASE + 0x0C000)\000"
 8266      4441435F 
 8266      42415345 
 8266      20284C50 
 8266      435F4150 
 8267              	.LASF1312:
 8268 1616 54494D5F 		.ascii	"TIM_ConfigCapture\000"
 8268      436F6E66 
 8268      69674361 
 8268      70747572 
 8268      6500
 8269              	.LASF563:
 8270 1628 494E545F 		.ascii	"INT_LEAST64_MIN (-__INT_LEAST64_MAX__ - 1)\000"
 8270      4C454153 
 8270      5436345F 
 8270      4D494E20 
 8270      282D5F5F 
 8271              	.LASF721:
 8272 1653 5343425F 		.ascii	"SCB_DFSR_HALTED_Pos 0\000"
 8272      44465352 
 8272      5F48414C 
 8272      5445445F 
 8272      506F7320 
 8273              	.LASF1323:
 8274 1669 70436F75 		.ascii	"pCounterCfg\000"
 8274      6E746572 
 8274      43666700 
 8275              	.LASF267:
 8276 1675 5F5F5546 		.ascii	"__UFRACT_MIN__ 0.0UR\000"
 8276      52414354 
 8276      5F4D494E 
 8276      5F5F2030 
 8276      2E305552 
 8277              	.LASF672:
 8278 168a 5343425F 		.ascii	"SCB_CCR_NONBASETHRDENA_Msk (1UL << SCB_CCR_NONBASET"
 8278      4343525F 
ARM GAS  /tmp/ccKti1Oq.s 			page 169


 8278      4E4F4E42 
 8278      41534554 
 8278      48524445 
 8279 16bd 48524445 		.ascii	"HRDENA_Pos)\000"
 8279      4E415F50 
 8279      6F732900 
 8280              	.LASF854:
 8281 16c9 436F7265 		.ascii	"CoreDebug_DEMCR_MON_EN_Msk (1UL << CoreDebug_DEMCR_"
 8281      44656275 
 8281      675F4445 
 8281      4D43525F 
 8281      4D4F4E5F 
 8282 16fc 4D4F4E5F 		.ascii	"MON_EN_Pos)\000"
 8282      454E5F50 
 8282      6F732900 
 8283              	.LASF748:
 8284 1708 49544D5F 		.ascii	"ITM_TCR_TSPrescale_Msk (3UL << ITM_TCR_TSPrescale_P"
 8284      5443525F 
 8284      54535072 
 8284      65736361 
 8284      6C655F4D 
 8285 173b 6F732900 		.ascii	"os)\000"
 8286              	.LASF529:
 8287 173f 5F494E54 		.ascii	"_INTPTR_T_DECLARED \000"
 8287      5054525F 
 8287      545F4445 
 8287      434C4152 
 8287      45442000 
 8288              	.LASF1326:
 8289 1753 496E7446 		.ascii	"IntFlag\000"
 8289      6C616700 
 8290              	.LASF227:
 8291 175b 5F5F464C 		.ascii	"__FLT32X_HAS_INFINITY__ 1\000"
 8291      54333258 
 8291      5F484153 
 8291      5F494E46 
 8291      494E4954 
 8292              	.LASF572:
 8293 1775 494E545F 		.ascii	"INT_FAST32_MIN (-__INT_FAST32_MAX__ - 1)\000"
 8293      46415354 
 8293      33325F4D 
 8293      494E2028 
 8293      2D5F5F49 
 8294              	.LASF727:
 8295 179e 53797354 		.ascii	"SysTick_CTRL_TICKINT_Pos 1\000"
 8295      69636B5F 
 8295      4354524C 
 8295      5F544943 
 8295      4B494E54 
 8296              	.LASF838:
 8297 17b9 436F7265 		.ascii	"CoreDebug_DHCSR_C_HALT_Msk (1UL << CoreDebug_DHCSR_"
 8297      44656275 
 8297      675F4448 
 8297      4353525F 
 8297      435F4841 
 8298 17ec 435F4841 		.ascii	"C_HALT_Pos)\000"
 8298      4C545F50 
ARM GAS  /tmp/ccKti1Oq.s 			page 170


 8298      6F732900 
 8299              	.LASF874:
 8300 17f8 53797354 		.ascii	"SysTick_BASE (SCS_BASE + 0x0010UL)\000"
 8300      69636B5F 
 8300      42415345 
 8300      20285343 
 8300      535F4241 
 8301              	.LASF50:
 8302 181b 5F5F5549 		.ascii	"__UINT_LEAST8_TYPE__ unsigned char\000"
 8302      4E545F4C 
 8302      45415354 
 8302      385F5459 
 8302      50455F5F 
 8303              	.LASF1050:
 8304 183e 434C4B50 		.ascii	"CLKPWR_CLKOUTCFG_CLKOUTDIV(n) ((uint32_t)((n&0x0F)<"
 8304      57525F43 
 8304      4C4B4F55 
 8304      54434647 
 8304      5F434C4B 
 8305 1871 3C342929 		.ascii	"<4))\000"
 8305      00
 8306              	.LASF949:
 8307 1876 4C50435F 		.ascii	"LPC_WDT ((LPC_WDT_TypeDef *) LPC_WDT_BASE )\000"
 8307      57445420 
 8307      28284C50 
 8307      435F5744 
 8307      545F5479 
 8308              	.LASF828:
 8309 18a2 436F7265 		.ascii	"CoreDebug_DHCSR_S_HALT_Msk (1UL << CoreDebug_DHCSR_"
 8309      44656275 
 8309      675F4448 
 8309      4353525F 
 8309      535F4841 
 8310 18d5 535F4841 		.ascii	"S_HALT_Pos)\000"
 8310      4C545F50 
 8310      6F732900 
 8311              	.LASF300:
 8312 18e1 5F5F4143 		.ascii	"__ACCUM_FBIT__ 15\000"
 8312      43554D5F 
 8312      46424954 
 8312      5F5F2031 
 8312      3500
 8313              	.LASF454:
 8314 18f3 5F5F474E 		.ascii	"__GNUC_PREREQ(maj,min) ((__GNUC__ << 16) + __GNUC_M"
 8314      55435F50 
 8314      52455245 
 8314      51286D61 
 8314      6A2C6D69 
 8315 1926 494E4F52 		.ascii	"INOR__ >= ((maj) << 16) + (min))\000"
 8315      5F5F203E 
 8315      3D202828 
 8315      6D616A29 
 8315      203C3C20 
 8316              	.LASF306:
 8317 1947 5F5F5541 		.ascii	"__UACCUM_IBIT__ 16\000"
 8317      4343554D 
 8317      5F494249 
ARM GAS  /tmp/ccKti1Oq.s 			page 171


 8317      545F5F20 
 8317      313600
 8318              	.LASF1245:
 8319 195a 6C6F6E67 		.ascii	"long int\000"
 8319      20696E74 
 8319      00
 8320              	.LASF1085:
 8321 1963 434C4B50 		.ascii	"CLKPWR_PCLKSEL_GET(p,n) ((uint32_t)((n>>p)&0x03))\000"
 8321      57525F50 
 8321      434C4B53 
 8321      454C5F47 
 8321      45542870 
 8322              	.LASF800:
 8323 1995 4D50555F 		.ascii	"MPU_RASR_XN_Msk (1UL << MPU_RASR_XN_Pos)\000"
 8323      52415352 
 8323      5F584E5F 
 8323      4D736B20 
 8323      2831554C 
 8324              	.LASF713:
 8325 19be 5343425F 		.ascii	"SCB_DFSR_EXTERNAL_Pos 4\000"
 8325      44465352 
 8325      5F455854 
 8325      45524E41 
 8325      4C5F506F 
 8326              	.LASF129:
 8327 19d6 5F5F494E 		.ascii	"__INT_FAST64_MAX__ 0x7fffffffffffffffLL\000"
 8327      545F4641 
 8327      53543634 
 8327      5F4D4158 
 8327      5F5F2030 
 8328              	.LASF221:
 8329 19fe 5F5F464C 		.ascii	"__FLT32X_DECIMAL_DIG__ 17\000"
 8329      54333258 
 8329      5F444543 
 8329      494D414C 
 8329      5F444947 
 8330              	.LASF166:
 8331 1a18 5F5F4442 		.ascii	"__DBL_MIN__ ((double)2.2250738585072014e-308L)\000"
 8331      4C5F4D49 
 8331      4E5F5F20 
 8331      2828646F 
 8331      75626C65 
 8332              	.LASF228:
 8333 1a47 5F5F464C 		.ascii	"__FLT32X_HAS_QUIET_NAN__ 1\000"
 8333      54333258 
 8333      5F484153 
 8333      5F515549 
 8333      45545F4E 
 8334              	.LASF1165:
 8335 1a62 50494E53 		.ascii	"PINSEL_FUNC_2 ((2))\000"
 8335      454C5F46 
 8335      554E435F 
 8335      32202828 
 8335      32292900 
 8336              	.LASF224:
 8337 1a76 5F5F464C 		.ascii	"__FLT32X_EPSILON__ 2.2204460492503131e-16F32x\000"
 8337      54333258 
ARM GAS  /tmp/ccKti1Oq.s 			page 172


 8337      5F455053 
 8337      494C4F4E 
 8337      5F5F2032 
 8338              	.LASF481:
 8339 1aa4 5F5F5F69 		.ascii	"___int_least16_t_defined 1\000"
 8339      6E745F6C 
 8339      65617374 
 8339      31365F74 
 8339      5F646566 
 8340              	.LASF425:
 8341 1abf 5F5F4152 		.ascii	"__ARM_ARCH_7M__ 1\000"
 8341      4D5F4152 
 8341      43485F37 
 8341      4D5F5F20 
 8341      3100
 8342              	.LASF244:
 8343 1ad1 5F5F4445 		.ascii	"__DEC128_MIN_EXP__ (-6142)\000"
 8343      43313238 
 8343      5F4D494E 
 8343      5F455850 
 8343      5F5F2028 
 8344              	.LASF711:
 8345 1aec 5343425F 		.ascii	"SCB_HFSR_VECTTBL_Pos 1\000"
 8345      48465352 
 8345      5F564543 
 8345      5454424C 
 8345      5F506F73 
 8346              	.LASF54:
 8347 1b03 5F5F494E 		.ascii	"__INT_FAST8_TYPE__ int\000"
 8347      545F4641 
 8347      5354385F 
 8347      54595045 
 8347      5F5F2069 
 8348              	.LASF849:
 8349 1b1a 436F7265 		.ascii	"CoreDebug_DEMCR_MON_STEP_Pos 18\000"
 8349      44656275 
 8349      675F4445 
 8349      4D43525F 
 8349      4D4F4E5F 
 8350              	.LASF362:
 8351 1b3a 5F5F5544 		.ascii	"__UDA_FBIT__ 32\000"
 8351      415F4642 
 8351      49545F5F 
 8351      20333200 
 8352              	.LASF1218:
 8353 1b4a 5F493243 		.ascii	"_I2C 1\000"
 8353      203100
 8354              	.LASF855:
 8355 1b51 436F7265 		.ascii	"CoreDebug_DEMCR_VC_HARDERR_Pos 10\000"
 8355      44656275 
 8355      675F4445 
 8355      4D43525F 
 8355      56435F48 
 8356              	.LASF90:
 8357 1b73 5F5F5549 		.ascii	"__UINTMAX_C(c) c ## ULL\000"
 8357      4E544D41 
 8357      585F4328 
ARM GAS  /tmp/ccKti1Oq.s 			page 173


 8357      63292063 
 8357      20232320 
 8358              	.LASF1163:
 8359 1b8b 50494E53 		.ascii	"PINSEL_FUNC_0 ((0))\000"
 8359      454C5F46 
 8359      554E435F 
 8359      30202828 
 8359      30292900 
 8360              	.LASF28:
 8361 1b9f 5F5F5349 		.ascii	"__SIZEOF_POINTER__ 4\000"
 8361      5A454F46 
 8361      5F504F49 
 8361      4E544552 
 8361      5F5F2034 
 8362              	.LASF46:
 8363 1bb4 5F5F494E 		.ascii	"__INT_LEAST8_TYPE__ signed char\000"
 8363      545F4C45 
 8363      41535438 
 8363      5F545950 
 8363      455F5F20 
 8364              	.LASF894:
 8365 1bd4 4C50435F 		.ascii	"LPC_AHB_BASE (0x50000000UL)\000"
 8365      4148425F 
 8365      42415345 
 8365      20283078 
 8365      35303030 
 8366              	.LASF856:
 8367 1bf0 436F7265 		.ascii	"CoreDebug_DEMCR_VC_HARDERR_Msk (1UL << CoreDebug_DE"
 8367      44656275 
 8367      675F4445 
 8367      4D43525F 
 8367      56435F48 
 8368 1c23 4D43525F 		.ascii	"MCR_VC_HARDERR_Pos)\000"
 8368      56435F48 
 8368      41524445 
 8368      52525F50 
 8368      6F732900 
 8369              	.LASF374:
 8370 1c37 5F5F4743 		.ascii	"__GCC_ATOMIC_BOOL_LOCK_FREE 2\000"
 8370      435F4154 
 8370      4F4D4943 
 8370      5F424F4F 
 8370      4C5F4C4F 
 8371              	.LASF1283:
 8372 1c55 54494D5F 		.ascii	"TIM_EXTMATCH_NOTHING\000"
 8372      4558544D 
 8372      41544348 
 8372      5F4E4F54 
 8372      48494E47 
 8373              	.LASF743:
 8374 1c6a 49544D5F 		.ascii	"ITM_TCR_BUSY_Pos 23\000"
 8374      5443525F 
 8374      42555359 
 8374      5F506F73 
 8374      20323300 
 8375              	.LASF758:
 8376 1c7e 49544D5F 		.ascii	"ITM_TCR_ITMENA_Msk (1UL << ITM_TCR_ITMENA_Pos)\000"
ARM GAS  /tmp/ccKti1Oq.s 			page 174


 8376      5443525F 
 8376      49544D45 
 8376      4E415F4D 
 8376      736B2028 
 8377              	.LASF1229:
 8378 1cad 5F525443 		.ascii	"_RTC 1\000"
 8378      203100
 8379              	.LASF1134:
 8380 1cb4 434C4B50 		.ascii	"CLKPWR_PCONP_PCSSP1 ((uint32_t)(1<<10))\000"
 8380      57525F50 
 8380      434F4E50 
 8380      5F504353 
 8380      53503120 
 8381              	.LASF421:
 8382 1cdc 5F5F4152 		.ascii	"__ARM_NEON__\000"
 8382      4D5F4E45 
 8382      4F4E5F5F 
 8382      00
 8383              	.LASF541:
 8384 1ce9 55494E54 		.ascii	"UINTPTR_MAX (__UINTPTR_MAX__)\000"
 8384      5054525F 
 8384      4D415820 
 8384      285F5F55 
 8384      494E5450 
 8385              	.LASF191:
 8386 1d07 5F5F464C 		.ascii	"__FLT32_MAX_EXP__ 128\000"
 8386      5433325F 
 8386      4D41585F 
 8386      4558505F 
 8386      5F203132 
 8387              	.LASF356:
 8388 1d1d 5F5F5441 		.ascii	"__TA_FBIT__ 63\000"
 8388      5F464249 
 8388      545F5F20 
 8388      363300
 8389              	.LASF424:
 8390 1d2c 5F5F5448 		.ascii	"__THUMB_INTERWORK__ 1\000"
 8390      554D425F 
 8390      494E5445 
 8390      52574F52 
 8390      4B5F5F20 
 8391              	.LASF288:
 8392 1d42 5F5F554C 		.ascii	"__ULLFRACT_MAX__ 0XFFFFFFFFFFFFFFFFP-64ULLR\000"
 8392      4C465241 
 8392      43545F4D 
 8392      41585F5F 
 8392      20305846 
 8393              	.LASF899:
 8394 1d6e 4C50435F 		.ascii	"LPC_UART0_BASE (LPC_APB0_BASE + 0x0C000)\000"
 8394      55415254 
 8394      305F4241 
 8394      53452028 
 8394      4C50435F 
 8395              	.LASF662:
 8396 1d97 5343425F 		.ascii	"SCB_CCR_STKALIGN_Msk (1UL << SCB_CCR_STKALIGN_Pos)\000"
 8396      4343525F 
 8396      53544B41 
ARM GAS  /tmp/ccKti1Oq.s 			page 175


 8396      4C49474E 
 8396      5F4D736B 
 8397              	.LASF722:
 8398 1dca 5343425F 		.ascii	"SCB_DFSR_HALTED_Msk (1UL << SCB_DFSR_HALTED_Pos)\000"
 8398      44465352 
 8398      5F48414C 
 8398      5445445F 
 8398      4D736B20 
 8399              	.LASF218:
 8400 1dfb 5F5F464C 		.ascii	"__FLT32X_MIN_10_EXP__ (-307)\000"
 8400      54333258 
 8400      5F4D494E 
 8400      5F31305F 
 8400      4558505F 
 8401              	.LASF804:
 8402 1e18 4D50555F 		.ascii	"MPU_RASR_TEX_Msk (7UL << MPU_RASR_TEX_Pos)\000"
 8402      52415352 
 8402      5F544558 
 8402      5F4D736B 
 8402      20283755 
 8403              	.LASF1103:
 8404 1e43 434C4B50 		.ascii	"CLKPWR_PCLKSEL_SPI ((uint32_t)(16))\000"
 8404      57525F50 
 8404      434C4B53 
 8404      454C5F53 
 8404      50492028 
 8405              	.LASF36:
 8406 1e67 5F5F4348 		.ascii	"__CHAR32_TYPE__ long unsigned int\000"
 8406      41523332 
 8406      5F545950 
 8406      455F5F20 
 8406      6C6F6E67 
 8407              	.LASF732:
 8408 1e89 53797354 		.ascii	"SysTick_LOAD_RELOAD_Msk (0xFFFFFFUL << SysTick_LOAD"
 8408      69636B5F 
 8408      4C4F4144 
 8408      5F52454C 
 8408      4F41445F 
 8409 1ebc 5F52454C 		.ascii	"_RELOAD_Pos)\000"
 8409      4F41445F 
 8409      506F7329 
 8409      00
 8410              	.LASF419:
 8411 1ec9 5F5F4152 		.ascii	"__ARM_FEATURE_FP16_VECTOR_ARITHMETIC\000"
 8411      4D5F4645 
 8411      41545552 
 8411      455F4650 
 8411      31365F56 
 8412              	.LASF1123:
 8413 1eee 434C4B50 		.ascii	"CLKPWR_PCLKSEL_CCLK_DIV_4 ((uint32_t)(0))\000"
 8413      57525F50 
 8413      434C4B53 
 8413      454C5F43 
 8413      434C4B5F 
 8414              	.LASF461:
 8415 1f18 5F504F53 		.ascii	"_POSIX_C_SOURCE 200809L\000"
 8415      49585F43 
ARM GAS  /tmp/ccKti1Oq.s 			page 176


 8415      5F534F55 
 8415      52434520 
 8415      32303038 
 8416              	.LASF133:
 8417 1f30 5F5F5549 		.ascii	"__UINT_FAST32_MAX__ 0xffffffffU\000"
 8417      4E545F46 
 8417      41535433 
 8417      325F4D41 
 8417      585F5F20 
 8418              	.LASF142:
 8419 1f50 5F5F4445 		.ascii	"__DEC_EVAL_METHOD__ 2\000"
 8419      435F4556 
 8419      414C5F4D 
 8419      4554484F 
 8419      445F5F20 
 8420              	.LASF148:
 8421 1f66 5F5F464C 		.ascii	"__FLT_MAX_EXP__ 128\000"
 8421      545F4D41 
 8421      585F4558 
 8421      505F5F20 
 8421      31323800 
 8422              	.LASF14:
 8423 1f7a 5F5F5349 		.ascii	"__SIZEOF_LONG__ 4\000"
 8423      5A454F46 
 8423      5F4C4F4E 
 8423      475F5F20 
 8423      3400
 8424              	.LASF772:
 8425 1f8c 496E7454 		.ascii	"IntType_ICTR_INTLINESNUM_Msk (0x1FUL << IntType_ICT"
 8425      7970655F 
 8425      49435452 
 8425      5F494E54 
 8425      4C494E45 
 8426 1fbf 525F494E 		.ascii	"R_INTLINESNUM_Pos)\000"
 8426      544C494E 
 8426      45534E55 
 8426      4D5F506F 
 8426      732900
 8427              	.LASF689:
 8428 1fd2 5343425F 		.ascii	"SCB_SHCSR_PENDSVACT_Pos 10\000"
 8428      53484353 
 8428      525F5045 
 8428      4E445356 
 8428      4143545F 
 8429              	.LASF1042:
 8430 1fed 434C4B50 		.ascii	"CLKPWR_CLKSRCSEL_CLKSRC_MAINOSC ((uint32_t)(0x01))\000"
 8430      57525F43 
 8430      4C4B5352 
 8430      4353454C 
 8430      5F434C4B 
 8431              	.LASF980:
 8432 2020 4C50435F 		.ascii	"LPC_GPDMA ((LPC_GPDMA_TypeDef *) LPC_GPDMA_BASE )\000"
 8432      4750444D 
 8432      41202828 
 8432      4C50435F 
 8432      4750444D 
 8433              	.LASF18:
ARM GAS  /tmp/ccKti1Oq.s 			page 177


 8434 2052 5F5F5349 		.ascii	"__SIZEOF_DOUBLE__ 8\000"
 8434      5A454F46 
 8434      5F444F55 
 8434      424C455F 
 8434      5F203800 
 8435              	.LASF1279:
 8436 2066 54494D5F 		.ascii	"TIM_PRESCALE_TICKVAL\000"
 8436      50524553 
 8436      43414C45 
 8436      5F544943 
 8436      4B56414C 
 8437              	.LASF452:
 8438 207b 5F5F4E45 		.ascii	"__NEWLIB_MINOR__ 5\000"
 8438      574C4942 
 8438      5F4D494E 
 8438      4F525F5F 
 8438      203500
 8439              	.LASF217:
 8440 208e 5F5F464C 		.ascii	"__FLT32X_MIN_EXP__ (-1021)\000"
 8440      54333258 
 8440      5F4D494E 
 8440      5F455850 
 8440      5F5F2028 
 8441              	.LASF834:
 8442 20a9 436F7265 		.ascii	"CoreDebug_DHCSR_C_MASKINTS_Msk (1UL << CoreDebug_DH"
 8442      44656275 
 8442      675F4448 
 8442      4353525F 
 8442      435F4D41 
 8443 20dc 4353525F 		.ascii	"CSR_C_MASKINTS_Pos)\000"
 8443      435F4D41 
 8443      534B494E 
 8443      54535F50 
 8443      6F732900 
 8444              	.LASF633:
 8445 20f0 5343425F 		.ascii	"SCB_ICSR_RETTOBASE_Pos 11\000"
 8445      49435352 
 8445      5F524554 
 8445      544F4241 
 8445      53455F50 
 8446              	.LASF1177:
 8447 210a 50494E53 		.ascii	"PINSEL_PIN_10 ((10))\000"
 8447      454C5F50 
 8447      494E5F31 
 8447      30202828 
 8447      31302929 
 8448              	.LASF978:
 8449 211f 4C50435F 		.ascii	"LPC_QEI ((LPC_QEI_TypeDef *) LPC_QEI_BASE )\000"
 8449      51454920 
 8449      28284C50 
 8449      435F5145 
 8449      495F5479 
 8450              	.LASF918:
 8451 214b 4C50435F 		.ascii	"LPC_TIM3_BASE (LPC_APB1_BASE + 0x14000)\000"
 8451      54494D33 
 8451      5F424153 
 8451      4520284C 
ARM GAS  /tmp/ccKti1Oq.s 			page 178


 8451      50435F41 
 8452              	.LASF507:
 8453 2173 5F5F4641 		.ascii	"__FAST16 \000"
 8453      53543136 
 8453      2000
 8454              	.LASF562:
 8455 217d 55494E54 		.ascii	"UINT64_MAX (__UINT64_MAX__)\000"
 8455      36345F4D 
 8455      41582028 
 8455      5F5F5549 
 8455      4E543634 
 8456              	.LASF468:
 8457 2199 5F5F4C41 		.ascii	"__LARGEFILE_VISIBLE 0\000"
 8457      52474546 
 8457      494C455F 
 8457      56495349 
 8457      424C4520 
 8458              	.LASF240:
 8459 21af 5F5F4445 		.ascii	"__DEC64_MAX__ 9.999999999999999E384DD\000"
 8459      4336345F 
 8459      4D41585F 
 8459      5F20392E 
 8459      39393939 
 8460              	.LASF451:
 8461 21d5 5F5F4E45 		.ascii	"__NEWLIB__ 2\000"
 8461      574C4942 
 8461      5F5F2032 
 8461      00
 8462              	.LASF658:
 8463 21e2 5343425F 		.ascii	"SCB_SCR_SLEEPDEEP_Msk (1UL << SCB_SCR_SLEEPDEEP_Pos"
 8463      5343525F 
 8463      534C4545 
 8463      50444545 
 8463      505F4D73 
 8464 2215 2900     		.ascii	")\000"
 8465              	.LASF147:
 8466 2217 5F5F464C 		.ascii	"__FLT_MIN_10_EXP__ (-37)\000"
 8466      545F4D49 
 8466      4E5F3130 
 8466      5F455850 
 8466      5F5F2028 
 8467              	.LASF467:
 8468 2230 5F5F4953 		.ascii	"__ISO_C_VISIBLE 1999\000"
 8468      4F5F435F 
 8468      56495349 
 8468      424C4520 
 8468      31393939 
 8469              	.LASF150:
 8470 2245 5F5F464C 		.ascii	"__FLT_DECIMAL_DIG__ 9\000"
 8470      545F4445 
 8470      43494D41 
 8470      4C5F4449 
 8470      475F5F20 
 8471              	.LASF844:
 8472 225b 436F7265 		.ascii	"CoreDebug_DCRSR_REGSEL_Msk (0x1FUL << CoreDebug_DCR"
 8472      44656275 
 8472      675F4443 
ARM GAS  /tmp/ccKti1Oq.s 			page 179


 8472      5253525F 
 8472      52454753 
 8473 228e 53525F52 		.ascii	"SR_REGSEL_Pos)\000"
 8473      45475345 
 8473      4C5F506F 
 8473      732900
 8474              	.LASF516:
 8475 229d 5F55494E 		.ascii	"_UINT8_T_DECLARED \000"
 8475      54385F54 
 8475      5F444543 
 8475      4C415245 
 8475      442000
 8476              	.LASF1239:
 8477 22b0 7369676E 		.ascii	"signed char\000"
 8477      65642063 
 8477      68617200 
 8478              	.LASF1236:
 8479 22bc 5F524954 		.ascii	"_RIT 1\000"
 8479      203100
 8480              	.LASF1252:
 8481 22c3 75696E74 		.ascii	"uint8_t\000"
 8481      385F7400 
 8482              	.LASF579:
 8483 22cb 494E544D 		.ascii	"INTMAX_MIN (-INTMAX_MAX - 1)\000"
 8483      41585F4D 
 8483      494E2028 
 8483      2D494E54 
 8483      4D41585F 
 8484              	.LASF893:
 8485 22e8 4C50435F 		.ascii	"LPC_APB1_BASE (0x40080000UL)\000"
 8485      41504231 
 8485      5F424153 
 8485      45202830 
 8485      78343030 
 8486              	.LASF586:
 8487 2305 57434841 		.ascii	"WCHAR_MIN (__WCHAR_MIN__)\000"
 8487      525F4D49 
 8487      4E20285F 
 8487      5F574348 
 8487      41525F4D 
 8488              	.LASF260:
 8489 231f 5F5F4652 		.ascii	"__FRACT_FBIT__ 15\000"
 8489      4143545F 
 8489      46424954 
 8489      5F5F2031 
 8489      3500
 8490              	.LASF157:
 8491 2331 5F5F464C 		.ascii	"__FLT_HAS_QUIET_NAN__ 1\000"
 8491      545F4841 
 8491      535F5155 
 8491      4945545F 
 8491      4E414E5F 
 8492              	.LASF4:
 8493 2349 5F5F474E 		.ascii	"__GNUC_PATCHLEVEL__ 0\000"
 8493      55435F50 
 8493      41544348 
 8493      4C455645 
ARM GAS  /tmp/ccKti1Oq.s 			page 180


 8493      4C5F5F20 
 8494              	.LASF960:
 8495 235f 4C50435F 		.ascii	"LPC_I2C0 ((LPC_I2C_TypeDef *) LPC_I2C0_BASE )\000"
 8495      49324330 
 8495      2028284C 
 8495      50435F49 
 8495      32435F54 
 8496              	.LASF377:
 8497 238d 5F5F4743 		.ascii	"__GCC_ATOMIC_CHAR32_T_LOCK_FREE 2\000"
 8497      435F4154 
 8497      4F4D4943 
 8497      5F434841 
 8497      5233325F 
 8498              	.LASF961:
 8499 23af 4C50435F 		.ascii	"LPC_I2C1 ((LPC_I2C_TypeDef *) LPC_I2C1_BASE )\000"
 8499      49324331 
 8499      2028284C 
 8499      50435F49 
 8499      32435F54 
 8500              	.LASF117:
 8501 23dd 5F5F5549 		.ascii	"__UINT_LEAST16_MAX__ 0xffff\000"
 8501      4E545F4C 
 8501      45415354 
 8501      31365F4D 
 8501      41585F5F 
 8502              	.LASF1185:
 8503 23f9 50494E53 		.ascii	"PINSEL_PIN_18 ((18))\000"
 8503      454C5F50 
 8503      494E5F31 
 8503      38202828 
 8503      31382929 
 8504              	.LASF446:
 8505 240e 5F535444 		.ascii	"_STDINT_H \000"
 8505      494E545F 
 8505      482000
 8506              	.LASF636:
 8507 2419 5343425F 		.ascii	"SCB_ICSR_VECTACTIVE_Msk (0x1FFUL << SCB_ICSR_VECTAC"
 8507      49435352 
 8507      5F564543 
 8507      54414354 
 8507      4956455F 
 8508 244c 54495645 		.ascii	"TIVE_Pos)\000"
 8508      5F506F73 
 8508      2900
 8509              	.LASF293:
 8510 2456 5F5F5341 		.ascii	"__SACCUM_MAX__ 0X7FFFP-7HK\000"
 8510      4343554D 
 8510      5F4D4158 
 8510      5F5F2030 
 8510      58374646 
 8511              	.LASF206:
 8512 2471 5F5F464C 		.ascii	"__FLT64_MAX_10_EXP__ 308\000"
 8512      5436345F 
 8512      4D41585F 
 8512      31305F45 
 8512      58505F5F 
 8513              	.LASF1028:
ARM GAS  /tmp/ccKti1Oq.s 			page 181


 8514 248a 54494D5F 		.ascii	"TIM_EMR_MASKBIT 0x0FFF\000"
 8514      454D525F 
 8514      4D41534B 
 8514      42495420 
 8514      30783046 
 8515              	.LASF717:
 8516 24a1 5343425F 		.ascii	"SCB_DFSR_DWTTRAP_Pos 2\000"
 8516      44465352 
 8516      5F445754 
 8516      54524150 
 8516      5F506F73 
 8517              	.LASF1022:
 8518 24b8 54494D5F 		.ascii	"TIM_EM_NOTHING ((uint8_t)(0x0))\000"
 8518      454D5F4E 
 8518      4F544849 
 8518      4E472028 
 8518      2875696E 
 8519              	.LASF486:
 8520 24d8 5F5F5354 		.ascii	"__STDINT_EXP(x) __ ##x ##__\000"
 8520      44494E54 
 8520      5F455850 
 8520      28782920 
 8520      5F5F2023 
 8521              	.LASF1258:
 8522 24f4 52455345 		.ascii	"RESERVED0\000"
 8522      52564544 
 8522      3000
 8523              	.LASF1259:
 8524 24fe 52455345 		.ascii	"RESERVED1\000"
 8524      52564544 
 8524      3100
 8525              	.LASF1240:
 8526 2508 756E7369 		.ascii	"unsigned char\000"
 8526      676E6564 
 8526      20636861 
 8526      7200
 8527              	.LASF225:
 8528 2516 5F5F464C 		.ascii	"__FLT32X_DENORM_MIN__ 4.9406564584124654e-324F32x\000"
 8528      54333258 
 8528      5F44454E 
 8528      4F524D5F 
 8528      4D494E5F 
 8529              	.LASF858:
 8530 2548 436F7265 		.ascii	"CoreDebug_DEMCR_VC_INTERR_Msk (1UL << CoreDebug_DEM"
 8530      44656275 
 8530      675F4445 
 8530      4D43525F 
 8530      56435F49 
 8531 257b 43525F56 		.ascii	"CR_VC_INTERR_Pos)\000"
 8531      435F494E 
 8531      54455252 
 8531      5F506F73 
 8531      2900
 8532              	.LASF149:
 8533 258d 5F5F464C 		.ascii	"__FLT_MAX_10_EXP__ 38\000"
 8533      545F4D41 
 8533      585F3130 
ARM GAS  /tmp/ccKti1Oq.s 			page 182


 8533      5F455850 
 8533      5F5F2033 
 8534              	.LASF247:
 8535 25a3 5F5F4445 		.ascii	"__DEC128_MAX__ 9.999999999999999999999999999999999E"
 8535      43313238 
 8535      5F4D4158 
 8535      5F5F2039 
 8535      2E393939 
 8536 25d6 36313434 		.ascii	"6144DL\000"
 8536      444C00
 8537              	.LASF245:
 8538 25dd 5F5F4445 		.ascii	"__DEC128_MAX_EXP__ 6145\000"
 8538      43313238 
 8538      5F4D4158 
 8538      5F455850 
 8538      5F5F2036 
 8539              	.LASF1119:
 8540 25f5 434C4B50 		.ascii	"CLKPWR_PCLKSEL_I2S ((uint32_t)(54))\000"
 8540      57525F50 
 8540      434C4B53 
 8540      454C5F49 
 8540      32532028 
 8541              	.LASF1026:
 8542 2619 54494D5F 		.ascii	"TIM_EM_SET(n,s) (_SBF(((n << 1) + 4), (s & 0x03)))\000"
 8542      454D5F53 
 8542      4554286E 
 8542      2C732920 
 8542      285F5342 
 8543              	.LASF1204:
 8544 264c 50494E53 		.ascii	"PINSEL_I2C_Normal_Mode ((0))\000"
 8544      454C5F49 
 8544      32435F4E 
 8544      6F726D61 
 8544      6C5F4D6F 
 8545              	.LASF1084:
 8546 2669 434C4B50 		.ascii	"CLKPWR_PCLKSEL_BITMASK(p) _SBF(p,0x03)\000"
 8546      57525F50 
 8546      434C4B53 
 8546      454C5F42 
 8546      49544D41 
 8547              	.LASF1277:
 8548 2690 54494D5F 		.ascii	"TIM_COUNTER_FALLING_MODE\000"
 8548      434F554E 
 8548      5445525F 
 8548      46414C4C 
 8548      494E475F 
 8549              	.LASF7:
 8550 26a9 5F5F4154 		.ascii	"__ATOMIC_SEQ_CST 5\000"
 8550      4F4D4943 
 8550      5F534551 
 8550      5F435354 
 8550      203500
 8551              	.LASF1139:
 8552 26bc 434C4B50 		.ascii	"CLKPWR_PCONP_PCRIT ((uint32_t)(1<<16))\000"
 8552      57525F50 
 8552      434F4E50 
 8552      5F504352 
ARM GAS  /tmp/ccKti1Oq.s 			page 183


 8552      49542028 
 8553              	.LASF660:
 8554 26e3 5343425F 		.ascii	"SCB_SCR_SLEEPONEXIT_Msk (1UL << SCB_SCR_SLEEPONEXIT"
 8554      5343525F 
 8554      534C4545 
 8554      504F4E45 
 8554      5849545F 
 8555 2716 5F506F73 		.ascii	"_Pos)\000"
 8555      2900
 8556              	.LASF984:
 8557 271c 4C50435F 		.ascii	"LPC_GPDMACH2 ((LPC_GPDMACH_TypeDef *) LPC_GPDMACH2_"
 8557      4750444D 
 8557      41434832 
 8557      2028284C 
 8557      50435F47 
 8558 274f 42415345 		.ascii	"BASE )\000"
 8558      202900
 8559              	.LASF1122:
 8560 2756 434C4B50 		.ascii	"CLKPWR_PCLKSEL_MC ((uint32_t)(62))\000"
 8560      57525F50 
 8560      434C4B53 
 8560      454C5F4D 
 8560      43202828 
 8561              	.LASF807:
 8562 2779 4D50555F 		.ascii	"MPU_RASR_C_Pos 17\000"
 8562      52415352 
 8562      5F435F50 
 8562      6F732031 
 8562      3700
 8563              	.LASF442:
 8564 278b 5F5F434D 		.ascii	"__CM3_CMSIS_VERSION ((__CM3_CMSIS_VERSION_MAIN << 1"
 8564      335F434D 
 8564      5349535F 
 8564      56455253 
 8564      494F4E20 
 8565 27be 3629207C 		.ascii	"6) | __CM3_CMSIS_VERSION_SUB)\000"
 8565      205F5F43 
 8565      4D335F43 
 8565      4D534953 
 8565      5F564552 
 8566              	.LASF1196:
 8567 27dc 50494E53 		.ascii	"PINSEL_PIN_29 ((29))\000"
 8567      454C5F50 
 8567      494E5F32 
 8567      39202828 
 8567      32392929 
 8568              	.LASF567:
 8569 27f1 494E545F 		.ascii	"INT_FAST8_MAX (__INT_FAST8_MAX__)\000"
 8569      46415354 
 8569      385F4D41 
 8569      5820285F 
 8569      5F494E54 
 8570              	.LASF878:
 8571 2813 53434220 		.ascii	"SCB ((SCB_Type *) SCB_BASE)\000"
 8571      28285343 
 8571      425F5479 
 8571      7065202A 
ARM GAS  /tmp/ccKti1Oq.s 			page 184


 8571      29205343 
 8572              	.LASF100:
 8573 282f 5F5F5549 		.ascii	"__UINT16_MAX__ 0xffff\000"
 8573      4E543136 
 8573      5F4D4158 
 8573      5F5F2030 
 8573      78666666 
 8574              	.LASF979:
 8575 2845 4C50435F 		.ascii	"LPC_EMAC ((LPC_EMAC_TypeDef *) LPC_EMAC_BASE )\000"
 8575      454D4143 
 8575      2028284C 
 8575      50435F45 
 8575      4D41435F 
 8576              	.LASF750:
 8577 2874 49544D5F 		.ascii	"ITM_TCR_SWOENA_Msk (1UL << ITM_TCR_SWOENA_Pos)\000"
 8577      5443525F 
 8577      53574F45 
 8577      4E415F4D 
 8577      736B2028 
 8578              	.LASF338:
 8579 28a3 5F5F5451 		.ascii	"__TQ_FBIT__ 127\000"
 8579      5F464249 
 8579      545F5F20 
 8579      31323700 
 8580              	.LASF1146:
 8581 28b3 434C4B50 		.ascii	"CLKPWR_PCONP_PCUART2 ((uint32_t)(1<<24))\000"
 8581      57525F50 
 8581      434F4E50 
 8581      5F504355 
 8581      41525432 
 8582              	.LASF176:
 8583 28dc 5F5F4C44 		.ascii	"__LDBL_MAX_EXP__ 1024\000"
 8583      424C5F4D 
 8583      41585F45 
 8583      58505F5F 
 8583      20313032 
 8584              	.LASF249:
 8585 28f2 5F5F4445 		.ascii	"__DEC128_SUBNORMAL_MIN__ 0.000000000000000000000000"
 8585      43313238 
 8585      5F535542 
 8585      4E4F524D 
 8585      414C5F4D 
 8586 2925 30303030 		.ascii	"000000001E-6143DL\000"
 8586      30303030 
 8586      31452D36 
 8586      31343344 
 8586      4C00
 8587              	.LASF958:
 8588 2937 4C50435F 		.ascii	"LPC_UART3 ((LPC_UART_TypeDef *) LPC_UART3_BASE )\000"
 8588      55415254 
 8588      33202828 
 8588      4C50435F 
 8588      55415254 
 8589              	.LASF538:
 8590 2968 5F5F696E 		.ascii	"__int_fast64_t_defined 1\000"
 8590      745F6661 
 8590      73743634 
ARM GAS  /tmp/ccKti1Oq.s 			page 185


 8590      5F745F64 
 8590      6566696E 
 8591              	.LASF433:
 8592 2981 5F5F5553 		.ascii	"__USES_INITFINI__ 1\000"
 8592      45535F49 
 8592      4E495446 
 8592      494E495F 
 8592      5F203100 
 8593              	.LASF697:
 8594 2995 5343425F 		.ascii	"SCB_SHCSR_BUSFAULTACT_Pos 1\000"
 8594      53484353 
 8594      525F4255 
 8594      53464155 
 8594      4C544143 
 8595              	.LASF16:
 8596 29b1 5F5F5349 		.ascii	"__SIZEOF_SHORT__ 2\000"
 8596      5A454F46 
 8596      5F53484F 
 8596      52545F5F 
 8596      203200
 8597              	.LASF325:
 8598 29c4 5F5F554C 		.ascii	"__ULLACCUM_FBIT__ 32\000"
 8598      4C414343 
 8598      554D5F46 
 8598      4249545F 
 8598      5F203332 
 8599              	.LASF690:
 8600 29d9 5343425F 		.ascii	"SCB_SHCSR_PENDSVACT_Msk (1UL << SCB_SHCSR_PENDSVACT"
 8600      53484353 
 8600      525F5045 
 8600      4E445356 
 8600      4143545F 
 8601 2a0c 5F506F73 		.ascii	"_Pos)\000"
 8601      2900
 8602              	.LASF933:
 8603 2a12 4C50435F 		.ascii	"LPC_GPDMACH4_BASE (LPC_AHB_BASE + 0x04180)\000"
 8603      4750444D 
 8603      41434834 
 8603      5F424153 
 8603      4520284C 
 8604              	.LASF866:
 8605 2a3d 436F7265 		.ascii	"CoreDebug_DEMCR_VC_NOCPERR_Msk (1UL << CoreDebug_DE"
 8605      44656275 
 8605      675F4445 
 8605      4D43525F 
 8605      56435F4E 
 8606 2a70 4D43525F 		.ascii	"MCR_VC_NOCPERR_Pos)\000"
 8606      56435F4E 
 8606      4F435045 
 8606      52525F50 
 8606      6F732900 
 8607              	.LASF904:
 8608 2a84 4C50435F 		.ascii	"LPC_RTC_BASE (LPC_APB0_BASE + 0x24000)\000"
 8608      5254435F 
 8608      42415345 
 8608      20284C50 
 8608      435F4150 
ARM GAS  /tmp/ccKti1Oq.s 			page 186


 8609              	.LASF861:
 8610 2aab 436F7265 		.ascii	"CoreDebug_DEMCR_VC_STATERR_Pos 7\000"
 8610      44656275 
 8610      675F4445 
 8610      4D43525F 
 8610      56435F53 
 8611              	.LASF824:
 8612 2acc 436F7265 		.ascii	"CoreDebug_DHCSR_S_LOCKUP_Msk (1UL << CoreDebug_DHCS"
 8612      44656275 
 8612      675F4448 
 8612      4353525F 
 8612      535F4C4F 
 8613 2aff 525F535F 		.ascii	"R_S_LOCKUP_Pos)\000"
 8613      4C4F434B 
 8613      55505F50 
 8613      6F732900 
 8614              	.LASF448:
 8615 2b0f 5F535953 		.ascii	"_SYS_FEATURES_H \000"
 8615      5F464541 
 8615      54555245 
 8615      535F4820 
 8615      00
 8616              	.LASF833:
 8617 2b20 436F7265 		.ascii	"CoreDebug_DHCSR_C_MASKINTS_Pos 3\000"
 8617      44656275 
 8617      675F4448 
 8617      4353525F 
 8617      435F4D41 
 8618              	.LASF1002:
 8619 2b41 53544154 		.ascii	"STATIC static\000"
 8619      49432073 
 8619      74617469 
 8619      6300
 8620              	.LASF686:
 8621 2b4f 5343425F 		.ascii	"SCB_SHCSR_USGFAULTPENDED_Msk (1UL << SCB_SHCSR_USGF"
 8621      53484353 
 8621      525F5553 
 8621      47464155 
 8621      4C545045 
 8622 2b82 41554C54 		.ascii	"AULTPENDED_Pos)\000"
 8622      50454E44 
 8622      45445F50 
 8622      6F732900 
 8623              	.LASF626:
 8624 2b92 5343425F 		.ascii	"SCB_ICSR_PENDSTCLR_Msk (1UL << SCB_ICSR_PENDSTCLR_P"
 8624      49435352 
 8624      5F50454E 
 8624      44535443 
 8624      4C525F4D 
 8625 2bc5 6F732900 		.ascii	"os)\000"
 8626              	.LASF688:
 8627 2bc9 5343425F 		.ascii	"SCB_SHCSR_SYSTICKACT_Msk (1UL << SCB_SHCSR_SYSTICKA"
 8627      53484353 
 8627      525F5359 
 8627      53544943 
 8627      4B414354 
 8628 2bfc 43545F50 		.ascii	"CT_Pos)\000"
ARM GAS  /tmp/ccKti1Oq.s 			page 187


 8628      6F732900 
 8629              	.LASF940:
 8630 2c04 4C50435F 		.ascii	"LPC_GPIO2_BASE (LPC_GPIO_BASE + 0x00040)\000"
 8630      4750494F 
 8630      325F4241 
 8630      53452028 
 8630      4C50435F 
 8631              	.LASF648:
 8632 2c2d 5343425F 		.ascii	"SCB_AIRCR_PRIGROUP_Msk (7UL << SCB_AIRCR_PRIGROUP_P"
 8632      41495243 
 8632      525F5052 
 8632      4947524F 
 8632      55505F4D 
 8633 2c60 6F732900 		.ascii	"os)\000"
 8634              	.LASF19:
 8635 2c64 5F5F5349 		.ascii	"__SIZEOF_LONG_DOUBLE__ 8\000"
 8635      5A454F46 
 8635      5F4C4F4E 
 8635      475F444F 
 8635      55424C45 
 8636              	.LASF948:
 8637 2c7d 4C50435F 		.ascii	"LPC_GPIO4 ((LPC_GPIO_TypeDef *) LPC_GPIO4_BASE )\000"
 8637      4750494F 
 8637      34202828 
 8637      4C50435F 
 8637      4750494F 
 8638              	.LASF386:
 8639 2cae 5F5F5052 		.ascii	"__PRAGMA_REDEFINE_EXTNAME 1\000"
 8639      41474D41 
 8639      5F524544 
 8639      4546494E 
 8639      455F4558 
 8640              	.LASF31:
 8641 2cca 5F5F5743 		.ascii	"__WCHAR_TYPE__ unsigned int\000"
 8641      4841525F 
 8641      54595045 
 8641      5F5F2075 
 8641      6E736967 
 8642              	.LASF969:
 8643 2ce6 4C50435F 		.ascii	"LPC_SSP1 ((LPC_SSP_TypeDef *) LPC_SSP1_BASE )\000"
 8643      53535031 
 8643      2028284C 
 8643      50435F53 
 8643      53505F54 
 8644              	.LASF489:
 8645 2d14 63686172 		.ascii	"char\000"
 8645      00
 8646              	.LASF361:
 8647 2d19 5F5F5553 		.ascii	"__USA_IBIT__ 16\000"
 8647      415F4942 
 8647      49545F5F 
 8647      20313600 
 8648              	.LASF372:
 8649 2d29 5F5F4743 		.ascii	"__GCC_HAVE_SYNC_COMPARE_AND_SWAP_2 1\000"
 8649      435F4841 
 8649      56455F53 
 8649      594E435F 
ARM GAS  /tmp/ccKti1Oq.s 			page 188


 8649      434F4D50 
 8650              	.LASF598:
 8651 2d4e 494E544D 		.ascii	"INTMAX_C(x) __INTMAX_C(x)\000"
 8651      41585F43 
 8651      28782920 
 8651      5F5F494E 
 8651      544D4158 
 8652              	.LASF585:
 8653 2d68 50545244 		.ascii	"PTRDIFF_MIN (-PTRDIFF_MAX - 1)\000"
 8653      4946465F 
 8653      4D494E20 
 8653      282D5054 
 8653      52444946 
 8654              	.LASF437:
 8655 2d87 5F5F4E56 		.ascii	"__NVIC_PRIO_BITS 5\000"
 8655      49435F50 
 8655      52494F5F 
 8655      42495453 
 8655      203500
 8656              	.LASF1007:
 8657 2d9a 54494D5F 		.ascii	"TIM_ENABLE ((uint32_t)(1<<0))\000"
 8657      454E4142 
 8657      4C452028 
 8657      2875696E 
 8657      7433325F 
 8658              	.LASF439:
 8659 2db8 5F5F434F 		.ascii	"__CORE_CM3_H_GENERIC \000"
 8659      52455F43 
 8659      4D335F48 
 8659      5F47454E 
 8659      45524943 
 8660              	.LASF1217:
 8661 2dce 5F535350 		.ascii	"_SSP1 1\000"
 8661      31203100 
 8662              	.LASF61:
 8663 2dd6 5F5F5549 		.ascii	"__UINT_FAST64_TYPE__ long long unsigned int\000"
 8663      4E545F46 
 8663      41535436 
 8663      345F5459 
 8663      50455F5F 
 8664              	.LASF966:
 8665 2e02 4C50435F 		.ascii	"LPC_GPIOINT ((LPC_GPIOINT_TypeDef *) LPC_GPIOINT_BA"
 8665      4750494F 
 8665      494E5420 
 8665      28284C50 
 8665      435F4750 
 8666 2e35 53452029 		.ascii	"SE )\000"
 8666      00
 8667              	.LASF895:
 8668 2e3a 4C50435F 		.ascii	"LPC_CM3_BASE (0xE0000000UL)\000"
 8668      434D335F 
 8668      42415345 
 8668      20283078 
 8668      45303030 
 8669              	.LASF965:
 8670 2e56 4C50435F 		.ascii	"LPC_RTC ((LPC_RTC_TypeDef *) LPC_RTC_BASE )\000"
 8670      52544320 
ARM GAS  /tmp/ccKti1Oq.s 			page 189


 8670      28284C50 
 8670      435F5254 
 8670      435F5479 
 8671              	.LASF1058:
 8672 2e82 434C4B50 		.ascii	"CLKPWR_PLL0CFG_NSEL(n) ((uint32_t)((n<<16)&0xFF0000"
 8672      57525F50 
 8672      4C4C3043 
 8672      46475F4E 
 8672      53454C28 
 8673 2eb5 292900   		.ascii	"))\000"
 8674              	.LASF152:
 8675 2eb8 5F5F464C 		.ascii	"__FLT_MIN__ 1.1754943508222875e-38F\000"
 8675      545F4D49 
 8675      4E5F5F20 
 8675      312E3137 
 8675      35343934 
 8676              	.LASF350:
 8677 2edc 5F5F4841 		.ascii	"__HA_FBIT__ 7\000"
 8677      5F464249 
 8677      545F5F20 
 8677      3700
 8678              	.LASF1057:
 8679 2eea 434C4B50 		.ascii	"CLKPWR_PLL0CFG_MSEL(n) ((uint32_t)(n&0x7FFF))\000"
 8679      57525F50 
 8679      4C4C3043 
 8679      46475F4D 
 8679      53454C28 
 8680              	.LASF759:
 8681 2f18 49544D5F 		.ascii	"ITM_IWR_ATVALIDM_Pos 0\000"
 8681      4957525F 
 8681      41545641 
 8681      4C49444D 
 8681      5F506F73 
 8682              	.LASF1320:
 8683 2f2f 54494D5F 		.ascii	"TIM_Init\000"
 8683      496E6974 
 8683      00
 8684              	.LASF583:
 8685 2f38 5349475F 		.ascii	"SIG_ATOMIC_MAX (__STDINT_EXP(INT_MAX))\000"
 8685      41544F4D 
 8685      49435F4D 
 8685      41582028 
 8685      5F5F5354 
 8686              	.LASF967:
 8687 2f5f 4C50435F 		.ascii	"LPC_PINCON ((LPC_PINCON_TypeDef *) LPC_PINCON_BASE "
 8687      50494E43 
 8687      4F4E2028 
 8687      284C5043 
 8687      5F50494E 
 8688 2f92 2900     		.ascii	")\000"
 8689              	.LASF1133:
 8690 2f94 434C4B50 		.ascii	"CLKPWR_PCONP_PCRTC ((uint32_t)(1<<9))\000"
 8690      57525F50 
 8690      434F4E50 
 8690      5F504352 
 8690      54432028 
 8691              	.LASF1292:
ARM GAS  /tmp/ccKti1Oq.s 			page 190


 8692 2fba 436F756E 		.ascii	"CountInputSelect\000"
 8692      74496E70 
 8692      75745365 
 8692      6C656374 
 8692      00
 8693              	.LASF230:
 8694 2fcb 5F5F4445 		.ascii	"__DEC32_MIN_EXP__ (-94)\000"
 8694      4333325F 
 8694      4D494E5F 
 8694      4558505F 
 8694      5F20282D 
 8695              	.LASF256:
 8696 2fe3 5F5F5553 		.ascii	"__USFRACT_IBIT__ 0\000"
 8696      46524143 
 8696      545F4942 
 8696      49545F5F 
 8696      203000
 8697              	.LASF1068:
 8698 2ff6 434C4B50 		.ascii	"CLKPWR_PLL1CON_BITMASK ((uint32_t)(0x03))\000"
 8698      57525F50 
 8698      4C4C3143 
 8698      4F4E5F42 
 8698      49544D41 
 8699              	.LASF1285:
 8700 3020 54494D5F 		.ascii	"TIM_EXTMATCH_HIGH\000"
 8700      4558544D 
 8700      41544348 
 8700      5F484947 
 8700      4800
 8701              	.LASF975:
 8702 3032 4C50435F 		.ascii	"LPC_CAN1 ((LPC_CAN_TypeDef *) LPC_CAN1_BASE )\000"
 8702      43414E31 
 8702      2028284C 
 8702      50435F43 
 8702      414E5F54 
 8703              	.LASF257:
 8704 3060 5F5F5553 		.ascii	"__USFRACT_MIN__ 0.0UHR\000"
 8704      46524143 
 8704      545F4D49 
 8704      4E5F5F20 
 8704      302E3055 
 8705              	.LASF813:
 8706 3077 4D50555F 		.ascii	"MPU_RASR_SIZE_Pos 1\000"
 8706      52415352 
 8706      5F53495A 
 8706      455F506F 
 8706      73203100 
 8707              	.LASF788:
 8708 308b 4D50555F 		.ascii	"MPU_CTRL_HFNMIENA_Msk (1UL << MPU_CTRL_HFNMIENA_Pos"
 8708      4354524C 
 8708      5F48464E 
 8708      4D49454E 
 8708      415F4D73 
 8709 30be 2900     		.ascii	")\000"
 8710              	.LASF1335:
 8711 30c0 74696D65 		.ascii	"timernum\000"
 8711      726E756D 
ARM GAS  /tmp/ccKti1Oq.s 			page 191


 8711      00
 8712              	.LASF755:
 8713 30c9 49544D5F 		.ascii	"ITM_TCR_TSENA_Pos 1\000"
 8713      5443525F 
 8713      5453454E 
 8713      415F506F 
 8713      73203100 
 8714              	.LASF1327:
 8715 30dd 54494D5F 		.ascii	"TIM_ClearIntPending\000"
 8715      436C6561 
 8715      72496E74 
 8715      50656E64 
 8715      696E6700 
 8716              	.LASF477:
 8717 30f1 5F5F5F69 		.ascii	"___int16_t_defined 1\000"
 8717      6E743136 
 8717      5F745F64 
 8717      6566696E 
 8717      65642031 
 8718              	.LASF1149:
 8719 3106 434C4B50 		.ascii	"CLKPWR_PCONP_PCI2S ((uint32_t)(1<<27))\000"
 8719      57525F50 
 8719      434F4E50 
 8719      5F504349 
 8719      32532028 
 8720              	.LASF1314:
 8721 312d 74696D65 		.ascii	"timer\000"
 8721      7200
 8722              	.LASF1322:
 8723 3133 7054696D 		.ascii	"pTimeCfg\000"
 8723      65436667 
 8723      00
 8724              	.LASF1136:
 8725 313c 434C4B50 		.ascii	"CLKPWR_PCONP_PCAN1 ((uint32_t)(1<<13))\000"
 8725      57525F50 
 8725      434F4E50 
 8725      5F504341 
 8725      4E312028 
 8726              	.LASF659:
 8727 3163 5343425F 		.ascii	"SCB_SCR_SLEEPONEXIT_Pos 1\000"
 8727      5343525F 
 8727      534C4545 
 8727      504F4E45 
 8727      5849545F 
 8728              	.LASF657:
 8729 317d 5343425F 		.ascii	"SCB_SCR_SLEEPDEEP_Pos 2\000"
 8729      5343525F 
 8729      534C4545 
 8729      50444545 
 8729      505F506F 
 8730              	.LASF51:
 8731 3195 5F5F5549 		.ascii	"__UINT_LEAST16_TYPE__ short unsigned int\000"
 8731      4E545F4C 
 8731      45415354 
 8731      31365F54 
 8731      5950455F 
 8732              	.LASF517:
ARM GAS  /tmp/ccKti1Oq.s 			page 192


 8733 31be 5F5F696E 		.ascii	"__int8_t_defined 1\000"
 8733      74385F74 
 8733      5F646566 
 8733      696E6564 
 8733      203100
 8734              	.LASF169:
 8735 31d1 5F5F4442 		.ascii	"__DBL_HAS_DENORM__ 1\000"
 8735      4C5F4841 
 8735      535F4445 
 8735      4E4F524D 
 8735      5F5F2031 
 8736              	.LASF1048:
 8737 31e6 434C4B50 		.ascii	"CLKPWR_CLKOUTCFG_CLKOUTSEL_USB ((uint32_t)(0x03))\000"
 8737      57525F43 
 8737      4C4B4F55 
 8737      54434647 
 8737      5F434C4B 
 8738              	.LASF836:
 8739 3218 436F7265 		.ascii	"CoreDebug_DHCSR_C_STEP_Msk (1UL << CoreDebug_DHCSR_"
 8739      44656275 
 8739      675F4448 
 8739      4353525F 
 8739      435F5354 
 8740 324b 435F5354 		.ascii	"C_STEP_Pos)\000"
 8740      45505F50 
 8740      6F732900 
 8741              	.LASF950:
 8742 3257 4C50435F 		.ascii	"LPC_TIM0 ((LPC_TIM_TypeDef *) LPC_TIM0_BASE )\000"
 8742      54494D30 
 8742      2028284C 
 8742      50435F54 
 8742      494D5F54 
 8743              	.LASF729:
 8744 3285 53797354 		.ascii	"SysTick_CTRL_ENABLE_Pos 0\000"
 8744      69636B5F 
 8744      4354524C 
 8744      5F454E41 
 8744      424C455F 
 8745              	.LASF1179:
 8746 329f 50494E53 		.ascii	"PINSEL_PIN_12 ((12))\000"
 8746      454C5F50 
 8746      494E5F31 
 8746      32202828 
 8746      31322929 
 8747              	.LASF578:
 8748 32b4 494E544D 		.ascii	"INTMAX_MAX (__INTMAX_MAX__)\000"
 8748      41585F4D 
 8748      41582028 
 8748      5F5F494E 
 8748      544D4158 
 8749              	.LASF555:
 8750 32d0 494E5433 		.ascii	"INT32_MAX (__INT32_MAX__)\000"
 8750      325F4D41 
 8750      5820285F 
 8750      5F494E54 
 8750      33325F4D 
 8751              	.LASF66:
ARM GAS  /tmp/ccKti1Oq.s 			page 193


 8752 32ea 5F5F4758 		.ascii	"__GXX_ABI_VERSION 1011\000"
 8752      585F4142 
 8752      495F5645 
 8752      5253494F 
 8752      4E203130 
 8753              	.LASF354:
 8754 3301 5F5F4441 		.ascii	"__DA_FBIT__ 31\000"
 8754      5F464249 
 8754      545F5F20 
 8754      333100
 8755              	.LASF997:
 8756 3310 5F534246 		.ascii	"_SBF(f,v) (v<<f)\000"
 8756      28662C76 
 8756      29202876 
 8756      3C3C6629 
 8756      00
 8757              	.LASF1219:
 8758 3321 5F493243 		.ascii	"_I2C0 1\000"
 8758      30203100 
 8759              	.LASF106:
 8760 3329 5F5F494E 		.ascii	"__INT_LEAST16_MAX__ 0x7fff\000"
 8760      545F4C45 
 8760      41535431 
 8760      365F4D41 
 8760      585F5F20 
 8761              	.LASF957:
 8762 3344 4C50435F 		.ascii	"LPC_UART2 ((LPC_UART_TypeDef *) LPC_UART2_BASE )\000"
 8762      55415254 
 8762      32202828 
 8762      4C50435F 
 8762      55415254 
 8763              	.LASF622:
 8764 3375 5343425F 		.ascii	"SCB_ICSR_PENDSVCLR_Msk (1UL << SCB_ICSR_PENDSVCLR_P"
 8764      49435352 
 8764      5F50454E 
 8764      44535643 
 8764      4C525F4D 
 8765 33a8 6F732900 		.ascii	"os)\000"
 8766              	.LASF154:
 8767 33ac 5F5F464C 		.ascii	"__FLT_DENORM_MIN__ 1.4012984643248171e-45F\000"
 8767      545F4445 
 8767      4E4F524D 
 8767      5F4D494E 
 8767      5F5F2031 
 8768              	.LASF510:
 8769 33d7 5F5F4C45 		.ascii	"__LEAST8 \"hh\"\000"
 8769      41535438 
 8769      20226868 
 8769      2200
 8770              	.LASF1234:
 8771 33e5 5F4D4350 		.ascii	"_MCPWM 1\000"
 8771      574D2031 
 8771      00
 8772              	.LASF329:
 8773 33ee 5F5F554C 		.ascii	"__ULLACCUM_EPSILON__ 0x1P-32ULLK\000"
 8773      4C414343 
 8773      554D5F45 
ARM GAS  /tmp/ccKti1Oq.s 			page 194


 8773      5053494C 
 8773      4F4E5F5F 
 8774              	.LASF952:
 8775 340f 4C50435F 		.ascii	"LPC_TIM2 ((LPC_TIM_TypeDef *) LPC_TIM2_BASE )\000"
 8775      54494D32 
 8775      2028284C 
 8775      50435F54 
 8775      494D5F54 
 8776              	.LASF675:
 8777 343d 5343425F 		.ascii	"SCB_SHCSR_BUSFAULTENA_Pos 17\000"
 8777      53484353 
 8777      525F4255 
 8777      53464155 
 8777      4C54454E 
 8778              	.LASF897:
 8779 345a 4C50435F 		.ascii	"LPC_TIM0_BASE (LPC_APB0_BASE + 0x04000)\000"
 8779      54494D30 
 8779      5F424153 
 8779      4520284C 
 8779      50435F41 
 8780              	.LASF774:
 8781 3482 496E7454 		.ascii	"IntType_ACTLR_DISFOLD_Msk (1UL << IntType_ACTLR_DIS"
 8781      7970655F 
 8781      4143544C 
 8781      525F4449 
 8781      53464F4C 
 8782 34b5 464F4C44 		.ascii	"FOLD_Pos)\000"
 8782      5F506F73 
 8782      2900
 8783              	.LASF65:
 8784 34bf 5F5F6861 		.ascii	"__has_include_next(STR) __has_include_next__(STR)\000"
 8784      735F696E 
 8784      636C7564 
 8784      655F6E65 
 8784      78742853 
 8785              	.LASF857:
 8786 34f1 436F7265 		.ascii	"CoreDebug_DEMCR_VC_INTERR_Pos 9\000"
 8786      44656275 
 8786      675F4445 
 8786      4D43525F 
 8786      56435F49 
 8787              	.LASF553:
 8788 3511 55494E54 		.ascii	"UINT_LEAST16_MAX (__UINT_LEAST16_MAX__)\000"
 8788      5F4C4541 
 8788      53543136 
 8788      5F4D4158 
 8788      20285F5F 
 8789              	.LASF120:
 8790 3539 5F5F5549 		.ascii	"__UINT32_C(c) c ## UL\000"
 8790      4E543332 
 8790      5F432863 
 8790      29206320 
 8790      23232055 
 8791              	.LASF613:
 8792 354f 5343425F 		.ascii	"SCB_CPUID_PARTNO_Pos 4\000"
 8792      43505549 
 8792      445F5041 
ARM GAS  /tmp/ccKti1Oq.s 			page 195


 8792      52544E4F 
 8792      5F506F73 
 8793              	.LASF618:
 8794 3566 5343425F 		.ascii	"SCB_ICSR_NMIPENDSET_Msk (1UL << SCB_ICSR_NMIPENDSET"
 8794      49435352 
 8794      5F4E4D49 
 8794      50454E44 
 8794      5345545F 
 8795 3599 5F506F73 		.ascii	"_Pos)\000"
 8795      2900
 8796              	.LASF996:
 8797 359f 5F534246 		.ascii	"_SBF\000"
 8797      00
 8798              	.LASF307:
 8799 35a4 5F5F5541 		.ascii	"__UACCUM_MIN__ 0.0UK\000"
 8799      4343554D 
 8799      5F4D494E 
 8799      5F5F2030 
 8799      2E30554B 
 8800              	.LASF1272:
 8801 35b9 54494D5F 		.ascii	"TIM_MR3_INT\000"
 8801      4D52335F 
 8801      494E5400 
 8802              	.LASF1069:
 8803 35c5 434C4B50 		.ascii	"CLKPWR_PLL1CFG_MSEL(n) ((uint32_t)(n&0x1F))\000"
 8803      57525F50 
 8803      4C4C3143 
 8803      46475F4D 
 8803      53454C28 
 8804              	.LASF153:
 8805 35f1 5F5F464C 		.ascii	"__FLT_EPSILON__ 1.1920928955078125e-7F\000"
 8805      545F4550 
 8805      53494C4F 
 8805      4E5F5F20 
 8805      312E3139 
 8806              	.LASF842:
 8807 3618 436F7265 		.ascii	"CoreDebug_DCRSR_REGWnR_Msk (1UL << CoreDebug_DCRSR_"
 8807      44656275 
 8807      675F4443 
 8807      5253525F 
 8807      52454757 
 8808 364b 52454757 		.ascii	"REGWnR_Pos)\000"
 8808      6E525F50 
 8808      6F732900 
 8809              	.LASF819:
 8810 3657 436F7265 		.ascii	"CoreDebug_DHCSR_S_RESET_ST_Pos 25\000"
 8810      44656275 
 8810      675F4448 
 8810      4353525F 
 8810      535F5245 
 8811              	.LASF527:
 8812 3679 5F494E54 		.ascii	"_INTMAX_T_DECLARED \000"
 8812      4D41585F 
 8812      545F4445 
 8812      434C4152 
 8812      45442000 
 8813              	.LASF573:
ARM GAS  /tmp/ccKti1Oq.s 			page 196


 8814 368d 494E545F 		.ascii	"INT_FAST32_MAX (__INT_FAST32_MAX__)\000"
 8814      46415354 
 8814      33325F4D 
 8814      41582028 
 8814      5F5F494E 
 8815              	.LASF695:
 8816 36b1 5343425F 		.ascii	"SCB_SHCSR_USGFAULTACT_Pos 3\000"
 8816      53484353 
 8816      525F5553 
 8816      47464155 
 8816      4C544143 
 8817              	.LASF1120:
 8818 36cd 434C4B50 		.ascii	"CLKPWR_PCLKSEL_RIT ((uint32_t)(58))\000"
 8818      57525F50 
 8818      434C4B53 
 8818      454C5F52 
 8818      49542028 
 8819              	.LASF744:
 8820 36f1 49544D5F 		.ascii	"ITM_TCR_BUSY_Msk (1UL << ITM_TCR_BUSY_Pos)\000"
 8820      5443525F 
 8820      42555359 
 8820      5F4D736B 
 8820      20283155 
 8821              	.LASF993:
 8822 371c 50415241 		.ascii	"PARAM_FUNCTIONALSTATE(State) ((State==DISABLE) || ("
 8822      4D5F4655 
 8822      4E435449 
 8822      4F4E414C 
 8822      53544154 
 8823 374f 53746174 		.ascii	"State==ENABLE))\000"
 8823      653D3D45 
 8823      4E41424C 
 8823      45292900 
 8824              	.LASF666:
 8825 375f 5343425F 		.ascii	"SCB_CCR_DIV_0_TRP_Msk (1UL << SCB_CCR_DIV_0_TRP_Pos"
 8825      4343525F 
 8825      4449565F 
 8825      305F5452 
 8825      505F4D73 
 8826 3792 2900     		.ascii	")\000"
 8827              	.LASF1000:
 8828 3794 4E554C4C 		.ascii	"NULL ((void*) 0)\000"
 8828      20282876 
 8828      6F69642A 
 8828      29203029 
 8828      00
 8829              	.LASF723:
 8830 37a5 53797354 		.ascii	"SysTick_CTRL_COUNTFLAG_Pos 16\000"
 8830      69636B5F 
 8830      4354524C 
 8830      5F434F55 
 8830      4E54464C 
 8831              	.LASF532:
 8832 37c3 5F5F696E 		.ascii	"__int_least16_t_defined 1\000"
 8832      745F6C65 
 8832      61737431 
 8832      365F745F 
ARM GAS  /tmp/ccKti1Oq.s 			page 197


 8832      64656669 
 8833              	.LASF309:
 8834 37dd 5F5F5541 		.ascii	"__UACCUM_EPSILON__ 0x1P-16UK\000"
 8834      4343554D 
 8834      5F455053 
 8834      494C4F4E 
 8834      5F5F2030 
 8835              	.LASF840:
 8836 37fa 436F7265 		.ascii	"CoreDebug_DHCSR_C_DEBUGEN_Msk (1UL << CoreDebug_DHC"
 8836      44656275 
 8836      675F4448 
 8836      4353525F 
 8836      435F4445 
 8837 382d 53525F43 		.ascii	"SR_C_DEBUGEN_Pos)\000"
 8837      5F444542 
 8837      5547454E 
 8837      5F506F73 
 8837      2900
 8838              	.LASF558:
 8839 383f 494E545F 		.ascii	"INT_LEAST32_MAX (__INT_LEAST32_MAX__)\000"
 8839      4C454153 
 8839      5433325F 
 8839      4D415820 
 8839      285F5F49 
 8840              	.LASF1301:
 8841 3865 43617074 		.ascii	"CaptureChannel\000"
 8841      75726543 
 8841      68616E6E 
 8841      656C00
 8842              	.LASF379:
 8843 3874 5F5F4743 		.ascii	"__GCC_ATOMIC_SHORT_LOCK_FREE 2\000"
 8843      435F4154 
 8843      4F4D4943 
 8843      5F53484F 
 8843      52545F4C 
 8844              	.LASF701:
 8845 3893 5343425F 		.ascii	"SCB_CFSR_USGFAULTSR_Pos 16\000"
 8845      43465352 
 8845      5F555347 
 8845      4641554C 
 8845      5453525F 
 8846              	.LASF794:
 8847 38ae 4D50555F 		.ascii	"MPU_RBAR_ADDR_Msk (0x7FFFFFFUL << MPU_RBAR_ADDR_Pos"
 8847      52424152 
 8847      5F414444 
 8847      525F4D73 
 8847      6B202830 
 8848 38e1 2900     		.ascii	")\000"
 8849              	.LASF736:
 8850 38e3 53797354 		.ascii	"SysTick_CALIB_NOREF_Msk (1UL << SysTick_CALIB_NOREF"
 8850      69636B5F 
 8850      43414C49 
 8850      425F4E4F 
 8850      5245465F 
 8851 3916 5F506F73 		.ascii	"_Pos)\000"
 8851      2900
 8852              	.LASF333:
ARM GAS  /tmp/ccKti1Oq.s 			page 198


 8853 391c 5F5F4851 		.ascii	"__HQ_IBIT__ 0\000"
 8853      5F494249 
 8853      545F5F20 
 8853      3000
 8854              	.LASF551:
 8855 392a 494E545F 		.ascii	"INT_LEAST16_MIN (-__INT_LEAST16_MAX__ - 1)\000"
 8855      4C454153 
 8855      5431365F 
 8855      4D494E20 
 8855      282D5F5F 
 8856              	.LASF295:
 8857 3955 5F5F5553 		.ascii	"__USACCUM_FBIT__ 8\000"
 8857      41434355 
 8857      4D5F4642 
 8857      49545F5F 
 8857      203800
 8858              	.LASF1021:
 8859 3968 54494D5F 		.ascii	"TIM_EM(n) _BIT(n)\000"
 8859      454D286E 
 8859      29205F42 
 8859      4954286E 
 8859      2900
 8860              	.LASF383:
 8861 397a 5F5F4743 		.ascii	"__GCC_ATOMIC_TEST_AND_SET_TRUEVAL 1\000"
 8861      435F4154 
 8861      4F4D4943 
 8861      5F544553 
 8861      545F414E 
 8862              	.LASF974:
 8863 399e 4C50435F 		.ascii	"LPC_CANCR ((LPC_CANCR_TypeDef *) LPC_CANCR_BASE )\000"
 8863      43414E43 
 8863      52202828 
 8863      4C50435F 
 8863      43414E43 
 8864              	.LASF632:
 8865 39d0 5343425F 		.ascii	"SCB_ICSR_VECTPENDING_Msk (0x1FFUL << SCB_ICSR_VECTP"
 8865      49435352 
 8865      5F564543 
 8865      5450454E 
 8865      44494E47 
 8866 3a03 454E4449 		.ascii	"ENDING_Pos)\000"
 8866      4E475F50 
 8866      6F732900 
 8867              	.LASF678:
 8868 3a0f 5343425F 		.ascii	"SCB_SHCSR_MEMFAULTENA_Msk (1UL << SCB_SHCSR_MEMFAUL"
 8868      53484353 
 8868      525F4D45 
 8868      4D464155 
 8868      4C54454E 
 8869 3a42 54454E41 		.ascii	"TENA_Pos)\000"
 8869      5F506F73 
 8869      2900
 8870              	.LASF310:
 8871 3a4c 5F5F4C41 		.ascii	"__LACCUM_FBIT__ 31\000"
 8871      4343554D 
 8871      5F464249 
 8871      545F5F20 
ARM GAS  /tmp/ccKti1Oq.s 			page 199


 8871      333100
 8872              	.LASF1228:
 8873 3a5f 5F50574D 		.ascii	"_PWM1 1\000"
 8873      31203100 
 8874              	.LASF1160:
 8875 3a67 50494E53 		.ascii	"PINSEL_PORT_2 ((2))\000"
 8875      454C5F50 
 8875      4F52545F 
 8875      32202828 
 8875      32292900 
 8876              	.LASF200:
 8877 3a7b 5F5F464C 		.ascii	"__FLT32_HAS_QUIET_NAN__ 1\000"
 8877      5433325F 
 8877      4841535F 
 8877      51554945 
 8877      545F4E41 
 8878              	.LASF704:
 8879 3a95 5343425F 		.ascii	"SCB_CFSR_BUSFAULTSR_Msk (0xFFUL << SCB_CFSR_BUSFAUL"
 8879      43465352 
 8879      5F425553 
 8879      4641554C 
 8879      5453525F 
 8880 3ac8 5453525F 		.ascii	"TSR_Pos)\000"
 8880      506F7329 
 8880      00
 8881              	.LASF883:
 8882 3ad1 4D50555F 		.ascii	"MPU_BASE (SCS_BASE + 0x0D90UL)\000"
 8882      42415345 
 8882      20285343 
 8882      535F4241 
 8882      5345202B 
 8883              	.LASF185:
 8884 3af0 5F5F4C44 		.ascii	"__LDBL_HAS_INFINITY__ 1\000"
 8884      424C5F48 
 8884      41535F49 
 8884      4E46494E 
 8884      4954595F 
 8885              	.LASF1009:
 8886 3b08 54494D5F 		.ascii	"TIM_TCR_MASKBIT ((uint32_t)(3))\000"
 8886      5443525F 
 8886      4D41534B 
 8886      42495420 
 8886      28287569 
 8887              	.LASF1280:
 8888 3b28 54494D5F 		.ascii	"TIM_PRESCALE_USVAL\000"
 8888      50524553 
 8888      43414C45 
 8888      5F555356 
 8888      414C00
 8889              	.LASF233:
 8890 3b3b 5F5F4445 		.ascii	"__DEC32_MAX__ 9.999999E96DF\000"
 8890      4333325F 
 8890      4D41585F 
 8890      5F20392E 
 8890      39393939 
 8891              	.LASF434:
 8892 3b57 5F5F4C50 		.ascii	"__LPC17XX_TIMER_H_ \000"
ARM GAS  /tmp/ccKti1Oq.s 			page 200


 8892      43313758 
 8892      585F5449 
 8892      4D45525F 
 8892      485F2000 
 8893              	.LASF837:
 8894 3b6b 436F7265 		.ascii	"CoreDebug_DHCSR_C_HALT_Pos 1\000"
 8894      44656275 
 8894      675F4448 
 8894      4353525F 
 8894      435F4841 
 8895              	.LASF220:
 8896 3b88 5F5F464C 		.ascii	"__FLT32X_MAX_10_EXP__ 308\000"
 8896      54333258 
 8896      5F4D4158 
 8896      5F31305F 
 8896      4558505F 
 8897              	.LASF792:
 8898 3ba2 4D50555F 		.ascii	"MPU_RNR_REGION_Msk (0xFFUL << MPU_RNR_REGION_Pos)\000"
 8898      524E525F 
 8898      52454749 
 8898      4F4E5F4D 
 8898      736B2028 
 8899              	.LASF929:
 8900 3bd4 4C50435F 		.ascii	"LPC_GPDMACH0_BASE (LPC_AHB_BASE + 0x04100)\000"
 8900      4750444D 
 8900      41434830 
 8900      5F424153 
 8900      4520284C 
 8901              	.LASF428:
 8902 3bff 5F5F4152 		.ascii	"__ARM_ARCH_EXT_IDIV__ 1\000"
 8902      4D5F4152 
 8902      43485F45 
 8902      58545F49 
 8902      4449565F 
 8903              	.LASF426:
 8904 3c17 5F5F4152 		.ascii	"__ARM_PCS 1\000"
 8904      4D5F5043 
 8904      53203100 
 8905              	.LASF1173:
 8906 3c23 50494E53 		.ascii	"PINSEL_PIN_6 ((6))\000"
 8906      454C5F50 
 8906      494E5F36 
 8906      20282836 
 8906      292900
 8907              	.LASF1324:
 8908 3c36 54494D5F 		.ascii	"TIM_ConfigStructInit\000"
 8908      436F6E66 
 8908      69675374 
 8908      72756374 
 8908      496E6974 
 8909              	.LASF903:
 8910 3c4b 4C50435F 		.ascii	"LPC_SPI_BASE (LPC_APB0_BASE + 0x20000)\000"
 8910      5350495F 
 8910      42415345 
 8910      20284C50 
 8910      435F4150 
 8911              	.LASF1275:
ARM GAS  /tmp/ccKti1Oq.s 			page 201


 8912 3c72 54494D5F 		.ascii	"TIM_TIMER_MODE\000"
 8912      54494D45 
 8912      525F4D4F 
 8912      444500
 8913              	.LASF1224:
 8914 3c81 5F475044 		.ascii	"_GPDMA 1\000"
 8914      4D412031 
 8914      00
 8915              	.LASF1104:
 8916 3c8a 434C4B50 		.ascii	"CLKPWR_PCLKSEL_SSP1 ((uint32_t)(20))\000"
 8916      57525F50 
 8916      434C4B53 
 8916      454C5F53 
 8916      53503120 
 8917              	.LASF1143:
 8918 3caf 434C4B50 		.ascii	"CLKPWR_PCONP_PCSSP0 ((uint32_t)(1<<21))\000"
 8918      57525F50 
 8918      434F4E50 
 8918      5F504353 
 8918      53503020 
 8919              	.LASF93:
 8920 3cd7 5F5F5349 		.ascii	"__SIG_ATOMIC_MIN__ (-__SIG_ATOMIC_MAX__ - 1)\000"
 8920      475F4154 
 8920      4F4D4943 
 8920      5F4D494E 
 8920      5F5F2028 
 8921              	.LASF115:
 8922 3d04 5F5F5549 		.ascii	"__UINT_LEAST8_MAX__ 0xff\000"
 8922      4E545F4C 
 8922      45415354 
 8922      385F4D41 
 8922      585F5F20 
 8923              	.LASF1095:
 8924 3d1d 434C4B50 		.ascii	"CLKPWR_PCONP_BITMASK 0xEFEFF7DE\000"
 8924      57525F50 
 8924      434F4E50 
 8924      5F424954 
 8924      4D41534B 
 8925              	.LASF619:
 8926 3d3d 5343425F 		.ascii	"SCB_ICSR_PENDSVSET_Pos 28\000"
 8926      49435352 
 8926      5F50454E 
 8926      44535653 
 8926      45545F50 
 8927              	.LASF888:
 8928 3d57 4C50435F 		.ascii	"LPC_RAM_BASE (0x10000000UL)\000"
 8928      52414D5F 
 8928      42415345 
 8928      20283078 
 8928      31303030 
 8929              	.LASF649:
 8930 3d73 5343425F 		.ascii	"SCB_AIRCR_SYSRESETREQ_Pos 2\000"
 8930      41495243 
 8930      525F5359 
 8930      53524553 
 8930      45545245 
 8931              	.LASF607:
ARM GAS  /tmp/ccKti1Oq.s 			page 202


 8932 3d8f 5F5F4F20 		.ascii	"__O volatile\000"
 8932      766F6C61 
 8932      74696C65 
 8932      00
 8933              	.LASF1115:
 8934 3d9c 434C4B50 		.ascii	"CLKPWR_PCLKSEL_TIMER3 ((uint32_t)(46))\000"
 8934      57525F50 
 8934      434C4B53 
 8934      454C5F54 
 8934      494D4552 
 8935              	.LASF441:
 8936 3dc3 5F5F434D 		.ascii	"__CM3_CMSIS_VERSION_SUB (0x00)\000"
 8936      335F434D 
 8936      5349535F 
 8936      56455253 
 8936      494F4E5F 
 8937              	.LASF582:
 8938 3de2 5349475F 		.ascii	"SIG_ATOMIC_MIN (-__STDINT_EXP(INT_MAX) - 1)\000"
 8938      41544F4D 
 8938      49435F4D 
 8938      494E2028 
 8938      2D5F5F53 
 8939              	.LASF716:
 8940 3e0e 5343425F 		.ascii	"SCB_DFSR_VCATCH_Msk (1UL << SCB_DFSR_VCATCH_Pos)\000"
 8940      44465352 
 8940      5F564341 
 8940      5443485F 
 8940      4D736B20 
 8941              	.LASF915:
 8942 3e3f 4C50435F 		.ascii	"LPC_SSP0_BASE (LPC_APB1_BASE + 0x08000)\000"
 8942      53535030 
 8942      5F424153 
 8942      4520284C 
 8942      50435F41 
 8943              	.LASF518:
 8944 3e67 5F494E54 		.ascii	"_INT16_T_DECLARED \000"
 8944      31365F54 
 8944      5F444543 
 8944      4C415245 
 8944      442000
 8945              	.LASF1094:
 8946 3e7a 434C4B50 		.ascii	"CLKPWR_PCON_DPDFLAG ((uint32_t)(1<<11))\000"
 8946      57525F50 
 8946      434F4E5F 
 8946      44504446 
 8946      4C414720 
 8947              	.LASF990:
 8948 3ea2 4C50435F 		.ascii	"LPC_USB ((LPC_USB_TypeDef *) LPC_USB_BASE )\000"
 8948      55534220 
 8948      28284C50 
 8948      435F5553 
 8948      425F5479 
 8949              	.LASF108:
 8950 3ece 5F5F494E 		.ascii	"__INT_LEAST16_WIDTH__ 16\000"
 8950      545F4C45 
 8950      41535431 
 8950      365F5749 
ARM GAS  /tmp/ccKti1Oq.s 			page 203


 8950      4454485F 
 8951              	.LASF534:
 8952 3ee7 5F5F696E 		.ascii	"__int_least64_t_defined 1\000"
 8952      745F6C65 
 8952      61737436 
 8952      345F745F 
 8952      64656669 
 8953              	.LASF787:
 8954 3f01 4D50555F 		.ascii	"MPU_CTRL_HFNMIENA_Pos 1\000"
 8954      4354524C 
 8954      5F48464E 
 8954      4D49454E 
 8954      415F506F 
 8955              	.LASF771:
 8956 3f19 496E7454 		.ascii	"IntType_ICTR_INTLINESNUM_Pos 0\000"
 8956      7970655F 
 8956      49435452 
 8956      5F494E54 
 8956      4C494E45 
 8957              	.LASF1089:
 8958 3f38 434C4B50 		.ascii	"CLKPWR_PCON_BOGD ((uint32_t)(1<<3))\000"
 8958      57525F50 
 8958      434F4E5F 
 8958      424F4744 
 8958      20282875 
 8959              	.LASF682:
 8960 3f5c 5343425F 		.ascii	"SCB_SHCSR_BUSFAULTPENDED_Msk (1UL << SCB_SHCSR_BUSF"
 8960      53484353 
 8960      525F4255 
 8960      53464155 
 8960      4C545045 
 8961 3f8f 41554C54 		.ascii	"AULTPENDED_Pos)\000"
 8961      50454E44 
 8961      45445F50 
 8961      6F732900 
 8962              	.LASF1337:
 8963 3f9f 636C6B64 		.ascii	"clkdlycnt\000"
 8963      6C79636E 
 8963      7400
 8964              	.LASF242:
 8965 3fa9 5F5F4445 		.ascii	"__DEC64_SUBNORMAL_MIN__ 0.000000000000001E-383DD\000"
 8965      4336345F 
 8965      5355424E 
 8965      4F524D41 
 8965      4C5F4D49 
 8966              	.LASF259:
 8967 3fda 5F5F5553 		.ascii	"__USFRACT_EPSILON__ 0x1P-8UHR\000"
 8967      46524143 
 8967      545F4550 
 8967      53494C4F 
 8967      4E5F5F20 
 8968              	.LASF464:
 8969 3ff8 5F5F4154 		.ascii	"__ATFILE_VISIBLE 1\000"
 8969      46494C45 
 8969      5F564953 
 8969      49424C45 
 8969      203100
ARM GAS  /tmp/ccKti1Oq.s 			page 204


 8970              	.LASF998:
 8971 400b 5F424954 		.ascii	"_BITMASK\000"
 8971      4D41534B 
 8971      00
 8972              	.LASF985:
 8973 4014 4C50435F 		.ascii	"LPC_GPDMACH3 ((LPC_GPDMACH_TypeDef *) LPC_GPDMACH3_"
 8973      4750444D 
 8973      41434833 
 8973      2028284C 
 8973      50435F47 
 8974 4047 42415345 		.ascii	"BASE )\000"
 8974      202900
 8975              	.LASF255:
 8976 404e 5F5F5553 		.ascii	"__USFRACT_FBIT__ 8\000"
 8976      46524143 
 8976      545F4642 
 8976      49545F5F 
 8976      203800
 8977              	.LASF323:
 8978 4061 5F5F4C4C 		.ascii	"__LLACCUM_MAX__ 0X7FFFFFFFFFFFFFFFP-31LLK\000"
 8978      41434355 
 8978      4D5F4D41 
 8978      585F5F20 
 8978      30583746 
 8979              	.LASF812:
 8980 408b 4D50555F 		.ascii	"MPU_RASR_SRD_Msk (0xFFUL << MPU_RASR_SRD_Pos)\000"
 8980      52415352 
 8980      5F535244 
 8980      5F4D736B 
 8980      20283078 
 8981              	.LASF1182:
 8982 40b9 50494E53 		.ascii	"PINSEL_PIN_15 ((15))\000"
 8982      454C5F50 
 8982      494E5F31 
 8982      35202828 
 8982      31352929 
 8983              	.LASF1137:
 8984 40ce 434C4B50 		.ascii	"CLKPWR_PCONP_PCAN2 ((uint32_t)(1<<14))\000"
 8984      57525F50 
 8984      434F4E50 
 8984      5F504341 
 8984      4E322028 
 8985              	.LASF1110:
 8986 40f5 434C4B50 		.ascii	"CLKPWR_PCLKSEL_QEI ((uint32_t)(32))\000"
 8986      57525F50 
 8986      434C4B53 
 8986      454C5F51 
 8986      45492028 
 8987              	.LASF533:
 8988 4119 5F5F696E 		.ascii	"__int_least32_t_defined 1\000"
 8988      745F6C65 
 8988      61737433 
 8988      325F745F 
 8988      64656669 
 8989              	.LASF367:
 8990 4133 5F5F5553 		.ascii	"__USER_LABEL_PREFIX__ \000"
 8990      45525F4C 
ARM GAS  /tmp/ccKti1Oq.s 			page 205


 8990      4142454C 
 8990      5F505245 
 8990      4649585F 
 8991              	.LASF102:
 8992 414a 5F5F5549 		.ascii	"__UINT64_MAX__ 0xffffffffffffffffULL\000"
 8992      4E543634 
 8992      5F4D4158 
 8992      5F5F2030 
 8992      78666666 
 8993              	.LASF763:
 8994 416f 49544D5F 		.ascii	"ITM_IMCR_INTEGRATION_Pos 0\000"
 8994      494D4352 
 8994      5F494E54 
 8994      45475241 
 8994      54494F4E 
 8995              	.LASF808:
 8996 418a 4D50555F 		.ascii	"MPU_RASR_C_Msk (1UL << MPU_RASR_C_Pos)\000"
 8996      52415352 
 8996      5F435F4D 
 8996      736B2028 
 8996      31554C20 
 8997              	.LASF101:
 8998 41b1 5F5F5549 		.ascii	"__UINT32_MAX__ 0xffffffffUL\000"
 8998      4E543332 
 8998      5F4D4158 
 8998      5F5F2030 
 8998      78666666 
 8999              	.LASF596:
 9000 41cd 494E5436 		.ascii	"INT64_C(x) __INT64_C(x)\000"
 9000      345F4328 
 9000      7829205F 
 9000      5F494E54 
 9000      36345F43 
 9001              	.LASF462:
 9002 41e5 5F415446 		.ascii	"_ATFILE_SOURCE\000"
 9002      494C455F 
 9002      534F5552 
 9002      434500
 9003              	.LASF542:
 9004 41f4 494E5438 		.ascii	"INT8_MIN (-__INT8_MAX__ - 1)\000"
 9004      5F4D494E 
 9004      20282D5F 
 9004      5F494E54 
 9004      385F4D41 
 9005              	.LASF909:
 9006 4211 4C50435F 		.ascii	"LPC_CANAF_RAM_BASE (LPC_APB0_BASE + 0x38000)\000"
 9006      43414E41 
 9006      465F5241 
 9006      4D5F4241 
 9006      53452028 
 9007              	.LASF1017:
 9008 423e 54494D5F 		.ascii	"TIM_INT_ON_CAP(n) (_BIT(((n * 3) + 2)))\000"
 9008      494E545F 
 9008      4F4E5F43 
 9008      4150286E 
 9008      2920285F 
 9009              	.LASF976:
ARM GAS  /tmp/ccKti1Oq.s 			page 206


 9010 4266 4C50435F 		.ascii	"LPC_CAN2 ((LPC_CAN_TypeDef *) LPC_CAN2_BASE )\000"
 9010      43414E32 
 9010      2028284C 
 9010      50435F43 
 9010      414E5F54 
 9011              	.LASF103:
 9012 4294 5F5F494E 		.ascii	"__INT_LEAST8_MAX__ 0x7f\000"
 9012      545F4C45 
 9012      41535438 
 9012      5F4D4158 
 9012      5F5F2030 
 9013              	.LASF384:
 9014 42ac 5F5F4743 		.ascii	"__GCC_ATOMIC_POINTER_LOCK_FREE 2\000"
 9014      435F4154 
 9014      4F4D4943 
 9014      5F504F49 
 9014      4E544552 
 9015              	.LASF391:
 9016 42cd 5F5F4152 		.ascii	"__ARM_FEATURE_QBIT 1\000"
 9016      4D5F4645 
 9016      41545552 
 9016      455F5142 
 9016      49542031 
 9017              	.LASF398:
 9018 42e2 5F5F4152 		.ascii	"__ARM_FEATURE_CLZ 1\000"
 9018      4D5F4645 
 9018      41545552 
 9018      455F434C 
 9018      5A203100 
 9019              	.LASF1097:
 9020 42f6 434C4B50 		.ascii	"CLKPWR_PCLKSEL_TIMER0 ((uint32_t)(2))\000"
 9020      57525F50 
 9020      434C4B53 
 9020      454C5F54 
 9020      494D4552 
 9021              	.LASF8:
 9022 431c 5F5F4154 		.ascii	"__ATOMIC_ACQUIRE 2\000"
 9022      4F4D4943 
 9022      5F414351 
 9022      55495245 
 9022      203200
 9023              	.LASF1117:
 9024 432f 434C4B50 		.ascii	"CLKPWR_PCLKSEL_UART3 ((uint32_t)(50))\000"
 9024      57525F50 
 9024      434C4B53 
 9024      454C5F55 
 9024      41525433 
 9025              	.LASF963:
 9026 4355 4C50435F 		.ascii	"LPC_I2S ((LPC_I2S_TypeDef *) LPC_I2S_BASE )\000"
 9026      49325320 
 9026      28284C50 
 9026      435F4932 
 9026      535F5479 
 9027              	.LASF654:
 9028 4381 5343425F 		.ascii	"SCB_AIRCR_VECTRESET_Msk (1UL << SCB_AIRCR_VECTRESET"
 9028      41495243 
 9028      525F5645 
ARM GAS  /tmp/ccKti1Oq.s 			page 207


 9028      43545245 
 9028      5345545F 
 9029 43b4 5F506F73 		.ascii	"_Pos)\000"
 9029      2900
 9030              	.LASF898:
 9031 43ba 4C50435F 		.ascii	"LPC_TIM1_BASE (LPC_APB0_BASE + 0x08000)\000"
 9031      54494D31 
 9031      5F424153 
 9031      4520284C 
 9031      50435F41 
 9032              	.LASF749:
 9033 43e2 49544D5F 		.ascii	"ITM_TCR_SWOENA_Pos 4\000"
 9033      5443525F 
 9033      53574F45 
 9033      4E415F50 
 9033      6F732034 
 9034              	.LASF500:
 9035 43f7 5F494E54 		.ascii	"_INTPTR_EQ_INT \000"
 9035      5054525F 
 9035      45515F49 
 9035      4E542000 
 9036              	.LASF402:
 9037 4407 5F5F4152 		.ascii	"__ARM_SIZEOF_WCHAR_T 4\000"
 9037      4D5F5349 
 9037      5A454F46 
 9037      5F574348 
 9037      41525F54 
 9038              	.LASF219:
 9039 441e 5F5F464C 		.ascii	"__FLT32X_MAX_EXP__ 1024\000"
 9039      54333258 
 9039      5F4D4158 
 9039      5F455850 
 9039      5F5F2031 
 9040              	.LASF64:
 9041 4436 5F5F6861 		.ascii	"__has_include(STR) __has_include__(STR)\000"
 9041      735F696E 
 9041      636C7564 
 9041      65285354 
 9041      5229205F 
 9042              	.LASF366:
 9043 445e 5F5F5245 		.ascii	"__REGISTER_PREFIX__ \000"
 9043      47495354 
 9043      45525F50 
 9043      52454649 
 9043      585F5F20 
 9044              	.LASF1212:
 9045 4473 5F554152 		.ascii	"_UART2 1\000"
 9045      54322031 
 9045      00
 9046              	.LASF119:
 9047 447c 5F5F5549 		.ascii	"__UINT_LEAST32_MAX__ 0xffffffffUL\000"
 9047      4E545F4C 
 9047      45415354 
 9047      33325F4D 
 9047      41585F5F 
 9048              	.LASF167:
 9049 449e 5F5F4442 		.ascii	"__DBL_EPSILON__ ((double)2.2204460492503131e-16L)\000"
ARM GAS  /tmp/ccKti1Oq.s 			page 208


 9049      4C5F4550 
 9049      53494C4F 
 9049      4E5F5F20 
 9049      2828646F 
 9050              	.LASF1166:
 9051 44d0 50494E53 		.ascii	"PINSEL_FUNC_3 ((3))\000"
 9051      454C5F46 
 9051      554E435F 
 9051      33202828 
 9051      33292900 
 9052              	.LASF715:
 9053 44e4 5343425F 		.ascii	"SCB_DFSR_VCATCH_Pos 3\000"
 9053      44465352 
 9053      5F564341 
 9053      5443485F 
 9053      506F7320 
 9054              	.LASF114:
 9055 44fa 5F5F494E 		.ascii	"__INT_LEAST64_WIDTH__ 64\000"
 9055      545F4C45 
 9055      41535436 
 9055      345F5749 
 9055      4454485F 
 9056              	.LASF156:
 9057 4513 5F5F464C 		.ascii	"__FLT_HAS_INFINITY__ 1\000"
 9057      545F4841 
 9057      535F494E 
 9057      46494E49 
 9057      54595F5F 
 9058              	.LASF1249:
 9059 452a 5F5F7569 		.ascii	"__uint64_t\000"
 9059      6E743634 
 9059      5F7400
 9060              	.LASF630:
 9061 4535 5343425F 		.ascii	"SCB_ICSR_ISRPENDING_Msk (1UL << SCB_ICSR_ISRPENDING"
 9061      49435352 
 9061      5F495352 
 9061      50454E44 
 9061      494E475F 
 9062 4568 5F506F73 		.ascii	"_Pos)\000"
 9062      2900
 9063              	.LASF95:
 9064 456e 5F5F494E 		.ascii	"__INT8_MAX__ 0x7f\000"
 9064      54385F4D 
 9064      41585F5F 
 9064      20307837 
 9064      6600
 9065              	.LASF1147:
 9066 4580 434C4B50 		.ascii	"CLKPWR_PCONP_PCUART3 ((uint32_t)(1<<25))\000"
 9066      57525F50 
 9066      434F4E50 
 9066      5F504355 
 9066      41525433 
 9067              	.LASF385:
 9068 45a9 5F5F4743 		.ascii	"__GCC_HAVE_DWARF2_CFI_ASM 1\000"
 9068      435F4841 
 9068      56455F44 
 9068      57415246 
ARM GAS  /tmp/ccKti1Oq.s 			page 209


 9068      325F4346 
 9069              	.LASF476:
 9070 45c5 5F5F5F69 		.ascii	"___int8_t_defined 1\000"
 9070      6E74385F 
 9070      745F6465 
 9070      66696E65 
 9070      64203100 
 9071              	.LASF252:
 9072 45d9 5F5F5346 		.ascii	"__SFRACT_MIN__ (-0.5HR-0.5HR)\000"
 9072      52414354 
 9072      5F4D494E 
 9072      5F5F2028 
 9072      2D302E35 
 9073              	.LASF1247:
 9074 45f7 6C6F6E67 		.ascii	"long unsigned int\000"
 9074      20756E73 
 9074      69676E65 
 9074      6420696E 
 9074      7400
 9075              	.LASF353:
 9076 4609 5F5F5341 		.ascii	"__SA_IBIT__ 16\000"
 9076      5F494249 
 9076      545F5F20 
 9076      313600
 9077              	.LASF487:
 9078 4618 7369676E 		.ascii	"signed\000"
 9078      656400
 9079              	.LASF139:
 9080 461f 5F5F4743 		.ascii	"__GCC_IEC_559_COMPLEX 0\000"
 9080      435F4945 
 9080      435F3535 
 9080      395F434F 
 9080      4D504C45 
 9081              	.LASF927:
 9082 4637 4C50435F 		.ascii	"LPC_EMAC_BASE (LPC_AHB_BASE + 0x00000)\000"
 9082      454D4143 
 9082      5F424153 
 9082      4520284C 
 9082      50435F41 
 9083              	.LASF913:
 9084 465e 4C50435F 		.ascii	"LPC_CAN2_BASE (LPC_APB0_BASE + 0x48000)\000"
 9084      43414E32 
 9084      5F424153 
 9084      4520284C 
 9084      50435F41 
 9085              	.LASF2:
 9086 4686 5F5F474E 		.ascii	"__GNUC__ 7\000"
 9086      55435F5F 
 9086      203700
 9087              	.LASF415:
 9088 4691 5F5F4152 		.ascii	"__ARM_FP16_FORMAT_IEEE\000"
 9088      4D5F4650 
 9088      31365F46 
 9088      4F524D41 
 9088      545F4945 
 9089              	.LASF43:
 9090 46a8 5F5F5549 		.ascii	"__UINT16_TYPE__ short unsigned int\000"
ARM GAS  /tmp/ccKti1Oq.s 			page 210


 9090      4E543136 
 9090      5F545950 
 9090      455F5F20 
 9090      73686F72 
 9091              	.LASF458:
 9092 46cb 5F504F53 		.ascii	"_POSIX_SOURCE\000"
 9092      49585F53 
 9092      4F555243 
 9092      4500
 9093              	.LASF1060:
 9094 46d9 434C4B50 		.ascii	"CLKPWR_PLL0STAT_MSEL(n) ((uint32_t)(n&0x7FFF))\000"
 9094      57525F50 
 9094      4C4C3053 
 9094      5441545F 
 9094      4D53454C 
 9095              	.LASF127:
 9096 4708 5F5F494E 		.ascii	"__INT_FAST32_MAX__ 0x7fffffff\000"
 9096      545F4641 
 9096      53543332 
 9096      5F4D4158 
 9096      5F5F2030 
 9097              	.LASF412:
 9098 4726 5F5F534F 		.ascii	"__SOFTFP__ 1\000"
 9098      46544650 
 9098      5F5F2031 
 9098      00
 9099              	.LASF610:
 9100 4733 5343425F 		.ascii	"SCB_CPUID_IMPLEMENTER_Msk (0xFFUL << SCB_CPUID_IMPL"
 9100      43505549 
 9100      445F494D 
 9100      504C454D 
 9100      454E5445 
 9101 4766 454D454E 		.ascii	"EMENTER_Pos)\000"
 9101      5445525F 
 9101      506F7329 
 9101      00
 9102              	.LASF523:
 9103 4773 5F5F696E 		.ascii	"__int32_t_defined 1\000"
 9103      7433325F 
 9103      745F6465 
 9103      66696E65 
 9103      64203100 
 9104              	.LASF756:
 9105 4787 49544D5F 		.ascii	"ITM_TCR_TSENA_Msk (1UL << ITM_TCR_TSENA_Pos)\000"
 9105      5443525F 
 9105      5453454E 
 9105      415F4D73 
 9105      6B202831 
 9106              	.LASF231:
 9107 47b4 5F5F4445 		.ascii	"__DEC32_MAX_EXP__ 97\000"
 9107      4333325F 
 9107      4D41585F 
 9107      4558505F 
 9107      5F203937 
 9108              	.LASF739:
 9109 47c9 53797354 		.ascii	"SysTick_CALIB_TENMS_Pos 0\000"
 9109      69636B5F 
ARM GAS  /tmp/ccKti1Oq.s 			page 211


 9109      43414C49 
 9109      425F5445 
 9109      4E4D535F 
 9110              	.LASF628:
 9111 47e3 5343425F 		.ascii	"SCB_ICSR_ISRPREEMPT_Msk (1UL << SCB_ICSR_ISRPREEMPT"
 9111      49435352 
 9111      5F495352 
 9111      50524545 
 9111      4D50545F 
 9112 4816 5F506F73 		.ascii	"_Pos)\000"
 9112      2900
 9113              	.LASF141:
 9114 481c 5F5F464C 		.ascii	"__FLT_EVAL_METHOD_TS_18661_3__ 0\000"
 9114      545F4556 
 9114      414C5F4D 
 9114      4554484F 
 9114      445F5453 
 9115              	.LASF900:
 9116 483d 4C50435F 		.ascii	"LPC_UART1_BASE (LPC_APB0_BASE + 0x10000)\000"
 9116      55415254 
 9116      315F4241 
 9116      53452028 
 9116      4C50435F 
 9117              	.LASF78:
 9118 4866 5F5F5343 		.ascii	"__SCHAR_WIDTH__ 8\000"
 9118      4841525F 
 9118      57494454 
 9118      485F5F20 
 9118      3800
 9119              	.LASF1257:
 9120 4878 53797374 		.ascii	"SystemCoreClock\000"
 9120      656D436F 
 9120      7265436C 
 9120      6F636B00 
 9121              	.LASF590:
 9122 4888 494E5438 		.ascii	"INT8_C(x) __INT8_C(x)\000"
 9122      5F432878 
 9122      29205F5F 
 9122      494E5438 
 9122      5F432878 
 9123              	.LASF790:
 9124 489e 4D50555F 		.ascii	"MPU_CTRL_ENABLE_Msk (1UL << MPU_CTRL_ENABLE_Pos)\000"
 9124      4354524C 
 9124      5F454E41 
 9124      424C455F 
 9124      4D736B20 
 9125              	.LASF1067:
 9126 48cf 434C4B50 		.ascii	"CLKPWR_PLL1CON_CONNECT ((uint32_t)(0x02))\000"
 9126      57525F50 
 9126      4C4C3143 
 9126      4F4E5F43 
 9126      4F4E4E45 
 9127              	.LASF58:
 9128 48f9 5F5F5549 		.ascii	"__UINT_FAST8_TYPE__ unsigned int\000"
 9128      4E545F46 
 9128      41535438 
 9128      5F545950 
ARM GAS  /tmp/ccKti1Oq.s 			page 212


 9128      455F5F20 
 9129              	.LASF321:
 9130 491a 5F5F4C4C 		.ascii	"__LLACCUM_IBIT__ 32\000"
 9130      41434355 
 9130      4D5F4942 
 9130      49545F5F 
 9130      20333200 
 9131              	.LASF694:
 9132 492e 5343425F 		.ascii	"SCB_SHCSR_SVCALLACT_Msk (1UL << SCB_SHCSR_SVCALLACT"
 9132      53484353 
 9132      525F5356 
 9132      43414C4C 
 9132      4143545F 
 9133 4961 5F506F73 		.ascii	"_Pos)\000"
 9133      2900
 9134              	.LASF264:
 9135 4967 5F5F4652 		.ascii	"__FRACT_EPSILON__ 0x1P-15R\000"
 9135      4143545F 
 9135      45505349 
 9135      4C4F4E5F 
 9135      5F203078 
 9136              	.LASF1003:
 9137 4982 45585445 		.ascii	"EXTERN extern\000"
 9137      524E2065 
 9137      78746572 
 9137      6E00
 9138              	.LASF1190:
 9139 4990 50494E53 		.ascii	"PINSEL_PIN_23 ((23))\000"
 9139      454C5F50 
 9139      494E5F32 
 9139      33202828 
 9139      32332929 
 9140              	.LASF443:
 9141 49a5 5F5F434F 		.ascii	"__CORTEX_M (0x03)\000"
 9141      52544558 
 9141      5F4D2028 
 9141      30783033 
 9141      2900
 9142              	.LASF1332:
 9143 49b7 54494D5F 		.ascii	"TIM_ConverPtrToTimeNum\000"
 9143      436F6E76 
 9143      65725074 
 9143      72546F54 
 9143      696D654E 
 9144              	.LASF97:
 9145 49ce 5F5F494E 		.ascii	"__INT32_MAX__ 0x7fffffffL\000"
 9145      5433325F 
 9145      4D41585F 
 9145      5F203078 
 9145      37666666 
 9146              	.LASF431:
 9147 49e8 5F5F4758 		.ascii	"__GXX_TYPEINFO_EQUALITY_INLINE 0\000"
 9147      585F5459 
 9147      5045494E 
 9147      464F5F45 
 9147      5155414C 
 9148              	.LASF661:
ARM GAS  /tmp/ccKti1Oq.s 			page 213


 9149 4a09 5343425F 		.ascii	"SCB_CCR_STKALIGN_Pos 9\000"
 9149      4343525F 
 9149      53544B41 
 9149      4C49474E 
 9149      5F506F73 
 9150              	.LASF436:
 9151 4a20 5F5F4D50 		.ascii	"__MPU_PRESENT 1\000"
 9151      555F5052 
 9151      4553454E 
 9151      54203100 
 9152              	.LASF1088:
 9153 4a30 434C4B50 		.ascii	"CLKPWR_PCON_BODPDM ((uint32_t)(1<<2))\000"
 9153      57525F50 
 9153      434F4E5F 
 9153      424F4450 
 9153      444D2028 
 9154              	.LASF37:
 9155 4a56 5F5F5349 		.ascii	"__SIG_ATOMIC_TYPE__ int\000"
 9155      475F4154 
 9155      4F4D4943 
 9155      5F545950 
 9155      455F5F20 
 9156              	.LASF1225:
 9157 4a6e 5F444143 		.ascii	"_DAC 1\000"
 9157      203100
 9158              	.LASF514:
 9159 4a75 5F535953 		.ascii	"_SYS__STDINT_H \000"
 9159      5F5F5354 
 9159      44494E54 
 9159      5F482000 
 9160              	.LASF457:
 9161 4a85 5F444546 		.ascii	"_DEFAULT_SOURCE 1\000"
 9161      41554C54 
 9161      5F534F55 
 9161      52434520 
 9161      3100
 9162              	.LASF796:
 9163 4a97 4D50555F 		.ascii	"MPU_RBAR_VALID_Msk (1UL << MPU_RBAR_VALID_Pos)\000"
 9163      52424152 
 9163      5F56414C 
 9163      49445F4D 
 9163      736B2028 
 9164              	.LASF1091:
 9165 4ac6 434C4B50 		.ascii	"CLKPWR_PCON_SMFLAG ((uint32_t)(1<<8))\000"
 9165      57525F50 
 9165      434F4E5F 
 9165      534D464C 
 9165      41472028 
 9166              	.LASF137:
 9167 4aec 5F5F5549 		.ascii	"__UINTPTR_MAX__ 0xffffffffU\000"
 9167      4E545054 
 9167      525F4D41 
 9167      585F5F20 
 9167      30786666 
 9168              	.LASF1073:
 9169 4b08 434C4B50 		.ascii	"CLKPWR_PLL1STAT_PSEL(n) ((uint32_t)((n>>5)&0x03))\000"
 9169      57525F50 
ARM GAS  /tmp/ccKti1Oq.s 			page 214


 9169      4C4C3153 
 9169      5441545F 
 9169      5053454C 
 9170              	.LASF197:
 9171 4b3a 5F5F464C 		.ascii	"__FLT32_DENORM_MIN__ 1.4012984643248171e-45F32\000"
 9171      5433325F 
 9171      44454E4F 
 9171      524D5F4D 
 9171      494E5F5F 
 9172              	.LASF826:
 9173 4b69 436F7265 		.ascii	"CoreDebug_DHCSR_S_SLEEP_Msk (1UL << CoreDebug_DHCSR"
 9173      44656275 
 9173      675F4448 
 9173      4353525F 
 9173      535F534C 
 9174 4b9c 5F535F53 		.ascii	"_S_SLEEP_Pos)\000"
 9174      4C454550 
 9174      5F506F73 
 9174      2900
 9175              	.LASF684:
 9176 4baa 5343425F 		.ascii	"SCB_SHCSR_MEMFAULTPENDED_Msk (1UL << SCB_SHCSR_MEMF"
 9176      53484353 
 9176      525F4D45 
 9176      4D464155 
 9176      4C545045 
 9177 4bdd 41554C54 		.ascii	"AULTPENDED_Pos)\000"
 9177      50454E44 
 9177      45445F50 
 9177      6F732900 
 9178              	.LASF53:
 9179 4bed 5F5F5549 		.ascii	"__UINT_LEAST64_TYPE__ long long unsigned int\000"
 9179      4E545F4C 
 9179      45415354 
 9179      36345F54 
 9179      5950455F 
 9180              	.LASF925:
 9181 4c1a 4C50435F 		.ascii	"LPC_QEI_BASE (LPC_APB1_BASE + 0x3C000)\000"
 9181      5145495F 
 9181      42415345 
 9181      20284C50 
 9181      435F4150 
 9182              	.LASF691:
 9183 4c41 5343425F 		.ascii	"SCB_SHCSR_MONITORACT_Pos 8\000"
 9183      53484353 
 9183      525F4D4F 
 9183      4E49544F 
 9183      52414354 
 9184              	.LASF182:
 9185 4c5c 5F5F4C44 		.ascii	"__LDBL_EPSILON__ 2.2204460492503131e-16L\000"
 9185      424C5F45 
 9185      5053494C 
 9185      4F4E5F5F 
 9185      20322E32 
 9186              	.LASF773:
 9187 4c85 496E7454 		.ascii	"IntType_ACTLR_DISFOLD_Pos 2\000"
 9187      7970655F 
 9187      4143544C 
ARM GAS  /tmp/ccKti1Oq.s 			page 215


 9187      525F4449 
 9187      53464F4C 
 9188              	.LASF1164:
 9189 4ca1 50494E53 		.ascii	"PINSEL_FUNC_1 ((1))\000"
 9189      454C5F46 
 9189      554E435F 
 9189      31202828 
 9189      31292900 
 9190              	.LASF641:
 9191 4cb5 5343425F 		.ascii	"SCB_AIRCR_VECTKEY_Pos 16\000"
 9191      41495243 
 9191      525F5645 
 9191      43544B45 
 9191      595F506F 
 9192              	.LASF1338:
 9193 4cce 54494D5F 		.ascii	"TIM_GetPClock\000"
 9193      47657450 
 9193      436C6F63 
 9193      6B00
 9194              	.LASF905:
 9195 4cdc 4C50435F 		.ascii	"LPC_GPIOINT_BASE (LPC_APB0_BASE + 0x28080)\000"
 9195      4750494F 
 9195      494E545F 
 9195      42415345 
 9195      20284C50 
 9196              	.LASF162:
 9197 4d07 5F5F4442 		.ascii	"__DBL_MAX_EXP__ 1024\000"
 9197      4C5F4D41 
 9197      585F4558 
 9197      505F5F20 
 9197      31303234 
 9198              	.LASF509:
 9199 4d1c 5F5F4641 		.ascii	"__FAST64 \"ll\"\000"
 9199      53543634 
 9199      20226C6C 
 9199      2200
 9200              	.LASF9:
 9201 4d2a 5F5F4154 		.ascii	"__ATOMIC_RELEASE 3\000"
 9201      4F4D4943 
 9201      5F52454C 
 9201      45415345 
 9201      203300
 9202              	.LASF1306:
 9203 4d3d 54494D5F 		.ascii	"TIM_ConfigStruct\000"
 9203      436F6E66 
 9203      69675374 
 9203      72756374 
 9203      00
 9204              	.LASF882:
 9205 4d4e 436F7265 		.ascii	"CoreDebug ((CoreDebug_Type *) CoreDebug_BASE)\000"
 9205      44656275 
 9205      67202828 
 9205      436F7265 
 9205      44656275 
 9206              	.LASF226:
 9207 4d7c 5F5F464C 		.ascii	"__FLT32X_HAS_DENORM__ 1\000"
 9207      54333258 
ARM GAS  /tmp/ccKti1Oq.s 			page 216


 9207      5F484153 
 9207      5F44454E 
 9207      4F524D5F 
 9208              	.LASF144:
 9209 4d94 5F5F464C 		.ascii	"__FLT_MANT_DIG__ 24\000"
 9209      545F4D41 
 9209      4E545F44 
 9209      49475F5F 
 9209      20323400 
 9210              	.LASF881:
 9211 4da8 49544D20 		.ascii	"ITM ((ITM_Type *) ITM_BASE)\000"
 9211      28284954 
 9211      4D5F5479 
 9211      7065202A 
 9211      29204954 
 9212              	.LASF1029:
 9213 4dc4 54494D5F 		.ascii	"TIM_CTCR_MODE_MASK 0x3\000"
 9213      43544352 
 9213      5F4D4F44 
 9213      455F4D41 
 9213      534B2030 
 9214              	.LASF56:
 9215 4ddb 5F5F494E 		.ascii	"__INT_FAST32_TYPE__ int\000"
 9215      545F4641 
 9215      53543332 
 9215      5F545950 
 9215      455F5F20 
 9216              	.LASF498:
 9217 4df3 696E7420 		.ascii	"int +2\000"
 9217      2B3200
 9218              	.LASF580:
 9219 4dfa 55494E54 		.ascii	"UINTMAX_MAX (__UINTMAX_MAX__)\000"
 9219      4D41585F 
 9219      4D415820 
 9219      285F5F55 
 9219      494E544D 
 9220              	.LASF885:
 9221 4e18 49544D5F 		.ascii	"ITM_RXBUFFER_EMPTY 0x5AA55AA5\000"
 9221      52584255 
 9221      46464552 
 9221      5F454D50 
 9221      54592030 
 9222              	.LASF1081:
 9223 4e36 434C4B50 		.ascii	"CLKPWR_PCLKSEL0_BITMASK ((uint32_t)(0xFFF3F3FF))\000"
 9223      57525F50 
 9223      434C4B53 
 9223      454C305F 
 9223      4249544D 
 9224              	.LASF308:
 9225 4e67 5F5F5541 		.ascii	"__UACCUM_MAX__ 0XFFFFFFFFP-16UK\000"
 9225      4343554D 
 9225      5F4D4158 
 9225      5F5F2030 
 9225      58464646 
 9226              	.LASF521:
 9227 4e87 5F494E54 		.ascii	"_INT32_T_DECLARED \000"
 9227      33325F54 
ARM GAS  /tmp/ccKti1Oq.s 			page 217


 9227      5F444543 
 9227      4C415245 
 9227      442000
 9228              	.LASF1018:
 9229 4e9a 54494D5F 		.ascii	"TIM_EDGE_MASK(n) (_SBF((n * 3), 0x03))\000"
 9229      45444745 
 9229      5F4D4153 
 9229      4B286E29 
 9229      20285F53 
 9230              	.LASF1096:
 9231 4ec1 434C4B50 		.ascii	"CLKPWR_PCLKSEL_WDT ((uint32_t)(0))\000"
 9231      57525F50 
 9231      434C4B53 
 9231      454C5F57 
 9231      44542028 
 9232              	.LASF605:
 9233 4ee4 5F5F434F 		.ascii	"__CORE_CM3_H_DEPENDANT \000"
 9233      52455F43 
 9233      4D335F48 
 9233      5F444550 
 9233      454E4441 
 9234              	.LASF508:
 9235 4efc 5F5F4641 		.ascii	"__FAST32 \000"
 9235      53543332 
 9235      2000
 9236              	.LASF497:
 9237 4f06 5F5F696E 		.ascii	"__int20 +2\000"
 9237      74323020 
 9237      2B3200
 9238              	.LASF879:
 9239 4f11 53797354 		.ascii	"SysTick ((SysTick_Type *) SysTick_BASE)\000"
 9239      69636B20 
 9239      28285379 
 9239      73546963 
 9239      6B5F5479 
 9240              	.LASF183:
 9241 4f39 5F5F4C44 		.ascii	"__LDBL_DENORM_MIN__ 4.9406564584124654e-324L\000"
 9241      424C5F44 
 9241      454E4F52 
 9241      4D5F4D49 
 9241      4E5F5F20 
 9242              	.LASF98:
 9243 4f66 5F5F494E 		.ascii	"__INT64_MAX__ 0x7fffffffffffffffLL\000"
 9243      5436345F 
 9243      4D41585F 
 9243      5F203078 
 9243      37666666 
 9244              	.LASF392:
 9245 4f89 5F5F4152 		.ascii	"__ARM_FEATURE_SAT 1\000"
 9245      4D5F4645 
 9245      41545552 
 9245      455F5341 
 9245      54203100 
 9246              	.LASF786:
 9247 4f9d 4D50555F 		.ascii	"MPU_CTRL_PRIVDEFENA_Msk (1UL << MPU_CTRL_PRIVDEFENA"
 9247      4354524C 
 9247      5F505249 
ARM GAS  /tmp/ccKti1Oq.s 			page 218


 9247      56444546 
 9247      454E415F 
 9248 4fd0 5F506F73 		.ascii	"_Pos)\000"
 9248      2900
 9249              	.LASF520:
 9250 4fd6 5F5F696E 		.ascii	"__int16_t_defined 1\000"
 9250      7431365F 
 9250      745F6465 
 9250      66696E65 
 9250      64203100 
 9251              	.LASF286:
 9252 4fea 5F5F554C 		.ascii	"__ULLFRACT_IBIT__ 0\000"
 9252      4C465241 
 9252      43545F49 
 9252      4249545F 
 9252      5F203000 
 9253              	.LASF860:
 9254 4ffe 436F7265 		.ascii	"CoreDebug_DEMCR_VC_BUSERR_Msk (1UL << CoreDebug_DEM"
 9254      44656275 
 9254      675F4445 
 9254      4D43525F 
 9254      56435F42 
 9255 5031 43525F56 		.ascii	"CR_VC_BUSERR_Pos)\000"
 9255      435F4255 
 9255      53455252 
 9255      5F506F73 
 9255      2900
 9256              	.LASF1316:
 9257 5043 54494D5F 		.ascii	"TIM_ResetCounter\000"
 9257      52657365 
 9257      74436F75 
 9257      6E746572 
 9257      00
 9258              	.LASF1138:
 9259 5054 434C4B50 		.ascii	"CLKPWR_PCONP_PCGPIO ((uint32_t)(1<<15))\000"
 9259      57525F50 
 9259      434F4E50 
 9259      5F504347 
 9259      50494F20 
 9260              	.LASF1046:
 9261 507c 434C4B50 		.ascii	"CLKPWR_CLKOUTCFG_CLKOUTSEL_MAINOSC ((uint32_t)(0x01"
 9261      57525F43 
 9261      4C4B4F55 
 9261      54434647 
 9261      5F434C4B 
 9262 50af 292900   		.ascii	"))\000"
 9263              	.LASF1271:
 9264 50b2 54494D5F 		.ascii	"TIM_MR2_INT\000"
 9264      4D52325F 
 9264      494E5400 
 9265              	.LASF708:
 9266 50be 5343425F 		.ascii	"SCB_HFSR_DEBUGEVT_Msk (1UL << SCB_HFSR_DEBUGEVT_Pos"
 9266      48465352 
 9266      5F444542 
 9266      55474556 
 9266      545F4D73 
 9267 50f1 2900     		.ascii	")\000"
ARM GAS  /tmp/ccKti1Oq.s 			page 219


 9268              	.LASF850:
 9269 50f3 436F7265 		.ascii	"CoreDebug_DEMCR_MON_STEP_Msk (1UL << CoreDebug_DEMC"
 9269      44656275 
 9269      675F4445 
 9269      4D43525F 
 9269      4D4F4E5F 
 9270 5126 525F4D4F 		.ascii	"R_MON_STEP_Pos)\000"
 9270      4E5F5354 
 9270      45505F50 
 9270      6F732900 
 9271              	.LASF934:
 9272 5136 4C50435F 		.ascii	"LPC_GPDMACH5_BASE (LPC_AHB_BASE + 0x041A0)\000"
 9272      4750444D 
 9272      41434835 
 9272      5F424153 
 9272      4520284C 
 9273              	.LASF615:
 9274 5161 5343425F 		.ascii	"SCB_CPUID_REVISION_Pos 0\000"
 9274      43505549 
 9274      445F5245 
 9274      56495349 
 9274      4F4E5F50 
 9275              	.LASF1111:
 9276 517a 434C4B50 		.ascii	"CLKPWR_PCLKSEL_PCB ((uint32_t)(36))\000"
 9276      57525F50 
 9276      434C4B53 
 9276      454C5F50 
 9276      43422028 
 9277              	.LASF1284:
 9278 519e 54494D5F 		.ascii	"TIM_EXTMATCH_LOW\000"
 9278      4558544D 
 9278      41544348 
 9278      5F4C4F57 
 9278      00
 9279              	.LASF1074:
 9280 51af 434C4B50 		.ascii	"CLKPWR_PLL1STAT_PLLE ((uint32_t)(1<<8))\000"
 9280      57525F50 
 9280      4C4C3153 
 9280      5441545F 
 9280      504C4C45 
 9281              	.LASF937:
 9282 51d7 4C50435F 		.ascii	"LPC_USB_BASE (LPC_AHB_BASE + 0x0C000)\000"
 9282      5553425F 
 9282      42415345 
 9282      20284C50 
 9282      435F4148 
 9283              	.LASF1093:
 9284 51fd 434C4B50 		.ascii	"CLKPWR_PCON_PDFLAG ((uint32_t)(1<<10))\000"
 9284      57525F50 
 9284      434F4E5F 
 9284      5044464C 
 9284      41472028 
 9285              	.LASF1102:
 9286 5224 434C4B50 		.ascii	"CLKPWR_PCLKSEL_I2C0 ((uint32_t)(14))\000"
 9286      57525F50 
 9286      434C4B53 
 9286      454C5F49 
ARM GAS  /tmp/ccKti1Oq.s 			page 220


 9286      32433020 
 9287              	.LASF81:
 9288 5249 5F5F4C4F 		.ascii	"__LONG_WIDTH__ 32\000"
 9288      4E475F57 
 9288      49445448 
 9288      5F5F2033 
 9288      3200
 9289              	.LASF847:
 9290 525b 436F7265 		.ascii	"CoreDebug_DEMCR_MON_REQ_Pos 19\000"
 9290      44656275 
 9290      675F4445 
 9290      4D43525F 
 9290      4D4F4E5F 
 9291              	.LASF151:
 9292 527a 5F5F464C 		.ascii	"__FLT_MAX__ 3.4028234663852886e+38F\000"
 9292      545F4D41 
 9292      585F5F20 
 9292      332E3430 
 9292      32383233 
 9293              	.LASF305:
 9294 529e 5F5F5541 		.ascii	"__UACCUM_FBIT__ 16\000"
 9294      4343554D 
 9294      5F464249 
 9294      545F5F20 
 9294      313600
 9295              	.LASF1210:
 9296 52b1 5F554152 		.ascii	"_UART0 1\000"
 9296      54302031 
 9296      00
 9297              	.LASF269:
 9298 52ba 5F5F5546 		.ascii	"__UFRACT_EPSILON__ 0x1P-16UR\000"
 9298      52414354 
 9298      5F455053 
 9298      494C4F4E 
 9298      5F5F2030 
 9299              	.LASF73:
 9300 52d7 5F5F5743 		.ascii	"__WCHAR_MIN__ 0U\000"
 9300      4841525F 
 9300      4D494E5F 
 9300      5F203055 
 9300      00
 9301              	.LASF341:
 9302 52e8 5F5F5551 		.ascii	"__UQQ_IBIT__ 0\000"
 9302      515F4942 
 9302      49545F5F 
 9302      203000
 9303              	.LASF449:
 9304 52f7 5F4E4557 		.ascii	"_NEWLIB_VERSION_H__ 1\000"
 9304      4C49425F 
 9304      56455253 
 9304      494F4E5F 
 9304      485F5F20 
 9305              	.LASF381:
 9306 530d 5F5F4743 		.ascii	"__GCC_ATOMIC_LONG_LOCK_FREE 2\000"
 9306      435F4154 
 9306      4F4D4943 
 9306      5F4C4F4E 
ARM GAS  /tmp/ccKti1Oq.s 			page 221


 9306      475F4C4F 
 9307              	.LASF317:
 9308 532b 5F5F554C 		.ascii	"__ULACCUM_MIN__ 0.0ULK\000"
 9308      41434355 
 9308      4D5F4D49 
 9308      4E5F5F20 
 9308      302E3055 
 9309              	.LASF643:
 9310 5342 5343425F 		.ascii	"SCB_AIRCR_VECTKEYSTAT_Pos 16\000"
 9310      41495243 
 9310      525F5645 
 9310      43544B45 
 9310      59535441 
 9311              	.LASF1246:
 9312 535f 5F5F7569 		.ascii	"__uint32_t\000"
 9312      6E743332 
 9312      5F7400
 9313              	.LASF180:
 9314 536a 5F5F4C44 		.ascii	"__LDBL_MAX__ 1.7976931348623157e+308L\000"
 9314      424C5F4D 
 9314      41585F5F 
 9314      20312E37 
 9314      39373639 
 9315              	.LASF405:
 9316 5390 5F5F4152 		.ascii	"__ARM_ARCH 7\000"
 9316      4D5F4152 
 9316      43482037 
 9316      00
 9317              	.LASF954:
 9318 539d 4C50435F 		.ascii	"LPC_RIT ((LPC_RIT_TypeDef *) LPC_RIT_BASE )\000"
 9318      52495420 
 9318      28284C50 
 9318      435F5249 
 9318      545F5479 
 9319              	.LASF143:
 9320 53c9 5F5F464C 		.ascii	"__FLT_RADIX__ 2\000"
 9320      545F5241 
 9320      4449585F 
 9320      5F203200 
 9321              	.LASF1168:
 9322 53d9 50494E53 		.ascii	"PINSEL_PIN_1 ((1))\000"
 9322      454C5F50 
 9322      494E5F31 
 9322      20282831 
 9322      292900
 9323              	.LASF1248:
 9324 53ec 6C6F6E67 		.ascii	"long long int\000"
 9324      206C6F6E 
 9324      6720696E 
 9324      7400
 9325              	.LASF1124:
 9326 53fa 434C4B50 		.ascii	"CLKPWR_PCLKSEL_CCLK_DIV_1 ((uint32_t)(1))\000"
 9326      57525F50 
 9326      434C4B53 
 9326      454C5F43 
 9326      434C4B5F 
 9327              	.LASF1232:
ARM GAS  /tmp/ccKti1Oq.s 			page 222


 9328 5424 5F555342 		.ascii	"_USB_DMA 1\000"
 9328      5F444D41 
 9328      203100
 9329              	.LASF556:
 9330 542f 55494E54 		.ascii	"UINT32_MAX (__UINT32_MAX__)\000"
 9330      33325F4D 
 9330      41582028 
 9330      5F5F5549 
 9330      4E543332 
 9331              	.LASF914:
 9332 544b 4C50435F 		.ascii	"LPC_I2C1_BASE (LPC_APB0_BASE + 0x5C000)\000"
 9332      49324331 
 9332      5F424153 
 9332      4520284C 
 9332      50435F41 
 9333              	.LASF1141:
 9334 5473 434C4B50 		.ascii	"CLKPWR_PCONP_PCQEI ((uint32_t)(1<<18))\000"
 9334      57525F50 
 9334      434F4E50 
 9334      5F504351 
 9334      45492028 
 9335              	.LASF186:
 9336 549a 5F5F4C44 		.ascii	"__LDBL_HAS_QUIET_NAN__ 1\000"
 9336      424C5F48 
 9336      41535F51 
 9336      55494554 
 9336      5F4E414E 
 9337              	.LASF1055:
 9338 54b3 434C4B50 		.ascii	"CLKPWR_PLL0CON_CONNECT ((uint32_t)(0x02))\000"
 9338      57525F50 
 9338      4C4C3043 
 9338      4F4E5F43 
 9338      4F4E4E45 
 9339              	.LASF82:
 9340 54dd 5F5F4C4F 		.ascii	"__LONG_LONG_WIDTH__ 64\000"
 9340      4E475F4C 
 9340      4F4E475F 
 9340      57494454 
 9340      485F5F20 
 9341              	.LASF696:
 9342 54f4 5343425F 		.ascii	"SCB_SHCSR_USGFAULTACT_Msk (1UL << SCB_SHCSR_USGFAUL"
 9342      53484353 
 9342      525F5553 
 9342      47464155 
 9342      4C544143 
 9343 5527 54414354 		.ascii	"TACT_Pos)\000"
 9343      5F506F73 
 9343      2900
 9344              	.LASF588:
 9345 5531 57494E54 		.ascii	"WINT_MAX (__WINT_MAX__)\000"
 9345      5F4D4158 
 9345      20285F5F 
 9345      57494E54 
 9345      5F4D4158 
 9346              	.LASF1187:
 9347 5549 50494E53 		.ascii	"PINSEL_PIN_20 ((20))\000"
 9347      454C5F50 
ARM GAS  /tmp/ccKti1Oq.s 			page 223


 9347      494E5F32 
 9347      30202828 
 9347      32302929 
 9348              	.LASF577:
 9349 555e 55494E54 		.ascii	"UINT_FAST64_MAX (__UINT_FAST64_MAX__)\000"
 9349      5F464153 
 9349      5436345F 
 9349      4D415820 
 9349      285F5F55 
 9350              	.LASF414:
 9351 5584 5F5F4152 		.ascii	"__ARM_FP\000"
 9351      4D5F4650 
 9351      00
 9352              	.LASF938:
 9353 558d 4C50435F 		.ascii	"LPC_GPIO0_BASE (LPC_GPIO_BASE + 0x00000)\000"
 9353      4750494F 
 9353      305F4241 
 9353      53452028 
 9353      4C50435F 
 9354              	.LASF351:
 9355 55b6 5F5F4841 		.ascii	"__HA_IBIT__ 8\000"
 9355      5F494249 
 9355      545F5F20 
 9355      3800
 9356              	.LASF390:
 9357 55c4 5F5F4152 		.ascii	"__ARM_FEATURE_DSP\000"
 9357      4D5F4645 
 9357      41545552 
 9357      455F4453 
 9357      5000
 9358              	.LASF136:
 9359 55d6 5F5F494E 		.ascii	"__INTPTR_WIDTH__ 32\000"
 9359      54505452 
 9359      5F574944 
 9359      54485F5F 
 9359      20333200 
 9360              	.LASF382:
 9361 55ea 5F5F4743 		.ascii	"__GCC_ATOMIC_LLONG_LOCK_FREE 1\000"
 9361      435F4154 
 9361      4F4D4943 
 9361      5F4C4C4F 
 9361      4E475F4C 
 9362              	.LASF862:
 9363 5609 436F7265 		.ascii	"CoreDebug_DEMCR_VC_STATERR_Msk (1UL << CoreDebug_DE"
 9363      44656275 
 9363      675F4445 
 9363      4D43525F 
 9363      56435F53 
 9364 563c 4D43525F 		.ascii	"MCR_VC_STATERR_Pos)\000"
 9364      56435F53 
 9364      54415445 
 9364      52525F50 
 9364      6F732900 
 9365              	.LASF939:
 9366 5650 4C50435F 		.ascii	"LPC_GPIO1_BASE (LPC_GPIO_BASE + 0x00020)\000"
 9366      4750494F 
 9366      315F4241 
ARM GAS  /tmp/ccKti1Oq.s 			page 224


 9366      53452028 
 9366      4C50435F 
 9367              	.LASF223:
 9368 5679 5F5F464C 		.ascii	"__FLT32X_MIN__ 2.2250738585072014e-308F32x\000"
 9368      54333258 
 9368      5F4D494E 
 9368      5F5F2032 
 9368      2E323235 
 9369              	.LASF205:
 9370 56a4 5F5F464C 		.ascii	"__FLT64_MAX_EXP__ 1024\000"
 9370      5436345F 
 9370      4D41585F 
 9370      4558505F 
 9370      5F203130 
 9371              	.LASF765:
 9372 56bb 49544D5F 		.ascii	"ITM_LSR_ByteAcc_Pos 2\000"
 9372      4C53525F 
 9372      42797465 
 9372      4163635F 
 9372      506F7320 
 9373              	.LASF1297:
 9374 56d1 52657365 		.ascii	"ResetOnMatch\000"
 9374      744F6E4D 
 9374      61746368 
 9374      00
 9375              	.LASF209:
 9376 56de 5F5F464C 		.ascii	"__FLT64_MIN__ 2.2250738585072014e-308F64\000"
 9376      5436345F 
 9376      4D494E5F 
 9376      5F20322E 
 9376      32323530 
 9377              	.LASF1299:
 9378 5707 4D617463 		.ascii	"MatchValue\000"
 9378      6856616C 
 9378      756500
 9379              	.LASF1152:
 9380 5712 434C4B50 		.ascii	"CLKPWR_PCONP_PCUSB ((uint32_t)(1<<31))\000"
 9380      57525F50 
 9380      434F4E50 
 9380      5F504355 
 9380      53422028 
 9381              	.LASF724:
 9382 5739 53797354 		.ascii	"SysTick_CTRL_COUNTFLAG_Msk (1UL << SysTick_CTRL_COU"
 9382      69636B5F 
 9382      4354524C 
 9382      5F434F55 
 9382      4E54464C 
 9383 576c 4E54464C 		.ascii	"NTFLAG_Pos)\000"
 9383      41475F50 
 9383      6F732900 
 9384              	.LASF84:
 9385 5778 5F5F5749 		.ascii	"__WINT_WIDTH__ 32\000"
 9385      4E545F57 
 9385      49445448 
 9385      5F5F2033 
 9385      3200
 9386              	.LASF41:
ARM GAS  /tmp/ccKti1Oq.s 			page 225


 9387 578a 5F5F494E 		.ascii	"__INT64_TYPE__ long long int\000"
 9387      5436345F 
 9387      54595045 
 9387      5F5F206C 
 9387      6F6E6720 
 9388              	.LASF1339:
 9389 57a7 474E5520 		.ascii	"GNU C89 7.1.0 -mcpu=cortex-m3 -mthumb -g -ggdb3 -O0"
 9389      43383920 
 9389      372E312E 
 9389      30202D6D 
 9389      6370753D 
 9390 57da 202D7374 		.ascii	" -std=gnu90 -ffunction-sections -fdata-sections\000"
 9390      643D676E 
 9390      75393020 
 9390      2D666675 
 9390      6E637469 
 9391              	.LASF21:
 9392 580a 5F5F4348 		.ascii	"__CHAR_BIT__ 8\000"
 9392      41525F42 
 9392      49545F5F 
 9392      203800
 9393              	.LASF387:
 9394 5819 5F5F5349 		.ascii	"__SIZEOF_WCHAR_T__ 4\000"
 9394      5A454F46 
 9394      5F574348 
 9394      41525F54 
 9394      5F5F2034 
 9395              	.LASF714:
 9396 582e 5343425F 		.ascii	"SCB_DFSR_EXTERNAL_Msk (1UL << SCB_DFSR_EXTERNAL_Pos"
 9396      44465352 
 9396      5F455854 
 9396      45524E41 
 9396      4C5F4D73 
 9397 5861 2900     		.ascii	")\000"
 9398              	.LASF465:
 9399 5863 5F5F4253 		.ascii	"__BSD_VISIBLE 1\000"
 9399      445F5649 
 9399      5349424C 
 9399      45203100 
 9400              	.LASF417:
 9401 5873 5F5F4152 		.ascii	"__ARM_FP16_ARGS\000"
 9401      4D5F4650 
 9401      31365F41 
 9401      52475300 
 9402              	.LASF604:
 9403 5883 5F5F434F 		.ascii	"__CORE_CMFUNC_H__ \000"
 9403      52455F43 
 9403      4D46554E 
 9403      435F485F 
 9403      5F2000
 9404              	.LASF710:
 9405 5896 5343425F 		.ascii	"SCB_HFSR_FORCED_Msk (1UL << SCB_HFSR_FORCED_Pos)\000"
 9405      48465352 
 9405      5F464F52 
 9405      4345445F 
 9405      4D736B20 
 9406              	.LASF1118:
ARM GAS  /tmp/ccKti1Oq.s 			page 226


 9407 58c7 434C4B50 		.ascii	"CLKPWR_PCLKSEL_I2C2 ((uint32_t)(52))\000"
 9407      57525F50 
 9407      434C4B53 
 9407      454C5F49 
 9407      32433220 
 9408              	.LASF631:
 9409 58ec 5343425F 		.ascii	"SCB_ICSR_VECTPENDING_Pos 12\000"
 9409      49435352 
 9409      5F564543 
 9409      5450454E 
 9409      44494E47 
 9410              	.LASF872:
 9411 5908 49544D5F 		.ascii	"ITM_BASE (0xE0000000UL)\000"
 9411      42415345 
 9411      20283078 
 9411      45303030 
 9411      30303030 
 9412              	.LASF268:
 9413 5920 5F5F5546 		.ascii	"__UFRACT_MAX__ 0XFFFFP-16UR\000"
 9413      52414354 
 9413      5F4D4158 
 9413      5F5F2030 
 9413      58464646 
 9414              	.LASF752:
 9415 593c 49544D5F 		.ascii	"ITM_TCR_DWTENA_Msk (1UL << ITM_TCR_DWTENA_Pos)\000"
 9415      5443525F 
 9415      44575445 
 9415      4E415F4D 
 9415      736B2028 
 9416              	.LASF483:
 9417 596b 5F5F5F69 		.ascii	"___int_least64_t_defined 1\000"
 9417      6E745F6C 
 9417      65617374 
 9417      36345F74 
 9417      5F646566 
 9418              	.LASF944:
 9419 5986 4C50435F 		.ascii	"LPC_GPIO0 ((LPC_GPIO_TypeDef *) LPC_GPIO0_BASE )\000"
 9419      4750494F 
 9419      30202828 
 9419      4C50435F 
 9419      4750494F 
 9420              	.LASF1256:
 9421 59b7 49544D5F 		.ascii	"ITM_RxBuffer\000"
 9421      52784275 
 9421      66666572 
 9421      00
 9422              	.LASF634:
 9423 59c4 5343425F 		.ascii	"SCB_ICSR_RETTOBASE_Msk (1UL << SCB_ICSR_RETTOBASE_P"
 9423      49435352 
 9423      5F524554 
 9423      544F4241 
 9423      53455F4D 
 9424 59f7 6F732900 		.ascii	"os)\000"
 9425              	.LASF251:
 9426 59fb 5F5F5346 		.ascii	"__SFRACT_IBIT__ 0\000"
 9426      52414354 
 9426      5F494249 
ARM GAS  /tmp/ccKti1Oq.s 			page 227


 9426      545F5F20 
 9426      3000
 9427              	.LASF463:
 9428 5a0d 5F415446 		.ascii	"_ATFILE_SOURCE 1\000"
 9428      494C455F 
 9428      534F5552 
 9428      43452031 
 9428      00
 9429              	.LASF1302:
 9430 5a1e 52697369 		.ascii	"RisingEdge\000"
 9430      6E674564 
 9430      676500
 9431              	.LASF1127:
 9432 5a29 434C4B50 		.ascii	"CLKPWR_PCONP_PCTIM1 ((uint32_t)(1<<2))\000"
 9432      57525F50 
 9432      434F4E50 
 9432      5F504354 
 9432      494D3120 
 9433              	.LASF473:
 9434 5a50 5F5F4558 		.ascii	"__EXP(x) __ ##x ##__\000"
 9434      50287829 
 9434      205F5F20 
 9434      23237820 
 9434      23235F5F 
 9435              	.LASF26:
 9436 5a65 5F5F4259 		.ascii	"__BYTE_ORDER__ __ORDER_LITTLE_ENDIAN__\000"
 9436      54455F4F 
 9436      52444552 
 9436      5F5F205F 
 9436      5F4F5244 
 9437              	.LASF196:
 9438 5a8c 5F5F464C 		.ascii	"__FLT32_EPSILON__ 1.1920928955078125e-7F32\000"
 9438      5433325F 
 9438      45505349 
 9438      4C4F4E5F 
 9438      5F20312E 
 9439              	.LASF423:
 9440 5ab7 5F5F4152 		.ascii	"__ARM_NEON_FP\000"
 9440      4D5F4E45 
 9440      4F4E5F46 
 9440      5000
 9441              	.LASF870:
 9442 5ac5 436F7265 		.ascii	"CoreDebug_DEMCR_VC_CORERESET_Msk (1UL << CoreDebug_"
 9442      44656275 
 9442      675F4445 
 9442      4D43525F 
 9442      56435F43 
 9443 5af8 44454D43 		.ascii	"DEMCR_VC_CORERESET_Pos)\000"
 9443      525F5643 
 9443      5F434F52 
 9443      45524553 
 9443      45545F50 
 9444              	.LASF923:
 9445 5b10 4C50435F 		.ascii	"LPC_RIT_BASE (LPC_APB1_BASE + 0x30000)\000"
 9445      5249545F 
 9445      42415345 
 9445      20284C50 
ARM GAS  /tmp/ccKti1Oq.s 			page 228


 9445      435F4150 
 9446              	.LASF830:
 9447 5b37 436F7265 		.ascii	"CoreDebug_DHCSR_S_REGRDY_Msk (1UL << CoreDebug_DHCS"
 9447      44656275 
 9447      675F4448 
 9447      4353525F 
 9447      535F5245 
 9448 5b6a 525F535F 		.ascii	"R_S_REGRDY_Pos)\000"
 9448      52454752 
 9448      44595F50 
 9448      6F732900 
 9449              	.LASF1181:
 9450 5b7a 50494E53 		.ascii	"PINSEL_PIN_14 ((14))\000"
 9450      454C5F50 
 9450      494E5F31 
 9450      34202828 
 9450      31342929 
 9451              	.LASF1209:
 9452 5b8f 5F554152 		.ascii	"_UART 1\000"
 9452      54203100 
 9453              	.LASF642:
 9454 5b97 5343425F 		.ascii	"SCB_AIRCR_VECTKEY_Msk (0xFFFFUL << SCB_AIRCR_VECTKE"
 9454      41495243 
 9454      525F5645 
 9454      43544B45 
 9454      595F4D73 
 9455 5bca 595F506F 		.ascii	"Y_Pos)\000"
 9455      732900
 9456              	.LASF470:
 9457 5bd1 5F5F504F 		.ascii	"__POSIX_VISIBLE 200809\000"
 9457      5349585F 
 9457      56495349 
 9457      424C4520 
 9457      32303038 
 9458              	.LASF760:
 9459 5be8 49544D5F 		.ascii	"ITM_IWR_ATVALIDM_Msk (1UL << ITM_IWR_ATVALIDM_Pos)\000"
 9459      4957525F 
 9459      41545641 
 9459      4C49444D 
 9459      5F4D736B 
 9460              	.LASF1043:
 9461 5c1b 434C4B50 		.ascii	"CLKPWR_CLKSRCSEL_CLKSRC_RTC ((uint32_t)(0x02))\000"
 9461      57525F43 
 9461      4C4B5352 
 9461      4353454C 
 9461      5F434C4B 
 9462              	.LASF32:
 9463 5c4a 5F5F5749 		.ascii	"__WINT_TYPE__ unsigned int\000"
 9463      4E545F54 
 9463      5950455F 
 9463      5F20756E 
 9463      7369676E 
 9464              	.LASF346:
 9465 5c65 5F5F5544 		.ascii	"__UDQ_FBIT__ 64\000"
 9465      515F4642 
 9465      49545F5F 
 9465      20363400 
ARM GAS  /tmp/ccKti1Oq.s 			page 229


 9466              	.LASF445:
 9467 5c75 5F5F494E 		.ascii	"__INLINE inline\000"
 9467      4C494E45 
 9467      20696E6C 
 9467      696E6500 
 9468              	.LASF1331:
 9469 5c85 54494D5F 		.ascii	"TIM_GetIntStatus\000"
 9469      47657449 
 9469      6E745374 
 9469      61747573 
 9469      00
 9470              	.LASF1295:
 9471 5c96 496E744F 		.ascii	"IntOnMatch\000"
 9471      6E4D6174 
 9471      636800
 9472              	.LASF687:
 9473 5ca1 5343425F 		.ascii	"SCB_SHCSR_SYSTICKACT_Pos 11\000"
 9473      53484353 
 9473      525F5359 
 9473      53544943 
 9473      4B414354 
 9474              	.LASF1328:
 9475 5cbd 54494D5F 		.ascii	"TIM_GetCaptureValue\000"
 9475      47657443 
 9475      61707475 
 9475      72655661 
 9475      6C756500 
 9476              	.LASF1231:
 9477 5cd1 5F555342 		.ascii	"_USBDEV 1\000"
 9477      44455620 
 9477      3100
 9478              	.LASF761:
 9479 5cdb 49544D5F 		.ascii	"ITM_IRR_ATREADYM_Pos 0\000"
 9479      4952525F 
 9479      41545245 
 9479      4144594D 
 9479      5F506F73 
 9480              	.LASF561:
 9481 5cf2 494E5436 		.ascii	"INT64_MAX (__INT64_MAX__)\000"
 9481      345F4D41 
 9481      5820285F 
 9481      5F494E54 
 9481      36345F4D 
 9482              	.LASF525:
 9483 5d0c 5F55494E 		.ascii	"_UINT64_T_DECLARED \000"
 9483      5436345F 
 9483      545F4445 
 9483      434C4152 
 9483      45442000 
 9484              	.LASF1298:
 9485 5d20 4578744D 		.ascii	"ExtMatchOutputType\000"
 9485      61746368 
 9485      4F757470 
 9485      75745479 
 9485      706500
 9486              	.LASF625:
 9487 5d33 5343425F 		.ascii	"SCB_ICSR_PENDSTCLR_Pos 25\000"
ARM GAS  /tmp/ccKti1Oq.s 			page 230


 9487      49435352 
 9487      5F50454E 
 9487      44535443 
 9487      4C525F50 
 9488              	.LASF1251:
 9489 5d4d 756E7369 		.ascii	"unsigned int\000"
 9489      676E6564 
 9489      20696E74 
 9489      00
 9490              	.LASF263:
 9491 5d5a 5F5F4652 		.ascii	"__FRACT_MAX__ 0X7FFFP-15R\000"
 9491      4143545F 
 9491      4D41585F 
 9491      5F203058 
 9491      37464646 
 9492              	.LASF146:
 9493 5d74 5F5F464C 		.ascii	"__FLT_MIN_EXP__ (-125)\000"
 9493      545F4D49 
 9493      4E5F4558 
 9493      505F5F20 
 9493      282D3132 
 9494              	.LASF111:
 9495 5d8b 5F5F494E 		.ascii	"__INT_LEAST32_WIDTH__ 32\000"
 9495      545F4C45 
 9495      41535433 
 9495      325F5749 
 9495      4454485F 
 9496              	.LASF595:
 9497 5da4 55494E54 		.ascii	"UINT32_C(x) __UINT32_C(x)\000"
 9497      33325F43 
 9497      28782920 
 9497      5F5F5549 
 9497      4E543332 
 9498              	.LASF612:
 9499 5dbe 5343425F 		.ascii	"SCB_CPUID_VARIANT_Msk (0xFUL << SCB_CPUID_VARIANT_P"
 9499      43505549 
 9499      445F5641 
 9499      5249414E 
 9499      545F4D73 
 9500 5df1 6F732900 		.ascii	"os)\000"
 9501              	.LASF328:
 9502 5df5 5F5F554C 		.ascii	"__ULLACCUM_MAX__ 0XFFFFFFFFFFFFFFFFP-32ULLK\000"
 9502      4C414343 
 9502      554D5F4D 
 9502      41585F5F 
 9502      20305846 
 9503              	.LASF1318:
 9504 5e21 4E657753 		.ascii	"NewState\000"
 9504      74617465 
 9504      00
 9505              	.LASF296:
 9506 5e2a 5F5F5553 		.ascii	"__USACCUM_IBIT__ 8\000"
 9506      41434355 
 9506      4D5F4942 
 9506      49545F5F 
 9506      203800
 9507              	.LASF1169:
ARM GAS  /tmp/ccKti1Oq.s 			page 231


 9508 5e3d 50494E53 		.ascii	"PINSEL_PIN_2 ((2))\000"
 9508      454C5F50 
 9508      494E5F32 
 9508      20282832 
 9508      292900
 9509              	.LASF566:
 9510 5e50 494E545F 		.ascii	"INT_FAST8_MIN (-__INT_FAST8_MAX__ - 1)\000"
 9510      46415354 
 9510      385F4D49 
 9510      4E20282D 
 9510      5F5F494E 
 9511              	.LASF902:
 9512 5e77 4C50435F 		.ascii	"LPC_I2C0_BASE (LPC_APB0_BASE + 0x1C000)\000"
 9512      49324330 
 9512      5F424153 
 9512      4520284C 
 9512      50435F41 
 9513              	.LASF1066:
 9514 5e9f 434C4B50 		.ascii	"CLKPWR_PLL1CON_ENABLE ((uint32_t)(0x01))\000"
 9514      57525F50 
 9514      4C4C3143 
 9514      4F4E5F45 
 9514      4E41424C 
 9515              	.LASF212:
 9516 5ec8 5F5F464C 		.ascii	"__FLT64_HAS_DENORM__ 1\000"
 9516      5436345F 
 9516      4841535F 
 9516      44454E4F 
 9516      524D5F5F 
 9517              	.LASF145:
 9518 5edf 5F5F464C 		.ascii	"__FLT_DIG__ 6\000"
 9518      545F4449 
 9518      475F5F20 
 9518      3600
 9519              	.LASF34:
 9520 5eed 5F5F5549 		.ascii	"__UINTMAX_TYPE__ long long unsigned int\000"
 9520      4E544D41 
 9520      585F5459 
 9520      50455F5F 
 9520      206C6F6E 
 9521              	.LASF780:
 9522 5f15 4D50555F 		.ascii	"MPU_TYPE_IREGION_Msk (0xFFUL << MPU_TYPE_IREGION_Po"
 9522      54595045 
 9522      5F495245 
 9522      47494F4E 
 9522      5F4D736B 
 9523 5f48 732900   		.ascii	"s)\000"
 9524              	.LASF889:
 9525 5f4b 4C50435F 		.ascii	"LPC_AHBRAM0_BASE (0x2007C000UL)\000"
 9525      41484252 
 9525      414D305F 
 9525      42415345 
 9525      20283078 
 9526              	.LASF140:
 9527 5f6b 5F5F464C 		.ascii	"__FLT_EVAL_METHOD__ 0\000"
 9527      545F4556 
 9527      414C5F4D 
ARM GAS  /tmp/ccKti1Oq.s 			page 232


 9527      4554484F 
 9527      445F5F20 
 9528              	.LASF536:
 9529 5f81 5F5F696E 		.ascii	"__int_fast16_t_defined 1\000"
 9529      745F6661 
 9529      73743136 
 9529      5F745F64 
 9529      6566696E 
 9530              	.LASF67:
 9531 5f9a 5F5F5343 		.ascii	"__SCHAR_MAX__ 0x7f\000"
 9531      4841525F 
 9531      4D41585F 
 9531      5F203078 
 9531      376600
 9532              	.LASF124:
 9533 5fad 5F5F494E 		.ascii	"__INT_FAST8_WIDTH__ 32\000"
 9533      545F4641 
 9533      5354385F 
 9533      57494454 
 9533      485F5F20 
 9534              	.LASF503:
 9535 5fc4 5F5F494E 		.ascii	"__INT16 \"h\"\000"
 9535      54313620 
 9535      22682200 
 9536              	.LASF1087:
 9537 5fd0 434C4B50 		.ascii	"CLKPWR_PCON_PM1 ((uint32_t)(1<<1))\000"
 9537      57525F50 
 9537      434F4E5F 
 9537      504D3120 
 9537      28287569 
 9538              	.LASF340:
 9539 5ff3 5F5F5551 		.ascii	"__UQQ_FBIT__ 8\000"
 9539      515F4642 
 9539      49545F5F 
 9539      203800
 9540              	.LASF734:
 9541 6002 53797354 		.ascii	"SysTick_VAL_CURRENT_Msk (0xFFFFFFUL << SysTick_VAL_"
 9541      69636B5F 
 9541      56414C5F 
 9541      43555252 
 9541      454E545F 
 9542 6035 43555252 		.ascii	"CURRENT_Pos)\000"
 9542      454E545F 
 9542      506F7329 
 9542      00
 9543              	.LASF237:
 9544 6042 5F5F4445 		.ascii	"__DEC64_MIN_EXP__ (-382)\000"
 9544      4336345F 
 9544      4D494E5F 
 9544      4558505F 
 9544      5F20282D 
 9545              	.LASF138:
 9546 605b 5F5F4743 		.ascii	"__GCC_IEC_559 0\000"
 9546      435F4945 
 9546      435F3535 
 9546      39203000 
 9547              	.LASF1024:
ARM GAS  /tmp/ccKti1Oq.s 			page 233


 9548 606b 54494D5F 		.ascii	"TIM_EM_HIGH ((uint8_t)(0x2))\000"
 9548      454D5F48 
 9548      49474820 
 9548      28287569 
 9548      6E74385F 
 9549              	.LASF1288:
 9550 6088 52657365 		.ascii	"Reserved\000"
 9550      72766564 
 9550      00
 9551              	.LASF495:
 9552 6091 63686172 		.ascii	"char +0\000"
 9552      202B3000 
 9553              	.LASF273:
 9554 6099 5F5F4C46 		.ascii	"__LFRACT_MAX__ 0X7FFFFFFFP-31LR\000"
 9554      52414354 
 9554      5F4D4158 
 9554      5F5F2030 
 9554      58374646 
 9555              	.LASF389:
 9556 60b9 5F5F5349 		.ascii	"__SIZEOF_PTRDIFF_T__ 4\000"
 9556      5A454F46 
 9556      5F505452 
 9556      44494646 
 9556      5F545F5F 
 9557              	.LASF0:
 9558 60d0 5F5F5354 		.ascii	"__STDC__ 1\000"
 9558      44435F5F 
 9558      203100
 9559              	.LASF1023:
 9560 60db 54494D5F 		.ascii	"TIM_EM_LOW ((uint8_t)(0x1))\000"
 9560      454D5F4C 
 9560      4F572028 
 9560      2875696E 
 9560      74385F74 
 9561              	.LASF480:
 9562 60f7 5F5F5F69 		.ascii	"___int_least8_t_defined 1\000"
 9562      6E745F6C 
 9562      65617374 
 9562      385F745F 
 9562      64656669 
 9563              	.LASF429:
 9564 6111 5F5F4152 		.ascii	"__ARM_FEATURE_IDIV 1\000"
 9564      4D5F4645 
 9564      41545552 
 9564      455F4944 
 9564      49562031 
 9565              	.LASF27:
 9566 6126 5F5F464C 		.ascii	"__FLOAT_WORD_ORDER__ __ORDER_LITTLE_ENDIAN__\000"
 9566      4F41545F 
 9566      574F5244 
 9566      5F4F5244 
 9566      45525F5F 
 9567              	.LASF42:
 9568 6153 5F5F5549 		.ascii	"__UINT8_TYPE__ unsigned char\000"
 9568      4E54385F 
 9568      54595045 
 9568      5F5F2075 
ARM GAS  /tmp/ccKti1Oq.s 			page 234


 9568      6E736967 
 9569              	.LASF1189:
 9570 6170 50494E53 		.ascii	"PINSEL_PIN_22 ((22))\000"
 9570      454C5F50 
 9570      494E5F32 
 9570      32202828 
 9570      32322929 
 9571              	.LASF1154:
 9572 6185 50494E53 		.ascii	"PINSEL_I2CPADCFG_SDADRV0 _BIT(0)\000"
 9572      454C5F49 
 9572      32435041 
 9572      44434647 
 9572      5F534441 
 9573              	.LASF535:
 9574 61a6 5F5F696E 		.ascii	"__int_fast8_t_defined 1\000"
 9574      745F6661 
 9574      7374385F 
 9574      745F6465 
 9574      66696E65 
 9575              	.LASF1170:
 9576 61be 50494E53 		.ascii	"PINSEL_PIN_3 ((3))\000"
 9576      454C5F50 
 9576      494E5F33 
 9576      20282833 
 9576      292900
 9577              	.LASF1216:
 9578 61d1 5F535350 		.ascii	"_SSP0 1\000"
 9578      30203100 
 9579              	.LASF112:
 9580 61d9 5F5F494E 		.ascii	"__INT_LEAST64_MAX__ 0x7fffffffffffffffLL\000"
 9580      545F4C45 
 9580      41535436 
 9580      345F4D41 
 9580      585F5F20 
 9581              	.LASF946:
 9582 6202 4C50435F 		.ascii	"LPC_GPIO2 ((LPC_GPIO_TypeDef *) LPC_GPIO2_BASE )\000"
 9582      4750494F 
 9582      32202828 
 9582      4C50435F 
 9582      4750494F 
 9583              	.LASF79:
 9584 6233 5F5F5348 		.ascii	"__SHRT_WIDTH__ 16\000"
 9584      52545F57 
 9584      49445448 
 9584      5F5F2031 
 9584      3600
 9585              	.LASF1035:
 9586 6245 50415241 		.ascii	"PARAM_TIM_PRESCALE_OPT(OPT) ((OPT == TIM_PRESCALE_T"
 9586      4D5F5449 
 9586      4D5F5052 
 9586      45534341 
 9586      4C455F4F 
 9587 6278 49434B56 		.ascii	"ICKVAL)||(OPT == TIM_PRESCALE_USVAL))\000"
 9587      414C297C 
 9587      7C284F50 
 9587      54203D3D 
 9587      2054494D 
ARM GAS  /tmp/ccKti1Oq.s 			page 235


 9588              	.LASF243:
 9589 629e 5F5F4445 		.ascii	"__DEC128_MANT_DIG__ 34\000"
 9589      43313238 
 9589      5F4D414E 
 9589      545F4449 
 9589      475F5F20 
 9590              	.LASF540:
 9591 62b5 494E5450 		.ascii	"INTPTR_MAX (__INTPTR_MAX__)\000"
 9591      54525F4D 
 9591      41582028 
 9591      5F5F494E 
 9591      54505452 
 9592              	.LASF1174:
 9593 62d1 50494E53 		.ascii	"PINSEL_PIN_7 ((7))\000"
 9593      454C5F50 
 9593      494E5F37 
 9593      20282837 
 9593      292900
 9594              	.LASF809:
 9595 62e4 4D50555F 		.ascii	"MPU_RASR_B_Pos 16\000"
 9595      52415352 
 9595      5F425F50 
 9595      6F732031 
 9595      3600
 9596              	.LASF360:
 9597 62f6 5F5F5553 		.ascii	"__USA_FBIT__ 16\000"
 9597      415F4642 
 9597      49545F5F 
 9597      20313600 
 9598              	.LASF709:
 9599 6306 5343425F 		.ascii	"SCB_HFSR_FORCED_Pos 30\000"
 9599      48465352 
 9599      5F464F52 
 9599      4345445F 
 9599      506F7320 
 9600              	.LASF1159:
 9601 631d 50494E53 		.ascii	"PINSEL_PORT_1 ((1))\000"
 9601      454C5F50 
 9601      4F52545F 
 9601      31202828 
 9601      31292900 
 9602              	.LASF175:
 9603 6331 5F5F4C44 		.ascii	"__LDBL_MIN_10_EXP__ (-307)\000"
 9603      424C5F4D 
 9603      494E5F31 
 9603      305F4558 
 9603      505F5F20 
 9604              	.LASF1098:
 9605 634c 434C4B50 		.ascii	"CLKPWR_PCLKSEL_TIMER1 ((uint32_t)(4))\000"
 9605      57525F50 
 9605      434C4B53 
 9605      454C5F54 
 9605      494D4552 
 9606              	.LASF375:
 9607 6372 5F5F4743 		.ascii	"__GCC_ATOMIC_CHAR_LOCK_FREE 2\000"
 9607      435F4154 
 9607      4F4D4943 
ARM GAS  /tmp/ccKti1Oq.s 			page 236


 9607      5F434841 
 9607      525F4C4F 
 9608              	.LASF1230:
 9609 6390 5F493253 		.ascii	"_I2S 1\000"
 9609      203100
 9610              	.LASF274:
 9611 6397 5F5F4C46 		.ascii	"__LFRACT_EPSILON__ 0x1P-31LR\000"
 9611      52414354 
 9611      5F455053 
 9611      494C4F4E 
 9611      5F5F2030 
 9612              	.LASF1033:
 9613 63b4 50415241 		.ascii	"PARAM_TIM_INT_TYPE(TYPE) ((TYPE ==TIM_MR0_INT)||(TY"
 9613      4D5F5449 
 9613      4D5F494E 
 9613      545F5459 
 9613      50452854 
 9614 63e7 5045203D 		.ascii	"PE ==TIM_MR1_INT)||(TYPE ==TIM_MR2_INT)||(TYPE ==TI"
 9614      3D54494D 
 9614      5F4D5231 
 9614      5F494E54 
 9614      297C7C28 
 9615 641a 4D5F4D52 		.ascii	"M_MR3_INT)||(TYPE ==TIM_CR0_INT)||(TYPE ==TIM_CR1_I"
 9615      335F494E 
 9615      54297C7C 
 9615      28545950 
 9615      45203D3D 
 9616 644d 4E542929 		.ascii	"NT))\000"
 9616      00
 9617              	.LASF1054:
 9618 6452 434C4B50 		.ascii	"CLKPWR_PLL0CON_ENABLE ((uint32_t)(0x01))\000"
 9618      57525F50 
 9618      4C4C3043 
 9618      4F4E5F45 
 9618      4E41424C 
 9619              	.LASF667:
 9620 647b 5343425F 		.ascii	"SCB_CCR_UNALIGN_TRP_Pos 3\000"
 9620      4343525F 
 9620      554E414C 
 9620      49474E5F 
 9620      5452505F 
 9621              	.LASF401:
 9622 6495 5F5F4152 		.ascii	"__ARM_SIZEOF_MINIMAL_ENUM 1\000"
 9622      4D5F5349 
 9622      5A454F46 
 9622      5F4D494E 
 9622      494D414C 
 9623              	.LASF1008:
 9624 64b1 54494D5F 		.ascii	"TIM_RESET ((uint32_t)(1<<1))\000"
 9624      52455345 
 9624      54202828 
 9624      75696E74 
 9624      33325F74 
 9625              	.LASF680:
 9626 64ce 5343425F 		.ascii	"SCB_SHCSR_SVCALLPENDED_Msk (1UL << SCB_SHCSR_SVCALL"
 9626      53484353 
 9626      525F5356 
ARM GAS  /tmp/ccKti1Oq.s 			page 237


 9626      43414C4C 
 9626      50454E44 
 9627 6501 50454E44 		.ascii	"PENDED_Pos)\000"
 9627      45445F50 
 9627      6F732900 
 9628              	.LASF935:
 9629 650d 4C50435F 		.ascii	"LPC_GPDMACH6_BASE (LPC_AHB_BASE + 0x041C0)\000"
 9629      4750444D 
 9629      41434836 
 9629      5F424153 
 9629      4520284C 
 9630              	.LASF404:
 9631 6538 5F5F6172 		.ascii	"__arm__ 1\000"
 9631      6D5F5F20 
 9631      3100
 9632              	.LASF908:
 9633 6542 4C50435F 		.ascii	"LPC_ADC_BASE (LPC_APB0_BASE + 0x34000)\000"
 9633      4144435F 
 9633      42415345 
 9633      20284C50 
 9633      435F4150 
 9634              	.LASF1109:
 9635 6569 434C4B50 		.ascii	"CLKPWR_PCLKSEL_ACF ((uint32_t)(30))\000"
 9635      57525F50 
 9635      434C4B53 
 9635      454C5F41 
 9635      43462028 
 9636              	.LASF1278:
 9637 658d 54494D5F 		.ascii	"TIM_COUNTER_ANY_MODE\000"
 9637      434F554E 
 9637      5445525F 
 9637      414E595F 
 9637      4D4F4445 
 9638              	.LASF1142:
 9639 65a2 434C4B50 		.ascii	"CLKPWR_PCONP_PCI2C1 ((uint32_t)(1<<19))\000"
 9639      57525F50 
 9639      434F4E50 
 9639      5F504349 
 9639      32433120 
 9640              	.LASF1261:
 9641 65ca 4C50435F 		.ascii	"LPC_TIM_TypeDef\000"
 9641      54494D5F 
 9641      54797065 
 9641      44656600 
 9642              	.LASF190:
 9643 65da 5F5F464C 		.ascii	"__FLT32_MIN_10_EXP__ (-37)\000"
 9643      5433325F 
 9643      4D494E5F 
 9643      31305F45 
 9643      58505F5F 
 9644              	.LASF1129:
 9645 65f5 434C4B50 		.ascii	"CLKPWR_PCONP_PCUART1 ((uint32_t)(1<<4))\000"
 9645      57525F50 
 9645      434F4E50 
 9645      5F504355 
 9645      41525431 
 9646              	.LASF719:
ARM GAS  /tmp/ccKti1Oq.s 			page 238


 9647 661d 5343425F 		.ascii	"SCB_DFSR_BKPT_Pos 1\000"
 9647      44465352 
 9647      5F424B50 
 9647      545F506F 
 9647      73203100 
 9648              	.LASF1155:
 9649 6631 50494E53 		.ascii	"PINSEL_I2CPADCFG_SDAI2C0 _BIT(1)\000"
 9649      454C5F49 
 9649      32435041 
 9649      44434647 
 9649      5F534441 
 9650              	.LASF548:
 9651 6652 494E5431 		.ascii	"INT16_MIN (-__INT16_MAX__ - 1)\000"
 9651      365F4D49 
 9651      4E20282D 
 9651      5F5F494E 
 9651      5431365F 
 9652              	.LASF884:
 9653 6671 4D505520 		.ascii	"MPU ((MPU_Type*) MPU_BASE)\000"
 9653      28284D50 
 9653      555F5479 
 9653      70652A29 
 9653      204D5055 
 9654              	.LASF1227:
 9655 668c 5F50574D 		.ascii	"_PWM 1\000"
 9655      203100
 9656              	.LASF416:
 9657 6693 5F5F4152 		.ascii	"__ARM_FP16_FORMAT_ALTERNATIVE\000"
 9657      4D5F4650 
 9657      31365F46 
 9657      4F524D41 
 9657      545F414C 
 9658              	.LASF907:
 9659 66b1 4C50435F 		.ascii	"LPC_SSP1_BASE (LPC_APB0_BASE + 0x30000)\000"
 9659      53535031 
 9659      5F424153 
 9659      4520284C 
 9659      50435F41 
 9660              	.LASF229:
 9661 66d9 5F5F4445 		.ascii	"__DEC32_MANT_DIG__ 7\000"
 9661      4333325F 
 9661      4D414E54 
 9661      5F444947 
 9661      5F5F2037 
 9662              	.LASF575:
 9663 66ee 494E545F 		.ascii	"INT_FAST64_MIN (-__INT_FAST64_MAX__ - 1)\000"
 9663      46415354 
 9663      36345F4D 
 9663      494E2028 
 9663      2D5F5F49 
 9664              	.LASF1270:
 9665 6717 54494D5F 		.ascii	"TIM_MR1_INT\000"
 9665      4D52315F 
 9665      494E5400 
 9666              	.LASF447:
 9667 6723 5F4D4143 		.ascii	"_MACHINE__DEFAULT_TYPES_H \000"
 9667      48494E45 
ARM GAS  /tmp/ccKti1Oq.s 			page 239


 9667      5F5F4445 
 9667      4641554C 
 9667      545F5459 
 9668              	.LASF1262:
 9669 673e 46414C53 		.ascii	"FALSE\000"
 9669      4500
 9670              	.LASF865:
 9671 6744 436F7265 		.ascii	"CoreDebug_DEMCR_VC_NOCPERR_Pos 5\000"
 9671      44656275 
 9671      675F4445 
 9671      4D43525F 
 9671      56435F4E 
 9672              	.LASF655:
 9673 6765 5343425F 		.ascii	"SCB_SCR_SEVONPEND_Pos 4\000"
 9673      5343525F 
 9673      5345564F 
 9673      4E50454E 
 9673      445F506F 
 9674              	.LASF400:
 9675 677d 5F5F4152 		.ascii	"__ARM_FEATURE_SIMD32\000"
 9675      4D5F4645 
 9675      41545552 
 9675      455F5349 
 9675      4D443332 
 9676              	.LASF846:
 9677 6792 436F7265 		.ascii	"CoreDebug_DEMCR_TRCENA_Msk (1UL << CoreDebug_DEMCR_"
 9677      44656275 
 9677      675F4445 
 9677      4D43525F 
 9677      54524345 
 9678 67c5 54524345 		.ascii	"TRCENA_Pos)\000"
 9678      4E415F50 
 9678      6F732900 
 9679              	.LASF427:
 9680 67d1 5F5F4152 		.ascii	"__ARM_EABI__ 1\000"
 9680      4D5F4541 
 9680      42495F5F 
 9680      203100
 9681              	.LASF733:
 9682 67e0 53797354 		.ascii	"SysTick_VAL_CURRENT_Pos 0\000"
 9682      69636B5F 
 9682      56414C5F 
 9682      43555252 
 9682      454E545F 
 9683              	.LASF1071:
 9684 67fa 434C4B50 		.ascii	"CLKPWR_PLL1CFG_BITMASK ((uint32_t)(0x7F))\000"
 9684      57525F50 
 9684      4C4C3143 
 9684      46475F42 
 9684      49544D41 
 9685              	.LASF797:
 9686 6824 4D50555F 		.ascii	"MPU_RBAR_REGION_Pos 0\000"
 9686      52424152 
 9686      5F524547 
 9686      494F4E5F 
 9686      506F7320 
 9687              	.LASF892:
ARM GAS  /tmp/ccKti1Oq.s 			page 240


 9688 683a 4C50435F 		.ascii	"LPC_APB0_BASE (0x40000000UL)\000"
 9688      41504230 
 9688      5F424153 
 9688      45202830 
 9688      78343030 
 9689              	.LASF627:
 9690 6857 5343425F 		.ascii	"SCB_ICSR_ISRPREEMPT_Pos 23\000"
 9690      49435352 
 9690      5F495352 
 9690      50524545 
 9690      4D50545F 
 9691              	.LASF1064:
 9692 6872 434C4B50 		.ascii	"CLKPWR_PLL0STAT_PLOCK ((uint32_t)(1<<26))\000"
 9692      57525F50 
 9692      4C4C3053 
 9692      5441545F 
 9692      504C4F43 
 9693              	.LASF395:
 9694 689c 5F5F4152 		.ascii	"__ARM_FEATURE_QRDMX\000"
 9694      4D5F4645 
 9694      41545552 
 9694      455F5152 
 9694      444D5800 
 9695              	.LASF1203:
 9696 68b0 50494E53 		.ascii	"PINSEL_PINMODE_OPENDRAIN ((1))\000"
 9696      454C5F50 
 9696      494E4D4F 
 9696      44455F4F 
 9696      50454E44 
 9697              	.LASF928:
 9698 68cf 4C50435F 		.ascii	"LPC_GPDMA_BASE (LPC_AHB_BASE + 0x04000)\000"
 9698      4750444D 
 9698      415F4241 
 9698      53452028 
 9698      4C50435F 
 9699              	.LASF1266:
 9700 68f7 44495341 		.ascii	"DISABLE\000"
 9700      424C4500 
 9701              	.LASF1208:
 9702 68ff 5F475049 		.ascii	"_GPIO 1\000"
 9702      4F203100 
 9703              	.LASF784:
 9704 6907 4D50555F 		.ascii	"MPU_TYPE_SEPARATE_Msk (1UL << MPU_TYPE_SEPARATE_Pos"
 9704      54595045 
 9704      5F534550 
 9704      41524154 
 9704      455F4D73 
 9705 693a 2900     		.ascii	")\000"
 9706              	.LASF410:
 9707 693c 5F5F4152 		.ascii	"__ARM_ARCH_ISA_THUMB 2\000"
 9707      4D5F4152 
 9707      43485F49 
 9707      53415F54 
 9707      48554D42 
 9708              	.LASF450:
 9709 6953 5F4E4557 		.ascii	"_NEWLIB_VERSION \"2.5.0\"\000"
 9709      4C49425F 
ARM GAS  /tmp/ccKti1Oq.s 			page 241


 9709      56455253 
 9709      494F4E20 
 9709      22322E35 
 9710              	.LASF1183:
 9711 696b 50494E53 		.ascii	"PINSEL_PIN_16 ((16))\000"
 9711      454C5F50 
 9711      494E5F31 
 9711      36202828 
 9711      31362929 
 9712              	.LASF71:
 9713 6980 5F5F4C4F 		.ascii	"__LONG_LONG_MAX__ 0x7fffffffffffffffLL\000"
 9713      4E475F4C 
 9713      4F4E475F 
 9713      4D41585F 
 9713      5F203078 
 9714              	.LASF1197:
 9715 69a7 50494E53 		.ascii	"PINSEL_PIN_30 ((30))\000"
 9715      454C5F50 
 9715      494E5F33 
 9715      30202828 
 9715      33302929 
 9716              	.LASF550:
 9717 69bc 55494E54 		.ascii	"UINT16_MAX (__UINT16_MAX__)\000"
 9717      31365F4D 
 9717      41582028 
 9717      5F5F5549 
 9717      4E543136 
 9718              	.LASF1198:
 9719 69d8 50494E53 		.ascii	"PINSEL_PIN_31 ((31))\000"
 9719      454C5F50 
 9719      494E5F33 
 9719      31202828 
 9719      33312929 
 9720              	.LASF492:
 9721 69ed 6C6F6E67 		.ascii	"long\000"
 9721      00
 9722              	.LASF1010:
 9723 69f2 54494D5F 		.ascii	"TIM_INT_ON_MATCH(n) (_BIT((n * 3)))\000"
 9723      494E545F 
 9723      4F4E5F4D 
 9723      41544348 
 9723      286E2920 
 9724              	.LASF490:
 9725 6a16 73686F72 		.ascii	"short\000"
 9725      7400
 9726              	.LASF1221:
 9727 6a1c 5F493243 		.ascii	"_I2C2 1\000"
 9727      32203100 
 9728              	.LASF853:
 9729 6a24 436F7265 		.ascii	"CoreDebug_DEMCR_MON_EN_Pos 16\000"
 9729      44656275 
 9729      675F4445 
 9729      4D43525F 
 9729      4D4F4E5F 
 9730              	.LASF266:
 9731 6a42 5F5F5546 		.ascii	"__UFRACT_IBIT__ 0\000"
 9731      52414354 
ARM GAS  /tmp/ccKti1Oq.s 			page 242


 9731      5F494249 
 9731      545F5F20 
 9731      3000
 9732              	.LASF396:
 9733 6a54 5F5F4152 		.ascii	"__ARM_32BIT_STATE 1\000"
 9733      4D5F3332 
 9733      4249545F 
 9733      53544154 
 9733      45203100 
 9734              	.LASF104:
 9735 6a68 5F5F494E 		.ascii	"__INT8_C(c) c\000"
 9735      54385F43 
 9735      28632920 
 9735      6300
 9736              	.LASF271:
 9737 6a76 5F5F4C46 		.ascii	"__LFRACT_IBIT__ 0\000"
 9737      52414354 
 9737      5F494249 
 9737      545F5F20 
 9737      3000
 9738              	.LASF438:
 9739 6a88 5F5F5665 		.ascii	"__Vendor_SysTickConfig 0\000"
 9739      6E646F72 
 9739      5F537973 
 9739      5469636B 
 9739      436F6E66 
 9740              	.LASF616:
 9741 6aa1 5343425F 		.ascii	"SCB_CPUID_REVISION_Msk (0xFUL << SCB_CPUID_REVISION"
 9741      43505549 
 9741      445F5245 
 9741      56495349 
 9741      4F4E5F4D 
 9742 6ad4 5F506F73 		.ascii	"_Pos)\000"
 9742      2900
 9743              	.LASF1238:
 9744 6ada 43484543 		.ascii	"CHECK_PARAM(expr) ((expr) ? (void)0 : check_failed("
 9744      4B5F5041 
 9744      52414D28 
 9744      65787072 
 9744      29202828 
 9745 6b0d 2875696E 		.ascii	"(uint8_t *)__FILE__, __LINE__))\000"
 9745      74385F74 
 9745      202A295F 
 9745      5F46494C 
 9745      455F5F2C 
 9746              	.LASF160:
 9747 6b2d 5F5F4442 		.ascii	"__DBL_MIN_EXP__ (-1021)\000"
 9747      4C5F4D49 
 9747      4E5F4558 
 9747      505F5F20 
 9747      282D3130 
 9748              	.LASF1287:
 9749 6b45 50726573 		.ascii	"PrescaleOption\000"
 9749      63616C65 
 9749      4F707469 
 9749      6F6E00
 9750              	.LASF1045:
ARM GAS  /tmp/ccKti1Oq.s 			page 243


 9751 6b54 434C4B50 		.ascii	"CLKPWR_CLKOUTCFG_CLKOUTSEL_CPU ((uint32_t)(0x00))\000"
 9751      57525F43 
 9751      4C4B4F55 
 9751      54434647 
 9751      5F434C4B 
 9752              	.LASF1047:
 9753 6b86 434C4B50 		.ascii	"CLKPWR_CLKOUTCFG_CLKOUTSEL_RC ((uint32_t)(0x02))\000"
 9753      57525F43 
 9753      4C4B4F55 
 9753      54434647 
 9753      5F434C4B 
 9754              	.LASF673:
 9755 6bb7 5343425F 		.ascii	"SCB_SHCSR_USGFAULTENA_Pos 18\000"
 9755      53484353 
 9755      525F5553 
 9755      47464155 
 9755      4C54454E 
 9756              	.LASF816:
 9757 6bd4 4D50555F 		.ascii	"MPU_RASR_ENA_Msk (0x1UL << MPU_RASR_ENA_Pos)\000"
 9757      52415352 
 9757      5F454E41 
 9757      5F4D736B 
 9757      20283078 
 9758              	.LASF754:
 9759 6c01 49544D5F 		.ascii	"ITM_TCR_SYNCENA_Msk (1UL << ITM_TCR_SYNCENA_Pos)\000"
 9759      5443525F 
 9759      53594E43 
 9759      454E415F 
 9759      4D736B20 
 9760              	.LASF1037:
 9761 6c32 50415241 		.ascii	"PARAM_TIM_EXTMATCH_OPT(OPT) ((OPT == TIM_EXTMATCH_N"
 9761      4D5F5449 
 9761      4D5F4558 
 9761      544D4154 
 9761      43485F4F 
 9762 6c65 4F544849 		.ascii	"OTHING)||(OPT == TIM_EXTMATCH_LOW)||(OPT == TIM_EXT"
 9762      4E47297C 
 9762      7C284F50 
 9762      54203D3D 
 9762      2054494D 
 9763 6c98 4D415443 		.ascii	"MATCH_HIGH)||(OPT == TIM_EXTMATCH_TOGGLE))\000"
 9763      485F4849 
 9763      4748297C 
 9763      7C284F50 
 9763      54203D3D 
 9764              	.LASF188:
 9765 6cc3 5F5F464C 		.ascii	"__FLT32_DIG__ 6\000"
 9765      5433325F 
 9765      4449475F 
 9765      5F203600 
 9766              	.LASF964:
 9767 6cd3 4C50435F 		.ascii	"LPC_SPI ((LPC_SPI_TypeDef *) LPC_SPI_BASE )\000"
 9767      53504920 
 9767      28284C50 
 9767      435F5350 
 9767      495F5479 
 9768              	.LASF513:
ARM GAS  /tmp/ccKti1Oq.s 			page 244


 9769 6cff 5F5F4C45 		.ascii	"__LEAST64 \"ll\"\000"
 9769      41535436 
 9769      3420226C 
 9769      6C2200
 9770              	.LASF1059:
 9771 6d0e 434C4B50 		.ascii	"CLKPWR_PLL0CFG_BITMASK ((uint32_t)(0xFF7FFF))\000"
 9771      57525F50 
 9771      4C4C3043 
 9771      46475F42 
 9771      49544D41 
 9772              	.LASF924:
 9773 6d3c 4C50435F 		.ascii	"LPC_MCPWM_BASE (LPC_APB1_BASE + 0x38000)\000"
 9773      4D435057 
 9773      4D5F4241 
 9773      53452028 
 9773      4C50435F 
 9774              	.LASF599:
 9775 6d65 55494E54 		.ascii	"UINTMAX_C(x) __UINTMAX_C(x)\000"
 9775      4D41585F 
 9775      43287829 
 9775      205F5F55 
 9775      494E544D 
 9776              	.LASF469:
 9777 6d81 5F5F4D49 		.ascii	"__MISC_VISIBLE 1\000"
 9777      53435F56 
 9777      49534942 
 9777      4C452031 
 9777      00
 9778              	.LASF1100:
 9779 6d92 434C4B50 		.ascii	"CLKPWR_PCLKSEL_UART1 ((uint32_t)(8))\000"
 9779      57525F50 
 9779      434C4B53 
 9779      454C5F55 
 9779      41525431 
 9780              	.LASF484:
 9781 6db7 5F5F4558 		.ascii	"__EXP\000"
 9781      5000
 9782              	.LASF479:
 9783 6dbd 5F5F5F69 		.ascii	"___int64_t_defined 1\000"
 9783      6E743634 
 9783      5F745F64 
 9783      6566696E 
 9783      65642031 
 9784              	.LASF184:
 9785 6dd2 5F5F4C44 		.ascii	"__LDBL_HAS_DENORM__ 1\000"
 9785      424C5F48 
 9785      41535F44 
 9785      454E4F52 
 9785      4D5F5F20 
 9786              	.LASF1077:
 9787 6de8 434C4B50 		.ascii	"CLKPWR_PLL1FEED_BITMASK ((uint32_t)0xFF)\000"
 9787      57525F50 
 9787      4C4C3146 
 9787      4545445F 
 9787      4249544D 
 9788              	.LASF373:
 9789 6e11 5F5F4743 		.ascii	"__GCC_HAVE_SYNC_COMPARE_AND_SWAP_4 1\000"
ARM GAS  /tmp/ccKti1Oq.s 			page 245


 9789      435F4841 
 9789      56455F53 
 9789      594E435F 
 9789      434F4D50 
 9790              	.LASF122:
 9791 6e36 5F5F5549 		.ascii	"__UINT64_C(c) c ## ULL\000"
 9791      4E543634 
 9791      5F432863 
 9791      29206320 
 9791      23232055 
 9792              	.LASF303:
 9793 6e4d 5F5F4143 		.ascii	"__ACCUM_MAX__ 0X7FFFFFFFP-15K\000"
 9793      43554D5F 
 9793      4D41585F 
 9793      5F203058 
 9793      37464646 
 9794              	.LASF740:
 9795 6e6b 53797354 		.ascii	"SysTick_CALIB_TENMS_Msk (0xFFFFFFUL << SysTick_VAL_"
 9795      69636B5F 
 9795      43414C49 
 9795      425F5445 
 9795      4E4D535F 
 9796 6e9e 43555252 		.ascii	"CURRENT_Pos)\000"
 9796      454E545F 
 9796      506F7329 
 9796      00
 9797              	.LASF393:
 9798 6eab 5F5F4152 		.ascii	"__ARM_FEATURE_CRYPTO\000"
 9798      4D5F4645 
 9798      41545552 
 9798      455F4352 
 9798      5950544F 
 9799              	.LASF887:
 9800 6ec0 4C50435F 		.ascii	"LPC_FLASH_BASE (0x00000000UL)\000"
 9800      464C4153 
 9800      485F4241 
 9800      53452028 
 9800      30783030 
 9801              	.LASF810:
 9802 6ede 4D50555F 		.ascii	"MPU_RASR_B_Msk (1UL << MPU_RASR_B_Pos)\000"
 9802      52415352 
 9802      5F425F4D 
 9802      736B2028 
 9802      31554C20 
 9803              	.LASF48:
 9804 6f05 5F5F494E 		.ascii	"__INT_LEAST32_TYPE__ long int\000"
 9804      545F4C45 
 9804      41535433 
 9804      325F5459 
 9804      50455F5F 
 9805              	.LASF1309:
 9806 6f23 54696D65 		.ascii	"Timer0_Wait\000"
 9806      72305F57 
 9806      61697400 
 9807              	.LASF919:
 9808 6f2f 4C50435F 		.ascii	"LPC_UART2_BASE (LPC_APB1_BASE + 0x18000)\000"
 9808      55415254 
ARM GAS  /tmp/ccKti1Oq.s 			page 246


 9808      325F4241 
 9808      53452028 
 9808      4C50435F 
 9809              	.LASF779:
 9810 6f58 4D50555F 		.ascii	"MPU_TYPE_IREGION_Pos 16\000"
 9810      54595045 
 9810      5F495245 
 9810      47494F4E 
 9810      5F506F73 
 9811              	.LASF917:
 9812 6f70 4C50435F 		.ascii	"LPC_TIM2_BASE (LPC_APB1_BASE + 0x10000)\000"
 9812      54494D32 
 9812      5F424153 
 9812      4520284C 
 9812      50435F41 
 9813              	.LASF932:
 9814 6f98 4C50435F 		.ascii	"LPC_GPDMACH3_BASE (LPC_AHB_BASE + 0x04160)\000"
 9814      4750444D 
 9814      41434833 
 9814      5F424153 
 9814      4520284C 
 9815              	.LASF121:
 9816 6fc3 5F5F5549 		.ascii	"__UINT_LEAST64_MAX__ 0xffffffffffffffffULL\000"
 9816      4E545F4C 
 9816      45415354 
 9816      36345F4D 
 9816      41585F5F 
 9817              	.LASF1015:
 9818 6fee 54494D5F 		.ascii	"TIM_CAP_RISING(n) (_BIT((n * 3)))\000"
 9818      4341505F 
 9818      52495349 
 9818      4E47286E 
 9818      2920285F 
 9819              	.LASF134:
 9820 7010 5F5F5549 		.ascii	"__UINT_FAST64_MAX__ 0xffffffffffffffffULL\000"
 9820      4E545F46 
 9820      41535436 
 9820      345F4D41 
 9820      585F5F20 
 9821              	.LASF1268:
 9822 703a 46756E63 		.ascii	"FunctionalState\000"
 9822      74696F6E 
 9822      616C5374 
 9822      61746500 
 9823              	.LASF1153:
 9824 704a 4C504331 		.ascii	"LPC17XX_PINSEL_H_ \000"
 9824      3758585F 
 9824      50494E53 
 9824      454C5F48 
 9824      5F2000
 9825              	.LASF1186:
 9826 705d 50494E53 		.ascii	"PINSEL_PIN_19 ((19))\000"
 9826      454C5F50 
 9826      494E5F31 
 9826      39202828 
 9826      31392929 
 9827              	.LASF1202:
ARM GAS  /tmp/ccKti1Oq.s 			page 247


 9828 7072 50494E53 		.ascii	"PINSEL_PINMODE_NORMAL ((0))\000"
 9828      454C5F50 
 9828      494E4D4F 
 9828      44455F4E 
 9828      4F524D41 
 9829              	.LASF453:
 9830 708e 5F5F4E45 		.ascii	"__NEWLIB_PATCHLEVEL__ 0\000"
 9830      574C4942 
 9830      5F504154 
 9830      43484C45 
 9830      56454C5F 
 9831              	.LASF1062:
 9832 70a6 434C4B50 		.ascii	"CLKPWR_PLL0STAT_PLLE ((uint32_t)(1<<24))\000"
 9832      57525F50 
 9832      4C4C3053 
 9832      5441545F 
 9832      504C4C45 
 9833              	.LASF1211:
 9834 70cf 5F554152 		.ascii	"_UART1 1\000"
 9834      54312031 
 9834      00
 9835              	.LASF23:
 9836 70d8 5F5F4F52 		.ascii	"__ORDER_LITTLE_ENDIAN__ 1234\000"
 9836      4445525F 
 9836      4C495454 
 9836      4C455F45 
 9836      4E444941 
 9837              	.LASF707:
 9838 70f5 5343425F 		.ascii	"SCB_HFSR_DEBUGEVT_Pos 31\000"
 9838      48465352 
 9838      5F444542 
 9838      55474556 
 9838      545F506F 
 9839              	.LASF440:
 9840 710e 5F5F434D 		.ascii	"__CM3_CMSIS_VERSION_MAIN (0x02)\000"
 9840      335F434D 
 9840      5349535F 
 9840      56455253 
 9840      494F4E5F 
 9841              	.LASF236:
 9842 712e 5F5F4445 		.ascii	"__DEC64_MANT_DIG__ 16\000"
 9842      4336345F 
 9842      4D414E54 
 9842      5F444947 
 9842      5F5F2031 
 9843              	.LASF1250:
 9844 7144 6C6F6E67 		.ascii	"long long unsigned int\000"
 9844      206C6F6E 
 9844      6720756E 
 9844      7369676E 
 9844      65642069 
 9845              	.LASF565:
 9846 715b 55494E54 		.ascii	"UINT_LEAST64_MAX (__UINT_LEAST64_MAX__)\000"
 9846      5F4C4541 
 9846      53543634 
 9846      5F4D4158 
 9846      20285F5F 
ARM GAS  /tmp/ccKti1Oq.s 			page 248


 9847              	.LASF683:
 9848 7183 5343425F 		.ascii	"SCB_SHCSR_MEMFAULTPENDED_Pos 13\000"
 9848      53484353 
 9848      525F4D45 
 9848      4D464155 
 9848      4C545045 
 9849              	.LASF815:
 9850 71a3 4D50555F 		.ascii	"MPU_RASR_ENA_Pos 0\000"
 9850      52415352 
 9850      5F454E41 
 9850      5F506F73 
 9850      203000
 9851              	.LASF1214:
 9852 71b6 5F535049 		.ascii	"_SPI 1\000"
 9852      203100
 9853              	.LASF316:
 9854 71bd 5F5F554C 		.ascii	"__ULACCUM_IBIT__ 32\000"
 9854      41434355 
 9854      4D5F4942 
 9854      49545F5F 
 9854      20333200 
 9855              	.LASF68:
 9856 71d1 5F5F5348 		.ascii	"__SHRT_MAX__ 0x7fff\000"
 9856      52545F4D 
 9856      41585F5F 
 9856      20307837 
 9856      66666600 
 9857              	.LASF568:
 9858 71e5 55494E54 		.ascii	"UINT_FAST8_MAX (__UINT_FAST8_MAX__)\000"
 9858      5F464153 
 9858      54385F4D 
 9858      41582028 
 9858      5F5F5549 
 9859              	.LASF30:
 9860 7209 5F5F5054 		.ascii	"__PTRDIFF_TYPE__ int\000"
 9860      52444946 
 9860      465F5459 
 9860      50455F5F 
 9860      20696E74 
 9861              	.LASF822:
 9862 721e 436F7265 		.ascii	"CoreDebug_DHCSR_S_RETIRE_ST_Msk (1UL << CoreDebug_D"
 9862      44656275 
 9862      675F4448 
 9862      4353525F 
 9862      535F5245 
 9863 7251 48435352 		.ascii	"HCSR_S_RETIRE_ST_Pos)\000"
 9863      5F535F52 
 9863      45544952 
 9863      455F5354 
 9863      5F506F73 
 9864              	.LASF406:
 9865 7267 5F5F4150 		.ascii	"__APCS_32__ 1\000"
 9865      43535F33 
 9865      325F5F20 
 9865      3100
 9866              	.LASF74:
 9867 7275 5F5F5749 		.ascii	"__WINT_MAX__ 0xffffffffU\000"
ARM GAS  /tmp/ccKti1Oq.s 			page 249


 9867      4E545F4D 
 9867      41585F5F 
 9867      20307866 
 9867      66666666 
 9868              	.LASF466:
 9869 728e 5F5F474E 		.ascii	"__GNU_VISIBLE 0\000"
 9869      555F5649 
 9869      5349424C 
 9869      45203000 
 9870              	.LASF291:
 9871 729e 5F5F5341 		.ascii	"__SACCUM_IBIT__ 8\000"
 9871      4343554D 
 9871      5F494249 
 9871      545F5F20 
 9871      3800
 9872              	.LASF336:
 9873 72b0 5F5F4451 		.ascii	"__DQ_FBIT__ 63\000"
 9873      5F464249 
 9873      545F5F20 
 9873      363300
 9874              	.LASF198:
 9875 72bf 5F5F464C 		.ascii	"__FLT32_HAS_DENORM__ 1\000"
 9875      5433325F 
 9875      4841535F 
 9875      44454E4F 
 9875      524D5F5F 
 9876              	.LASF60:
 9877 72d6 5F5F5549 		.ascii	"__UINT_FAST32_TYPE__ unsigned int\000"
 9877      4E545F46 
 9877      41535433 
 9877      325F5459 
 9877      50455F5F 
 9878              	.LASF992:
 9879 72f8 50415241 		.ascii	"PARAM_SETSTATE(State) ((State==RESET) || (State==SE"
 9879      4D5F5345 
 9879      54535441 
 9879      54452853 
 9879      74617465 
 9880 732b 54292900 		.ascii	"T))\000"
 9881              	.LASF921:
 9882 732f 4C50435F 		.ascii	"LPC_I2C2_BASE (LPC_APB1_BASE + 0x20000)\000"
 9882      49324332 
 9882      5F424153 
 9882      4520284C 
 9882      50435F41 
 9883              	.LASF706:
 9884 7357 5343425F 		.ascii	"SCB_CFSR_MEMFAULTSR_Msk (0xFFUL << SCB_CFSR_MEMFAUL"
 9884      43465352 
 9884      5F4D454D 
 9884      4641554C 
 9884      5453525F 
 9885 738a 5453525F 		.ascii	"TSR_Pos)\000"
 9885      506F7329 
 9885      00
 9886              	.LASF55:
 9887 7393 5F5F494E 		.ascii	"__INT_FAST16_TYPE__ int\000"
 9887      545F4641 
ARM GAS  /tmp/ccKti1Oq.s 			page 250


 9887      53543136 
 9887      5F545950 
 9887      455F5F20 
 9888              	.LASF951:
 9889 73ab 4C50435F 		.ascii	"LPC_TIM1 ((LPC_TIM_TypeDef *) LPC_TIM1_BASE )\000"
 9889      54494D31 
 9889      2028284C 
 9889      50435F54 
 9889      494D5F54 
 9890              	.LASF528:
 9891 73d9 5F55494E 		.ascii	"_UINTMAX_T_DECLARED \000"
 9891      544D4158 
 9891      5F545F44 
 9891      45434C41 
 9891      52454420 
 9892              	.LASF700:
 9893 73ee 5343425F 		.ascii	"SCB_SHCSR_MEMFAULTACT_Msk (1UL << SCB_SHCSR_MEMFAUL"
 9893      53484353 
 9893      525F4D45 
 9893      4D464155 
 9893      4C544143 
 9894 7421 54414354 		.ascii	"TACT_Pos)\000"
 9894      5F506F73 
 9894      2900
 9895              	.LASF292:
 9896 742b 5F5F5341 		.ascii	"__SACCUM_MIN__ (-0X1P7HK-0X1P7HK)\000"
 9896      4343554D 
 9896      5F4D494E 
 9896      5F5F2028 
 9896      2D305831 
 9897              	.LASF278:
 9898 744d 5F5F554C 		.ascii	"__ULFRACT_MAX__ 0XFFFFFFFFP-32ULR\000"
 9898      46524143 
 9898      545F4D41 
 9898      585F5F20 
 9898      30584646 
 9899              	.LASF1289:
 9900 746f 50726573 		.ascii	"PrescaleValue\000"
 9900      63616C65 
 9900      56616C75 
 9900      6500
 9901              	.LASF663:
 9902 747d 5343425F 		.ascii	"SCB_CCR_BFHFNMIGN_Pos 8\000"
 9902      4343525F 
 9902      42464846 
 9902      4E4D4947 
 9902      4E5F506F 
 9903              	.LASF420:
 9904 7495 5F5F4152 		.ascii	"__ARM_FEATURE_FMA\000"
 9904      4D5F4645 
 9904      41545552 
 9904      455F464D 
 9904      4100
 9905              	.LASF313:
 9906 74a7 5F5F4C41 		.ascii	"__LACCUM_MAX__ 0X7FFFFFFFFFFFFFFFP-31LK\000"
 9906      4343554D 
 9906      5F4D4158 
ARM GAS  /tmp/ccKti1Oq.s 			page 251


 9906      5F5F2030 
 9906      58374646 
 9907              	.LASF35:
 9908 74cf 5F5F4348 		.ascii	"__CHAR16_TYPE__ short unsigned int\000"
 9908      41523136 
 9908      5F545950 
 9908      455F5F20 
 9908      73686F72 
 9909              	.LASF664:
 9910 74f2 5343425F 		.ascii	"SCB_CCR_BFHFNMIGN_Msk (1UL << SCB_CCR_BFHFNMIGN_Pos"
 9910      4343525F 
 9910      42464846 
 9910      4E4D4947 
 9910      4E5F4D73 
 9911 7525 2900     		.ascii	")\000"
 9912              	.LASF753:
 9913 7527 49544D5F 		.ascii	"ITM_TCR_SYNCENA_Pos 2\000"
 9913      5443525F 
 9913      53594E43 
 9913      454E415F 
 9913      506F7320 
 9914              	.LASF216:
 9915 753d 5F5F464C 		.ascii	"__FLT32X_DIG__ 15\000"
 9915      54333258 
 9915      5F444947 
 9915      5F5F2031 
 9915      3500
 9916              	.LASF841:
 9917 754f 436F7265 		.ascii	"CoreDebug_DCRSR_REGWnR_Pos 16\000"
 9917      44656275 
 9917      675F4443 
 9917      5253525F 
 9917      52454757 
 9918              	.LASF1171:
 9919 756d 50494E53 		.ascii	"PINSEL_PIN_4 ((4))\000"
 9919      454C5F50 
 9919      494E5F34 
 9919      20282834 
 9919      292900
 9920              	.LASF348:
 9921 7580 5F5F5554 		.ascii	"__UTQ_FBIT__ 128\000"
 9921      515F4642 
 9921      49545F5F 
 9921      20313238 
 9921      00
 9922              	.LASF802:
 9923 7591 4D50555F 		.ascii	"MPU_RASR_AP_Msk (7UL << MPU_RASR_AP_Pos)\000"
 9923      52415352 
 9923      5F41505F 
 9923      4D736B20 
 9923      2837554C 
 9924              	.LASF676:
 9925 75ba 5343425F 		.ascii	"SCB_SHCSR_BUSFAULTENA_Msk (1UL << SCB_SHCSR_BUSFAUL"
 9925      53484353 
 9925      525F4255 
 9925      53464155 
 9925      4C54454E 
ARM GAS  /tmp/ccKti1Oq.s 			page 252


 9926 75ed 54454E41 		.ascii	"TENA_Pos)\000"
 9926      5F506F73 
 9926      2900
 9927              	.LASF1090:
 9928 75f7 434C4B50 		.ascii	"CLKPWR_PCON_BORD ((uint32_t)(1<<4))\000"
 9928      57525F50 
 9928      434F4E5F 
 9928      424F5244 
 9928      20282875 
 9929              	.LASF901:
 9930 761b 4C50435F 		.ascii	"LPC_PWM1_BASE (LPC_APB0_BASE + 0x18000)\000"
 9930      50574D31 
 9930      5F424153 
 9930      4520284C 
 9930      50435F41 
 9931              	.LASF324:
 9932 7643 5F5F4C4C 		.ascii	"__LLACCUM_EPSILON__ 0x1P-31LLK\000"
 9932      41434355 
 9932      4D5F4550 
 9932      53494C4F 
 9932      4E5F5F20 
 9933              	.LASF12:
 9934 7662 5F5F4649 		.ascii	"__FINITE_MATH_ONLY__ 0\000"
 9934      4E495445 
 9934      5F4D4154 
 9934      485F4F4E 
 9934      4C595F5F 
 9935              	.LASF665:
 9936 7679 5343425F 		.ascii	"SCB_CCR_DIV_0_TRP_Pos 4\000"
 9936      4343525F 
 9936      4449565F 
 9936      305F5452 
 9936      505F506F 
 9937              	.LASF125:
 9938 7691 5F5F494E 		.ascii	"__INT_FAST16_MAX__ 0x7fffffff\000"
 9938      545F4641 
 9938      53543136 
 9938      5F4D4158 
 9938      5F5F2030 
 9939              	.LASF474:
 9940 76af 5F5F6861 		.ascii	"__have_longlong64 1\000"
 9940      76655F6C 
 9940      6F6E676C 
 9940      6F6E6736 
 9940      34203100 
 9941              	.LASF609:
 9942 76c3 5343425F 		.ascii	"SCB_CPUID_IMPLEMENTER_Pos 24\000"
 9942      43505549 
 9942      445F494D 
 9942      504C454D 
 9942      454E5445 
 9943              	.LASF767:
 9944 76e0 49544D5F 		.ascii	"ITM_LSR_Access_Pos 1\000"
 9944      4C53525F 
 9944      41636365 
 9944      73735F50 
 9944      6F732031 
ARM GAS  /tmp/ccKti1Oq.s 			page 253


 9945              	.LASF1052:
 9946 76f5 434C4B50 		.ascii	"CLKPWR_CLKOUTCFG_CLKOUT_ACT ((uint32_t)(1<<9))\000"
 9946      57525F43 
 9946      4C4B4F55 
 9946      54434647 
 9946      5F434C4B 
 9947              	.LASF825:
 9948 7724 436F7265 		.ascii	"CoreDebug_DHCSR_S_SLEEP_Pos 18\000"
 9948      44656275 
 9948      675F4448 
 9948      4353525F 
 9948      535F534C 
 9949              	.LASF823:
 9950 7743 436F7265 		.ascii	"CoreDebug_DHCSR_S_LOCKUP_Pos 19\000"
 9950      44656275 
 9950      675F4448 
 9950      4353525F 
 9950      535F4C4F 
 9951              	.LASF896:
 9952 7763 4C50435F 		.ascii	"LPC_WDT_BASE (LPC_APB0_BASE + 0x00000)\000"
 9952      5744545F 
 9952      42415345 
 9952      20284C50 
 9952      435F4150 
 9953              	.LASF530:
 9954 778a 5F55494E 		.ascii	"_UINTPTR_T_DECLARED \000"
 9954      54505452 
 9954      5F545F44 
 9954      45434C41 
 9954      52454420 
 9955              	.LASF943:
 9956 779f 4C50435F 		.ascii	"LPC_SC ((LPC_SC_TypeDef *) LPC_SC_BASE )\000"
 9956      53432028 
 9956      284C5043 
 9956      5F53435F 
 9956      54797065 
 9957              	.LASF693:
 9958 77c8 5343425F 		.ascii	"SCB_SHCSR_SVCALLACT_Pos 7\000"
 9958      53484353 
 9958      525F5356 
 9958      43414C4C 
 9958      4143545F 
 9959              	.LASF318:
 9960 77e2 5F5F554C 		.ascii	"__ULACCUM_MAX__ 0XFFFFFFFFFFFFFFFFP-32ULK\000"
 9960      41434355 
 9960      4D5F4D41 
 9960      585F5F20 
 9960      30584646 
 9961              	.LASF1192:
 9962 780c 50494E53 		.ascii	"PINSEL_PIN_25 ((25))\000"
 9962      454C5F50 
 9962      494E5F32 
 9962      35202828 
 9962      32352929 
 9963              	.LASF1040:
 9964 7821 4C504331 		.ascii	"LPC17XX_CLKPWR_H_ \000"
 9964      3758585F 
ARM GAS  /tmp/ccKti1Oq.s 			page 254


 9964      434C4B50 
 9964      57525F48 
 9964      5F2000
 9965              	.LASF1049:
 9966 7834 434C4B50 		.ascii	"CLKPWR_CLKOUTCFG_CLKOUTSEL_RTC ((uint32_t)(0x04))\000"
 9966      57525F43 
 9966      4C4B4F55 
 9966      54434647 
 9966      5F434C4B 
 9967              	.LASF1308:
 9968 7866 54696D65 		.ascii	"Timer0_us_Wait\000"
 9968      72305F75 
 9968      735F5761 
 9968      697400
 9969              	.LASF1334:
 9970 7875 54494D5F 		.ascii	"TIM_ConverUSecToVal\000"
 9970      436F6E76 
 9970      65725553 
 9970      6563546F 
 9970      56616C00 
 9971              	.LASF581:
 9972 7889 53495A45 		.ascii	"SIZE_MAX (__SIZE_MAX__)\000"
 9972      5F4D4158 
 9972      20285F5F 
 9972      53495A45 
 9972      5F4D4158 
 9973              	.LASF1065:
 9974 78a1 434C4B50 		.ascii	"CLKPWR_PLL0FEED_BITMASK ((uint32_t)0xFF)\000"
 9974      57525F50 
 9974      4C4C3046 
 9974      4545445F 
 9974      4249544D 
 9975              	.LASF337:
 9976 78ca 5F5F4451 		.ascii	"__DQ_IBIT__ 0\000"
 9976      5F494249 
 9976      545F5F20 
 9976      3000
 9977              	.LASF1106:
 9978 78d8 434C4B50 		.ascii	"CLKPWR_PCLKSEL_ADC ((uint32_t)(24))\000"
 9978      57525F50 
 9978      434C4B53 
 9978      454C5F41 
 9978      44432028 
 9979              	.LASF685:
 9980 78fc 5343425F 		.ascii	"SCB_SHCSR_USGFAULTPENDED_Pos 12\000"
 9980      53484353 
 9980      525F5553 
 9980      47464155 
 9980      4C545045 
 9981              	.LASF1293:
 9982 791c 54494D5F 		.ascii	"TIM_COUNTERCFG_Type\000"
 9982      434F554E 
 9982      54455243 
 9982      46475F54 
 9982      79706500 
 9983              	.LASF1223:
 9984 7930 5F574454 		.ascii	"_WDT 1\000"
ARM GAS  /tmp/ccKti1Oq.s 			page 255


 9984      203100
 9985              	.LASF831:
 9986 7937 436F7265 		.ascii	"CoreDebug_DHCSR_C_SNAPSTALL_Pos 5\000"
 9986      44656275 
 9986      675F4448 
 9986      4353525F 
 9986      435F534E 
 9987              	.LASF611:
 9988 7959 5343425F 		.ascii	"SCB_CPUID_VARIANT_Pos 20\000"
 9988      43505549 
 9988      445F5641 
 9988      5249414E 
 9988      545F506F 
 9989              	.LASF877:
 9990 7972 496E7465 		.ascii	"InterruptType ((InterruptType_Type *) SCS_BASE)\000"
 9990      72727570 
 9990      74547970 
 9990      65202828 
 9990      496E7465 
 9991              	.LASF863:
 9992 79a2 436F7265 		.ascii	"CoreDebug_DEMCR_VC_CHKERR_Pos 6\000"
 9992      44656275 
 9992      675F4445 
 9992      4D43525F 
 9992      56435F43 
 9993              	.LASF1226:
 9994 79c2 5F414443 		.ascii	"_ADC 1\000"
 9994      203100
 9995              	.LASF524:
 9996 79c9 5F494E54 		.ascii	"_INT64_T_DECLARED \000"
 9996      36345F54 
 9996      5F444543 
 9996      4C415245 
 9996      442000
 9997              	.LASF1303:
 9998 79dc 46616C6C 		.ascii	"FallingEdge\000"
 9998      696E6745 
 9998      64676500 
 9999              	.LASF1086:
 10000 79e8 434C4B50 		.ascii	"CLKPWR_PCON_PM0 ((uint32_t)(1<<0))\000"
 10000      57525F50 
 10000      434F4E5F 
 10000      504D3020 
 10000      28287569 
 10001              	.LASF674:
 10002 7a0b 5343425F 		.ascii	"SCB_SHCSR_USGFAULTENA_Msk (1UL << SCB_SHCSR_USGFAUL"
 10002      53484353 
 10002      525F5553 
 10002      47464155 
 10002      4C54454E 
 10003 7a3e 54454E41 		.ascii	"TENA_Pos)\000"
 10003      5F506F73 
 10003      2900
 10004              	.LASF1135:
 10005 7a48 434C4B50 		.ascii	"CLKPWR_PCONP_PCAD ((uint32_t)(1<<12))\000"
 10005      57525F50 
 10005      434F4E50 
ARM GAS  /tmp/ccKti1Oq.s 			page 256


 10005      5F504341 
 10005      44202828 
 10006              	.LASF728:
 10007 7a6e 53797354 		.ascii	"SysTick_CTRL_TICKINT_Msk (1UL << SysTick_CTRL_TICKI"
 10007      69636B5F 
 10007      4354524C 
 10007      5F544943 
 10007      4B494E54 
 10008 7aa1 4E545F50 		.ascii	"NT_Pos)\000"
 10008      6F732900 
 10009              	.LASF1101:
 10010 7aa9 434C4B50 		.ascii	"CLKPWR_PCLKSEL_PWM1 ((uint32_t)(12))\000"
 10010      57525F50 
 10010      434C4B53 
 10010      454C5F50 
 10010      574D3120 
 10011              	.LASF1121:
 10012 7ace 434C4B50 		.ascii	"CLKPWR_PCLKSEL_SYSCON ((uint32_t)(60))\000"
 10012      57525F50 
 10012      434C4B53 
 10012      454C5F53 
 10012      5953434F 
 10013              	.LASF1264:
 10014 7af5 52455345 		.ascii	"RESET\000"
 10014      5400
 10015              	.LASF349:
 10016 7afb 5F5F5554 		.ascii	"__UTQ_IBIT__ 0\000"
 10016      515F4942 
 10016      49545F5F 
 10016      203000
 10017              	.LASF352:
 10018 7b0a 5F5F5341 		.ascii	"__SA_FBIT__ 15\000"
 10018      5F464249 
 10018      545F5F20 
 10018      313500
 10019              	.LASF910:
 10020 7b19 4C50435F 		.ascii	"LPC_CANAF_BASE (LPC_APB0_BASE + 0x3C000)\000"
 10020      43414E41 
 10020      465F4241 
 10020      53452028 
 10020      4C50435F 
 10021              	.LASF222:
 10022 7b42 5F5F464C 		.ascii	"__FLT32X_MAX__ 1.7976931348623157e+308F32x\000"
 10022      54333258 
 10022      5F4D4158 
 10022      5F5F2031 
 10022      2E373937 
 10023              	.LASF1199:
 10024 7b6d 50494E53 		.ascii	"PINSEL_PINMODE_PULLUP ((0))\000"
 10024      454C5F50 
 10024      494E4D4F 
 10024      44455F50 
 10024      554C4C55 
 10025              	.LASF195:
 10026 7b89 5F5F464C 		.ascii	"__FLT32_MIN__ 1.1754943508222875e-38F32\000"
 10026      5433325F 
 10026      4D494E5F 
ARM GAS  /tmp/ccKti1Oq.s 			page 257


 10026      5F20312E 
 10026      31373534 
 10027              	.LASF1188:
 10028 7bb1 50494E53 		.ascii	"PINSEL_PIN_21 ((21))\000"
 10028      454C5F50 
 10028      494E5F32 
 10028      31202828 
 10028      32312929 
 10029              	.LASF432:
 10030 7bc6 5F5F454C 		.ascii	"__ELF__ 1\000"
 10030      465F5F20 
 10030      3100
 10031              	.LASF554:
 10032 7bd0 494E5433 		.ascii	"INT32_MIN (-__INT32_MAX__ - 1)\000"
 10032      325F4D49 
 10032      4E20282D 
 10032      5F5F494E 
 10032      5433325F 
 10033              	.LASF409:
 10034 7bef 5F5F5448 		.ascii	"__THUMBEL__ 1\000"
 10034      554D4245 
 10034      4C5F5F20 
 10034      3100
 10035              	.LASF681:
 10036 7bfd 5343425F 		.ascii	"SCB_SHCSR_BUSFAULTPENDED_Pos 14\000"
 10036      53484353 
 10036      525F4255 
 10036      53464155 
 10036      4C545045 
 10037              	.LASF1030:
 10038 7c1d 54494D5F 		.ascii	"TIM_CTCR_INPUT_MASK 0xC\000"
 10038      43544352 
 10038      5F494E50 
 10038      55545F4D 
 10038      41534B20 
 10039              	.LASF942:
 10040 7c35 4C50435F 		.ascii	"LPC_GPIO4_BASE (LPC_GPIO_BASE + 0x00080)\000"
 10040      4750494F 
 10040      345F4241 
 10040      53452028 
 10040      4C50435F 
 10041              	.LASF331:
 10042 7c5e 5F5F5151 		.ascii	"__QQ_IBIT__ 0\000"
 10042      5F494249 
 10042      545F5F20 
 10042      3000
 10043              	.LASF987:
 10044 7c6c 4C50435F 		.ascii	"LPC_GPDMACH5 ((LPC_GPDMACH_TypeDef *) LPC_GPDMACH5_"
 10044      4750444D 
 10044      41434835 
 10044      2028284C 
 10044      50435F47 
 10045 7c9f 42415345 		.ascii	"BASE )\000"
 10045      202900
 10046              	.LASF986:
 10047 7ca6 4C50435F 		.ascii	"LPC_GPDMACH4 ((LPC_GPDMACH_TypeDef *) LPC_GPDMACH4_"
 10047      4750444D 
ARM GAS  /tmp/ccKti1Oq.s 			page 258


 10047      41434834 
 10047      2028284C 
 10047      50435F47 
 10048 7cd9 42415345 		.ascii	"BASE )\000"
 10048      202900
 10049              	.LASF1291:
 10050 7ce0 436F756E 		.ascii	"CounterOption\000"
 10050      7465724F 
 10050      7074696F 
 10050      6E00
 10051              	.LASF1310:
 10052 7cee 74696D65 		.ascii	"time\000"
 10052      00
 10053              	.LASF597:
 10054 7cf3 55494E54 		.ascii	"UINT64_C(x) __UINT64_C(x)\000"
 10054      36345F43 
 10054      28782920 
 10054      5F5F5549 
 10054      4E543634 
 10055              	.LASF320:
 10056 7d0d 5F5F4C4C 		.ascii	"__LLACCUM_FBIT__ 31\000"
 10056      41434355 
 10056      4D5F4642 
 10056      49545F5F 
 10056      20333100 
 10057              	.LASF1206:
 10058 7d21 4C504331 		.ascii	"LPC17XX_LIBCFG_DEFAULT_H_ \000"
 10058      3758585F 
 10058      4C494243 
 10058      46475F44 
 10058      45464155 
 10059              	.LASF3:
 10060 7d3c 5F5F474E 		.ascii	"__GNUC_MINOR__ 1\000"
 10060      55435F4D 
 10060      494E4F52 
 10060      5F5F2031 
 10060      00
 10061              	.LASF345:
 10062 7d4d 5F5F5553 		.ascii	"__USQ_IBIT__ 0\000"
 10062      515F4942 
 10062      49545F5F 
 10062      203000
 10063              	.LASF801:
 10064 7d5c 4D50555F 		.ascii	"MPU_RASR_AP_Pos 24\000"
 10064      52415352 
 10064      5F41505F 
 10064      506F7320 
 10064      323400
 10065              	.LASF52:
 10066 7d6f 5F5F5549 		.ascii	"__UINT_LEAST32_TYPE__ long unsigned int\000"
 10066      4E545F4C 
 10066      45415354 
 10066      33325F54 
 10066      5950455F 
 10067              	.LASF835:
 10068 7d97 436F7265 		.ascii	"CoreDebug_DHCSR_C_STEP_Pos 2\000"
 10068      44656275 
ARM GAS  /tmp/ccKti1Oq.s 			page 259


 10068      675F4448 
 10068      4353525F 
 10068      435F5354 
 10069              	.LASF343:
 10070 7db4 5F5F5548 		.ascii	"__UHQ_IBIT__ 0\000"
 10070      515F4942 
 10070      49545F5F 
 10070      203000
 10071              	.LASF399:
 10072 7dc3 5F5F4152 		.ascii	"__ARM_FEATURE_NUMERIC_MAXMIN\000"
 10072      4D5F4645 
 10072      41545552 
 10072      455F4E55 
 10072      4D455249 
 10073              	.LASF1265:
 10074 7de0 466C6167 		.ascii	"FlagStatus\000"
 10074      53746174 
 10074      757300
 10075              	.LASF574:
 10076 7deb 55494E54 		.ascii	"UINT_FAST32_MAX (__UINT_FAST32_MAX__)\000"
 10076      5F464153 
 10076      5433325F 
 10076      4D415820 
 10076      285F5F55 
 10077              	.LASF380:
 10078 7e11 5F5F4743 		.ascii	"__GCC_ATOMIC_INT_LOCK_FREE 2\000"
 10078      435F4154 
 10078      4F4D4943 
 10078      5F494E54 
 10078      5F4C4F43 
 10079              	.LASF370:
 10080 7e2e 5F5F4348 		.ascii	"__CHAR_UNSIGNED__ 1\000"
 10080      41525F55 
 10080      4E534947 
 10080      4E45445F 
 10080      5F203100 
 10081              	.LASF692:
 10082 7e42 5343425F 		.ascii	"SCB_SHCSR_MONITORACT_Msk (1UL << SCB_SHCSR_MONITORA"
 10082      53484353 
 10082      525F4D4F 
 10082      4E49544F 
 10082      52414354 
 10083 7e75 43545F50 		.ascii	"CT_Pos)\000"
 10083      6F732900 
 10084              	.LASF868:
 10085 7e7d 436F7265 		.ascii	"CoreDebug_DEMCR_VC_MMERR_Msk (1UL << CoreDebug_DEMC"
 10085      44656275 
 10085      675F4445 
 10085      4D43525F 
 10085      56435F4D 
 10086 7eb0 525F5643 		.ascii	"R_VC_MMERR_Pos)\000"
 10086      5F4D4D45 
 10086      52525F50 
 10086      6F732900 
 10087              	.LASF827:
 10088 7ec0 436F7265 		.ascii	"CoreDebug_DHCSR_S_HALT_Pos 17\000"
 10088      44656275 
ARM GAS  /tmp/ccKti1Oq.s 			page 260


 10088      675F4448 
 10088      4353525F 
 10088      535F4841 
 10089              	.LASF793:
 10090 7ede 4D50555F 		.ascii	"MPU_RBAR_ADDR_Pos 5\000"
 10090      52424152 
 10090      5F414444 
 10090      525F506F 
 10090      73203500 
 10091              	.LASF778:
 10092 7ef2 496E7454 		.ascii	"IntType_ACTLR_DISMCYCINT_Msk (1UL << IntType_ACTLR_"
 10092      7970655F 
 10092      4143544C 
 10092      525F4449 
 10092      534D4359 
 10093 7f25 4449534D 		.ascii	"DISMCYCINT_Pos)\000"
 10093      43594349 
 10093      4E545F50 
 10093      6F732900 
 10094              	.LASF791:
 10095 7f35 4D50555F 		.ascii	"MPU_RNR_REGION_Pos 0\000"
 10095      524E525F 
 10095      52454749 
 10095      4F4E5F50 
 10095      6F732030 
 10096              	.LASF848:
 10097 7f4a 436F7265 		.ascii	"CoreDebug_DEMCR_MON_REQ_Msk (1UL << CoreDebug_DEMCR"
 10097      44656275 
 10097      675F4445 
 10097      4D43525F 
 10097      4D4F4E5F 
 10098 7f7d 5F4D4F4E 		.ascii	"_MON_REQ_Pos)\000"
 10098      5F524551 
 10098      5F506F73 
 10098      2900
 10099              	.LASF1038:
 10100 7f8b 50415241 		.ascii	"PARAM_TIM_CAP_MODE_OPT(OPT) ((OPT == TIM_CAPTURE_NO"
 10100      4D5F5449 
 10100      4D5F4341 
 10100      505F4D4F 
 10100      44455F4F 
 10101 7fbe 4E45297C 		.ascii	"NE)||(OPT == TIM_CAPTURE_RISING) ||(OPT == TIM_CAPT"
 10101      7C284F50 
 10101      54203D3D 
 10101      2054494D 
 10101      5F434150 
 10102 7ff1 5552455F 		.ascii	"URE_FALLING)||(OPT == TIM_CAPTURE_ANY))\000"
 10102      46414C4C 
 10102      494E4729 
 10102      7C7C284F 
 10102      5054203D 
 10103              	.LASF515:
 10104 8019 5F494E54 		.ascii	"_INT8_T_DECLARED \000"
 10104      385F545F 
 10104      4445434C 
 10104      41524544 
 10104      2000
ARM GAS  /tmp/ccKti1Oq.s 			page 261


 10105              	.LASF995:
 10106 802b 5F424954 		.ascii	"_BIT(n) (1<<n)\000"
 10106      286E2920 
 10106      28313C3C 
 10106      6E2900
 10107              	.LASF482:
 10108 803a 5F5F5F69 		.ascii	"___int_least32_t_defined 1\000"
 10108      6E745F6C 
 10108      65617374 
 10108      33325F74 
 10108      5F646566 
 10109              	.LASF418:
 10110 8055 5F5F4152 		.ascii	"__ARM_FEATURE_FP16_SCALAR_ARITHMETIC\000"
 10110      4D5F4645 
 10110      41545552 
 10110      455F4650 
 10110      31365F53 
 10111              	.LASF766:
 10112 807a 49544D5F 		.ascii	"ITM_LSR_ByteAcc_Msk (1UL << ITM_LSR_ByteAcc_Pos)\000"
 10112      4C53525F 
 10112      42797465 
 10112      4163635F 
 10112      4D736B20 
 10113              	.LASF299:
 10114 80ab 5F5F5553 		.ascii	"__USACCUM_EPSILON__ 0x1P-8UHK\000"
 10114      41434355 
 10114      4D5F4550 
 10114      53494C4F 
 10114      4E5F5F20 
 10115              	.LASF171:
 10116 80c9 5F5F4442 		.ascii	"__DBL_HAS_QUIET_NAN__ 1\000"
 10116      4C5F4841 
 10116      535F5155 
 10116      4945545F 
 10116      4E414E5F 
 10117              	.LASF955:
 10118 80e1 4C50435F 		.ascii	"LPC_UART0 ((LPC_UART_TypeDef *) LPC_UART0_BASE )\000"
 10118      55415254 
 10118      30202828 
 10118      4C50435F 
 10118      55415254 
 10119              	.LASF1269:
 10120 8112 54494D5F 		.ascii	"TIM_MR0_INT\000"
 10120      4D52305F 
 10120      494E5400 
 10121              	.LASF214:
 10122 811e 5F5F464C 		.ascii	"__FLT64_HAS_QUIET_NAN__ 1\000"
 10122      5436345F 
 10122      4841535F 
 10122      51554945 
 10122      545F4E41 
 10123              	.LASF571:
 10124 8138 55494E54 		.ascii	"UINT_FAST16_MAX (__UINT_FAST16_MAX__)\000"
 10124      5F464153 
 10124      5431365F 
 10124      4D415820 
 10124      285F5F55 
ARM GAS  /tmp/ccKti1Oq.s 			page 262


 10125              	.LASF283:
 10126 815e 5F5F4C4C 		.ascii	"__LLFRACT_MAX__ 0X7FFFFFFFFFFFFFFFP-63LLR\000"
 10126      46524143 
 10126      545F4D41 
 10126      585F5F20 
 10126      30583746 
 10127              	.LASF1311:
 10128 8188 54494D78 		.ascii	"TIMx\000"
 10128      00
 10129              	.LASF394:
 10130 818d 5F5F4152 		.ascii	"__ARM_FEATURE_UNALIGNED 1\000"
 10130      4D5F4645 
 10130      41545552 
 10130      455F554E 
 10130      414C4947 
 10131              	.LASF559:
 10132 81a7 55494E54 		.ascii	"UINT_LEAST32_MAX (__UINT_LEAST32_MAX__)\000"
 10132      5F4C4541 
 10132      53543332 
 10132      5F4D4158 
 10132      20285F5F 
 10133              	.LASF1140:
 10134 81cf 434C4B50 		.ascii	"CLKPWR_PCONP_PCMC ((uint32_t)(1<<17))\000"
 10134      57525F50 
 10134      434F4E50 
 10134      5F50434D 
 10134      43202828 
 10135              	.LASF620:
 10136 81f5 5343425F 		.ascii	"SCB_ICSR_PENDSVSET_Msk (1UL << SCB_ICSR_PENDSVSET_P"
 10136      49435352 
 10136      5F50454E 
 10136      44535653 
 10136      45545F4D 
 10137 8228 6F732900 		.ascii	"os)\000"
 10138              	.LASF629:
 10139 822c 5343425F 		.ascii	"SCB_ICSR_ISRPENDING_Pos 22\000"
 10139      49435352 
 10139      5F495352 
 10139      50454E44 
 10139      494E475F 
 10140              	.LASF1307:
 10141 8247 54494D5F 		.ascii	"TIM_MatchConfigStruct\000"
 10141      4D617463 
 10141      68436F6E 
 10141      66696753 
 10141      74727563 
 10142              	.LASF62:
 10143 825d 5F5F494E 		.ascii	"__INTPTR_TYPE__ int\000"
 10143      54505452 
 10143      5F545950 
 10143      455F5F20 
 10143      696E7400 
 10144              	.LASF653:
 10145 8271 5343425F 		.ascii	"SCB_AIRCR_VECTRESET_Pos 0\000"
 10145      41495243 
 10145      525F5645 
 10145      43545245 
ARM GAS  /tmp/ccKti1Oq.s 			page 263


 10145      5345545F 
 10146              	.LASF63:
 10147 828b 5F5F5549 		.ascii	"__UINTPTR_TYPE__ unsigned int\000"
 10147      4E545054 
 10147      525F5459 
 10147      50455F5F 
 10147      20756E73 
 10148              	.LASF730:
 10149 82a9 53797354 		.ascii	"SysTick_CTRL_ENABLE_Msk (1UL << SysTick_CTRL_ENABLE"
 10149      69636B5F 
 10149      4354524C 
 10149      5F454E41 
 10149      424C455F 
 10150 82dc 5F506F73 		.ascii	"_Pos)\000"
 10150      2900
 10151              	.LASF1281:
 10152 82e2 54494D5F 		.ascii	"TIM_COUNTER_INCAP0\000"
 10152      434F554E 
 10152      5445525F 
 10152      494E4341 
 10152      503000
 10153              	.LASF1282:
 10154 82f5 54494D5F 		.ascii	"TIM_COUNTER_INCAP1\000"
 10154      434F554E 
 10154      5445525F 
 10154      494E4341 
 10154      503100
 10155              	.LASF194:
 10156 8308 5F5F464C 		.ascii	"__FLT32_MAX__ 3.4028234663852886e+38F32\000"
 10156      5433325F 
 10156      4D41585F 
 10156      5F20332E 
 10156      34303238 
 10157              	.LASF159:
 10158 8330 5F5F4442 		.ascii	"__DBL_DIG__ 15\000"
 10158      4C5F4449 
 10158      475F5F20 
 10158      313500
 10159              	.LASF279:
 10160 833f 5F5F554C 		.ascii	"__ULFRACT_EPSILON__ 0x1P-32ULR\000"
 10160      46524143 
 10160      545F4550 
 10160      53494C4F 
 10160      4E5F5F20 
 10161              	.LASF638:
 10162 835e 5343425F 		.ascii	"SCB_VTOR_TBLBASE_Msk (1UL << SCB_VTOR_TBLBASE_Pos)\000"
 10162      56544F52 
 10162      5F54424C 
 10162      42415345 
 10162      5F4D736B 
 10163              	.LASF646:
 10164 8391 5343425F 		.ascii	"SCB_AIRCR_ENDIANESS_Msk (1UL << SCB_AIRCR_ENDIANESS"
 10164      41495243 
 10164      525F454E 
 10164      4449414E 
 10164      4553535F 
 10165 83c4 5F506F73 		.ascii	"_Pos)\000"
ARM GAS  /tmp/ccKti1Oq.s 			page 264


 10165      2900
 10166              	.LASF1112:
 10167 83ca 434C4B50 		.ascii	"CLKPWR_PCLKSEL_I2C1 ((uint32_t)(38))\000"
 10167      57525F50 
 10167      434C4B53 
 10167      454C5F49 
 10167      32433120 
 10168              	.LASF591:
 10169 83ef 55494E54 		.ascii	"UINT8_C(x) __UINT8_C(x)\000"
 10169      385F4328 
 10169      7829205F 
 10169      5F55494E 
 10169      54385F43 
 10170              	.LASF20:
 10171 8407 5F5F5349 		.ascii	"__SIZEOF_SIZE_T__ 4\000"
 10171      5A454F46 
 10171      5F53495A 
 10171      455F545F 
 10171      5F203400 
 10172              	.LASF890:
 10173 841b 4C50435F 		.ascii	"LPC_AHBRAM1_BASE (0x20080000UL)\000"
 10173      41484252 
 10173      414D315F 
 10173      42415345 
 10173      20283078 
 10174              	.LASF45:
 10175 843b 5F5F5549 		.ascii	"__UINT64_TYPE__ long long unsigned int\000"
 10175      4E543634 
 10175      5F545950 
 10175      455F5F20 
 10175      6C6F6E67 
 10176              	.LASF246:
 10177 8462 5F5F4445 		.ascii	"__DEC128_MIN__ 1E-6143DL\000"
 10177      43313238 
 10177      5F4D494E 
 10177      5F5F2031 
 10177      452D3631 
 10178              	.LASF113:
 10179 847b 5F5F494E 		.ascii	"__INT64_C(c) c ## LL\000"
 10179      5436345F 
 10179      43286329 
 10179      20632023 
 10179      23204C4C 
 10180              	.LASF311:
 10181 8490 5F5F4C41 		.ascii	"__LACCUM_IBIT__ 32\000"
 10181      4343554D 
 10181      5F494249 
 10181      545F5F20 
 10181      333200
 10182              	.LASF803:
 10183 84a3 4D50555F 		.ascii	"MPU_RASR_TEX_Pos 19\000"
 10183      52415352 
 10183      5F544558 
 10183      5F506F73 
 10183      20313900 
 10184              	.LASF982:
 10185 84b7 4C50435F 		.ascii	"LPC_GPDMACH0 ((LPC_GPDMACH_TypeDef *) LPC_GPDMACH0_"
ARM GAS  /tmp/ccKti1Oq.s 			page 265


 10185      4750444D 
 10185      41434830 
 10185      2028284C 
 10185      50435F47 
 10186 84ea 42415345 		.ascii	"BASE )\000"
 10186      202900
 10187              	.LASF669:
 10188 84f1 5343425F 		.ascii	"SCB_CCR_USERSETMPEND_Pos 1\000"
 10188      4343525F 
 10188      55534552 
 10188      5345544D 
 10188      50454E44 
 10189              	.LASF1080:
 10190 850c 434C4B50 		.ascii	"CLKPWR_IRCTRIM_BITMASK ((uint32_t)(0x0F))\000"
 10190      57525F49 
 10190      52435452 
 10190      494D5F42 
 10190      49544D41 
 10191              	.LASF557:
 10192 8536 494E545F 		.ascii	"INT_LEAST32_MIN (-__INT_LEAST32_MAX__ - 1)\000"
 10192      4C454153 
 10192      5433325F 
 10192      4D494E20 
 10192      282D5F5F 
 10193              	.LASF920:
 10194 8561 4C50435F 		.ascii	"LPC_UART3_BASE (LPC_APB1_BASE + 0x1C000)\000"
 10194      55415254 
 10194      335F4241 
 10194      53452028 
 10194      4C50435F 
 10195              	.LASF1274:
 10196 858a 54494D5F 		.ascii	"TIM_CR1_INT\000"
 10196      4352315F 
 10196      494E5400 
 10197              	.LASF181:
 10198 8596 5F5F4C44 		.ascii	"__LDBL_MIN__ 2.2250738585072014e-308L\000"
 10198      424C5F4D 
 10198      494E5F5F 
 10198      20322E32 
 10198      32353037 
 10199              	.LASF811:
 10200 85bc 4D50555F 		.ascii	"MPU_RASR_SRD_Pos 8\000"
 10200      52415352 
 10200      5F535244 
 10200      5F506F73 
 10200      203800
 10201              	.LASF301:
 10202 85cf 5F5F4143 		.ascii	"__ACCUM_IBIT__ 16\000"
 10202      43554D5F 
 10202      49424954 
 10202      5F5F2031 
 10202      3600
 10203              	.LASF22:
 10204 85e1 5F5F4249 		.ascii	"__BIGGEST_ALIGNMENT__ 8\000"
 10204      47474553 
 10204      545F414C 
 10204      49474E4D 
ARM GAS  /tmp/ccKti1Oq.s 			page 266


 10204      454E545F 
 10205              	.LASF261:
 10206 85f9 5F5F4652 		.ascii	"__FRACT_IBIT__ 0\000"
 10206      4143545F 
 10206      49424954 
 10206      5F5F2030 
 10206      00
 10207              	.LASF1162:
 10208 860a 50494E53 		.ascii	"PINSEL_PORT_4 ((4))\000"
 10208      454C5F50 
 10208      4F52545F 
 10208      34202828 
 10208      34292900 
 10209              	.LASF376:
 10210 861e 5F5F4743 		.ascii	"__GCC_ATOMIC_CHAR16_T_LOCK_FREE 2\000"
 10210      435F4154 
 10210      4F4D4943 
 10210      5F434841 
 10210      5231365F 
 10211              	.LASF1061:
 10212 8640 434C4B50 		.ascii	"CLKPWR_PLL0STAT_NSEL(n) ((uint32_t)((n>>16)&0xFF))\000"
 10212      57525F50 
 10212      4C4C3053 
 10212      5441545F 
 10212      4E53454C 
 10213              	.LASF1241:
 10214 8673 73686F72 		.ascii	"short int\000"
 10214      7420696E 
 10214      7400
 10215              	.LASF679:
 10216 867d 5343425F 		.ascii	"SCB_SHCSR_SVCALLPENDED_Pos 15\000"
 10216      53484353 
 10216      525F5356 
 10216      43414C4C 
 10216      50454E44 
 10217              	.LASF265:
 10218 869b 5F5F5546 		.ascii	"__UFRACT_FBIT__ 16\000"
 10218      52414354 
 10218      5F464249 
 10218      545F5F20 
 10218      313600
 10219              	.LASF118:
 10220 86ae 5F5F5549 		.ascii	"__UINT16_C(c) c\000"
 10220      4E543136 
 10220      5F432863 
 10220      29206300 
 10221              	.LASF1255:
 10222 86be 75696E74 		.ascii	"uint64_t\000"
 10222      36345F74 
 10222      00
 10223              	.LASF132:
 10224 86c7 5F5F5549 		.ascii	"__UINT_FAST16_MAX__ 0xffffffffU\000"
 10224      4E545F46 
 10224      41535431 
 10224      365F4D41 
 10224      585F5F20 
 10225              	.LASF511:
ARM GAS  /tmp/ccKti1Oq.s 			page 267


 10226 86e7 5F5F4C45 		.ascii	"__LEAST16 \"h\"\000"
 10226      41535431 
 10226      36202268 
 10226      2200
 10227              	.LASF369:
 10228 86f5 5F5F4E4F 		.ascii	"__NO_INLINE__ 1\000"
 10228      5F494E4C 
 10228      494E455F 
 10228      5F203100 
 10229              	.LASF1321:
 10230 8705 54696D65 		.ascii	"TimerCounterMode\000"
 10230      72436F75 
 10230      6E746572 
 10230      4D6F6465 
 10230      00
 10231              	.LASF843:
 10232 8716 436F7265 		.ascii	"CoreDebug_DCRSR_REGSEL_Pos 0\000"
 10232      44656275 
 10232      675F4443 
 10232      5253525F 
 10232      52454753 
 10233              	.LASF560:
 10234 8733 494E5436 		.ascii	"INT64_MIN (-__INT64_MAX__ - 1)\000"
 10234      345F4D49 
 10234      4E20282D 
 10234      5F5F494E 
 10234      5436345F 
 10235              	.LASF930:
 10236 8752 4C50435F 		.ascii	"LPC_GPDMACH1_BASE (LPC_AHB_BASE + 0x04120)\000"
 10236      4750444D 
 10236      41434831 
 10236      5F424153 
 10236      4520284C 
 10237              	.LASF603:
 10238 877d 5F5F5553 		.ascii	"__USAT(ARG1,ARG2) ({ uint32_t __RES, __ARG1 = (ARG1"
 10238      41542841 
 10238      5247312C 
 10238      41524732 
 10238      2920287B 
 10239 87b0 293B205F 		.ascii	"); __ASM (\"usat %0, %1, %2\" : \"=r\" (__RES) : \""
 10239      5F41534D 
 10239      20282275 
 10239      73617420 
 10239      25302C20 
 10240 87de 49222028 		.ascii	"I\" (ARG2), \"r\" (__ARG1) ); __RES; })\000"
 10240      41524732 
 10240      292C2022 
 10240      72222028 
 10240      5F5F4152 
 10241              	.LASF6:
 10242 8803 5F5F4154 		.ascii	"__ATOMIC_RELAXED 0\000"
 10242      4F4D4943 
 10242      5F52454C 
 10242      41584544 
 10242      203000
 10243              	.LASF817:
 10244 8816 436F7265 		.ascii	"CoreDebug_DHCSR_DBGKEY_Pos 16\000"
ARM GAS  /tmp/ccKti1Oq.s 			page 268


 10244      44656275 
 10244      675F4448 
 10244      4353525F 
 10244      4442474B 
 10245              	.LASF795:
 10246 8834 4D50555F 		.ascii	"MPU_RBAR_VALID_Pos 4\000"
 10246      52424152 
 10246      5F56414C 
 10246      49445F50 
 10246      6F732034 
 10247              	.LASF170:
 10248 8849 5F5F4442 		.ascii	"__DBL_HAS_INFINITY__ 1\000"
 10248      4C5F4841 
 10248      535F494E 
 10248      46494E49 
 10248      54595F5F 
 10249              	.LASF832:
 10250 8860 436F7265 		.ascii	"CoreDebug_DHCSR_C_SNAPSTALL_Msk (1UL << CoreDebug_D"
 10250      44656275 
 10250      675F4448 
 10250      4353525F 
 10250      435F534E 
 10251 8893 48435352 		.ascii	"HCSR_C_SNAPSTALL_Pos)\000"
 10251      5F435F53 
 10251      4E415053 
 10251      54414C4C 
 10251      5F506F73 
 10252              	.LASF92:
 10253 88a9 5F5F5349 		.ascii	"__SIG_ATOMIC_MAX__ 0x7fffffff\000"
 10253      475F4154 
 10253      4F4D4943 
 10253      5F4D4158 
 10253      5F5F2030 
 10254              	.LASF201:
 10255 88c7 5F5F464C 		.ascii	"__FLT64_MANT_DIG__ 53\000"
 10255      5436345F 
 10255      4D414E54 
 10255      5F444947 
 10255      5F5F2035 
 10256              	.LASF547:
 10257 88dd 55494E54 		.ascii	"UINT_LEAST8_MAX (__UINT_LEAST8_MAX__)\000"
 10257      5F4C4541 
 10257      5354385F 
 10257      4D415820 
 10257      285F5F55 
 10258              	.LASF1319:
 10259 8903 54494D5F 		.ascii	"TIM_DeInit\000"
 10259      4465496E 
 10259      697400
 10260              	.LASF1027:
 10261 890e 54494D5F 		.ascii	"TIM_EM_MASK(n) (_SBF(((n << 1) + 4), 0x03))\000"
 10261      454D5F4D 
 10261      41534B28 
 10261      6E292028 
 10261      5F534246 
 10262              	.LASF608:
 10263 893a 5F5F494F 		.ascii	"__IO volatile\000"
ARM GAS  /tmp/ccKti1Oq.s 			page 269


 10263      20766F6C 
 10263      6174696C 
 10263      6500
 10264              	.LASF971:
 10265 8948 4C50435F 		.ascii	"LPC_DAC ((LPC_DAC_TypeDef *) LPC_DAC_BASE )\000"
 10265      44414320 
 10265      28284C50 
 10265      435F4441 
 10265      435F5479 
 10266              	.LASF1191:
 10267 8974 50494E53 		.ascii	"PINSEL_PIN_24 ((24))\000"
 10267      454C5F50 
 10267      494E5F32 
 10267      34202828 
 10267      32342929 
 10268              	.LASF1151:
 10269 8989 434C4B50 		.ascii	"CLKPWR_PCONP_PCENET ((uint32_t)(1<<30))\000"
 10269      57525F50 
 10269      434F4E50 
 10269      5F504345 
 10269      4E455420 
 10270              	.LASF1075:
 10271 89b1 434C4B50 		.ascii	"CLKPWR_PLL1STAT_PLLC ((uint32_t)(1<<9))\000"
 10271      57525F50 
 10271      4C4C3153 
 10271      5441545F 
 10271      504C4C43 
 10272              	.LASF1158:
 10273 89d9 50494E53 		.ascii	"PINSEL_PORT_0 ((0))\000"
 10273      454C5F50 
 10273      4F52545F 
 10273      30202828 
 10273      30292900 
 10274              	.LASF17:
 10275 89ed 5F5F5349 		.ascii	"__SIZEOF_FLOAT__ 4\000"
 10275      5A454F46 
 10275      5F464C4F 
 10275      41545F5F 
 10275      203400
 10276              	.LASF1263:
 10277 8a00 54525545 		.ascii	"TRUE\000"
 10277      00
 10278              	.LASF239:
 10279 8a05 5F5F4445 		.ascii	"__DEC64_MIN__ 1E-383DD\000"
 10279      4336345F 
 10279      4D494E5F 
 10279      5F203145 
 10279      2D333833 
 10280              	.LASF869:
 10281 8a1c 436F7265 		.ascii	"CoreDebug_DEMCR_VC_CORERESET_Pos 0\000"
 10281      44656275 
 10281      675F4445 
 10281      4D43525F 
 10281      56435F43 
 10282              	.LASF164:
 10283 8a3f 5F5F4442 		.ascii	"__DBL_DECIMAL_DIG__ 17\000"
 10283      4C5F4445 
ARM GAS  /tmp/ccKti1Oq.s 			page 270


 10283      43494D41 
 10283      4C5F4449 
 10283      475F5F20 
 10284              	.LASF621:
 10285 8a56 5343425F 		.ascii	"SCB_ICSR_PENDSVCLR_Pos 27\000"
 10285      49435352 
 10285      5F50454E 
 10285      44535643 
 10285      4C525F50 
 10286              	.LASF1125:
 10287 8a70 434C4B50 		.ascii	"CLKPWR_PCLKSEL_CCLK_DIV_2 ((uint32_t)(2))\000"
 10287      57525F50 
 10287      434C4B53 
 10287      454C5F43 
 10287      434C4B5F 
 10288              	.LASF475:
 10289 8a9a 5F5F6861 		.ascii	"__have_long32 1\000"
 10289      76655F6C 
 10289      6F6E6733 
 10289      32203100 
 10290              	.LASF545:
 10291 8aaa 494E545F 		.ascii	"INT_LEAST8_MIN (-__INT_LEAST8_MAX__ - 1)\000"
 10291      4C454153 
 10291      54385F4D 
 10291      494E2028 
 10291      2D5F5F49 
 10292              	.LASF1267:
 10293 8ad3 454E4142 		.ascii	"ENABLE\000"
 10293      4C4500
 10294              	.LASF315:
 10295 8ada 5F5F554C 		.ascii	"__ULACCUM_FBIT__ 32\000"
 10295      41434355 
 10295      4D5F4642 
 10295      49545F5F 
 10295      20333200 
 10296              	.LASF645:
 10297 8aee 5343425F 		.ascii	"SCB_AIRCR_ENDIANESS_Pos 15\000"
 10297      41495243 
 10297      525F454E 
 10297      4449414E 
 10297      4553535F 
 10298              	.LASF1315:
 10299 8b09 54494D5F 		.ascii	"TIM_ConfigMatch\000"
 10299      436F6E66 
 10299      69674D61 
 10299      74636800 
 10300              	.LASF1180:
 10301 8b19 50494E53 		.ascii	"PINSEL_PIN_13 ((13))\000"
 10301      454C5F50 
 10301      494E5F31 
 10301      33202828 
 10301      31332929 
 10302              	.LASF764:
 10303 8b2e 49544D5F 		.ascii	"ITM_IMCR_INTEGRATION_Msk (1UL << ITM_IMCR_INTEGRATI"
 10303      494D4352 
 10303      5F494E54 
 10303      45475241 
ARM GAS  /tmp/ccKti1Oq.s 			page 271


 10303      54494F4E 
 10304 8b61 4F4E5F50 		.ascii	"ON_Pos)\000"
 10304      6F732900 
 10305              	.LASF526:
 10306 8b69 5F5F696E 		.ascii	"__int64_t_defined 1\000"
 10306      7436345F 
 10306      745F6465 
 10306      66696E65 
 10306      64203100 
 10307              	.LASF96:
 10308 8b7d 5F5F494E 		.ascii	"__INT16_MAX__ 0x7fff\000"
 10308      5431365F 
 10308      4D41585F 
 10308      5F203078 
 10308      37666666 
 10309              	.LASF617:
 10310 8b92 5343425F 		.ascii	"SCB_ICSR_NMIPENDSET_Pos 31\000"
 10310      49435352 
 10310      5F4E4D49 
 10310      50454E44 
 10310      5345545F 
 10311              	.LASF829:
 10312 8bad 436F7265 		.ascii	"CoreDebug_DHCSR_S_REGRDY_Pos 16\000"
 10312      44656275 
 10312      675F4448 
 10312      4353525F 
 10312      535F5245 
 10313              	.LASF606:
 10314 8bcd 5F5F4920 		.ascii	"__I volatile const\000"
 10314      766F6C61 
 10314      74696C65 
 10314      20636F6E 
 10314      737400
 10315              	.LASF762:
 10316 8be0 49544D5F 		.ascii	"ITM_IRR_ATREADYM_Msk (1UL << ITM_IRR_ATREADYM_Pos)\000"
 10316      4952525F 
 10316      41545245 
 10316      4144594D 
 10316      5F4D736B 
 10317              	.LASF751:
 10318 8c13 49544D5F 		.ascii	"ITM_TCR_DWTENA_Pos 3\000"
 10318      5443525F 
 10318      44575445 
 10318      4E415F50 
 10318      6F732033 
 10319              	.LASF80:
 10320 8c28 5F5F494E 		.ascii	"__INT_WIDTH__ 32\000"
 10320      545F5749 
 10320      4454485F 
 10320      5F203332 
 10320      00
 10321              	.LASF506:
 10322 8c39 5F5F4641 		.ascii	"__FAST8 \000"
 10322      53543820 
 10322      00
 10323              	.LASF472:
 10324 8c42 5F5F5853 		.ascii	"__XSI_VISIBLE 0\000"
ARM GAS  /tmp/ccKti1Oq.s 			page 272


 10324      495F5649 
 10324      5349424C 
 10324      45203000 
 10325              	.LASF1290:
 10326 8c52 54494D5F 		.ascii	"TIM_TIMERCFG_Type\000"
 10326      54494D45 
 10326      52434647 
 10326      5F547970 
 10326      6500
 10327              	.LASF1175:
 10328 8c64 50494E53 		.ascii	"PINSEL_PIN_8 ((8))\000"
 10328      454C5F50 
 10328      494E5F38 
 10328      20282838 
 10328      292900
 10329              	.LASF1116:
 10330 8c77 434C4B50 		.ascii	"CLKPWR_PCLKSEL_UART2 ((uint32_t)(48))\000"
 10330      57525F50 
 10330      434C4B53 
 10330      454C5F55 
 10330      41525432 
 10331              	.LASF330:
 10332 8c9d 5F5F5151 		.ascii	"__QQ_FBIT__ 7\000"
 10332      5F464249 
 10332      545F5F20 
 10332      3700
 10333              	.LASF277:
 10334 8cab 5F5F554C 		.ascii	"__ULFRACT_MIN__ 0.0ULR\000"
 10334      46524143 
 10334      545F4D49 
 10334      4E5F5F20 
 10334      302E3055 
 10335              	.LASF94:
 10336 8cc2 5F5F5349 		.ascii	"__SIG_ATOMIC_WIDTH__ 32\000"
 10336      475F4154 
 10336      4F4D4943 
 10336      5F574944 
 10336      54485F5F 
 10337              	.LASF777:
 10338 8cda 496E7454 		.ascii	"IntType_ACTLR_DISMCYCINT_Pos 0\000"
 10338      7970655F 
 10338      4143544C 
 10338      525F4449 
 10338      534D4359 
 10339              	.LASF455:
 10340 8cf9 5F5F474E 		.ascii	"__GNUC_PREREQ__(ma,mi) __GNUC_PREREQ(ma, mi)\000"
 10340      55435F50 
 10340      52455245 
 10340      515F5F28 
 10340      6D612C6D 
 10341              	.LASF875:
 10342 8d26 4E564943 		.ascii	"NVIC_BASE (SCS_BASE + 0x0100UL)\000"
 10342      5F424153 
 10342      45202853 
 10342      43535F42 
 10342      41534520 
 10343              	.LASF365:
ARM GAS  /tmp/ccKti1Oq.s 			page 273


 10344 8d46 5F5F5554 		.ascii	"__UTA_IBIT__ 64\000"
 10344      415F4942 
 10344      49545F5F 
 10344      20363400 
 10345              	.LASF326:
 10346 8d56 5F5F554C 		.ascii	"__ULLACCUM_IBIT__ 32\000"
 10346      4C414343 
 10346      554D5F49 
 10346      4249545F 
 10346      5F203332 
 10347              	.LASF1145:
 10348 8d6b 434C4B50 		.ascii	"CLKPWR_PCONP_PCTIM3 ((uint32_t)(1<<23))\000"
 10348      57525F50 
 10348      434F4E50 
 10348      5F504354 
 10348      494D3320 
 10349              	.LASF270:
 10350 8d93 5F5F4C46 		.ascii	"__LFRACT_FBIT__ 31\000"
 10350      52414354 
 10350      5F464249 
 10350      545F5F20 
 10350      333100
 10351              	.LASF289:
 10352 8da6 5F5F554C 		.ascii	"__ULLFRACT_EPSILON__ 0x1P-64ULLR\000"
 10352      4C465241 
 10352      43545F45 
 10352      5053494C 
 10352      4F4E5F5F 
 10353              	.LASF1305:
 10354 8dc7 54494D5F 		.ascii	"TIM_CAPTURECFG_Type\000"
 10354      43415054 
 10354      55524543 
 10354      46475F54 
 10354      79706500 
 10355              	.LASF388:
 10356 8ddb 5F5F5349 		.ascii	"__SIZEOF_WINT_T__ 4\000"
 10356      5A454F46 
 10356      5F57494E 
 10356      545F545F 
 10356      5F203400 
 10357              	.LASF109:
 10358 8def 5F5F494E 		.ascii	"__INT_LEAST32_MAX__ 0x7fffffffL\000"
 10358      545F4C45 
 10358      41535433 
 10358      325F4D41 
 10358      585F5F20 
 10359              	.LASF282:
 10360 8e0f 5F5F4C4C 		.ascii	"__LLFRACT_MIN__ (-0.5LLR-0.5LLR)\000"
 10360      46524143 
 10360      545F4D49 
 10360      4E5F5F20 
 10360      282D302E 
 10361              	.LASF179:
 10362 8e30 5F5F4C44 		.ascii	"__LDBL_DECIMAL_DIG__ 17\000"
 10362      424C5F44 
 10362      4543494D 
 10362      414C5F44 
ARM GAS  /tmp/ccKti1Oq.s 			page 274


 10362      49475F5F 
 10363              	.LASF783:
 10364 8e48 4D50555F 		.ascii	"MPU_TYPE_SEPARATE_Pos 0\000"
 10364      54595045 
 10364      5F534550 
 10364      41524154 
 10364      455F506F 
 10365              	.LASF312:
 10366 8e60 5F5F4C41 		.ascii	"__LACCUM_MIN__ (-0X1P31LK-0X1P31LK)\000"
 10366      4343554D 
 10366      5F4D494E 
 10366      5F5F2028 
 10366      2D305831 
 10367              	.LASF123:
 10368 8e84 5F5F494E 		.ascii	"__INT_FAST8_MAX__ 0x7fffffff\000"
 10368      545F4641 
 10368      5354385F 
 10368      4D41585F 
 10368      5F203078 
 10369              	.LASF187:
 10370 8ea1 5F5F464C 		.ascii	"__FLT32_MANT_DIG__ 24\000"
 10370      5433325F 
 10370      4D414E54 
 10370      5F444947 
 10370      5F5F2032 
 10371              	.LASF168:
 10372 8eb7 5F5F4442 		.ascii	"__DBL_DENORM_MIN__ ((double)4.9406564584124654e-324"
 10372      4C5F4445 
 10372      4E4F524D 
 10372      5F4D494E 
 10372      5F5F2028 
 10373 8eea 4C2900   		.ascii	"L)\000"
 10374              	.LASF327:
 10375 8eed 5F5F554C 		.ascii	"__ULLACCUM_MIN__ 0.0ULLK\000"
 10375      4C414343 
 10375      554D5F4D 
 10375      494E5F5F 
 10375      20302E30 
 10376              	.LASF128:
 10377 8f06 5F5F494E 		.ascii	"__INT_FAST32_WIDTH__ 32\000"
 10377      545F4641 
 10377      53543332 
 10377      5F574944 
 10377      54485F5F 
 10378              	.LASF1296:
 10379 8f1e 53746F70 		.ascii	"StopOnMatch\000"
 10379      4F6E4D61 
 10379      74636800 
 10380              	.LASF956:
 10381 8f2a 4C50435F 		.ascii	"LPC_UART1 ((LPC_UART1_TypeDef *) LPC_UART1_BASE )\000"
 10381      55415254 
 10381      31202828 
 10381      4C50435F 
 10381      55415254 
 10382              	.LASF1013:
 10383 8f5c 54494D5F 		.ascii	"TIM_MCR_MASKBIT ((uint32_t)(0x0FFF))\000"
 10383      4D43525F 
ARM GAS  /tmp/ccKti1Oq.s 			page 275


 10383      4D41534B 
 10383      42495420 
 10383      28287569 
 10384              	.LASF821:
 10385 8f81 436F7265 		.ascii	"CoreDebug_DHCSR_S_RETIRE_ST_Pos 24\000"
 10385      44656275 
 10385      675F4448 
 10385      4353525F 
 10385      535F5245 
 10386              	.LASF504:
 10387 8fa4 5F5F494E 		.ascii	"__INT32 \"l\"\000"
 10387      54333220 
 10387      226C2200 
 10388              	.LASF430:
 10389 8fb0 5F5F4152 		.ascii	"__ARM_ASM_SYNTAX_UNIFIED__ 1\000"
 10389      4D5F4153 
 10389      4D5F5359 
 10389      4E544158 
 10389      5F554E49 
 10390              	.LASF1341:
 10391 8fcd 2F686F6D 		.ascii	"/home/nakano/Projects/UTC/RSC/Embedded/LEDs_activat"
 10391      652F6E61 
 10391      6B616E6F 
 10391      2F50726F 
 10391      6A656374 
 10392 9000 696F6E2F 		.ascii	"ion/\000"
 10392      00
 10393              	.LASF999:
 10394 9005 5F424954 		.ascii	"_BITMASK(field_width) ( _BIT(field_width) - 1)\000"
 10394      4D41534B 
 10394      28666965 
 10394      6C645F77 
 10394      69647468 
 10395              	.LASF1041:
 10396 9034 434C4B50 		.ascii	"CLKPWR_CLKSRCSEL_CLKSRC_IRC ((uint32_t)(0x00))\000"
 10396      57525F43 
 10396      4C4B5352 
 10396      4353454C 
 10396      5F434C4B 
 10397              	.LASF44:
 10398 9063 5F5F5549 		.ascii	"__UINT32_TYPE__ long unsigned int\000"
 10398      4E543332 
 10398      5F545950 
 10398      455F5F20 
 10398      6C6F6E67 
 10399              	.LASF702:
 10400 9085 5343425F 		.ascii	"SCB_CFSR_USGFAULTSR_Msk (0xFFFFUL << SCB_CFSR_USGFA"
 10400      43465352 
 10400      5F555347 
 10400      4641554C 
 10400      5453525F 
 10401 90b8 554C5453 		.ascii	"ULTSR_Pos)\000"
 10401      525F506F 
 10401      732900
 10402              	.LASF408:
 10403 90c3 5F5F7468 		.ascii	"__thumb2__ 1\000"
 10403      756D6232 
ARM GAS  /tmp/ccKti1Oq.s 			page 276


 10403      5F5F2031 
 10403      00
 10404              	.LASF1016:
 10405 90d0 54494D5F 		.ascii	"TIM_CAP_FALLING(n) (_BIT(((n * 3) + 1)))\000"
 10405      4341505F 
 10405      46414C4C 
 10405      494E4728 
 10405      6E292028 
 10406              	.LASF746:
 10407 90f9 49544D5F 		.ascii	"ITM_TCR_ATBID_Msk (0x7FUL << ITM_TCR_ATBID_Pos)\000"
 10407      5443525F 
 10407      41544249 
 10407      445F4D73 
 10407      6B202830 
 10408              	.LASF639:
 10409 9129 5343425F 		.ascii	"SCB_VTOR_TBLOFF_Pos 7\000"
 10409      56544F52 
 10409      5F54424C 
 10409      4F46465F 
 10409      506F7320 
 10410              	.LASF456:
 10411 913f 5F444546 		.ascii	"_DEFAULT_SOURCE\000"
 10411      41554C54 
 10411      5F534F55 
 10411      52434500 
 10412              	.LASF912:
 10413 914f 4C50435F 		.ascii	"LPC_CAN1_BASE (LPC_APB0_BASE + 0x44000)\000"
 10413      43414E31 
 10413      5F424153 
 10413      4520284C 
 10413      50435F41 
 10414              	.LASF1034:
 10415 9177 50415241 		.ascii	"PARAM_TIM_MODE_OPT(MODE) ((MODE == TIM_TIMER_MODE)|"
 10415      4D5F5449 
 10415      4D5F4D4F 
 10415      44455F4F 
 10415      5054284D 
 10416 91aa 7C284D4F 		.ascii	"|(MODE == TIM_COUNTER_RISING_MODE)|| (MODE == TIM_C"
 10416      4445203D 
 10416      3D205449 
 10416      4D5F434F 
 10416      554E5445 
 10417 91dd 4F554E54 		.ascii	"OUNTER_RISING_MODE)||(MODE == TIM_COUNTER_RISING_MO"
 10417      45525F52 
 10417      4953494E 
 10417      475F4D4F 
 10417      4445297C 
 10418 9210 44452929 		.ascii	"DE))\000"
 10418      00
 10419              	.LASF768:
 10420 9215 49544D5F 		.ascii	"ITM_LSR_Access_Msk (1UL << ITM_LSR_Access_Pos)\000"
 10420      4C53525F 
 10420      41636365 
 10420      73735F4D 
 10420      736B2028 
 10421              	.LASF962:
 10422 9244 4C50435F 		.ascii	"LPC_I2C2 ((LPC_I2C_TypeDef *) LPC_I2C2_BASE )\000"
ARM GAS  /tmp/ccKti1Oq.s 			page 277


 10422      49324332 
 10422      2028284C 
 10422      50435F49 
 10422      32435F54 
 10423              	.LASF287:
 10424 9272 5F5F554C 		.ascii	"__ULLFRACT_MIN__ 0.0ULLR\000"
 10424      4C465241 
 10424      43545F4D 
 10424      494E5F5F 
 10424      20302E30 
 10425              	.LASF981:
 10426 928b 444D4152 		.ascii	"DMAREQSEL (*(__IO uint32_t *) ( 0x4000C1C4))\000"
 10426      45515345 
 10426      4C20282A 
 10426      285F5F49 
 10426      4F207569 
 10427              	.LASF814:
 10428 92b8 4D50555F 		.ascii	"MPU_RASR_SIZE_Msk (0x1FUL << MPU_RASR_SIZE_Pos)\000"
 10428      52415352 
 10428      5F53495A 
 10428      455F4D73 
 10428      6B202830 
 10429              	.LASF1051:
 10430 92e8 434C4B50 		.ascii	"CLKPWR_CLKOUTCFG_CLKOUT_EN ((uint32_t)(1<<8))\000"
 10430      57525F43 
 10430      4C4B4F55 
 10430      54434647 
 10430      5F434C4B 
 10431              	.LASF347:
 10432 9316 5F5F5544 		.ascii	"__UDQ_IBIT__ 0\000"
 10432      515F4942 
 10432      49545F5F 
 10432      203000
 10433              	.LASF1235:
 10434 9325 5F43414E 		.ascii	"_CAN 1\000"
 10434      203100
 10435              	.LASF13:
 10436 932c 5F5F5349 		.ascii	"__SIZEOF_INT__ 4\000"
 10436      5A454F46 
 10436      5F494E54 
 10436      5F5F2034 
 10436      00
 10437              	.LASF1205:
 10438 933d 50494E53 		.ascii	"PINSEL_I2C_Fast_Mode ((1))\000"
 10438      454C5F49 
 10438      32435F46 
 10438      6173745F 
 10438      4D6F6465 
 10439              	.LASF281:
 10440 9358 5F5F4C4C 		.ascii	"__LLFRACT_IBIT__ 0\000"
 10440      46524143 
 10440      545F4942 
 10440      49545F5F 
 10440      203000
 10441              	.LASF593:
 10442 936b 55494E54 		.ascii	"UINT16_C(x) __UINT16_C(x)\000"
 10442      31365F43 
ARM GAS  /tmp/ccKti1Oq.s 			page 278


 10442      28782920 
 10442      5F5F5549 
 10442      4E543136 
 10443              	.LASF818:
 10444 9385 436F7265 		.ascii	"CoreDebug_DHCSR_DBGKEY_Msk (0xFFFFUL << CoreDebug_D"
 10444      44656275 
 10444      675F4448 
 10444      4353525F 
 10444      4442474B 
 10445 93b8 48435352 		.ascii	"HCSR_DBGKEY_Pos)\000"
 10445      5F444247 
 10445      4B45595F 
 10445      506F7329 
 10445      00
 10446              	.LASF1254:
 10447 93c9 75696E74 		.ascii	"uint32_t\000"
 10447      33325F74 
 10447      00
 10448              	.LASF968:
 10449 93d2 4C50435F 		.ascii	"LPC_SSP0 ((LPC_SSP_TypeDef *) LPC_SSP0_BASE )\000"
 10449      53535030 
 10449      2028284C 
 10449      50435F53 
 10449      53505F54 
 10450              	.LASF769:
 10451 9400 49544D5F 		.ascii	"ITM_LSR_Present_Pos 0\000"
 10451      4C53525F 
 10451      50726573 
 10451      656E745F 
 10451      506F7320 
 10452              	.LASF485:
 10453 9416 5F535953 		.ascii	"_SYS__INTSUP_H \000"
 10453      5F5F494E 
 10453      54535550 
 10453      5F482000 
 10454              	.LASF1329:
 10455 9426 54494D5F 		.ascii	"TIM_GetIntCaptureStatus\000"
 10455      47657449 
 10455      6E744361 
 10455      70747572 
 10455      65537461 
 10456              	.LASF731:
 10457 943e 53797354 		.ascii	"SysTick_LOAD_RELOAD_Pos 0\000"
 10457      69636B5F 
 10457      4C4F4144 
 10457      5F52454C 
 10457      4F41445F 
 10458              	.LASF294:
 10459 9458 5F5F5341 		.ascii	"__SACCUM_EPSILON__ 0x1P-7HK\000"
 10459      4343554D 
 10459      5F455053 
 10459      494C4F4E 
 10459      5F5F2030 
 10460              	.LASF1001:
 10461 9474 4E454C45 		.ascii	"NELEMENTS(array) (sizeof (array) / sizeof (array[0]"
 10461      4D454E54 
 10461      53286172 
ARM GAS  /tmp/ccKti1Oq.s 			page 279


 10461      72617929 
 10461      20287369 
 10462 94a7 292900   		.ascii	"))\000"
 10463              	.LASF576:
 10464 94aa 494E545F 		.ascii	"INT_FAST64_MAX (__INT_FAST64_MAX__)\000"
 10464      46415354 
 10464      36345F4D 
 10464      41582028 
 10464      5F5F494E 
 10465              	.LASF1150:
 10466 94ce 434C4B50 		.ascii	"CLKPWR_PCONP_PCGPDMA ((uint32_t)(1<<29))\000"
 10466      57525F50 
 10466      434F4E50 
 10466      5F504347 
 10466      50444D41 
 10467              	.LASF459:
 10468 94f7 5F504F53 		.ascii	"_POSIX_SOURCE 1\000"
 10468      49585F53 
 10468      4F555243 
 10468      45203100 
 10469              	.LASF1161:
 10470 9507 50494E53 		.ascii	"PINSEL_PORT_3 ((3))\000"
 10470      454C5F50 
 10470      4F52545F 
 10470      33202828 
 10470      33292900 
 10471              	.LASF1107:
 10472 951b 434C4B50 		.ascii	"CLKPWR_PCLKSEL_CAN1 ((uint32_t)(26))\000"
 10472      57525F50 
 10472      434C4B53 
 10472      454C5F43 
 10472      414E3120 
 10473              	.LASF59:
 10474 9540 5F5F5549 		.ascii	"__UINT_FAST16_TYPE__ unsigned int\000"
 10474      4E545F46 
 10474      41535431 
 10474      365F5459 
 10474      50455F5F 
 10475              	.LASF738:
 10476 9562 53797354 		.ascii	"SysTick_CALIB_SKEW_Msk (1UL << SysTick_CALIB_SKEW_P"
 10476      69636B5F 
 10476      43414C49 
 10476      425F534B 
 10476      45575F4D 
 10477 9595 6F732900 		.ascii	"os)\000"
 10478              	.LASF359:
 10479 9599 5F5F5548 		.ascii	"__UHA_IBIT__ 8\000"
 10479      415F4942 
 10479      49545F5F 
 10479      203800
 10480              	.LASF785:
 10481 95a8 4D50555F 		.ascii	"MPU_CTRL_PRIVDEFENA_Pos 2\000"
 10481      4354524C 
 10481      5F505249 
 10481      56444546 
 10481      454E415F 
 10482              	.LASF304:
ARM GAS  /tmp/ccKti1Oq.s 			page 280


 10483 95c2 5F5F4143 		.ascii	"__ACCUM_EPSILON__ 0x1P-15K\000"
 10483      43554D5F 
 10483      45505349 
 10483      4C4F4E5F 
 10483      5F203078 
 10484              	.LASF319:
 10485 95dd 5F5F554C 		.ascii	"__ULACCUM_EPSILON__ 0x1P-32ULK\000"
 10485      41434355 
 10485      4D5F4550 
 10485      53494C4F 
 10485      4E5F5F20 
 10486              	.LASF1157:
 10487 95fc 50494E53 		.ascii	"PINSEL_I2CPADCFG_SCLI2C0 _BIT(3)\000"
 10487      454C5F49 
 10487      32435041 
 10487      44434647 
 10487      5F53434C 
 10488              	.LASF173:
 10489 961d 5F5F4C44 		.ascii	"__LDBL_DIG__ 15\000"
 10489      424C5F44 
 10489      49475F5F 
 10489      20313500 
 10490              	.LASF1294:
 10491 962d 4D617463 		.ascii	"MatchChannel\000"
 10491      68436861 
 10491      6E6E656C 
 10491      00
 10492              	.LASF86:
 10493 963a 5F5F5349 		.ascii	"__SIZE_WIDTH__ 32\000"
 10493      5A455F57 
 10493      49445448 
 10493      5F5F2033 
 10493      3200
 10494              	.LASF1200:
 10495 964c 50494E53 		.ascii	"PINSEL_PINMODE_TRISTATE ((2))\000"
 10495      454C5F50 
 10495      494E4D4F 
 10495      44455F54 
 10495      52495354 
 10496              	.LASF75:
 10497 966a 5F5F5749 		.ascii	"__WINT_MIN__ 0U\000"
 10497      4E545F4D 
 10497      494E5F5F 
 10497      20305500 
 10498              	.LASF1099:
 10499 967a 434C4B50 		.ascii	"CLKPWR_PCLKSEL_UART0 ((uint32_t)(6))\000"
 10499      57525F50 
 10499      434C4B53 
 10499      454C5F55 
 10499      41525430 
 10500              	.LASF202:
 10501 969f 5F5F464C 		.ascii	"__FLT64_DIG__ 15\000"
 10501      5436345F 
 10501      4449475F 
 10501      5F203135 
 10501      00
 10502              	.LASF241:
ARM GAS  /tmp/ccKti1Oq.s 			page 281


 10503 96b0 5F5F4445 		.ascii	"__DEC64_EPSILON__ 1E-15DD\000"
 10503      4336345F 
 10503      45505349 
 10503      4C4F4E5F 
 10503      5F203145 
 10504              	.LASF839:
 10505 96ca 436F7265 		.ascii	"CoreDebug_DHCSR_C_DEBUGEN_Pos 0\000"
 10505      44656275 
 10505      675F4448 
 10505      4353525F 
 10505      435F4445 
 10506              	.LASF637:
 10507 96ea 5343425F 		.ascii	"SCB_VTOR_TBLBASE_Pos 29\000"
 10507      56544F52 
 10507      5F54424C 
 10507      42415345 
 10507      5F506F73 
 10508              	.LASF105:
 10509 9702 5F5F494E 		.ascii	"__INT_LEAST8_WIDTH__ 8\000"
 10509      545F4C45 
 10509      41535438 
 10509      5F574944 
 10509      54485F5F 
 10510              	.LASF47:
 10511 9719 5F5F494E 		.ascii	"__INT_LEAST16_TYPE__ short int\000"
 10511      545F4C45 
 10511      41535431 
 10511      365F5459 
 10511      50455F5F 
 10512              	.LASF494:
 10513 9738 756E7369 		.ascii	"unsigned +0\000"
 10513      676E6564 
 10513      202B3000 
 10514              	.LASF165:
 10515 9744 5F5F4442 		.ascii	"__DBL_MAX__ ((double)1.7976931348623157e+308L)\000"
 10515      4C5F4D41 
 10515      585F5F20 
 10515      2828646F 
 10515      75626C65 
 10516              	.LASF1242:
 10517 9773 73686F72 		.ascii	"short unsigned int\000"
 10517      7420756E 
 10517      7369676E 
 10517      65642069 
 10517      6E7400
 10518              	.LASF280:
 10519 9786 5F5F4C4C 		.ascii	"__LLFRACT_FBIT__ 63\000"
 10519      46524143 
 10519      545F4642 
 10519      49545F5F 
 10519      20363300 
 10520              	.LASF199:
 10521 979a 5F5F464C 		.ascii	"__FLT32_HAS_INFINITY__ 1\000"
 10521      5433325F 
 10521      4841535F 
 10521      494E4649 
 10521      4E495459 
ARM GAS  /tmp/ccKti1Oq.s 			page 282


 10522              	.LASF407:
 10523 97b3 5F5F7468 		.ascii	"__thumb__ 1\000"
 10523      756D625F 
 10523      5F203100 
 10524              	.LASF177:
 10525 97bf 5F5F4C44 		.ascii	"__LDBL_MAX_10_EXP__ 308\000"
 10525      424C5F4D 
 10525      41585F31 
 10525      305F4558 
 10525      505F5F20 
 10526              	.LASF478:
 10527 97d7 5F5F5F69 		.ascii	"___int32_t_defined 1\000"
 10527      6E743332 
 10527      5F745F64 
 10527      6566696E 
 10527      65642031 
 10528              	.LASF1004:
 10529 97ec 54494D5F 		.ascii	"TIM_IR_CLR(n) _BIT(n)\000"
 10529      49525F43 
 10529      4C52286E 
 10529      29205F42 
 10529      4954286E 
 10530              	.LASF411:
 10531 9802 5F5F4152 		.ascii	"__ARMEL__ 1\000"
 10531      4D454C5F 
 10531      5F203100 
 10532              	.LASF1039:
 10533 980e 50415241 		.ascii	"PARAM_TIMx(n) ((((uint32_t *)n)==((uint32_t *)LPC_T"
 10533      4D5F5449 
 10533      4D78286E 
 10533      29202828 
 10533      28287569 
 10534 9841 494D3029 		.ascii	"IM0)) || (((uint32_t *)n)==((uint32_t *)LPC_TIM1)) "
 10534      29207C7C 
 10534      20282828 
 10534      75696E74 
 10534      33325F74 
 10535 9874 7C7C2028 		.ascii	"|| (((uint32_t *)n)==((uint32_t *)LPC_TIM2)) || ((("
 10535      28287569 
 10535      6E743332 
 10535      5F74202A 
 10535      296E293D 
 10536 98a7 75696E74 		.ascii	"uint32_t *)n)==((uint32_t *)LPC_TIM3)))\000"
 10536      33325F74 
 10536      202A296E 
 10536      293D3D28 
 10536      2875696E 
 10537              	.LASF601:
 10538 98cf 5F5F434F 		.ascii	"__CORE_CMINSTR_H__ \000"
 10538      52455F43 
 10538      4D494E53 
 10538      54525F48 
 10538      5F5F2000 
 10539              	.LASF332:
 10540 98e3 5F5F4851 		.ascii	"__HQ_FBIT__ 15\000"
 10540      5F464249 
 10540      545F5F20 
ARM GAS  /tmp/ccKti1Oq.s 			page 283


 10540      313500
 10541              	.LASF650:
 10542 98f2 5343425F 		.ascii	"SCB_AIRCR_SYSRESETREQ_Msk (1UL << SCB_AIRCR_SYSRESE"
 10542      41495243 
 10542      525F5359 
 10542      53524553 
 10542      45545245 
 10543 9925 54524551 		.ascii	"TREQ_Pos)\000"
 10543      5F506F73 
 10543      2900
 10544              	.LASF1056:
 10545 992f 434C4B50 		.ascii	"CLKPWR_PLL0CON_BITMASK ((uint32_t)(0x03))\000"
 10545      57525F50 
 10545      4C4C3043 
 10545      4F4E5F42 
 10545      49544D41 
 10546              	.LASF1276:
 10547 9959 54494D5F 		.ascii	"TIM_COUNTER_RISING_MODE\000"
 10547      434F554E 
 10547      5445525F 
 10547      52495349 
 10547      4E475F4D 
 10548              	.LASF501:
 10549 9971 5F494E54 		.ascii	"_INT32_EQ_LONG \000"
 10549      33325F45 
 10549      515F4C4F 
 10549      4E472000 
 10550              	.LASF651:
 10551 9981 5343425F 		.ascii	"SCB_AIRCR_VECTCLRACTIVE_Pos 1\000"
 10551      41495243 
 10551      525F5645 
 10551      4354434C 
 10551      52414354 
 10552              	.LASF1237:
 10553 999f 5F454D41 		.ascii	"_EMAC 1\000"
 10553      43203100 
 10554              	.LASF77:
 10555 99a7 5F5F5349 		.ascii	"__SIZE_MAX__ 0xffffffffU\000"
 10555      5A455F4D 
 10555      41585F5F 
 10555      20307866 
 10555      66666666 
 10556              	.LASF1082:
 10557 99c0 434C4B50 		.ascii	"CLKPWR_PCLKSEL1_BITMASK ((uint32_t)(0xFCF3F0F3))\000"
 10557      57525F50 
 10557      434C4B53 
 10557      454C315F 
 10557      4249544D 
 10558              	.LASF1195:
 10559 99f1 50494E53 		.ascii	"PINSEL_PIN_28 ((28))\000"
 10559      454C5F50 
 10559      494E5F32 
 10559      38202828 
 10559      32382929 
 10560              	.LASF677:
 10561 9a06 5343425F 		.ascii	"SCB_SHCSR_MEMFAULTENA_Pos 16\000"
 10561      53484353 
ARM GAS  /tmp/ccKti1Oq.s 			page 284


 10561      525F4D45 
 10561      4D464155 
 10561      4C54454E 
 10562              	.LASF757:
 10563 9a23 49544D5F 		.ascii	"ITM_TCR_ITMENA_Pos 0\000"
 10563      5443525F 
 10563      49544D45 
 10563      4E415F50 
 10563      6F732030 
 10564              	.LASF1078:
 10565 9a38 434C4B50 		.ascii	"CLKPWR_CCLKCFG_BITMASK ((uint32_t)(0xFF))\000"
 10565      57525F43 
 10565      434C4B43 
 10565      46475F42 
 10565      49544D41 
 10566              	.LASF544:
 10567 9a62 55494E54 		.ascii	"UINT8_MAX (__UINT8_MAX__)\000"
 10567      385F4D41 
 10567      5820285F 
 10567      5F55494E 
 10567      54385F4D 
 10568              	.LASF70:
 10569 9a7c 5F5F4C4F 		.ascii	"__LONG_MAX__ 0x7fffffffL\000"
 10569      4E475F4D 
 10569      41585F5F 
 10569      20307837 
 10569      66666666 
 10570              	.LASF1032:
 10571 9a95 54494D5F 		.ascii	"TIM_COUNTER_MODE ((uint8_t)(1))\000"
 10571      434F554E 
 10571      5445525F 
 10571      4D4F4445 
 10571      20282875 
 10572              	.LASF531:
 10573 9ab5 5F5F696E 		.ascii	"__int_least8_t_defined 1\000"
 10573      745F6C65 
 10573      61737438 
 10573      5F745F64 
 10573      6566696E 
 10574              	.LASF1215:
 10575 9ace 5F535350 		.ascii	"_SSP 1\000"
 10575      203100
 10576              	.LASF499:
 10577 9ad5 6C6F6E67 		.ascii	"long +4\000"
 10577      202B3400 
 10578              	.LASF1244:
 10579 9add 5F5F696E 		.ascii	"__int32_t\000"
 10579      7433325F 
 10579      7400
 10580              	.LASF1233:
 10581 9ae7 5F514549 		.ascii	"_QEI 1\000"
 10581      203100
 10582              	.LASF851:
 10583 9aee 436F7265 		.ascii	"CoreDebug_DEMCR_MON_PEND_Pos 17\000"
 10583      44656275 
 10583      675F4445 
 10583      4D43525F 
ARM GAS  /tmp/ccKti1Oq.s 			page 285


 10583      4D4F4E5F 
 10584              	.LASF988:
 10585 9b0e 4C50435F 		.ascii	"LPC_GPDMACH6 ((LPC_GPDMACH_TypeDef *) LPC_GPDMACH6_"
 10585      4750444D 
 10585      41434836 
 10585      2028284C 
 10585      50435F47 
 10586 9b41 42415345 		.ascii	"BASE )\000"
 10586      202900
 10587              	.LASF798:
 10588 9b48 4D50555F 		.ascii	"MPU_RBAR_REGION_Msk (0xFUL << MPU_RBAR_REGION_Pos)\000"
 10588      52424152 
 10588      5F524547 
 10588      494F4E5F 
 10588      4D736B20 
 10589              	.LASF397:
 10590 9b7b 5F5F4152 		.ascii	"__ARM_FEATURE_LDREX 7\000"
 10590      4D5F4645 
 10590      41545552 
 10590      455F4C44 
 10590      52455820 
 10591              	.LASF1083:
 10592 9b91 434C4B50 		.ascii	"CLKPWR_PCLKSEL_SET(p,n) _SBF(p,n)\000"
 10592      57525F50 
 10592      434C4B53 
 10592      454C5F53 
 10592      45542870 
 10593              	.LASF1220:
 10594 9bb3 5F493243 		.ascii	"_I2C1 1\000"
 10594      31203100 
 10595              	.LASF991:
 10596 9bbb 4C50435F 		.ascii	"LPC_TYPES_H \000"
 10596      54595045 
 10596      535F4820 
 10596      00
 10597              	.LASF33:
 10598 9bc8 5F5F494E 		.ascii	"__INTMAX_TYPE__ long long int\000"
 10598      544D4158 
 10598      5F545950 
 10598      455F5F20 
 10598      6C6F6E67 
 10599              	.LASF284:
 10600 9be6 5F5F4C4C 		.ascii	"__LLFRACT_EPSILON__ 0x1P-63LLR\000"
 10600      46524143 
 10600      545F4550 
 10600      53494C4F 
 10600      4E5F5F20 
 10601              	.LASF699:
 10602 9c05 5343425F 		.ascii	"SCB_SHCSR_MEMFAULTACT_Pos 0\000"
 10602      53484353 
 10602      525F4D45 
 10602      4D464155 
 10602      4C544143 
 10603              	.LASF253:
 10604 9c21 5F5F5346 		.ascii	"__SFRACT_MAX__ 0X7FP-7HR\000"
 10604      52414354 
 10604      5F4D4158 
ARM GAS  /tmp/ccKti1Oq.s 			page 286


 10604      5F5F2030 
 10604      58374650 
 10605              	.LASF215:
 10606 9c3a 5F5F464C 		.ascii	"__FLT32X_MANT_DIG__ 53\000"
 10606      54333258 
 10606      5F4D414E 
 10606      545F4449 
 10606      475F5F20 
 10607              	.LASF1273:
 10608 9c51 54494D5F 		.ascii	"TIM_CR0_INT\000"
 10608      4352305F 
 10608      494E5400 
 10609              	.LASF1201:
 10610 9c5d 50494E53 		.ascii	"PINSEL_PINMODE_PULLDOWN ((3))\000"
 10610      454C5F50 
 10610      494E4D4F 
 10610      44455F50 
 10610      554C4C44 
 10611              	.LASF83:
 10612 9c7b 5F5F5743 		.ascii	"__WCHAR_WIDTH__ 32\000"
 10612      4841525F 
 10612      57494454 
 10612      485F5F20 
 10612      333200
 10613              	.LASF1330:
 10614 9c8e 74656D70 		.ascii	"temp\000"
 10614      00
 10615              	.LASF1126:
 10616 9c93 434C4B50 		.ascii	"CLKPWR_PCONP_PCTIM0 ((uint32_t)(1<<1))\000"
 10616      57525F50 
 10616      434F4E50 
 10616      5F504354 
 10616      494D3020 
 10617              	.LASF107:
 10618 9cba 5F5F494E 		.ascii	"__INT16_C(c) c\000"
 10618      5431365F 
 10618      43286329 
 10618      206300
 10619              	.LASF1130:
 10620 9cc9 434C4B50 		.ascii	"CLKPWR_PCONP_PCPWM1 ((uint32_t)(1<<6))\000"
 10620      57525F50 
 10620      434F4E50 
 10620      5F504350 
 10620      574D3120 
 10621              	.LASF820:
 10622 9cf0 436F7265 		.ascii	"CoreDebug_DHCSR_S_RESET_ST_Msk (1UL << CoreDebug_DH"
 10622      44656275 
 10622      675F4448 
 10622      4353525F 
 10622      535F5245 
 10623 9d23 4353525F 		.ascii	"CSR_S_RESET_ST_Pos)\000"
 10623      535F5245 
 10623      5345545F 
 10623      53545F50 
 10623      6F732900 
 10624              	.LASF355:
 10625 9d37 5F5F4441 		.ascii	"__DA_IBIT__ 32\000"
ARM GAS  /tmp/ccKti1Oq.s 			page 287


 10625      5F494249 
 10625      545F5F20 
 10625      333200
 10626              	.LASF1012:
 10627 9d46 54494D5F 		.ascii	"TIM_STOP_ON_MATCH(n) (_BIT(((n * 3) + 2)))\000"
 10627      53544F50 
 10627      5F4F4E5F 
 10627      4D415443 
 10627      48286E29 
 10628              	.LASF496:
 10629 9d71 73686F72 		.ascii	"short +1\000"
 10629      74202B31 
 10629      00
 10630              	.LASF742:
 10631 9d7a 49544D5F 		.ascii	"ITM_TPR_PRIVMASK_Msk (0xFUL << ITM_TPR_PRIVMASK_Pos"
 10631      5450525F 
 10631      50524956 
 10631      4D41534B 
 10631      5F4D736B 
 10632 9dad 2900     		.ascii	")\000"
 10633              	.LASF656:
 10634 9daf 5343425F 		.ascii	"SCB_SCR_SEVONPEND_Msk (1UL << SCB_SCR_SEVONPEND_Pos"
 10634      5343525F 
 10634      5345564F 
 10634      4E50454E 
 10634      445F4D73 
 10635 9de2 2900     		.ascii	")\000"
 10636              	.LASF720:
 10637 9de4 5343425F 		.ascii	"SCB_DFSR_BKPT_Msk (1UL << SCB_DFSR_BKPT_Pos)\000"
 10637      44465352 
 10637      5F424B50 
 10637      545F4D73 
 10637      6B202831 
 10638              	.LASF10:
 10639 9e11 5F5F4154 		.ascii	"__ATOMIC_ACQ_REL 4\000"
 10639      4F4D4943 
 10639      5F414351 
 10639      5F52454C 
 10639      203400
 10640              	.LASF40:
 10641 9e24 5F5F494E 		.ascii	"__INT32_TYPE__ long int\000"
 10641      5433325F 
 10641      54595045 
 10641      5F5F206C 
 10641      6F6E6720 
 10642              	.LASF161:
 10643 9e3c 5F5F4442 		.ascii	"__DBL_MIN_10_EXP__ (-307)\000"
 10643      4C5F4D49 
 10643      4E5F3130 
 10643      5F455850 
 10643      5F5F2028 
 10644              	.LASF644:
 10645 9e56 5343425F 		.ascii	"SCB_AIRCR_VECTKEYSTAT_Msk (0xFFFFUL << SCB_AIRCR_VE"
 10645      41495243 
 10645      525F5645 
 10645      43544B45 
 10645      59535441 
ARM GAS  /tmp/ccKti1Oq.s 			page 288


 10646 9e89 43544B45 		.ascii	"CTKEYSTAT_Pos)\000"
 10646      59535441 
 10646      545F506F 
 10646      732900
 10647              	.LASF1092:
 10648 9e98 434C4B50 		.ascii	"CLKPWR_PCON_DSFLAG ((uint32_t)(1<<9))\000"
 10648      57525F50 
 10648      434F4E5F 
 10648      4453464C 
 10648      41472028 
 10649              	.LASF747:
 10650 9ebe 49544D5F 		.ascii	"ITM_TCR_TSPrescale_Pos 8\000"
 10650      5443525F 
 10650      54535072 
 10650      65736361 
 10650      6C655F50 
 10651              	.LASF491:
 10652 9ed7 5F5F696E 		.ascii	"__int20\000"
 10652      74323000 
 10653              	.LASF1156:
 10654 9edf 50494E53 		.ascii	"PINSEL_I2CPADCFG_SCLDRV0 _BIT(2)\000"
 10654      454C5F49 
 10654      32435041 
 10654      44434647 
 10654      5F53434C 
 10655              	.LASF250:
 10656 9f00 5F5F5346 		.ascii	"__SFRACT_FBIT__ 7\000"
 10656      52414354 
 10656      5F464249 
 10656      545F5F20 
 10656      3700
 10657              	.LASF1313:
 10658 9f12 54494D5F 		.ascii	"TIM_CaptureConfigStruct\000"
 10658      43617074 
 10658      75726543 
 10658      6F6E6669 
 10658      67537472 
 10659              	.LASF1128:
 10660 9f2a 434C4B50 		.ascii	"CLKPWR_PCONP_PCUART0 ((uint32_t)(1<<3))\000"
 10660      57525F50 
 10660      434F4E50 
 10660      5F504355 
 10660      41525430 
 10661              	.LASF539:
 10662 9f52 494E5450 		.ascii	"INTPTR_MIN (-__INTPTR_MAX__ - 1)\000"
 10662      54525F4D 
 10662      494E2028 
 10662      2D5F5F49 
 10662      4E545054 
 10663              	.LASF1031:
 10664 9f73 54494D5F 		.ascii	"TIM_CTCR_MASKBIT 0xF\000"
 10664      43544352 
 10664      5F4D4153 
 10664      4B424954 
 10664      20307846 
 10665              	.LASF1194:
 10666 9f88 50494E53 		.ascii	"PINSEL_PIN_27 ((27))\000"
ARM GAS  /tmp/ccKti1Oq.s 			page 289


 10666      454C5F50 
 10666      494E5F32 
 10666      37202828 
 10666      32372929 
 10667              	.LASF1006:
 10668 9f9d 54494D5F 		.ascii	"TIM_CAP_INT(n) (_BIT(((n & 0x0F) + 4)))\000"
 10668      4341505F 
 10668      494E5428 
 10668      6E292028 
 10668      5F424954 
 10669              	.LASF460:
 10670 9fc5 5F504F53 		.ascii	"_POSIX_C_SOURCE\000"
 10670      49585F43 
 10670      5F534F55 
 10670      52434500 
 10671              	.LASF89:
 10672 9fd5 5F5F5549 		.ascii	"__UINTMAX_MAX__ 0xffffffffffffffffULL\000"
 10672      4E544D41 
 10672      585F4D41 
 10672      585F5F20 
 10672      30786666 
 10673              	.LASF158:
 10674 9ffb 5F5F4442 		.ascii	"__DBL_MANT_DIG__ 53\000"
 10674      4C5F4D41 
 10674      4E545F44 
 10674      49475F5F 
 10674      20353300 
 10675              	.LASF276:
 10676 a00f 5F5F554C 		.ascii	"__ULFRACT_IBIT__ 0\000"
 10676      46524143 
 10676      545F4942 
 10676      49545F5F 
 10676      203000
 10677              	.LASF789:
 10678 a022 4D50555F 		.ascii	"MPU_CTRL_ENABLE_Pos 0\000"
 10678      4354524C 
 10678      5F454E41 
 10678      424C455F 
 10678      506F7320 
 10679              	.LASF931:
 10680 a038 4C50435F 		.ascii	"LPC_GPDMACH2_BASE (LPC_AHB_BASE + 0x04140)\000"
 10680      4750444D 
 10680      41434832 
 10680      5F424153 
 10680      4520284C 
 10681              	.LASF1011:
 10682 a063 54494D5F 		.ascii	"TIM_RESET_ON_MATCH(n) (_BIT(((n * 3) + 1)))\000"
 10682      52455345 
 10682      545F4F4E 
 10682      5F4D4154 
 10682      4348286E 
 10683              	.LASF1132:
 10684 a08f 434C4B50 		.ascii	"CLKPWR_PCONP_PCSPI ((uint32_t)(1<<8))\000"
 10684      57525F50 
 10684      434F4E50 
 10684      5F504353 
 10684      50492028 
ARM GAS  /tmp/ccKti1Oq.s 			page 290


 10685              	.LASF941:
 10686 a0b5 4C50435F 		.ascii	"LPC_GPIO3_BASE (LPC_GPIO_BASE + 0x00060)\000"
 10686      4750494F 
 10686      335F4241 
 10686      53452028 
 10686      4C50435F 
 10687              	.LASF69:
 10688 a0de 5F5F494E 		.ascii	"__INT_MAX__ 0x7fffffff\000"
 10688      545F4D41 
 10688      585F5F20 
 10688      30783766 
 10688      66666666 
 10689              	.LASF983:
 10690 a0f5 4C50435F 		.ascii	"LPC_GPDMACH1 ((LPC_GPDMACH_TypeDef *) LPC_GPDMACH1_"
 10690      4750444D 
 10690      41434831 
 10690      2028284C 
 10690      50435F47 
 10691 a128 42415345 		.ascii	"BASE )\000"
 10691      202900
 10692              	.LASF1286:
 10693 a12f 54494D5F 		.ascii	"TIM_EXTMATCH_TOGGLE\000"
 10693      4558544D 
 10693      41544348 
 10693      5F544F47 
 10693      474C4500 
 10694              	.LASF290:
 10695 a143 5F5F5341 		.ascii	"__SACCUM_FBIT__ 7\000"
 10695      4343554D 
 10695      5F464249 
 10695      545F5F20 
 10695      3700
 10696              	.LASF1076:
 10697 a155 434C4B50 		.ascii	"CLKPWR_PLL1STAT_PLOCK ((uint32_t)(1<<10))\000"
 10697      57525F50 
 10697      4C4C3153 
 10697      5441545F 
 10697      504C4F43 
 10698              	.LASF1053:
 10699 a17f 434C4B50 		.ascii	"CLKPWR_CLKOUTCFG_BITMASK ((uint32_t)(0x3FF))\000"
 10699      57525F43 
 10699      4C4B4F55 
 10699      54434647 
 10699      5F424954 
 10700              	.LASF770:
 10701 a1ac 49544D5F 		.ascii	"ITM_LSR_Present_Msk (1UL << ITM_LSR_Present_Pos)\000"
 10701      4C53525F 
 10701      50726573 
 10701      656E745F 
 10701      4D736B20 
 10702              		.ident	"GCC: (Arch Repository) 7.1.0"
ARM GAS  /tmp/ccKti1Oq.s 			page 291


DEFINED SYMBOLS
                            *ABS*:0000000000000000 lpc17xx_timer.c
     /tmp/ccKti1Oq.s:57     .text.TIM_GetPClock:0000000000000000 $t
     /tmp/ccKti1Oq.s:64     .text.TIM_GetPClock:0000000000000000 TIM_GetPClock
     /tmp/ccKti1Oq.s:89     .text.TIM_GetPClock:0000000000000014 $d
     /tmp/ccKti1Oq.s:93     .text.TIM_GetPClock:0000000000000024 $t
     /tmp/ccKti1Oq.s:148    .text.TIM_ConverUSecToVal:0000000000000000 $t
     /tmp/ccKti1Oq.s:155    .text.TIM_ConverUSecToVal:0000000000000000 TIM_ConverUSecToVal
     /tmp/ccKti1Oq.s:214    .text.TIM_ConverUSecToVal:0000000000000054 $d
     /tmp/ccKti1Oq.s:219    .text.TIM_ConverPtrToTimeNum:0000000000000000 $t
     /tmp/ccKti1Oq.s:226    .text.TIM_ConverPtrToTimeNum:0000000000000000 TIM_ConverPtrToTimeNum
     /tmp/ccKti1Oq.s:309    .text.TIM_ConverPtrToTimeNum:0000000000000050 $d
     /tmp/ccKti1Oq.s:316    .rodata:0000000000000000 $d
     /tmp/ccKti1Oq.s:320    .text.TIM_GetIntStatus:0000000000000000 $t
     /tmp/ccKti1Oq.s:327    .text.TIM_GetIntStatus:0000000000000000 TIM_GetIntStatus
     /tmp/ccKti1Oq.s:446    .text.TIM_GetIntStatus:0000000000000088 $d
     /tmp/ccKti1Oq.s:454    .text.TIM_GetIntCaptureStatus:0000000000000000 $t
     /tmp/ccKti1Oq.s:461    .text.TIM_GetIntCaptureStatus:0000000000000000 TIM_GetIntCaptureStatus
     /tmp/ccKti1Oq.s:581    .text.TIM_GetIntCaptureStatus:000000000000008c $d
     /tmp/ccKti1Oq.s:589    .text.TIM_ClearIntPending:0000000000000000 $t
     /tmp/ccKti1Oq.s:596    .text.TIM_ClearIntPending:0000000000000000 TIM_ClearIntPending
     /tmp/ccKti1Oq.s:700    .text.TIM_ClearIntPending:000000000000007c $d
     /tmp/ccKti1Oq.s:708    .text.TIM_ClearIntCapturePending:0000000000000000 $t
     /tmp/ccKti1Oq.s:715    .text.TIM_ClearIntCapturePending:0000000000000000 TIM_ClearIntCapturePending
     /tmp/ccKti1Oq.s:820    .text.TIM_ClearIntCapturePending:000000000000007c $d
     /tmp/ccKti1Oq.s:828    .text.TIM_ConfigStructInit:0000000000000000 $t
     /tmp/ccKti1Oq.s:835    .text.TIM_ConfigStructInit:0000000000000000 TIM_ConfigStructInit
     /tmp/ccKti1Oq.s:905    .text.TIM_Init:0000000000000000 $t
     /tmp/ccKti1Oq.s:912    .text.TIM_Init:0000000000000000 TIM_Init
     /tmp/ccKti1Oq.s:1170   .text.TIM_Init:0000000000000160 $d
     /tmp/ccKti1Oq.s:1178   .text.TIM_DeInit:0000000000000000 $t
     /tmp/ccKti1Oq.s:1185   .text.TIM_DeInit:0000000000000000 TIM_DeInit
     /tmp/ccKti1Oq.s:1302   .text.TIM_DeInit:000000000000008c $d
     /tmp/ccKti1Oq.s:1310   .text.TIM_Cmd:0000000000000000 $t
     /tmp/ccKti1Oq.s:1317   .text.TIM_Cmd:0000000000000000 TIM_Cmd
     /tmp/ccKti1Oq.s:1399   .text.TIM_Cmd:0000000000000060 $d
     /tmp/ccKti1Oq.s:1407   .text.TIM_ResetCounter:0000000000000000 $t
     /tmp/ccKti1Oq.s:1414   .text.TIM_ResetCounter:0000000000000000 TIM_ResetCounter
     /tmp/ccKti1Oq.s:1484   .text.TIM_ResetCounter:0000000000000054 $d
     /tmp/ccKti1Oq.s:1492   .text.TIM_ConfigMatch:0000000000000000 $t
     /tmp/ccKti1Oq.s:1499   .text.TIM_ConfigMatch:0000000000000000 TIM_ConfigMatch
     /tmp/ccKti1Oq.s:1729   .text.TIM_ConfigMatch:000000000000014c $d
     /tmp/ccKti1Oq.s:1737   .text.TIM_ConfigCapture:0000000000000000 $t
     /tmp/ccKti1Oq.s:1744   .text.TIM_ConfigCapture:0000000000000000 TIM_ConfigCapture
     /tmp/ccKti1Oq.s:1887   .text.TIM_ConfigCapture:00000000000000cc $d
     /tmp/ccKti1Oq.s:1895   .text.TIM_GetCaptureValue:0000000000000000 $t
     /tmp/ccKti1Oq.s:1902   .text.TIM_GetCaptureValue:0000000000000000 TIM_GetCaptureValue
     /tmp/ccKti1Oq.s:1992   .text.TIM_GetCaptureValue:0000000000000064 $d
     /tmp/ccKti1Oq.s:2000   .text.Timer0_Wait:0000000000000000 $t
     /tmp/ccKti1Oq.s:2007   .text.Timer0_Wait:0000000000000000 Timer0_Wait
     /tmp/ccKti1Oq.s:2102   .text.Timer0_us_Wait:0000000000000000 $t
     /tmp/ccKti1Oq.s:2109   .text.Timer0_us_Wait:0000000000000000 Timer0_us_Wait
                     .debug_frame:0000000000000010 $d
                           .group:0000000000000000 wm4.0.575902ec30e623f99ccb935f1e727f1f
                           .group:0000000000000000 wm4.LPC17xx.h.27.964facdaadd4aa3f18ac78c8a78f0013
                           .group:0000000000000000 wm4.core_cm3.h.32.ec4df48419563a0d596421d1133ac586
                           .group:0000000000000000 wm4._newlib_version.h.4.3572908597b70d672d181fc7fc501c19
ARM GAS  /tmp/ccKti1Oq.s 			page 292


                           .group:0000000000000000 wm4.features.h.33.863f3be0b2e521e624fcc7d6fa31d2ca
                           .group:0000000000000000 wm4._default_types.h.15.247e5cd201eca3442cbf5404108c4935
                           .group:0000000000000000 wm4._intsup.h.10.cce27fed8484c08a33f522034c30d2b5
                           .group:0000000000000000 wm4._stdint.h.10.c24fa3af3bc1706662bb5593a907e841
                           .group:0000000000000000 wm4.stdint.h.23.d53047a68f4a85177f80b422d52785ed
                           .group:0000000000000000 wm4.core_cmInstr.h.25.367280a3dbe1a27f086157cbbb6352e1
                           .group:0000000000000000 wm4.core_cm3.h.90.d0c8a7fd6bb95729c958e48b22262446
                           .group:0000000000000000 wm4.LPC17xx.h.953.77a3a85f2f7c5b921d480655a6f3d5b1
                           .group:0000000000000000 wm4.lpc_types.h.31.fe468f0c170b3f2fb639f9a689afb2c4
                           .group:0000000000000000 wm4.lpc17xx_timer.h.48.9c5b76a52ea125e9dfa6c9525b9fba77
                           .group:0000000000000000 wm4.lpc17xx_clkpwr.h.28.ed653d213cc31b181c2f984ea62223b0
                           .group:0000000000000000 wm4.lpc17xx_pinsel.h.28.bc46bf1b2bb0ba1d039ea141cd9f6585
                           .group:0000000000000000 wm4.lpc17xx_libcfg_default.h.27.7c412cdf4245ef94b86bdcf981a232f0

UNDEFINED SYMBOLS
CLKPWR_GetPCLK
__aeabi_uldivmod
check_failed
CLKPWR_ConfigPPWR
CLKPWR_SetPCLKDiv
