ARM GAS  /tmp/ccf79Nqw.s 			page 1


   1              		.cpu cortex-m3
   2              		.eabi_attribute 20, 1	@ Tag_ABI_FP_denormal
   3              		.eabi_attribute 21, 1	@ Tag_ABI_FP_exceptions
   4              		.eabi_attribute 23, 3	@ Tag_ABI_FP_number_model
   5              		.eabi_attribute 24, 1	@ Tag_ABI_align8_needed
   6              		.eabi_attribute 25, 1	@ Tag_ABI_align8_preserved
   7              		.eabi_attribute 26, 1	@ Tag_ABI_enum_size
   8              		.eabi_attribute 30, 6	@ Tag_ABI_optimization_goals
   9              		.eabi_attribute 34, 1	@ Tag_CPU_unaligned_access
  10              		.eabi_attribute 18, 4	@ Tag_ABI_PCS_wchar_t
  11              		.file	"lpc17xx_uart.c"
  12              	@ GNU C89 (Arch Repository) version 7.1.0 (arm-none-eabi)
  13              	@	compiled by GNU C version 6.3.1 20170306, GMP version 6.1.2, MPFR version 3.1.5-p2, MPC version 1
  14              	
  15              	@ GGC heuristics: --param ggc-min-expand=100 --param ggc-min-heapsize=131072
  16              	@ options passed:  -I . -I config -I system -I core -I drivers -I FreeRTOS
  17              	@ -I FreeRTOS/include -I FreeRTOS/portable/GCC/ARM_CM3 -I FreeRTOS/portable
  18              	@ -I tasks/rc_task_leds -I tasks/rc_task_xbee -I modules/rc_leds
  19              	@ -I modules/rc_xbee -I modules/rc_scheduler -I drivers/rc_system
  20              	@ -I drivers/rc_gpio -I drivers/rc_uart -I drivers/rc_pinsel
  21              	@ -I drivers/rc_timer -I drivers/rc_adc -imultilib armv7-m
  22              	@ -MD out/lpc17xx_uart.d -MF out/lpc17xx_uart.d -MP -MQ out/lpc17xx_uart.o
  23              	@ -D__USES_INITFINI__ core/lpc17xx_uart.c -mcpu=cortex-m3 -mthumb
  24              	@ -auxbase-strip out/lpc17xx_uart.o -g -ggdb3 -O0 -Wall -Wstrict-prototypes
  25              	@ -Wextra -std=gnu90 -ffunction-sections -fdata-sections -fverbose-asm
  26              	@ options enabled:  -faggressive-loop-optimizations -fauto-inc-dec
  27              	@ -fchkp-check-incomplete-type -fchkp-check-read -fchkp-check-write
  28              	@ -fchkp-instrument-calls -fchkp-narrow-bounds -fchkp-optimize
  29              	@ -fchkp-store-bounds -fchkp-use-static-bounds
  30              	@ -fchkp-use-static-const-bounds -fchkp-use-wrappers -fcommon
  31              	@ -fdata-sections -fdelete-null-pointer-checks -fdwarf2-cfi-asm
  32              	@ -fearly-inlining -feliminate-unused-debug-types -ffp-int-builtin-inexact
  33              	@ -ffunction-cse -ffunction-sections -fgcse-lm -fgnu-runtime -fgnu-unique
  34              	@ -fident -finline-atomics -fira-hoist-pressure -fira-share-save-slots
  35              	@ -fira-share-spill-slots -fivopts -fkeep-static-consts
  36              	@ -fleading-underscore -flifetime-dse -flto-odr-type-merging -fmath-errno
  37              	@ -fmerge-debug-strings -fpeephole -fplt -fprefetch-loop-arrays
  38              	@ -freg-struct-return -fsched-critical-path-heuristic
  39              	@ -fsched-dep-count-heuristic -fsched-group-heuristic -fsched-interblock
  40              	@ -fsched-last-insn-heuristic -fsched-rank-heuristic -fsched-spec
  41              	@ -fsched-spec-insn-heuristic -fsched-stalled-insns-dep
  42              	@ -fsemantic-interposition -fshow-column -fshrink-wrap-separate
  43              	@ -fsigned-zeros -fsplit-ivs-in-unroller -fssa-backprop -fstdarg-opt
  44              	@ -fstrict-volatile-bitfields -fsync-libcalls -ftrapping-math -ftree-cselim
  45              	@ -ftree-forwprop -ftree-loop-if-convert -ftree-loop-im -ftree-loop-ivcanon
  46              	@ -ftree-loop-optimize -ftree-parallelize-loops= -ftree-phiprop
  47              	@ -ftree-reassoc -ftree-scev-cprop -funit-at-a-time -fverbose-asm
  48              	@ -fzero-initialized-in-bss -masm-syntax-unified -mfix-cortex-m3-ldrd
  49              	@ -mlittle-endian -mpic-data-is-text-relative -msched-prolog -mthumb
  50              	@ -munaligned-access -mvectorize-with-neon-quad
  51              	
  52              		.text
  53              	.Ltext0:
  54              		.cfi_sections	.debug_frame
  55              		.global	uartCbsDat
  56              		.section	.bss.uartCbsDat,"aw",%nobits
  57              		.align	2
ARM GAS  /tmp/ccf79Nqw.s 			page 2


  58              		.type	uartCbsDat, %object
  59              		.size	uartCbsDat, 64
  60              	uartCbsDat:
  61 0000 00000000 		.space	64
  61      00000000 
  61      00000000 
  61      00000000 
  61      00000000 
  62              		.global	pfnModemCbs
  63              		.section	.bss.pfnModemCbs,"aw",%nobits
  64              		.align	2
  65              		.type	pfnModemCbs, %object
  66              		.size	pfnModemCbs, 4
  67              	pfnModemCbs:
  68 0000 00000000 		.space	4
  69              		.section	.text.getUartNum,"ax",%progbits
  70              		.align	1
  71              		.global	getUartNum
  72              		.syntax unified
  73              		.thumb
  74              		.thumb_func
  75              		.fpu softvfp
  76              		.type	getUartNum, %function
  77              	getUartNum:
  78              	.LFB55:
  79              		.file 1 "core/lpc17xx_uart.c"
   1:core/lpc17xx_uart.c **** /**
   2:core/lpc17xx_uart.c ****  * @file	: lpc17xx_uart.c
   3:core/lpc17xx_uart.c ****  * @brief	: Contains all functions support for UART firmware library on LPC17xx
   4:core/lpc17xx_uart.c ****  * @version	: 1.0
   5:core/lpc17xx_uart.c ****  * @date	: 18. Mar. 2009
   6:core/lpc17xx_uart.c ****  * @author	: HieuNguyen
   7:core/lpc17xx_uart.c ****  **************************************************************************
   8:core/lpc17xx_uart.c ****  * Software that is described herein is for illustrative purposes only
   9:core/lpc17xx_uart.c ****  * which provides customers with programming information regarding the
  10:core/lpc17xx_uart.c ****  * products. This software is supplied "AS IS" without any warranties.
  11:core/lpc17xx_uart.c ****  * NXP Semiconductors assumes no responsibility or liability for the
  12:core/lpc17xx_uart.c ****  * use of the software, conveys no license or title under any patent,
  13:core/lpc17xx_uart.c ****  * copyright, or mask work right to the product. NXP Semiconductors
  14:core/lpc17xx_uart.c ****  * reserves the right to make changes in the software without
  15:core/lpc17xx_uart.c ****  * notification. NXP Semiconductors also make no representation or
  16:core/lpc17xx_uart.c ****  * warranty that such application will be suitable for the specified
  17:core/lpc17xx_uart.c ****  * use without further testing or modification.
  18:core/lpc17xx_uart.c ****  **********************************************************************/
  19:core/lpc17xx_uart.c **** 
  20:core/lpc17xx_uart.c **** /* Peripheral group ----------------------------------------------------------- */
  21:core/lpc17xx_uart.c **** /** @addtogroup UART
  22:core/lpc17xx_uart.c ****  * @{
  23:core/lpc17xx_uart.c ****  */
  24:core/lpc17xx_uart.c **** 
  25:core/lpc17xx_uart.c **** /* Includes ------------------------------------------------------------------- */
  26:core/lpc17xx_uart.c **** #include "lpc17xx_uart.h"
  27:core/lpc17xx_uart.c **** #include "lpc17xx_clkpwr.h"
  28:core/lpc17xx_uart.c **** 
  29:core/lpc17xx_uart.c **** /* If this source file built with example, the LPC17xx FW library configuration
  30:core/lpc17xx_uart.c ****  * file in each example directory ("lpc17xx_libcfg.h") must be included,
  31:core/lpc17xx_uart.c ****  * otherwise the default FW library configuration file must be included instead
ARM GAS  /tmp/ccf79Nqw.s 			page 3


  32:core/lpc17xx_uart.c ****  */
  33:core/lpc17xx_uart.c **** #ifdef __BUILD_WITH_EXAMPLE__
  34:core/lpc17xx_uart.c **** #include "lpc17xx_libcfg.h"
  35:core/lpc17xx_uart.c **** #else
  36:core/lpc17xx_uart.c **** #include "lpc17xx_libcfg_default.h"
  37:core/lpc17xx_uart.c **** #endif /* __BUILD_WITH_EXAMPLE__ */
  38:core/lpc17xx_uart.c **** 
  39:core/lpc17xx_uart.c **** 
  40:core/lpc17xx_uart.c **** #ifdef _UART
  41:core/lpc17xx_uart.c **** 
  42:core/lpc17xx_uart.c **** /* Private Types -------------------------------------------------------------- */
  43:core/lpc17xx_uart.c **** /** @defgroup UART_Private_Types
  44:core/lpc17xx_uart.c ****  * @{
  45:core/lpc17xx_uart.c ****  */
  46:core/lpc17xx_uart.c **** 
  47:core/lpc17xx_uart.c **** /**
  48:core/lpc17xx_uart.c ****  * @brief UART call-back function type definitions
  49:core/lpc17xx_uart.c ****  */
  50:core/lpc17xx_uart.c **** typedef struct {
  51:core/lpc17xx_uart.c **** 	fnTxCbs_Type *pfnTxCbs; 	// Transmit callback
  52:core/lpc17xx_uart.c **** 	fnRxCbs_Type *pfnRxCbs;		// Receive callback
  53:core/lpc17xx_uart.c **** 	fnABCbs_Type *pfnABCbs;		// Auto-Baudrate callback
  54:core/lpc17xx_uart.c **** 	fnErrCbs_Type *pfnErrCbs;	// Error callback
  55:core/lpc17xx_uart.c **** } UART_CBS_Type;
  56:core/lpc17xx_uart.c **** 
  57:core/lpc17xx_uart.c **** /**
  58:core/lpc17xx_uart.c ****  * @}
  59:core/lpc17xx_uart.c ****  */
  60:core/lpc17xx_uart.c **** 
  61:core/lpc17xx_uart.c **** 
  62:core/lpc17xx_uart.c **** /* Private Variables ---------------------------------------------------------- */
  63:core/lpc17xx_uart.c **** /** @defgroup UART_Private_Variables
  64:core/lpc17xx_uart.c ****  * @{
  65:core/lpc17xx_uart.c ****  */
  66:core/lpc17xx_uart.c **** 
  67:core/lpc17xx_uart.c **** 
  68:core/lpc17xx_uart.c **** /** Call-back function pointer data */
  69:core/lpc17xx_uart.c **** UART_CBS_Type uartCbsDat[4] = {
  70:core/lpc17xx_uart.c **** 		{NULL, NULL, NULL, NULL},
  71:core/lpc17xx_uart.c **** 		{NULL, NULL, NULL, NULL},
  72:core/lpc17xx_uart.c **** 		{NULL, NULL, NULL, NULL},
  73:core/lpc17xx_uart.c **** 		{NULL, NULL, NULL, NULL},
  74:core/lpc17xx_uart.c **** };
  75:core/lpc17xx_uart.c **** 
  76:core/lpc17xx_uart.c **** /** UART1 modem status interrupt callback pointer data */
  77:core/lpc17xx_uart.c **** fnModemCbs_Type *pfnModemCbs = NULL;
  78:core/lpc17xx_uart.c **** 
  79:core/lpc17xx_uart.c **** /**
  80:core/lpc17xx_uart.c ****  * @}
  81:core/lpc17xx_uart.c ****  */
  82:core/lpc17xx_uart.c **** 
  83:core/lpc17xx_uart.c **** 
  84:core/lpc17xx_uart.c **** /* Private Functions ---------------------------------------------------------- */
  85:core/lpc17xx_uart.c **** /** @defgroup UART_Private_Functions
  86:core/lpc17xx_uart.c ****  * @{
  87:core/lpc17xx_uart.c ****  */
  88:core/lpc17xx_uart.c **** 
ARM GAS  /tmp/ccf79Nqw.s 			page 4


  89:core/lpc17xx_uart.c **** /**
  90:core/lpc17xx_uart.c ****  * @brief		Get UART number due to UART peripheral pointer
  91:core/lpc17xx_uart.c ****  * @param[in]	UARTx	UART pointer
  92:core/lpc17xx_uart.c ****  * @return		UART number
  93:core/lpc17xx_uart.c ****  */
  94:core/lpc17xx_uart.c **** uint8_t getUartNum(LPC_UART_TypeDef *UARTx) {
  80              		.loc 1 94 0
  81              		.cfi_startproc
  82              		@ args = 0, pretend = 0, frame = 8
  83              		@ frame_needed = 1, uses_anonymous_args = 0
  84              		@ link register save eliminated.
  85 0000 80B4     		push	{r7}	@
  86              		.cfi_def_cfa_offset 4
  87              		.cfi_offset 7, -4
  88 0002 83B0     		sub	sp, sp, #12	@,,
  89              		.cfi_def_cfa_offset 16
  90 0004 00AF     		add	r7, sp, #0	@,,
  91              		.cfi_def_cfa_register 7
  92 0006 7860     		str	r0, [r7, #4]	@ UARTx, UARTx
  93              	@ core/lpc17xx_uart.c:95: 	if (UARTx == (LPC_UART_TypeDef*)LPC_UART0) return (0);
  95:core/lpc17xx_uart.c **** 	if (UARTx == (LPC_UART_TypeDef*)LPC_UART0) return (0);
  94              		.loc 1 95 0
  95 0008 7B68     		ldr	r3, [r7, #4]	@ tmp112, UARTx
  96 000a 0B4A     		ldr	r2, .L6	@ tmp113,
  97 000c 9342     		cmp	r3, r2	@ tmp112, tmp113
  98 000e 01D1     		bne	.L2	@,
  99              	@ core/lpc17xx_uart.c:95: 	if (UARTx == (LPC_UART_TypeDef*)LPC_UART0) return (0);
 100              		.loc 1 95 0 is_stmt 0 discriminator 1
 101 0010 0023     		movs	r3, #0	@ _1,
 102 0012 0CE0     		b	.L3	@
 103              	.L2:
 104              	@ core/lpc17xx_uart.c:96: 	else if (UARTx == (LPC_UART_TypeDef *)LPC_UART1) return (1);
  96:core/lpc17xx_uart.c **** 	else if (UARTx == (LPC_UART_TypeDef *)LPC_UART1) return (1);
 105              		.loc 1 96 0 is_stmt 1
 106 0014 7B68     		ldr	r3, [r7, #4]	@ tmp114, UARTx
 107 0016 094A     		ldr	r2, .L6+4	@ tmp115,
 108 0018 9342     		cmp	r3, r2	@ tmp114, tmp115
 109 001a 01D1     		bne	.L4	@,
 110              	@ core/lpc17xx_uart.c:96: 	else if (UARTx == (LPC_UART_TypeDef *)LPC_UART1) return (1);
 111              		.loc 1 96 0 is_stmt 0 discriminator 1
 112 001c 0123     		movs	r3, #1	@ _1,
 113 001e 06E0     		b	.L3	@
 114              	.L4:
 115              	@ core/lpc17xx_uart.c:97: 	else if (UARTx == LPC_UART2) return (2);
  97:core/lpc17xx_uart.c **** 	else if (UARTx == LPC_UART2) return (2);
 116              		.loc 1 97 0 is_stmt 1
 117 0020 7B68     		ldr	r3, [r7, #4]	@ tmp116, UARTx
 118 0022 074A     		ldr	r2, .L6+8	@ tmp117,
 119 0024 9342     		cmp	r3, r2	@ tmp116, tmp117
 120 0026 01D1     		bne	.L5	@,
 121              	@ core/lpc17xx_uart.c:97: 	else if (UARTx == LPC_UART2) return (2);
 122              		.loc 1 97 0 is_stmt 0 discriminator 1
 123 0028 0223     		movs	r3, #2	@ _1,
 124 002a 00E0     		b	.L3	@
 125              	.L5:
 126              	@ core/lpc17xx_uart.c:98: 	else return (3);
  98:core/lpc17xx_uart.c **** 	else return (3);
ARM GAS  /tmp/ccf79Nqw.s 			page 5


 127              		.loc 1 98 0 is_stmt 1
 128 002c 0323     		movs	r3, #3	@ _1,
 129              	.L3:
 130              	@ core/lpc17xx_uart.c:99: }
  99:core/lpc17xx_uart.c **** }
 131              		.loc 1 99 0
 132 002e 1846     		mov	r0, r3	@, <retval>
 133 0030 0C37     		adds	r7, r7, #12	@,,
 134              		.cfi_def_cfa_offset 4
 135 0032 BD46     		mov	sp, r7	@,
 136              		.cfi_def_cfa_register 13
 137              		@ sp needed	@
 138 0034 80BC     		pop	{r7}	@
 139              		.cfi_restore 7
 140              		.cfi_def_cfa_offset 0
 141 0036 7047     		bx	lr	@
 142              	.L7:
 143              		.align	2
 144              	.L6:
 145 0038 00C00040 		.word	1073790976
 146 003c 00000140 		.word	1073807360
 147 0040 00800940 		.word	1074364416
 148              		.cfi_endproc
 149              	.LFE55:
 150              		.size	getUartNum, .-getUartNum
 151              		.section	.text.uart_set_divisors,"ax",%progbits
 152              		.align	1
 153              		.global	uart_set_divisors
 154              		.syntax unified
 155              		.thumb
 156              		.thumb_func
 157              		.fpu softvfp
 158              		.type	uart_set_divisors, %function
 159              	uart_set_divisors:
 160              	.LFB56:
 100:core/lpc17xx_uart.c **** 
 101:core/lpc17xx_uart.c **** /*********************************************************************//**
 102:core/lpc17xx_uart.c ****  * @brief		Determines best dividers to get a target clock rate
 103:core/lpc17xx_uart.c ****  * @param[in]	UARTx	Pointer to selected UART peripheral, should be
 104:core/lpc17xx_uart.c ****  * 						UART0, UART1, UART2 or UART3.
 105:core/lpc17xx_uart.c ****  * @param[in]	baudrate Desired UART baud rate.
 106:core/lpc17xx_uart.c ****  * @return 		Error status.
 107:core/lpc17xx_uart.c ****  **********************************************************************/
 108:core/lpc17xx_uart.c **** 
 109:core/lpc17xx_uart.c **** Status uart_set_divisors(LPC_UART_TypeDef *UARTx, uint32_t baudrate)
 110:core/lpc17xx_uart.c **** {
 161              		.loc 1 110 0
 162              		.cfi_startproc
 163              		@ args = 0, pretend = 0, frame = 56
 164              		@ frame_needed = 1, uses_anonymous_args = 0
 165 0000 80B5     		push	{r7, lr}	@
 166              		.cfi_def_cfa_offset 8
 167              		.cfi_offset 7, -8
 168              		.cfi_offset 14, -4
 169 0002 8EB0     		sub	sp, sp, #56	@,,
 170              		.cfi_def_cfa_offset 64
 171 0004 00AF     		add	r7, sp, #0	@,,
ARM GAS  /tmp/ccf79Nqw.s 			page 6


 172              		.cfi_def_cfa_register 7
 173 0006 7860     		str	r0, [r7, #4]	@ UARTx, UARTx
 174 0008 3960     		str	r1, [r7]	@ baudrate, baudrate
 175              	@ core/lpc17xx_uart.c:111: 	Status errorStatus = ERROR;
 111:core/lpc17xx_uart.c **** 	Status errorStatus = ERROR;
 176              		.loc 1 111 0
 177 000a 0023     		movs	r3, #0	@ tmp142,
 178 000c 87F83730 		strb	r3, [r7, #55]	@ tmp143, errorStatus
 179              	@ core/lpc17xx_uart.c:114: 	uint32_t calcBaudrate = 0;
 112:core/lpc17xx_uart.c **** 
 113:core/lpc17xx_uart.c **** 	uint32_t uClk;
 114:core/lpc17xx_uart.c **** 	uint32_t calcBaudrate = 0;
 180              		.loc 1 114 0
 181 0010 0023     		movs	r3, #0	@ tmp144,
 182 0012 FB60     		str	r3, [r7, #12]	@ tmp144, calcBaudrate
 183              	@ core/lpc17xx_uart.c:115: 	uint32_t temp = 0;
 115:core/lpc17xx_uart.c **** 	uint32_t temp = 0;
 184              		.loc 1 115 0
 185 0014 0023     		movs	r3, #0	@ tmp145,
 186 0016 BB60     		str	r3, [r7, #8]	@ tmp145, temp
 187              	@ core/lpc17xx_uart.c:118: 	uint32_t diviser = 0 ;
 116:core/lpc17xx_uart.c **** 
 117:core/lpc17xx_uart.c **** 	uint32_t mulFracDiv, dividerAddFracDiv;
 118:core/lpc17xx_uart.c **** 	uint32_t diviser = 0 ;
 188              		.loc 1 118 0
 189 0018 0023     		movs	r3, #0	@ tmp146,
 190 001a 7B62     		str	r3, [r7, #36]	@ tmp146, diviser
 191              	@ core/lpc17xx_uart.c:119: 	uint32_t mulFracDivOptimal = 1;
 119:core/lpc17xx_uart.c **** 	uint32_t mulFracDivOptimal = 1;
 192              		.loc 1 119 0
 193 001c 0123     		movs	r3, #1	@ tmp147,
 194 001e 3B62     		str	r3, [r7, #32]	@ tmp147, mulFracDivOptimal
 195              	@ core/lpc17xx_uart.c:120: 	uint32_t dividerAddOptimal = 0;
 120:core/lpc17xx_uart.c **** 	uint32_t dividerAddOptimal = 0;
 196              		.loc 1 120 0
 197 0020 0023     		movs	r3, #0	@ tmp148,
 198 0022 FB61     		str	r3, [r7, #28]	@ tmp148, dividerAddOptimal
 199              	@ core/lpc17xx_uart.c:121: 	uint32_t diviserOptimal = 0;
 121:core/lpc17xx_uart.c **** 	uint32_t diviserOptimal = 0;
 200              		.loc 1 121 0
 201 0024 0023     		movs	r3, #0	@ tmp149,
 202 0026 BB61     		str	r3, [r7, #24]	@ tmp149, diviserOptimal
 203              	@ core/lpc17xx_uart.c:123: 	uint32_t relativeError = 0;
 122:core/lpc17xx_uart.c **** 
 123:core/lpc17xx_uart.c **** 	uint32_t relativeError = 0;
 204              		.loc 1 123 0
 205 0028 0023     		movs	r3, #0	@ tmp150,
 206 002a 7B61     		str	r3, [r7, #20]	@ tmp150, relativeError
 207              	@ core/lpc17xx_uart.c:124: 	uint32_t relativeOptimalError = 100000;
 124:core/lpc17xx_uart.c **** 	uint32_t relativeOptimalError = 100000;
 208              		.loc 1 124 0
 209 002c 744B     		ldr	r3, .L30	@ tmp151,
 210 002e 3B61     		str	r3, [r7, #16]	@ tmp151, relativeOptimalError
 211              	@ core/lpc17xx_uart.c:127: 	if (UARTx == (LPC_UART_TypeDef*) LPC_UART0)
 125:core/lpc17xx_uart.c **** 
 126:core/lpc17xx_uart.c **** 	/* get UART block clock */
 127:core/lpc17xx_uart.c **** 	if (UARTx == (LPC_UART_TypeDef*) LPC_UART0)
ARM GAS  /tmp/ccf79Nqw.s 			page 7


 212              		.loc 1 127 0
 213 0030 7B68     		ldr	r3, [r7, #4]	@ tmp152, UARTx
 214 0032 744A     		ldr	r2, .L30+4	@ tmp153,
 215 0034 9342     		cmp	r3, r2	@ tmp152, tmp153
 216 0036 04D1     		bne	.L9	@,
 217              	@ core/lpc17xx_uart.c:129: 		uClk = CLKPWR_GetPCLK (CLKPWR_PCLKSEL_UART0);
 128:core/lpc17xx_uart.c **** 	{
 129:core/lpc17xx_uart.c **** 		uClk = CLKPWR_GetPCLK (CLKPWR_PCLKSEL_UART0);
 218              		.loc 1 129 0
 219 0038 0620     		movs	r0, #6	@,
 220 003a FFF7FEFF 		bl	CLKPWR_GetPCLK	@
 221 003e 3863     		str	r0, [r7, #48]	@, uClk
 222 0040 19E0     		b	.L10	@
 223              	.L9:
 224              	@ core/lpc17xx_uart.c:131: 	else if (UARTx == (LPC_UART_TypeDef *)LPC_UART1)
 130:core/lpc17xx_uart.c **** 	}
 131:core/lpc17xx_uart.c **** 	else if (UARTx == (LPC_UART_TypeDef *)LPC_UART1)
 225              		.loc 1 131 0
 226 0042 7B68     		ldr	r3, [r7, #4]	@ tmp154, UARTx
 227 0044 704A     		ldr	r2, .L30+8	@ tmp155,
 228 0046 9342     		cmp	r3, r2	@ tmp154, tmp155
 229 0048 04D1     		bne	.L11	@,
 230              	@ core/lpc17xx_uart.c:133: 		uClk = CLKPWR_GetPCLK (CLKPWR_PCLKSEL_UART1);
 132:core/lpc17xx_uart.c **** 	{
 133:core/lpc17xx_uart.c **** 		uClk = CLKPWR_GetPCLK (CLKPWR_PCLKSEL_UART1);
 231              		.loc 1 133 0
 232 004a 0820     		movs	r0, #8	@,
 233 004c FFF7FEFF 		bl	CLKPWR_GetPCLK	@
 234 0050 3863     		str	r0, [r7, #48]	@, uClk
 235 0052 10E0     		b	.L10	@
 236              	.L11:
 237              	@ core/lpc17xx_uart.c:135: 	else if (UARTx == LPC_UART2)
 134:core/lpc17xx_uart.c **** 	}
 135:core/lpc17xx_uart.c **** 	else if (UARTx == LPC_UART2)
 238              		.loc 1 135 0
 239 0054 7B68     		ldr	r3, [r7, #4]	@ tmp156, UARTx
 240 0056 6D4A     		ldr	r2, .L30+12	@ tmp157,
 241 0058 9342     		cmp	r3, r2	@ tmp156, tmp157
 242 005a 04D1     		bne	.L12	@,
 243              	@ core/lpc17xx_uart.c:137: 		uClk = CLKPWR_GetPCLK (CLKPWR_PCLKSEL_UART2);
 136:core/lpc17xx_uart.c **** 	{
 137:core/lpc17xx_uart.c **** 		uClk = CLKPWR_GetPCLK (CLKPWR_PCLKSEL_UART2);
 244              		.loc 1 137 0
 245 005c 3020     		movs	r0, #48	@,
 246 005e FFF7FEFF 		bl	CLKPWR_GetPCLK	@
 247 0062 3863     		str	r0, [r7, #48]	@, uClk
 248 0064 07E0     		b	.L10	@
 249              	.L12:
 250              	@ core/lpc17xx_uart.c:139: 	else if (UARTx == LPC_UART3)
 138:core/lpc17xx_uart.c **** 	}
 139:core/lpc17xx_uart.c **** 	else if (UARTx == LPC_UART3)
 251              		.loc 1 139 0
 252 0066 7B68     		ldr	r3, [r7, #4]	@ tmp158, UARTx
 253 0068 694A     		ldr	r2, .L30+16	@ tmp159,
 254 006a 9342     		cmp	r3, r2	@ tmp158, tmp159
 255 006c 03D1     		bne	.L10	@,
 256              	@ core/lpc17xx_uart.c:141: 		uClk = CLKPWR_GetPCLK (CLKPWR_PCLKSEL_UART3);
ARM GAS  /tmp/ccf79Nqw.s 			page 8


 140:core/lpc17xx_uart.c **** 	{
 141:core/lpc17xx_uart.c **** 		uClk = CLKPWR_GetPCLK (CLKPWR_PCLKSEL_UART3);
 257              		.loc 1 141 0
 258 006e 3220     		movs	r0, #50	@,
 259 0070 FFF7FEFF 		bl	CLKPWR_GetPCLK	@
 260 0074 3863     		str	r0, [r7, #48]	@, uClk
 261              	.L10:
 262              	@ core/lpc17xx_uart.c:145: 	uClk = uClk >> 4; /* div by 16 */
 142:core/lpc17xx_uart.c **** 	}
 143:core/lpc17xx_uart.c **** 
 144:core/lpc17xx_uart.c **** 
 145:core/lpc17xx_uart.c **** 	uClk = uClk >> 4; /* div by 16 */
 263              		.loc 1 145 0
 264 0076 3B6B     		ldr	r3, [r7, #48]	@ tmp161, uClk
 265 0078 1B09     		lsrs	r3, r3, #4	@ tmp160, tmp161,
 266 007a 3B63     		str	r3, [r7, #48]	@ tmp160, uClk
 267              	@ core/lpc17xx_uart.c:153: 	for (mulFracDiv = 1 ; mulFracDiv <= 15 ;mulFracDiv++)
 146:core/lpc17xx_uart.c **** 	/* In the Uart IP block, baud rate is calculated using FDR and DLL-DLM registers
 147:core/lpc17xx_uart.c **** 	* The formula is :
 148:core/lpc17xx_uart.c **** 	* BaudRate= uClk * (mulFracDiv/(mulFracDiv+dividerAddFracDiv) / (16 * (DLL)
 149:core/lpc17xx_uart.c **** 	* It involves floating point calculations. That's the reason the formulae are adjusted with
 150:core/lpc17xx_uart.c **** 	* Multiply and divide method.*/
 151:core/lpc17xx_uart.c **** 	/* The value of mulFracDiv and dividerAddFracDiv should comply to the following expressions:
 152:core/lpc17xx_uart.c **** 	* 0 < mulFracDiv <= 15, 0 <= dividerAddFracDiv <= 15 */
 153:core/lpc17xx_uart.c **** 	for (mulFracDiv = 1 ; mulFracDiv <= 15 ;mulFracDiv++)
 268              		.loc 1 153 0
 269 007c 0123     		movs	r3, #1	@ tmp162,
 270 007e FB62     		str	r3, [r7, #44]	@ tmp162, mulFracDiv
 271 0080 56E0     		b	.L13	@
 272              	.L23:
 273              	@ core/lpc17xx_uart.c:155: 	for (dividerAddFracDiv = 0 ; dividerAddFracDiv <= 15 ;dividerAddFracDiv
 154:core/lpc17xx_uart.c **** 	{
 155:core/lpc17xx_uart.c **** 	for (dividerAddFracDiv = 0 ; dividerAddFracDiv <= 15 ;dividerAddFracDiv++)
 274              		.loc 1 155 0
 275 0082 0023     		movs	r3, #0	@ tmp163,
 276 0084 BB62     		str	r3, [r7, #40]	@ tmp163, dividerAddFracDiv
 277 0086 48E0     		b	.L14	@
 278              	.L20:
 279              	@ core/lpc17xx_uart.c:157: 	  temp = (mulFracDiv * uClk) / ((mulFracDiv + dividerAddFracDiv));
 156:core/lpc17xx_uart.c **** 	{
 157:core/lpc17xx_uart.c **** 	  temp = (mulFracDiv * uClk) / ((mulFracDiv + dividerAddFracDiv));
 280              		.loc 1 157 0
 281 0088 FB6A     		ldr	r3, [r7, #44]	@ tmp164, mulFracDiv
 282 008a 3A6B     		ldr	r2, [r7, #48]	@ tmp165, uClk
 283 008c 02FB03F2 		mul	r2, r2, r3	@ _1, tmp165, tmp164
 284 0090 F96A     		ldr	r1, [r7, #44]	@ tmp166, mulFracDiv
 285 0092 BB6A     		ldr	r3, [r7, #40]	@ tmp167, dividerAddFracDiv
 286 0094 0B44     		add	r3, r3, r1	@ _2, tmp166
 287 0096 B2FBF3F3 		udiv	r3, r2, r3	@ tmp168, _1, _2
 288 009a BB60     		str	r3, [r7, #8]	@ tmp168, temp
 289              	@ core/lpc17xx_uart.c:159: 	  diviser = temp / baudrate;
 158:core/lpc17xx_uart.c **** 
 159:core/lpc17xx_uart.c **** 	  diviser = temp / baudrate;
 290              		.loc 1 159 0
 291 009c BA68     		ldr	r2, [r7, #8]	@ tmp171, temp
 292 009e 3B68     		ldr	r3, [r7]	@ tmp172, baudrate
 293 00a0 B2FBF3F3 		udiv	r3, r2, r3	@ tmp170, tmp171, tmp172
ARM GAS  /tmp/ccf79Nqw.s 			page 9


 294 00a4 7B62     		str	r3, [r7, #36]	@ tmp170, diviser
 295              	@ core/lpc17xx_uart.c:160: 	  if ((temp % baudrate) > (baudrate / 2))
 160:core/lpc17xx_uart.c **** 	  if ((temp % baudrate) > (baudrate / 2))
 296              		.loc 1 160 0
 297 00a6 BB68     		ldr	r3, [r7, #8]	@ tmp173, temp
 298 00a8 3A68     		ldr	r2, [r7]	@ tmp177, baudrate
 299 00aa B3FBF2F2 		udiv	r2, r3, r2	@ tmp176, tmp173, tmp177
 300 00ae 3968     		ldr	r1, [r7]	@ tmp179, baudrate
 301 00b0 01FB02F2 		mul	r2, r1, r2	@ tmp178, tmp179, tmp176
 302 00b4 9A1A     		subs	r2, r3, r2	@ _3, tmp173, tmp178
 303 00b6 3B68     		ldr	r3, [r7]	@ tmp180, baudrate
 304 00b8 5B08     		lsrs	r3, r3, #1	@ _4, tmp180,
 305 00ba 9A42     		cmp	r2, r3	@ _3, _4
 306 00bc 02D9     		bls	.L15	@,
 307              	@ core/lpc17xx_uart.c:161: 		diviser++;
 161:core/lpc17xx_uart.c **** 		diviser++;
 308              		.loc 1 161 0
 309 00be 7B6A     		ldr	r3, [r7, #36]	@ tmp182, diviser
 310 00c0 0133     		adds	r3, r3, #1	@ tmp181, tmp182,
 311 00c2 7B62     		str	r3, [r7, #36]	@ tmp181, diviser
 312              	.L15:
 313              	@ core/lpc17xx_uart.c:163: 	  if (diviser > 2 && diviser < 65536)
 162:core/lpc17xx_uart.c **** 
 163:core/lpc17xx_uart.c **** 	  if (diviser > 2 && diviser < 65536)
 314              		.loc 1 163 0
 315 00c4 7B6A     		ldr	r3, [r7, #36]	@ tmp183, diviser
 316 00c6 022B     		cmp	r3, #2	@ tmp183,
 317 00c8 24D9     		bls	.L16	@,
 318              	@ core/lpc17xx_uart.c:163: 	  if (diviser > 2 && diviser < 65536)
 319              		.loc 1 163 0 is_stmt 0 discriminator 1
 320 00ca 7B6A     		ldr	r3, [r7, #36]	@ tmp184, diviser
 321 00cc B3F5803F 		cmp	r3, #65536	@ tmp184,
 322 00d0 20D2     		bcs	.L16	@,
 323              	@ core/lpc17xx_uart.c:165: 		calcBaudrate = temp / diviser;
 164:core/lpc17xx_uart.c **** 	  {
 165:core/lpc17xx_uart.c **** 		calcBaudrate = temp / diviser;
 324              		.loc 1 165 0 is_stmt 1
 325 00d2 BA68     		ldr	r2, [r7, #8]	@ tmp187, temp
 326 00d4 7B6A     		ldr	r3, [r7, #36]	@ tmp188, diviser
 327 00d6 B2FBF3F3 		udiv	r3, r2, r3	@ tmp186, tmp187, tmp188
 328 00da FB60     		str	r3, [r7, #12]	@ tmp186, calcBaudrate
 329              	@ core/lpc17xx_uart.c:167: 		if (calcBaudrate <= baudrate)
 166:core/lpc17xx_uart.c **** 
 167:core/lpc17xx_uart.c **** 		if (calcBaudrate <= baudrate)
 330              		.loc 1 167 0
 331 00dc FA68     		ldr	r2, [r7, #12]	@ tmp189, calcBaudrate
 332 00de 3B68     		ldr	r3, [r7]	@ tmp190, baudrate
 333 00e0 9A42     		cmp	r2, r3	@ tmp189, tmp190
 334 00e2 04D8     		bhi	.L17	@,
 335              	@ core/lpc17xx_uart.c:168: 		  relativeError = baudrate - calcBaudrate;
 168:core/lpc17xx_uart.c **** 		  relativeError = baudrate - calcBaudrate;
 336              		.loc 1 168 0
 337 00e4 3A68     		ldr	r2, [r7]	@ tmp192, baudrate
 338 00e6 FB68     		ldr	r3, [r7, #12]	@ tmp193, calcBaudrate
 339 00e8 D31A     		subs	r3, r2, r3	@ tmp191, tmp192, tmp193
 340 00ea 7B61     		str	r3, [r7, #20]	@ tmp191, relativeError
 341 00ec 03E0     		b	.L18	@
ARM GAS  /tmp/ccf79Nqw.s 			page 10


 342              	.L17:
 343              	@ core/lpc17xx_uart.c:170: 		  relativeError = calcBaudrate - baudrate;
 169:core/lpc17xx_uart.c **** 		else
 170:core/lpc17xx_uart.c **** 		  relativeError = calcBaudrate - baudrate;
 344              		.loc 1 170 0
 345 00ee FA68     		ldr	r2, [r7, #12]	@ tmp195, calcBaudrate
 346 00f0 3B68     		ldr	r3, [r7]	@ tmp196, baudrate
 347 00f2 D31A     		subs	r3, r2, r3	@ tmp194, tmp195, tmp196
 348 00f4 7B61     		str	r3, [r7, #20]	@ tmp194, relativeError
 349              	.L18:
 350              	@ core/lpc17xx_uart.c:172: 		if ((relativeError < relativeOptimalError))
 171:core/lpc17xx_uart.c **** 
 172:core/lpc17xx_uart.c **** 		if ((relativeError < relativeOptimalError))
 351              		.loc 1 172 0
 352 00f6 7A69     		ldr	r2, [r7, #20]	@ tmp197, relativeError
 353 00f8 3B69     		ldr	r3, [r7, #16]	@ tmp198, relativeOptimalError
 354 00fa 9A42     		cmp	r2, r3	@ tmp197, tmp198
 355 00fc 0AD2     		bcs	.L16	@,
 356              	@ core/lpc17xx_uart.c:174: 		  mulFracDivOptimal = mulFracDiv ;
 173:core/lpc17xx_uart.c **** 		{
 174:core/lpc17xx_uart.c **** 		  mulFracDivOptimal = mulFracDiv ;
 357              		.loc 1 174 0
 358 00fe FB6A     		ldr	r3, [r7, #44]	@ tmp199, mulFracDiv
 359 0100 3B62     		str	r3, [r7, #32]	@ tmp199, mulFracDivOptimal
 360              	@ core/lpc17xx_uart.c:175: 		  dividerAddOptimal = dividerAddFracDiv;
 175:core/lpc17xx_uart.c **** 		  dividerAddOptimal = dividerAddFracDiv;
 361              		.loc 1 175 0
 362 0102 BB6A     		ldr	r3, [r7, #40]	@ tmp200, dividerAddFracDiv
 363 0104 FB61     		str	r3, [r7, #28]	@ tmp200, dividerAddOptimal
 364              	@ core/lpc17xx_uart.c:176: 		  diviserOptimal = diviser;
 176:core/lpc17xx_uart.c **** 		  diviserOptimal = diviser;
 365              		.loc 1 176 0
 366 0106 7B6A     		ldr	r3, [r7, #36]	@ tmp201, diviser
 367 0108 BB61     		str	r3, [r7, #24]	@ tmp201, diviserOptimal
 368              	@ core/lpc17xx_uart.c:177: 		  relativeOptimalError = relativeError;
 177:core/lpc17xx_uart.c **** 		  relativeOptimalError = relativeError;
 369              		.loc 1 177 0
 370 010a 7B69     		ldr	r3, [r7, #20]	@ tmp202, relativeError
 371 010c 3B61     		str	r3, [r7, #16]	@ tmp202, relativeOptimalError
 372              	@ core/lpc17xx_uart.c:178: 		  if (relativeError == 0)
 178:core/lpc17xx_uart.c **** 		  if (relativeError == 0)
 373              		.loc 1 178 0
 374 010e 7B69     		ldr	r3, [r7, #20]	@ tmp203, relativeError
 375 0110 002B     		cmp	r3, #0	@ tmp203,
 376 0112 06D0     		beq	.L28	@,
 377              	.L16:
 378              	@ core/lpc17xx_uart.c:155: 	for (dividerAddFracDiv = 0 ; dividerAddFracDiv <= 15 ;dividerAddFracDiv
 155:core/lpc17xx_uart.c **** 	{
 379              		.loc 1 155 0 discriminator 2
 380 0114 BB6A     		ldr	r3, [r7, #40]	@ tmp205, dividerAddFracDiv
 381 0116 0133     		adds	r3, r3, #1	@ tmp204, tmp205,
 382 0118 BB62     		str	r3, [r7, #40]	@ tmp204, dividerAddFracDiv
 383              	.L14:
 384              	@ core/lpc17xx_uart.c:155: 	for (dividerAddFracDiv = 0 ; dividerAddFracDiv <= 15 ;dividerAddFracDiv
 155:core/lpc17xx_uart.c **** 	{
 385              		.loc 1 155 0 is_stmt 0 discriminator 1
 386 011a BB6A     		ldr	r3, [r7, #40]	@ tmp206, dividerAddFracDiv
ARM GAS  /tmp/ccf79Nqw.s 			page 11


 387 011c 0F2B     		cmp	r3, #15	@ tmp206,
 388 011e B3D9     		bls	.L20	@,
 389 0120 00E0     		b	.L19	@
 390              	.L28:
 391              	@ core/lpc17xx_uart.c:179: 			break;
 179:core/lpc17xx_uart.c **** 			break;
 392              		.loc 1 179 0 is_stmt 1
 393 0122 00BF     		nop
 394              	.L19:
 395              	@ core/lpc17xx_uart.c:183: 	if (relativeError == 0)
 180:core/lpc17xx_uart.c **** 		}
 181:core/lpc17xx_uart.c **** 	  } /* End of if */
 182:core/lpc17xx_uart.c **** 	} /* end of inner for loop */
 183:core/lpc17xx_uart.c **** 	if (relativeError == 0)
 396              		.loc 1 183 0
 397 0124 7B69     		ldr	r3, [r7, #20]	@ tmp207, relativeError
 398 0126 002B     		cmp	r3, #0	@ tmp207,
 399 0128 06D0     		beq	.L29	@,
 400              	@ core/lpc17xx_uart.c:153: 	for (mulFracDiv = 1 ; mulFracDiv <= 15 ;mulFracDiv++)
 153:core/lpc17xx_uart.c **** 	{
 401              		.loc 1 153 0 discriminator 2
 402 012a FB6A     		ldr	r3, [r7, #44]	@ tmp209, mulFracDiv
 403 012c 0133     		adds	r3, r3, #1	@ tmp208, tmp209,
 404 012e FB62     		str	r3, [r7, #44]	@ tmp208, mulFracDiv
 405              	.L13:
 406              	@ core/lpc17xx_uart.c:153: 	for (mulFracDiv = 1 ; mulFracDiv <= 15 ;mulFracDiv++)
 153:core/lpc17xx_uart.c **** 	{
 407              		.loc 1 153 0 is_stmt 0 discriminator 1
 408 0130 FB6A     		ldr	r3, [r7, #44]	@ tmp210, mulFracDiv
 409 0132 0F2B     		cmp	r3, #15	@ tmp210,
 410 0134 A5D9     		bls	.L23	@,
 411 0136 00E0     		b	.L22	@
 412              	.L29:
 413              	@ core/lpc17xx_uart.c:184: 	  break;
 184:core/lpc17xx_uart.c **** 	  break;
 414              		.loc 1 184 0 is_stmt 1
 415 0138 00BF     		nop
 416              	.L22:
 417              	@ core/lpc17xx_uart.c:187: 	if (relativeOptimalError < ((baudrate * UART_ACCEPTED_BAUDRATE_ERROR)/1
 185:core/lpc17xx_uart.c **** 	} /* end of outer for loop  */
 186:core/lpc17xx_uart.c **** 
 187:core/lpc17xx_uart.c **** 	if (relativeOptimalError < ((baudrate * UART_ACCEPTED_BAUDRATE_ERROR)/100))
 418              		.loc 1 187 0
 419 013a 3A68     		ldr	r2, [r7]	@ tmp211, baudrate
 420 013c 1346     		mov	r3, r2	@ tmp212, tmp211
 421 013e 5B00     		lsls	r3, r3, #1	@ tmp212, tmp212,
 422 0140 1344     		add	r3, r3, r2	@ _5, tmp211
 423 0142 344A     		ldr	r2, .L30+20	@ tmp214,
 424 0144 A2FB0323 		umull	r2, r3, r2, r3	@ tmp267, tmp213, tmp214, _5
 425 0148 5B09     		lsrs	r3, r3, #5	@ _6, tmp213,
 426 014a 3A69     		ldr	r2, [r7, #16]	@ tmp215, relativeOptimalError
 427 014c 9A42     		cmp	r2, r3	@ tmp215, _6
 428 014e 51D2     		bcs	.L24	@,
 429              	@ core/lpc17xx_uart.c:189: 		if (((LPC_UART1_TypeDef *)UARTx) == LPC_UART1)
 188:core/lpc17xx_uart.c **** 	{
 189:core/lpc17xx_uart.c **** 		if (((LPC_UART1_TypeDef *)UARTx) == LPC_UART1)
 430              		.loc 1 189 0
ARM GAS  /tmp/ccf79Nqw.s 			page 12


 431 0150 7B68     		ldr	r3, [r7, #4]	@ tmp216, UARTx
 432 0152 2D4A     		ldr	r2, .L30+8	@ tmp217,
 433 0154 9342     		cmp	r3, r2	@ tmp216, tmp217
 434 0156 23D1     		bne	.L25	@,
 435              	@ core/lpc17xx_uart.c:191: 			((LPC_UART1_TypeDef *)UARTx)->LCR |= UART_LCR_DLAB_EN;
 190:core/lpc17xx_uart.c **** 		{
 191:core/lpc17xx_uart.c **** 			((LPC_UART1_TypeDef *)UARTx)->LCR |= UART_LCR_DLAB_EN;
 436              		.loc 1 191 0
 437 0158 7B68     		ldr	r3, [r7, #4]	@ tmp218, UARTx
 438 015a 1B7B     		ldrb	r3, [r3, #12]	@ tmp220, MEM[(struct LPC_UART1_TypeDef *)UARTx_73(D)].LCR
 439 015c DBB2     		uxtb	r3, r3	@ _7, tmp220
 440 015e 63F07F03 		orn	r3, r3, #127	@ tmp221, _7,
 441 0162 DAB2     		uxtb	r2, r3	@ _8, tmp221
 442 0164 7B68     		ldr	r3, [r7, #4]	@ tmp222, UARTx
 443 0166 1A73     		strb	r2, [r3, #12]	@ tmp223, MEM[(struct LPC_UART1_TypeDef *)UARTx_73(D)].LCR
 444              	@ core/lpc17xx_uart.c:192: 			((LPC_UART1_TypeDef *)UARTx)->/*DLIER.*/DLM = UART_LOAD_DLM(diviserOp
 192:core/lpc17xx_uart.c **** 			((LPC_UART1_TypeDef *)UARTx)->/*DLIER.*/DLM = UART_LOAD_DLM(diviserOptimal);
 445              		.loc 1 192 0
 446 0168 BB69     		ldr	r3, [r7, #24]	@ tmp224, diviserOptimal
 447 016a 1B0A     		lsrs	r3, r3, #8	@ _9, tmp224,
 448 016c DAB2     		uxtb	r2, r3	@ _10, _9
 449 016e 7B68     		ldr	r3, [r7, #4]	@ tmp225, UARTx
 450 0170 1A71     		strb	r2, [r3, #4]	@ tmp226, MEM[(struct LPC_UART1_TypeDef *)UARTx_73(D)].D.4812.DLM
 451              	@ core/lpc17xx_uart.c:193: 			((LPC_UART1_TypeDef *)UARTx)->/*RBTHDLR.*/DLL = UART_LOAD_DLL(diviser
 193:core/lpc17xx_uart.c **** 			((LPC_UART1_TypeDef *)UARTx)->/*RBTHDLR.*/DLL = UART_LOAD_DLL(diviserOptimal);
 452              		.loc 1 193 0
 453 0172 BB69     		ldr	r3, [r7, #24]	@ tmp227, diviserOptimal
 454 0174 DAB2     		uxtb	r2, r3	@ _11, tmp227
 455 0176 7B68     		ldr	r3, [r7, #4]	@ tmp228, UARTx
 456 0178 1A70     		strb	r2, [r3]	@ tmp229, MEM[(struct LPC_UART1_TypeDef *)UARTx_73(D)].D.4808.DLL
 457              	@ core/lpc17xx_uart.c:195: 			((LPC_UART1_TypeDef *)UARTx)->LCR &= (~UART_LCR_DLAB_EN) & UART_LCR_B
 194:core/lpc17xx_uart.c **** 			/* Then reset DLAB bit */
 195:core/lpc17xx_uart.c **** 			((LPC_UART1_TypeDef *)UARTx)->LCR &= (~UART_LCR_DLAB_EN) & UART_LCR_BITMASK;
 458              		.loc 1 195 0
 459 017a 7B68     		ldr	r3, [r7, #4]	@ tmp230, UARTx
 460 017c 1B7B     		ldrb	r3, [r3, #12]	@ tmp232, MEM[(struct LPC_UART1_TypeDef *)UARTx_73(D)].LCR
 461 017e DBB2     		uxtb	r3, r3	@ _12, tmp232
 462 0180 03F07F03 		and	r3, r3, #127	@ tmp233, _12,
 463 0184 DAB2     		uxtb	r2, r3	@ _13, tmp233
 464 0186 7B68     		ldr	r3, [r7, #4]	@ tmp234, UARTx
 465 0188 1A73     		strb	r2, [r3, #12]	@ tmp235, MEM[(struct LPC_UART1_TypeDef *)UARTx_73(D)].LCR
 466              	@ core/lpc17xx_uart.c:196: 			((LPC_UART1_TypeDef *)UARTx)->FDR = (UART_FDR_MULVAL(mulFracDivOptima
 196:core/lpc17xx_uart.c **** 			((LPC_UART1_TypeDef *)UARTx)->FDR = (UART_FDR_MULVAL(mulFracDivOptimal) \
 467              		.loc 1 196 0
 468 018a 3B6A     		ldr	r3, [r7, #32]	@ tmp236, mulFracDivOptimal
 469 018c 1B01     		lsls	r3, r3, #4	@ _14, tmp236,
 470 018e DAB2     		uxtb	r2, r3	@ _15, _14
 471              	@ core/lpc17xx_uart.c:197: 					| UART_FDR_DIVADDVAL(dividerAddOptimal)) & UART_FDR_BITMASK;
 197:core/lpc17xx_uart.c **** 					| UART_FDR_DIVADDVAL(dividerAddOptimal)) & UART_FDR_BITMASK;
 472              		.loc 1 197 0
 473 0190 FB69     		ldr	r3, [r7, #28]	@ tmp237, dividerAddOptimal
 474 0192 03F00F03 		and	r3, r3, #15	@ _16, tmp237,
 475 0196 1343     		orrs	r3, r3, r2	@, _17, _16, _15
 476 0198 DAB2     		uxtb	r2, r3	@ _18, _17
 477              	@ core/lpc17xx_uart.c:196: 			((LPC_UART1_TypeDef *)UARTx)->FDR = (UART_FDR_MULVAL(mulFracDivOptima
 196:core/lpc17xx_uart.c **** 			((LPC_UART1_TypeDef *)UARTx)->FDR = (UART_FDR_MULVAL(mulFracDivOptimal) \
 478              		.loc 1 196 0
ARM GAS  /tmp/ccf79Nqw.s 			page 13


 479 019a 7B68     		ldr	r3, [r7, #4]	@ tmp238, UARTx
 480 019c 9A62     		str	r2, [r3, #40]	@ _18, MEM[(struct LPC_UART1_TypeDef *)UARTx_73(D)].FDR
 481 019e 26E0     		b	.L26	@
 482              	.L25:
 483              	@ core/lpc17xx_uart.c:201: 			UARTx->LCR |= UART_LCR_DLAB_EN;
 198:core/lpc17xx_uart.c **** 		}
 199:core/lpc17xx_uart.c **** 		else
 200:core/lpc17xx_uart.c **** 		{
 201:core/lpc17xx_uart.c **** 			UARTx->LCR |= UART_LCR_DLAB_EN;
 484              		.loc 1 201 0
 485 01a0 7B68     		ldr	r3, [r7, #4]	@ tmp239, UARTx
 486 01a2 1B7B     		ldrb	r3, [r3, #12]	@ tmp241, UARTx_73(D)->LCR
 487 01a4 DBB2     		uxtb	r3, r3	@ _19, tmp241
 488 01a6 63F07F03 		orn	r3, r3, #127	@ tmp242, _19,
 489 01aa DAB2     		uxtb	r2, r3	@ _20, tmp242
 490 01ac 7B68     		ldr	r3, [r7, #4]	@ tmp243, UARTx
 491 01ae 1A73     		strb	r2, [r3, #12]	@ tmp244, UARTx_73(D)->LCR
 492              	@ core/lpc17xx_uart.c:202: 			UARTx->/*DLIER.*/DLM = UART_LOAD_DLM(diviserOptimal);
 202:core/lpc17xx_uart.c **** 			UARTx->/*DLIER.*/DLM = UART_LOAD_DLM(diviserOptimal);
 493              		.loc 1 202 0
 494 01b0 BB69     		ldr	r3, [r7, #24]	@ tmp245, diviserOptimal
 495 01b2 1B0A     		lsrs	r3, r3, #8	@ _21, tmp245,
 496 01b4 DAB2     		uxtb	r2, r3	@ _22, _21
 497 01b6 7B68     		ldr	r3, [r7, #4]	@ tmp246, UARTx
 498 01b8 1A71     		strb	r2, [r3, #4]	@ tmp247, UARTx_73(D)->D.4752.DLM
 499              	@ core/lpc17xx_uart.c:203: 			UARTx->/*RBTHDLR.*/DLL = UART_LOAD_DLL(diviserOptimal);
 203:core/lpc17xx_uart.c **** 			UARTx->/*RBTHDLR.*/DLL = UART_LOAD_DLL(diviserOptimal);
 500              		.loc 1 203 0
 501 01ba BB69     		ldr	r3, [r7, #24]	@ tmp248, diviserOptimal
 502 01bc DAB2     		uxtb	r2, r3	@ _23, tmp248
 503 01be 7B68     		ldr	r3, [r7, #4]	@ tmp249, UARTx
 504 01c0 1A70     		strb	r2, [r3]	@ tmp250, UARTx_73(D)->D.4748.DLL
 505              	@ core/lpc17xx_uart.c:205: 			UARTx->LCR &= (~UART_LCR_DLAB_EN) & UART_LCR_BITMASK;
 204:core/lpc17xx_uart.c **** 			/* Then reset DLAB bit */
 205:core/lpc17xx_uart.c **** 			UARTx->LCR &= (~UART_LCR_DLAB_EN) & UART_LCR_BITMASK;
 506              		.loc 1 205 0
 507 01c2 7B68     		ldr	r3, [r7, #4]	@ tmp251, UARTx
 508 01c4 1B7B     		ldrb	r3, [r3, #12]	@ tmp253, UARTx_73(D)->LCR
 509 01c6 DBB2     		uxtb	r3, r3	@ _24, tmp253
 510 01c8 03F07F03 		and	r3, r3, #127	@ tmp254, _24,
 511 01cc DAB2     		uxtb	r2, r3	@ _25, tmp254
 512 01ce 7B68     		ldr	r3, [r7, #4]	@ tmp255, UARTx
 513 01d0 1A73     		strb	r2, [r3, #12]	@ tmp256, UARTx_73(D)->LCR
 514              	@ core/lpc17xx_uart.c:206: 			UARTx->FDR = (UART_FDR_MULVAL(mulFracDivOptimal) \
 206:core/lpc17xx_uart.c **** 			UARTx->FDR = (UART_FDR_MULVAL(mulFracDivOptimal) \
 515              		.loc 1 206 0
 516 01d2 3B6A     		ldr	r3, [r7, #32]	@ tmp257, mulFracDivOptimal
 517 01d4 DBB2     		uxtb	r3, r3	@ _26, tmp257
 518 01d6 1B01     		lsls	r3, r3, #4	@ tmp258, _26,
 519 01d8 DAB2     		uxtb	r2, r3	@ _27, tmp258
 520              	@ core/lpc17xx_uart.c:207: 					| UART_FDR_DIVADDVAL(dividerAddOptimal)) & UART_FDR_BITMASK;
 207:core/lpc17xx_uart.c **** 					| UART_FDR_DIVADDVAL(dividerAddOptimal)) & UART_FDR_BITMASK;
 521              		.loc 1 207 0
 522 01da FB69     		ldr	r3, [r7, #28]	@ tmp259, dividerAddOptimal
 523 01dc DBB2     		uxtb	r3, r3	@ _28, tmp259
 524 01de 03F00F03 		and	r3, r3, #15	@ tmp260, _28,
 525 01e2 DBB2     		uxtb	r3, r3	@ _29, tmp260
ARM GAS  /tmp/ccf79Nqw.s 			page 14


 526 01e4 1343     		orrs	r3, r3, r2	@, tmp261, _29, _27
 527 01e6 DAB2     		uxtb	r2, r3	@ _30, tmp261
 528              	@ core/lpc17xx_uart.c:206: 			UARTx->FDR = (UART_FDR_MULVAL(mulFracDivOptimal) \
 206:core/lpc17xx_uart.c **** 			UARTx->FDR = (UART_FDR_MULVAL(mulFracDivOptimal) \
 529              		.loc 1 206 0
 530 01e8 7B68     		ldr	r3, [r7, #4]	@ tmp262, UARTx
 531 01ea 83F82820 		strb	r2, [r3, #40]	@ tmp263, UARTx_73(D)->FDR
 532              	.L26:
 533              	@ core/lpc17xx_uart.c:209: 		errorStatus = SUCCESS;
 208:core/lpc17xx_uart.c **** 		}
 209:core/lpc17xx_uart.c **** 		errorStatus = SUCCESS;
 534              		.loc 1 209 0
 535 01ee 0123     		movs	r3, #1	@ tmp264,
 536 01f0 87F83730 		strb	r3, [r7, #55]	@ tmp265, errorStatus
 537              	.L24:
 538              	@ core/lpc17xx_uart.c:212: 	return errorStatus;
 210:core/lpc17xx_uart.c **** 	}
 211:core/lpc17xx_uart.c **** 
 212:core/lpc17xx_uart.c **** 	return errorStatus;
 539              		.loc 1 212 0
 540 01f4 97F83730 		ldrb	r3, [r7, #55]	@ zero_extendqisi2	@ _111, errorStatus
 541              	@ core/lpc17xx_uart.c:213: }
 213:core/lpc17xx_uart.c **** }
 542              		.loc 1 213 0
 543 01f8 1846     		mov	r0, r3	@, <retval>
 544 01fa 3837     		adds	r7, r7, #56	@,,
 545              		.cfi_def_cfa_offset 8
 546 01fc BD46     		mov	sp, r7	@,
 547              		.cfi_def_cfa_register 13
 548              		@ sp needed	@
 549 01fe 80BD     		pop	{r7, pc}	@
 550              	.L31:
 551              		.align	2
 552              	.L30:
 553 0200 A0860100 		.word	100000
 554 0204 00C00040 		.word	1073790976
 555 0208 00000140 		.word	1073807360
 556 020c 00800940 		.word	1074364416
 557 0210 00C00940 		.word	1074380800
 558 0214 1F85EB51 		.word	1374389535
 559              		.cfi_endproc
 560              	.LFE56:
 561              		.size	uart_set_divisors, .-uart_set_divisors
 562              		.section	.bss.xx,"aw",%nobits
 563              		.align	2
 564              		.type	xx, %object
 565              		.size	xx, 4
 566              	xx:
 567 0000 00000000 		.space	4
 568              		.section	.text.UART_GenIntHandler,"ax",%progbits
 569              		.align	1
 570              		.global	UART_GenIntHandler
 571              		.syntax unified
 572              		.thumb
 573              		.thumb_func
 574              		.fpu softvfp
 575              		.type	UART_GenIntHandler, %function
ARM GAS  /tmp/ccf79Nqw.s 			page 15


 576              	UART_GenIntHandler:
 577              	.LFB57:
 214:core/lpc17xx_uart.c **** static volatile xx=0u;
 215:core/lpc17xx_uart.c **** /*********************************************************************//**
 216:core/lpc17xx_uart.c ****  * @brief		General UART interrupt handler and router
 217:core/lpc17xx_uart.c ****  * @param[in]	UARTx	Selected UART peripheral, should be UART0..3
 218:core/lpc17xx_uart.c ****  * @return		None
 219:core/lpc17xx_uart.c ****  *
 220:core/lpc17xx_uart.c ****  * Note:
 221:core/lpc17xx_uart.c ****  * - Handles transmit, receive, and status interrupts for the UART.
 222:core/lpc17xx_uart.c ****  * Based on the interrupt status, routes the interrupt to the
 223:core/lpc17xx_uart.c ****  * respective call-back to be handled by the user application using
 224:core/lpc17xx_uart.c ****  * this driver.
 225:core/lpc17xx_uart.c ****  * - If callback is not installed, corresponding interrupt will be disabled
 226:core/lpc17xx_uart.c ****  * - All these interrupt source below will be checked:
 227:core/lpc17xx_uart.c ****  *   		- Transmit Holding Register Empty.
 228:core/lpc17xx_uart.c ****  * 			- Received Data Available and Character Time Out.
 229:core/lpc17xx_uart.c ****  * 			- Receive Line Status (not implemented)
 230:core/lpc17xx_uart.c ****  * 			- End of auto-baud interrupt (not implemented)
 231:core/lpc17xx_uart.c ****  * 			- Auto-Baudrate Time-Out interrupt (not implemented)
 232:core/lpc17xx_uart.c ****  * 			- Modem Status interrupt (UART0 Modem functionality)
 233:core/lpc17xx_uart.c ****  * 			- CTS signal transition interrupt (UART0 Modem functionality)
 234:core/lpc17xx_uart.c ****  **********************************************************************/
 235:core/lpc17xx_uart.c **** void UART_GenIntHandler(LPC_UART_TypeDef *UARTx)
 236:core/lpc17xx_uart.c **** {
 578              		.loc 1 236 0
 579              		.cfi_startproc
 580              		@ args = 0, pretend = 0, frame = 32
 581              		@ frame_needed = 1, uses_anonymous_args = 0
 582 0000 80B5     		push	{r7, lr}	@
 583              		.cfi_def_cfa_offset 8
 584              		.cfi_offset 7, -8
 585              		.cfi_offset 14, -4
 586 0002 88B0     		sub	sp, sp, #32	@,,
 587              		.cfi_def_cfa_offset 40
 588 0004 00AF     		add	r7, sp, #0	@,,
 589              		.cfi_def_cfa_register 7
 590 0006 7860     		str	r0, [r7, #4]	@ UARTx, UARTx
 591              	@ core/lpc17xx_uart.c:240: 	pUart = getUartNum(UARTx);
 237:core/lpc17xx_uart.c **** 	uint8_t pUart, modemsts;
 238:core/lpc17xx_uart.c **** 	uint32_t intsrc, tmp, tmp1;
 239:core/lpc17xx_uart.c **** 
 240:core/lpc17xx_uart.c **** 	pUart = getUartNum(UARTx);
 592              		.loc 1 240 0
 593 0008 7868     		ldr	r0, [r7, #4]	@, UARTx
 594 000a FFF7FEFF 		bl	getUartNum	@
 595 000e 0346     		mov	r3, r0	@ tmp148,
 596 0010 FB77     		strb	r3, [r7, #31]	@ tmp149, pUart
 597              	@ core/lpc17xx_uart.c:243: 	intsrc = UARTx->IIR;
 241:core/lpc17xx_uart.c **** 
 242:core/lpc17xx_uart.c **** 	/* Determine the interrupt source */
 243:core/lpc17xx_uart.c **** 	intsrc = UARTx->IIR;
 598              		.loc 1 243 0
 599 0012 7B68     		ldr	r3, [r7, #4]	@ tmp150, UARTx
 600 0014 9B68     		ldr	r3, [r3, #8]	@ tmp151, UARTx_45(D)->D.4756.IIR
 601 0016 BB61     		str	r3, [r7, #24]	@ tmp151, intsrc
 602              	@ core/lpc17xx_uart.c:244: 	tmp = intsrc & UART_IIR_INTID_MASK;
ARM GAS  /tmp/ccf79Nqw.s 			page 16


 244:core/lpc17xx_uart.c **** 	tmp = intsrc & UART_IIR_INTID_MASK;
 603              		.loc 1 244 0
 604 0018 BB69     		ldr	r3, [r7, #24]	@ tmp153, intsrc
 605 001a 03F00E03 		and	r3, r3, #14	@ tmp152, tmp153,
 606 001e 7B61     		str	r3, [r7, #20]	@ tmp152, tmp
 607              	@ core/lpc17xx_uart.c:250: 	if (pUart == 1) {
 245:core/lpc17xx_uart.c **** 
 246:core/lpc17xx_uart.c **** 	/*
 247:core/lpc17xx_uart.c **** 	 * In case of using UART1 with full modem,
 248:core/lpc17xx_uart.c **** 	 * interrupt ID = 0 that means modem status interrupt has been detected
 249:core/lpc17xx_uart.c **** 	 */
 250:core/lpc17xx_uart.c **** 	if (pUart == 1) {
 608              		.loc 1 250 0
 609 0020 FB7F     		ldrb	r3, [r7, #31]	@ zero_extendqisi2	@ tmp154, pUart
 610 0022 012B     		cmp	r3, #1	@ tmp154,
 611 0024 1AD1     		bne	.L33	@,
 612              	@ core/lpc17xx_uart.c:251: 		xx++;
 251:core/lpc17xx_uart.c **** 		xx++;
 613              		.loc 1 251 0
 614 0026 4F4B     		ldr	r3, .L45	@ tmp155,
 615 0028 1B68     		ldr	r3, [r3]	@ xx.0_1, xx
 616 002a 0133     		adds	r3, r3, #1	@ _2, xx.0_1,
 617 002c 4D4A     		ldr	r2, .L45	@ tmp156,
 618 002e 1360     		str	r3, [r2]	@ _2, xx
 619              	@ core/lpc17xx_uart.c:252: 		if (tmp == 0){
 252:core/lpc17xx_uart.c **** 		if (tmp == 0){
 620              		.loc 1 252 0
 621 0030 7B69     		ldr	r3, [r7, #20]	@ tmp157, tmp
 622 0032 002B     		cmp	r3, #0	@ tmp157,
 623 0034 12D1     		bne	.L33	@,
 624              	@ core/lpc17xx_uart.c:254: 			modemsts = LPC_UART1->MSR & UART1_MSR_BITMASK;
 253:core/lpc17xx_uart.c **** 			// Check Modem status
 254:core/lpc17xx_uart.c **** 			modemsts = LPC_UART1->MSR & UART1_MSR_BITMASK;
 625              		.loc 1 254 0
 626 0036 4C4B     		ldr	r3, .L45+4	@ _3,
 627 0038 1B7E     		ldrb	r3, [r3, #24]	@ tmp158, _3->MSR
 628 003a FB74     		strb	r3, [r7, #19]	@ tmp158, modemsts
 629              	@ core/lpc17xx_uart.c:256: 			if (pfnModemCbs != NULL){
 255:core/lpc17xx_uart.c **** 			// Call modem status call-back
 256:core/lpc17xx_uart.c **** 			if (pfnModemCbs != NULL){
 630              		.loc 1 256 0
 631 003c 4B4B     		ldr	r3, .L45+8	@ tmp159,
 632 003e 1B68     		ldr	r3, [r3]	@ pfnModemCbs.1_4, pfnModemCbs
 633 0040 002B     		cmp	r3, #0	@ pfnModemCbs.1_4,
 634 0042 05D0     		beq	.L34	@,
 635              	@ core/lpc17xx_uart.c:257: 				pfnModemCbs(modemsts);
 257:core/lpc17xx_uart.c **** 				pfnModemCbs(modemsts);
 636              		.loc 1 257 0
 637 0044 494B     		ldr	r3, .L45+8	@ tmp160,
 638 0046 1B68     		ldr	r3, [r3]	@ pfnModemCbs.2_5, pfnModemCbs
 639 0048 FA7C     		ldrb	r2, [r7, #19]	@ zero_extendqisi2	@ tmp161, modemsts
 640 004a 1046     		mov	r0, r2	@, tmp161
 641 004c 9847     		blx	r3	@ pfnModemCbs.2_5
 642              	.LVL0:
 643 004e 05E0     		b	.L33	@
 644              	.L34:
 645              	@ core/lpc17xx_uart.c:262: 				LPC_UART1->IER &= ~(UART1_IER_MSINT_EN | UART1_IER_CTSINT_EN);
ARM GAS  /tmp/ccf79Nqw.s 			page 17


 258:core/lpc17xx_uart.c **** 			}
 259:core/lpc17xx_uart.c **** 			// disable modem status interrupt and CTS status change interrupt
 260:core/lpc17xx_uart.c **** 			// if its callback is not installed
 261:core/lpc17xx_uart.c **** 			else {
 262:core/lpc17xx_uart.c **** 				LPC_UART1->IER &= ~(UART1_IER_MSINT_EN | UART1_IER_CTSINT_EN);
 646              		.loc 1 262 0
 647 0050 454B     		ldr	r3, .L45+4	@ _6,
 648 0052 5B68     		ldr	r3, [r3, #4]	@ _7, _6->D.4812.IER
 649 0054 444A     		ldr	r2, .L45+4	@ _8,
 650 0056 23F08803 		bic	r3, r3, #136	@ _9, _7,
 651 005a 5360     		str	r3, [r2, #4]	@ _9, _8->D.4812.IER
 652              	.L33:
 653              	@ core/lpc17xx_uart.c:268: 	if (tmp == UART_IIR_INTID_RLS){
 263:core/lpc17xx_uart.c **** 			}
 264:core/lpc17xx_uart.c **** 		}
 265:core/lpc17xx_uart.c **** 	}
 266:core/lpc17xx_uart.c **** 
 267:core/lpc17xx_uart.c **** 	// Receive Line Status
 268:core/lpc17xx_uart.c **** 	if (tmp == UART_IIR_INTID_RLS){
 654              		.loc 1 268 0
 655 005c 7B69     		ldr	r3, [r7, #20]	@ tmp162, tmp
 656 005e 062B     		cmp	r3, #6	@ tmp162,
 657 0060 23D1     		bne	.L35	@,
 658              	@ core/lpc17xx_uart.c:270: 		tmp1 = UARTx->LSR;
 269:core/lpc17xx_uart.c **** 		// Check line status
 270:core/lpc17xx_uart.c **** 		tmp1 = UARTx->LSR;
 659              		.loc 1 270 0
 660 0062 7B68     		ldr	r3, [r7, #4]	@ tmp163, UARTx
 661 0064 1B7D     		ldrb	r3, [r3, #20]	@ tmp165, UARTx_45(D)->LSR
 662 0066 DBB2     		uxtb	r3, r3	@ _10, tmp165
 663 0068 FB60     		str	r3, [r7, #12]	@ _10, tmp1
 664              	@ core/lpc17xx_uart.c:272: 		tmp1 &= (UART_LSR_OE | UART_LSR_PE | UART_LSR_FE \
 271:core/lpc17xx_uart.c **** 		// Mask out the Receive Ready and Transmit Holding empty status
 272:core/lpc17xx_uart.c **** 		tmp1 &= (UART_LSR_OE | UART_LSR_PE | UART_LSR_FE \
 665              		.loc 1 272 0
 666 006a FB68     		ldr	r3, [r7, #12]	@ tmp167, tmp1
 667 006c 03F09E03 		and	r3, r3, #158	@ tmp166, tmp167,
 668 0070 FB60     		str	r3, [r7, #12]	@ tmp166, tmp1
 669              	@ core/lpc17xx_uart.c:275: 		if (tmp1) {
 273:core/lpc17xx_uart.c **** 				| UART_LSR_BI | UART_LSR_RXFE);
 274:core/lpc17xx_uart.c **** 		// If any error exist
 275:core/lpc17xx_uart.c **** 		if (tmp1) {
 670              		.loc 1 275 0
 671 0072 FB68     		ldr	r3, [r7, #12]	@ tmp168, tmp1
 672 0074 002B     		cmp	r3, #0	@ tmp168,
 673 0076 18D0     		beq	.L35	@,
 674              	@ core/lpc17xx_uart.c:277: 			if (uartCbsDat[pUart].pfnErrCbs != NULL) {
 276:core/lpc17xx_uart.c **** 			// Call Call-back function with error input value
 277:core/lpc17xx_uart.c **** 			if (uartCbsDat[pUart].pfnErrCbs != NULL) {
 675              		.loc 1 277 0
 676 0078 FB7F     		ldrb	r3, [r7, #31]	@ zero_extendqisi2	@ _11, pUart
 677 007a 3D4A     		ldr	r2, .L45+12	@ tmp169,
 678 007c 1B01     		lsls	r3, r3, #4	@ tmp170, _11,
 679 007e 1344     		add	r3, r3, r2	@ tmp171, tmp169
 680 0080 0C33     		adds	r3, r3, #12	@ tmp172, tmp171,
 681 0082 1B68     		ldr	r3, [r3]	@ _12, uartCbsDat[_11].pfnErrCbs
 682 0084 002B     		cmp	r3, #0	@ _12,
ARM GAS  /tmp/ccf79Nqw.s 			page 18


 683 0086 0AD0     		beq	.L36	@,
 684              	@ core/lpc17xx_uart.c:278: 				uartCbsDat[pUart].pfnErrCbs(tmp1);
 278:core/lpc17xx_uart.c **** 				uartCbsDat[pUart].pfnErrCbs(tmp1);
 685              		.loc 1 278 0
 686 0088 FB7F     		ldrb	r3, [r7, #31]	@ zero_extendqisi2	@ _13, pUart
 687 008a 394A     		ldr	r2, .L45+12	@ tmp173,
 688 008c 1B01     		lsls	r3, r3, #4	@ tmp174, _13,
 689 008e 1344     		add	r3, r3, r2	@ tmp175, tmp173
 690 0090 0C33     		adds	r3, r3, #12	@ tmp176, tmp175,
 691 0092 1B68     		ldr	r3, [r3]	@ _14, uartCbsDat[_13].pfnErrCbs
 692 0094 FA68     		ldr	r2, [r7, #12]	@ tmp177, tmp1
 693 0096 D2B2     		uxtb	r2, r2	@ _15, tmp177
 694 0098 1046     		mov	r0, r2	@, _15
 695 009a 9847     		blx	r3	@ _14
 696              	.LVL1:
 697 009c 05E0     		b	.L35	@
 698              	.L36:
 699              	@ core/lpc17xx_uart.c:282: 				UARTx->IER &= ~(UART_IER_RLSINT_EN);
 279:core/lpc17xx_uart.c **** 			}
 280:core/lpc17xx_uart.c **** 			// Disable interrupt if its call-back is not install
 281:core/lpc17xx_uart.c **** 			else {
 282:core/lpc17xx_uart.c **** 				UARTx->IER &= ~(UART_IER_RLSINT_EN);
 700              		.loc 1 282 0
 701 009e 7B68     		ldr	r3, [r7, #4]	@ tmp178, UARTx
 702 00a0 5B68     		ldr	r3, [r3, #4]	@ _16, UARTx_45(D)->D.4752.IER
 703 00a2 23F00402 		bic	r2, r3, #4	@ _17, _16,
 704 00a6 7B68     		ldr	r3, [r7, #4]	@ tmp179, UARTx
 705 00a8 5A60     		str	r2, [r3, #4]	@ _17, UARTx_45(D)->D.4752.IER
 706              	.L35:
 707              	@ core/lpc17xx_uart.c:288: 	if ((tmp == UART_IIR_INTID_RDA)||(tmp == UART_IIR_INTID_CTI)){
 283:core/lpc17xx_uart.c **** 			}
 284:core/lpc17xx_uart.c **** 		}
 285:core/lpc17xx_uart.c **** 	}
 286:core/lpc17xx_uart.c **** 
 287:core/lpc17xx_uart.c **** 	// Receive Data Available or Character time-out
 288:core/lpc17xx_uart.c **** 	if ((tmp == UART_IIR_INTID_RDA)||(tmp == UART_IIR_INTID_CTI)){
 708              		.loc 1 288 0
 709 00aa 7B69     		ldr	r3, [r7, #20]	@ tmp180, tmp
 710 00ac 042B     		cmp	r3, #4	@ tmp180,
 711 00ae 02D0     		beq	.L37	@,
 712              	@ core/lpc17xx_uart.c:288: 	if ((tmp == UART_IIR_INTID_RDA)||(tmp == UART_IIR_INTID_CTI)){
 713              		.loc 1 288 0 is_stmt 0 discriminator 1
 714 00b0 7B69     		ldr	r3, [r7, #20]	@ tmp181, tmp
 715 00b2 0C2B     		cmp	r3, #12	@ tmp181,
 716 00b4 15D1     		bne	.L38	@,
 717              	.L37:
 718              	@ core/lpc17xx_uart.c:290: 		if (uartCbsDat[pUart].pfnRxCbs != NULL) {
 289:core/lpc17xx_uart.c **** 		// Call Rx call back function
 290:core/lpc17xx_uart.c **** 		if (uartCbsDat[pUart].pfnRxCbs != NULL) {
 719              		.loc 1 290 0 is_stmt 1
 720 00b6 FB7F     		ldrb	r3, [r7, #31]	@ zero_extendqisi2	@ _18, pUart
 721 00b8 2D4A     		ldr	r2, .L45+12	@ tmp182,
 722 00ba 1B01     		lsls	r3, r3, #4	@ tmp183, _18,
 723 00bc 1344     		add	r3, r3, r2	@ tmp184, tmp182
 724 00be 0433     		adds	r3, r3, #4	@ tmp185, tmp184,
 725 00c0 1B68     		ldr	r3, [r3]	@ _19, uartCbsDat[_18].pfnRxCbs
 726 00c2 002B     		cmp	r3, #0	@ _19,
ARM GAS  /tmp/ccf79Nqw.s 			page 19


 727 00c4 07D0     		beq	.L39	@,
 728              	@ core/lpc17xx_uart.c:291: 			uartCbsDat[pUart].pfnRxCbs();
 291:core/lpc17xx_uart.c **** 			uartCbsDat[pUart].pfnRxCbs();
 729              		.loc 1 291 0
 730 00c6 FB7F     		ldrb	r3, [r7, #31]	@ zero_extendqisi2	@ _20, pUart
 731 00c8 294A     		ldr	r2, .L45+12	@ tmp186,
 732 00ca 1B01     		lsls	r3, r3, #4	@ tmp187, _20,
 733 00cc 1344     		add	r3, r3, r2	@ tmp188, tmp186
 734 00ce 0433     		adds	r3, r3, #4	@ tmp189, tmp188,
 735 00d0 1B68     		ldr	r3, [r3]	@ _21, uartCbsDat[_20].pfnRxCbs
 736 00d2 9847     		blx	r3	@ _21
 737              	.LVL2:
 738 00d4 05E0     		b	.L38	@
 739              	.L39:
 740              	@ core/lpc17xx_uart.c:295: 			UARTx->IER &= ~(UART_IER_RBRINT_EN);
 292:core/lpc17xx_uart.c **** 		}
 293:core/lpc17xx_uart.c **** 		// Disable interrupt if its call-back is not install
 294:core/lpc17xx_uart.c **** 		else {
 295:core/lpc17xx_uart.c **** 			UARTx->IER &= ~(UART_IER_RBRINT_EN);
 741              		.loc 1 295 0
 742 00d6 7B68     		ldr	r3, [r7, #4]	@ tmp190, UARTx
 743 00d8 5B68     		ldr	r3, [r3, #4]	@ _22, UARTx_45(D)->D.4752.IER
 744 00da 23F00102 		bic	r2, r3, #1	@ _23, _22,
 745 00de 7B68     		ldr	r3, [r7, #4]	@ tmp191, UARTx
 746 00e0 5A60     		str	r2, [r3, #4]	@ _23, UARTx_45(D)->D.4752.IER
 747              	.L38:
 748              	@ core/lpc17xx_uart.c:300: 	if (tmp == UART_IIR_INTID_THRE){
 296:core/lpc17xx_uart.c **** 		}
 297:core/lpc17xx_uart.c **** 	}
 298:core/lpc17xx_uart.c **** 
 299:core/lpc17xx_uart.c **** 	// Transmit Holding Empty
 300:core/lpc17xx_uart.c **** 	if (tmp == UART_IIR_INTID_THRE){
 749              		.loc 1 300 0
 750 00e2 7B69     		ldr	r3, [r7, #20]	@ tmp192, tmp
 751 00e4 022B     		cmp	r3, #2	@ tmp192,
 752 00e6 13D1     		bne	.L40	@,
 753              	@ core/lpc17xx_uart.c:302: 		if (uartCbsDat[pUart].pfnTxCbs != NULL) {
 301:core/lpc17xx_uart.c **** 		// Call Tx call back function
 302:core/lpc17xx_uart.c **** 		if (uartCbsDat[pUart].pfnTxCbs != NULL) {
 754              		.loc 1 302 0
 755 00e8 FB7F     		ldrb	r3, [r7, #31]	@ zero_extendqisi2	@ _24, pUart
 756 00ea 214A     		ldr	r2, .L45+12	@ tmp193,
 757 00ec 1B01     		lsls	r3, r3, #4	@ tmp194, _24,
 758 00ee 1344     		add	r3, r3, r2	@ tmp195, tmp193
 759 00f0 1B68     		ldr	r3, [r3]	@ _25, uartCbsDat[_24].pfnTxCbs
 760 00f2 002B     		cmp	r3, #0	@ _25,
 761 00f4 06D0     		beq	.L41	@,
 762              	@ core/lpc17xx_uart.c:303: 			uartCbsDat[pUart].pfnTxCbs();
 303:core/lpc17xx_uart.c **** 			uartCbsDat[pUart].pfnTxCbs();
 763              		.loc 1 303 0
 764 00f6 FB7F     		ldrb	r3, [r7, #31]	@ zero_extendqisi2	@ _26, pUart
 765 00f8 1D4A     		ldr	r2, .L45+12	@ tmp196,
 766 00fa 1B01     		lsls	r3, r3, #4	@ tmp197, _26,
 767 00fc 1344     		add	r3, r3, r2	@ tmp198, tmp196
 768 00fe 1B68     		ldr	r3, [r3]	@ _27, uartCbsDat[_26].pfnTxCbs
 769 0100 9847     		blx	r3	@ _27
 770              	.LVL3:
ARM GAS  /tmp/ccf79Nqw.s 			page 20


 771 0102 05E0     		b	.L40	@
 772              	.L41:
 773              	@ core/lpc17xx_uart.c:307: 			UARTx->IER &= ~(UART_IER_THREINT_EN);
 304:core/lpc17xx_uart.c **** 		}
 305:core/lpc17xx_uart.c **** 		// Disable interrupt if its call-back is not install
 306:core/lpc17xx_uart.c **** 		else {
 307:core/lpc17xx_uart.c **** 			UARTx->IER &= ~(UART_IER_THREINT_EN);
 774              		.loc 1 307 0
 775 0104 7B68     		ldr	r3, [r7, #4]	@ tmp199, UARTx
 776 0106 5B68     		ldr	r3, [r3, #4]	@ _28, UARTx_45(D)->D.4752.IER
 777 0108 23F00202 		bic	r2, r3, #2	@ _29, _28,
 778 010c 7B68     		ldr	r3, [r7, #4]	@ tmp200, UARTx
 779 010e 5A60     		str	r2, [r3, #4]	@ _29, UARTx_45(D)->D.4752.IER
 780              	.L40:
 781              	@ core/lpc17xx_uart.c:311: 	intsrc &= (UART_IIR_ABEO_INT | UART_IIR_ABTO_INT);
 308:core/lpc17xx_uart.c **** 		}
 309:core/lpc17xx_uart.c **** 	}
 310:core/lpc17xx_uart.c **** 
 311:core/lpc17xx_uart.c **** 	intsrc &= (UART_IIR_ABEO_INT | UART_IIR_ABTO_INT);
 782              		.loc 1 311 0
 783 0110 BB69     		ldr	r3, [r7, #24]	@ tmp202, intsrc
 784 0112 03F44073 		and	r3, r3, #768	@ tmp201, tmp202,
 785 0116 BB61     		str	r3, [r7, #24]	@ tmp201, intsrc
 786              	@ core/lpc17xx_uart.c:313: 	if (intsrc){
 312:core/lpc17xx_uart.c **** 	// Check if End of auto-baudrate interrupt or Auto baudrate time out
 313:core/lpc17xx_uart.c **** 	if (intsrc){
 787              		.loc 1 313 0
 788 0118 BB69     		ldr	r3, [r7, #24]	@ tmp203, intsrc
 789 011a 002B     		cmp	r3, #0	@ tmp203,
 790 011c 1ED0     		beq	.L44	@,
 791              	@ core/lpc17xx_uart.c:315: 		UARTx->ACR |= ((intsrc & UART_IIR_ABEO_INT) ? UART_ACR_ABEOINT_CLR : 0
 314:core/lpc17xx_uart.c **** 		// Clear interrupt pending
 315:core/lpc17xx_uart.c **** 		UARTx->ACR |= ((intsrc & UART_IIR_ABEO_INT) ? UART_ACR_ABEOINT_CLR : 0) \
 792              		.loc 1 315 0
 793 011e 7B68     		ldr	r3, [r7, #4]	@ tmp204, UARTx
 794 0120 1A6A     		ldr	r2, [r3, #32]	@ _30, UARTx_45(D)->ACR
 795              	@ core/lpc17xx_uart.c:316: 						| ((intsrc & UART_IIR_ABTO_INT) ? UART_ACR_ABTOINT_CLR : 0);
 316:core/lpc17xx_uart.c **** 						| ((intsrc & UART_IIR_ABTO_INT) ? UART_ACR_ABTOINT_CLR : 0);
 796              		.loc 1 316 0
 797 0122 BB69     		ldr	r3, [r7, #24]	@ tmp205, intsrc
 798 0124 03F44073 		and	r3, r3, #768	@ _31, tmp205,
 799              	@ core/lpc17xx_uart.c:315: 		UARTx->ACR |= ((intsrc & UART_IIR_ABEO_INT) ? UART_ACR_ABEOINT_CLR : 0
 315:core/lpc17xx_uart.c **** 						| ((intsrc & UART_IIR_ABTO_INT) ? UART_ACR_ABTOINT_CLR : 0);
 800              		.loc 1 315 0
 801 0128 1A43     		orrs	r2, r2, r3	@, _32, _30, _31
 802 012a 7B68     		ldr	r3, [r7, #4]	@ tmp206, UARTx
 803 012c 1A62     		str	r2, [r3, #32]	@ _32, UARTx_45(D)->ACR
 804              	@ core/lpc17xx_uart.c:317: 		if (uartCbsDat[pUart].pfnABCbs != NULL) {
 317:core/lpc17xx_uart.c **** 		if (uartCbsDat[pUart].pfnABCbs != NULL) {
 805              		.loc 1 317 0
 806 012e FB7F     		ldrb	r3, [r7, #31]	@ zero_extendqisi2	@ _33, pUart
 807 0130 0F4A     		ldr	r2, .L45+12	@ tmp207,
 808 0132 1B01     		lsls	r3, r3, #4	@ tmp208, _33,
 809 0134 1344     		add	r3, r3, r2	@ tmp209, tmp207
 810 0136 0833     		adds	r3, r3, #8	@ tmp210, tmp209,
 811 0138 1B68     		ldr	r3, [r3]	@ _34, uartCbsDat[_33].pfnABCbs
 812 013a 002B     		cmp	r3, #0	@ _34,
ARM GAS  /tmp/ccf79Nqw.s 			page 21


 813 013c 08D0     		beq	.L43	@,
 814              	@ core/lpc17xx_uart.c:318: 			uartCbsDat[pUart].pfnABCbs(intsrc);
 318:core/lpc17xx_uart.c **** 			uartCbsDat[pUart].pfnABCbs(intsrc);
 815              		.loc 1 318 0
 816 013e FB7F     		ldrb	r3, [r7, #31]	@ zero_extendqisi2	@ _35, pUart
 817 0140 0B4A     		ldr	r2, .L45+12	@ tmp211,
 818 0142 1B01     		lsls	r3, r3, #4	@ tmp212, _35,
 819 0144 1344     		add	r3, r3, r2	@ tmp213, tmp211
 820 0146 0833     		adds	r3, r3, #8	@ tmp214, tmp213,
 821 0148 1B68     		ldr	r3, [r3]	@ _36, uartCbsDat[_35].pfnABCbs
 822 014a B869     		ldr	r0, [r7, #24]	@, intsrc
 823 014c 9847     		blx	r3	@ _36
 824              	.LVL4:
 825              	@ core/lpc17xx_uart.c:324: }
 319:core/lpc17xx_uart.c **** 		} else {
 320:core/lpc17xx_uart.c **** 			// Disable End of AB interrupt
 321:core/lpc17xx_uart.c **** 			UARTx->IER &= ~(UART_IER_ABEOINT_EN | UART_IER_ABTOINT_EN);
 322:core/lpc17xx_uart.c **** 		}
 323:core/lpc17xx_uart.c **** 	}
 324:core/lpc17xx_uart.c **** }
 826              		.loc 1 324 0
 827 014e 05E0     		b	.L44	@
 828              	.L43:
 829              	@ core/lpc17xx_uart.c:321: 			UARTx->IER &= ~(UART_IER_ABEOINT_EN | UART_IER_ABTOINT_EN);
 321:core/lpc17xx_uart.c **** 		}
 830              		.loc 1 321 0
 831 0150 7B68     		ldr	r3, [r7, #4]	@ tmp215, UARTx
 832 0152 5B68     		ldr	r3, [r3, #4]	@ _37, UARTx_45(D)->D.4752.IER
 833 0154 23F44072 		bic	r2, r3, #768	@ _38, _37,
 834 0158 7B68     		ldr	r3, [r7, #4]	@ tmp216, UARTx
 835 015a 5A60     		str	r2, [r3, #4]	@ _38, UARTx_45(D)->D.4752.IER
 836              	.L44:
 837              	@ core/lpc17xx_uart.c:324: }
 838              		.loc 1 324 0
 839 015c 00BF     		nop
 840 015e 2037     		adds	r7, r7, #32	@,,
 841              		.cfi_def_cfa_offset 8
 842 0160 BD46     		mov	sp, r7	@,
 843              		.cfi_def_cfa_register 13
 844              		@ sp needed	@
 845 0162 80BD     		pop	{r7, pc}	@
 846              	.L46:
 847              		.align	2
 848              	.L45:
 849 0164 00000000 		.word	xx
 850 0168 00000140 		.word	1073807360
 851 016c 00000000 		.word	pfnModemCbs
 852 0170 00000000 		.word	uartCbsDat
 853              		.cfi_endproc
 854              	.LFE57:
 855              		.size	UART_GenIntHandler, .-UART_GenIntHandler
 856              		.section	.rodata
 857              		.align	2
 858              	.LC0:
 859 0000 636F7265 		.ascii	"core/lpc17xx_uart.c\000"
 859      2F6C7063 
 859      31377878 
ARM GAS  /tmp/ccf79Nqw.s 			page 22


 859      5F756172 
 859      742E6300 
 860              		.section	.text.UART_DeInit,"ax",%progbits
 861              		.align	1
 862              		.global	UART_DeInit
 863              		.syntax unified
 864              		.thumb
 865              		.thumb_func
 866              		.fpu softvfp
 867              		.type	UART_DeInit, %function
 868              	UART_DeInit:
 869              	.LFB58:
 325:core/lpc17xx_uart.c **** 
 326:core/lpc17xx_uart.c **** /**
 327:core/lpc17xx_uart.c ****  * @}
 328:core/lpc17xx_uart.c ****  */
 329:core/lpc17xx_uart.c **** 
 330:core/lpc17xx_uart.c **** 
 331:core/lpc17xx_uart.c **** /* Public Functions ----------------------------------------------------------- */
 332:core/lpc17xx_uart.c **** /** @addtogroup UART_Public_Functions
 333:core/lpc17xx_uart.c ****  * @{
 334:core/lpc17xx_uart.c ****  */
 335:core/lpc17xx_uart.c **** 
 336:core/lpc17xx_uart.c **** /*********************************************************************//**
 337:core/lpc17xx_uart.c ****  * @brief		De-initializes the UARTx peripheral registers to their
 338:core/lpc17xx_uart.c **** *                  default reset values.
 339:core/lpc17xx_uart.c ****  * @param[in]	UARTx	UART peripheral selected, should be UART0, UART1,
 340:core/lpc17xx_uart.c ****  * 						UART2 or UART3.
 341:core/lpc17xx_uart.c ****  * @return 		None
 342:core/lpc17xx_uart.c ****  **********************************************************************/
 343:core/lpc17xx_uart.c **** void UART_DeInit(LPC_UART_TypeDef* UARTx)
 344:core/lpc17xx_uart.c **** {
 870              		.loc 1 344 0
 871              		.cfi_startproc
 872              		@ args = 0, pretend = 0, frame = 8
 873              		@ frame_needed = 1, uses_anonymous_args = 0
 874 0000 80B5     		push	{r7, lr}	@
 875              		.cfi_def_cfa_offset 8
 876              		.cfi_offset 7, -8
 877              		.cfi_offset 14, -4
 878 0002 82B0     		sub	sp, sp, #8	@,,
 879              		.cfi_def_cfa_offset 16
 880 0004 00AF     		add	r7, sp, #0	@,,
 881              		.cfi_def_cfa_register 7
 882 0006 7860     		str	r0, [r7, #4]	@ UARTx, UARTx
 883              	@ core/lpc17xx_uart.c:346: 	CHECK_PARAM(PARAM_UARTx(UARTx));
 345:core/lpc17xx_uart.c **** 	// For debug mode
 346:core/lpc17xx_uart.c **** 	CHECK_PARAM(PARAM_UARTx(UARTx));
 884              		.loc 1 346 0
 885 0008 7B68     		ldr	r3, [r7, #4]	@ tmp110, UARTx
 886 000a 1F4A     		ldr	r2, .L54	@ tmp111,
 887 000c 9342     		cmp	r3, r2	@ tmp110, tmp111
 888 000e 10D0     		beq	.L48	@,
 889              	@ core/lpc17xx_uart.c:346: 	CHECK_PARAM(PARAM_UARTx(UARTx));
 890              		.loc 1 346 0 is_stmt 0 discriminator 1
 891 0010 7B68     		ldr	r3, [r7, #4]	@ tmp112, UARTx
 892 0012 1E4A     		ldr	r2, .L54+4	@ tmp113,
ARM GAS  /tmp/ccf79Nqw.s 			page 23


 893 0014 9342     		cmp	r3, r2	@ tmp112, tmp113
 894 0016 0CD0     		beq	.L48	@,
 895              	@ core/lpc17xx_uart.c:346: 	CHECK_PARAM(PARAM_UARTx(UARTx));
 896              		.loc 1 346 0 discriminator 2
 897 0018 7B68     		ldr	r3, [r7, #4]	@ tmp114, UARTx
 898 001a 1D4A     		ldr	r2, .L54+8	@ tmp115,
 899 001c 9342     		cmp	r3, r2	@ tmp114, tmp115
 900 001e 08D0     		beq	.L48	@,
 901              	@ core/lpc17xx_uart.c:346: 	CHECK_PARAM(PARAM_UARTx(UARTx));
 902              		.loc 1 346 0 discriminator 3
 903 0020 7B68     		ldr	r3, [r7, #4]	@ tmp116, UARTx
 904 0022 1C4A     		ldr	r2, .L54+12	@ tmp117,
 905 0024 9342     		cmp	r3, r2	@ tmp116, tmp117
 906 0026 04D0     		beq	.L48	@,
 907              	@ core/lpc17xx_uart.c:346: 	CHECK_PARAM(PARAM_UARTx(UARTx));
 908              		.loc 1 346 0 discriminator 4
 909 0028 4FF4AD71 		mov	r1, #346	@,
 910 002c 1A48     		ldr	r0, .L54+16	@,
 911 002e FFF7FEFF 		bl	check_failed	@
 912              	.L48:
 913              	@ core/lpc17xx_uart.c:348: 	UART_TxCmd(UARTx, DISABLE);
 347:core/lpc17xx_uart.c **** 
 348:core/lpc17xx_uart.c **** 	UART_TxCmd(UARTx, DISABLE);
 914              		.loc 1 348 0 is_stmt 1
 915 0032 0021     		movs	r1, #0	@,
 916 0034 7868     		ldr	r0, [r7, #4]	@, UARTx
 917 0036 FFF7FEFF 		bl	UART_TxCmd	@
 918              	@ core/lpc17xx_uart.c:351: 	if (UARTx == (LPC_UART_TypeDef*)LPC_UART0)
 349:core/lpc17xx_uart.c **** 
 350:core/lpc17xx_uart.c **** #ifdef _UART0
 351:core/lpc17xx_uart.c **** 	if (UARTx == (LPC_UART_TypeDef*)LPC_UART0)
 919              		.loc 1 351 0
 920 003a 7B68     		ldr	r3, [r7, #4]	@ tmp118, UARTx
 921 003c 124A     		ldr	r2, .L54	@ tmp119,
 922 003e 9342     		cmp	r3, r2	@ tmp118, tmp119
 923 0040 03D1     		bne	.L49	@,
 924              	@ core/lpc17xx_uart.c:354: 		CLKPWR_ConfigPPWR (CLKPWR_PCONP_PCUART0, DISABLE);
 352:core/lpc17xx_uart.c **** 	{
 353:core/lpc17xx_uart.c **** 		/* Set up clock and power for UART module */
 354:core/lpc17xx_uart.c **** 		CLKPWR_ConfigPPWR (CLKPWR_PCONP_PCUART0, DISABLE);
 925              		.loc 1 354 0
 926 0042 0021     		movs	r1, #0	@,
 927 0044 0820     		movs	r0, #8	@,
 928 0046 FFF7FEFF 		bl	CLKPWR_ConfigPPWR	@
 929              	.L49:
 930              	@ core/lpc17xx_uart.c:359: 	if (((LPC_UART1_TypeDef *)UARTx) == LPC_UART1)
 355:core/lpc17xx_uart.c **** 	}
 356:core/lpc17xx_uart.c **** #endif
 357:core/lpc17xx_uart.c **** 
 358:core/lpc17xx_uart.c **** #ifdef _UART1
 359:core/lpc17xx_uart.c **** 	if (((LPC_UART1_TypeDef *)UARTx) == LPC_UART1)
 931              		.loc 1 359 0
 932 004a 7B68     		ldr	r3, [r7, #4]	@ tmp120, UARTx
 933 004c 0F4A     		ldr	r2, .L54+4	@ tmp121,
 934 004e 9342     		cmp	r3, r2	@ tmp120, tmp121
 935 0050 03D1     		bne	.L50	@,
 936              	@ core/lpc17xx_uart.c:362: 		CLKPWR_ConfigPPWR (CLKPWR_PCONP_PCUART1, DISABLE);
ARM GAS  /tmp/ccf79Nqw.s 			page 24


 360:core/lpc17xx_uart.c **** 	{
 361:core/lpc17xx_uart.c **** 		/* Set up clock and power for UART module */
 362:core/lpc17xx_uart.c **** 		CLKPWR_ConfigPPWR (CLKPWR_PCONP_PCUART1, DISABLE);
 937              		.loc 1 362 0
 938 0052 0021     		movs	r1, #0	@,
 939 0054 1020     		movs	r0, #16	@,
 940 0056 FFF7FEFF 		bl	CLKPWR_ConfigPPWR	@
 941              	.L50:
 942              	@ core/lpc17xx_uart.c:367: 	if (UARTx == LPC_UART2)
 363:core/lpc17xx_uart.c **** 	}
 364:core/lpc17xx_uart.c **** #endif
 365:core/lpc17xx_uart.c **** 
 366:core/lpc17xx_uart.c **** #ifdef _UART2
 367:core/lpc17xx_uart.c **** 	if (UARTx == LPC_UART2)
 943              		.loc 1 367 0
 944 005a 7B68     		ldr	r3, [r7, #4]	@ tmp122, UARTx
 945 005c 0C4A     		ldr	r2, .L54+8	@ tmp123,
 946 005e 9342     		cmp	r3, r2	@ tmp122, tmp123
 947 0060 04D1     		bne	.L51	@,
 948              	@ core/lpc17xx_uart.c:370: 		CLKPWR_ConfigPPWR (CLKPWR_PCONP_PCUART2, DISABLE);
 368:core/lpc17xx_uart.c **** 	{
 369:core/lpc17xx_uart.c **** 		/* Set up clock and power for UART module */
 370:core/lpc17xx_uart.c **** 		CLKPWR_ConfigPPWR (CLKPWR_PCONP_PCUART2, DISABLE);
 949              		.loc 1 370 0
 950 0062 0021     		movs	r1, #0	@,
 951 0064 4FF08070 		mov	r0, #16777216	@,
 952 0068 FFF7FEFF 		bl	CLKPWR_ConfigPPWR	@
 953              	.L51:
 954              	@ core/lpc17xx_uart.c:375: 	if (UARTx == LPC_UART3)
 371:core/lpc17xx_uart.c **** 	}
 372:core/lpc17xx_uart.c **** #endif
 373:core/lpc17xx_uart.c **** 
 374:core/lpc17xx_uart.c **** #ifdef _UART3
 375:core/lpc17xx_uart.c **** 	if (UARTx == LPC_UART3)
 955              		.loc 1 375 0
 956 006c 7B68     		ldr	r3, [r7, #4]	@ tmp124, UARTx
 957 006e 094A     		ldr	r2, .L54+12	@ tmp125,
 958 0070 9342     		cmp	r3, r2	@ tmp124, tmp125
 959 0072 04D1     		bne	.L53	@,
 960              	@ core/lpc17xx_uart.c:378: 		CLKPWR_ConfigPPWR (CLKPWR_PCONP_PCUART3, DISABLE);
 376:core/lpc17xx_uart.c **** 	{
 377:core/lpc17xx_uart.c **** 		/* Set up clock and power for UART module */
 378:core/lpc17xx_uart.c **** 		CLKPWR_ConfigPPWR (CLKPWR_PCONP_PCUART3, DISABLE);
 961              		.loc 1 378 0
 962 0074 0021     		movs	r1, #0	@,
 963 0076 4FF00070 		mov	r0, #33554432	@,
 964 007a FFF7FEFF 		bl	CLKPWR_ConfigPPWR	@
 965              	.L53:
 966              	@ core/lpc17xx_uart.c:381: }
 379:core/lpc17xx_uart.c **** 	}
 380:core/lpc17xx_uart.c **** #endif
 381:core/lpc17xx_uart.c **** }
 967              		.loc 1 381 0
 968 007e 00BF     		nop
 969 0080 0837     		adds	r7, r7, #8	@,,
 970              		.cfi_def_cfa_offset 8
 971 0082 BD46     		mov	sp, r7	@,
ARM GAS  /tmp/ccf79Nqw.s 			page 25


 972              		.cfi_def_cfa_register 13
 973              		@ sp needed	@
 974 0084 80BD     		pop	{r7, pc}	@
 975              	.L55:
 976 0086 00BF     		.align	2
 977              	.L54:
 978 0088 00C00040 		.word	1073790976
 979 008c 00000140 		.word	1073807360
 980 0090 00800940 		.word	1074364416
 981 0094 00C00940 		.word	1074380800
 982 0098 00000000 		.word	.LC0
 983              		.cfi_endproc
 984              	.LFE58:
 985              		.size	UART_DeInit, .-UART_DeInit
 986              		.section	.text.UART_Init,"ax",%progbits
 987              		.align	1
 988              		.global	UART_Init
 989              		.syntax unified
 990              		.thumb
 991              		.thumb_func
 992              		.fpu softvfp
 993              		.type	UART_Init, %function
 994              	UART_Init:
 995              	.LFB59:
 382:core/lpc17xx_uart.c **** 
 383:core/lpc17xx_uart.c **** /********************************************************************//**
 384:core/lpc17xx_uart.c ****  * @brief		Initializes the UARTx peripheral according to the specified
 385:core/lpc17xx_uart.c **** *               parameters in the UART_ConfigStruct.
 386:core/lpc17xx_uart.c ****  * @param[in]	UARTx	UART peripheral selected, should be UART0, UART1,
 387:core/lpc17xx_uart.c ****  * 						UART2 or UART3.
 388:core/lpc17xx_uart.c ****  * @param[in]	UART_ConfigStruct Pointer to a UART_CFG_Type structure
 389:core/lpc17xx_uart.c **** *                    that contains the configuration information for the
 390:core/lpc17xx_uart.c **** *                    specified UART peripheral.
 391:core/lpc17xx_uart.c ****  * @return 		None
 392:core/lpc17xx_uart.c ****  *********************************************************************/
 393:core/lpc17xx_uart.c **** void UART_Init(LPC_UART_TypeDef *UARTx, UART_CFG_Type *UART_ConfigStruct)
 394:core/lpc17xx_uart.c **** {
 996              		.loc 1 394 0
 997              		.cfi_startproc
 998              		@ args = 0, pretend = 0, frame = 16
 999              		@ frame_needed = 1, uses_anonymous_args = 0
 1000 0000 80B5     		push	{r7, lr}	@
 1001              		.cfi_def_cfa_offset 8
 1002              		.cfi_offset 7, -8
 1003              		.cfi_offset 14, -4
 1004 0002 84B0     		sub	sp, sp, #16	@,,
 1005              		.cfi_def_cfa_offset 24
 1006 0004 00AF     		add	r7, sp, #0	@,,
 1007              		.cfi_def_cfa_register 7
 1008 0006 7860     		str	r0, [r7, #4]	@ UARTx, UARTx
 1009 0008 3960     		str	r1, [r7]	@ UART_ConfigStruct, UART_ConfigStruct
 1010              	@ core/lpc17xx_uart.c:398: 	CHECK_PARAM(PARAM_UARTx(UARTx));
 395:core/lpc17xx_uart.c **** 	uint32_t tmp;
 396:core/lpc17xx_uart.c **** 
 397:core/lpc17xx_uart.c **** 	// For debug mode
 398:core/lpc17xx_uart.c **** 	CHECK_PARAM(PARAM_UARTx(UARTx));
 1011              		.loc 1 398 0
ARM GAS  /tmp/ccf79Nqw.s 			page 26


 1012 000a 7B68     		ldr	r3, [r7, #4]	@ tmp152, UARTx
 1013 000c A64A     		ldr	r2, .L97	@ tmp153,
 1014 000e 9342     		cmp	r3, r2	@ tmp152, tmp153
 1015 0010 10D0     		beq	.L57	@,
 1016              	@ core/lpc17xx_uart.c:398: 	CHECK_PARAM(PARAM_UARTx(UARTx));
 1017              		.loc 1 398 0 is_stmt 0 discriminator 1
 1018 0012 7B68     		ldr	r3, [r7, #4]	@ tmp154, UARTx
 1019 0014 A54A     		ldr	r2, .L97+4	@ tmp155,
 1020 0016 9342     		cmp	r3, r2	@ tmp154, tmp155
 1021 0018 0CD0     		beq	.L57	@,
 1022              	@ core/lpc17xx_uart.c:398: 	CHECK_PARAM(PARAM_UARTx(UARTx));
 1023              		.loc 1 398 0 discriminator 2
 1024 001a 7B68     		ldr	r3, [r7, #4]	@ tmp156, UARTx
 1025 001c A44A     		ldr	r2, .L97+8	@ tmp157,
 1026 001e 9342     		cmp	r3, r2	@ tmp156, tmp157
 1027 0020 08D0     		beq	.L57	@,
 1028              	@ core/lpc17xx_uart.c:398: 	CHECK_PARAM(PARAM_UARTx(UARTx));
 1029              		.loc 1 398 0 discriminator 3
 1030 0022 7B68     		ldr	r3, [r7, #4]	@ tmp158, UARTx
 1031 0024 A34A     		ldr	r2, .L97+12	@ tmp159,
 1032 0026 9342     		cmp	r3, r2	@ tmp158, tmp159
 1033 0028 04D0     		beq	.L57	@,
 1034              	@ core/lpc17xx_uart.c:398: 	CHECK_PARAM(PARAM_UARTx(UARTx));
 1035              		.loc 1 398 0 discriminator 4
 1036 002a 4FF4C771 		mov	r1, #398	@,
 1037 002e A248     		ldr	r0, .L97+16	@,
 1038 0030 FFF7FEFF 		bl	check_failed	@
 1039              	.L57:
 1040              	@ core/lpc17xx_uart.c:399: 	CHECK_PARAM(PARAM_UART_DATABIT(UART_ConfigStruct->Databits));
 399:core/lpc17xx_uart.c **** 	CHECK_PARAM(PARAM_UART_DATABIT(UART_ConfigStruct->Databits));
 1041              		.loc 1 399 0 is_stmt 1
 1042 0034 3B68     		ldr	r3, [r7]	@ tmp160, UART_ConfigStruct
 1043 0036 5B79     		ldrb	r3, [r3, #5]	@ zero_extendqisi2	@ _1, UART_ConfigStruct_61(D)->Databits
 1044 0038 002B     		cmp	r3, #0	@ _1,
 1045 003a 10D0     		beq	.L58	@,
 1046              	@ core/lpc17xx_uart.c:399: 	CHECK_PARAM(PARAM_UART_DATABIT(UART_ConfigStruct->Databits));
 1047              		.loc 1 399 0 is_stmt 0 discriminator 1
 1048 003c 3B68     		ldr	r3, [r7]	@ tmp161, UART_ConfigStruct
 1049 003e 5B79     		ldrb	r3, [r3, #5]	@ zero_extendqisi2	@ _2, UART_ConfigStruct_61(D)->Databits
 1050 0040 012B     		cmp	r3, #1	@ _2,
 1051 0042 0CD0     		beq	.L58	@,
 1052              	@ core/lpc17xx_uart.c:399: 	CHECK_PARAM(PARAM_UART_DATABIT(UART_ConfigStruct->Databits));
 1053              		.loc 1 399 0 discriminator 2
 1054 0044 3B68     		ldr	r3, [r7]	@ tmp162, UART_ConfigStruct
 1055 0046 5B79     		ldrb	r3, [r3, #5]	@ zero_extendqisi2	@ _3, UART_ConfigStruct_61(D)->Databits
 1056 0048 022B     		cmp	r3, #2	@ _3,
 1057 004a 08D0     		beq	.L58	@,
 1058              	@ core/lpc17xx_uart.c:399: 	CHECK_PARAM(PARAM_UART_DATABIT(UART_ConfigStruct->Databits));
 1059              		.loc 1 399 0 discriminator 3
 1060 004c 3B68     		ldr	r3, [r7]	@ tmp163, UART_ConfigStruct
 1061 004e 5B79     		ldrb	r3, [r3, #5]	@ zero_extendqisi2	@ _4, UART_ConfigStruct_61(D)->Databits
 1062 0050 032B     		cmp	r3, #3	@ _4,
 1063 0052 04D0     		beq	.L58	@,
 1064              	@ core/lpc17xx_uart.c:399: 	CHECK_PARAM(PARAM_UART_DATABIT(UART_ConfigStruct->Databits));
 1065              		.loc 1 399 0 discriminator 4
 1066 0054 40F28F11 		movw	r1, #399	@,
 1067 0058 9748     		ldr	r0, .L97+16	@,
ARM GAS  /tmp/ccf79Nqw.s 			page 27


 1068 005a FFF7FEFF 		bl	check_failed	@
 1069              	.L58:
 1070              	@ core/lpc17xx_uart.c:400: 	CHECK_PARAM(PARAM_UART_STOPBIT(UART_ConfigStruct->Stopbits));
 400:core/lpc17xx_uart.c **** 	CHECK_PARAM(PARAM_UART_STOPBIT(UART_ConfigStruct->Stopbits));
 1071              		.loc 1 400 0 is_stmt 1
 1072 005e 3B68     		ldr	r3, [r7]	@ tmp164, UART_ConfigStruct
 1073 0060 9B79     		ldrb	r3, [r3, #6]	@ zero_extendqisi2	@ _5, UART_ConfigStruct_61(D)->Stopbits
 1074 0062 002B     		cmp	r3, #0	@ _5,
 1075 0064 08D0     		beq	.L59	@,
 1076              	@ core/lpc17xx_uart.c:400: 	CHECK_PARAM(PARAM_UART_STOPBIT(UART_ConfigStruct->Stopbits));
 1077              		.loc 1 400 0 is_stmt 0 discriminator 1
 1078 0066 3B68     		ldr	r3, [r7]	@ tmp165, UART_ConfigStruct
 1079 0068 9B79     		ldrb	r3, [r3, #6]	@ zero_extendqisi2	@ _6, UART_ConfigStruct_61(D)->Stopbits
 1080 006a 012B     		cmp	r3, #1	@ _6,
 1081 006c 04D0     		beq	.L59	@,
 1082              	@ core/lpc17xx_uart.c:400: 	CHECK_PARAM(PARAM_UART_STOPBIT(UART_ConfigStruct->Stopbits));
 1083              		.loc 1 400 0 discriminator 2
 1084 006e 4FF4C871 		mov	r1, #400	@,
 1085 0072 9148     		ldr	r0, .L97+16	@,
 1086 0074 FFF7FEFF 		bl	check_failed	@
 1087              	.L59:
 1088              	@ core/lpc17xx_uart.c:401: 	CHECK_PARAM(PARAM_UART_PARITY(UART_ConfigStruct->Parity));
 401:core/lpc17xx_uart.c **** 	CHECK_PARAM(PARAM_UART_PARITY(UART_ConfigStruct->Parity));
 1089              		.loc 1 401 0 is_stmt 1
 1090 0078 3B68     		ldr	r3, [r7]	@ tmp166, UART_ConfigStruct
 1091 007a 1B79     		ldrb	r3, [r3, #4]	@ zero_extendqisi2	@ _7, UART_ConfigStruct_61(D)->Parity
 1092 007c 002B     		cmp	r3, #0	@ _7,
 1093 007e 14D0     		beq	.L60	@,
 1094              	@ core/lpc17xx_uart.c:401: 	CHECK_PARAM(PARAM_UART_PARITY(UART_ConfigStruct->Parity));
 1095              		.loc 1 401 0 is_stmt 0 discriminator 1
 1096 0080 3B68     		ldr	r3, [r7]	@ tmp167, UART_ConfigStruct
 1097 0082 1B79     		ldrb	r3, [r3, #4]	@ zero_extendqisi2	@ _8, UART_ConfigStruct_61(D)->Parity
 1098 0084 012B     		cmp	r3, #1	@ _8,
 1099 0086 10D0     		beq	.L60	@,
 1100              	@ core/lpc17xx_uart.c:401: 	CHECK_PARAM(PARAM_UART_PARITY(UART_ConfigStruct->Parity));
 1101              		.loc 1 401 0 discriminator 2
 1102 0088 3B68     		ldr	r3, [r7]	@ tmp168, UART_ConfigStruct
 1103 008a 1B79     		ldrb	r3, [r3, #4]	@ zero_extendqisi2	@ _9, UART_ConfigStruct_61(D)->Parity
 1104 008c 022B     		cmp	r3, #2	@ _9,
 1105 008e 0CD0     		beq	.L60	@,
 1106              	@ core/lpc17xx_uart.c:401: 	CHECK_PARAM(PARAM_UART_PARITY(UART_ConfigStruct->Parity));
 1107              		.loc 1 401 0 discriminator 3
 1108 0090 3B68     		ldr	r3, [r7]	@ tmp169, UART_ConfigStruct
 1109 0092 1B79     		ldrb	r3, [r3, #4]	@ zero_extendqisi2	@ _10, UART_ConfigStruct_61(D)->Parity
 1110 0094 032B     		cmp	r3, #3	@ _10,
 1111 0096 08D0     		beq	.L60	@,
 1112              	@ core/lpc17xx_uart.c:401: 	CHECK_PARAM(PARAM_UART_PARITY(UART_ConfigStruct->Parity));
 1113              		.loc 1 401 0 discriminator 4
 1114 0098 3B68     		ldr	r3, [r7]	@ tmp170, UART_ConfigStruct
 1115 009a 1B79     		ldrb	r3, [r3, #4]	@ zero_extendqisi2	@ _11, UART_ConfigStruct_61(D)->Parity
 1116 009c 042B     		cmp	r3, #4	@ _11,
 1117 009e 04D0     		beq	.L60	@,
 1118              	@ core/lpc17xx_uart.c:401: 	CHECK_PARAM(PARAM_UART_PARITY(UART_ConfigStruct->Parity));
 1119              		.loc 1 401 0 discriminator 5
 1120 00a0 40F29111 		movw	r1, #401	@,
 1121 00a4 8448     		ldr	r0, .L97+16	@,
 1122 00a6 FFF7FEFF 		bl	check_failed	@
ARM GAS  /tmp/ccf79Nqw.s 			page 28


 1123              	.L60:
 1124              	@ core/lpc17xx_uart.c:404: 	if(UARTx == (LPC_UART_TypeDef*)LPC_UART0)
 402:core/lpc17xx_uart.c **** 
 403:core/lpc17xx_uart.c **** #ifdef _UART0
 404:core/lpc17xx_uart.c **** 	if(UARTx == (LPC_UART_TypeDef*)LPC_UART0)
 1125              		.loc 1 404 0 is_stmt 1
 1126 00aa 7B68     		ldr	r3, [r7, #4]	@ tmp171, UARTx
 1127 00ac 7E4A     		ldr	r2, .L97	@ tmp172,
 1128 00ae 9342     		cmp	r3, r2	@ tmp171, tmp172
 1129 00b0 03D1     		bne	.L61	@,
 1130              	@ core/lpc17xx_uart.c:407: 		CLKPWR_ConfigPPWR (CLKPWR_PCONP_PCUART0, ENABLE);
 405:core/lpc17xx_uart.c **** 	{
 406:core/lpc17xx_uart.c **** 		/* Set up clock and power for UART module */
 407:core/lpc17xx_uart.c **** 		CLKPWR_ConfigPPWR (CLKPWR_PCONP_PCUART0, ENABLE);
 1131              		.loc 1 407 0
 1132 00b2 0121     		movs	r1, #1	@,
 1133 00b4 0820     		movs	r0, #8	@,
 1134 00b6 FFF7FEFF 		bl	CLKPWR_ConfigPPWR	@
 1135              	.L61:
 1136              	@ core/lpc17xx_uart.c:412: 	if(((LPC_UART1_TypeDef *)UARTx) == LPC_UART1)
 408:core/lpc17xx_uart.c **** 	}
 409:core/lpc17xx_uart.c **** #endif
 410:core/lpc17xx_uart.c **** 
 411:core/lpc17xx_uart.c **** #ifdef _UART1
 412:core/lpc17xx_uart.c **** 	if(((LPC_UART1_TypeDef *)UARTx) == LPC_UART1)
 1137              		.loc 1 412 0
 1138 00ba 7B68     		ldr	r3, [r7, #4]	@ tmp173, UARTx
 1139 00bc 7B4A     		ldr	r2, .L97+4	@ tmp174,
 1140 00be 9342     		cmp	r3, r2	@ tmp173, tmp174
 1141 00c0 03D1     		bne	.L62	@,
 1142              	@ core/lpc17xx_uart.c:415: 		CLKPWR_ConfigPPWR (CLKPWR_PCONP_PCUART1, ENABLE);
 413:core/lpc17xx_uart.c **** 	{
 414:core/lpc17xx_uart.c **** 		/* Set up clock and power for UART module */
 415:core/lpc17xx_uart.c **** 		CLKPWR_ConfigPPWR (CLKPWR_PCONP_PCUART1, ENABLE);
 1143              		.loc 1 415 0
 1144 00c2 0121     		movs	r1, #1	@,
 1145 00c4 1020     		movs	r0, #16	@,
 1146 00c6 FFF7FEFF 		bl	CLKPWR_ConfigPPWR	@
 1147              	.L62:
 1148              	@ core/lpc17xx_uart.c:420: 	if(UARTx == LPC_UART2)
 416:core/lpc17xx_uart.c **** 	}
 417:core/lpc17xx_uart.c **** #endif
 418:core/lpc17xx_uart.c **** 
 419:core/lpc17xx_uart.c **** #ifdef _UART2
 420:core/lpc17xx_uart.c **** 	if(UARTx == LPC_UART2)
 1149              		.loc 1 420 0
 1150 00ca 7B68     		ldr	r3, [r7, #4]	@ tmp175, UARTx
 1151 00cc 784A     		ldr	r2, .L97+8	@ tmp176,
 1152 00ce 9342     		cmp	r3, r2	@ tmp175, tmp176
 1153 00d0 04D1     		bne	.L63	@,
 1154              	@ core/lpc17xx_uart.c:423: 		CLKPWR_ConfigPPWR (CLKPWR_PCONP_PCUART2, ENABLE);
 421:core/lpc17xx_uart.c **** 	{
 422:core/lpc17xx_uart.c **** 		/* Set up clock and power for UART module */
 423:core/lpc17xx_uart.c **** 		CLKPWR_ConfigPPWR (CLKPWR_PCONP_PCUART2, ENABLE);
 1155              		.loc 1 423 0
 1156 00d2 0121     		movs	r1, #1	@,
 1157 00d4 4FF08070 		mov	r0, #16777216	@,
ARM GAS  /tmp/ccf79Nqw.s 			page 29


 1158 00d8 FFF7FEFF 		bl	CLKPWR_ConfigPPWR	@
 1159              	.L63:
 1160              	@ core/lpc17xx_uart.c:428: 	if(UARTx == LPC_UART3)
 424:core/lpc17xx_uart.c **** 	}
 425:core/lpc17xx_uart.c **** #endif
 426:core/lpc17xx_uart.c **** 
 427:core/lpc17xx_uart.c **** #ifdef _UART3
 428:core/lpc17xx_uart.c **** 	if(UARTx == LPC_UART3)
 1161              		.loc 1 428 0
 1162 00dc 7B68     		ldr	r3, [r7, #4]	@ tmp177, UARTx
 1163 00de 754A     		ldr	r2, .L97+12	@ tmp178,
 1164 00e0 9342     		cmp	r3, r2	@ tmp177, tmp178
 1165 00e2 04D1     		bne	.L64	@,
 1166              	@ core/lpc17xx_uart.c:431: 		CLKPWR_ConfigPPWR (CLKPWR_PCONP_PCUART3, ENABLE);
 429:core/lpc17xx_uart.c **** 	{
 430:core/lpc17xx_uart.c **** 		/* Set up clock and power for UART module */
 431:core/lpc17xx_uart.c **** 		CLKPWR_ConfigPPWR (CLKPWR_PCONP_PCUART3, ENABLE);
 1167              		.loc 1 431 0
 1168 00e4 0121     		movs	r1, #1	@,
 1169 00e6 4FF00070 		mov	r0, #33554432	@,
 1170 00ea FFF7FEFF 		bl	CLKPWR_ConfigPPWR	@
 1171              	.L64:
 1172              	@ core/lpc17xx_uart.c:435: 	if (((LPC_UART1_TypeDef *)UARTx) == LPC_UART1)
 432:core/lpc17xx_uart.c **** 	}
 433:core/lpc17xx_uart.c **** #endif
 434:core/lpc17xx_uart.c **** 
 435:core/lpc17xx_uart.c **** 	if (((LPC_UART1_TypeDef *)UARTx) == LPC_UART1)
 1173              		.loc 1 435 0
 1174 00ee 7B68     		ldr	r3, [r7, #4]	@ tmp179, UARTx
 1175 00f0 6E4A     		ldr	r2, .L97+4	@ tmp180,
 1176 00f2 9342     		cmp	r3, r2	@ tmp179, tmp180
 1177 00f4 42D1     		bne	.L65	@,
 1178              	@ core/lpc17xx_uart.c:438: 		((LPC_UART1_TypeDef *)UARTx)->/*IIFCR.*/FCR = ( UART_FCR_FIFO_EN \
 436:core/lpc17xx_uart.c **** 	{
 437:core/lpc17xx_uart.c **** 		/* FIFOs are empty */
 438:core/lpc17xx_uart.c **** 		((LPC_UART1_TypeDef *)UARTx)->/*IIFCR.*/FCR = ( UART_FCR_FIFO_EN \
 1179              		.loc 1 438 0
 1180 00f6 7B68     		ldr	r3, [r7, #4]	@ tmp181, UARTx
 1181 00f8 0722     		movs	r2, #7	@ tmp182,
 1182 00fa 1A72     		strb	r2, [r3, #8]	@ tmp183, MEM[(struct LPC_UART1_TypeDef *)UARTx_58(D)].D.4816.FCR
 1183              	@ core/lpc17xx_uart.c:441: 		((LPC_UART1_TypeDef *)UARTx)->/*IIFCR.*/FCR = 0;
 439:core/lpc17xx_uart.c **** 				| UART_FCR_RX_RS | UART_FCR_TX_RS);
 440:core/lpc17xx_uart.c **** 		// Disable FIFO
 441:core/lpc17xx_uart.c **** 		((LPC_UART1_TypeDef *)UARTx)->/*IIFCR.*/FCR = 0;
 1184              		.loc 1 441 0
 1185 00fc 7B68     		ldr	r3, [r7, #4]	@ tmp184, UARTx
 1186 00fe 0022     		movs	r2, #0	@ tmp185,
 1187 0100 1A72     		strb	r2, [r3, #8]	@ tmp186, MEM[(struct LPC_UART1_TypeDef *)UARTx_58(D)].D.4816.FCR
 1188              	@ core/lpc17xx_uart.c:444: 		while (((LPC_UART1_TypeDef *)UARTx)->LSR & UART_LSR_RDR)
 442:core/lpc17xx_uart.c **** 
 443:core/lpc17xx_uart.c **** 		// Dummy reading
 444:core/lpc17xx_uart.c **** 		while (((LPC_UART1_TypeDef *)UARTx)->LSR & UART_LSR_RDR)
 1189              		.loc 1 444 0
 1190 0102 03E0     		b	.L66	@
 1191              	.L67:
 1192              	@ core/lpc17xx_uart.c:446: 			tmp = ((LPC_UART1_TypeDef *)UARTx)->/*RBTHDLR.*/RBR;
 445:core/lpc17xx_uart.c **** 		{
ARM GAS  /tmp/ccf79Nqw.s 			page 30


 446:core/lpc17xx_uart.c **** 			tmp = ((LPC_UART1_TypeDef *)UARTx)->/*RBTHDLR.*/RBR;
 1193              		.loc 1 446 0
 1194 0104 7B68     		ldr	r3, [r7, #4]	@ tmp187, UARTx
 1195 0106 1B78     		ldrb	r3, [r3]	@ tmp188, MEM[(struct LPC_UART1_TypeDef *)UARTx_58(D)].D.4808.RBR
 1196 0108 DBB2     		uxtb	r3, r3	@ _12, tmp188
 1197 010a FB60     		str	r3, [r7, #12]	@ _12, tmp
 1198              	.L66:
 1199              	@ core/lpc17xx_uart.c:444: 		while (((LPC_UART1_TypeDef *)UARTx)->LSR & UART_LSR_RDR)
 444:core/lpc17xx_uart.c **** 		{
 1200              		.loc 1 444 0
 1201 010c 7B68     		ldr	r3, [r7, #4]	@ tmp189, UARTx
 1202 010e 1B7D     		ldrb	r3, [r3, #20]	@ tmp191, MEM[(struct LPC_UART1_TypeDef *)UARTx_58(D)].LSR
 1203 0110 DBB2     		uxtb	r3, r3	@ _13, tmp191
 1204 0112 03F00103 		and	r3, r3, #1	@ _15, _14,
 1205 0116 002B     		cmp	r3, #0	@ _15,
 1206 0118 F4D1     		bne	.L67	@,
 1207              	@ core/lpc17xx_uart.c:449: 		((LPC_UART1_TypeDef *)UARTx)->TER = UART_TER_TXEN;
 447:core/lpc17xx_uart.c **** 		}
 448:core/lpc17xx_uart.c **** 
 449:core/lpc17xx_uart.c **** 		((LPC_UART1_TypeDef *)UARTx)->TER = UART_TER_TXEN;
 1208              		.loc 1 449 0
 1209 011a 7B68     		ldr	r3, [r7, #4]	@ tmp192, UARTx
 1210 011c 8022     		movs	r2, #128	@ tmp193,
 1211 011e 83F83020 		strb	r2, [r3, #48]	@ tmp194, MEM[(struct LPC_UART1_TypeDef *)UARTx_58(D)].TER
 1212              	@ core/lpc17xx_uart.c:451: 		while (!(((LPC_UART1_TypeDef *)UARTx)->LSR & UART_LSR_THRE));
 450:core/lpc17xx_uart.c **** 		// Wait for current transmit complete
 451:core/lpc17xx_uart.c **** 		while (!(((LPC_UART1_TypeDef *)UARTx)->LSR & UART_LSR_THRE));
 1213              		.loc 1 451 0
 1214 0122 00BF     		nop
 1215              	.L68:
 1216              	@ core/lpc17xx_uart.c:451: 		while (!(((LPC_UART1_TypeDef *)UARTx)->LSR & UART_LSR_THRE));
 1217              		.loc 1 451 0 is_stmt 0 discriminator 1
 1218 0124 7B68     		ldr	r3, [r7, #4]	@ tmp195, UARTx
 1219 0126 1B7D     		ldrb	r3, [r3, #20]	@ tmp197, MEM[(struct LPC_UART1_TypeDef *)UARTx_58(D)].LSR
 1220 0128 DBB2     		uxtb	r3, r3	@ _16, tmp197
 1221 012a 03F02003 		and	r3, r3, #32	@ _18, _17,
 1222 012e 002B     		cmp	r3, #0	@ _18,
 1223 0130 F8D0     		beq	.L68	@,
 1224              	@ core/lpc17xx_uart.c:453: 		((LPC_UART1_TypeDef *)UARTx)->TER = 0;
 452:core/lpc17xx_uart.c **** 		// Disable Tx
 453:core/lpc17xx_uart.c **** 		((LPC_UART1_TypeDef *)UARTx)->TER = 0;
 1225              		.loc 1 453 0 is_stmt 1
 1226 0132 7B68     		ldr	r3, [r7, #4]	@ tmp198, UARTx
 1227 0134 0022     		movs	r2, #0	@ tmp199,
 1228 0136 83F83020 		strb	r2, [r3, #48]	@ tmp200, MEM[(struct LPC_UART1_TypeDef *)UARTx_58(D)].TER
 1229              	@ core/lpc17xx_uart.c:456: 		((LPC_UART1_TypeDef *)UARTx)->/*DLIER.*/IER = 0;
 454:core/lpc17xx_uart.c **** 
 455:core/lpc17xx_uart.c **** 		// Disable interrupt
 456:core/lpc17xx_uart.c **** 		((LPC_UART1_TypeDef *)UARTx)->/*DLIER.*/IER = 0;
 1230              		.loc 1 456 0
 1231 013a 7B68     		ldr	r3, [r7, #4]	@ tmp201, UARTx
 1232 013c 0022     		movs	r2, #0	@ tmp202,
 1233 013e 5A60     		str	r2, [r3, #4]	@ tmp202, MEM[(struct LPC_UART1_TypeDef *)UARTx_58(D)].D.4812.IER
 1234              	@ core/lpc17xx_uart.c:458: 		((LPC_UART1_TypeDef *)UARTx)->LCR = 0;
 457:core/lpc17xx_uart.c **** 		// Set LCR to default state
 458:core/lpc17xx_uart.c **** 		((LPC_UART1_TypeDef *)UARTx)->LCR = 0;
 1235              		.loc 1 458 0
ARM GAS  /tmp/ccf79Nqw.s 			page 31


 1236 0140 7B68     		ldr	r3, [r7, #4]	@ tmp203, UARTx
 1237 0142 0022     		movs	r2, #0	@ tmp204,
 1238 0144 1A73     		strb	r2, [r3, #12]	@ tmp205, MEM[(struct LPC_UART1_TypeDef *)UARTx_58(D)].LCR
 1239              	@ core/lpc17xx_uart.c:460: 		((LPC_UART1_TypeDef *)UARTx)->ACR = 0;
 459:core/lpc17xx_uart.c **** 		// Set ACR to default state
 460:core/lpc17xx_uart.c **** 		((LPC_UART1_TypeDef *)UARTx)->ACR = 0;
 1240              		.loc 1 460 0
 1241 0146 7B68     		ldr	r3, [r7, #4]	@ tmp206, UARTx
 1242 0148 0022     		movs	r2, #0	@ tmp207,
 1243 014a 1A62     		str	r2, [r3, #32]	@ tmp207, MEM[(struct LPC_UART1_TypeDef *)UARTx_58(D)].ACR
 1244              	@ core/lpc17xx_uart.c:462: 		((LPC_UART1_TypeDef *)UARTx)->MCR = 0;
 461:core/lpc17xx_uart.c **** 		// Set Modem Control to default state
 462:core/lpc17xx_uart.c **** 		((LPC_UART1_TypeDef *)UARTx)->MCR = 0;
 1245              		.loc 1 462 0
 1246 014c 7B68     		ldr	r3, [r7, #4]	@ tmp208, UARTx
 1247 014e 0022     		movs	r2, #0	@ tmp209,
 1248 0150 1A74     		strb	r2, [r3, #16]	@ tmp210, MEM[(struct LPC_UART1_TypeDef *)UARTx_58(D)].MCR
 1249              	@ core/lpc17xx_uart.c:464: 		((LPC_UART1_TypeDef *)UARTx)->RS485CTRL = 0;
 463:core/lpc17xx_uart.c **** 		// Set RS485 control to default state
 464:core/lpc17xx_uart.c **** 		((LPC_UART1_TypeDef *)UARTx)->RS485CTRL = 0;
 1250              		.loc 1 464 0
 1251 0152 7B68     		ldr	r3, [r7, #4]	@ tmp211, UARTx
 1252 0154 0022     		movs	r2, #0	@ tmp212,
 1253 0156 83F84C20 		strb	r2, [r3, #76]	@ tmp213, MEM[(struct LPC_UART1_TypeDef *)UARTx_58(D)].RS485CTRL
 1254              	@ core/lpc17xx_uart.c:466: 		((LPC_UART1_TypeDef *)UARTx)->RS485DLY = 0;
 465:core/lpc17xx_uart.c **** 		// Set RS485 delay timer to default state
 466:core/lpc17xx_uart.c **** 		((LPC_UART1_TypeDef *)UARTx)->RS485DLY = 0;
 1255              		.loc 1 466 0
 1256 015a 7B68     		ldr	r3, [r7, #4]	@ tmp214, UARTx
 1257 015c 0022     		movs	r2, #0	@ tmp215,
 1258 015e 83F85420 		strb	r2, [r3, #84]	@ tmp216, MEM[(struct LPC_UART1_TypeDef *)UARTx_58(D)].RS485DLY
 1259              	@ core/lpc17xx_uart.c:468: 		((LPC_UART1_TypeDef *)UARTx)->ADRMATCH = 0;
 467:core/lpc17xx_uart.c **** 		// Set RS485 addr match to default state
 468:core/lpc17xx_uart.c **** 		((LPC_UART1_TypeDef *)UARTx)->ADRMATCH = 0;
 1260              		.loc 1 468 0
 1261 0162 7B68     		ldr	r3, [r7, #4]	@ tmp217, UARTx
 1262 0164 0022     		movs	r2, #0	@ tmp218,
 1263 0166 83F85020 		strb	r2, [r3, #80]	@ tmp219, MEM[(struct LPC_UART1_TypeDef *)UARTx_58(D)].ADRMATCH
 1264              	@ core/lpc17xx_uart.c:470: 		tmp = ((LPC_UART1_TypeDef *)UARTx)->MSR;
 469:core/lpc17xx_uart.c **** 		//Dummy Reading to Clear Status
 470:core/lpc17xx_uart.c **** 		tmp = ((LPC_UART1_TypeDef *)UARTx)->MSR;
 1265              		.loc 1 470 0
 1266 016a 7B68     		ldr	r3, [r7, #4]	@ tmp220, UARTx
 1267 016c 1B7E     		ldrb	r3, [r3, #24]	@ tmp222, MEM[(struct LPC_UART1_TypeDef *)UARTx_58(D)].MSR
 1268 016e DBB2     		uxtb	r3, r3	@ _19, tmp222
 1269 0170 FB60     		str	r3, [r7, #12]	@ _19, tmp
 1270              	@ core/lpc17xx_uart.c:471: 		tmp = ((LPC_UART1_TypeDef *)UARTx)->LSR;
 471:core/lpc17xx_uart.c **** 		tmp = ((LPC_UART1_TypeDef *)UARTx)->LSR;
 1271              		.loc 1 471 0
 1272 0172 7B68     		ldr	r3, [r7, #4]	@ tmp223, UARTx
 1273 0174 1B7D     		ldrb	r3, [r3, #20]	@ tmp225, MEM[(struct LPC_UART1_TypeDef *)UARTx_58(D)].LSR
 1274 0176 DBB2     		uxtb	r3, r3	@ _20, tmp225
 1275 0178 FB60     		str	r3, [r7, #12]	@ _20, tmp
 1276 017a 2EE0     		b	.L69	@
 1277              	.L65:
 1278              	@ core/lpc17xx_uart.c:476: 		UARTx->/*IIFCR.*/FCR = ( UART_FCR_FIFO_EN | UART_FCR_RX_RS | UART_FCR_
 472:core/lpc17xx_uart.c **** 	}
ARM GAS  /tmp/ccf79Nqw.s 			page 32


 473:core/lpc17xx_uart.c **** 	else
 474:core/lpc17xx_uart.c **** 	{
 475:core/lpc17xx_uart.c **** 		/* FIFOs are empty */
 476:core/lpc17xx_uart.c **** 		UARTx->/*IIFCR.*/FCR = ( UART_FCR_FIFO_EN | UART_FCR_RX_RS | UART_FCR_TX_RS);
 1279              		.loc 1 476 0
 1280 017c 7B68     		ldr	r3, [r7, #4]	@ tmp226, UARTx
 1281 017e 0722     		movs	r2, #7	@ tmp227,
 1282 0180 1A72     		strb	r2, [r3, #8]	@ tmp228, UARTx_58(D)->D.4756.FCR
 1283              	@ core/lpc17xx_uart.c:478: 		UARTx->/*IIFCR.*/FCR = 0;
 477:core/lpc17xx_uart.c **** 		// Disable FIFO
 478:core/lpc17xx_uart.c **** 		UARTx->/*IIFCR.*/FCR = 0;
 1284              		.loc 1 478 0
 1285 0182 7B68     		ldr	r3, [r7, #4]	@ tmp229, UARTx
 1286 0184 0022     		movs	r2, #0	@ tmp230,
 1287 0186 1A72     		strb	r2, [r3, #8]	@ tmp231, UARTx_58(D)->D.4756.FCR
 1288              	@ core/lpc17xx_uart.c:481: 		while (UARTx->LSR & UART_LSR_RDR)
 479:core/lpc17xx_uart.c **** 
 480:core/lpc17xx_uart.c **** 		// Dummy reading
 481:core/lpc17xx_uart.c **** 		while (UARTx->LSR & UART_LSR_RDR)
 1289              		.loc 1 481 0
 1290 0188 03E0     		b	.L70	@
 1291              	.L71:
 1292              	@ core/lpc17xx_uart.c:483: 			tmp = UARTx->/*RBTHDLR.*/RBR;
 482:core/lpc17xx_uart.c **** 		{
 483:core/lpc17xx_uart.c **** 			tmp = UARTx->/*RBTHDLR.*/RBR;
 1293              		.loc 1 483 0
 1294 018a 7B68     		ldr	r3, [r7, #4]	@ tmp232, UARTx
 1295 018c 1B78     		ldrb	r3, [r3]	@ tmp233, UARTx_58(D)->D.4748.RBR
 1296 018e DBB2     		uxtb	r3, r3	@ _21, tmp233
 1297 0190 FB60     		str	r3, [r7, #12]	@ _21, tmp
 1298              	.L70:
 1299              	@ core/lpc17xx_uart.c:481: 		while (UARTx->LSR & UART_LSR_RDR)
 481:core/lpc17xx_uart.c **** 		{
 1300              		.loc 1 481 0
 1301 0192 7B68     		ldr	r3, [r7, #4]	@ tmp234, UARTx
 1302 0194 1B7D     		ldrb	r3, [r3, #20]	@ tmp236, UARTx_58(D)->LSR
 1303 0196 DBB2     		uxtb	r3, r3	@ _22, tmp236
 1304 0198 03F00103 		and	r3, r3, #1	@ _24, _23,
 1305 019c 002B     		cmp	r3, #0	@ _24,
 1306 019e F4D1     		bne	.L71	@,
 1307              	@ core/lpc17xx_uart.c:486: 		UARTx->TER = UART_TER_TXEN;
 484:core/lpc17xx_uart.c **** 		}
 485:core/lpc17xx_uart.c **** 
 486:core/lpc17xx_uart.c **** 		UARTx->TER = UART_TER_TXEN;
 1308              		.loc 1 486 0
 1309 01a0 7B68     		ldr	r3, [r7, #4]	@ tmp237, UARTx
 1310 01a2 8022     		movs	r2, #128	@ tmp238,
 1311 01a4 83F83020 		strb	r2, [r3, #48]	@ tmp239, UARTx_58(D)->TER
 1312              	@ core/lpc17xx_uart.c:488: 		while (!(UARTx->LSR & UART_LSR_THRE));
 487:core/lpc17xx_uart.c **** 		// Wait for current transmit complete
 488:core/lpc17xx_uart.c **** 		while (!(UARTx->LSR & UART_LSR_THRE));
 1313              		.loc 1 488 0
 1314 01a8 00BF     		nop
 1315              	.L72:
 1316              	@ core/lpc17xx_uart.c:488: 		while (!(UARTx->LSR & UART_LSR_THRE));
 1317              		.loc 1 488 0 is_stmt 0 discriminator 1
 1318 01aa 7B68     		ldr	r3, [r7, #4]	@ tmp240, UARTx
ARM GAS  /tmp/ccf79Nqw.s 			page 33


 1319 01ac 1B7D     		ldrb	r3, [r3, #20]	@ tmp242, UARTx_58(D)->LSR
 1320 01ae DBB2     		uxtb	r3, r3	@ _25, tmp242
 1321 01b0 03F02003 		and	r3, r3, #32	@ _27, _26,
 1322 01b4 002B     		cmp	r3, #0	@ _27,
 1323 01b6 F8D0     		beq	.L72	@,
 1324              	@ core/lpc17xx_uart.c:490: 		UARTx->TER = 0;
 489:core/lpc17xx_uart.c **** 		// Disable Tx
 490:core/lpc17xx_uart.c **** 		UARTx->TER = 0;
 1325              		.loc 1 490 0 is_stmt 1
 1326 01b8 7B68     		ldr	r3, [r7, #4]	@ tmp243, UARTx
 1327 01ba 0022     		movs	r2, #0	@ tmp244,
 1328 01bc 83F83020 		strb	r2, [r3, #48]	@ tmp245, UARTx_58(D)->TER
 1329              	@ core/lpc17xx_uart.c:493: 		UARTx->/*DLIER.*/IER = 0;
 491:core/lpc17xx_uart.c **** 
 492:core/lpc17xx_uart.c **** 		// Disable interrupt
 493:core/lpc17xx_uart.c **** 		UARTx->/*DLIER.*/IER = 0;
 1330              		.loc 1 493 0
 1331 01c0 7B68     		ldr	r3, [r7, #4]	@ tmp246, UARTx
 1332 01c2 0022     		movs	r2, #0	@ tmp247,
 1333 01c4 5A60     		str	r2, [r3, #4]	@ tmp247, UARTx_58(D)->D.4752.IER
 1334              	@ core/lpc17xx_uart.c:495: 		UARTx->LCR = 0;
 494:core/lpc17xx_uart.c **** 		// Set LCR to default state
 495:core/lpc17xx_uart.c **** 		UARTx->LCR = 0;
 1335              		.loc 1 495 0
 1336 01c6 7B68     		ldr	r3, [r7, #4]	@ tmp248, UARTx
 1337 01c8 0022     		movs	r2, #0	@ tmp249,
 1338 01ca 1A73     		strb	r2, [r3, #12]	@ tmp250, UARTx_58(D)->LCR
 1339              	@ core/lpc17xx_uart.c:497: 		UARTx->ACR = 0;
 496:core/lpc17xx_uart.c **** 		// Set ACR to default state
 497:core/lpc17xx_uart.c **** 		UARTx->ACR = 0;
 1340              		.loc 1 497 0
 1341 01cc 7B68     		ldr	r3, [r7, #4]	@ tmp251, UARTx
 1342 01ce 0022     		movs	r2, #0	@ tmp252,
 1343 01d0 1A62     		str	r2, [r3, #32]	@ tmp252, UARTx_58(D)->ACR
 1344              	@ core/lpc17xx_uart.c:499: 		tmp = UARTx->LSR;
 498:core/lpc17xx_uart.c **** 		// Dummy reading
 499:core/lpc17xx_uart.c **** 		tmp = UARTx->LSR;
 1345              		.loc 1 499 0
 1346 01d2 7B68     		ldr	r3, [r7, #4]	@ tmp253, UARTx
 1347 01d4 1B7D     		ldrb	r3, [r3, #20]	@ tmp255, UARTx_58(D)->LSR
 1348 01d6 DBB2     		uxtb	r3, r3	@ _28, tmp255
 1349 01d8 FB60     		str	r3, [r7, #12]	@ _28, tmp
 1350              	.L69:
 1351              	@ core/lpc17xx_uart.c:502: 	if (UARTx == LPC_UART3)
 500:core/lpc17xx_uart.c **** 	}
 501:core/lpc17xx_uart.c **** 
 502:core/lpc17xx_uart.c **** 	if (UARTx == LPC_UART3)
 1352              		.loc 1 502 0
 1353 01da 7B68     		ldr	r3, [r7, #4]	@ tmp256, UARTx
 1354 01dc 354A     		ldr	r2, .L97+12	@ tmp257,
 1355 01de 9342     		cmp	r3, r2	@ tmp256, tmp257
 1356 01e0 03D1     		bne	.L73	@,
 1357              	@ core/lpc17xx_uart.c:505: 		UARTx->ICR = 0;
 503:core/lpc17xx_uart.c **** 	{
 504:core/lpc17xx_uart.c **** 		// Set IrDA to default state
 505:core/lpc17xx_uart.c **** 		UARTx->ICR = 0;
 1358              		.loc 1 505 0
ARM GAS  /tmp/ccf79Nqw.s 			page 34


 1359 01e2 7B68     		ldr	r3, [r7, #4]	@ tmp258, UARTx
 1360 01e4 0022     		movs	r2, #0	@ tmp259,
 1361 01e6 83F82420 		strb	r2, [r3, #36]	@ tmp260, UARTx_58(D)->ICR
 1362              	.L73:
 1363              	@ core/lpc17xx_uart.c:510: 	uart_set_divisors(UARTx, (UART_ConfigStruct->Baud_rate));
 506:core/lpc17xx_uart.c **** 	}
 507:core/lpc17xx_uart.c **** 
 508:core/lpc17xx_uart.c **** 	// Set Line Control register ----------------------------
 509:core/lpc17xx_uart.c **** 
 510:core/lpc17xx_uart.c **** 	uart_set_divisors(UARTx, (UART_ConfigStruct->Baud_rate));
 1364              		.loc 1 510 0
 1365 01ea 3B68     		ldr	r3, [r7]	@ tmp261, UART_ConfigStruct
 1366 01ec 1B68     		ldr	r3, [r3]	@ _29, UART_ConfigStruct_61(D)->Baud_rate
 1367 01ee 1946     		mov	r1, r3	@, _29
 1368 01f0 7868     		ldr	r0, [r7, #4]	@, UARTx
 1369 01f2 FFF7FEFF 		bl	uart_set_divisors	@
 1370              	@ core/lpc17xx_uart.c:512: 	if (((LPC_UART1_TypeDef *)UARTx) == LPC_UART1)
 511:core/lpc17xx_uart.c **** 
 512:core/lpc17xx_uart.c **** 	if (((LPC_UART1_TypeDef *)UARTx) == LPC_UART1)
 1371              		.loc 1 512 0
 1372 01f6 7B68     		ldr	r3, [r7, #4]	@ tmp262, UARTx
 1373 01f8 2C4A     		ldr	r2, .L97+4	@ tmp263,
 1374 01fa 9342     		cmp	r3, r2	@ tmp262, tmp263
 1375 01fc 06D1     		bne	.L74	@,
 1376              	@ core/lpc17xx_uart.c:514: 		tmp = (((LPC_UART1_TypeDef *)UARTx)->LCR & (UART_LCR_DLAB_EN | UART_LC
 513:core/lpc17xx_uart.c **** 	{
 514:core/lpc17xx_uart.c **** 		tmp = (((LPC_UART1_TypeDef *)UARTx)->LCR & (UART_LCR_DLAB_EN | UART_LCR_BREAK_EN)) \
 1377              		.loc 1 514 0
 1378 01fe 7B68     		ldr	r3, [r7, #4]	@ tmp264, UARTx
 1379 0200 1B7B     		ldrb	r3, [r3, #12]	@ tmp266, MEM[(struct LPC_UART1_TypeDef *)UARTx_58(D)].LCR
 1380 0202 DBB2     		uxtb	r3, r3	@ _30, tmp266
 1381 0204 03F0C003 		and	r3, r3, #192	@ tmp267, _31,
 1382 0208 FB60     		str	r3, [r7, #12]	@ tmp267, tmp
 1383 020a 05E0     		b	.L75	@
 1384              	.L74:
 1385              	@ core/lpc17xx_uart.c:519: 		tmp = (UARTx->LCR & (UART_LCR_DLAB_EN | UART_LCR_BREAK_EN)) & UART_LCR
 515:core/lpc17xx_uart.c **** 				& UART_LCR_BITMASK;
 516:core/lpc17xx_uart.c **** 	}
 517:core/lpc17xx_uart.c **** 	else
 518:core/lpc17xx_uart.c **** 	{
 519:core/lpc17xx_uart.c **** 		tmp = (UARTx->LCR & (UART_LCR_DLAB_EN | UART_LCR_BREAK_EN)) & UART_LCR_BITMASK;
 1386              		.loc 1 519 0
 1387 020c 7B68     		ldr	r3, [r7, #4]	@ tmp268, UARTx
 1388 020e 1B7B     		ldrb	r3, [r3, #12]	@ tmp270, UARTx_58(D)->LCR
 1389 0210 DBB2     		uxtb	r3, r3	@ _32, tmp270
 1390 0212 03F0C003 		and	r3, r3, #192	@ tmp271, _33,
 1391 0216 FB60     		str	r3, [r7, #12]	@ tmp271, tmp
 1392              	.L75:
 1393              	@ core/lpc17xx_uart.c:522: 	switch (UART_ConfigStruct->Databits){
 520:core/lpc17xx_uart.c **** 	}
 521:core/lpc17xx_uart.c **** 
 522:core/lpc17xx_uart.c **** 	switch (UART_ConfigStruct->Databits){
 1394              		.loc 1 522 0
 1395 0218 3B68     		ldr	r3, [r7]	@ tmp272, UART_ConfigStruct
 1396 021a 5B79     		ldrb	r3, [r3, #5]	@ zero_extendqisi2	@ _34, UART_ConfigStruct_61(D)->Databits
 1397 021c 012B     		cmp	r3, #1	@ _35,
 1398 021e 04D0     		beq	.L77	@,
ARM GAS  /tmp/ccf79Nqw.s 			page 35


 1399 0220 022B     		cmp	r3, #2	@ _35,
 1400 0222 07D0     		beq	.L78	@,
 1401 0224 002B     		cmp	r3, #0	@ _35,
 1402 0226 0FD0     		beq	.L94	@,
 1403 0228 09E0     		b	.L93	@
 1404              	.L77:
 1405              	@ core/lpc17xx_uart.c:527: 		tmp |= UART_LCR_WLEN6;
 523:core/lpc17xx_uart.c **** 	case UART_DATABIT_5:
 524:core/lpc17xx_uart.c **** 		tmp |= UART_LCR_WLEN5;
 525:core/lpc17xx_uart.c **** 		break;
 526:core/lpc17xx_uart.c **** 	case UART_DATABIT_6:
 527:core/lpc17xx_uart.c **** 		tmp |= UART_LCR_WLEN6;
 1406              		.loc 1 527 0
 1407 022a FB68     		ldr	r3, [r7, #12]	@ tmp274, tmp
 1408 022c 43F00103 		orr	r3, r3, #1	@ tmp273, tmp274,
 1409 0230 FB60     		str	r3, [r7, #12]	@ tmp273, tmp
 1410              	@ core/lpc17xx_uart.c:528: 		break;
 528:core/lpc17xx_uart.c **** 		break;
 1411              		.loc 1 528 0
 1412 0232 0AE0     		b	.L80	@
 1413              	.L78:
 1414              	@ core/lpc17xx_uart.c:530: 		tmp |= UART_LCR_WLEN7;
 529:core/lpc17xx_uart.c **** 	case UART_DATABIT_7:
 530:core/lpc17xx_uart.c **** 		tmp |= UART_LCR_WLEN7;
 1415              		.loc 1 530 0
 1416 0234 FB68     		ldr	r3, [r7, #12]	@ tmp276, tmp
 1417 0236 43F00203 		orr	r3, r3, #2	@ tmp275, tmp276,
 1418 023a FB60     		str	r3, [r7, #12]	@ tmp275, tmp
 1419              	@ core/lpc17xx_uart.c:531: 		break;
 531:core/lpc17xx_uart.c **** 		break;
 1420              		.loc 1 531 0
 1421 023c 05E0     		b	.L80	@
 1422              	.L93:
 1423              	@ core/lpc17xx_uart.c:534: 		tmp |= UART_LCR_WLEN8;
 532:core/lpc17xx_uart.c **** 	case UART_DATABIT_8:
 533:core/lpc17xx_uart.c **** 	default:
 534:core/lpc17xx_uart.c **** 		tmp |= UART_LCR_WLEN8;
 1424              		.loc 1 534 0
 1425 023e FB68     		ldr	r3, [r7, #12]	@ tmp278, tmp
 1426 0240 43F00303 		orr	r3, r3, #3	@ tmp277, tmp278,
 1427 0244 FB60     		str	r3, [r7, #12]	@ tmp277, tmp
 1428              	@ core/lpc17xx_uart.c:535: 		break;
 535:core/lpc17xx_uart.c **** 		break;
 1429              		.loc 1 535 0
 1430 0246 00E0     		b	.L80	@
 1431              	.L94:
 1432              	@ core/lpc17xx_uart.c:525: 		break;
 525:core/lpc17xx_uart.c **** 	case UART_DATABIT_6:
 1433              		.loc 1 525 0
 1434 0248 00BF     		nop
 1435              	.L80:
 1436              	@ core/lpc17xx_uart.c:538: 	if (UART_ConfigStruct->Parity == UART_PARITY_NONE)
 536:core/lpc17xx_uart.c **** 	}
 537:core/lpc17xx_uart.c **** 
 538:core/lpc17xx_uart.c **** 	if (UART_ConfigStruct->Parity == UART_PARITY_NONE)
 1437              		.loc 1 538 0
 1438 024a 3B68     		ldr	r3, [r7]	@ tmp279, UART_ConfigStruct
ARM GAS  /tmp/ccf79Nqw.s 			page 36


 1439 024c 1B79     		ldrb	r3, [r3, #4]	@ zero_extendqisi2	@ _36, UART_ConfigStruct_61(D)->Parity
 1440 024e 002B     		cmp	r3, #0	@ _36,
 1441 0250 24D0     		beq	.L81	@,
 1442              	@ core/lpc17xx_uart.c:544: 		tmp |= UART_LCR_PARITY_EN;
 539:core/lpc17xx_uart.c **** 	{
 540:core/lpc17xx_uart.c **** 		// Do nothing...
 541:core/lpc17xx_uart.c **** 	}
 542:core/lpc17xx_uart.c **** 	else
 543:core/lpc17xx_uart.c **** 	{
 544:core/lpc17xx_uart.c **** 		tmp |= UART_LCR_PARITY_EN;
 1443              		.loc 1 544 0
 1444 0252 FB68     		ldr	r3, [r7, #12]	@ tmp281, tmp
 1445 0254 43F00803 		orr	r3, r3, #8	@ tmp280, tmp281,
 1446 0258 FB60     		str	r3, [r7, #12]	@ tmp280, tmp
 1447              	@ core/lpc17xx_uart.c:545: 		switch (UART_ConfigStruct->Parity)
 545:core/lpc17xx_uart.c **** 		switch (UART_ConfigStruct->Parity)
 1448              		.loc 1 545 0
 1449 025a 3B68     		ldr	r3, [r7]	@ tmp282, UART_ConfigStruct
 1450 025c 1B79     		ldrb	r3, [r3, #4]	@ zero_extendqisi2	@ _37, UART_ConfigStruct_61(D)->Parity
 1451 025e 013B     		subs	r3, r3, #1	@ tmp283, _38,
 1452 0260 032B     		cmp	r3, #3	@ tmp283,
 1453 0262 1AD8     		bhi	.L95	@
 1454 0264 01A2     		adr	r2, .L84	@ tmp301,
 1455 0266 52F823F0 		ldr	pc, [r2, r3, lsl #2]	@ tmp301, tmp283
 1456 026a 00BF     		.p2align 2
 1457              	.L84:
 1458 026c 9B020000 		.word	.L95+1
 1459 0270 7D020000 		.word	.L85+1
 1460 0274 87020000 		.word	.L86+1
 1461 0278 91020000 		.word	.L87+1
 1462              		.p2align 1
 1463              	.L85:
 1464              	@ core/lpc17xx_uart.c:552: 			tmp |= UART_LCR_PARITY_EVEN;
 546:core/lpc17xx_uart.c **** 		{
 547:core/lpc17xx_uart.c **** 		case UART_PARITY_ODD:
 548:core/lpc17xx_uart.c **** 			tmp |= UART_LCR_PARITY_ODD;
 549:core/lpc17xx_uart.c **** 			break;
 550:core/lpc17xx_uart.c **** 
 551:core/lpc17xx_uart.c **** 		case UART_PARITY_EVEN:
 552:core/lpc17xx_uart.c **** 			tmp |= UART_LCR_PARITY_EVEN;
 1465              		.loc 1 552 0
 1466 027c FB68     		ldr	r3, [r7, #12]	@ tmp285, tmp
 1467 027e 43F01003 		orr	r3, r3, #16	@ tmp284, tmp285,
 1468 0282 FB60     		str	r3, [r7, #12]	@ tmp284, tmp
 1469              	@ core/lpc17xx_uart.c:553: 			break;
 553:core/lpc17xx_uart.c **** 			break;
 1470              		.loc 1 553 0
 1471 0284 0AE0     		b	.L81	@
 1472              	.L86:
 1473              	@ core/lpc17xx_uart.c:556: 			tmp |= UART_LCR_PARITY_F_1;
 554:core/lpc17xx_uart.c **** 
 555:core/lpc17xx_uart.c **** 		case UART_PARITY_SP_1:
 556:core/lpc17xx_uart.c **** 			tmp |= UART_LCR_PARITY_F_1;
 1474              		.loc 1 556 0
 1475 0286 FB68     		ldr	r3, [r7, #12]	@ tmp287, tmp
 1476 0288 43F02003 		orr	r3, r3, #32	@ tmp286, tmp287,
 1477 028c FB60     		str	r3, [r7, #12]	@ tmp286, tmp
ARM GAS  /tmp/ccf79Nqw.s 			page 37


 1478              	@ core/lpc17xx_uart.c:557: 			break;
 557:core/lpc17xx_uart.c **** 			break;
 1479              		.loc 1 557 0
 1480 028e 05E0     		b	.L81	@
 1481              	.L87:
 1482              	@ core/lpc17xx_uart.c:560: 			tmp |= UART_LCR_PARITY_F_0;
 558:core/lpc17xx_uart.c **** 
 559:core/lpc17xx_uart.c **** 		case UART_PARITY_SP_0:
 560:core/lpc17xx_uart.c **** 			tmp |= UART_LCR_PARITY_F_0;
 1483              		.loc 1 560 0
 1484 0290 FB68     		ldr	r3, [r7, #12]	@ tmp289, tmp
 1485 0292 43F03003 		orr	r3, r3, #48	@ tmp288, tmp289,
 1486 0296 FB60     		str	r3, [r7, #12]	@ tmp288, tmp
 1487              	@ core/lpc17xx_uart.c:561: 			break;
 561:core/lpc17xx_uart.c **** 			break;
 1488              		.loc 1 561 0
 1489 0298 00E0     		b	.L81	@
 1490              	.L95:
 1491              	@ core/lpc17xx_uart.c:563: 			break;
 562:core/lpc17xx_uart.c **** 		default:
 563:core/lpc17xx_uart.c **** 			break;
 1492              		.loc 1 563 0
 1493 029a 00BF     		nop
 1494              	.L81:
 1495              	@ core/lpc17xx_uart.c:567: 	switch (UART_ConfigStruct->Stopbits){
 564:core/lpc17xx_uart.c **** 		}
 565:core/lpc17xx_uart.c **** 	}
 566:core/lpc17xx_uart.c **** 
 567:core/lpc17xx_uart.c **** 	switch (UART_ConfigStruct->Stopbits){
 1496              		.loc 1 567 0
 1497 029c 3B68     		ldr	r3, [r7]	@ tmp290, UART_ConfigStruct
 1498 029e 9B79     		ldrb	r3, [r3, #6]	@ zero_extendqisi2	@ _39, UART_ConfigStruct_61(D)->Stopbits
 1499 02a0 012B     		cmp	r3, #1	@ _40,
 1500 02a2 0BD0     		beq	.L89	@,
 1501              	@ core/lpc17xx_uart.c:574: 		break;
 568:core/lpc17xx_uart.c **** 	case UART_STOPBIT_2:
 569:core/lpc17xx_uart.c **** 		tmp |= UART_LCR_STOPBIT_SEL;
 570:core/lpc17xx_uart.c **** 		break;
 571:core/lpc17xx_uart.c **** 	case UART_STOPBIT_1:
 572:core/lpc17xx_uart.c **** 	default:
 573:core/lpc17xx_uart.c **** 		// Do no thing
 574:core/lpc17xx_uart.c **** 		break;
 1502              		.loc 1 574 0
 1503 02a4 0FE0     		b	.L90	@
 1504              	.L98:
 1505 02a6 00BF     		.align	2
 1506              	.L97:
 1507 02a8 00C00040 		.word	1073790976
 1508 02ac 00000140 		.word	1073807360
 1509 02b0 00800940 		.word	1074364416
 1510 02b4 00C00940 		.word	1074380800
 1511 02b8 00000000 		.word	.LC0
 1512              	.L89:
 1513              	@ core/lpc17xx_uart.c:569: 		tmp |= UART_LCR_STOPBIT_SEL;
 569:core/lpc17xx_uart.c **** 		break;
 1514              		.loc 1 569 0
 1515 02bc FB68     		ldr	r3, [r7, #12]	@ tmp292, tmp
ARM GAS  /tmp/ccf79Nqw.s 			page 38


 1516 02be 43F00403 		orr	r3, r3, #4	@ tmp291, tmp292,
 1517 02c2 FB60     		str	r3, [r7, #12]	@ tmp291, tmp
 1518              	@ core/lpc17xx_uart.c:570: 		break;
 570:core/lpc17xx_uart.c **** 	case UART_STOPBIT_1:
 1519              		.loc 1 570 0
 1520 02c4 00BF     		nop
 1521              	.L90:
 1522              	@ core/lpc17xx_uart.c:579: 	if (((LPC_UART1_TypeDef *)UARTx) ==  LPC_UART1)
 575:core/lpc17xx_uart.c **** 	}
 576:core/lpc17xx_uart.c **** 
 577:core/lpc17xx_uart.c **** 
 578:core/lpc17xx_uart.c **** 	// Write back to LCR, configure FIFO and Disable Tx
 579:core/lpc17xx_uart.c **** 	if (((LPC_UART1_TypeDef *)UARTx) ==  LPC_UART1)
 1523              		.loc 1 579 0
 1524 02c6 7B68     		ldr	r3, [r7, #4]	@ tmp293, UARTx
 1525 02c8 074A     		ldr	r2, .L99	@ tmp294,
 1526 02ca 9342     		cmp	r3, r2	@ tmp293, tmp294
 1527 02cc 04D1     		bne	.L91	@,
 1528              	@ core/lpc17xx_uart.c:581: 		((LPC_UART1_TypeDef *)UARTx)->LCR = (uint8_t)(tmp & UART_LCR_BITMASK);
 580:core/lpc17xx_uart.c **** 	{
 581:core/lpc17xx_uart.c **** 		((LPC_UART1_TypeDef *)UARTx)->LCR = (uint8_t)(tmp & UART_LCR_BITMASK);
 1529              		.loc 1 581 0
 1530 02ce FB68     		ldr	r3, [r7, #12]	@ tmp295, tmp
 1531 02d0 DAB2     		uxtb	r2, r3	@ _41, tmp295
 1532 02d2 7B68     		ldr	r3, [r7, #4]	@ tmp296, UARTx
 1533 02d4 1A73     		strb	r2, [r3, #12]	@ tmp297, MEM[(struct LPC_UART1_TypeDef *)UARTx_58(D)].LCR
 1534              	@ core/lpc17xx_uart.c:587: }
 582:core/lpc17xx_uart.c **** 	}
 583:core/lpc17xx_uart.c **** 	else
 584:core/lpc17xx_uart.c **** 	{
 585:core/lpc17xx_uart.c **** 		UARTx->LCR = (uint8_t)(tmp & UART_LCR_BITMASK);
 586:core/lpc17xx_uart.c **** 	}
 587:core/lpc17xx_uart.c **** }
 1535              		.loc 1 587 0
 1536 02d6 03E0     		b	.L96	@
 1537              	.L91:
 1538              	@ core/lpc17xx_uart.c:585: 		UARTx->LCR = (uint8_t)(tmp & UART_LCR_BITMASK);
 585:core/lpc17xx_uart.c **** 	}
 1539              		.loc 1 585 0
 1540 02d8 FB68     		ldr	r3, [r7, #12]	@ tmp298, tmp
 1541 02da DAB2     		uxtb	r2, r3	@ _42, tmp298
 1542 02dc 7B68     		ldr	r3, [r7, #4]	@ tmp299, UARTx
 1543 02de 1A73     		strb	r2, [r3, #12]	@ tmp300, UARTx_58(D)->LCR
 1544              	.L96:
 1545              	@ core/lpc17xx_uart.c:587: }
 1546              		.loc 1 587 0
 1547 02e0 00BF     		nop
 1548 02e2 1037     		adds	r7, r7, #16	@,,
 1549              		.cfi_def_cfa_offset 8
 1550 02e4 BD46     		mov	sp, r7	@,
 1551              		.cfi_def_cfa_register 13
 1552              		@ sp needed	@
 1553 02e6 80BD     		pop	{r7, pc}	@
 1554              	.L100:
 1555              		.align	2
 1556              	.L99:
 1557 02e8 00000140 		.word	1073807360
ARM GAS  /tmp/ccf79Nqw.s 			page 39


 1558              		.cfi_endproc
 1559              	.LFE59:
 1560              		.size	UART_Init, .-UART_Init
 1561              		.section	.text.UART_ConfigStructInit,"ax",%progbits
 1562              		.align	1
 1563              		.global	UART_ConfigStructInit
 1564              		.syntax unified
 1565              		.thumb
 1566              		.thumb_func
 1567              		.fpu softvfp
 1568              		.type	UART_ConfigStructInit, %function
 1569              	UART_ConfigStructInit:
 1570              	.LFB60:
 588:core/lpc17xx_uart.c **** 
 589:core/lpc17xx_uart.c **** 
 590:core/lpc17xx_uart.c **** /*****************************************************************************//**
 591:core/lpc17xx_uart.c **** * @brief		Fills each UART_InitStruct member with its default value:
 592:core/lpc17xx_uart.c **** * 				9600 bps
 593:core/lpc17xx_uart.c **** * 				8-bit data
 594:core/lpc17xx_uart.c **** * 				1 Stopbit
 595:core/lpc17xx_uart.c **** * 				None Parity
 596:core/lpc17xx_uart.c **** * @param[in]	UART_InitStruct Pointer to a UART_CFG_Type structure
 597:core/lpc17xx_uart.c **** *                    which will be initialized.
 598:core/lpc17xx_uart.c **** * @return		None
 599:core/lpc17xx_uart.c **** *******************************************************************************/
 600:core/lpc17xx_uart.c **** void UART_ConfigStructInit(UART_CFG_Type *UART_InitStruct)
 601:core/lpc17xx_uart.c **** {
 1571              		.loc 1 601 0
 1572              		.cfi_startproc
 1573              		@ args = 0, pretend = 0, frame = 8
 1574              		@ frame_needed = 1, uses_anonymous_args = 0
 1575              		@ link register save eliminated.
 1576 0000 80B4     		push	{r7}	@
 1577              		.cfi_def_cfa_offset 4
 1578              		.cfi_offset 7, -4
 1579 0002 83B0     		sub	sp, sp, #12	@,,
 1580              		.cfi_def_cfa_offset 16
 1581 0004 00AF     		add	r7, sp, #0	@,,
 1582              		.cfi_def_cfa_register 7
 1583 0006 7860     		str	r0, [r7, #4]	@ UART_InitStruct, UART_InitStruct
 1584              	@ core/lpc17xx_uart.c:602: 	UART_InitStruct->Baud_rate = 9600;
 602:core/lpc17xx_uart.c **** 	UART_InitStruct->Baud_rate = 9600;
 1585              		.loc 1 602 0
 1586 0008 7B68     		ldr	r3, [r7, #4]	@ tmp110, UART_InitStruct
 1587 000a 4FF41652 		mov	r2, #9600	@ tmp111,
 1588 000e 1A60     		str	r2, [r3]	@ tmp111, UART_InitStruct_2(D)->Baud_rate
 1589              	@ core/lpc17xx_uart.c:603: 	UART_InitStruct->Databits = UART_DATABIT_8;
 603:core/lpc17xx_uart.c **** 	UART_InitStruct->Databits = UART_DATABIT_8;
 1590              		.loc 1 603 0
 1591 0010 7B68     		ldr	r3, [r7, #4]	@ tmp112, UART_InitStruct
 1592 0012 0322     		movs	r2, #3	@ tmp113,
 1593 0014 5A71     		strb	r2, [r3, #5]	@ tmp114, UART_InitStruct_2(D)->Databits
 1594              	@ core/lpc17xx_uart.c:604: 	UART_InitStruct->Parity = UART_PARITY_NONE;
 604:core/lpc17xx_uart.c **** 	UART_InitStruct->Parity = UART_PARITY_NONE;
 1595              		.loc 1 604 0
 1596 0016 7B68     		ldr	r3, [r7, #4]	@ tmp115, UART_InitStruct
 1597 0018 0022     		movs	r2, #0	@ tmp116,
ARM GAS  /tmp/ccf79Nqw.s 			page 40


 1598 001a 1A71     		strb	r2, [r3, #4]	@ tmp117, UART_InitStruct_2(D)->Parity
 1599              	@ core/lpc17xx_uart.c:605: 	UART_InitStruct->Stopbits = UART_STOPBIT_1;
 605:core/lpc17xx_uart.c **** 	UART_InitStruct->Stopbits = UART_STOPBIT_1;
 1600              		.loc 1 605 0
 1601 001c 7B68     		ldr	r3, [r7, #4]	@ tmp118, UART_InitStruct
 1602 001e 0022     		movs	r2, #0	@ tmp119,
 1603 0020 9A71     		strb	r2, [r3, #6]	@ tmp120, UART_InitStruct_2(D)->Stopbits
 1604              	@ core/lpc17xx_uart.c:606: }
 606:core/lpc17xx_uart.c **** }
 1605              		.loc 1 606 0
 1606 0022 00BF     		nop
 1607 0024 0C37     		adds	r7, r7, #12	@,,
 1608              		.cfi_def_cfa_offset 4
 1609 0026 BD46     		mov	sp, r7	@,
 1610              		.cfi_def_cfa_register 13
 1611              		@ sp needed	@
 1612 0028 80BC     		pop	{r7}	@
 1613              		.cfi_restore 7
 1614              		.cfi_def_cfa_offset 0
 1615 002a 7047     		bx	lr	@
 1616              		.cfi_endproc
 1617              	.LFE60:
 1618              		.size	UART_ConfigStructInit, .-UART_ConfigStructInit
 1619              		.section	.text.UART_SendData,"ax",%progbits
 1620              		.align	1
 1621              		.global	UART_SendData
 1622              		.syntax unified
 1623              		.thumb
 1624              		.thumb_func
 1625              		.fpu softvfp
 1626              		.type	UART_SendData, %function
 1627              	UART_SendData:
 1628              	.LFB61:
 607:core/lpc17xx_uart.c **** 
 608:core/lpc17xx_uart.c **** 
 609:core/lpc17xx_uart.c **** /*********************************************************************//**
 610:core/lpc17xx_uart.c ****  * @brief		Transmit a single data through UART peripheral
 611:core/lpc17xx_uart.c ****  * @param[in]	UARTx	UART peripheral selected, should be UART0, UART1,
 612:core/lpc17xx_uart.c ****  * 						UART2 or UART3.
 613:core/lpc17xx_uart.c ****  * @param[in]	Data	Data to transmit (must be 8-bit long)
 614:core/lpc17xx_uart.c ****  * @return none
 615:core/lpc17xx_uart.c ****  **********************************************************************/
 616:core/lpc17xx_uart.c **** void UART_SendData(LPC_UART_TypeDef* UARTx, uint8_t Data)
 617:core/lpc17xx_uart.c **** {
 1629              		.loc 1 617 0
 1630              		.cfi_startproc
 1631              		@ args = 0, pretend = 0, frame = 8
 1632              		@ frame_needed = 1, uses_anonymous_args = 0
 1633 0000 80B5     		push	{r7, lr}	@
 1634              		.cfi_def_cfa_offset 8
 1635              		.cfi_offset 7, -8
 1636              		.cfi_offset 14, -4
 1637 0002 82B0     		sub	sp, sp, #8	@,,
 1638              		.cfi_def_cfa_offset 16
 1639 0004 00AF     		add	r7, sp, #0	@,,
 1640              		.cfi_def_cfa_register 7
 1641 0006 7860     		str	r0, [r7, #4]	@ UARTx, UARTx
ARM GAS  /tmp/ccf79Nqw.s 			page 41


 1642 0008 0B46     		mov	r3, r1	@ tmp110, Data
 1643 000a FB70     		strb	r3, [r7, #3]	@ tmp111, Data
 1644              	@ core/lpc17xx_uart.c:618: 	CHECK_PARAM(PARAM_UARTx(UARTx));
 618:core/lpc17xx_uart.c **** 	CHECK_PARAM(PARAM_UARTx(UARTx));
 1645              		.loc 1 618 0
 1646 000c 7B68     		ldr	r3, [r7, #4]	@ tmp112, UARTx
 1647 000e 114A     		ldr	r2, .L107	@ tmp113,
 1648 0010 9342     		cmp	r3, r2	@ tmp112, tmp113
 1649 0012 10D0     		beq	.L103	@,
 1650              	@ core/lpc17xx_uart.c:618: 	CHECK_PARAM(PARAM_UARTx(UARTx));
 1651              		.loc 1 618 0 is_stmt 0 discriminator 1
 1652 0014 7B68     		ldr	r3, [r7, #4]	@ tmp114, UARTx
 1653 0016 104A     		ldr	r2, .L107+4	@ tmp115,
 1654 0018 9342     		cmp	r3, r2	@ tmp114, tmp115
 1655 001a 0CD0     		beq	.L103	@,
 1656              	@ core/lpc17xx_uart.c:618: 	CHECK_PARAM(PARAM_UARTx(UARTx));
 1657              		.loc 1 618 0 discriminator 2
 1658 001c 7B68     		ldr	r3, [r7, #4]	@ tmp116, UARTx
 1659 001e 0F4A     		ldr	r2, .L107+8	@ tmp117,
 1660 0020 9342     		cmp	r3, r2	@ tmp116, tmp117
 1661 0022 08D0     		beq	.L103	@,
 1662              	@ core/lpc17xx_uart.c:618: 	CHECK_PARAM(PARAM_UARTx(UARTx));
 1663              		.loc 1 618 0 discriminator 3
 1664 0024 7B68     		ldr	r3, [r7, #4]	@ tmp118, UARTx
 1665 0026 0E4A     		ldr	r2, .L107+12	@ tmp119,
 1666 0028 9342     		cmp	r3, r2	@ tmp118, tmp119
 1667 002a 04D0     		beq	.L103	@,
 1668              	@ core/lpc17xx_uart.c:618: 	CHECK_PARAM(PARAM_UARTx(UARTx));
 1669              		.loc 1 618 0 discriminator 4
 1670 002c 40F26A21 		movw	r1, #618	@,
 1671 0030 0C48     		ldr	r0, .L107+16	@,
 1672 0032 FFF7FEFF 		bl	check_failed	@
 1673              	.L103:
 1674              	@ core/lpc17xx_uart.c:620: 	if (((LPC_UART1_TypeDef *)UARTx) == LPC_UART1)
 619:core/lpc17xx_uart.c **** 
 620:core/lpc17xx_uart.c **** 	if (((LPC_UART1_TypeDef *)UARTx) == LPC_UART1)
 1675              		.loc 1 620 0 is_stmt 1
 1676 0036 7B68     		ldr	r3, [r7, #4]	@ tmp120, UARTx
 1677 0038 074A     		ldr	r2, .L107+4	@ tmp121,
 1678 003a 9342     		cmp	r3, r2	@ tmp120, tmp121
 1679 003c 03D1     		bne	.L104	@,
 1680              	@ core/lpc17xx_uart.c:622: 		((LPC_UART1_TypeDef *)UARTx)->/*RBTHDLR.*/THR = Data & UART_THR_MASKBI
 621:core/lpc17xx_uart.c **** 	{
 622:core/lpc17xx_uart.c **** 		((LPC_UART1_TypeDef *)UARTx)->/*RBTHDLR.*/THR = Data & UART_THR_MASKBIT;
 1681              		.loc 1 622 0
 1682 003e 7B68     		ldr	r3, [r7, #4]	@ tmp122, UARTx
 1683 0040 FA78     		ldrb	r2, [r7, #3]	@ tmp123, Data
 1684 0042 1A70     		strb	r2, [r3]	@ tmp123, MEM[(struct LPC_UART1_TypeDef *)UARTx_3(D)].D.4808.THR
 1685              	@ core/lpc17xx_uart.c:629: }
 623:core/lpc17xx_uart.c **** 	}
 624:core/lpc17xx_uart.c **** 	else
 625:core/lpc17xx_uart.c **** 	{
 626:core/lpc17xx_uart.c **** 		UARTx->/*RBTHDLR.*/THR = Data & UART_THR_MASKBIT;
 627:core/lpc17xx_uart.c **** 	}
 628:core/lpc17xx_uart.c **** 
 629:core/lpc17xx_uart.c **** }
 1686              		.loc 1 629 0
ARM GAS  /tmp/ccf79Nqw.s 			page 42


 1687 0044 02E0     		b	.L106	@
 1688              	.L104:
 1689              	@ core/lpc17xx_uart.c:626: 		UARTx->/*RBTHDLR.*/THR = Data & UART_THR_MASKBIT;
 626:core/lpc17xx_uart.c **** 	}
 1690              		.loc 1 626 0
 1691 0046 7B68     		ldr	r3, [r7, #4]	@ tmp124, UARTx
 1692 0048 FA78     		ldrb	r2, [r7, #3]	@ tmp125, Data
 1693 004a 1A70     		strb	r2, [r3]	@ tmp125, UARTx_3(D)->D.4748.THR
 1694              	.L106:
 1695              	@ core/lpc17xx_uart.c:629: }
 1696              		.loc 1 629 0
 1697 004c 00BF     		nop
 1698 004e 0837     		adds	r7, r7, #8	@,,
 1699              		.cfi_def_cfa_offset 8
 1700 0050 BD46     		mov	sp, r7	@,
 1701              		.cfi_def_cfa_register 13
 1702              		@ sp needed	@
 1703 0052 80BD     		pop	{r7, pc}	@
 1704              	.L108:
 1705              		.align	2
 1706              	.L107:
 1707 0054 00C00040 		.word	1073790976
 1708 0058 00000140 		.word	1073807360
 1709 005c 00800940 		.word	1074364416
 1710 0060 00C00940 		.word	1074380800
 1711 0064 00000000 		.word	.LC0
 1712              		.cfi_endproc
 1713              	.LFE61:
 1714              		.size	UART_SendData, .-UART_SendData
 1715              		.section	.text.UART_ReceiveData,"ax",%progbits
 1716              		.align	1
 1717              		.global	UART_ReceiveData
 1718              		.syntax unified
 1719              		.thumb
 1720              		.thumb_func
 1721              		.fpu softvfp
 1722              		.type	UART_ReceiveData, %function
 1723              	UART_ReceiveData:
 1724              	.LFB62:
 630:core/lpc17xx_uart.c **** 
 631:core/lpc17xx_uart.c **** 
 632:core/lpc17xx_uart.c **** /*********************************************************************//**
 633:core/lpc17xx_uart.c ****  * @brief		Receive a single data from UART peripheral
 634:core/lpc17xx_uart.c ****  * @param[in]	UARTx	UART peripheral selected, should be UART0, UART1,
 635:core/lpc17xx_uart.c ****  * 						UART2 or UART3.
 636:core/lpc17xx_uart.c ****  * @return 		Data received
 637:core/lpc17xx_uart.c ****  **********************************************************************/
 638:core/lpc17xx_uart.c **** uint8_t UART_ReceiveData(LPC_UART_TypeDef* UARTx)
 639:core/lpc17xx_uart.c **** {
 1725              		.loc 1 639 0
 1726              		.cfi_startproc
 1727              		@ args = 0, pretend = 0, frame = 8
 1728              		@ frame_needed = 1, uses_anonymous_args = 0
 1729 0000 80B5     		push	{r7, lr}	@
 1730              		.cfi_def_cfa_offset 8
 1731              		.cfi_offset 7, -8
 1732              		.cfi_offset 14, -4
ARM GAS  /tmp/ccf79Nqw.s 			page 43


 1733 0002 82B0     		sub	sp, sp, #8	@,,
 1734              		.cfi_def_cfa_offset 16
 1735 0004 00AF     		add	r7, sp, #0	@,,
 1736              		.cfi_def_cfa_register 7
 1737 0006 7860     		str	r0, [r7, #4]	@ UARTx, UARTx
 1738              	@ core/lpc17xx_uart.c:640: 	CHECK_PARAM(PARAM_UARTx(UARTx));
 640:core/lpc17xx_uart.c **** 	CHECK_PARAM(PARAM_UARTx(UARTx));
 1739              		.loc 1 640 0
 1740 0008 7B68     		ldr	r3, [r7, #4]	@ tmp112, UARTx
 1741 000a 114A     		ldr	r2, .L113	@ tmp113,
 1742 000c 9342     		cmp	r3, r2	@ tmp112, tmp113
 1743 000e 10D0     		beq	.L110	@,
 1744              	@ core/lpc17xx_uart.c:640: 	CHECK_PARAM(PARAM_UARTx(UARTx));
 1745              		.loc 1 640 0 is_stmt 0 discriminator 1
 1746 0010 7B68     		ldr	r3, [r7, #4]	@ tmp114, UARTx
 1747 0012 104A     		ldr	r2, .L113+4	@ tmp115,
 1748 0014 9342     		cmp	r3, r2	@ tmp114, tmp115
 1749 0016 0CD0     		beq	.L110	@,
 1750              	@ core/lpc17xx_uart.c:640: 	CHECK_PARAM(PARAM_UARTx(UARTx));
 1751              		.loc 1 640 0 discriminator 2
 1752 0018 7B68     		ldr	r3, [r7, #4]	@ tmp116, UARTx
 1753 001a 0F4A     		ldr	r2, .L113+8	@ tmp117,
 1754 001c 9342     		cmp	r3, r2	@ tmp116, tmp117
 1755 001e 08D0     		beq	.L110	@,
 1756              	@ core/lpc17xx_uart.c:640: 	CHECK_PARAM(PARAM_UARTx(UARTx));
 1757              		.loc 1 640 0 discriminator 3
 1758 0020 7B68     		ldr	r3, [r7, #4]	@ tmp118, UARTx
 1759 0022 0E4A     		ldr	r2, .L113+12	@ tmp119,
 1760 0024 9342     		cmp	r3, r2	@ tmp118, tmp119
 1761 0026 04D0     		beq	.L110	@,
 1762              	@ core/lpc17xx_uart.c:640: 	CHECK_PARAM(PARAM_UARTx(UARTx));
 1763              		.loc 1 640 0 discriminator 4
 1764 0028 4FF42071 		mov	r1, #640	@,
 1765 002c 0C48     		ldr	r0, .L113+16	@,
 1766 002e FFF7FEFF 		bl	check_failed	@
 1767              	.L110:
 1768              	@ core/lpc17xx_uart.c:642: 	if (((LPC_UART1_TypeDef *)UARTx) == LPC_UART1)
 641:core/lpc17xx_uart.c **** 
 642:core/lpc17xx_uart.c **** 	if (((LPC_UART1_TypeDef *)UARTx) == LPC_UART1)
 1769              		.loc 1 642 0 is_stmt 1
 1770 0032 7B68     		ldr	r3, [r7, #4]	@ tmp120, UARTx
 1771 0034 074A     		ldr	r2, .L113+4	@ tmp121,
 1772 0036 9342     		cmp	r3, r2	@ tmp120, tmp121
 1773 0038 03D1     		bne	.L111	@,
 1774              	@ core/lpc17xx_uart.c:644: 		return (((LPC_UART1_TypeDef *)UARTx)->/*RBTHDLR.*/RBR & UART_RBR_MASKB
 643:core/lpc17xx_uart.c **** 	{
 644:core/lpc17xx_uart.c **** 		return (((LPC_UART1_TypeDef *)UARTx)->/*RBTHDLR.*/RBR & UART_RBR_MASKBIT);
 1775              		.loc 1 644 0
 1776 003a 7B68     		ldr	r3, [r7, #4]	@ tmp122, UARTx
 1777 003c 1B78     		ldrb	r3, [r3]	@ tmp123, MEM[(struct LPC_UART1_TypeDef *)UARTx_3(D)].D.4808.RBR
 1778 003e DBB2     		uxtb	r3, r3	@ _1, tmp123
 1779 0040 02E0     		b	.L112	@
 1780              	.L111:
 1781              	@ core/lpc17xx_uart.c:648: 		return (UARTx->/*RBTHDLR.*/RBR & UART_RBR_MASKBIT);
 645:core/lpc17xx_uart.c **** 	}
 646:core/lpc17xx_uart.c **** 	else
 647:core/lpc17xx_uart.c **** 	{
ARM GAS  /tmp/ccf79Nqw.s 			page 44


 648:core/lpc17xx_uart.c **** 		return (UARTx->/*RBTHDLR.*/RBR & UART_RBR_MASKBIT);
 1782              		.loc 1 648 0
 1783 0042 7B68     		ldr	r3, [r7, #4]	@ tmp124, UARTx
 1784 0044 1B78     		ldrb	r3, [r3]	@ tmp125, UARTx_3(D)->D.4748.RBR
 1785 0046 DBB2     		uxtb	r3, r3	@ _1, tmp125
 1786              	.L112:
 1787              	@ core/lpc17xx_uart.c:650: }
 649:core/lpc17xx_uart.c **** 	}
 650:core/lpc17xx_uart.c **** }
 1788              		.loc 1 650 0
 1789 0048 1846     		mov	r0, r3	@, <retval>
 1790 004a 0837     		adds	r7, r7, #8	@,,
 1791              		.cfi_def_cfa_offset 8
 1792 004c BD46     		mov	sp, r7	@,
 1793              		.cfi_def_cfa_register 13
 1794              		@ sp needed	@
 1795 004e 80BD     		pop	{r7, pc}	@
 1796              	.L114:
 1797              		.align	2
 1798              	.L113:
 1799 0050 00C00040 		.word	1073790976
 1800 0054 00000140 		.word	1073807360
 1801 0058 00800940 		.word	1074364416
 1802 005c 00C00940 		.word	1074380800
 1803 0060 00000000 		.word	.LC0
 1804              		.cfi_endproc
 1805              	.LFE62:
 1806              		.size	UART_ReceiveData, .-UART_ReceiveData
 1807              		.section	.text.UART_ForceBreak,"ax",%progbits
 1808              		.align	1
 1809              		.global	UART_ForceBreak
 1810              		.syntax unified
 1811              		.thumb
 1812              		.thumb_func
 1813              		.fpu softvfp
 1814              		.type	UART_ForceBreak, %function
 1815              	UART_ForceBreak:
 1816              	.LFB63:
 651:core/lpc17xx_uart.c **** 
 652:core/lpc17xx_uart.c **** 
 653:core/lpc17xx_uart.c **** /*********************************************************************//**
 654:core/lpc17xx_uart.c ****  * @brief		Force BREAK character on UART line, output pin UARTx TXD is
 655:core/lpc17xx_uart.c **** 				forced to logic 0.
 656:core/lpc17xx_uart.c ****  * @param[in]	UARTx	UART peripheral selected, should be UART0, UART1,
 657:core/lpc17xx_uart.c ****  * 						UART2 or UART3.
 658:core/lpc17xx_uart.c ****  * @return none
 659:core/lpc17xx_uart.c ****  **********************************************************************/
 660:core/lpc17xx_uart.c **** void UART_ForceBreak(LPC_UART_TypeDef* UARTx)
 661:core/lpc17xx_uart.c **** {
 1817              		.loc 1 661 0
 1818              		.cfi_startproc
 1819              		@ args = 0, pretend = 0, frame = 8
 1820              		@ frame_needed = 1, uses_anonymous_args = 0
 1821 0000 80B5     		push	{r7, lr}	@
 1822              		.cfi_def_cfa_offset 8
 1823              		.cfi_offset 7, -8
 1824              		.cfi_offset 14, -4
ARM GAS  /tmp/ccf79Nqw.s 			page 45


 1825 0002 82B0     		sub	sp, sp, #8	@,,
 1826              		.cfi_def_cfa_offset 16
 1827 0004 00AF     		add	r7, sp, #0	@,,
 1828              		.cfi_def_cfa_register 7
 1829 0006 7860     		str	r0, [r7, #4]	@ UARTx, UARTx
 1830              	@ core/lpc17xx_uart.c:662: 	CHECK_PARAM(PARAM_UARTx(UARTx));
 662:core/lpc17xx_uart.c **** 	CHECK_PARAM(PARAM_UARTx(UARTx));
 1831              		.loc 1 662 0
 1832 0008 7B68     		ldr	r3, [r7, #4]	@ tmp114, UARTx
 1833 000a 164A     		ldr	r2, .L120	@ tmp115,
 1834 000c 9342     		cmp	r3, r2	@ tmp114, tmp115
 1835 000e 10D0     		beq	.L116	@,
 1836              	@ core/lpc17xx_uart.c:662: 	CHECK_PARAM(PARAM_UARTx(UARTx));
 1837              		.loc 1 662 0 is_stmt 0 discriminator 1
 1838 0010 7B68     		ldr	r3, [r7, #4]	@ tmp116, UARTx
 1839 0012 154A     		ldr	r2, .L120+4	@ tmp117,
 1840 0014 9342     		cmp	r3, r2	@ tmp116, tmp117
 1841 0016 0CD0     		beq	.L116	@,
 1842              	@ core/lpc17xx_uart.c:662: 	CHECK_PARAM(PARAM_UARTx(UARTx));
 1843              		.loc 1 662 0 discriminator 2
 1844 0018 7B68     		ldr	r3, [r7, #4]	@ tmp118, UARTx
 1845 001a 144A     		ldr	r2, .L120+8	@ tmp119,
 1846 001c 9342     		cmp	r3, r2	@ tmp118, tmp119
 1847 001e 08D0     		beq	.L116	@,
 1848              	@ core/lpc17xx_uart.c:662: 	CHECK_PARAM(PARAM_UARTx(UARTx));
 1849              		.loc 1 662 0 discriminator 3
 1850 0020 7B68     		ldr	r3, [r7, #4]	@ tmp120, UARTx
 1851 0022 134A     		ldr	r2, .L120+12	@ tmp121,
 1852 0024 9342     		cmp	r3, r2	@ tmp120, tmp121
 1853 0026 04D0     		beq	.L116	@,
 1854              	@ core/lpc17xx_uart.c:662: 	CHECK_PARAM(PARAM_UARTx(UARTx));
 1855              		.loc 1 662 0 discriminator 4
 1856 0028 40F29621 		movw	r1, #662	@,
 1857 002c 1148     		ldr	r0, .L120+16	@,
 1858 002e FFF7FEFF 		bl	check_failed	@
 1859              	.L116:
 1860              	@ core/lpc17xx_uart.c:664: 	if (((LPC_UART1_TypeDef *)UARTx) == LPC_UART1)
 663:core/lpc17xx_uart.c **** 
 664:core/lpc17xx_uart.c **** 	if (((LPC_UART1_TypeDef *)UARTx) == LPC_UART1)
 1861              		.loc 1 664 0 is_stmt 1
 1862 0032 7B68     		ldr	r3, [r7, #4]	@ tmp122, UARTx
 1863 0034 0C4A     		ldr	r2, .L120+4	@ tmp123,
 1864 0036 9342     		cmp	r3, r2	@ tmp122, tmp123
 1865 0038 08D1     		bne	.L117	@,
 1866              	@ core/lpc17xx_uart.c:666: 		((LPC_UART1_TypeDef *)UARTx)->LCR |= UART_LCR_BREAK_EN;
 665:core/lpc17xx_uart.c **** 	{
 666:core/lpc17xx_uart.c **** 		((LPC_UART1_TypeDef *)UARTx)->LCR |= UART_LCR_BREAK_EN;
 1867              		.loc 1 666 0
 1868 003a 7B68     		ldr	r3, [r7, #4]	@ tmp124, UARTx
 1869 003c 1B7B     		ldrb	r3, [r3, #12]	@ tmp126, MEM[(struct LPC_UART1_TypeDef *)UARTx_7(D)].LCR
 1870 003e DBB2     		uxtb	r3, r3	@ _1, tmp126
 1871 0040 43F04003 		orr	r3, r3, #64	@ tmp127, _1,
 1872 0044 DAB2     		uxtb	r2, r3	@ _2, tmp127
 1873 0046 7B68     		ldr	r3, [r7, #4]	@ tmp128, UARTx
 1874 0048 1A73     		strb	r2, [r3, #12]	@ tmp129, MEM[(struct LPC_UART1_TypeDef *)UARTx_7(D)].LCR
 1875              	@ core/lpc17xx_uart.c:672: }
 667:core/lpc17xx_uart.c **** 	}
ARM GAS  /tmp/ccf79Nqw.s 			page 46


 668:core/lpc17xx_uart.c **** 	else
 669:core/lpc17xx_uart.c **** 	{
 670:core/lpc17xx_uart.c **** 		UARTx->LCR |= UART_LCR_BREAK_EN;
 671:core/lpc17xx_uart.c **** 	}
 672:core/lpc17xx_uart.c **** }
 1876              		.loc 1 672 0
 1877 004a 07E0     		b	.L119	@
 1878              	.L117:
 1879              	@ core/lpc17xx_uart.c:670: 		UARTx->LCR |= UART_LCR_BREAK_EN;
 670:core/lpc17xx_uart.c **** 	}
 1880              		.loc 1 670 0
 1881 004c 7B68     		ldr	r3, [r7, #4]	@ tmp130, UARTx
 1882 004e 1B7B     		ldrb	r3, [r3, #12]	@ tmp132, UARTx_7(D)->LCR
 1883 0050 DBB2     		uxtb	r3, r3	@ _3, tmp132
 1884 0052 43F04003 		orr	r3, r3, #64	@ tmp133, _3,
 1885 0056 DAB2     		uxtb	r2, r3	@ _4, tmp133
 1886 0058 7B68     		ldr	r3, [r7, #4]	@ tmp134, UARTx
 1887 005a 1A73     		strb	r2, [r3, #12]	@ tmp135, UARTx_7(D)->LCR
 1888              	.L119:
 1889              	@ core/lpc17xx_uart.c:672: }
 1890              		.loc 1 672 0
 1891 005c 00BF     		nop
 1892 005e 0837     		adds	r7, r7, #8	@,,
 1893              		.cfi_def_cfa_offset 8
 1894 0060 BD46     		mov	sp, r7	@,
 1895              		.cfi_def_cfa_register 13
 1896              		@ sp needed	@
 1897 0062 80BD     		pop	{r7, pc}	@
 1898              	.L121:
 1899              		.align	2
 1900              	.L120:
 1901 0064 00C00040 		.word	1073790976
 1902 0068 00000140 		.word	1073807360
 1903 006c 00800940 		.word	1074364416
 1904 0070 00C00940 		.word	1074380800
 1905 0074 00000000 		.word	.LC0
 1906              		.cfi_endproc
 1907              	.LFE63:
 1908              		.size	UART_ForceBreak, .-UART_ForceBreak
 1909              		.section	.text.UART_IrDAInvtInputCmd,"ax",%progbits
 1910              		.align	1
 1911              		.global	UART_IrDAInvtInputCmd
 1912              		.syntax unified
 1913              		.thumb
 1914              		.thumb_func
 1915              		.fpu softvfp
 1916              		.type	UART_IrDAInvtInputCmd, %function
 1917              	UART_IrDAInvtInputCmd:
 1918              	.LFB64:
 673:core/lpc17xx_uart.c **** 
 674:core/lpc17xx_uart.c **** 
 675:core/lpc17xx_uart.c **** #ifdef _UART3
 676:core/lpc17xx_uart.c **** 
 677:core/lpc17xx_uart.c **** /*********************************************************************//**
 678:core/lpc17xx_uart.c ****  * @brief		Enable or disable inverting serial input function of IrDA
 679:core/lpc17xx_uart.c ****  * 				on UART peripheral.
 680:core/lpc17xx_uart.c ****  * @param[in]	UARTx UART peripheral selected, should be UART3 (only)
ARM GAS  /tmp/ccf79Nqw.s 			page 47


 681:core/lpc17xx_uart.c ****  * @param[in]	NewState New state of inverting serial input, should be:
 682:core/lpc17xx_uart.c ****  * 				- ENABLE: Enable this function.
 683:core/lpc17xx_uart.c ****  * 				- DISABLE: Disable this function.
 684:core/lpc17xx_uart.c ****  * @return none
 685:core/lpc17xx_uart.c ****  **********************************************************************/
 686:core/lpc17xx_uart.c **** void UART_IrDAInvtInputCmd(LPC_UART_TypeDef* UARTx, FunctionalState NewState)
 687:core/lpc17xx_uart.c **** {
 1919              		.loc 1 687 0
 1920              		.cfi_startproc
 1921              		@ args = 0, pretend = 0, frame = 8
 1922              		@ frame_needed = 1, uses_anonymous_args = 0
 1923 0000 80B5     		push	{r7, lr}	@
 1924              		.cfi_def_cfa_offset 8
 1925              		.cfi_offset 7, -8
 1926              		.cfi_offset 14, -4
 1927 0002 82B0     		sub	sp, sp, #8	@,,
 1928              		.cfi_def_cfa_offset 16
 1929 0004 00AF     		add	r7, sp, #0	@,,
 1930              		.cfi_def_cfa_register 7
 1931 0006 7860     		str	r0, [r7, #4]	@ UARTx, UARTx
 1932 0008 0B46     		mov	r3, r1	@ tmp114, NewState
 1933 000a FB70     		strb	r3, [r7, #3]	@ tmp115, NewState
 1934              	@ core/lpc17xx_uart.c:688: 	CHECK_PARAM(PARAM_UART_IrDA(UARTx));
 688:core/lpc17xx_uart.c **** 	CHECK_PARAM(PARAM_UART_IrDA(UARTx));
 1935              		.loc 1 688 0
 1936 000c 7B68     		ldr	r3, [r7, #4]	@ tmp116, UARTx
 1937 000e 194A     		ldr	r2, .L128	@ tmp117,
 1938 0010 9342     		cmp	r3, r2	@ tmp116, tmp117
 1939 0012 04D0     		beq	.L123	@,
 1940              	@ core/lpc17xx_uart.c:688: 	CHECK_PARAM(PARAM_UART_IrDA(UARTx));
 1941              		.loc 1 688 0 is_stmt 0 discriminator 1
 1942 0014 4FF42C71 		mov	r1, #688	@,
 1943 0018 1748     		ldr	r0, .L128+4	@,
 1944 001a FFF7FEFF 		bl	check_failed	@
 1945              	.L123:
 1946              	@ core/lpc17xx_uart.c:689: 	CHECK_PARAM(PARAM_FUNCTIONALSTATE(NewState));
 689:core/lpc17xx_uart.c **** 	CHECK_PARAM(PARAM_FUNCTIONALSTATE(NewState));
 1947              		.loc 1 689 0 is_stmt 1
 1948 001e FB78     		ldrb	r3, [r7, #3]	@ zero_extendqisi2	@ tmp118, NewState
 1949 0020 002B     		cmp	r3, #0	@ tmp118,
 1950 0022 07D0     		beq	.L124	@,
 1951              	@ core/lpc17xx_uart.c:689: 	CHECK_PARAM(PARAM_FUNCTIONALSTATE(NewState));
 1952              		.loc 1 689 0 is_stmt 0 discriminator 1
 1953 0024 FB78     		ldrb	r3, [r7, #3]	@ zero_extendqisi2	@ tmp119, NewState
 1954 0026 012B     		cmp	r3, #1	@ tmp119,
 1955 0028 04D0     		beq	.L124	@,
 1956              	@ core/lpc17xx_uart.c:689: 	CHECK_PARAM(PARAM_FUNCTIONALSTATE(NewState));
 1957              		.loc 1 689 0 discriminator 2
 1958 002a 40F2B121 		movw	r1, #689	@,
 1959 002e 1248     		ldr	r0, .L128+4	@,
 1960 0030 FFF7FEFF 		bl	check_failed	@
 1961              	.L124:
 1962              	@ core/lpc17xx_uart.c:691: 	if (NewState == ENABLE)
 690:core/lpc17xx_uart.c **** 
 691:core/lpc17xx_uart.c **** 	if (NewState == ENABLE)
 1963              		.loc 1 691 0 is_stmt 1
 1964 0034 FB78     		ldrb	r3, [r7, #3]	@ zero_extendqisi2	@ tmp120, NewState
ARM GAS  /tmp/ccf79Nqw.s 			page 48


 1965 0036 012B     		cmp	r3, #1	@ tmp120,
 1966 0038 0AD1     		bne	.L125	@,
 1967              	@ core/lpc17xx_uart.c:693: 		UARTx->ICR |= UART_ICR_IRDAINV;
 692:core/lpc17xx_uart.c **** 	{
 693:core/lpc17xx_uart.c **** 		UARTx->ICR |= UART_ICR_IRDAINV;
 1968              		.loc 1 693 0
 1969 003a 7B68     		ldr	r3, [r7, #4]	@ tmp121, UARTx
 1970 003c 93F82430 		ldrb	r3, [r3, #36]	@ tmp123, UARTx_8(D)->ICR
 1971 0040 DBB2     		uxtb	r3, r3	@ _1, tmp123
 1972 0042 43F00203 		orr	r3, r3, #2	@ tmp124, _1,
 1973 0046 DAB2     		uxtb	r2, r3	@ _2, tmp124
 1974 0048 7B68     		ldr	r3, [r7, #4]	@ tmp125, UARTx
 1975 004a 83F82420 		strb	r2, [r3, #36]	@ tmp126, UARTx_8(D)->ICR
 1976              	@ core/lpc17xx_uart.c:699: }
 694:core/lpc17xx_uart.c **** 	}
 695:core/lpc17xx_uart.c **** 	else if (NewState == DISABLE)
 696:core/lpc17xx_uart.c **** 	{
 697:core/lpc17xx_uart.c **** 		UARTx->ICR &= (~UART_ICR_IRDAINV) & UART_ICR_BITMASK;
 698:core/lpc17xx_uart.c **** 	}
 699:core/lpc17xx_uart.c **** }
 1977              		.loc 1 699 0
 1978 004e 0CE0     		b	.L127	@
 1979              	.L125:
 1980              	@ core/lpc17xx_uart.c:695: 	else if (NewState == DISABLE)
 695:core/lpc17xx_uart.c **** 	{
 1981              		.loc 1 695 0
 1982 0050 FB78     		ldrb	r3, [r7, #3]	@ zero_extendqisi2	@ tmp127, NewState
 1983 0052 002B     		cmp	r3, #0	@ tmp127,
 1984 0054 09D1     		bne	.L127	@,
 1985              	@ core/lpc17xx_uart.c:697: 		UARTx->ICR &= (~UART_ICR_IRDAINV) & UART_ICR_BITMASK;
 697:core/lpc17xx_uart.c **** 	}
 1986              		.loc 1 697 0
 1987 0056 7B68     		ldr	r3, [r7, #4]	@ tmp128, UARTx
 1988 0058 93F82430 		ldrb	r3, [r3, #36]	@ tmp130, UARTx_8(D)->ICR
 1989 005c DBB2     		uxtb	r3, r3	@ _3, tmp130
 1990 005e 03F03D03 		and	r3, r3, #61	@ tmp131, _3,
 1991 0062 DAB2     		uxtb	r2, r3	@ _4, tmp131
 1992 0064 7B68     		ldr	r3, [r7, #4]	@ tmp132, UARTx
 1993 0066 83F82420 		strb	r2, [r3, #36]	@ tmp133, UARTx_8(D)->ICR
 1994              	.L127:
 1995              	@ core/lpc17xx_uart.c:699: }
 1996              		.loc 1 699 0
 1997 006a 00BF     		nop
 1998 006c 0837     		adds	r7, r7, #8	@,,
 1999              		.cfi_def_cfa_offset 8
 2000 006e BD46     		mov	sp, r7	@,
 2001              		.cfi_def_cfa_register 13
 2002              		@ sp needed	@
 2003 0070 80BD     		pop	{r7, pc}	@
 2004              	.L129:
 2005 0072 00BF     		.align	2
 2006              	.L128:
 2007 0074 00C00940 		.word	1074380800
 2008 0078 00000000 		.word	.LC0
 2009              		.cfi_endproc
 2010              	.LFE64:
 2011              		.size	UART_IrDAInvtInputCmd, .-UART_IrDAInvtInputCmd
ARM GAS  /tmp/ccf79Nqw.s 			page 49


 2012              		.section	.text.UART_IrDACmd,"ax",%progbits
 2013              		.align	1
 2014              		.global	UART_IrDACmd
 2015              		.syntax unified
 2016              		.thumb
 2017              		.thumb_func
 2018              		.fpu softvfp
 2019              		.type	UART_IrDACmd, %function
 2020              	UART_IrDACmd:
 2021              	.LFB65:
 700:core/lpc17xx_uart.c **** 
 701:core/lpc17xx_uart.c **** 
 702:core/lpc17xx_uart.c **** /*********************************************************************//**
 703:core/lpc17xx_uart.c ****  * @brief		Enable or disable IrDA function on UART peripheral.
 704:core/lpc17xx_uart.c ****  * @param[in]	UARTx UART peripheral selected, should be UART3 (only)
 705:core/lpc17xx_uart.c ****  * @param[in]	NewState New state of IrDA function, should be:
 706:core/lpc17xx_uart.c ****  * 				- ENABLE: Enable this function.
 707:core/lpc17xx_uart.c ****  * 				- DISABLE: Disable this function.
 708:core/lpc17xx_uart.c ****  * @return none
 709:core/lpc17xx_uart.c ****  **********************************************************************/
 710:core/lpc17xx_uart.c **** void UART_IrDACmd(LPC_UART_TypeDef* UARTx, FunctionalState NewState)
 711:core/lpc17xx_uart.c **** {
 2022              		.loc 1 711 0
 2023              		.cfi_startproc
 2024              		@ args = 0, pretend = 0, frame = 8
 2025              		@ frame_needed = 1, uses_anonymous_args = 0
 2026 0000 80B5     		push	{r7, lr}	@
 2027              		.cfi_def_cfa_offset 8
 2028              		.cfi_offset 7, -8
 2029              		.cfi_offset 14, -4
 2030 0002 82B0     		sub	sp, sp, #8	@,,
 2031              		.cfi_def_cfa_offset 16
 2032 0004 00AF     		add	r7, sp, #0	@,,
 2033              		.cfi_def_cfa_register 7
 2034 0006 7860     		str	r0, [r7, #4]	@ UARTx, UARTx
 2035 0008 0B46     		mov	r3, r1	@ tmp114, NewState
 2036 000a FB70     		strb	r3, [r7, #3]	@ tmp115, NewState
 2037              	@ core/lpc17xx_uart.c:712: 	CHECK_PARAM(PARAM_UART_IrDA(UARTx));
 712:core/lpc17xx_uart.c **** 	CHECK_PARAM(PARAM_UART_IrDA(UARTx));
 2038              		.loc 1 712 0
 2039 000c 7B68     		ldr	r3, [r7, #4]	@ tmp116, UARTx
 2040 000e 174A     		ldr	r2, .L136	@ tmp117,
 2041 0010 9342     		cmp	r3, r2	@ tmp116, tmp117
 2042 0012 04D0     		beq	.L131	@,
 2043              	@ core/lpc17xx_uart.c:712: 	CHECK_PARAM(PARAM_UART_IrDA(UARTx));
 2044              		.loc 1 712 0 is_stmt 0 discriminator 1
 2045 0014 4FF43271 		mov	r1, #712	@,
 2046 0018 1548     		ldr	r0, .L136+4	@,
 2047 001a FFF7FEFF 		bl	check_failed	@
 2048              	.L131:
 2049              	@ core/lpc17xx_uart.c:713: 	CHECK_PARAM(PARAM_FUNCTIONALSTATE(NewState));
 713:core/lpc17xx_uart.c **** 	CHECK_PARAM(PARAM_FUNCTIONALSTATE(NewState));
 2050              		.loc 1 713 0 is_stmt 1
 2051 001e FB78     		ldrb	r3, [r7, #3]	@ zero_extendqisi2	@ tmp118, NewState
 2052 0020 002B     		cmp	r3, #0	@ tmp118,
 2053 0022 07D0     		beq	.L132	@,
 2054              	@ core/lpc17xx_uart.c:713: 	CHECK_PARAM(PARAM_FUNCTIONALSTATE(NewState));
ARM GAS  /tmp/ccf79Nqw.s 			page 50


 2055              		.loc 1 713 0 is_stmt 0 discriminator 1
 2056 0024 FB78     		ldrb	r3, [r7, #3]	@ zero_extendqisi2	@ tmp119, NewState
 2057 0026 012B     		cmp	r3, #1	@ tmp119,
 2058 0028 04D0     		beq	.L132	@,
 2059              	@ core/lpc17xx_uart.c:713: 	CHECK_PARAM(PARAM_FUNCTIONALSTATE(NewState));
 2060              		.loc 1 713 0 discriminator 2
 2061 002a 40F2C921 		movw	r1, #713	@,
 2062 002e 1048     		ldr	r0, .L136+4	@,
 2063 0030 FFF7FEFF 		bl	check_failed	@
 2064              	.L132:
 2065              	@ core/lpc17xx_uart.c:715: 	if (NewState == ENABLE)
 714:core/lpc17xx_uart.c **** 
 715:core/lpc17xx_uart.c **** 	if (NewState == ENABLE)
 2066              		.loc 1 715 0 is_stmt 1
 2067 0034 FB78     		ldrb	r3, [r7, #3]	@ zero_extendqisi2	@ tmp120, NewState
 2068 0036 012B     		cmp	r3, #1	@ tmp120,
 2069 0038 0AD1     		bne	.L133	@,
 2070              	@ core/lpc17xx_uart.c:717: 		UARTx->ICR |= UART_ICR_IRDAEN;
 716:core/lpc17xx_uart.c **** 	{
 717:core/lpc17xx_uart.c **** 		UARTx->ICR |= UART_ICR_IRDAEN;
 2071              		.loc 1 717 0
 2072 003a 7B68     		ldr	r3, [r7, #4]	@ tmp121, UARTx
 2073 003c 93F82430 		ldrb	r3, [r3, #36]	@ tmp123, UARTx_8(D)->ICR
 2074 0040 DBB2     		uxtb	r3, r3	@ _1, tmp123
 2075 0042 43F00103 		orr	r3, r3, #1	@ tmp124, _1,
 2076 0046 DAB2     		uxtb	r2, r3	@ _2, tmp124
 2077 0048 7B68     		ldr	r3, [r7, #4]	@ tmp125, UARTx
 2078 004a 83F82420 		strb	r2, [r3, #36]	@ tmp126, UARTx_8(D)->ICR
 2079              	@ core/lpc17xx_uart.c:723: }
 718:core/lpc17xx_uart.c **** 	}
 719:core/lpc17xx_uart.c **** 	else
 720:core/lpc17xx_uart.c **** 	{
 721:core/lpc17xx_uart.c **** 		UARTx->ICR &= (~UART_ICR_IRDAEN) & UART_ICR_BITMASK;
 722:core/lpc17xx_uart.c **** 	}
 723:core/lpc17xx_uart.c **** }
 2080              		.loc 1 723 0
 2081 004e 09E0     		b	.L135	@
 2082              	.L133:
 2083              	@ core/lpc17xx_uart.c:721: 		UARTx->ICR &= (~UART_ICR_IRDAEN) & UART_ICR_BITMASK;
 721:core/lpc17xx_uart.c **** 	}
 2084              		.loc 1 721 0
 2085 0050 7B68     		ldr	r3, [r7, #4]	@ tmp127, UARTx
 2086 0052 93F82430 		ldrb	r3, [r3, #36]	@ tmp129, UARTx_8(D)->ICR
 2087 0056 DBB2     		uxtb	r3, r3	@ _3, tmp129
 2088 0058 03F03E03 		and	r3, r3, #62	@ tmp130, _3,
 2089 005c DAB2     		uxtb	r2, r3	@ _4, tmp130
 2090 005e 7B68     		ldr	r3, [r7, #4]	@ tmp131, UARTx
 2091 0060 83F82420 		strb	r2, [r3, #36]	@ tmp132, UARTx_8(D)->ICR
 2092              	.L135:
 2093              	@ core/lpc17xx_uart.c:723: }
 2094              		.loc 1 723 0
 2095 0064 00BF     		nop
 2096 0066 0837     		adds	r7, r7, #8	@,,
 2097              		.cfi_def_cfa_offset 8
 2098 0068 BD46     		mov	sp, r7	@,
 2099              		.cfi_def_cfa_register 13
 2100              		@ sp needed	@
ARM GAS  /tmp/ccf79Nqw.s 			page 51


 2101 006a 80BD     		pop	{r7, pc}	@
 2102              	.L137:
 2103              		.align	2
 2104              	.L136:
 2105 006c 00C00940 		.word	1074380800
 2106 0070 00000000 		.word	.LC0
 2107              		.cfi_endproc
 2108              	.LFE65:
 2109              		.size	UART_IrDACmd, .-UART_IrDACmd
 2110              		.section	.text.UART_IrDAPulseDivConfig,"ax",%progbits
 2111              		.align	1
 2112              		.global	UART_IrDAPulseDivConfig
 2113              		.syntax unified
 2114              		.thumb
 2115              		.thumb_func
 2116              		.fpu softvfp
 2117              		.type	UART_IrDAPulseDivConfig, %function
 2118              	UART_IrDAPulseDivConfig:
 2119              	.LFB66:
 724:core/lpc17xx_uart.c **** 
 725:core/lpc17xx_uart.c **** 
 726:core/lpc17xx_uart.c **** /*********************************************************************//**
 727:core/lpc17xx_uart.c ****  * @brief		Configure Pulse divider for IrDA function on UART peripheral.
 728:core/lpc17xx_uart.c ****  * @param[in]	UARTx UART peripheral selected, should be UART3 (only)
 729:core/lpc17xx_uart.c ****  * @param[in]	PulseDiv Pulse Divider value from Peripheral clock,
 730:core/lpc17xx_uart.c ****  * 				should be one of the following:
 731:core/lpc17xx_uart.c **** 				- UART_IrDA_PULSEDIV2 	: Pulse width = 2 * Tpclk
 732:core/lpc17xx_uart.c **** 				- UART_IrDA_PULSEDIV4 	: Pulse width = 4 * Tpclk
 733:core/lpc17xx_uart.c **** 				- UART_IrDA_PULSEDIV8 	: Pulse width = 8 * Tpclk
 734:core/lpc17xx_uart.c **** 				- UART_IrDA_PULSEDIV16 	: Pulse width = 16 * Tpclk
 735:core/lpc17xx_uart.c **** 				- UART_IrDA_PULSEDIV32 	: Pulse width = 32 * Tpclk
 736:core/lpc17xx_uart.c **** 				- UART_IrDA_PULSEDIV64 	: Pulse width = 64 * Tpclk
 737:core/lpc17xx_uart.c **** 				- UART_IrDA_PULSEDIV128 : Pulse width = 128 * Tpclk
 738:core/lpc17xx_uart.c **** 				- UART_IrDA_PULSEDIV256 : Pulse width = 256 * Tpclk
 739:core/lpc17xx_uart.c **** 
 740:core/lpc17xx_uart.c ****  * @return none
 741:core/lpc17xx_uart.c ****  **********************************************************************/
 742:core/lpc17xx_uart.c **** void UART_IrDAPulseDivConfig(LPC_UART_TypeDef *UARTx, UART_IrDA_PULSE_Type PulseDiv)
 743:core/lpc17xx_uart.c **** {
 2120              		.loc 1 743 0
 2121              		.cfi_startproc
 2122              		@ args = 0, pretend = 0, frame = 16
 2123              		@ frame_needed = 1, uses_anonymous_args = 0
 2124 0000 80B5     		push	{r7, lr}	@
 2125              		.cfi_def_cfa_offset 8
 2126              		.cfi_offset 7, -8
 2127              		.cfi_offset 14, -4
 2128 0002 84B0     		sub	sp, sp, #16	@,,
 2129              		.cfi_def_cfa_offset 24
 2130 0004 00AF     		add	r7, sp, #0	@,,
 2131              		.cfi_def_cfa_register 7
 2132 0006 7860     		str	r0, [r7, #4]	@ UARTx, UARTx
 2133 0008 0B46     		mov	r3, r1	@ tmp118, PulseDiv
 2134 000a FB70     		strb	r3, [r7, #3]	@ tmp119, PulseDiv
 2135              	@ core/lpc17xx_uart.c:745: 	CHECK_PARAM(PARAM_UART_IrDA(UARTx));
 744:core/lpc17xx_uart.c **** 	uint32_t tmp, tmp1;
 745:core/lpc17xx_uart.c **** 	CHECK_PARAM(PARAM_UART_IrDA(UARTx));
ARM GAS  /tmp/ccf79Nqw.s 			page 52


 2136              		.loc 1 745 0
 2137 000c 7B68     		ldr	r3, [r7, #4]	@ tmp120, UARTx
 2138 000e 214A     		ldr	r2, .L141	@ tmp121,
 2139 0010 9342     		cmp	r3, r2	@ tmp120, tmp121
 2140 0012 04D0     		beq	.L139	@,
 2141              	@ core/lpc17xx_uart.c:745: 	CHECK_PARAM(PARAM_UART_IrDA(UARTx));
 2142              		.loc 1 745 0 is_stmt 0 discriminator 1
 2143 0014 40F2E921 		movw	r1, #745	@,
 2144 0018 1F48     		ldr	r0, .L141+4	@,
 2145 001a FFF7FEFF 		bl	check_failed	@
 2146              	.L139:
 2147              	@ core/lpc17xx_uart.c:746: 	CHECK_PARAM(PARAM_UART_IrDA_PULSEDIV(PulseDiv));
 746:core/lpc17xx_uart.c **** 	CHECK_PARAM(PARAM_UART_IrDA_PULSEDIV(PulseDiv));
 2148              		.loc 1 746 0 is_stmt 1
 2149 001e FB78     		ldrb	r3, [r7, #3]	@ zero_extendqisi2	@ tmp122, PulseDiv
 2150 0020 002B     		cmp	r3, #0	@ tmp122,
 2151 0022 19D0     		beq	.L140	@,
 2152              	@ core/lpc17xx_uart.c:746: 	CHECK_PARAM(PARAM_UART_IrDA_PULSEDIV(PulseDiv));
 2153              		.loc 1 746 0 is_stmt 0 discriminator 1
 2154 0024 FB78     		ldrb	r3, [r7, #3]	@ zero_extendqisi2	@ tmp123, PulseDiv
 2155 0026 012B     		cmp	r3, #1	@ tmp123,
 2156 0028 16D0     		beq	.L140	@,
 2157              	@ core/lpc17xx_uart.c:746: 	CHECK_PARAM(PARAM_UART_IrDA_PULSEDIV(PulseDiv));
 2158              		.loc 1 746 0 discriminator 2
 2159 002a FB78     		ldrb	r3, [r7, #3]	@ zero_extendqisi2	@ tmp124, PulseDiv
 2160 002c 022B     		cmp	r3, #2	@ tmp124,
 2161 002e 13D0     		beq	.L140	@,
 2162              	@ core/lpc17xx_uart.c:746: 	CHECK_PARAM(PARAM_UART_IrDA_PULSEDIV(PulseDiv));
 2163              		.loc 1 746 0 discriminator 3
 2164 0030 FB78     		ldrb	r3, [r7, #3]	@ zero_extendqisi2	@ tmp125, PulseDiv
 2165 0032 032B     		cmp	r3, #3	@ tmp125,
 2166 0034 10D0     		beq	.L140	@,
 2167              	@ core/lpc17xx_uart.c:746: 	CHECK_PARAM(PARAM_UART_IrDA_PULSEDIV(PulseDiv));
 2168              		.loc 1 746 0 discriminator 4
 2169 0036 FB78     		ldrb	r3, [r7, #3]	@ zero_extendqisi2	@ tmp126, PulseDiv
 2170 0038 042B     		cmp	r3, #4	@ tmp126,
 2171 003a 0DD0     		beq	.L140	@,
 2172              	@ core/lpc17xx_uart.c:746: 	CHECK_PARAM(PARAM_UART_IrDA_PULSEDIV(PulseDiv));
 2173              		.loc 1 746 0 discriminator 5
 2174 003c FB78     		ldrb	r3, [r7, #3]	@ zero_extendqisi2	@ tmp127, PulseDiv
 2175 003e 052B     		cmp	r3, #5	@ tmp127,
 2176 0040 0AD0     		beq	.L140	@,
 2177              	@ core/lpc17xx_uart.c:746: 	CHECK_PARAM(PARAM_UART_IrDA_PULSEDIV(PulseDiv));
 2178              		.loc 1 746 0 discriminator 6
 2179 0042 FB78     		ldrb	r3, [r7, #3]	@ zero_extendqisi2	@ tmp128, PulseDiv
 2180 0044 062B     		cmp	r3, #6	@ tmp128,
 2181 0046 07D0     		beq	.L140	@,
 2182              	@ core/lpc17xx_uart.c:746: 	CHECK_PARAM(PARAM_UART_IrDA_PULSEDIV(PulseDiv));
 2183              		.loc 1 746 0 discriminator 7
 2184 0048 FB78     		ldrb	r3, [r7, #3]	@ zero_extendqisi2	@ tmp129, PulseDiv
 2185 004a 072B     		cmp	r3, #7	@ tmp129,
 2186 004c 04D0     		beq	.L140	@,
 2187              	@ core/lpc17xx_uart.c:746: 	CHECK_PARAM(PARAM_UART_IrDA_PULSEDIV(PulseDiv));
 2188              		.loc 1 746 0 discriminator 8
 2189 004e 40F2EA21 		movw	r1, #746	@,
 2190 0052 1148     		ldr	r0, .L141+4	@,
 2191 0054 FFF7FEFF 		bl	check_failed	@
ARM GAS  /tmp/ccf79Nqw.s 			page 53


 2192              	.L140:
 2193              	@ core/lpc17xx_uart.c:748: 	tmp1 = UART_ICR_PULSEDIV(PulseDiv);
 747:core/lpc17xx_uart.c **** 
 748:core/lpc17xx_uart.c **** 	tmp1 = UART_ICR_PULSEDIV(PulseDiv);
 2194              		.loc 1 748 0 is_stmt 1
 2195 0058 FB78     		ldrb	r3, [r7, #3]	@ zero_extendqisi2	@ _1, PulseDiv
 2196 005a DB00     		lsls	r3, r3, #3	@ _2, _1,
 2197 005c 03F03803 		and	r3, r3, #56	@ tmp130, _3,
 2198 0060 FB60     		str	r3, [r7, #12]	@ tmp130, tmp1
 2199              	@ core/lpc17xx_uart.c:749: 	tmp = UARTx->ICR & (~UART_ICR_PULSEDIV(7));
 749:core/lpc17xx_uart.c **** 	tmp = UARTx->ICR & (~UART_ICR_PULSEDIV(7));
 2200              		.loc 1 749 0
 2201 0062 7B68     		ldr	r3, [r7, #4]	@ tmp131, UARTx
 2202 0064 93F82430 		ldrb	r3, [r3, #36]	@ tmp133, UARTx_11(D)->ICR
 2203 0068 DBB2     		uxtb	r3, r3	@ _4, tmp133
 2204 006a 23F03803 		bic	r3, r3, #56	@ tmp134, _5,
 2205 006e BB60     		str	r3, [r7, #8]	@ tmp134, tmp
 2206              	@ core/lpc17xx_uart.c:750: 	tmp |= tmp1 | UART_ICR_FIXPULSE_EN;
 750:core/lpc17xx_uart.c **** 	tmp |= tmp1 | UART_ICR_FIXPULSE_EN;
 2207              		.loc 1 750 0
 2208 0070 FA68     		ldr	r2, [r7, #12]	@ tmp135, tmp1
 2209 0072 BB68     		ldr	r3, [r7, #8]	@ tmp136, tmp
 2210 0074 1343     		orrs	r3, r3, r2	@, _6, tmp136, tmp135
 2211 0076 43F00403 		orr	r3, r3, #4	@ tmp137, _6,
 2212 007a BB60     		str	r3, [r7, #8]	@ tmp137, tmp
 2213              	@ core/lpc17xx_uart.c:751: 	UARTx->ICR = tmp & UART_ICR_BITMASK;
 751:core/lpc17xx_uart.c **** 	UARTx->ICR = tmp & UART_ICR_BITMASK;
 2214              		.loc 1 751 0
 2215 007c BB68     		ldr	r3, [r7, #8]	@ tmp138, tmp
 2216 007e DBB2     		uxtb	r3, r3	@ _7, tmp138
 2217 0080 03F03F03 		and	r3, r3, #63	@ tmp139, _7,
 2218 0084 DAB2     		uxtb	r2, r3	@ _8, tmp139
 2219 0086 7B68     		ldr	r3, [r7, #4]	@ tmp140, UARTx
 2220 0088 83F82420 		strb	r2, [r3, #36]	@ tmp141, UARTx_11(D)->ICR
 2221              	@ core/lpc17xx_uart.c:752: }
 752:core/lpc17xx_uart.c **** }
 2222              		.loc 1 752 0
 2223 008c 00BF     		nop
 2224 008e 1037     		adds	r7, r7, #16	@,,
 2225              		.cfi_def_cfa_offset 8
 2226 0090 BD46     		mov	sp, r7	@,
 2227              		.cfi_def_cfa_register 13
 2228              		@ sp needed	@
 2229 0092 80BD     		pop	{r7, pc}	@
 2230              	.L142:
 2231              		.align	2
 2232              	.L141:
 2233 0094 00C00940 		.word	1074380800
 2234 0098 00000000 		.word	.LC0
 2235              		.cfi_endproc
 2236              	.LFE66:
 2237              		.size	UART_IrDAPulseDivConfig, .-UART_IrDAPulseDivConfig
 2238              		.section	.text.UART_IntConfig,"ax",%progbits
 2239              		.align	1
 2240              		.global	UART_IntConfig
 2241              		.syntax unified
 2242              		.thumb
ARM GAS  /tmp/ccf79Nqw.s 			page 54


 2243              		.thumb_func
 2244              		.fpu softvfp
 2245              		.type	UART_IntConfig, %function
 2246              	UART_IntConfig:
 2247              	.LFB67:
 753:core/lpc17xx_uart.c **** 
 754:core/lpc17xx_uart.c **** #endif
 755:core/lpc17xx_uart.c **** 
 756:core/lpc17xx_uart.c **** 
 757:core/lpc17xx_uart.c **** /********************************************************************//**
 758:core/lpc17xx_uart.c ****  * @brief 		Enable or disable specified UART interrupt.
 759:core/lpc17xx_uart.c ****  * @param[in]	UARTx	UART peripheral selected, should be UART0, UART1,
 760:core/lpc17xx_uart.c ****  * 						UART2 or UART3.
 761:core/lpc17xx_uart.c ****  * @param[in]	UARTIntCfg	Specifies the interrupt flag,
 762:core/lpc17xx_uart.c ****  * 				should be one of the following:
 763:core/lpc17xx_uart.c **** 				- UART_INTCFG_RBR 	:  RBR Interrupt enable
 764:core/lpc17xx_uart.c **** 				- UART_INTCFG_THRE 	:  THR Interrupt enable
 765:core/lpc17xx_uart.c **** 				- UART_INTCFG_RLS 	:  RX line status interrupt enable
 766:core/lpc17xx_uart.c **** 				- UART1_INTCFG_MS	:  Modem status interrupt enable (UART1 only)
 767:core/lpc17xx_uart.c **** 				- UART1_INTCFG_CTS	:  CTS1 signal transition interrupt enable (UART1 only)
 768:core/lpc17xx_uart.c **** 				- UART_INTCFG_ABEO 	:  Enables the end of auto-baud interrupt
 769:core/lpc17xx_uart.c **** 				- UART_INTCFG_ABTO 	:  Enables the auto-baud time-out interrupt
 770:core/lpc17xx_uart.c ****  * @param[in]	NewState New state of specified UART interrupt type,
 771:core/lpc17xx_uart.c ****  * 				should be:
 772:core/lpc17xx_uart.c ****  * 				- ENALBE: Enable this UART interrupt type.
 773:core/lpc17xx_uart.c **** * 				- DISALBE: Disable this UART interrupt type.
 774:core/lpc17xx_uart.c ****  * @return 		None
 775:core/lpc17xx_uart.c ****  *********************************************************************/
 776:core/lpc17xx_uart.c **** void UART_IntConfig(LPC_UART_TypeDef *UARTx, UART_INT_Type UARTIntCfg, FunctionalState NewState)
 777:core/lpc17xx_uart.c **** {
 2248              		.loc 1 777 0
 2249              		.cfi_startproc
 2250              		@ args = 0, pretend = 0, frame = 16
 2251              		@ frame_needed = 1, uses_anonymous_args = 0
 2252 0000 80B5     		push	{r7, lr}	@
 2253              		.cfi_def_cfa_offset 8
 2254              		.cfi_offset 7, -8
 2255              		.cfi_offset 14, -4
 2256 0002 84B0     		sub	sp, sp, #16	@,,
 2257              		.cfi_def_cfa_offset 24
 2258 0004 00AF     		add	r7, sp, #0	@,,
 2259              		.cfi_def_cfa_register 7
 2260 0006 7860     		str	r0, [r7, #4]	@ UARTx, UARTx
 2261 0008 0B46     		mov	r3, r1	@ tmp123, UARTIntCfg
 2262 000a FB70     		strb	r3, [r7, #3]	@ tmp124, UARTIntCfg
 2263 000c 1346     		mov	r3, r2	@ tmp126, tmp125
 2264 000e BB70     		strb	r3, [r7, #2]	@ tmp126, NewState
 2265              	@ core/lpc17xx_uart.c:780: 	CHECK_PARAM(PARAM_UARTx(UARTx));
 778:core/lpc17xx_uart.c **** 	uint32_t tmp;
 779:core/lpc17xx_uart.c **** 
 780:core/lpc17xx_uart.c **** 	CHECK_PARAM(PARAM_UARTx(UARTx));
 2266              		.loc 1 780 0
 2267 0010 7B68     		ldr	r3, [r7, #4]	@ tmp127, UARTx
 2268 0012 574A     		ldr	r2, .L163	@ tmp128,
 2269 0014 9342     		cmp	r3, r2	@ tmp127, tmp128
 2270 0016 10D0     		beq	.L144	@,
 2271              	@ core/lpc17xx_uart.c:780: 	CHECK_PARAM(PARAM_UARTx(UARTx));
ARM GAS  /tmp/ccf79Nqw.s 			page 55


 2272              		.loc 1 780 0 is_stmt 0 discriminator 1
 2273 0018 7B68     		ldr	r3, [r7, #4]	@ tmp129, UARTx
 2274 001a 564A     		ldr	r2, .L163+4	@ tmp130,
 2275 001c 9342     		cmp	r3, r2	@ tmp129, tmp130
 2276 001e 0CD0     		beq	.L144	@,
 2277              	@ core/lpc17xx_uart.c:780: 	CHECK_PARAM(PARAM_UARTx(UARTx));
 2278              		.loc 1 780 0 discriminator 2
 2279 0020 7B68     		ldr	r3, [r7, #4]	@ tmp131, UARTx
 2280 0022 554A     		ldr	r2, .L163+8	@ tmp132,
 2281 0024 9342     		cmp	r3, r2	@ tmp131, tmp132
 2282 0026 08D0     		beq	.L144	@,
 2283              	@ core/lpc17xx_uart.c:780: 	CHECK_PARAM(PARAM_UARTx(UARTx));
 2284              		.loc 1 780 0 discriminator 3
 2285 0028 7B68     		ldr	r3, [r7, #4]	@ tmp133, UARTx
 2286 002a 544A     		ldr	r2, .L163+12	@ tmp134,
 2287 002c 9342     		cmp	r3, r2	@ tmp133, tmp134
 2288 002e 04D0     		beq	.L144	@,
 2289              	@ core/lpc17xx_uart.c:780: 	CHECK_PARAM(PARAM_UARTx(UARTx));
 2290              		.loc 1 780 0 discriminator 4
 2291 0030 4FF44371 		mov	r1, #780	@,
 2292 0034 5248     		ldr	r0, .L163+16	@,
 2293 0036 FFF7FEFF 		bl	check_failed	@
 2294              	.L144:
 2295              	@ core/lpc17xx_uart.c:781: 	CHECK_PARAM(PARAM_FUNCTIONALSTATE(NewState));
 781:core/lpc17xx_uart.c **** 	CHECK_PARAM(PARAM_FUNCTIONALSTATE(NewState));
 2296              		.loc 1 781 0 is_stmt 1
 2297 003a BB78     		ldrb	r3, [r7, #2]	@ zero_extendqisi2	@ tmp135, NewState
 2298 003c 002B     		cmp	r3, #0	@ tmp135,
 2299 003e 07D0     		beq	.L145	@,
 2300              	@ core/lpc17xx_uart.c:781: 	CHECK_PARAM(PARAM_FUNCTIONALSTATE(NewState));
 2301              		.loc 1 781 0 is_stmt 0 discriminator 1
 2302 0040 BB78     		ldrb	r3, [r7, #2]	@ zero_extendqisi2	@ tmp136, NewState
 2303 0042 012B     		cmp	r3, #1	@ tmp136,
 2304 0044 04D0     		beq	.L145	@,
 2305              	@ core/lpc17xx_uart.c:781: 	CHECK_PARAM(PARAM_FUNCTIONALSTATE(NewState));
 2306              		.loc 1 781 0 discriminator 2
 2307 0046 40F20D31 		movw	r1, #781	@,
 2308 004a 4D48     		ldr	r0, .L163+16	@,
 2309 004c FFF7FEFF 		bl	check_failed	@
 2310              	.L145:
 2311              	@ core/lpc17xx_uart.c:783: 	switch(UARTIntCfg){
 782:core/lpc17xx_uart.c **** 
 783:core/lpc17xx_uart.c **** 	switch(UARTIntCfg){
 2312              		.loc 1 783 0 is_stmt 1
 2313 0050 FB78     		ldrb	r3, [r7, #3]	@ zero_extendqisi2	@ _1, UARTIntCfg
 2314 0052 062B     		cmp	r3, #6	@ _1,
 2315 0054 27D8     		bhi	.L146	@
 2316 0056 01A2     		adr	r2, .L148	@ tmp175,
 2317 0058 52F823F0 		ldr	pc, [r2, r3, lsl #2]	@ tmp175, _1
 2318              		.p2align 2
 2319              	.L148:
 2320 005c 79000000 		.word	.L147+1
 2321 0060 7F000000 		.word	.L149+1
 2322 0064 85000000 		.word	.L150+1
 2323 0068 8B000000 		.word	.L151+1
 2324 006c 91000000 		.word	.L152+1
 2325 0070 97000000 		.word	.L153+1
ARM GAS  /tmp/ccf79Nqw.s 			page 56


 2326 0074 9F000000 		.word	.L154+1
 2327              		.p2align 1
 2328              	.L147:
 2329              	@ core/lpc17xx_uart.c:785: 			tmp = UART_IER_RBRINT_EN;
 784:core/lpc17xx_uart.c **** 		case UART_INTCFG_RBR:
 785:core/lpc17xx_uart.c **** 			tmp = UART_IER_RBRINT_EN;
 2330              		.loc 1 785 0
 2331 0078 0123     		movs	r3, #1	@ tmp137,
 2332 007a FB60     		str	r3, [r7, #12]	@ tmp137, tmp
 2333              	@ core/lpc17xx_uart.c:786: 			break;
 786:core/lpc17xx_uart.c **** 			break;
 2334              		.loc 1 786 0
 2335 007c 13E0     		b	.L146	@
 2336              	.L149:
 2337              	@ core/lpc17xx_uart.c:788: 			tmp = UART_IER_THREINT_EN;
 787:core/lpc17xx_uart.c **** 		case UART_INTCFG_THRE:
 788:core/lpc17xx_uart.c **** 			tmp = UART_IER_THREINT_EN;
 2338              		.loc 1 788 0
 2339 007e 0223     		movs	r3, #2	@ tmp138,
 2340 0080 FB60     		str	r3, [r7, #12]	@ tmp138, tmp
 2341              	@ core/lpc17xx_uart.c:789: 			break;
 789:core/lpc17xx_uart.c **** 			break;
 2342              		.loc 1 789 0
 2343 0082 10E0     		b	.L146	@
 2344              	.L150:
 2345              	@ core/lpc17xx_uart.c:791: 			tmp = UART_IER_RLSINT_EN;
 790:core/lpc17xx_uart.c **** 		case UART_INTCFG_RLS:
 791:core/lpc17xx_uart.c **** 			tmp = UART_IER_RLSINT_EN;
 2346              		.loc 1 791 0
 2347 0084 0423     		movs	r3, #4	@ tmp139,
 2348 0086 FB60     		str	r3, [r7, #12]	@ tmp139, tmp
 2349              	@ core/lpc17xx_uart.c:792: 			break;
 792:core/lpc17xx_uart.c **** 			break;
 2350              		.loc 1 792 0
 2351 0088 0DE0     		b	.L146	@
 2352              	.L151:
 2353              	@ core/lpc17xx_uart.c:794: 			tmp = UART1_IER_MSINT_EN;
 793:core/lpc17xx_uart.c **** 		case UART1_INTCFG_MS:
 794:core/lpc17xx_uart.c **** 			tmp = UART1_IER_MSINT_EN;
 2354              		.loc 1 794 0
 2355 008a 0823     		movs	r3, #8	@ tmp140,
 2356 008c FB60     		str	r3, [r7, #12]	@ tmp140, tmp
 2357              	@ core/lpc17xx_uart.c:795: 			break;
 795:core/lpc17xx_uart.c **** 			break;
 2358              		.loc 1 795 0
 2359 008e 0AE0     		b	.L146	@
 2360              	.L152:
 2361              	@ core/lpc17xx_uart.c:797: 			tmp = UART1_IER_CTSINT_EN;
 796:core/lpc17xx_uart.c **** 		case UART1_INTCFG_CTS:
 797:core/lpc17xx_uart.c **** 			tmp = UART1_IER_CTSINT_EN;
 2362              		.loc 1 797 0
 2363 0090 8023     		movs	r3, #128	@ tmp141,
 2364 0092 FB60     		str	r3, [r7, #12]	@ tmp141, tmp
 2365              	@ core/lpc17xx_uart.c:798: 			break;
 798:core/lpc17xx_uart.c **** 			break;
 2366              		.loc 1 798 0
 2367 0094 07E0     		b	.L146	@
ARM GAS  /tmp/ccf79Nqw.s 			page 57


 2368              	.L153:
 2369              	@ core/lpc17xx_uart.c:800: 			tmp = UART_IER_ABEOINT_EN;
 799:core/lpc17xx_uart.c **** 		case UART_INTCFG_ABEO:
 800:core/lpc17xx_uart.c **** 			tmp = UART_IER_ABEOINT_EN;
 2370              		.loc 1 800 0
 2371 0096 4FF48073 		mov	r3, #256	@ tmp142,
 2372 009a FB60     		str	r3, [r7, #12]	@ tmp142, tmp
 2373              	@ core/lpc17xx_uart.c:801: 			break;
 801:core/lpc17xx_uart.c **** 			break;
 2374              		.loc 1 801 0
 2375 009c 03E0     		b	.L146	@
 2376              	.L154:
 2377              	@ core/lpc17xx_uart.c:803: 			tmp = UART_IER_ABTOINT_EN;
 802:core/lpc17xx_uart.c **** 		case UART_INTCFG_ABTO:
 803:core/lpc17xx_uart.c **** 			tmp = UART_IER_ABTOINT_EN;
 2378              		.loc 1 803 0
 2379 009e 4FF40073 		mov	r3, #512	@ tmp143,
 2380 00a2 FB60     		str	r3, [r7, #12]	@ tmp143, tmp
 2381              	@ core/lpc17xx_uart.c:804: 			break;
 804:core/lpc17xx_uart.c **** 			break;
 2382              		.loc 1 804 0
 2383 00a4 00BF     		nop
 2384              	.L146:
 2385              	@ core/lpc17xx_uart.c:807: 	if ((LPC_UART1_TypeDef *) UARTx == LPC_UART1)
 805:core/lpc17xx_uart.c **** 	}
 806:core/lpc17xx_uart.c **** 
 807:core/lpc17xx_uart.c **** 	if ((LPC_UART1_TypeDef *) UARTx == LPC_UART1)
 2386              		.loc 1 807 0
 2387 00a6 7B68     		ldr	r3, [r7, #4]	@ tmp144, UARTx
 2388 00a8 324A     		ldr	r2, .L163+4	@ tmp145,
 2389 00aa 9342     		cmp	r3, r2	@ tmp144, tmp145
 2390 00ac 1AD1     		bne	.L155	@,
 2391              	@ core/lpc17xx_uart.c:809: 		CHECK_PARAM((PARAM_UART_INTCFG(UARTIntCfg)) || (PARAM_UART1_INTCFG(UAR
 808:core/lpc17xx_uart.c **** 	{
 809:core/lpc17xx_uart.c **** 		CHECK_PARAM((PARAM_UART_INTCFG(UARTIntCfg)) || (PARAM_UART1_INTCFG(UARTIntCfg)));
 2392              		.loc 1 809 0
 2393 00ae FB78     		ldrb	r3, [r7, #3]	@ zero_extendqisi2	@ tmp146, UARTIntCfg
 2394 00b0 002B     		cmp	r3, #0	@ tmp146,
 2395 00b2 2BD0     		beq	.L156	@,
 2396              	@ core/lpc17xx_uart.c:809: 		CHECK_PARAM((PARAM_UART_INTCFG(UARTIntCfg)) || (PARAM_UART1_INTCFG(UAR
 2397              		.loc 1 809 0 is_stmt 0 discriminator 1
 2398 00b4 FB78     		ldrb	r3, [r7, #3]	@ zero_extendqisi2	@ tmp147, UARTIntCfg
 2399 00b6 012B     		cmp	r3, #1	@ tmp147,
 2400 00b8 28D0     		beq	.L156	@,
 2401              	@ core/lpc17xx_uart.c:809: 		CHECK_PARAM((PARAM_UART_INTCFG(UARTIntCfg)) || (PARAM_UART1_INTCFG(UAR
 2402              		.loc 1 809 0 discriminator 2
 2403 00ba FB78     		ldrb	r3, [r7, #3]	@ zero_extendqisi2	@ tmp148, UARTIntCfg
 2404 00bc 022B     		cmp	r3, #2	@ tmp148,
 2405 00be 25D0     		beq	.L156	@,
 2406              	@ core/lpc17xx_uart.c:809: 		CHECK_PARAM((PARAM_UART_INTCFG(UARTIntCfg)) || (PARAM_UART1_INTCFG(UAR
 2407              		.loc 1 809 0 discriminator 3
 2408 00c0 FB78     		ldrb	r3, [r7, #3]	@ zero_extendqisi2	@ tmp149, UARTIntCfg
 2409 00c2 052B     		cmp	r3, #5	@ tmp149,
 2410 00c4 22D0     		beq	.L156	@,
 2411              	@ core/lpc17xx_uart.c:809: 		CHECK_PARAM((PARAM_UART_INTCFG(UARTIntCfg)) || (PARAM_UART1_INTCFG(UAR
 2412              		.loc 1 809 0 discriminator 4
 2413 00c6 FB78     		ldrb	r3, [r7, #3]	@ zero_extendqisi2	@ tmp150, UARTIntCfg
ARM GAS  /tmp/ccf79Nqw.s 			page 58


 2414 00c8 062B     		cmp	r3, #6	@ tmp150,
 2415 00ca 1FD0     		beq	.L156	@,
 2416              	@ core/lpc17xx_uart.c:809: 		CHECK_PARAM((PARAM_UART_INTCFG(UARTIntCfg)) || (PARAM_UART1_INTCFG(UAR
 2417              		.loc 1 809 0 discriminator 5
 2418 00cc FB78     		ldrb	r3, [r7, #3]	@ zero_extendqisi2	@ tmp151, UARTIntCfg
 2419 00ce 032B     		cmp	r3, #3	@ tmp151,
 2420 00d0 1CD0     		beq	.L156	@,
 2421              	@ core/lpc17xx_uart.c:809: 		CHECK_PARAM((PARAM_UART_INTCFG(UARTIntCfg)) || (PARAM_UART1_INTCFG(UAR
 2422              		.loc 1 809 0 discriminator 6
 2423 00d2 FB78     		ldrb	r3, [r7, #3]	@ zero_extendqisi2	@ tmp152, UARTIntCfg
 2424 00d4 042B     		cmp	r3, #4	@ tmp152,
 2425 00d6 19D0     		beq	.L156	@,
 2426              	@ core/lpc17xx_uart.c:809: 		CHECK_PARAM((PARAM_UART_INTCFG(UARTIntCfg)) || (PARAM_UART1_INTCFG(UAR
 2427              		.loc 1 809 0 discriminator 7
 2428 00d8 40F22931 		movw	r1, #809	@,
 2429 00dc 2848     		ldr	r0, .L163+16	@,
 2430 00de FFF7FEFF 		bl	check_failed	@
 2431 00e2 13E0     		b	.L156	@
 2432              	.L155:
 2433              	@ core/lpc17xx_uart.c:813: 		CHECK_PARAM(PARAM_UART_INTCFG(UARTIntCfg));
 810:core/lpc17xx_uart.c **** 	}
 811:core/lpc17xx_uart.c **** 	else
 812:core/lpc17xx_uart.c **** 	{
 813:core/lpc17xx_uart.c **** 		CHECK_PARAM(PARAM_UART_INTCFG(UARTIntCfg));
 2434              		.loc 1 813 0 is_stmt 1
 2435 00e4 FB78     		ldrb	r3, [r7, #3]	@ zero_extendqisi2	@ tmp153, UARTIntCfg
 2436 00e6 002B     		cmp	r3, #0	@ tmp153,
 2437 00e8 10D0     		beq	.L156	@,
 2438              	@ core/lpc17xx_uart.c:813: 		CHECK_PARAM(PARAM_UART_INTCFG(UARTIntCfg));
 2439              		.loc 1 813 0 is_stmt 0 discriminator 1
 2440 00ea FB78     		ldrb	r3, [r7, #3]	@ zero_extendqisi2	@ tmp154, UARTIntCfg
 2441 00ec 012B     		cmp	r3, #1	@ tmp154,
 2442 00ee 0DD0     		beq	.L156	@,
 2443              	@ core/lpc17xx_uart.c:813: 		CHECK_PARAM(PARAM_UART_INTCFG(UARTIntCfg));
 2444              		.loc 1 813 0 discriminator 2
 2445 00f0 FB78     		ldrb	r3, [r7, #3]	@ zero_extendqisi2	@ tmp155, UARTIntCfg
 2446 00f2 022B     		cmp	r3, #2	@ tmp155,
 2447 00f4 0AD0     		beq	.L156	@,
 2448              	@ core/lpc17xx_uart.c:813: 		CHECK_PARAM(PARAM_UART_INTCFG(UARTIntCfg));
 2449              		.loc 1 813 0 discriminator 3
 2450 00f6 FB78     		ldrb	r3, [r7, #3]	@ zero_extendqisi2	@ tmp156, UARTIntCfg
 2451 00f8 052B     		cmp	r3, #5	@ tmp156,
 2452 00fa 07D0     		beq	.L156	@,
 2453              	@ core/lpc17xx_uart.c:813: 		CHECK_PARAM(PARAM_UART_INTCFG(UARTIntCfg));
 2454              		.loc 1 813 0 discriminator 4
 2455 00fc FB78     		ldrb	r3, [r7, #3]	@ zero_extendqisi2	@ tmp157, UARTIntCfg
 2456 00fe 062B     		cmp	r3, #6	@ tmp157,
 2457 0100 04D0     		beq	.L156	@,
 2458              	@ core/lpc17xx_uart.c:813: 		CHECK_PARAM(PARAM_UART_INTCFG(UARTIntCfg));
 2459              		.loc 1 813 0 discriminator 5
 2460 0102 40F22D31 		movw	r1, #813	@,
 2461 0106 1E48     		ldr	r0, .L163+16	@,
 2462 0108 FFF7FEFF 		bl	check_failed	@
 2463              	.L156:
 2464              	@ core/lpc17xx_uart.c:816: 	if (NewState == ENABLE)
 814:core/lpc17xx_uart.c **** 	}
 815:core/lpc17xx_uart.c **** 
ARM GAS  /tmp/ccf79Nqw.s 			page 59


 816:core/lpc17xx_uart.c **** 	if (NewState == ENABLE)
 2465              		.loc 1 816 0 is_stmt 1
 2466 010c BB78     		ldrb	r3, [r7, #2]	@ zero_extendqisi2	@ tmp158, NewState
 2467 010e 012B     		cmp	r3, #1	@ tmp158,
 2468 0110 11D1     		bne	.L157	@,
 2469              	@ core/lpc17xx_uart.c:818: 		if ((LPC_UART1_TypeDef *) UARTx == LPC_UART1)
 817:core/lpc17xx_uart.c **** 	{
 818:core/lpc17xx_uart.c **** 		if ((LPC_UART1_TypeDef *) UARTx == LPC_UART1)
 2470              		.loc 1 818 0
 2471 0112 7B68     		ldr	r3, [r7, #4]	@ tmp159, UARTx
 2472 0114 174A     		ldr	r2, .L163+4	@ tmp160,
 2473 0116 9342     		cmp	r3, r2	@ tmp159, tmp160
 2474 0118 06D1     		bne	.L158	@,
 2475              	@ core/lpc17xx_uart.c:820: 			((LPC_UART1_TypeDef *)UARTx)->/*DLIER.*/IER |= tmp;
 819:core/lpc17xx_uart.c **** 		{
 820:core/lpc17xx_uart.c **** 			((LPC_UART1_TypeDef *)UARTx)->/*DLIER.*/IER |= tmp;
 2476              		.loc 1 820 0
 2477 011a 7B68     		ldr	r3, [r7, #4]	@ tmp161, UARTx
 2478 011c 5A68     		ldr	r2, [r3, #4]	@ _2, MEM[(struct LPC_UART1_TypeDef *)UARTx_20(D)].D.4812.IER
 2479 011e FB68     		ldr	r3, [r7, #12]	@ tmp162, tmp
 2480 0120 1A43     		orrs	r2, r2, r3	@, _3, _2, tmp162
 2481 0122 7B68     		ldr	r3, [r7, #4]	@ tmp163, UARTx
 2482 0124 5A60     		str	r2, [r3, #4]	@ _3, MEM[(struct LPC_UART1_TypeDef *)UARTx_20(D)].D.4812.IER
 2483              	@ core/lpc17xx_uart.c:838: }
 821:core/lpc17xx_uart.c **** 		}
 822:core/lpc17xx_uart.c **** 		else
 823:core/lpc17xx_uart.c **** 		{
 824:core/lpc17xx_uart.c **** 			UARTx->/*DLIER.*/IER |= tmp;
 825:core/lpc17xx_uart.c **** 		}
 826:core/lpc17xx_uart.c **** 	}
 827:core/lpc17xx_uart.c **** 	else
 828:core/lpc17xx_uart.c **** 	{
 829:core/lpc17xx_uart.c **** 		if ((LPC_UART1_TypeDef *) UARTx == LPC_UART1)
 830:core/lpc17xx_uart.c **** 		{
 831:core/lpc17xx_uart.c **** 			((LPC_UART1_TypeDef *)UARTx)->/*DLIER.*/IER &= (~tmp) & UART1_IER_BITMASK;
 832:core/lpc17xx_uart.c **** 		}
 833:core/lpc17xx_uart.c **** 		else
 834:core/lpc17xx_uart.c **** 		{
 835:core/lpc17xx_uart.c **** 			UARTx->/*DLIER.*/IER &= (~tmp) & UART_IER_BITMASK;
 836:core/lpc17xx_uart.c **** 		}
 837:core/lpc17xx_uart.c **** 	}
 838:core/lpc17xx_uart.c **** }
 2484              		.loc 1 838 0
 2485 0126 1FE0     		b	.L162	@
 2486              	.L158:
 2487              	@ core/lpc17xx_uart.c:824: 			UARTx->/*DLIER.*/IER |= tmp;
 824:core/lpc17xx_uart.c **** 		}
 2488              		.loc 1 824 0
 2489 0128 7B68     		ldr	r3, [r7, #4]	@ tmp164, UARTx
 2490 012a 5A68     		ldr	r2, [r3, #4]	@ _4, UARTx_20(D)->D.4752.IER
 2491 012c FB68     		ldr	r3, [r7, #12]	@ tmp165, tmp
 2492 012e 1A43     		orrs	r2, r2, r3	@, _5, _4, tmp165
 2493 0130 7B68     		ldr	r3, [r7, #4]	@ tmp166, UARTx
 2494 0132 5A60     		str	r2, [r3, #4]	@ _5, UARTx_20(D)->D.4752.IER
 2495              	@ core/lpc17xx_uart.c:838: }
 2496              		.loc 1 838 0
 2497 0134 18E0     		b	.L162	@
ARM GAS  /tmp/ccf79Nqw.s 			page 60


 2498              	.L157:
 2499              	@ core/lpc17xx_uart.c:829: 		if ((LPC_UART1_TypeDef *) UARTx == LPC_UART1)
 829:core/lpc17xx_uart.c **** 		{
 2500              		.loc 1 829 0
 2501 0136 7B68     		ldr	r3, [r7, #4]	@ tmp167, UARTx
 2502 0138 0E4A     		ldr	r2, .L163+4	@ tmp168,
 2503 013a 9342     		cmp	r3, r2	@ tmp167, tmp168
 2504 013c 0AD1     		bne	.L161	@,
 2505              	@ core/lpc17xx_uart.c:831: 			((LPC_UART1_TypeDef *)UARTx)->/*DLIER.*/IER &= (~tmp) & UART1_IER_BIT
 831:core/lpc17xx_uart.c **** 		}
 2506              		.loc 1 831 0
 2507 013e 7B68     		ldr	r3, [r7, #4]	@ tmp169, UARTx
 2508 0140 5A68     		ldr	r2, [r3, #4]	@ _6, MEM[(struct LPC_UART1_TypeDef *)UARTx_20(D)].D.4812.IER
 2509 0142 FB68     		ldr	r3, [r7, #12]	@ tmp170, tmp
 2510 0144 DB43     		mvns	r3, r3	@ _7, tmp170
 2511 0146 1A40     		ands	r2, r2, r3	@, _8, _6, _7
 2512 0148 40F28F33 		movw	r3, #911	@ _9,
 2513 014c 1340     		ands	r3, r3, r2	@, _9, _9, _8
 2514 014e 7A68     		ldr	r2, [r7, #4]	@ tmp171, UARTx
 2515 0150 5360     		str	r3, [r2, #4]	@ _9, MEM[(struct LPC_UART1_TypeDef *)UARTx_20(D)].D.4812.IER
 2516              	@ core/lpc17xx_uart.c:838: }
 2517              		.loc 1 838 0
 2518 0152 09E0     		b	.L162	@
 2519              	.L161:
 2520              	@ core/lpc17xx_uart.c:835: 			UARTx->/*DLIER.*/IER &= (~tmp) & UART_IER_BITMASK;
 835:core/lpc17xx_uart.c **** 		}
 2521              		.loc 1 835 0
 2522 0154 7B68     		ldr	r3, [r7, #4]	@ tmp172, UARTx
 2523 0156 5A68     		ldr	r2, [r3, #4]	@ _10, UARTx_20(D)->D.4752.IER
 2524 0158 FB68     		ldr	r3, [r7, #12]	@ tmp173, tmp
 2525 015a DB43     		mvns	r3, r3	@ _11, tmp173
 2526 015c 1A40     		ands	r2, r2, r3	@, _12, _10, _11
 2527 015e 40F20733 		movw	r3, #775	@ _13,
 2528 0162 1340     		ands	r3, r3, r2	@, _13, _13, _12
 2529 0164 7A68     		ldr	r2, [r7, #4]	@ tmp174, UARTx
 2530 0166 5360     		str	r3, [r2, #4]	@ _13, UARTx_20(D)->D.4752.IER
 2531              	.L162:
 2532              	@ core/lpc17xx_uart.c:838: }
 2533              		.loc 1 838 0
 2534 0168 00BF     		nop
 2535 016a 1037     		adds	r7, r7, #16	@,,
 2536              		.cfi_def_cfa_offset 8
 2537 016c BD46     		mov	sp, r7	@,
 2538              		.cfi_def_cfa_register 13
 2539              		@ sp needed	@
 2540 016e 80BD     		pop	{r7, pc}	@
 2541              	.L164:
 2542              		.align	2
 2543              	.L163:
 2544 0170 00C00040 		.word	1073790976
 2545 0174 00000140 		.word	1073807360
 2546 0178 00800940 		.word	1074364416
 2547 017c 00C00940 		.word	1074380800
 2548 0180 00000000 		.word	.LC0
 2549              		.cfi_endproc
 2550              	.LFE67:
 2551              		.size	UART_IntConfig, .-UART_IntConfig
ARM GAS  /tmp/ccf79Nqw.s 			page 61


 2552              		.section	.text.UART_GetLineStatus,"ax",%progbits
 2553              		.align	1
 2554              		.global	UART_GetLineStatus
 2555              		.syntax unified
 2556              		.thumb
 2557              		.thumb_func
 2558              		.fpu softvfp
 2559              		.type	UART_GetLineStatus, %function
 2560              	UART_GetLineStatus:
 2561              	.LFB68:
 839:core/lpc17xx_uart.c **** 
 840:core/lpc17xx_uart.c **** 
 841:core/lpc17xx_uart.c **** /********************************************************************//**
 842:core/lpc17xx_uart.c ****  * @brief 		Get current value of Line Status register in UART peripheral.
 843:core/lpc17xx_uart.c ****  * @param[in]	UARTx	UART peripheral selected, should be UART0, UART1,
 844:core/lpc17xx_uart.c ****  * 						UART2 or UART3.
 845:core/lpc17xx_uart.c ****  * @return		Current value of Line Status register in UART peripheral.
 846:core/lpc17xx_uart.c ****  * Note:	The return value of this function must be ANDed with each member in
 847:core/lpc17xx_uart.c ****  * 			UART_LS_Type enumeration to determine current flag status
 848:core/lpc17xx_uart.c ****  * 			corresponding to each Line status type. Because some flags in
 849:core/lpc17xx_uart.c ****  * 			Line Status register will be cleared after reading, the next reading
 850:core/lpc17xx_uart.c ****  * 			Line Status register could not be correct. So this function used to
 851:core/lpc17xx_uart.c ****  * 			read Line status register in one time only, then the return value
 852:core/lpc17xx_uart.c ****  * 			used to check all flags.
 853:core/lpc17xx_uart.c ****  *********************************************************************/
 854:core/lpc17xx_uart.c **** uint8_t UART_GetLineStatus(LPC_UART_TypeDef* UARTx)
 855:core/lpc17xx_uart.c **** {
 2562              		.loc 1 855 0
 2563              		.cfi_startproc
 2564              		@ args = 0, pretend = 0, frame = 8
 2565              		@ frame_needed = 1, uses_anonymous_args = 0
 2566 0000 80B5     		push	{r7, lr}	@
 2567              		.cfi_def_cfa_offset 8
 2568              		.cfi_offset 7, -8
 2569              		.cfi_offset 14, -4
 2570 0002 82B0     		sub	sp, sp, #8	@,,
 2571              		.cfi_def_cfa_offset 16
 2572 0004 00AF     		add	r7, sp, #0	@,,
 2573              		.cfi_def_cfa_register 7
 2574 0006 7860     		str	r0, [r7, #4]	@ UARTx, UARTx
 2575              	@ core/lpc17xx_uart.c:856: 	CHECK_PARAM(PARAM_UARTx(UARTx));
 856:core/lpc17xx_uart.c **** 	CHECK_PARAM(PARAM_UARTx(UARTx));
 2576              		.loc 1 856 0
 2577 0008 7B68     		ldr	r3, [r7, #4]	@ tmp113, UARTx
 2578 000a 114A     		ldr	r2, .L169	@ tmp114,
 2579 000c 9342     		cmp	r3, r2	@ tmp113, tmp114
 2580 000e 10D0     		beq	.L166	@,
 2581              	@ core/lpc17xx_uart.c:856: 	CHECK_PARAM(PARAM_UARTx(UARTx));
 2582              		.loc 1 856 0 is_stmt 0 discriminator 1
 2583 0010 7B68     		ldr	r3, [r7, #4]	@ tmp115, UARTx
 2584 0012 104A     		ldr	r2, .L169+4	@ tmp116,
 2585 0014 9342     		cmp	r3, r2	@ tmp115, tmp116
 2586 0016 0CD0     		beq	.L166	@,
 2587              	@ core/lpc17xx_uart.c:856: 	CHECK_PARAM(PARAM_UARTx(UARTx));
 2588              		.loc 1 856 0 discriminator 2
 2589 0018 7B68     		ldr	r3, [r7, #4]	@ tmp117, UARTx
 2590 001a 0F4A     		ldr	r2, .L169+8	@ tmp118,
ARM GAS  /tmp/ccf79Nqw.s 			page 62


 2591 001c 9342     		cmp	r3, r2	@ tmp117, tmp118
 2592 001e 08D0     		beq	.L166	@,
 2593              	@ core/lpc17xx_uart.c:856: 	CHECK_PARAM(PARAM_UARTx(UARTx));
 2594              		.loc 1 856 0 discriminator 3
 2595 0020 7B68     		ldr	r3, [r7, #4]	@ tmp119, UARTx
 2596 0022 0E4A     		ldr	r2, .L169+12	@ tmp120,
 2597 0024 9342     		cmp	r3, r2	@ tmp119, tmp120
 2598 0026 04D0     		beq	.L166	@,
 2599              	@ core/lpc17xx_uart.c:856: 	CHECK_PARAM(PARAM_UARTx(UARTx));
 2600              		.loc 1 856 0 discriminator 4
 2601 0028 4FF45671 		mov	r1, #856	@,
 2602 002c 0C48     		ldr	r0, .L169+16	@,
 2603 002e FFF7FEFF 		bl	check_failed	@
 2604              	.L166:
 2605              	@ core/lpc17xx_uart.c:858: 	if (((LPC_UART1_TypeDef *)UARTx) == LPC_UART1)
 857:core/lpc17xx_uart.c **** 
 858:core/lpc17xx_uart.c **** 	if (((LPC_UART1_TypeDef *)UARTx) == LPC_UART1)
 2606              		.loc 1 858 0 is_stmt 1
 2607 0032 7B68     		ldr	r3, [r7, #4]	@ tmp121, UARTx
 2608 0034 074A     		ldr	r2, .L169+4	@ tmp122,
 2609 0036 9342     		cmp	r3, r2	@ tmp121, tmp122
 2610 0038 03D1     		bne	.L167	@,
 2611              	@ core/lpc17xx_uart.c:860: 		return ((((LPC_UART1_TypeDef *)LPC_UART1)->LSR) & UART_LSR_BITMASK);
 859:core/lpc17xx_uart.c **** 	{
 860:core/lpc17xx_uart.c **** 		return ((((LPC_UART1_TypeDef *)LPC_UART1)->LSR) & UART_LSR_BITMASK);
 2612              		.loc 1 860 0
 2613 003a 064B     		ldr	r3, .L169+4	@ _1,
 2614 003c 1B7D     		ldrb	r3, [r3, #20]	@ tmp124, _1->LSR
 2615 003e DBB2     		uxtb	r3, r3	@ _2, tmp124
 2616 0040 02E0     		b	.L168	@
 2617              	.L167:
 2618              	@ core/lpc17xx_uart.c:864: 		return ((UARTx->LSR) & UART_LSR_BITMASK);
 861:core/lpc17xx_uart.c **** 	}
 862:core/lpc17xx_uart.c **** 	else
 863:core/lpc17xx_uart.c **** 	{
 864:core/lpc17xx_uart.c **** 		return ((UARTx->LSR) & UART_LSR_BITMASK);
 2619              		.loc 1 864 0
 2620 0042 7B68     		ldr	r3, [r7, #4]	@ tmp125, UARTx
 2621 0044 1B7D     		ldrb	r3, [r3, #20]	@ tmp127, UARTx_4(D)->LSR
 2622 0046 DBB2     		uxtb	r3, r3	@ _2, tmp127
 2623              	.L168:
 2624              	@ core/lpc17xx_uart.c:866: }
 865:core/lpc17xx_uart.c **** 	}
 866:core/lpc17xx_uart.c **** }
 2625              		.loc 1 866 0
 2626 0048 1846     		mov	r0, r3	@, <retval>
 2627 004a 0837     		adds	r7, r7, #8	@,,
 2628              		.cfi_def_cfa_offset 8
 2629 004c BD46     		mov	sp, r7	@,
 2630              		.cfi_def_cfa_register 13
 2631              		@ sp needed	@
 2632 004e 80BD     		pop	{r7, pc}	@
 2633              	.L170:
 2634              		.align	2
 2635              	.L169:
 2636 0050 00C00040 		.word	1073790976
 2637 0054 00000140 		.word	1073807360
ARM GAS  /tmp/ccf79Nqw.s 			page 63


 2638 0058 00800940 		.word	1074364416
 2639 005c 00C00940 		.word	1074380800
 2640 0060 00000000 		.word	.LC0
 2641              		.cfi_endproc
 2642              	.LFE68:
 2643              		.size	UART_GetLineStatus, .-UART_GetLineStatus
 2644              		.section	.text.UART_CheckBusy,"ax",%progbits
 2645              		.align	1
 2646              		.global	UART_CheckBusy
 2647              		.syntax unified
 2648              		.thumb
 2649              		.thumb_func
 2650              		.fpu softvfp
 2651              		.type	UART_CheckBusy, %function
 2652              	UART_CheckBusy:
 2653              	.LFB69:
 867:core/lpc17xx_uart.c **** 
 868:core/lpc17xx_uart.c **** /*********************************************************************//**
 869:core/lpc17xx_uart.c ****  * @brief		Check whether if UART is busy or not
 870:core/lpc17xx_uart.c ****  * @param[in]	UARTx	UART peripheral selected, should be UART0, UART1,
 871:core/lpc17xx_uart.c ****  * 						UART2 or UART3.
 872:core/lpc17xx_uart.c ****  * @return		RESET if UART is not busy, otherwise return SET.
 873:core/lpc17xx_uart.c ****  **********************************************************************/
 874:core/lpc17xx_uart.c **** FlagStatus UART_CheckBusy(LPC_UART_TypeDef *UARTx)
 875:core/lpc17xx_uart.c **** {
 2654              		.loc 1 875 0
 2655              		.cfi_startproc
 2656              		@ args = 0, pretend = 0, frame = 8
 2657              		@ frame_needed = 1, uses_anonymous_args = 0
 2658              		@ link register save eliminated.
 2659 0000 80B4     		push	{r7}	@
 2660              		.cfi_def_cfa_offset 4
 2661              		.cfi_offset 7, -4
 2662 0002 83B0     		sub	sp, sp, #12	@,,
 2663              		.cfi_def_cfa_offset 16
 2664 0004 00AF     		add	r7, sp, #0	@,,
 2665              		.cfi_def_cfa_register 7
 2666 0006 7860     		str	r0, [r7, #4]	@ UARTx, UARTx
 2667              	@ core/lpc17xx_uart.c:876: 	if (UARTx->LSR & UART_LSR_TEMT){
 876:core/lpc17xx_uart.c **** 	if (UARTx->LSR & UART_LSR_TEMT){
 2668              		.loc 1 876 0
 2669 0008 7B68     		ldr	r3, [r7, #4]	@ tmp115, UARTx
 2670 000a 1B7D     		ldrb	r3, [r3, #20]	@ tmp117, UARTx_6(D)->LSR
 2671 000c DBB2     		uxtb	r3, r3	@ _1, tmp117
 2672 000e 03F04003 		and	r3, r3, #64	@ _3, _2,
 2673 0012 002B     		cmp	r3, #0	@ _3,
 2674 0014 01D0     		beq	.L172	@,
 2675              	@ core/lpc17xx_uart.c:877: 		return RESET;
 877:core/lpc17xx_uart.c **** 		return RESET;
 2676              		.loc 1 877 0
 2677 0016 0023     		movs	r3, #0	@ _4,
 2678 0018 00E0     		b	.L173	@
 2679              	.L172:
 2680              	@ core/lpc17xx_uart.c:879: 		return SET;
 878:core/lpc17xx_uart.c **** 	} else {
 879:core/lpc17xx_uart.c **** 		return SET;
 2681              		.loc 1 879 0
ARM GAS  /tmp/ccf79Nqw.s 			page 64


 2682 001a 0123     		movs	r3, #1	@ _4,
 2683              	.L173:
 2684              	@ core/lpc17xx_uart.c:881: }
 880:core/lpc17xx_uart.c **** 	}
 881:core/lpc17xx_uart.c **** }
 2685              		.loc 1 881 0
 2686 001c 1846     		mov	r0, r3	@, <retval>
 2687 001e 0C37     		adds	r7, r7, #12	@,,
 2688              		.cfi_def_cfa_offset 4
 2689 0020 BD46     		mov	sp, r7	@,
 2690              		.cfi_def_cfa_register 13
 2691              		@ sp needed	@
 2692 0022 80BC     		pop	{r7}	@
 2693              		.cfi_restore 7
 2694              		.cfi_def_cfa_offset 0
 2695 0024 7047     		bx	lr	@
 2696              		.cfi_endproc
 2697              	.LFE69:
 2698              		.size	UART_CheckBusy, .-UART_CheckBusy
 2699              		.section	.text.UART_FIFOConfig,"ax",%progbits
 2700              		.align	1
 2701              		.global	UART_FIFOConfig
 2702              		.syntax unified
 2703              		.thumb
 2704              		.thumb_func
 2705              		.fpu softvfp
 2706              		.type	UART_FIFOConfig, %function
 2707              	UART_FIFOConfig:
 2708              	.LFB70:
 882:core/lpc17xx_uart.c **** 
 883:core/lpc17xx_uart.c **** 
 884:core/lpc17xx_uart.c **** /*********************************************************************//**
 885:core/lpc17xx_uart.c ****  * @brief		Configure FIFO function on selected UART peripheral
 886:core/lpc17xx_uart.c ****  * @param[in]	UARTx	UART peripheral selected, should be UART0, UART1,
 887:core/lpc17xx_uart.c ****  * 						UART2 or UART3.
 888:core/lpc17xx_uart.c ****  * @param[in]	FIFOCfg	Pointer to a UART_FIFO_CFG_Type Structure that
 889:core/lpc17xx_uart.c ****  * 						contains specified information about FIFO configuration
 890:core/lpc17xx_uart.c ****  * @return 		none
 891:core/lpc17xx_uart.c ****  **********************************************************************/
 892:core/lpc17xx_uart.c **** void UART_FIFOConfig(LPC_UART_TypeDef *UARTx, UART_FIFO_CFG_Type *FIFOCfg)
 893:core/lpc17xx_uart.c **** {
 2709              		.loc 1 893 0
 2710              		.cfi_startproc
 2711              		@ args = 0, pretend = 0, frame = 16
 2712              		@ frame_needed = 1, uses_anonymous_args = 0
 2713 0000 80B5     		push	{r7, lr}	@
 2714              		.cfi_def_cfa_offset 8
 2715              		.cfi_offset 7, -8
 2716              		.cfi_offset 14, -4
 2717 0002 84B0     		sub	sp, sp, #16	@,,
 2718              		.cfi_def_cfa_offset 24
 2719 0004 00AF     		add	r7, sp, #0	@,,
 2720              		.cfi_def_cfa_register 7
 2721 0006 7860     		str	r0, [r7, #4]	@ UARTx, UARTx
 2722 0008 3960     		str	r1, [r7]	@ FIFOCfg, FIFOCfg
 2723              	@ core/lpc17xx_uart.c:894: 	uint8_t tmp = 0;
 894:core/lpc17xx_uart.c **** 	uint8_t tmp = 0;
ARM GAS  /tmp/ccf79Nqw.s 			page 65


 2724              		.loc 1 894 0
 2725 000a 0023     		movs	r3, #0	@ tmp127,
 2726 000c FB73     		strb	r3, [r7, #15]	@ tmp128, tmp
 2727              	@ core/lpc17xx_uart.c:896: 	CHECK_PARAM(PARAM_UARTx(UARTx));
 895:core/lpc17xx_uart.c **** 
 896:core/lpc17xx_uart.c **** 	CHECK_PARAM(PARAM_UARTx(UARTx));
 2728              		.loc 1 896 0
 2729 000e 7B68     		ldr	r3, [r7, #4]	@ tmp129, UARTx
 2730 0010 4C4A     		ldr	r2, .L193	@ tmp130,
 2731 0012 9342     		cmp	r3, r2	@ tmp129, tmp130
 2732 0014 10D0     		beq	.L175	@,
 2733              	@ core/lpc17xx_uart.c:896: 	CHECK_PARAM(PARAM_UARTx(UARTx));
 2734              		.loc 1 896 0 is_stmt 0 discriminator 1
 2735 0016 7B68     		ldr	r3, [r7, #4]	@ tmp131, UARTx
 2736 0018 4B4A     		ldr	r2, .L193+4	@ tmp132,
 2737 001a 9342     		cmp	r3, r2	@ tmp131, tmp132
 2738 001c 0CD0     		beq	.L175	@,
 2739              	@ core/lpc17xx_uart.c:896: 	CHECK_PARAM(PARAM_UARTx(UARTx));
 2740              		.loc 1 896 0 discriminator 2
 2741 001e 7B68     		ldr	r3, [r7, #4]	@ tmp133, UARTx
 2742 0020 4A4A     		ldr	r2, .L193+8	@ tmp134,
 2743 0022 9342     		cmp	r3, r2	@ tmp133, tmp134
 2744 0024 08D0     		beq	.L175	@,
 2745              	@ core/lpc17xx_uart.c:896: 	CHECK_PARAM(PARAM_UARTx(UARTx));
 2746              		.loc 1 896 0 discriminator 3
 2747 0026 7B68     		ldr	r3, [r7, #4]	@ tmp135, UARTx
 2748 0028 494A     		ldr	r2, .L193+12	@ tmp136,
 2749 002a 9342     		cmp	r3, r2	@ tmp135, tmp136
 2750 002c 04D0     		beq	.L175	@,
 2751              	@ core/lpc17xx_uart.c:896: 	CHECK_PARAM(PARAM_UARTx(UARTx));
 2752              		.loc 1 896 0 discriminator 4
 2753 002e 4FF46071 		mov	r1, #896	@,
 2754 0032 4848     		ldr	r0, .L193+16	@,
 2755 0034 FFF7FEFF 		bl	check_failed	@
 2756              	.L175:
 2757              	@ core/lpc17xx_uart.c:897: 	CHECK_PARAM(PARAM_UART_FIFO_LEVEL(FIFOCfg->FIFO_Level));
 897:core/lpc17xx_uart.c **** 	CHECK_PARAM(PARAM_UART_FIFO_LEVEL(FIFOCfg->FIFO_Level));
 2758              		.loc 1 897 0 is_stmt 1
 2759 0038 3B68     		ldr	r3, [r7]	@ tmp137, FIFOCfg
 2760 003a DB78     		ldrb	r3, [r3, #3]	@ zero_extendqisi2	@ _1, FIFOCfg_32(D)->FIFO_Level
 2761 003c 002B     		cmp	r3, #0	@ _1,
 2762 003e 10D0     		beq	.L176	@,
 2763              	@ core/lpc17xx_uart.c:897: 	CHECK_PARAM(PARAM_UART_FIFO_LEVEL(FIFOCfg->FIFO_Level));
 2764              		.loc 1 897 0 is_stmt 0 discriminator 1
 2765 0040 3B68     		ldr	r3, [r7]	@ tmp138, FIFOCfg
 2766 0042 DB78     		ldrb	r3, [r3, #3]	@ zero_extendqisi2	@ _2, FIFOCfg_32(D)->FIFO_Level
 2767 0044 012B     		cmp	r3, #1	@ _2,
 2768 0046 0CD0     		beq	.L176	@,
 2769              	@ core/lpc17xx_uart.c:897: 	CHECK_PARAM(PARAM_UART_FIFO_LEVEL(FIFOCfg->FIFO_Level));
 2770              		.loc 1 897 0 discriminator 2
 2771 0048 3B68     		ldr	r3, [r7]	@ tmp139, FIFOCfg
 2772 004a DB78     		ldrb	r3, [r3, #3]	@ zero_extendqisi2	@ _3, FIFOCfg_32(D)->FIFO_Level
 2773 004c 022B     		cmp	r3, #2	@ _3,
 2774 004e 08D0     		beq	.L176	@,
 2775              	@ core/lpc17xx_uart.c:897: 	CHECK_PARAM(PARAM_UART_FIFO_LEVEL(FIFOCfg->FIFO_Level));
 2776              		.loc 1 897 0 discriminator 3
 2777 0050 3B68     		ldr	r3, [r7]	@ tmp140, FIFOCfg
ARM GAS  /tmp/ccf79Nqw.s 			page 66


 2778 0052 DB78     		ldrb	r3, [r3, #3]	@ zero_extendqisi2	@ _4, FIFOCfg_32(D)->FIFO_Level
 2779 0054 032B     		cmp	r3, #3	@ _4,
 2780 0056 04D0     		beq	.L176	@,
 2781              	@ core/lpc17xx_uart.c:897: 	CHECK_PARAM(PARAM_UART_FIFO_LEVEL(FIFOCfg->FIFO_Level));
 2782              		.loc 1 897 0 discriminator 4
 2783 0058 40F28131 		movw	r1, #897	@,
 2784 005c 3D48     		ldr	r0, .L193+16	@,
 2785 005e FFF7FEFF 		bl	check_failed	@
 2786              	.L176:
 2787              	@ core/lpc17xx_uart.c:898: 	CHECK_PARAM(PARAM_FUNCTIONALSTATE(FIFOCfg->FIFO_DMAMode));
 898:core/lpc17xx_uart.c **** 	CHECK_PARAM(PARAM_FUNCTIONALSTATE(FIFOCfg->FIFO_DMAMode));
 2788              		.loc 1 898 0 is_stmt 1
 2789 0062 3B68     		ldr	r3, [r7]	@ tmp141, FIFOCfg
 2790 0064 9B78     		ldrb	r3, [r3, #2]	@ zero_extendqisi2	@ _5, FIFOCfg_32(D)->FIFO_DMAMode
 2791 0066 002B     		cmp	r3, #0	@ _5,
 2792 0068 08D0     		beq	.L177	@,
 2793              	@ core/lpc17xx_uart.c:898: 	CHECK_PARAM(PARAM_FUNCTIONALSTATE(FIFOCfg->FIFO_DMAMode));
 2794              		.loc 1 898 0 is_stmt 0 discriminator 1
 2795 006a 3B68     		ldr	r3, [r7]	@ tmp142, FIFOCfg
 2796 006c 9B78     		ldrb	r3, [r3, #2]	@ zero_extendqisi2	@ _6, FIFOCfg_32(D)->FIFO_DMAMode
 2797 006e 012B     		cmp	r3, #1	@ _6,
 2798 0070 04D0     		beq	.L177	@,
 2799              	@ core/lpc17xx_uart.c:898: 	CHECK_PARAM(PARAM_FUNCTIONALSTATE(FIFOCfg->FIFO_DMAMode));
 2800              		.loc 1 898 0 discriminator 2
 2801 0072 40F28231 		movw	r1, #898	@,
 2802 0076 3748     		ldr	r0, .L193+16	@,
 2803 0078 FFF7FEFF 		bl	check_failed	@
 2804              	.L177:
 2805              	@ core/lpc17xx_uart.c:899: 	CHECK_PARAM(PARAM_FUNCTIONALSTATE(FIFOCfg->FIFO_ResetRxBuf));
 899:core/lpc17xx_uart.c **** 	CHECK_PARAM(PARAM_FUNCTIONALSTATE(FIFOCfg->FIFO_ResetRxBuf));
 2806              		.loc 1 899 0 is_stmt 1
 2807 007c 3B68     		ldr	r3, [r7]	@ tmp143, FIFOCfg
 2808 007e 1B78     		ldrb	r3, [r3]	@ zero_extendqisi2	@ _7, FIFOCfg_32(D)->FIFO_ResetRxBuf
 2809 0080 002B     		cmp	r3, #0	@ _7,
 2810 0082 08D0     		beq	.L178	@,
 2811              	@ core/lpc17xx_uart.c:899: 	CHECK_PARAM(PARAM_FUNCTIONALSTATE(FIFOCfg->FIFO_ResetRxBuf));
 2812              		.loc 1 899 0 is_stmt 0 discriminator 1
 2813 0084 3B68     		ldr	r3, [r7]	@ tmp144, FIFOCfg
 2814 0086 1B78     		ldrb	r3, [r3]	@ zero_extendqisi2	@ _8, FIFOCfg_32(D)->FIFO_ResetRxBuf
 2815 0088 012B     		cmp	r3, #1	@ _8,
 2816 008a 04D0     		beq	.L178	@,
 2817              	@ core/lpc17xx_uart.c:899: 	CHECK_PARAM(PARAM_FUNCTIONALSTATE(FIFOCfg->FIFO_ResetRxBuf));
 2818              		.loc 1 899 0 discriminator 2
 2819 008c 40F28331 		movw	r1, #899	@,
 2820 0090 3048     		ldr	r0, .L193+16	@,
 2821 0092 FFF7FEFF 		bl	check_failed	@
 2822              	.L178:
 2823              	@ core/lpc17xx_uart.c:900: 	CHECK_PARAM(PARAM_FUNCTIONALSTATE(FIFOCfg->FIFO_ResetTxBuf));
 900:core/lpc17xx_uart.c **** 	CHECK_PARAM(PARAM_FUNCTIONALSTATE(FIFOCfg->FIFO_ResetTxBuf));
 2824              		.loc 1 900 0 is_stmt 1
 2825 0096 3B68     		ldr	r3, [r7]	@ tmp145, FIFOCfg
 2826 0098 5B78     		ldrb	r3, [r3, #1]	@ zero_extendqisi2	@ _9, FIFOCfg_32(D)->FIFO_ResetTxBuf
 2827 009a 002B     		cmp	r3, #0	@ _9,
 2828 009c 08D0     		beq	.L179	@,
 2829              	@ core/lpc17xx_uart.c:900: 	CHECK_PARAM(PARAM_FUNCTIONALSTATE(FIFOCfg->FIFO_ResetTxBuf));
 2830              		.loc 1 900 0 is_stmt 0 discriminator 1
 2831 009e 3B68     		ldr	r3, [r7]	@ tmp146, FIFOCfg
ARM GAS  /tmp/ccf79Nqw.s 			page 67


 2832 00a0 5B78     		ldrb	r3, [r3, #1]	@ zero_extendqisi2	@ _10, FIFOCfg_32(D)->FIFO_ResetTxBuf
 2833 00a2 012B     		cmp	r3, #1	@ _10,
 2834 00a4 04D0     		beq	.L179	@,
 2835              	@ core/lpc17xx_uart.c:900: 	CHECK_PARAM(PARAM_FUNCTIONALSTATE(FIFOCfg->FIFO_ResetTxBuf));
 2836              		.loc 1 900 0 discriminator 2
 2837 00a6 4FF46171 		mov	r1, #900	@,
 2838 00aa 2A48     		ldr	r0, .L193+16	@,
 2839 00ac FFF7FEFF 		bl	check_failed	@
 2840              	.L179:
 2841              	@ core/lpc17xx_uart.c:902: 	tmp |= UART_FCR_FIFO_EN;
 901:core/lpc17xx_uart.c **** 
 902:core/lpc17xx_uart.c **** 	tmp |= UART_FCR_FIFO_EN;
 2842              		.loc 1 902 0 is_stmt 1
 2843 00b0 FB7B     		ldrb	r3, [r7, #15]	@ tmp147, tmp
 2844 00b2 43F00103 		orr	r3, r3, #1	@ tmp148, tmp147,
 2845 00b6 FB73     		strb	r3, [r7, #15]	@ tmp149, tmp
 2846              	@ core/lpc17xx_uart.c:903: 	switch (FIFOCfg->FIFO_Level){
 903:core/lpc17xx_uart.c **** 	switch (FIFOCfg->FIFO_Level){
 2847              		.loc 1 903 0
 2848 00b8 3B68     		ldr	r3, [r7]	@ tmp150, FIFOCfg
 2849 00ba DB78     		ldrb	r3, [r3, #3]	@ zero_extendqisi2	@ _11, FIFOCfg_32(D)->FIFO_Level
 2850 00bc 012B     		cmp	r3, #1	@ _12,
 2851 00be 04D0     		beq	.L181	@,
 2852 00c0 022B     		cmp	r3, #2	@ _12,
 2853 00c2 07D0     		beq	.L182	@,
 2854 00c4 002B     		cmp	r3, #0	@ _12,
 2855 00c6 0FD0     		beq	.L191	@,
 2856 00c8 09E0     		b	.L190	@
 2857              	.L181:
 2858              	@ core/lpc17xx_uart.c:908: 		tmp |= UART_FCR_TRG_LEV1;
 904:core/lpc17xx_uart.c **** 	case UART_FIFO_TRGLEV0:
 905:core/lpc17xx_uart.c **** 		tmp |= UART_FCR_TRG_LEV0;
 906:core/lpc17xx_uart.c **** 		break;
 907:core/lpc17xx_uart.c **** 	case UART_FIFO_TRGLEV1:
 908:core/lpc17xx_uart.c **** 		tmp |= UART_FCR_TRG_LEV1;
 2859              		.loc 1 908 0
 2860 00ca FB7B     		ldrb	r3, [r7, #15]	@ tmp151, tmp
 2861 00cc 43F04003 		orr	r3, r3, #64	@ tmp152, tmp151,
 2862 00d0 FB73     		strb	r3, [r7, #15]	@ tmp153, tmp
 2863              	@ core/lpc17xx_uart.c:909: 		break;
 909:core/lpc17xx_uart.c **** 		break;
 2864              		.loc 1 909 0
 2865 00d2 0AE0     		b	.L184	@
 2866              	.L182:
 2867              	@ core/lpc17xx_uart.c:911: 		tmp |= UART_FCR_TRG_LEV2;
 910:core/lpc17xx_uart.c **** 	case UART_FIFO_TRGLEV2:
 911:core/lpc17xx_uart.c **** 		tmp |= UART_FCR_TRG_LEV2;
 2868              		.loc 1 911 0
 2869 00d4 FB7B     		ldrb	r3, [r7, #15]	@ tmp154, tmp
 2870 00d6 63F07F03 		orn	r3, r3, #127	@ tmp155, tmp154,
 2871 00da FB73     		strb	r3, [r7, #15]	@ tmp156, tmp
 2872              	@ core/lpc17xx_uart.c:912: 		break;
 912:core/lpc17xx_uart.c **** 		break;
 2873              		.loc 1 912 0
 2874 00dc 05E0     		b	.L184	@
 2875              	.L190:
 2876              	@ core/lpc17xx_uart.c:915: 		tmp |= UART_FCR_TRG_LEV3;
ARM GAS  /tmp/ccf79Nqw.s 			page 68


 913:core/lpc17xx_uart.c **** 	case UART_FIFO_TRGLEV3:
 914:core/lpc17xx_uart.c **** 	default:
 915:core/lpc17xx_uart.c **** 		tmp |= UART_FCR_TRG_LEV3;
 2877              		.loc 1 915 0
 2878 00de FB7B     		ldrb	r3, [r7, #15]	@ tmp157, tmp
 2879 00e0 63F03F03 		orn	r3, r3, #63	@ tmp158, tmp157,
 2880 00e4 FB73     		strb	r3, [r7, #15]	@ tmp159, tmp
 2881              	@ core/lpc17xx_uart.c:916: 		break;
 916:core/lpc17xx_uart.c **** 		break;
 2882              		.loc 1 916 0
 2883 00e6 00E0     		b	.L184	@
 2884              	.L191:
 2885              	@ core/lpc17xx_uart.c:906: 		break;
 906:core/lpc17xx_uart.c **** 	case UART_FIFO_TRGLEV1:
 2886              		.loc 1 906 0
 2887 00e8 00BF     		nop
 2888              	.L184:
 2889              	@ core/lpc17xx_uart.c:919: 	if (FIFOCfg->FIFO_ResetTxBuf == ENABLE)
 917:core/lpc17xx_uart.c **** 	}
 918:core/lpc17xx_uart.c **** 
 919:core/lpc17xx_uart.c **** 	if (FIFOCfg->FIFO_ResetTxBuf == ENABLE)
 2890              		.loc 1 919 0
 2891 00ea 3B68     		ldr	r3, [r7]	@ tmp160, FIFOCfg
 2892 00ec 5B78     		ldrb	r3, [r3, #1]	@ zero_extendqisi2	@ _13, FIFOCfg_32(D)->FIFO_ResetTxBuf
 2893 00ee 012B     		cmp	r3, #1	@ _13,
 2894 00f0 03D1     		bne	.L185	@,
 2895              	@ core/lpc17xx_uart.c:921: 		tmp |= UART_FCR_TX_RS;
 920:core/lpc17xx_uart.c **** 	{
 921:core/lpc17xx_uart.c **** 		tmp |= UART_FCR_TX_RS;
 2896              		.loc 1 921 0
 2897 00f2 FB7B     		ldrb	r3, [r7, #15]	@ tmp161, tmp
 2898 00f4 43F00403 		orr	r3, r3, #4	@ tmp162, tmp161,
 2899 00f8 FB73     		strb	r3, [r7, #15]	@ tmp163, tmp
 2900              	.L185:
 2901              	@ core/lpc17xx_uart.c:923: 	if (FIFOCfg->FIFO_ResetRxBuf == ENABLE)
 922:core/lpc17xx_uart.c **** 	}
 923:core/lpc17xx_uart.c **** 	if (FIFOCfg->FIFO_ResetRxBuf == ENABLE)
 2902              		.loc 1 923 0
 2903 00fa 3B68     		ldr	r3, [r7]	@ tmp164, FIFOCfg
 2904 00fc 1B78     		ldrb	r3, [r3]	@ zero_extendqisi2	@ _14, FIFOCfg_32(D)->FIFO_ResetRxBuf
 2905 00fe 012B     		cmp	r3, #1	@ _14,
 2906 0100 03D1     		bne	.L186	@,
 2907              	@ core/lpc17xx_uart.c:925: 		tmp |= UART_FCR_RX_RS;
 924:core/lpc17xx_uart.c **** 	{
 925:core/lpc17xx_uart.c **** 		tmp |= UART_FCR_RX_RS;
 2908              		.loc 1 925 0
 2909 0102 FB7B     		ldrb	r3, [r7, #15]	@ tmp165, tmp
 2910 0104 43F00203 		orr	r3, r3, #2	@ tmp166, tmp165,
 2911 0108 FB73     		strb	r3, [r7, #15]	@ tmp167, tmp
 2912              	.L186:
 2913              	@ core/lpc17xx_uart.c:927: 	if (FIFOCfg->FIFO_DMAMode == ENABLE)
 926:core/lpc17xx_uart.c **** 	}
 927:core/lpc17xx_uart.c **** 	if (FIFOCfg->FIFO_DMAMode == ENABLE)
 2914              		.loc 1 927 0
 2915 010a 3B68     		ldr	r3, [r7]	@ tmp168, FIFOCfg
 2916 010c 9B78     		ldrb	r3, [r3, #2]	@ zero_extendqisi2	@ _15, FIFOCfg_32(D)->FIFO_DMAMode
 2917 010e 012B     		cmp	r3, #1	@ _15,
ARM GAS  /tmp/ccf79Nqw.s 			page 69


 2918 0110 03D1     		bne	.L187	@,
 2919              	@ core/lpc17xx_uart.c:929: 		tmp |= UART_FCR_DMAMODE_SEL;
 928:core/lpc17xx_uart.c **** 	{
 929:core/lpc17xx_uart.c **** 		tmp |= UART_FCR_DMAMODE_SEL;
 2920              		.loc 1 929 0
 2921 0112 FB7B     		ldrb	r3, [r7, #15]	@ tmp169, tmp
 2922 0114 43F00803 		orr	r3, r3, #8	@ tmp170, tmp169,
 2923 0118 FB73     		strb	r3, [r7, #15]	@ tmp171, tmp
 2924              	.L187:
 2925              	@ core/lpc17xx_uart.c:934: 	if (((LPC_UART1_TypeDef *)UARTx) == LPC_UART1)
 930:core/lpc17xx_uart.c **** 	}
 931:core/lpc17xx_uart.c **** 
 932:core/lpc17xx_uart.c **** 
 933:core/lpc17xx_uart.c **** 	//write to FIFO control register
 934:core/lpc17xx_uart.c **** 	if (((LPC_UART1_TypeDef *)UARTx) == LPC_UART1)
 2926              		.loc 1 934 0
 2927 011a 7B68     		ldr	r3, [r7, #4]	@ tmp172, UARTx
 2928 011c 0A4A     		ldr	r2, .L193+4	@ tmp173,
 2929 011e 9342     		cmp	r3, r2	@ tmp172, tmp173
 2930 0120 06D1     		bne	.L188	@,
 2931              	@ core/lpc17xx_uart.c:936: 		((LPC_UART1_TypeDef *)UARTx)->/*IIFCR.*/FCR = tmp & UART_FCR_BITMASK;
 935:core/lpc17xx_uart.c **** 	{
 936:core/lpc17xx_uart.c **** 		((LPC_UART1_TypeDef *)UARTx)->/*IIFCR.*/FCR = tmp & UART_FCR_BITMASK;
 2932              		.loc 1 936 0
 2933 0122 FB7B     		ldrb	r3, [r7, #15]	@ tmp174, tmp
 2934 0124 23F03003 		bic	r3, r3, #48	@ tmp175, tmp174,
 2935 0128 DAB2     		uxtb	r2, r3	@ _16, tmp175
 2936 012a 7B68     		ldr	r3, [r7, #4]	@ tmp176, UARTx
 2937 012c 1A72     		strb	r2, [r3, #8]	@ tmp177, MEM[(struct LPC_UART1_TypeDef *)UARTx_29(D)].D.4816.FCR
 2938              	@ core/lpc17xx_uart.c:943: }
 937:core/lpc17xx_uart.c **** 	}
 938:core/lpc17xx_uart.c **** 	else
 939:core/lpc17xx_uart.c **** 	{
 940:core/lpc17xx_uart.c **** 		UARTx->/*IIFCR.*/FCR = tmp & UART_FCR_BITMASK;
 941:core/lpc17xx_uart.c **** 	}
 942:core/lpc17xx_uart.c **** 
 943:core/lpc17xx_uart.c **** }
 2939              		.loc 1 943 0
 2940 012e 05E0     		b	.L192	@
 2941              	.L188:
 2942              	@ core/lpc17xx_uart.c:940: 		UARTx->/*IIFCR.*/FCR = tmp & UART_FCR_BITMASK;
 940:core/lpc17xx_uart.c **** 	}
 2943              		.loc 1 940 0
 2944 0130 FB7B     		ldrb	r3, [r7, #15]	@ tmp178, tmp
 2945 0132 23F03003 		bic	r3, r3, #48	@ tmp179, tmp178,
 2946 0136 DAB2     		uxtb	r2, r3	@ _17, tmp179
 2947 0138 7B68     		ldr	r3, [r7, #4]	@ tmp180, UARTx
 2948 013a 1A72     		strb	r2, [r3, #8]	@ tmp181, UARTx_29(D)->D.4756.FCR
 2949              	.L192:
 2950              	@ core/lpc17xx_uart.c:943: }
 2951              		.loc 1 943 0
 2952 013c 00BF     		nop
 2953 013e 1037     		adds	r7, r7, #16	@,,
 2954              		.cfi_def_cfa_offset 8
 2955 0140 BD46     		mov	sp, r7	@,
 2956              		.cfi_def_cfa_register 13
 2957              		@ sp needed	@
ARM GAS  /tmp/ccf79Nqw.s 			page 70


 2958 0142 80BD     		pop	{r7, pc}	@
 2959              	.L194:
 2960              		.align	2
 2961              	.L193:
 2962 0144 00C00040 		.word	1073790976
 2963 0148 00000140 		.word	1073807360
 2964 014c 00800940 		.word	1074364416
 2965 0150 00C00940 		.word	1074380800
 2966 0154 00000000 		.word	.LC0
 2967              		.cfi_endproc
 2968              	.LFE70:
 2969              		.size	UART_FIFOConfig, .-UART_FIFOConfig
 2970              		.section	.text.UART_FIFOConfigStructInit,"ax",%progbits
 2971              		.align	1
 2972              		.global	UART_FIFOConfigStructInit
 2973              		.syntax unified
 2974              		.thumb
 2975              		.thumb_func
 2976              		.fpu softvfp
 2977              		.type	UART_FIFOConfigStructInit, %function
 2978              	UART_FIFOConfigStructInit:
 2979              	.LFB71:
 944:core/lpc17xx_uart.c **** 
 945:core/lpc17xx_uart.c **** 
 946:core/lpc17xx_uart.c **** /*****************************************************************************//**
 947:core/lpc17xx_uart.c **** * @brief		Fills each UART_FIFOInitStruct member with its default value:
 948:core/lpc17xx_uart.c **** * 				- FIFO_DMAMode = DISABLE
 949:core/lpc17xx_uart.c **** * 				- FIFO_Level = UART_FIFO_TRGLEV0
 950:core/lpc17xx_uart.c **** * 				- FIFO_ResetRxBuf = ENABLE
 951:core/lpc17xx_uart.c **** * 				- FIFO_ResetTxBuf = ENABLE
 952:core/lpc17xx_uart.c **** * 				- FIFO_State = ENABLE
 953:core/lpc17xx_uart.c **** 
 954:core/lpc17xx_uart.c **** * @param[in]	UART_FIFOInitStruct Pointer to a UART_FIFO_CFG_Type structure
 955:core/lpc17xx_uart.c **** *                    which will be initialized.
 956:core/lpc17xx_uart.c **** * @return		None
 957:core/lpc17xx_uart.c **** *******************************************************************************/
 958:core/lpc17xx_uart.c **** void UART_FIFOConfigStructInit(UART_FIFO_CFG_Type *UART_FIFOInitStruct)
 959:core/lpc17xx_uart.c **** {
 2980              		.loc 1 959 0
 2981              		.cfi_startproc
 2982              		@ args = 0, pretend = 0, frame = 8
 2983              		@ frame_needed = 1, uses_anonymous_args = 0
 2984              		@ link register save eliminated.
 2985 0000 80B4     		push	{r7}	@
 2986              		.cfi_def_cfa_offset 4
 2987              		.cfi_offset 7, -4
 2988 0002 83B0     		sub	sp, sp, #12	@,,
 2989              		.cfi_def_cfa_offset 16
 2990 0004 00AF     		add	r7, sp, #0	@,,
 2991              		.cfi_def_cfa_register 7
 2992 0006 7860     		str	r0, [r7, #4]	@ UART_FIFOInitStruct, UART_FIFOInitStruct
 2993              	@ core/lpc17xx_uart.c:960: 	UART_FIFOInitStruct->FIFO_DMAMode = DISABLE;
 960:core/lpc17xx_uart.c **** 	UART_FIFOInitStruct->FIFO_DMAMode = DISABLE;
 2994              		.loc 1 960 0
 2995 0008 7B68     		ldr	r3, [r7, #4]	@ tmp110, UART_FIFOInitStruct
 2996 000a 0022     		movs	r2, #0	@ tmp111,
 2997 000c 9A70     		strb	r2, [r3, #2]	@ tmp112, UART_FIFOInitStruct_2(D)->FIFO_DMAMode
ARM GAS  /tmp/ccf79Nqw.s 			page 71


 2998              	@ core/lpc17xx_uart.c:961: 	UART_FIFOInitStruct->FIFO_Level = UART_FIFO_TRGLEV0;
 961:core/lpc17xx_uart.c **** 	UART_FIFOInitStruct->FIFO_Level = UART_FIFO_TRGLEV0;
 2999              		.loc 1 961 0
 3000 000e 7B68     		ldr	r3, [r7, #4]	@ tmp113, UART_FIFOInitStruct
 3001 0010 0022     		movs	r2, #0	@ tmp114,
 3002 0012 DA70     		strb	r2, [r3, #3]	@ tmp115, UART_FIFOInitStruct_2(D)->FIFO_Level
 3003              	@ core/lpc17xx_uart.c:962: 	UART_FIFOInitStruct->FIFO_ResetRxBuf = ENABLE;
 962:core/lpc17xx_uart.c **** 	UART_FIFOInitStruct->FIFO_ResetRxBuf = ENABLE;
 3004              		.loc 1 962 0
 3005 0014 7B68     		ldr	r3, [r7, #4]	@ tmp116, UART_FIFOInitStruct
 3006 0016 0122     		movs	r2, #1	@ tmp117,
 3007 0018 1A70     		strb	r2, [r3]	@ tmp118, UART_FIFOInitStruct_2(D)->FIFO_ResetRxBuf
 3008              	@ core/lpc17xx_uart.c:963: 	UART_FIFOInitStruct->FIFO_ResetTxBuf = ENABLE;
 963:core/lpc17xx_uart.c **** 	UART_FIFOInitStruct->FIFO_ResetTxBuf = ENABLE;
 3009              		.loc 1 963 0
 3010 001a 7B68     		ldr	r3, [r7, #4]	@ tmp119, UART_FIFOInitStruct
 3011 001c 0122     		movs	r2, #1	@ tmp120,
 3012 001e 5A70     		strb	r2, [r3, #1]	@ tmp121, UART_FIFOInitStruct_2(D)->FIFO_ResetTxBuf
 3013              	@ core/lpc17xx_uart.c:964: }
 964:core/lpc17xx_uart.c **** }
 3014              		.loc 1 964 0
 3015 0020 00BF     		nop
 3016 0022 0C37     		adds	r7, r7, #12	@,,
 3017              		.cfi_def_cfa_offset 4
 3018 0024 BD46     		mov	sp, r7	@,
 3019              		.cfi_def_cfa_register 13
 3020              		@ sp needed	@
 3021 0026 80BC     		pop	{r7}	@
 3022              		.cfi_restore 7
 3023              		.cfi_def_cfa_offset 0
 3024 0028 7047     		bx	lr	@
 3025              		.cfi_endproc
 3026              	.LFE71:
 3027              		.size	UART_FIFOConfigStructInit, .-UART_FIFOConfigStructInit
 3028              		.section	.text.UART_ABCmd,"ax",%progbits
 3029              		.align	1
 3030              		.global	UART_ABCmd
 3031              		.syntax unified
 3032              		.thumb
 3033              		.thumb_func
 3034              		.fpu softvfp
 3035              		.type	UART_ABCmd, %function
 3036              	UART_ABCmd:
 3037              	.LFB72:
 965:core/lpc17xx_uart.c **** 
 966:core/lpc17xx_uart.c **** 
 967:core/lpc17xx_uart.c **** /*********************************************************************//**
 968:core/lpc17xx_uart.c ****  * @brief		Start/Stop Auto Baudrate activity
 969:core/lpc17xx_uart.c ****  * @param[in]	UARTx	UART peripheral selected, should be UART0, UART1,
 970:core/lpc17xx_uart.c ****  * 						UART2 or UART3.
 971:core/lpc17xx_uart.c ****  * @param[in]	ABConfigStruct	A pointer to UART_AB_CFG_Type structure that
 972:core/lpc17xx_uart.c ****  * 								contains specified information about UART
 973:core/lpc17xx_uart.c ****  * 								auto baudrate configuration
 974:core/lpc17xx_uart.c ****  * @param[in]	NewState New State of Auto baudrate activity, should be:
 975:core/lpc17xx_uart.c ****  * 				- ENABLE: Start this activity
 976:core/lpc17xx_uart.c ****  *				- DISABLE: Stop this activity
 977:core/lpc17xx_uart.c ****  * Note:		Auto-baudrate mode enable bit will be cleared once this mode
ARM GAS  /tmp/ccf79Nqw.s 			page 72


 978:core/lpc17xx_uart.c ****  * 				completed.
 979:core/lpc17xx_uart.c ****  * @return 		none
 980:core/lpc17xx_uart.c ****  **********************************************************************/
 981:core/lpc17xx_uart.c **** void UART_ABCmd(LPC_UART_TypeDef *UARTx, UART_AB_CFG_Type *ABConfigStruct, \
 982:core/lpc17xx_uart.c **** 				FunctionalState NewState)
 983:core/lpc17xx_uart.c **** {
 3038              		.loc 1 983 0
 3039              		.cfi_startproc
 3040              		@ args = 0, pretend = 0, frame = 24
 3041              		@ frame_needed = 1, uses_anonymous_args = 0
 3042 0000 80B5     		push	{r7, lr}	@
 3043              		.cfi_def_cfa_offset 8
 3044              		.cfi_offset 7, -8
 3045              		.cfi_offset 14, -4
 3046 0002 86B0     		sub	sp, sp, #24	@,,
 3047              		.cfi_def_cfa_offset 32
 3048 0004 00AF     		add	r7, sp, #0	@,,
 3049              		.cfi_def_cfa_register 7
 3050 0006 F860     		str	r0, [r7, #12]	@ UARTx, UARTx
 3051 0008 B960     		str	r1, [r7, #8]	@ ABConfigStruct, ABConfigStruct
 3052 000a 1346     		mov	r3, r2	@ tmp122, NewState
 3053 000c FB71     		strb	r3, [r7, #7]	@ tmp123, NewState
 3054              	@ core/lpc17xx_uart.c:986: 	CHECK_PARAM(PARAM_UARTx(UARTx));
 984:core/lpc17xx_uart.c **** 	uint32_t tmp;
 985:core/lpc17xx_uart.c **** 
 986:core/lpc17xx_uart.c **** 	CHECK_PARAM(PARAM_UARTx(UARTx));
 3055              		.loc 1 986 0
 3056 000e FB68     		ldr	r3, [r7, #12]	@ tmp124, UARTx
 3057 0010 434A     		ldr	r2, .L207	@ tmp125,
 3058 0012 9342     		cmp	r3, r2	@ tmp124, tmp125
 3059 0014 10D0     		beq	.L197	@,
 3060              	@ core/lpc17xx_uart.c:986: 	CHECK_PARAM(PARAM_UARTx(UARTx));
 3061              		.loc 1 986 0 is_stmt 0 discriminator 1
 3062 0016 FB68     		ldr	r3, [r7, #12]	@ tmp126, UARTx
 3063 0018 424A     		ldr	r2, .L207+4	@ tmp127,
 3064 001a 9342     		cmp	r3, r2	@ tmp126, tmp127
 3065 001c 0CD0     		beq	.L197	@,
 3066              	@ core/lpc17xx_uart.c:986: 	CHECK_PARAM(PARAM_UARTx(UARTx));
 3067              		.loc 1 986 0 discriminator 2
 3068 001e FB68     		ldr	r3, [r7, #12]	@ tmp128, UARTx
 3069 0020 414A     		ldr	r2, .L207+8	@ tmp129,
 3070 0022 9342     		cmp	r3, r2	@ tmp128, tmp129
 3071 0024 08D0     		beq	.L197	@,
 3072              	@ core/lpc17xx_uart.c:986: 	CHECK_PARAM(PARAM_UARTx(UARTx));
 3073              		.loc 1 986 0 discriminator 3
 3074 0026 FB68     		ldr	r3, [r7, #12]	@ tmp130, UARTx
 3075 0028 404A     		ldr	r2, .L207+12	@ tmp131,
 3076 002a 9342     		cmp	r3, r2	@ tmp130, tmp131
 3077 002c 04D0     		beq	.L197	@,
 3078              	@ core/lpc17xx_uart.c:986: 	CHECK_PARAM(PARAM_UARTx(UARTx));
 3079              		.loc 1 986 0 discriminator 4
 3080 002e 40F2DA31 		movw	r1, #986	@,
 3081 0032 3F48     		ldr	r0, .L207+16	@,
 3082 0034 FFF7FEFF 		bl	check_failed	@
 3083              	.L197:
 3084              	@ core/lpc17xx_uart.c:987: 	CHECK_PARAM(PARAM_FUNCTIONALSTATE(NewState));
 987:core/lpc17xx_uart.c **** 	CHECK_PARAM(PARAM_FUNCTIONALSTATE(NewState));
ARM GAS  /tmp/ccf79Nqw.s 			page 73


 3085              		.loc 1 987 0 is_stmt 1
 3086 0038 FB79     		ldrb	r3, [r7, #7]	@ zero_extendqisi2	@ tmp132, NewState
 3087 003a 002B     		cmp	r3, #0	@ tmp132,
 3088 003c 07D0     		beq	.L198	@,
 3089              	@ core/lpc17xx_uart.c:987: 	CHECK_PARAM(PARAM_FUNCTIONALSTATE(NewState));
 3090              		.loc 1 987 0 is_stmt 0 discriminator 1
 3091 003e FB79     		ldrb	r3, [r7, #7]	@ zero_extendqisi2	@ tmp133, NewState
 3092 0040 012B     		cmp	r3, #1	@ tmp133,
 3093 0042 04D0     		beq	.L198	@,
 3094              	@ core/lpc17xx_uart.c:987: 	CHECK_PARAM(PARAM_FUNCTIONALSTATE(NewState));
 3095              		.loc 1 987 0 discriminator 2
 3096 0044 40F2DB31 		movw	r1, #987	@,
 3097 0048 3948     		ldr	r0, .L207+16	@,
 3098 004a FFF7FEFF 		bl	check_failed	@
 3099              	.L198:
 3100              	@ core/lpc17xx_uart.c:989: 	tmp = 0;
 988:core/lpc17xx_uart.c **** 
 989:core/lpc17xx_uart.c **** 	tmp = 0;
 3101              		.loc 1 989 0 is_stmt 1
 3102 004e 0023     		movs	r3, #0	@ tmp134,
 3103 0050 7B61     		str	r3, [r7, #20]	@ tmp134, tmp
 3104              	@ core/lpc17xx_uart.c:990: 	if (NewState == ENABLE) {
 990:core/lpc17xx_uart.c **** 	if (NewState == ENABLE) {
 3105              		.loc 1 990 0
 3106 0052 FB79     		ldrb	r3, [r7, #7]	@ zero_extendqisi2	@ tmp135, NewState
 3107 0054 012B     		cmp	r3, #1	@ tmp135,
 3108 0056 0FD1     		bne	.L199	@,
 3109              	@ core/lpc17xx_uart.c:991: 		if (ABConfigStruct->ABMode == UART_AUTOBAUD_MODE1){
 991:core/lpc17xx_uart.c **** 		if (ABConfigStruct->ABMode == UART_AUTOBAUD_MODE1){
 3110              		.loc 1 991 0
 3111 0058 BB68     		ldr	r3, [r7, #8]	@ tmp136, ABConfigStruct
 3112 005a 1B78     		ldrb	r3, [r3]	@ zero_extendqisi2	@ _1, ABConfigStruct_25(D)->ABMode
 3113 005c 012B     		cmp	r3, #1	@ _1,
 3114 005e 03D1     		bne	.L200	@,
 3115              	@ core/lpc17xx_uart.c:992: 			tmp |= UART_ACR_MODE;
 992:core/lpc17xx_uart.c **** 			tmp |= UART_ACR_MODE;
 3116              		.loc 1 992 0
 3117 0060 7B69     		ldr	r3, [r7, #20]	@ tmp138, tmp
 3118 0062 43F00203 		orr	r3, r3, #2	@ tmp137, tmp138,
 3119 0066 7B61     		str	r3, [r7, #20]	@ tmp137, tmp
 3120              	.L200:
 3121              	@ core/lpc17xx_uart.c:994: 		if (ABConfigStruct->AutoRestart == ENABLE){
 993:core/lpc17xx_uart.c **** 		}
 994:core/lpc17xx_uart.c **** 		if (ABConfigStruct->AutoRestart == ENABLE){
 3122              		.loc 1 994 0
 3123 0068 BB68     		ldr	r3, [r7, #8]	@ tmp139, ABConfigStruct
 3124 006a 5B78     		ldrb	r3, [r3, #1]	@ zero_extendqisi2	@ _2, ABConfigStruct_25(D)->AutoRestart
 3125 006c 012B     		cmp	r3, #1	@ _2,
 3126 006e 03D1     		bne	.L199	@,
 3127              	@ core/lpc17xx_uart.c:995: 			tmp |= UART_ACR_AUTO_RESTART;
 995:core/lpc17xx_uart.c **** 			tmp |= UART_ACR_AUTO_RESTART;
 3128              		.loc 1 995 0
 3129 0070 7B69     		ldr	r3, [r7, #20]	@ tmp141, tmp
 3130 0072 43F00403 		orr	r3, r3, #4	@ tmp140, tmp141,
 3131 0076 7B61     		str	r3, [r7, #20]	@ tmp140, tmp
 3132              	.L199:
 3133              	@ core/lpc17xx_uart.c:999: 	if (((LPC_UART1_TypeDef *)UARTx) == LPC_UART1)
ARM GAS  /tmp/ccf79Nqw.s 			page 74


 996:core/lpc17xx_uart.c **** 		}
 997:core/lpc17xx_uart.c **** 	}
 998:core/lpc17xx_uart.c **** 
 999:core/lpc17xx_uart.c **** 	if (((LPC_UART1_TypeDef *)UARTx) == LPC_UART1)
 3134              		.loc 1 999 0
 3135 0078 FB68     		ldr	r3, [r7, #12]	@ tmp142, UARTx
 3136 007a 2A4A     		ldr	r2, .L207+4	@ tmp143,
 3137 007c 9342     		cmp	r3, r2	@ tmp142, tmp143
 3138 007e 25D1     		bne	.L201	@,
 3139              	@ core/lpc17xx_uart.c:1001: 		if (NewState == ENABLE)
1000:core/lpc17xx_uart.c **** 	{
1001:core/lpc17xx_uart.c **** 		if (NewState == ENABLE)
 3140              		.loc 1 1001 0
 3141 0080 FB79     		ldrb	r3, [r7, #7]	@ zero_extendqisi2	@ tmp144, NewState
 3142 0082 012B     		cmp	r3, #1	@ tmp144,
 3143 0084 1ED1     		bne	.L202	@,
 3144              	@ core/lpc17xx_uart.c:1004: 			((LPC_UART1_TypeDef *)UARTx)->LCR |= UART_LCR_DLAB_EN;
1002:core/lpc17xx_uart.c **** 		{
1003:core/lpc17xx_uart.c **** 			// Clear DLL and DLM value
1004:core/lpc17xx_uart.c **** 			((LPC_UART1_TypeDef *)UARTx)->LCR |= UART_LCR_DLAB_EN;
 3145              		.loc 1 1004 0
 3146 0086 FB68     		ldr	r3, [r7, #12]	@ tmp145, UARTx
 3147 0088 1B7B     		ldrb	r3, [r3, #12]	@ tmp147, MEM[(struct LPC_UART1_TypeDef *)UARTx_19(D)].LCR
 3148 008a DBB2     		uxtb	r3, r3	@ _3, tmp147
 3149 008c 63F07F03 		orn	r3, r3, #127	@ tmp148, _3,
 3150 0090 DAB2     		uxtb	r2, r3	@ _4, tmp148
 3151 0092 FB68     		ldr	r3, [r7, #12]	@ tmp149, UARTx
 3152 0094 1A73     		strb	r2, [r3, #12]	@ tmp150, MEM[(struct LPC_UART1_TypeDef *)UARTx_19(D)].LCR
 3153              	@ core/lpc17xx_uart.c:1005: 			((LPC_UART1_TypeDef *)UARTx)->DLL = 0;
1005:core/lpc17xx_uart.c **** 			((LPC_UART1_TypeDef *)UARTx)->DLL = 0;
 3154              		.loc 1 1005 0
 3155 0096 FB68     		ldr	r3, [r7, #12]	@ tmp151, UARTx
 3156 0098 0022     		movs	r2, #0	@ tmp152,
 3157 009a 1A70     		strb	r2, [r3]	@ tmp153, MEM[(struct LPC_UART1_TypeDef *)UARTx_19(D)].D.4808.DLL
 3158              	@ core/lpc17xx_uart.c:1006: 			((LPC_UART1_TypeDef *)UARTx)->DLM = 0;
1006:core/lpc17xx_uart.c **** 			((LPC_UART1_TypeDef *)UARTx)->DLM = 0;
 3159              		.loc 1 1006 0
 3160 009c FB68     		ldr	r3, [r7, #12]	@ tmp154, UARTx
 3161 009e 0022     		movs	r2, #0	@ tmp155,
 3162 00a0 1A71     		strb	r2, [r3, #4]	@ tmp156, MEM[(struct LPC_UART1_TypeDef *)UARTx_19(D)].D.4812.DLM
 3163              	@ core/lpc17xx_uart.c:1007: 			((LPC_UART1_TypeDef *)UARTx)->LCR &= ~UART_LCR_DLAB_EN;
1007:core/lpc17xx_uart.c **** 			((LPC_UART1_TypeDef *)UARTx)->LCR &= ~UART_LCR_DLAB_EN;
 3164              		.loc 1 1007 0
 3165 00a2 FB68     		ldr	r3, [r7, #12]	@ tmp157, UARTx
 3166 00a4 1B7B     		ldrb	r3, [r3, #12]	@ tmp159, MEM[(struct LPC_UART1_TypeDef *)UARTx_19(D)].LCR
 3167 00a6 DBB2     		uxtb	r3, r3	@ _5, tmp159
 3168 00a8 03F07F03 		and	r3, r3, #127	@ tmp160, _5,
 3169 00ac DAB2     		uxtb	r2, r3	@ _6, tmp160
 3170 00ae FB68     		ldr	r3, [r7, #12]	@ tmp161, UARTx
 3171 00b0 1A73     		strb	r2, [r3, #12]	@ tmp162, MEM[(struct LPC_UART1_TypeDef *)UARTx_19(D)].LCR
 3172              	@ core/lpc17xx_uart.c:1009: 			((LPC_UART1_TypeDef *)UARTx)->FDR = 0x10;
1008:core/lpc17xx_uart.c **** 			// FDR value must be reset to default value
1009:core/lpc17xx_uart.c **** 			((LPC_UART1_TypeDef *)UARTx)->FDR = 0x10;
 3173              		.loc 1 1009 0
 3174 00b2 FB68     		ldr	r3, [r7, #12]	@ tmp163, UARTx
 3175 00b4 1022     		movs	r2, #16	@ tmp164,
 3176 00b6 9A62     		str	r2, [r3, #40]	@ tmp164, MEM[(struct LPC_UART1_TypeDef *)UARTx_19(D)].FDR
ARM GAS  /tmp/ccf79Nqw.s 			page 75


 3177              	@ core/lpc17xx_uart.c:1010: 			((LPC_UART1_TypeDef *)UARTx)->ACR = UART_ACR_START | tmp;
1010:core/lpc17xx_uart.c **** 			((LPC_UART1_TypeDef *)UARTx)->ACR = UART_ACR_START | tmp;
 3178              		.loc 1 1010 0
 3179 00b8 7B69     		ldr	r3, [r7, #20]	@ tmp165, tmp
 3180 00ba 43F00102 		orr	r2, r3, #1	@ _7, tmp165,
 3181 00be FB68     		ldr	r3, [r7, #12]	@ tmp166, UARTx
 3182 00c0 1A62     		str	r2, [r3, #32]	@ _7, MEM[(struct LPC_UART1_TypeDef *)UARTx_19(D)].ACR
 3183              	@ core/lpc17xx_uart.c:1035: }
1011:core/lpc17xx_uart.c **** 		}
1012:core/lpc17xx_uart.c **** 		else
1013:core/lpc17xx_uart.c **** 		{
1014:core/lpc17xx_uart.c **** 			((LPC_UART1_TypeDef *)UARTx)->ACR = 0;
1015:core/lpc17xx_uart.c **** 		}
1016:core/lpc17xx_uart.c **** 	}
1017:core/lpc17xx_uart.c **** 	else
1018:core/lpc17xx_uart.c **** 	{
1019:core/lpc17xx_uart.c **** 		if (NewState == ENABLE)
1020:core/lpc17xx_uart.c **** 		{
1021:core/lpc17xx_uart.c **** 			// Clear DLL and DLM value
1022:core/lpc17xx_uart.c **** 			UARTx->LCR |= UART_LCR_DLAB_EN;
1023:core/lpc17xx_uart.c **** 			UARTx->DLL = 0;
1024:core/lpc17xx_uart.c **** 			UARTx->DLM = 0;
1025:core/lpc17xx_uart.c **** 			UARTx->LCR &= ~UART_LCR_DLAB_EN;
1026:core/lpc17xx_uart.c **** 			// FDR value must be reset to default value
1027:core/lpc17xx_uart.c **** 			UARTx->FDR = 0x10;
1028:core/lpc17xx_uart.c **** 			UARTx->ACR = UART_ACR_START | tmp;
1029:core/lpc17xx_uart.c **** 		}
1030:core/lpc17xx_uart.c **** 		else
1031:core/lpc17xx_uart.c **** 		{
1032:core/lpc17xx_uart.c **** 			UARTx->ACR = 0;
1033:core/lpc17xx_uart.c **** 		}
1034:core/lpc17xx_uart.c **** 	}
1035:core/lpc17xx_uart.c **** }
 3184              		.loc 1 1035 0
 3185 00c2 29E0     		b	.L206	@
 3186              	.L202:
 3187              	@ core/lpc17xx_uart.c:1014: 			((LPC_UART1_TypeDef *)UARTx)->ACR = 0;
1014:core/lpc17xx_uart.c **** 		}
 3188              		.loc 1 1014 0
 3189 00c4 FB68     		ldr	r3, [r7, #12]	@ tmp167, UARTx
 3190 00c6 0022     		movs	r2, #0	@ tmp168,
 3191 00c8 1A62     		str	r2, [r3, #32]	@ tmp168, MEM[(struct LPC_UART1_TypeDef *)UARTx_19(D)].ACR
 3192              	@ core/lpc17xx_uart.c:1035: }
 3193              		.loc 1 1035 0
 3194 00ca 25E0     		b	.L206	@
 3195              	.L201:
 3196              	@ core/lpc17xx_uart.c:1019: 		if (NewState == ENABLE)
1019:core/lpc17xx_uart.c **** 		{
 3197              		.loc 1 1019 0
 3198 00cc FB79     		ldrb	r3, [r7, #7]	@ zero_extendqisi2	@ tmp169, NewState
 3199 00ce 012B     		cmp	r3, #1	@ tmp169,
 3200 00d0 1FD1     		bne	.L205	@,
 3201              	@ core/lpc17xx_uart.c:1022: 			UARTx->LCR |= UART_LCR_DLAB_EN;
1022:core/lpc17xx_uart.c **** 			UARTx->DLL = 0;
 3202              		.loc 1 1022 0
 3203 00d2 FB68     		ldr	r3, [r7, #12]	@ tmp170, UARTx
 3204 00d4 1B7B     		ldrb	r3, [r3, #12]	@ tmp172, UARTx_19(D)->LCR
ARM GAS  /tmp/ccf79Nqw.s 			page 76


 3205 00d6 DBB2     		uxtb	r3, r3	@ _8, tmp172
 3206 00d8 63F07F03 		orn	r3, r3, #127	@ tmp173, _8,
 3207 00dc DAB2     		uxtb	r2, r3	@ _9, tmp173
 3208 00de FB68     		ldr	r3, [r7, #12]	@ tmp174, UARTx
 3209 00e0 1A73     		strb	r2, [r3, #12]	@ tmp175, UARTx_19(D)->LCR
 3210              	@ core/lpc17xx_uart.c:1023: 			UARTx->DLL = 0;
1023:core/lpc17xx_uart.c **** 			UARTx->DLM = 0;
 3211              		.loc 1 1023 0
 3212 00e2 FB68     		ldr	r3, [r7, #12]	@ tmp176, UARTx
 3213 00e4 0022     		movs	r2, #0	@ tmp177,
 3214 00e6 1A70     		strb	r2, [r3]	@ tmp178, UARTx_19(D)->D.4748.DLL
 3215              	@ core/lpc17xx_uart.c:1024: 			UARTx->DLM = 0;
1024:core/lpc17xx_uart.c **** 			UARTx->LCR &= ~UART_LCR_DLAB_EN;
 3216              		.loc 1 1024 0
 3217 00e8 FB68     		ldr	r3, [r7, #12]	@ tmp179, UARTx
 3218 00ea 0022     		movs	r2, #0	@ tmp180,
 3219 00ec 1A71     		strb	r2, [r3, #4]	@ tmp181, UARTx_19(D)->D.4752.DLM
 3220              	@ core/lpc17xx_uart.c:1025: 			UARTx->LCR &= ~UART_LCR_DLAB_EN;
1025:core/lpc17xx_uart.c **** 			// FDR value must be reset to default value
 3221              		.loc 1 1025 0
 3222 00ee FB68     		ldr	r3, [r7, #12]	@ tmp182, UARTx
 3223 00f0 1B7B     		ldrb	r3, [r3, #12]	@ tmp184, UARTx_19(D)->LCR
 3224 00f2 DBB2     		uxtb	r3, r3	@ _10, tmp184
 3225 00f4 03F07F03 		and	r3, r3, #127	@ tmp185, _10,
 3226 00f8 DAB2     		uxtb	r2, r3	@ _11, tmp185
 3227 00fa FB68     		ldr	r3, [r7, #12]	@ tmp186, UARTx
 3228 00fc 1A73     		strb	r2, [r3, #12]	@ tmp187, UARTx_19(D)->LCR
 3229              	@ core/lpc17xx_uart.c:1027: 			UARTx->FDR = 0x10;
1027:core/lpc17xx_uart.c **** 			UARTx->ACR = UART_ACR_START | tmp;
 3230              		.loc 1 1027 0
 3231 00fe FB68     		ldr	r3, [r7, #12]	@ tmp188, UARTx
 3232 0100 1022     		movs	r2, #16	@ tmp189,
 3233 0102 83F82820 		strb	r2, [r3, #40]	@ tmp190, UARTx_19(D)->FDR
 3234              	@ core/lpc17xx_uart.c:1028: 			UARTx->ACR = UART_ACR_START | tmp;
1028:core/lpc17xx_uart.c **** 		}
 3235              		.loc 1 1028 0
 3236 0106 7B69     		ldr	r3, [r7, #20]	@ tmp191, tmp
 3237 0108 43F00102 		orr	r2, r3, #1	@ _12, tmp191,
 3238 010c FB68     		ldr	r3, [r7, #12]	@ tmp192, UARTx
 3239 010e 1A62     		str	r2, [r3, #32]	@ _12, UARTx_19(D)->ACR
 3240              	@ core/lpc17xx_uart.c:1035: }
 3241              		.loc 1 1035 0
 3242 0110 02E0     		b	.L206	@
 3243              	.L205:
 3244              	@ core/lpc17xx_uart.c:1032: 			UARTx->ACR = 0;
1032:core/lpc17xx_uart.c **** 		}
 3245              		.loc 1 1032 0
 3246 0112 FB68     		ldr	r3, [r7, #12]	@ tmp193, UARTx
 3247 0114 0022     		movs	r2, #0	@ tmp194,
 3248 0116 1A62     		str	r2, [r3, #32]	@ tmp194, UARTx_19(D)->ACR
 3249              	.L206:
 3250              	@ core/lpc17xx_uart.c:1035: }
 3251              		.loc 1 1035 0
 3252 0118 00BF     		nop
 3253 011a 1837     		adds	r7, r7, #24	@,,
 3254              		.cfi_def_cfa_offset 8
 3255 011c BD46     		mov	sp, r7	@,
ARM GAS  /tmp/ccf79Nqw.s 			page 77


 3256              		.cfi_def_cfa_register 13
 3257              		@ sp needed	@
 3258 011e 80BD     		pop	{r7, pc}	@
 3259              	.L208:
 3260              		.align	2
 3261              	.L207:
 3262 0120 00C00040 		.word	1073790976
 3263 0124 00000140 		.word	1073807360
 3264 0128 00800940 		.word	1074364416
 3265 012c 00C00940 		.word	1074380800
 3266 0130 00000000 		.word	.LC0
 3267              		.cfi_endproc
 3268              	.LFE72:
 3269              		.size	UART_ABCmd, .-UART_ABCmd
 3270              		.section	.text.UART_TxCmd,"ax",%progbits
 3271              		.align	1
 3272              		.global	UART_TxCmd
 3273              		.syntax unified
 3274              		.thumb
 3275              		.thumb_func
 3276              		.fpu softvfp
 3277              		.type	UART_TxCmd, %function
 3278              	UART_TxCmd:
 3279              	.LFB73:
1036:core/lpc17xx_uart.c **** 
1037:core/lpc17xx_uart.c **** 
1038:core/lpc17xx_uart.c **** /*********************************************************************//**
1039:core/lpc17xx_uart.c ****  * @brief		Enable/Disable transmission on UART TxD pin
1040:core/lpc17xx_uart.c ****  * @param[in]	UARTx	UART peripheral selected, should be UART0, UART1,
1041:core/lpc17xx_uart.c ****  * 						UART2 or UART3.
1042:core/lpc17xx_uart.c ****  * @param[in]	NewState New State of Tx transmission function, should be:
1043:core/lpc17xx_uart.c ****  * 				- ENABLE: Enable this function
1044:core/lpc17xx_uart.c **** 				- DISABLE: Disable this function
1045:core/lpc17xx_uart.c ****  * @return none
1046:core/lpc17xx_uart.c ****  **********************************************************************/
1047:core/lpc17xx_uart.c **** void UART_TxCmd(LPC_UART_TypeDef *UARTx, FunctionalState NewState)
1048:core/lpc17xx_uart.c **** {
 3280              		.loc 1 1048 0
 3281              		.cfi_startproc
 3282              		@ args = 0, pretend = 0, frame = 8
 3283              		@ frame_needed = 1, uses_anonymous_args = 0
 3284 0000 80B5     		push	{r7, lr}	@
 3285              		.cfi_def_cfa_offset 8
 3286              		.cfi_offset 7, -8
 3287              		.cfi_offset 14, -4
 3288 0002 82B0     		sub	sp, sp, #8	@,,
 3289              		.cfi_def_cfa_offset 16
 3290 0004 00AF     		add	r7, sp, #0	@,,
 3291              		.cfi_def_cfa_register 7
 3292 0006 7860     		str	r0, [r7, #4]	@ UARTx, UARTx
 3293 0008 0B46     		mov	r3, r1	@ tmp116, NewState
 3294 000a FB70     		strb	r3, [r7, #3]	@ tmp117, NewState
 3295              	@ core/lpc17xx_uart.c:1049: 	CHECK_PARAM(PARAM_UARTx(UARTx));
1049:core/lpc17xx_uart.c **** 	CHECK_PARAM(PARAM_UARTx(UARTx));
 3296              		.loc 1 1049 0
 3297 000c 7B68     		ldr	r3, [r7, #4]	@ tmp118, UARTx
 3298 000e 294A     		ldr	r2, .L218	@ tmp119,
ARM GAS  /tmp/ccf79Nqw.s 			page 78


 3299 0010 9342     		cmp	r3, r2	@ tmp118, tmp119
 3300 0012 10D0     		beq	.L210	@,
 3301              	@ core/lpc17xx_uart.c:1049: 	CHECK_PARAM(PARAM_UARTx(UARTx));
 3302              		.loc 1 1049 0 is_stmt 0 discriminator 1
 3303 0014 7B68     		ldr	r3, [r7, #4]	@ tmp120, UARTx
 3304 0016 284A     		ldr	r2, .L218+4	@ tmp121,
 3305 0018 9342     		cmp	r3, r2	@ tmp120, tmp121
 3306 001a 0CD0     		beq	.L210	@,
 3307              	@ core/lpc17xx_uart.c:1049: 	CHECK_PARAM(PARAM_UARTx(UARTx));
 3308              		.loc 1 1049 0 discriminator 2
 3309 001c 7B68     		ldr	r3, [r7, #4]	@ tmp122, UARTx
 3310 001e 274A     		ldr	r2, .L218+8	@ tmp123,
 3311 0020 9342     		cmp	r3, r2	@ tmp122, tmp123
 3312 0022 08D0     		beq	.L210	@,
 3313              	@ core/lpc17xx_uart.c:1049: 	CHECK_PARAM(PARAM_UARTx(UARTx));
 3314              		.loc 1 1049 0 discriminator 3
 3315 0024 7B68     		ldr	r3, [r7, #4]	@ tmp124, UARTx
 3316 0026 264A     		ldr	r2, .L218+12	@ tmp125,
 3317 0028 9342     		cmp	r3, r2	@ tmp124, tmp125
 3318 002a 04D0     		beq	.L210	@,
 3319              	@ core/lpc17xx_uart.c:1049: 	CHECK_PARAM(PARAM_UARTx(UARTx));
 3320              		.loc 1 1049 0 discriminator 4
 3321 002c 40F21941 		movw	r1, #1049	@,
 3322 0030 2448     		ldr	r0, .L218+16	@,
 3323 0032 FFF7FEFF 		bl	check_failed	@
 3324              	.L210:
 3325              	@ core/lpc17xx_uart.c:1050: 	CHECK_PARAM(PARAM_FUNCTIONALSTATE(NewState));
1050:core/lpc17xx_uart.c **** 	CHECK_PARAM(PARAM_FUNCTIONALSTATE(NewState));
 3326              		.loc 1 1050 0 is_stmt 1
 3327 0036 FB78     		ldrb	r3, [r7, #3]	@ zero_extendqisi2	@ tmp126, NewState
 3328 0038 002B     		cmp	r3, #0	@ tmp126,
 3329 003a 07D0     		beq	.L211	@,
 3330              	@ core/lpc17xx_uart.c:1050: 	CHECK_PARAM(PARAM_FUNCTIONALSTATE(NewState));
 3331              		.loc 1 1050 0 is_stmt 0 discriminator 1
 3332 003c FB78     		ldrb	r3, [r7, #3]	@ zero_extendqisi2	@ tmp127, NewState
 3333 003e 012B     		cmp	r3, #1	@ tmp127,
 3334 0040 04D0     		beq	.L211	@,
 3335              	@ core/lpc17xx_uart.c:1050: 	CHECK_PARAM(PARAM_FUNCTIONALSTATE(NewState));
 3336              		.loc 1 1050 0 discriminator 2
 3337 0042 40F21A41 		movw	r1, #1050	@,
 3338 0046 1F48     		ldr	r0, .L218+16	@,
 3339 0048 FFF7FEFF 		bl	check_failed	@
 3340              	.L211:
 3341              	@ core/lpc17xx_uart.c:1052: 	if (NewState == ENABLE)
1051:core/lpc17xx_uart.c **** 
1052:core/lpc17xx_uart.c **** 	if (NewState == ENABLE)
 3342              		.loc 1 1052 0 is_stmt 1
 3343 004c FB78     		ldrb	r3, [r7, #3]	@ zero_extendqisi2	@ tmp128, NewState
 3344 004e 012B     		cmp	r3, #1	@ tmp128,
 3345 0050 19D1     		bne	.L212	@,
 3346              	@ core/lpc17xx_uart.c:1054: 		if (((LPC_UART1_TypeDef *)UARTx) == LPC_UART1)
1053:core/lpc17xx_uart.c **** 	{
1054:core/lpc17xx_uart.c **** 		if (((LPC_UART1_TypeDef *)UARTx) == LPC_UART1)
 3347              		.loc 1 1054 0
 3348 0052 7B68     		ldr	r3, [r7, #4]	@ tmp129, UARTx
 3349 0054 184A     		ldr	r2, .L218+4	@ tmp130,
 3350 0056 9342     		cmp	r3, r2	@ tmp129, tmp130
ARM GAS  /tmp/ccf79Nqw.s 			page 79


 3351 0058 0AD1     		bne	.L213	@,
 3352              	@ core/lpc17xx_uart.c:1056: 			((LPC_UART1_TypeDef *)UARTx)->TER |= UART_TER_TXEN;
1055:core/lpc17xx_uart.c **** 		{
1056:core/lpc17xx_uart.c **** 			((LPC_UART1_TypeDef *)UARTx)->TER |= UART_TER_TXEN;
 3353              		.loc 1 1056 0
 3354 005a 7B68     		ldr	r3, [r7, #4]	@ tmp131, UARTx
 3355 005c 93F83030 		ldrb	r3, [r3, #48]	@ tmp133, MEM[(struct LPC_UART1_TypeDef *)UARTx_9(D)].TER
 3356 0060 DBB2     		uxtb	r3, r3	@ _1, tmp133
 3357 0062 63F07F03 		orn	r3, r3, #127	@ tmp134, _1,
 3358 0066 DAB2     		uxtb	r2, r3	@ _2, tmp134
 3359 0068 7B68     		ldr	r3, [r7, #4]	@ tmp135, UARTx
 3360 006a 83F83020 		strb	r2, [r3, #48]	@ tmp136, MEM[(struct LPC_UART1_TypeDef *)UARTx_9(D)].TER
 3361              	@ core/lpc17xx_uart.c:1074: }
1057:core/lpc17xx_uart.c **** 		}
1058:core/lpc17xx_uart.c **** 		else
1059:core/lpc17xx_uart.c **** 		{
1060:core/lpc17xx_uart.c **** 			UARTx->TER |= UART_TER_TXEN;
1061:core/lpc17xx_uart.c **** 		}
1062:core/lpc17xx_uart.c **** 	}
1063:core/lpc17xx_uart.c **** 	else
1064:core/lpc17xx_uart.c **** 	{
1065:core/lpc17xx_uart.c **** 		if (((LPC_UART1_TypeDef *)UARTx) == LPC_UART1)
1066:core/lpc17xx_uart.c **** 		{
1067:core/lpc17xx_uart.c **** 			((LPC_UART1_TypeDef *)UARTx)->TER &= (~UART_TER_TXEN) & UART_TER_BITMASK;
1068:core/lpc17xx_uart.c **** 		}
1069:core/lpc17xx_uart.c **** 		else
1070:core/lpc17xx_uart.c **** 		{
1071:core/lpc17xx_uart.c **** 			UARTx->TER &= (~UART_TER_TXEN) & UART_TER_BITMASK;
1072:core/lpc17xx_uart.c **** 		}
1073:core/lpc17xx_uart.c **** 	}
1074:core/lpc17xx_uart.c **** }
 3362              		.loc 1 1074 0
 3363 006e 1DE0     		b	.L217	@
 3364              	.L213:
 3365              	@ core/lpc17xx_uart.c:1060: 			UARTx->TER |= UART_TER_TXEN;
1060:core/lpc17xx_uart.c **** 		}
 3366              		.loc 1 1060 0
 3367 0070 7B68     		ldr	r3, [r7, #4]	@ tmp137, UARTx
 3368 0072 93F83030 		ldrb	r3, [r3, #48]	@ tmp139, UARTx_9(D)->TER
 3369 0076 DBB2     		uxtb	r3, r3	@ _3, tmp139
 3370 0078 63F07F03 		orn	r3, r3, #127	@ tmp140, _3,
 3371 007c DAB2     		uxtb	r2, r3	@ _4, tmp140
 3372 007e 7B68     		ldr	r3, [r7, #4]	@ tmp141, UARTx
 3373 0080 83F83020 		strb	r2, [r3, #48]	@ tmp142, UARTx_9(D)->TER
 3374              	@ core/lpc17xx_uart.c:1074: }
 3375              		.loc 1 1074 0
 3376 0084 12E0     		b	.L217	@
 3377              	.L212:
 3378              	@ core/lpc17xx_uart.c:1065: 		if (((LPC_UART1_TypeDef *)UARTx) == LPC_UART1)
1065:core/lpc17xx_uart.c **** 		{
 3379              		.loc 1 1065 0
 3380 0086 7B68     		ldr	r3, [r7, #4]	@ tmp143, UARTx
 3381 0088 0B4A     		ldr	r2, .L218+4	@ tmp144,
 3382 008a 9342     		cmp	r3, r2	@ tmp143, tmp144
 3383 008c 07D1     		bne	.L216	@,
 3384              	@ core/lpc17xx_uart.c:1067: 			((LPC_UART1_TypeDef *)UARTx)->TER &= (~UART_TER_TXEN) & UART_TER_BIT
1067:core/lpc17xx_uart.c **** 		}
ARM GAS  /tmp/ccf79Nqw.s 			page 80


 3385              		.loc 1 1067 0
 3386 008e 7B68     		ldr	r3, [r7, #4]	@ tmp145, UARTx
 3387 0090 93F83030 		ldrb	r3, [r3, #48]	@ tmp147, MEM[(struct LPC_UART1_TypeDef *)UARTx_9(D)].TER
 3388 0094 7B68     		ldr	r3, [r7, #4]	@ tmp148, UARTx
 3389 0096 0022     		movs	r2, #0	@ tmp149,
 3390 0098 83F83020 		strb	r2, [r3, #48]	@ tmp150, MEM[(struct LPC_UART1_TypeDef *)UARTx_9(D)].TER
 3391              	@ core/lpc17xx_uart.c:1074: }
 3392              		.loc 1 1074 0
 3393 009c 06E0     		b	.L217	@
 3394              	.L216:
 3395              	@ core/lpc17xx_uart.c:1071: 			UARTx->TER &= (~UART_TER_TXEN) & UART_TER_BITMASK;
1071:core/lpc17xx_uart.c **** 		}
 3396              		.loc 1 1071 0
 3397 009e 7B68     		ldr	r3, [r7, #4]	@ tmp151, UARTx
 3398 00a0 93F83030 		ldrb	r3, [r3, #48]	@ tmp153, UARTx_9(D)->TER
 3399 00a4 7B68     		ldr	r3, [r7, #4]	@ tmp154, UARTx
 3400 00a6 0022     		movs	r2, #0	@ tmp155,
 3401 00a8 83F83020 		strb	r2, [r3, #48]	@ tmp156, UARTx_9(D)->TER
 3402              	.L217:
 3403              	@ core/lpc17xx_uart.c:1074: }
 3404              		.loc 1 1074 0
 3405 00ac 00BF     		nop
 3406 00ae 0837     		adds	r7, r7, #8	@,,
 3407              		.cfi_def_cfa_offset 8
 3408 00b0 BD46     		mov	sp, r7	@,
 3409              		.cfi_def_cfa_register 13
 3410              		@ sp needed	@
 3411 00b2 80BD     		pop	{r7, pc}	@
 3412              	.L219:
 3413              		.align	2
 3414              	.L218:
 3415 00b4 00C00040 		.word	1073790976
 3416 00b8 00000140 		.word	1073807360
 3417 00bc 00800940 		.word	1074364416
 3418 00c0 00C00940 		.word	1074380800
 3419 00c4 00000000 		.word	.LC0
 3420              		.cfi_endproc
 3421              	.LFE73:
 3422              		.size	UART_TxCmd, .-UART_TxCmd
 3423              		.section	.text.UART_FullModemForcePinState,"ax",%progbits
 3424              		.align	1
 3425              		.global	UART_FullModemForcePinState
 3426              		.syntax unified
 3427              		.thumb
 3428              		.thumb_func
 3429              		.fpu softvfp
 3430              		.type	UART_FullModemForcePinState, %function
 3431              	UART_FullModemForcePinState:
 3432              	.LFB74:
1075:core/lpc17xx_uart.c **** 
1076:core/lpc17xx_uart.c **** #ifdef _UART1
1077:core/lpc17xx_uart.c **** 
1078:core/lpc17xx_uart.c **** /*********************************************************************//**
1079:core/lpc17xx_uart.c ****  * @brief		Force pin DTR/RTS corresponding to given state (Full modem mode)
1080:core/lpc17xx_uart.c ****  * @param[in]	UARTx	UART1 (only)
1081:core/lpc17xx_uart.c ****  * @param[in]	Pin	Pin that NewState will be applied to, should be:
1082:core/lpc17xx_uart.c ****  * 				- UART1_MODEM_PIN_DTR: DTR pin.
ARM GAS  /tmp/ccf79Nqw.s 			page 81


1083:core/lpc17xx_uart.c ****  * 				- UART1_MODEM_PIN_RTS: RTS pin.
1084:core/lpc17xx_uart.c ****  * @param[in]	NewState New State of DTR/RTS pin, should be:
1085:core/lpc17xx_uart.c ****  * 				- INACTIVE: Force the pin to inactive signal.
1086:core/lpc17xx_uart.c **** 				- ACTIVE: Force the pin to active signal.
1087:core/lpc17xx_uart.c ****  * @return none
1088:core/lpc17xx_uart.c ****  **********************************************************************/
1089:core/lpc17xx_uart.c **** void UART_FullModemForcePinState(LPC_UART1_TypeDef *UARTx, UART_MODEM_PIN_Type Pin, \
1090:core/lpc17xx_uart.c **** 							UART1_SignalState NewState)
1091:core/lpc17xx_uart.c **** {
 3433              		.loc 1 1091 0
 3434              		.cfi_startproc
 3435              		@ args = 0, pretend = 0, frame = 16
 3436              		@ frame_needed = 1, uses_anonymous_args = 0
 3437 0000 80B5     		push	{r7, lr}	@
 3438              		.cfi_def_cfa_offset 8
 3439              		.cfi_offset 7, -8
 3440              		.cfi_offset 14, -4
 3441 0002 84B0     		sub	sp, sp, #16	@,,
 3442              		.cfi_def_cfa_offset 24
 3443 0004 00AF     		add	r7, sp, #0	@,,
 3444              		.cfi_def_cfa_register 7
 3445 0006 7860     		str	r0, [r7, #4]	@ UARTx, UARTx
 3446 0008 0B46     		mov	r3, r1	@ tmp117, Pin
 3447 000a FB70     		strb	r3, [r7, #3]	@ tmp118, Pin
 3448 000c 1346     		mov	r3, r2	@ tmp120, tmp119
 3449 000e BB70     		strb	r3, [r7, #2]	@ tmp120, NewState
 3450              	@ core/lpc17xx_uart.c:1092: 	uint8_t tmp = 0;
1092:core/lpc17xx_uart.c **** 	uint8_t tmp = 0;
 3451              		.loc 1 1092 0
 3452 0010 0023     		movs	r3, #0	@ tmp121,
 3453 0012 FB73     		strb	r3, [r7, #15]	@ tmp122, tmp
 3454              	@ core/lpc17xx_uart.c:1094: 	CHECK_PARAM(PARAM_UART1_MODEM(UARTx));
1093:core/lpc17xx_uart.c **** 
1094:core/lpc17xx_uart.c **** 	CHECK_PARAM(PARAM_UART1_MODEM(UARTx));
 3455              		.loc 1 1094 0
 3456 0014 7B68     		ldr	r3, [r7, #4]	@ tmp123, UARTx
 3457 0016 234A     		ldr	r2, .L231	@ tmp124,
 3458 0018 9342     		cmp	r3, r2	@ tmp123, tmp124
 3459 001a 04D0     		beq	.L221	@,
 3460              	@ core/lpc17xx_uart.c:1094: 	CHECK_PARAM(PARAM_UART1_MODEM(UARTx));
 3461              		.loc 1 1094 0 is_stmt 0 discriminator 1
 3462 001c 40F24641 		movw	r1, #1094	@,
 3463 0020 2148     		ldr	r0, .L231+4	@,
 3464 0022 FFF7FEFF 		bl	check_failed	@
 3465              	.L221:
 3466              	@ core/lpc17xx_uart.c:1095: 	CHECK_PARAM(PARAM_UART1_MODEM_PIN(Pin));
1095:core/lpc17xx_uart.c **** 	CHECK_PARAM(PARAM_UART1_MODEM_PIN(Pin));
 3467              		.loc 1 1095 0 is_stmt 1
 3468 0026 FB78     		ldrb	r3, [r7, #3]	@ zero_extendqisi2	@ tmp125, Pin
 3469 0028 002B     		cmp	r3, #0	@ tmp125,
 3470 002a 07D0     		beq	.L222	@,
 3471              	@ core/lpc17xx_uart.c:1095: 	CHECK_PARAM(PARAM_UART1_MODEM_PIN(Pin));
 3472              		.loc 1 1095 0 is_stmt 0 discriminator 1
 3473 002c FB78     		ldrb	r3, [r7, #3]	@ zero_extendqisi2	@ tmp126, Pin
 3474 002e 012B     		cmp	r3, #1	@ tmp126,
 3475 0030 04D0     		beq	.L222	@,
 3476              	@ core/lpc17xx_uart.c:1095: 	CHECK_PARAM(PARAM_UART1_MODEM_PIN(Pin));
ARM GAS  /tmp/ccf79Nqw.s 			page 82


 3477              		.loc 1 1095 0 discriminator 2
 3478 0032 40F24741 		movw	r1, #1095	@,
 3479 0036 1C48     		ldr	r0, .L231+4	@,
 3480 0038 FFF7FEFF 		bl	check_failed	@
 3481              	.L222:
 3482              	@ core/lpc17xx_uart.c:1096: 	CHECK_PARAM(PARAM_UART1_SIGNALSTATE(NewState));
1096:core/lpc17xx_uart.c **** 	CHECK_PARAM(PARAM_UART1_SIGNALSTATE(NewState));
 3483              		.loc 1 1096 0 is_stmt 1
 3484 003c BB78     		ldrb	r3, [r7, #2]	@ zero_extendqisi2	@ tmp127, NewState
 3485 003e 002B     		cmp	r3, #0	@ tmp127,
 3486 0040 07D0     		beq	.L223	@,
 3487              	@ core/lpc17xx_uart.c:1096: 	CHECK_PARAM(PARAM_UART1_SIGNALSTATE(NewState));
 3488              		.loc 1 1096 0 is_stmt 0 discriminator 1
 3489 0042 BB78     		ldrb	r3, [r7, #2]	@ zero_extendqisi2	@ tmp128, NewState
 3490 0044 012B     		cmp	r3, #1	@ tmp128,
 3491 0046 04D0     		beq	.L223	@,
 3492              	@ core/lpc17xx_uart.c:1096: 	CHECK_PARAM(PARAM_UART1_SIGNALSTATE(NewState));
 3493              		.loc 1 1096 0 discriminator 2
 3494 0048 4FF48961 		mov	r1, #1096	@,
 3495 004c 1648     		ldr	r0, .L231+4	@,
 3496 004e FFF7FEFF 		bl	check_failed	@
 3497              	.L223:
 3498              	@ core/lpc17xx_uart.c:1098: 	switch (Pin){
1097:core/lpc17xx_uart.c **** 
1098:core/lpc17xx_uart.c **** 	switch (Pin){
 3499              		.loc 1 1098 0 is_stmt 1
 3500 0052 FB78     		ldrb	r3, [r7, #3]	@ zero_extendqisi2	@ _1, Pin
 3501 0054 002B     		cmp	r3, #0	@ _1,
 3502 0056 02D0     		beq	.L225	@,
 3503 0058 012B     		cmp	r3, #1	@ _1,
 3504 005a 03D0     		beq	.L226	@,
 3505              	@ core/lpc17xx_uart.c:1106: 		break;
1099:core/lpc17xx_uart.c **** 	case UART1_MODEM_PIN_DTR:
1100:core/lpc17xx_uart.c **** 		tmp = UART1_MCR_DTR_CTRL;
1101:core/lpc17xx_uart.c **** 		break;
1102:core/lpc17xx_uart.c **** 	case UART1_MODEM_PIN_RTS:
1103:core/lpc17xx_uart.c **** 		tmp = UART1_MCR_RTS_CTRL;
1104:core/lpc17xx_uart.c **** 		break;
1105:core/lpc17xx_uart.c **** 	default:
1106:core/lpc17xx_uart.c **** 		break;
 3506              		.loc 1 1106 0
 3507 005c 05E0     		b	.L227	@
 3508              	.L225:
 3509              	@ core/lpc17xx_uart.c:1100: 		tmp = UART1_MCR_DTR_CTRL;
1100:core/lpc17xx_uart.c **** 		break;
 3510              		.loc 1 1100 0
 3511 005e 0123     		movs	r3, #1	@ tmp129,
 3512 0060 FB73     		strb	r3, [r7, #15]	@ tmp130, tmp
 3513              	@ core/lpc17xx_uart.c:1101: 		break;
1101:core/lpc17xx_uart.c **** 	case UART1_MODEM_PIN_RTS:
 3514              		.loc 1 1101 0
 3515 0062 02E0     		b	.L227	@
 3516              	.L226:
 3517              	@ core/lpc17xx_uart.c:1103: 		tmp = UART1_MCR_RTS_CTRL;
1103:core/lpc17xx_uart.c **** 		break;
 3518              		.loc 1 1103 0
 3519 0064 0223     		movs	r3, #2	@ tmp131,
ARM GAS  /tmp/ccf79Nqw.s 			page 83


 3520 0066 FB73     		strb	r3, [r7, #15]	@ tmp132, tmp
 3521              	@ core/lpc17xx_uart.c:1104: 		break;
1104:core/lpc17xx_uart.c **** 	default:
 3522              		.loc 1 1104 0
 3523 0068 00BF     		nop
 3524              	.L227:
