ARM GAS  /tmp/ccCduwM4.s 			page 1


   1              		.cpu cortex-m3
   2              		.eabi_attribute 20, 1	@ Tag_ABI_FP_denormal
   3              		.eabi_attribute 21, 1	@ Tag_ABI_FP_exceptions
   4              		.eabi_attribute 23, 3	@ Tag_ABI_FP_number_model
   5              		.eabi_attribute 24, 1	@ Tag_ABI_align8_needed
   6              		.eabi_attribute 25, 1	@ Tag_ABI_align8_preserved
   7              		.eabi_attribute 26, 1	@ Tag_ABI_enum_size
   8              		.eabi_attribute 30, 6	@ Tag_ABI_optimization_goals
   9              		.eabi_attribute 34, 1	@ Tag_CPU_unaligned_access
  10              		.eabi_attribute 18, 4	@ Tag_ABI_PCS_wchar_t
  11              		.file	"port.c"
  12              	@ GNU C89 (Arch Repository) version 7.1.0 (arm-none-eabi)
  13              	@	compiled by GNU C version 6.3.1 20170306, GMP version 6.1.2, MPFR version 3.1.5-p2, MPC version 1
  14              	
  15              	@ GGC heuristics: --param ggc-min-expand=100 --param ggc-min-heapsize=131072
  16              	@ options passed:  -I . -I config -I system -I core -I drivers -I FreeRTOS
  17              	@ -I FreeRTOS/include -I FreeRTOS/portable/GCC/ARM_CM3 -I FreeRTOS/portable
  18              	@ -I tasks/rc_task_leds -I tasks/rc_task_xbee -I modules/rc_leds
  19              	@ -I modules/rc_xbee -I modules/rc_scheduler -I drivers/rc_system
  20              	@ -I drivers/rc_gpio -I drivers/rc_uart -I drivers/rc_pinsel
  21              	@ -I drivers/rc_timer -I drivers/rc_adc -imultilib armv7-m -MD out/port.d
  22              	@ -MF out/port.d -MP -MQ out/port.o -D__USES_INITFINI__
  23              	@ FreeRTOS/portable/GCC/ARM_CM3/port.c -mcpu=cortex-m3 -mthumb
  24              	@ -auxbase-strip out/port.o -g -ggdb3 -O0 -Wall -Wstrict-prototypes -Wextra
  25              	@ -std=gnu90 -ffunction-sections -fdata-sections -fverbose-asm
  26              	@ options enabled:  -faggressive-loop-optimizations -fauto-inc-dec
  27              	@ -fchkp-check-incomplete-type -fchkp-check-read -fchkp-check-write
  28              	@ -fchkp-instrument-calls -fchkp-narrow-bounds -fchkp-optimize
  29              	@ -fchkp-store-bounds -fchkp-use-static-bounds
  30              	@ -fchkp-use-static-const-bounds -fchkp-use-wrappers -fcommon
  31              	@ -fdata-sections -fdelete-null-pointer-checks -fdwarf2-cfi-asm
  32              	@ -fearly-inlining -feliminate-unused-debug-types -ffp-int-builtin-inexact
  33              	@ -ffunction-cse -ffunction-sections -fgcse-lm -fgnu-runtime -fgnu-unique
  34              	@ -fident -finline-atomics -fira-hoist-pressure -fira-share-save-slots
  35              	@ -fira-share-spill-slots -fivopts -fkeep-static-consts
  36              	@ -fleading-underscore -flifetime-dse -flto-odr-type-merging -fmath-errno
  37              	@ -fmerge-debug-strings -fpeephole -fplt -fprefetch-loop-arrays
  38              	@ -freg-struct-return -fsched-critical-path-heuristic
  39              	@ -fsched-dep-count-heuristic -fsched-group-heuristic -fsched-interblock
  40              	@ -fsched-last-insn-heuristic -fsched-rank-heuristic -fsched-spec
  41              	@ -fsched-spec-insn-heuristic -fsched-stalled-insns-dep
  42              	@ -fsemantic-interposition -fshow-column -fshrink-wrap-separate
  43              	@ -fsigned-zeros -fsplit-ivs-in-unroller -fssa-backprop -fstdarg-opt
  44              	@ -fstrict-volatile-bitfields -fsync-libcalls -ftrapping-math -ftree-cselim
  45              	@ -ftree-forwprop -ftree-loop-if-convert -ftree-loop-im -ftree-loop-ivcanon
  46              	@ -ftree-loop-optimize -ftree-parallelize-loops= -ftree-phiprop
  47              	@ -ftree-reassoc -ftree-scev-cprop -funit-at-a-time -fverbose-asm
  48              	@ -fzero-initialized-in-bss -masm-syntax-unified -mfix-cortex-m3-ldrd
  49              	@ -mlittle-endian -mpic-data-is-text-relative -msched-prolog -mthumb
  50              	@ -munaligned-access -mvectorize-with-neon-quad
  51              	
  52              		.text
  53              	.Ltext0:
  54              		.cfi_sections	.debug_frame
  55              		.section	.data.uxCriticalNesting,"aw",%progbits
  56              		.align	2
  57              		.type	uxCriticalNesting, %object
ARM GAS  /tmp/ccCduwM4.s 			page 2


  58              		.size	uxCriticalNesting, 4
  59              	uxCriticalNesting:
  60 0000 AAAAAAAA 		.word	-1431655766
  61              		.section	.bss.ucMaxSysCallPriority,"aw",%nobits
  62              		.type	ucMaxSysCallPriority, %object
  63              		.size	ucMaxSysCallPriority, 1
  64              	ucMaxSysCallPriority:
  65 0000 00       		.space	1
  66              		.section	.bss.ulMaxPRIGROUPValue,"aw",%nobits
  67              		.align	2
  68              		.type	ulMaxPRIGROUPValue, %object
  69              		.size	ulMaxPRIGROUPValue, 4
  70              	ulMaxPRIGROUPValue:
  71 0000 00000000 		.space	4
  72              		.section	.rodata.pcInterruptPriorityRegisters,"a",%progbits
  73              		.align	2
  74              		.type	pcInterruptPriorityRegisters, %object
  75              		.size	pcInterruptPriorityRegisters, 4
  76              	pcInterruptPriorityRegisters:
  77 0000 F0E300E0 		.word	-536812560
  78              		.section	.text.pxPortInitialiseStack,"ax",%progbits
  79              		.align	1
  80              		.global	pxPortInitialiseStack
  81              		.syntax unified
  82              		.thumb
  83              		.thumb_func
  84              		.fpu softvfp
  85              		.type	pxPortInitialiseStack, %function
  86              	pxPortInitialiseStack:
  87              	.LFB1:
  88              		.file 1 "FreeRTOS/portable/GCC/ARM_CM3/port.c"
   1:FreeRTOS/portable/GCC/ARM_CM3/port.c **** /*
   2:FreeRTOS/portable/GCC/ARM_CM3/port.c ****     FreeRTOS V8.1.2 - Copyright (C) 2014 Real Time Engineers Ltd.
   3:FreeRTOS/portable/GCC/ARM_CM3/port.c ****     All rights reserved
   4:FreeRTOS/portable/GCC/ARM_CM3/port.c **** 
   5:FreeRTOS/portable/GCC/ARM_CM3/port.c ****     VISIT http://www.FreeRTOS.org TO ENSURE YOU ARE USING THE LATEST VERSION.
   6:FreeRTOS/portable/GCC/ARM_CM3/port.c **** 
   7:FreeRTOS/portable/GCC/ARM_CM3/port.c ****     ***************************************************************************
   8:FreeRTOS/portable/GCC/ARM_CM3/port.c ****      *                                                                       *
   9:FreeRTOS/portable/GCC/ARM_CM3/port.c ****      *    FreeRTOS provides completely free yet professionally developed,    *
  10:FreeRTOS/portable/GCC/ARM_CM3/port.c ****      *    robust, strictly quality controlled, supported, and cross          *
  11:FreeRTOS/portable/GCC/ARM_CM3/port.c ****      *    platform software that has become a de facto standard.             *
  12:FreeRTOS/portable/GCC/ARM_CM3/port.c ****      *                                                                       *
  13:FreeRTOS/portable/GCC/ARM_CM3/port.c ****      *    Help yourself get started quickly and support the FreeRTOS         *
  14:FreeRTOS/portable/GCC/ARM_CM3/port.c ****      *    project by purchasing a FreeRTOS tutorial book, reference          *
  15:FreeRTOS/portable/GCC/ARM_CM3/port.c ****      *    manual, or both from: http://www.FreeRTOS.org/Documentation        *
  16:FreeRTOS/portable/GCC/ARM_CM3/port.c ****      *                                                                       *
  17:FreeRTOS/portable/GCC/ARM_CM3/port.c ****      *    Thank you!                                                         *
  18:FreeRTOS/portable/GCC/ARM_CM3/port.c ****      *                                                                       *
  19:FreeRTOS/portable/GCC/ARM_CM3/port.c ****     ***************************************************************************
  20:FreeRTOS/portable/GCC/ARM_CM3/port.c **** 
  21:FreeRTOS/portable/GCC/ARM_CM3/port.c ****     This file is part of the FreeRTOS distribution.
  22:FreeRTOS/portable/GCC/ARM_CM3/port.c **** 
  23:FreeRTOS/portable/GCC/ARM_CM3/port.c ****     FreeRTOS is free software; you can redistribute it and/or modify it under
  24:FreeRTOS/portable/GCC/ARM_CM3/port.c ****     the terms of the GNU General Public License (version 2) as published by the
  25:FreeRTOS/portable/GCC/ARM_CM3/port.c ****     Free Software Foundation >>!AND MODIFIED BY!<< the FreeRTOS exception.
  26:FreeRTOS/portable/GCC/ARM_CM3/port.c **** 
ARM GAS  /tmp/ccCduwM4.s 			page 3


  27:FreeRTOS/portable/GCC/ARM_CM3/port.c ****     >>!   NOTE: The modification to the GPL is included to allow you to     !<<
  28:FreeRTOS/portable/GCC/ARM_CM3/port.c ****     >>!   distribute a combined work that includes FreeRTOS without being   !<<
  29:FreeRTOS/portable/GCC/ARM_CM3/port.c ****     >>!   obliged to provide the source code for proprietary components     !<<
  30:FreeRTOS/portable/GCC/ARM_CM3/port.c ****     >>!   outside of the FreeRTOS kernel.                                   !<<
  31:FreeRTOS/portable/GCC/ARM_CM3/port.c **** 
  32:FreeRTOS/portable/GCC/ARM_CM3/port.c ****     FreeRTOS is distributed in the hope that it will be useful, but WITHOUT ANY
  33:FreeRTOS/portable/GCC/ARM_CM3/port.c ****     WARRANTY; without even the implied warranty of MERCHANTABILITY or FITNESS
  34:FreeRTOS/portable/GCC/ARM_CM3/port.c ****     FOR A PARTICULAR PURPOSE.  Full license text is available from the following
  35:FreeRTOS/portable/GCC/ARM_CM3/port.c ****     link: http://www.freertos.org/a00114.html
  36:FreeRTOS/portable/GCC/ARM_CM3/port.c **** 
  37:FreeRTOS/portable/GCC/ARM_CM3/port.c ****     1 tab == 4 spaces!
  38:FreeRTOS/portable/GCC/ARM_CM3/port.c **** 
  39:FreeRTOS/portable/GCC/ARM_CM3/port.c ****     ***************************************************************************
  40:FreeRTOS/portable/GCC/ARM_CM3/port.c ****      *                                                                       *
  41:FreeRTOS/portable/GCC/ARM_CM3/port.c ****      *    Having a problem?  Start by reading the FAQ "My application does   *
  42:FreeRTOS/portable/GCC/ARM_CM3/port.c ****      *    not run, what could be wrong?"                                     *
  43:FreeRTOS/portable/GCC/ARM_CM3/port.c ****      *                                                                       *
  44:FreeRTOS/portable/GCC/ARM_CM3/port.c ****      *    http://www.FreeRTOS.org/FAQHelp.html                               *
  45:FreeRTOS/portable/GCC/ARM_CM3/port.c ****      *                                                                       *
  46:FreeRTOS/portable/GCC/ARM_CM3/port.c ****     ***************************************************************************
  47:FreeRTOS/portable/GCC/ARM_CM3/port.c **** 
  48:FreeRTOS/portable/GCC/ARM_CM3/port.c ****     http://www.FreeRTOS.org - Documentation, books, training, latest versions,
  49:FreeRTOS/portable/GCC/ARM_CM3/port.c ****     license and Real Time Engineers Ltd. contact details.
  50:FreeRTOS/portable/GCC/ARM_CM3/port.c **** 
  51:FreeRTOS/portable/GCC/ARM_CM3/port.c ****     http://www.FreeRTOS.org/plus - A selection of FreeRTOS ecosystem products,
  52:FreeRTOS/portable/GCC/ARM_CM3/port.c ****     including FreeRTOS+Trace - an indispensable productivity tool, a DOS
  53:FreeRTOS/portable/GCC/ARM_CM3/port.c ****     compatible FAT file system, and our tiny thread aware UDP/IP stack.
  54:FreeRTOS/portable/GCC/ARM_CM3/port.c **** 
  55:FreeRTOS/portable/GCC/ARM_CM3/port.c ****     http://www.OpenRTOS.com - Real Time Engineers ltd license FreeRTOS to High
  56:FreeRTOS/portable/GCC/ARM_CM3/port.c ****     Integrity Systems to sell under the OpenRTOS brand.  Low cost OpenRTOS
  57:FreeRTOS/portable/GCC/ARM_CM3/port.c ****     licenses offer ticketed support, indemnification and middleware.
  58:FreeRTOS/portable/GCC/ARM_CM3/port.c **** 
  59:FreeRTOS/portable/GCC/ARM_CM3/port.c ****     http://www.SafeRTOS.com - High Integrity Systems also provide a safety
  60:FreeRTOS/portable/GCC/ARM_CM3/port.c ****     engineered and independently SIL3 certified version for use in safety and
  61:FreeRTOS/portable/GCC/ARM_CM3/port.c ****     mission critical applications that require provable dependability.
  62:FreeRTOS/portable/GCC/ARM_CM3/port.c **** 
  63:FreeRTOS/portable/GCC/ARM_CM3/port.c ****     1 tab == 4 spaces!
  64:FreeRTOS/portable/GCC/ARM_CM3/port.c **** */
  65:FreeRTOS/portable/GCC/ARM_CM3/port.c **** 
  66:FreeRTOS/portable/GCC/ARM_CM3/port.c **** /*-----------------------------------------------------------
  67:FreeRTOS/portable/GCC/ARM_CM3/port.c ****  * Implementation of functions defined in portable.h for the ARM CM3 port.
  68:FreeRTOS/portable/GCC/ARM_CM3/port.c ****  *----------------------------------------------------------*/
  69:FreeRTOS/portable/GCC/ARM_CM3/port.c **** 
  70:FreeRTOS/portable/GCC/ARM_CM3/port.c **** /* Scheduler includes. */
  71:FreeRTOS/portable/GCC/ARM_CM3/port.c **** #include "FreeRTOS.h"
  72:FreeRTOS/portable/GCC/ARM_CM3/port.c **** #include "task.h"
  73:FreeRTOS/portable/GCC/ARM_CM3/port.c **** 
  74:FreeRTOS/portable/GCC/ARM_CM3/port.c **** /* For backward compatibility, ensure configKERNEL_INTERRUPT_PRIORITY is
  75:FreeRTOS/portable/GCC/ARM_CM3/port.c **** defined.  The value should also ensure backward compatibility.
  76:FreeRTOS/portable/GCC/ARM_CM3/port.c **** FreeRTOS.org versions prior to V4.4.0 did not include this definition. */
  77:FreeRTOS/portable/GCC/ARM_CM3/port.c **** #ifndef configKERNEL_INTERRUPT_PRIORITY
  78:FreeRTOS/portable/GCC/ARM_CM3/port.c **** 	#define configKERNEL_INTERRUPT_PRIORITY 255
  79:FreeRTOS/portable/GCC/ARM_CM3/port.c **** #endif
  80:FreeRTOS/portable/GCC/ARM_CM3/port.c **** 
  81:FreeRTOS/portable/GCC/ARM_CM3/port.c **** #ifndef configSYSTICK_CLOCK_HZ
  82:FreeRTOS/portable/GCC/ARM_CM3/port.c **** 	#define configSYSTICK_CLOCK_HZ configCPU_CLOCK_HZ
  83:FreeRTOS/portable/GCC/ARM_CM3/port.c **** 	/* Ensure the SysTick is clocked at the same frequency as the core. */
ARM GAS  /tmp/ccCduwM4.s 			page 4


  84:FreeRTOS/portable/GCC/ARM_CM3/port.c **** 	#define portNVIC_SYSTICK_CLK_BIT	( 1UL << 2UL )
  85:FreeRTOS/portable/GCC/ARM_CM3/port.c **** #else
  86:FreeRTOS/portable/GCC/ARM_CM3/port.c **** 	/* The way the SysTick is clocked is not modified in case it is not the same
  87:FreeRTOS/portable/GCC/ARM_CM3/port.c **** 	as the core. */
  88:FreeRTOS/portable/GCC/ARM_CM3/port.c **** 	#define portNVIC_SYSTICK_CLK_BIT	( 0 )
  89:FreeRTOS/portable/GCC/ARM_CM3/port.c **** #endif
  90:FreeRTOS/portable/GCC/ARM_CM3/port.c **** 
  91:FreeRTOS/portable/GCC/ARM_CM3/port.c **** /* Constants required to manipulate the core.  Registers first... */
  92:FreeRTOS/portable/GCC/ARM_CM3/port.c **** #define portNVIC_SYSTICK_CTRL_REG			( * ( ( volatile uint32_t * ) 0xe000e010 ) )
  93:FreeRTOS/portable/GCC/ARM_CM3/port.c **** #define portNVIC_SYSTICK_LOAD_REG			( * ( ( volatile uint32_t * ) 0xe000e014 ) )
  94:FreeRTOS/portable/GCC/ARM_CM3/port.c **** #define portNVIC_SYSTICK_CURRENT_VALUE_REG	( * ( ( volatile uint32_t * ) 0xe000e018 ) )
  95:FreeRTOS/portable/GCC/ARM_CM3/port.c **** #define portNVIC_SYSPRI2_REG				( * ( ( volatile uint32_t * ) 0xe000ed20 ) )
  96:FreeRTOS/portable/GCC/ARM_CM3/port.c **** /* ...then bits in the registers. */
  97:FreeRTOS/portable/GCC/ARM_CM3/port.c **** #define portNVIC_SYSTICK_INT_BIT			( 1UL << 1UL )
  98:FreeRTOS/portable/GCC/ARM_CM3/port.c **** #define portNVIC_SYSTICK_ENABLE_BIT			( 1UL << 0UL )
  99:FreeRTOS/portable/GCC/ARM_CM3/port.c **** #define portNVIC_SYSTICK_COUNT_FLAG_BIT		( 1UL << 16UL )
 100:FreeRTOS/portable/GCC/ARM_CM3/port.c **** #define portNVIC_PENDSVCLEAR_BIT 			( 1UL << 27UL )
 101:FreeRTOS/portable/GCC/ARM_CM3/port.c **** #define portNVIC_PEND_SYSTICK_CLEAR_BIT		( 1UL << 25UL )
 102:FreeRTOS/portable/GCC/ARM_CM3/port.c **** 
 103:FreeRTOS/portable/GCC/ARM_CM3/port.c **** #define portNVIC_PENDSV_PRI					( ( ( uint32_t ) configKERNEL_INTERRUPT_PRIORITY ) << 16UL )
 104:FreeRTOS/portable/GCC/ARM_CM3/port.c **** #define portNVIC_SYSTICK_PRI				( ( ( uint32_t ) configKERNEL_INTERRUPT_PRIORITY ) << 24UL )
 105:FreeRTOS/portable/GCC/ARM_CM3/port.c **** 
 106:FreeRTOS/portable/GCC/ARM_CM3/port.c **** /* Constants required to check the validity of an interrupt priority. */
 107:FreeRTOS/portable/GCC/ARM_CM3/port.c **** #define portFIRST_USER_INTERRUPT_NUMBER		( 16 )
 108:FreeRTOS/portable/GCC/ARM_CM3/port.c **** #define portNVIC_IP_REGISTERS_OFFSET_16 	( 0xE000E3F0 )
 109:FreeRTOS/portable/GCC/ARM_CM3/port.c **** #define portAIRCR_REG						( * ( ( volatile uint32_t * ) 0xE000ED0C ) )
 110:FreeRTOS/portable/GCC/ARM_CM3/port.c **** #define portMAX_8_BIT_VALUE					( ( uint8_t ) 0xff )
 111:FreeRTOS/portable/GCC/ARM_CM3/port.c **** #define portTOP_BIT_OF_BYTE					( ( uint8_t ) 0x80 )
 112:FreeRTOS/portable/GCC/ARM_CM3/port.c **** #define portMAX_PRIGROUP_BITS				( ( uint8_t ) 7 )
 113:FreeRTOS/portable/GCC/ARM_CM3/port.c **** #define portPRIORITY_GROUP_MASK				( 0x07UL << 8UL )
 114:FreeRTOS/portable/GCC/ARM_CM3/port.c **** #define portPRIGROUP_SHIFT					( 8UL )
 115:FreeRTOS/portable/GCC/ARM_CM3/port.c **** 
 116:FreeRTOS/portable/GCC/ARM_CM3/port.c **** /* Masks off all bits but the VECTACTIVE bits in the ICSR register. */
 117:FreeRTOS/portable/GCC/ARM_CM3/port.c **** #define portVECTACTIVE_MASK					( 0x1FUL )
 118:FreeRTOS/portable/GCC/ARM_CM3/port.c **** 
 119:FreeRTOS/portable/GCC/ARM_CM3/port.c **** /* Constants required to set up the initial stack. */
 120:FreeRTOS/portable/GCC/ARM_CM3/port.c **** #define portINITIAL_XPSR					( 0x01000000UL )
 121:FreeRTOS/portable/GCC/ARM_CM3/port.c **** 
 122:FreeRTOS/portable/GCC/ARM_CM3/port.c **** /* The systick is a 24-bit counter. */
 123:FreeRTOS/portable/GCC/ARM_CM3/port.c **** #define portMAX_24_BIT_NUMBER				( 0xffffffUL )
 124:FreeRTOS/portable/GCC/ARM_CM3/port.c **** 
 125:FreeRTOS/portable/GCC/ARM_CM3/port.c **** /* A fiddle factor to estimate the number of SysTick counts that would have
 126:FreeRTOS/portable/GCC/ARM_CM3/port.c **** occurred while the SysTick counter is stopped during tickless idle
 127:FreeRTOS/portable/GCC/ARM_CM3/port.c **** calculations. */
 128:FreeRTOS/portable/GCC/ARM_CM3/port.c **** #define portMISSED_COUNTS_FACTOR			( 45UL )
 129:FreeRTOS/portable/GCC/ARM_CM3/port.c **** 
 130:FreeRTOS/portable/GCC/ARM_CM3/port.c **** /* Let the user override the pre-loading of the initial LR with the address of
 131:FreeRTOS/portable/GCC/ARM_CM3/port.c **** prvTaskExitError() in case is messes up unwinding of the stack in the
 132:FreeRTOS/portable/GCC/ARM_CM3/port.c **** debugger. */
 133:FreeRTOS/portable/GCC/ARM_CM3/port.c **** #ifdef configTASK_RETURN_ADDRESS
 134:FreeRTOS/portable/GCC/ARM_CM3/port.c **** 	#define portTASK_RETURN_ADDRESS	configTASK_RETURN_ADDRESS
 135:FreeRTOS/portable/GCC/ARM_CM3/port.c **** #else
 136:FreeRTOS/portable/GCC/ARM_CM3/port.c **** 	#define portTASK_RETURN_ADDRESS	prvTaskExitError
 137:FreeRTOS/portable/GCC/ARM_CM3/port.c **** #endif
 138:FreeRTOS/portable/GCC/ARM_CM3/port.c **** 
 139:FreeRTOS/portable/GCC/ARM_CM3/port.c **** /* Each task maintains its own interrupt status in the critical nesting
 140:FreeRTOS/portable/GCC/ARM_CM3/port.c **** variable. */
ARM GAS  /tmp/ccCduwM4.s 			page 5


 141:FreeRTOS/portable/GCC/ARM_CM3/port.c **** static UBaseType_t uxCriticalNesting = 0xaaaaaaaa;
 142:FreeRTOS/portable/GCC/ARM_CM3/port.c **** 
 143:FreeRTOS/portable/GCC/ARM_CM3/port.c **** /*
 144:FreeRTOS/portable/GCC/ARM_CM3/port.c ****  * Setup the timer to generate the tick interrupts.  The implementation in this
 145:FreeRTOS/portable/GCC/ARM_CM3/port.c ****  * file is weak to allow application writers to change the timer used to
 146:FreeRTOS/portable/GCC/ARM_CM3/port.c ****  * generate the tick interrupt.
 147:FreeRTOS/portable/GCC/ARM_CM3/port.c ****  */
 148:FreeRTOS/portable/GCC/ARM_CM3/port.c **** void vPortSetupTimerInterrupt( void );
 149:FreeRTOS/portable/GCC/ARM_CM3/port.c **** 
 150:FreeRTOS/portable/GCC/ARM_CM3/port.c **** /*
 151:FreeRTOS/portable/GCC/ARM_CM3/port.c ****  * Exception handlers.
 152:FreeRTOS/portable/GCC/ARM_CM3/port.c ****  */
 153:FreeRTOS/portable/GCC/ARM_CM3/port.c **** void xPortPendSVHandler( void ) __attribute__ (( naked ));
 154:FreeRTOS/portable/GCC/ARM_CM3/port.c **** void xPortSysTickHandler( void );
 155:FreeRTOS/portable/GCC/ARM_CM3/port.c **** void vPortSVCHandler( void ) __attribute__ (( naked ));
 156:FreeRTOS/portable/GCC/ARM_CM3/port.c **** 
 157:FreeRTOS/portable/GCC/ARM_CM3/port.c **** /*
 158:FreeRTOS/portable/GCC/ARM_CM3/port.c ****  * Start first task is a separate function so it can be tested in isolation.
 159:FreeRTOS/portable/GCC/ARM_CM3/port.c ****  */
 160:FreeRTOS/portable/GCC/ARM_CM3/port.c **** static void prvPortStartFirstTask( void ) __attribute__ (( naked ));
 161:FreeRTOS/portable/GCC/ARM_CM3/port.c **** 
 162:FreeRTOS/portable/GCC/ARM_CM3/port.c **** /*
 163:FreeRTOS/portable/GCC/ARM_CM3/port.c ****  * Used to catch tasks that attempt to return from their implementing function.
 164:FreeRTOS/portable/GCC/ARM_CM3/port.c ****  */
 165:FreeRTOS/portable/GCC/ARM_CM3/port.c **** static void prvTaskExitError( void );
 166:FreeRTOS/portable/GCC/ARM_CM3/port.c **** 
 167:FreeRTOS/portable/GCC/ARM_CM3/port.c **** /*-----------------------------------------------------------*/
 168:FreeRTOS/portable/GCC/ARM_CM3/port.c **** 
 169:FreeRTOS/portable/GCC/ARM_CM3/port.c **** /*
 170:FreeRTOS/portable/GCC/ARM_CM3/port.c ****  * The number of SysTick increments that make up one tick period.
 171:FreeRTOS/portable/GCC/ARM_CM3/port.c ****  */
 172:FreeRTOS/portable/GCC/ARM_CM3/port.c **** #if configUSE_TICKLESS_IDLE == 1
 173:FreeRTOS/portable/GCC/ARM_CM3/port.c **** 	static uint32_t ulTimerCountsForOneTick = 0;
 174:FreeRTOS/portable/GCC/ARM_CM3/port.c **** #endif /* configUSE_TICKLESS_IDLE */
 175:FreeRTOS/portable/GCC/ARM_CM3/port.c **** 
 176:FreeRTOS/portable/GCC/ARM_CM3/port.c **** /*
 177:FreeRTOS/portable/GCC/ARM_CM3/port.c ****  * The maximum number of tick periods that can be suppressed is limited by the
 178:FreeRTOS/portable/GCC/ARM_CM3/port.c ****  * 24 bit resolution of the SysTick timer.
 179:FreeRTOS/portable/GCC/ARM_CM3/port.c ****  */
 180:FreeRTOS/portable/GCC/ARM_CM3/port.c **** #if configUSE_TICKLESS_IDLE == 1
 181:FreeRTOS/portable/GCC/ARM_CM3/port.c **** 	static uint32_t xMaximumPossibleSuppressedTicks = 0;
 182:FreeRTOS/portable/GCC/ARM_CM3/port.c **** #endif /* configUSE_TICKLESS_IDLE */
 183:FreeRTOS/portable/GCC/ARM_CM3/port.c **** 
 184:FreeRTOS/portable/GCC/ARM_CM3/port.c **** /*
 185:FreeRTOS/portable/GCC/ARM_CM3/port.c ****  * Compensate for the CPU cycles that pass while the SysTick is stopped (low
 186:FreeRTOS/portable/GCC/ARM_CM3/port.c ****  * power functionality only.
 187:FreeRTOS/portable/GCC/ARM_CM3/port.c ****  */
 188:FreeRTOS/portable/GCC/ARM_CM3/port.c **** #if configUSE_TICKLESS_IDLE == 1
 189:FreeRTOS/portable/GCC/ARM_CM3/port.c **** 	static uint32_t ulStoppedTimerCompensation = 0;
 190:FreeRTOS/portable/GCC/ARM_CM3/port.c **** #endif /* configUSE_TICKLESS_IDLE */
 191:FreeRTOS/portable/GCC/ARM_CM3/port.c **** 
 192:FreeRTOS/portable/GCC/ARM_CM3/port.c **** /*
 193:FreeRTOS/portable/GCC/ARM_CM3/port.c ****  * Used by the portASSERT_IF_INTERRUPT_PRIORITY_INVALID() macro to ensure
 194:FreeRTOS/portable/GCC/ARM_CM3/port.c ****  * FreeRTOS API functions are not called from interrupts that have been assigned
 195:FreeRTOS/portable/GCC/ARM_CM3/port.c ****  * a priority above configMAX_SYSCALL_INTERRUPT_PRIORITY.
 196:FreeRTOS/portable/GCC/ARM_CM3/port.c ****  */
 197:FreeRTOS/portable/GCC/ARM_CM3/port.c **** #if ( configASSERT_DEFINED == 1 )
ARM GAS  /tmp/ccCduwM4.s 			page 6


 198:FreeRTOS/portable/GCC/ARM_CM3/port.c **** 	 static uint8_t ucMaxSysCallPriority = 0;
 199:FreeRTOS/portable/GCC/ARM_CM3/port.c **** 	 static uint32_t ulMaxPRIGROUPValue = 0;
 200:FreeRTOS/portable/GCC/ARM_CM3/port.c **** 	 static const volatile uint8_t * const pcInterruptPriorityRegisters = ( const volatile uint8_t * c
 201:FreeRTOS/portable/GCC/ARM_CM3/port.c **** #endif /* configASSERT_DEFINED */
 202:FreeRTOS/portable/GCC/ARM_CM3/port.c **** 
 203:FreeRTOS/portable/GCC/ARM_CM3/port.c **** /*-----------------------------------------------------------*/
 204:FreeRTOS/portable/GCC/ARM_CM3/port.c **** 
 205:FreeRTOS/portable/GCC/ARM_CM3/port.c **** /*
 206:FreeRTOS/portable/GCC/ARM_CM3/port.c ****  * See header file for description.
 207:FreeRTOS/portable/GCC/ARM_CM3/port.c ****  */
 208:FreeRTOS/portable/GCC/ARM_CM3/port.c **** StackType_t *pxPortInitialiseStack( StackType_t *pxTopOfStack, TaskFunction_t pxCode, void *pvParam
 209:FreeRTOS/portable/GCC/ARM_CM3/port.c **** {
  89              		.loc 1 209 0
  90              		.cfi_startproc
  91              		@ args = 0, pretend = 0, frame = 16
  92              		@ frame_needed = 1, uses_anonymous_args = 0
  93              		@ link register save eliminated.
  94 0000 80B4     		push	{r7}	@
  95              		.cfi_def_cfa_offset 4
  96              		.cfi_offset 7, -4
  97 0002 85B0     		sub	sp, sp, #20	@,,
  98              		.cfi_def_cfa_offset 24
  99 0004 00AF     		add	r7, sp, #0	@,,
 100              		.cfi_def_cfa_register 7
 101 0006 F860     		str	r0, [r7, #12]	@ pxTopOfStack, pxTopOfStack
 102 0008 B960     		str	r1, [r7, #8]	@ pxCode, pxCode
 103 000a 7A60     		str	r2, [r7, #4]	@ pvParameters, pvParameters
 104              	@ FreeRTOS/portable/GCC/ARM_CM3/port.c:212: 	pxTopOfStack--; /* Offset added to account for the way
 210:FreeRTOS/portable/GCC/ARM_CM3/port.c **** 	/* Simulate the stack frame as it would be created by a context switch
 211:FreeRTOS/portable/GCC/ARM_CM3/port.c **** 	interrupt. */
 212:FreeRTOS/portable/GCC/ARM_CM3/port.c **** 	pxTopOfStack--; /* Offset added to account for the way the MCU uses the stack on entry/exit of int
 105              		.loc 1 212 0
 106 000c FB68     		ldr	r3, [r7, #12]	@ tmp116, pxTopOfStack
 107 000e 043B     		subs	r3, r3, #4	@ tmp115, tmp116,
 108 0010 FB60     		str	r3, [r7, #12]	@ tmp115, pxTopOfStack
 109              	@ FreeRTOS/portable/GCC/ARM_CM3/port.c:213: 	*pxTopOfStack = portINITIAL_XPSR;	/* xPSR */
 213:FreeRTOS/portable/GCC/ARM_CM3/port.c **** 	*pxTopOfStack = portINITIAL_XPSR;	/* xPSR */
 110              		.loc 1 213 0
 111 0012 FB68     		ldr	r3, [r7, #12]	@ tmp117, pxTopOfStack
 112 0014 4FF08072 		mov	r2, #16777216	@ tmp118,
 113 0018 1A60     		str	r2, [r3]	@ tmp118, *pxTopOfStack_5
 114              	@ FreeRTOS/portable/GCC/ARM_CM3/port.c:214: 	pxTopOfStack--;
 214:FreeRTOS/portable/GCC/ARM_CM3/port.c **** 	pxTopOfStack--;
 115              		.loc 1 214 0
 116 001a FB68     		ldr	r3, [r7, #12]	@ tmp120, pxTopOfStack
 117 001c 043B     		subs	r3, r3, #4	@ tmp119, tmp120,
 118 001e FB60     		str	r3, [r7, #12]	@ tmp119, pxTopOfStack
 119              	@ FreeRTOS/portable/GCC/ARM_CM3/port.c:215: 	*pxTopOfStack = ( StackType_t ) pxCode;	/* PC */
 215:FreeRTOS/portable/GCC/ARM_CM3/port.c **** 	*pxTopOfStack = ( StackType_t ) pxCode;	/* PC */
 120              		.loc 1 215 0
 121 0020 BA68     		ldr	r2, [r7, #8]	@ pxCode.0_1, pxCode
 122 0022 FB68     		ldr	r3, [r7, #12]	@ tmp121, pxTopOfStack
 123 0024 1A60     		str	r2, [r3]	@ pxCode.0_1, *pxTopOfStack_8
 124              	@ FreeRTOS/portable/GCC/ARM_CM3/port.c:216: 	pxTopOfStack--;
 216:FreeRTOS/portable/GCC/ARM_CM3/port.c **** 	pxTopOfStack--;
 125              		.loc 1 216 0
 126 0026 FB68     		ldr	r3, [r7, #12]	@ tmp123, pxTopOfStack
ARM GAS  /tmp/ccCduwM4.s 			page 7


 127 0028 043B     		subs	r3, r3, #4	@ tmp122, tmp123,
 128 002a FB60     		str	r3, [r7, #12]	@ tmp122, pxTopOfStack
 129              	@ FreeRTOS/portable/GCC/ARM_CM3/port.c:217: 	*pxTopOfStack = ( StackType_t ) portTASK_RETURN_ADDRES
 217:FreeRTOS/portable/GCC/ARM_CM3/port.c **** 	*pxTopOfStack = ( StackType_t ) portTASK_RETURN_ADDRESS;	/* LR */
 130              		.loc 1 217 0
 131 002c 084A     		ldr	r2, .L3	@ prvTaskExitError.1_2,
 132 002e FB68     		ldr	r3, [r7, #12]	@ tmp124, pxTopOfStack
 133 0030 1A60     		str	r2, [r3]	@ prvTaskExitError.1_2, *pxTopOfStack_11
 134              	@ FreeRTOS/portable/GCC/ARM_CM3/port.c:218: 	pxTopOfStack -= 5;	/* R12, R3, R2 and R1. */
 218:FreeRTOS/portable/GCC/ARM_CM3/port.c **** 	pxTopOfStack -= 5;	/* R12, R3, R2 and R1. */
 135              		.loc 1 218 0
 136 0032 FB68     		ldr	r3, [r7, #12]	@ tmp126, pxTopOfStack
 137 0034 143B     		subs	r3, r3, #20	@ tmp125, tmp126,
 138 0036 FB60     		str	r3, [r7, #12]	@ tmp125, pxTopOfStack
 139              	@ FreeRTOS/portable/GCC/ARM_CM3/port.c:219: 	*pxTopOfStack = ( StackType_t ) pvParameters;	/* R0 */
 219:FreeRTOS/portable/GCC/ARM_CM3/port.c **** 	*pxTopOfStack = ( StackType_t ) pvParameters;	/* R0 */
 140              		.loc 1 219 0
 141 0038 7A68     		ldr	r2, [r7, #4]	@ pvParameters.2_3, pvParameters
 142 003a FB68     		ldr	r3, [r7, #12]	@ tmp127, pxTopOfStack
 143 003c 1A60     		str	r2, [r3]	@ pvParameters.2_3, *pxTopOfStack_13
 144              	@ FreeRTOS/portable/GCC/ARM_CM3/port.c:220: 	pxTopOfStack -= 8;	/* R11, R10, R9, R8, R7, R6, R5 and
 220:FreeRTOS/portable/GCC/ARM_CM3/port.c **** 	pxTopOfStack -= 8;	/* R11, R10, R9, R8, R7, R6, R5 and R4. */
 145              		.loc 1 220 0
 146 003e FB68     		ldr	r3, [r7, #12]	@ tmp129, pxTopOfStack
 147 0040 203B     		subs	r3, r3, #32	@ tmp128, tmp129,
 148 0042 FB60     		str	r3, [r7, #12]	@ tmp128, pxTopOfStack
 149              	@ FreeRTOS/portable/GCC/ARM_CM3/port.c:222: 	return pxTopOfStack;
 221:FreeRTOS/portable/GCC/ARM_CM3/port.c **** 
 222:FreeRTOS/portable/GCC/ARM_CM3/port.c **** 	return pxTopOfStack;
 150              		.loc 1 222 0
 151 0044 FB68     		ldr	r3, [r7, #12]	@ _17, pxTopOfStack
 152              	@ FreeRTOS/portable/GCC/ARM_CM3/port.c:223: }
 223:FreeRTOS/portable/GCC/ARM_CM3/port.c **** }
 153              		.loc 1 223 0
 154 0046 1846     		mov	r0, r3	@, <retval>
 155 0048 1437     		adds	r7, r7, #20	@,,
 156              		.cfi_def_cfa_offset 4
 157 004a BD46     		mov	sp, r7	@,
 158              		.cfi_def_cfa_register 13
 159              		@ sp needed	@
 160 004c 80BC     		pop	{r7}	@
 161              		.cfi_restore 7
 162              		.cfi_def_cfa_offset 0
 163 004e 7047     		bx	lr	@
 164              	.L4:
 165              		.align	2
 166              	.L3:
 167 0050 00000000 		.word	prvTaskExitError
 168              		.cfi_endproc
 169              	.LFE1:
 170              		.size	pxPortInitialiseStack, .-pxPortInitialiseStack
 171              		.section	.text.prvTaskExitError,"ax",%progbits
 172              		.align	1
 173              		.syntax unified
 174              		.thumb
 175              		.thumb_func
 176              		.fpu softvfp
ARM GAS  /tmp/ccCduwM4.s 			page 8


 177              		.type	prvTaskExitError, %function
 178              	prvTaskExitError:
 179              	.LFB2:
 224:FreeRTOS/portable/GCC/ARM_CM3/port.c **** /*-----------------------------------------------------------*/
 225:FreeRTOS/portable/GCC/ARM_CM3/port.c **** 
 226:FreeRTOS/portable/GCC/ARM_CM3/port.c **** static void prvTaskExitError( void )
 227:FreeRTOS/portable/GCC/ARM_CM3/port.c **** {
 180              		.loc 1 227 0
 181              		.cfi_startproc
 182              		@ args = 0, pretend = 0, frame = 0
 183              		@ frame_needed = 1, uses_anonymous_args = 0
 184 0000 80B5     		push	{r7, lr}	@
 185              		.cfi_def_cfa_offset 8
 186              		.cfi_offset 7, -8
 187              		.cfi_offset 14, -4
 188 0002 00AF     		add	r7, sp, #0	@,,
 189              		.cfi_def_cfa_register 7
 190              	@ FreeRTOS/portable/GCC/ARM_CM3/port.c:234: 	configASSERT( uxCriticalNesting == ~0UL );
 228:FreeRTOS/portable/GCC/ARM_CM3/port.c **** 	/* A function that implements a task must not exit or attempt to return to
 229:FreeRTOS/portable/GCC/ARM_CM3/port.c **** 	its caller as there is nothing to return to.  If a task wants to exit it
 230:FreeRTOS/portable/GCC/ARM_CM3/port.c **** 	should instead call vTaskDelete( NULL ).
 231:FreeRTOS/portable/GCC/ARM_CM3/port.c **** 
 232:FreeRTOS/portable/GCC/ARM_CM3/port.c **** 	Artificially force an assert() to be triggered if configASSERT() is
 233:FreeRTOS/portable/GCC/ARM_CM3/port.c **** 	defined, then stop here so application writers can catch the error. */
 234:FreeRTOS/portable/GCC/ARM_CM3/port.c **** 	configASSERT( uxCriticalNesting == ~0UL );
 191              		.loc 1 234 0
 192 0004 054B     		ldr	r3, .L9	@ tmp111,
 193 0006 1B68     		ldr	r3, [r3]	@ uxCriticalNesting.3_1, uxCriticalNesting
 194 0008 B3F1FF3F 		cmp	r3, #-1	@ uxCriticalNesting.3_1,
 195 000c 02D0     		beq	.L6	@,
 196              	@ FreeRTOS/portable/GCC/ARM_CM3/port.c:234: 	configASSERT( uxCriticalNesting == ~0UL );
 197              		.loc 1 234 0 is_stmt 0 discriminator 1
 198 000e FFF7FEFF 		bl	ulPortSetInterruptMask	@
 199              	.L7:
 200 0012 FEE7     		b	.L7	@
 201              	.L6:
 202              	@ FreeRTOS/portable/GCC/ARM_CM3/port.c:235: 	portDISABLE_INTERRUPTS();
 235:FreeRTOS/portable/GCC/ARM_CM3/port.c **** 	portDISABLE_INTERRUPTS();
 203              		.loc 1 235 0 is_stmt 1
 204 0014 FFF7FEFF 		bl	ulPortSetInterruptMask	@
 205              	.L8:
 206              	@ FreeRTOS/portable/GCC/ARM_CM3/port.c:236: 	for( ;; );
 236:FreeRTOS/portable/GCC/ARM_CM3/port.c **** 	for( ;; );
 207              		.loc 1 236 0 discriminator 2
 208 0018 FEE7     		b	.L8	@
 209              	.L10:
 210 001a 00BF     		.align	2
 211              	.L9:
 212 001c 00000000 		.word	uxCriticalNesting
 213              		.cfi_endproc
 214              	.LFE2:
 215              		.size	prvTaskExitError, .-prvTaskExitError
 216              		.section	.text.vPortSVCHandler,"ax",%progbits
 217              		.align	1
 218              		.global	vPortSVCHandler
 219              		.syntax unified
 220              		.thumb
ARM GAS  /tmp/ccCduwM4.s 			page 9


 221              		.thumb_func
 222              		.fpu softvfp
 223              		.type	vPortSVCHandler, %function
 224              	vPortSVCHandler:
 225              	.LFB3:
 237:FreeRTOS/portable/GCC/ARM_CM3/port.c **** }
 238:FreeRTOS/portable/GCC/ARM_CM3/port.c **** /*-----------------------------------------------------------*/
 239:FreeRTOS/portable/GCC/ARM_CM3/port.c **** 
 240:FreeRTOS/portable/GCC/ARM_CM3/port.c **** void vPortSVCHandler( void )
 241:FreeRTOS/portable/GCC/ARM_CM3/port.c **** {
 226              		.loc 1 241 0
 227              		.cfi_startproc
 228              		@ Naked Function: prologue and epilogue provided by programmer.
 229              		@ args = 0, pretend = 0, frame = 0
 230              		@ frame_needed = 1, uses_anonymous_args = 0
 231              	@ FreeRTOS/portable/GCC/ARM_CM3/port.c:242: 	__asm volatile (
 242:FreeRTOS/portable/GCC/ARM_CM3/port.c **** 	__asm volatile (
 232              		.loc 1 242 0
 233              		.syntax unified
 234              	@ 242 "FreeRTOS/portable/GCC/ARM_CM3/port.c" 1
 235 0000 074B     			ldr	r3, pxCurrentTCBConst2		
 236 0002 1968     		ldr r1, [r3]					
 237 0004 0868     		ldr r0, [r1]					
 238 0006 B0E8F00F 		ldmia r0!, {r4-r11}				
 239 000a 80F30988 		msr psp, r0						
 240 000e BFF36F8F 		isb								
 241 0012 4FF00000 		mov r0, #0 						
 242 0016 80F31188 		msr	basepri, r0					
 243 001a 4EF00D0E 		orr r14, #0xd					
 244 001e 7047     		bx r14							
 245              										
 246              		.align 2						
 247 0020 00000000 	pxCurrentTCBConst2: .word pxCurrentTCB				
 248              	
 249              	@ 0 "" 2
 250              	@ FreeRTOS/portable/GCC/ARM_CM3/port.c:257: }
 243:FreeRTOS/portable/GCC/ARM_CM3/port.c **** 					"	ldr	r3, pxCurrentTCBConst2		\n" /* Restore the context. */
 244:FreeRTOS/portable/GCC/ARM_CM3/port.c **** 					"	ldr r1, [r3]					\n" /* Use pxCurrentTCBConst to get the pxCurrentTCB address. */
 245:FreeRTOS/portable/GCC/ARM_CM3/port.c **** 					"	ldr r0, [r1]					\n" /* The first item in pxCurrentTCB is the task top of stack. */
 246:FreeRTOS/portable/GCC/ARM_CM3/port.c **** 					"	ldmia r0!, {r4-r11}				\n" /* Pop the registers that are not automatically saved on exceptio
 247:FreeRTOS/portable/GCC/ARM_CM3/port.c **** 					"	msr psp, r0						\n" /* Restore the task stack pointer. */
 248:FreeRTOS/portable/GCC/ARM_CM3/port.c **** 					"	isb								\n"
 249:FreeRTOS/portable/GCC/ARM_CM3/port.c **** 					"	mov r0, #0 						\n"
 250:FreeRTOS/portable/GCC/ARM_CM3/port.c **** 					"	msr	basepri, r0					\n"
 251:FreeRTOS/portable/GCC/ARM_CM3/port.c **** 					"	orr r14, #0xd					\n"
 252:FreeRTOS/portable/GCC/ARM_CM3/port.c **** 					"	bx r14							\n"
 253:FreeRTOS/portable/GCC/ARM_CM3/port.c **** 					"									\n"
 254:FreeRTOS/portable/GCC/ARM_CM3/port.c **** 					"	.align 2						\n"
 255:FreeRTOS/portable/GCC/ARM_CM3/port.c **** 					"pxCurrentTCBConst2: .word pxCurrentTCB				\n"
 256:FreeRTOS/portable/GCC/ARM_CM3/port.c **** 				);
 257:FreeRTOS/portable/GCC/ARM_CM3/port.c **** }
 251              		.loc 1 257 0
 252              		.thumb
 253              		.syntax unified
 254 0024 00BF     		nop
 255              		.cfi_endproc
 256              	.LFE3:
ARM GAS  /tmp/ccCduwM4.s 			page 10


 257              		.size	vPortSVCHandler, .-vPortSVCHandler
 258 0026 00BF     		.section	.text.prvPortStartFirstTask,"ax",%progbits
 259              		.align	1
 260              		.syntax unified
 261              		.thumb
 262              		.thumb_func
 263              		.fpu softvfp
 264              		.type	prvPortStartFirstTask, %function
 265              	prvPortStartFirstTask:
 266              	.LFB4:
 258:FreeRTOS/portable/GCC/ARM_CM3/port.c **** /*-----------------------------------------------------------*/
 259:FreeRTOS/portable/GCC/ARM_CM3/port.c **** 
 260:FreeRTOS/portable/GCC/ARM_CM3/port.c **** static void prvPortStartFirstTask( void )
 261:FreeRTOS/portable/GCC/ARM_CM3/port.c **** {
 267              		.loc 1 261 0
 268              		.cfi_startproc
 269              		@ Naked Function: prologue and epilogue provided by programmer.
 270              		@ args = 0, pretend = 0, frame = 0
 271              		@ frame_needed = 1, uses_anonymous_args = 0
 272              	@ FreeRTOS/portable/GCC/ARM_CM3/port.c:262: 	__asm volatile(
 262:FreeRTOS/portable/GCC/ARM_CM3/port.c **** 	__asm volatile(
 273              		.loc 1 262 0
 274              		.syntax unified
 275              	@ 262 "FreeRTOS/portable/GCC/ARM_CM3/port.c" 1
 276 0000 0648     		 ldr r0, =0xE000ED08 	
 277 0002 0068     	 ldr r0, [r0] 			
 278 0004 0068     	 ldr r0, [r0] 			
 279 0006 80F30888 	 msr msp, r0			
 280 000a 62B6     	 cpsie i				
 281 000c 61B6     	 cpsie f				
 282 000e BFF34F8F 	 dsb					
 283 0012 BFF36F8F 	 isb					
 284 0016 00DF     	 svc 0					
 285 0018 00BF     	 nop					
 286              	
 287              	@ 0 "" 2
 288              	@ FreeRTOS/portable/GCC/ARM_CM3/port.c:274: }
 263:FreeRTOS/portable/GCC/ARM_CM3/port.c **** 					" ldr r0, =0xE000ED08 	\n" /* Use the NVIC offset register to locate the stack. */
 264:FreeRTOS/portable/GCC/ARM_CM3/port.c **** 					" ldr r0, [r0] 			\n"
 265:FreeRTOS/portable/GCC/ARM_CM3/port.c **** 					" ldr r0, [r0] 			\n"
 266:FreeRTOS/portable/GCC/ARM_CM3/port.c **** 					" msr msp, r0			\n" /* Set the msp back to the start of the stack. */
 267:FreeRTOS/portable/GCC/ARM_CM3/port.c **** 					" cpsie i				\n" /* Globally enable interrupts. */
 268:FreeRTOS/portable/GCC/ARM_CM3/port.c **** 					" cpsie f				\n"
 269:FreeRTOS/portable/GCC/ARM_CM3/port.c **** 					" dsb					\n"
 270:FreeRTOS/portable/GCC/ARM_CM3/port.c **** 					" isb					\n"
 271:FreeRTOS/portable/GCC/ARM_CM3/port.c **** 					" svc 0					\n" /* System call to start first task. */
 272:FreeRTOS/portable/GCC/ARM_CM3/port.c **** 					" nop					\n"
 273:FreeRTOS/portable/GCC/ARM_CM3/port.c **** 				);
 274:FreeRTOS/portable/GCC/ARM_CM3/port.c **** }
 289              		.loc 1 274 0
 290              		.thumb
 291              		.syntax unified
 292 001a 00BF     		nop
 293              		.cfi_endproc
 294              	.LFE4:
 295              		.size	prvPortStartFirstTask, .-prvPortStartFirstTask
 296              		.section	.text.xPortStartScheduler,"ax",%progbits
ARM GAS  /tmp/ccCduwM4.s 			page 11


 297              		.align	1
 298              		.global	xPortStartScheduler
 299              		.syntax unified
 300              		.thumb
 301              		.thumb_func
 302              		.fpu softvfp
 303              		.type	xPortStartScheduler, %function
 304              	xPortStartScheduler:
 305              	.LFB5:
 275:FreeRTOS/portable/GCC/ARM_CM3/port.c **** /*-----------------------------------------------------------*/
 276:FreeRTOS/portable/GCC/ARM_CM3/port.c **** 
 277:FreeRTOS/portable/GCC/ARM_CM3/port.c **** /*
 278:FreeRTOS/portable/GCC/ARM_CM3/port.c ****  * See header file for description.
 279:FreeRTOS/portable/GCC/ARM_CM3/port.c ****  */
 280:FreeRTOS/portable/GCC/ARM_CM3/port.c **** BaseType_t xPortStartScheduler( void )
 281:FreeRTOS/portable/GCC/ARM_CM3/port.c **** {
 306              		.loc 1 281 0
 307              		.cfi_startproc
 308              		@ args = 0, pretend = 0, frame = 16
 309              		@ frame_needed = 1, uses_anonymous_args = 0
 310 0000 80B5     		push	{r7, lr}	@
 311              		.cfi_def_cfa_offset 8
 312              		.cfi_offset 7, -8
 313              		.cfi_offset 14, -4
 314 0002 84B0     		sub	sp, sp, #16	@,,
 315              		.cfi_def_cfa_offset 24
 316 0004 00AF     		add	r7, sp, #0	@,,
 317              		.cfi_def_cfa_register 7
 318              	.LBB2:
 319              	@ FreeRTOS/portable/GCC/ARM_CM3/port.c:289: 		volatile uint8_t * const pucFirstUserPriorityRegister
 282:FreeRTOS/portable/GCC/ARM_CM3/port.c **** 	/* configMAX_SYSCALL_INTERRUPT_PRIORITY must not be set to 0.
 283:FreeRTOS/portable/GCC/ARM_CM3/port.c **** 	See http://www.FreeRTOS.org/RTOS-Cortex-M3-M4.html */
 284:FreeRTOS/portable/GCC/ARM_CM3/port.c **** 	configASSERT( configMAX_SYSCALL_INTERRUPT_PRIORITY );
 285:FreeRTOS/portable/GCC/ARM_CM3/port.c **** 
 286:FreeRTOS/portable/GCC/ARM_CM3/port.c **** 	#if( configASSERT_DEFINED == 1 )
 287:FreeRTOS/portable/GCC/ARM_CM3/port.c **** 	{
 288:FreeRTOS/portable/GCC/ARM_CM3/port.c **** 		volatile uint32_t ulOriginalPriority;
 289:FreeRTOS/portable/GCC/ARM_CM3/port.c **** 		volatile uint8_t * const pucFirstUserPriorityRegister = ( volatile uint8_t * const ) ( portNVIC_I
 320              		.loc 1 289 0
 321 0006 284B     		ldr	r3, .L17	@ tmp138,
 322 0008 FB60     		str	r3, [r7, #12]	@ tmp138, pucFirstUserPriorityRegister
 323              	@ FreeRTOS/portable/GCC/ARM_CM3/port.c:298: 		ulOriginalPriority = *pucFirstUserPriorityRegister;
 290:FreeRTOS/portable/GCC/ARM_CM3/port.c **** 		volatile uint8_t ucMaxPriorityValue;
 291:FreeRTOS/portable/GCC/ARM_CM3/port.c **** 
 292:FreeRTOS/portable/GCC/ARM_CM3/port.c **** 		/* Determine the maximum priority from which ISR safe FreeRTOS API
 293:FreeRTOS/portable/GCC/ARM_CM3/port.c **** 		functions can be called.  ISR safe functions are those that end in
 294:FreeRTOS/portable/GCC/ARM_CM3/port.c **** 		"FromISR".  FreeRTOS maintains separate thread and ISR API functions to
 295:FreeRTOS/portable/GCC/ARM_CM3/port.c **** 		ensure interrupt entry is as fast and simple as possible.
 296:FreeRTOS/portable/GCC/ARM_CM3/port.c **** 
 297:FreeRTOS/portable/GCC/ARM_CM3/port.c **** 		Save the interrupt priority value that is about to be clobbered. */
 298:FreeRTOS/portable/GCC/ARM_CM3/port.c **** 		ulOriginalPriority = *pucFirstUserPriorityRegister;
 324              		.loc 1 298 0
 325 000a FB68     		ldr	r3, [r7, #12]	@ tmp139, pucFirstUserPriorityRegister
 326 000c 1B78     		ldrb	r3, [r3]	@ tmp140, *pucFirstUserPriorityRegister_28
 327 000e DBB2     		uxtb	r3, r3	@ _1, tmp140
 328 0010 BB60     		str	r3, [r7, #8]	@ _2, ulOriginalPriority
 329              	@ FreeRTOS/portable/GCC/ARM_CM3/port.c:302: 		*pucFirstUserPriorityRegister = portMAX_8_BIT_VALUE;
ARM GAS  /tmp/ccCduwM4.s 			page 12


 299:FreeRTOS/portable/GCC/ARM_CM3/port.c **** 
 300:FreeRTOS/portable/GCC/ARM_CM3/port.c **** 		/* Determine the number of priority bits available.  First write to all
 301:FreeRTOS/portable/GCC/ARM_CM3/port.c **** 		possible bits. */
 302:FreeRTOS/portable/GCC/ARM_CM3/port.c **** 		*pucFirstUserPriorityRegister = portMAX_8_BIT_VALUE;
 330              		.loc 1 302 0
 331 0012 FB68     		ldr	r3, [r7, #12]	@ tmp141, pucFirstUserPriorityRegister
 332 0014 FF22     		movs	r2, #255	@ tmp142,
 333 0016 1A70     		strb	r2, [r3]	@ tmp143, *pucFirstUserPriorityRegister_28
 334              	@ FreeRTOS/portable/GCC/ARM_CM3/port.c:305: 		ucMaxPriorityValue = *pucFirstUserPriorityRegister;
 303:FreeRTOS/portable/GCC/ARM_CM3/port.c **** 
 304:FreeRTOS/portable/GCC/ARM_CM3/port.c **** 		/* Read the value back to see how many bits stuck. */
 305:FreeRTOS/portable/GCC/ARM_CM3/port.c **** 		ucMaxPriorityValue = *pucFirstUserPriorityRegister;
 335              		.loc 1 305 0
 336 0018 FB68     		ldr	r3, [r7, #12]	@ tmp144, pucFirstUserPriorityRegister
 337 001a 1B78     		ldrb	r3, [r3]	@ tmp145, *pucFirstUserPriorityRegister_28
 338 001c DBB2     		uxtb	r3, r3	@ _3, tmp145
 339 001e FB71     		strb	r3, [r7, #7]	@ tmp146, ucMaxPriorityValue
 340              	@ FreeRTOS/portable/GCC/ARM_CM3/port.c:308: 		ucMaxSysCallPriority = configMAX_SYSCALL_INTERRUPT_PR
 306:FreeRTOS/portable/GCC/ARM_CM3/port.c **** 
 307:FreeRTOS/portable/GCC/ARM_CM3/port.c **** 		/* Use the same mask on the maximum system call priority. */
 308:FreeRTOS/portable/GCC/ARM_CM3/port.c **** 		ucMaxSysCallPriority = configMAX_SYSCALL_INTERRUPT_PRIORITY & ucMaxPriorityValue;
 341              		.loc 1 308 0
 342 0020 FB79     		ldrb	r3, [r7, #7]	@ tmp148, ucMaxPriorityValue
 343 0022 DBB2     		uxtb	r3, r3	@ ucMaxPriorityValue.4_4, tmp148
 344 0024 03F02803 		and	r3, r3, #40	@ tmp149, ucMaxPriorityValue.4_4,
 345 0028 DAB2     		uxtb	r2, r3	@ _5, tmp149
 346 002a 204B     		ldr	r3, .L17+4	@ tmp150,
 347 002c 1A70     		strb	r2, [r3]	@ tmp151, ucMaxSysCallPriority
 348              	@ FreeRTOS/portable/GCC/ARM_CM3/port.c:312: 		ulMaxPRIGROUPValue = portMAX_PRIGROUP_BITS;
 309:FreeRTOS/portable/GCC/ARM_CM3/port.c **** 
 310:FreeRTOS/portable/GCC/ARM_CM3/port.c **** 		/* Calculate the maximum acceptable priority group value for the number
 311:FreeRTOS/portable/GCC/ARM_CM3/port.c **** 		of bits read back. */
 312:FreeRTOS/portable/GCC/ARM_CM3/port.c **** 		ulMaxPRIGROUPValue = portMAX_PRIGROUP_BITS;
 349              		.loc 1 312 0
 350 002e 204B     		ldr	r3, .L17+8	@ tmp152,
 351 0030 0722     		movs	r2, #7	@ tmp153,
 352 0032 1A60     		str	r2, [r3]	@ tmp153, ulMaxPRIGROUPValue
 353              	@ FreeRTOS/portable/GCC/ARM_CM3/port.c:313: 		while( ( ucMaxPriorityValue & portTOP_BIT_OF_BYTE ) =
 313:FreeRTOS/portable/GCC/ARM_CM3/port.c **** 		while( ( ucMaxPriorityValue & portTOP_BIT_OF_BYTE ) == portTOP_BIT_OF_BYTE )
 354              		.loc 1 313 0
 355 0034 09E0     		b	.L14	@
 356              	.L15:
 357              	@ FreeRTOS/portable/GCC/ARM_CM3/port.c:315: 			ulMaxPRIGROUPValue--;
 314:FreeRTOS/portable/GCC/ARM_CM3/port.c **** 		{
 315:FreeRTOS/portable/GCC/ARM_CM3/port.c **** 			ulMaxPRIGROUPValue--;
 358              		.loc 1 315 0
 359 0036 1E4B     		ldr	r3, .L17+8	@ tmp154,
 360 0038 1B68     		ldr	r3, [r3]	@ ulMaxPRIGROUPValue.5_6, ulMaxPRIGROUPValue
 361 003a 013B     		subs	r3, r3, #1	@ _7, ulMaxPRIGROUPValue.5_6,
 362 003c 1C4A     		ldr	r2, .L17+8	@ tmp155,
 363 003e 1360     		str	r3, [r2]	@ _7, ulMaxPRIGROUPValue
 364              	@ FreeRTOS/portable/GCC/ARM_CM3/port.c:316: 			ucMaxPriorityValue <<= ( uint8_t ) 0x01;
 316:FreeRTOS/portable/GCC/ARM_CM3/port.c **** 			ucMaxPriorityValue <<= ( uint8_t ) 0x01;
 365              		.loc 1 316 0
 366 0040 FB79     		ldrb	r3, [r7, #7]	@ tmp157, ucMaxPriorityValue
 367 0042 DBB2     		uxtb	r3, r3	@ ucMaxPriorityValue.6_8, tmp157
 368 0044 5B00     		lsls	r3, r3, #1	@ tmp158, ucMaxPriorityValue.6_8,
ARM GAS  /tmp/ccCduwM4.s 			page 13


 369 0046 DBB2     		uxtb	r3, r3	@ _9, tmp158
 370 0048 FB71     		strb	r3, [r7, #7]	@ tmp159, ucMaxPriorityValue
 371              	.L14:
 372              	@ FreeRTOS/portable/GCC/ARM_CM3/port.c:313: 		while( ( ucMaxPriorityValue & portTOP_BIT_OF_BYTE ) =
 313:FreeRTOS/portable/GCC/ARM_CM3/port.c **** 		while( ( ucMaxPriorityValue & portTOP_BIT_OF_BYTE ) == portTOP_BIT_OF_BYTE )
 373              		.loc 1 313 0
 374 004a FB79     		ldrb	r3, [r7, #7]	@ tmp161, ucMaxPriorityValue
 375 004c DBB2     		uxtb	r3, r3	@ ucMaxPriorityValue.7_10, tmp161
 376 004e 03F08003 		and	r3, r3, #128	@ _12, _11,
 377 0052 802B     		cmp	r3, #128	@ _12,
 378 0054 EFD0     		beq	.L15	@,
 379              	@ FreeRTOS/portable/GCC/ARM_CM3/port.c:321: 		ulMaxPRIGROUPValue <<= portPRIGROUP_SHIFT;
 317:FreeRTOS/portable/GCC/ARM_CM3/port.c **** 		}
 318:FreeRTOS/portable/GCC/ARM_CM3/port.c **** 
 319:FreeRTOS/portable/GCC/ARM_CM3/port.c **** 		/* Shift the priority group value back to its position within the AIRCR
 320:FreeRTOS/portable/GCC/ARM_CM3/port.c **** 		register. */
 321:FreeRTOS/portable/GCC/ARM_CM3/port.c **** 		ulMaxPRIGROUPValue <<= portPRIGROUP_SHIFT;
 380              		.loc 1 321 0
 381 0056 164B     		ldr	r3, .L17+8	@ tmp162,
 382 0058 1B68     		ldr	r3, [r3]	@ ulMaxPRIGROUPValue.8_13, ulMaxPRIGROUPValue
 383 005a 1B02     		lsls	r3, r3, #8	@ _14, ulMaxPRIGROUPValue.8_13,
 384 005c 144A     		ldr	r2, .L17+8	@ tmp163,
 385 005e 1360     		str	r3, [r2]	@ _14, ulMaxPRIGROUPValue
 386              	@ FreeRTOS/portable/GCC/ARM_CM3/port.c:322: 		ulMaxPRIGROUPValue &= portPRIORITY_GROUP_MASK;
 322:FreeRTOS/portable/GCC/ARM_CM3/port.c **** 		ulMaxPRIGROUPValue &= portPRIORITY_GROUP_MASK;
 387              		.loc 1 322 0
 388 0060 134B     		ldr	r3, .L17+8	@ tmp164,
 389 0062 1B68     		ldr	r3, [r3]	@ ulMaxPRIGROUPValue.9_15, ulMaxPRIGROUPValue
 390 0064 03F4E063 		and	r3, r3, #1792	@ _16, ulMaxPRIGROUPValue.9_15,
 391 0068 114A     		ldr	r2, .L17+8	@ tmp165,
 392 006a 1360     		str	r3, [r2]	@ _16, ulMaxPRIGROUPValue
 393              	@ FreeRTOS/portable/GCC/ARM_CM3/port.c:326: 		*pucFirstUserPriorityRegister = ulOriginalPriority;
 323:FreeRTOS/portable/GCC/ARM_CM3/port.c **** 
 324:FreeRTOS/portable/GCC/ARM_CM3/port.c **** 		/* Restore the clobbered interrupt priority register to its original
 325:FreeRTOS/portable/GCC/ARM_CM3/port.c **** 		value. */
 326:FreeRTOS/portable/GCC/ARM_CM3/port.c **** 		*pucFirstUserPriorityRegister = ulOriginalPriority;
 394              		.loc 1 326 0
 395 006c BB68     		ldr	r3, [r7, #8]	@ ulOriginalPriority.10_17, ulOriginalPriority
 396 006e DAB2     		uxtb	r2, r3	@ _18, ulOriginalPriority.10_17
 397 0070 FB68     		ldr	r3, [r7, #12]	@ tmp166, pucFirstUserPriorityRegister
 398 0072 1A70     		strb	r2, [r3]	@ tmp167, *pucFirstUserPriorityRegister_28
 399              	.LBE2:
 400              	@ FreeRTOS/portable/GCC/ARM_CM3/port.c:331: 	portNVIC_SYSPRI2_REG |= portNVIC_PENDSV_PRI;
 327:FreeRTOS/portable/GCC/ARM_CM3/port.c **** 	}
 328:FreeRTOS/portable/GCC/ARM_CM3/port.c **** 	#endif /* conifgASSERT_DEFINED */
 329:FreeRTOS/portable/GCC/ARM_CM3/port.c **** 
 330:FreeRTOS/portable/GCC/ARM_CM3/port.c **** 	/* Make PendSV and SysTick the lowest priority interrupts. */
 331:FreeRTOS/portable/GCC/ARM_CM3/port.c **** 	portNVIC_SYSPRI2_REG |= portNVIC_PENDSV_PRI;
 401              		.loc 1 331 0
 402 0074 0F4B     		ldr	r3, .L17+12	@ _19,
 403 0076 1B68     		ldr	r3, [r3]	@ _20, *_19
 404 0078 0E4A     		ldr	r2, .L17+12	@ _21,
 405 007a 43F47803 		orr	r3, r3, #16252928	@ _22, _20,
 406 007e 1360     		str	r3, [r2]	@ _22, *_21
 407              	@ FreeRTOS/portable/GCC/ARM_CM3/port.c:332: 	portNVIC_SYSPRI2_REG |= portNVIC_SYSTICK_PRI;
 332:FreeRTOS/portable/GCC/ARM_CM3/port.c **** 	portNVIC_SYSPRI2_REG |= portNVIC_SYSTICK_PRI;
 408              		.loc 1 332 0
ARM GAS  /tmp/ccCduwM4.s 			page 14


 409 0080 0C4B     		ldr	r3, .L17+12	@ _23,
 410 0082 1B68     		ldr	r3, [r3]	@ _24, *_23
 411 0084 0B4A     		ldr	r2, .L17+12	@ _25,
 412 0086 43F07843 		orr	r3, r3, #-134217728	@ _26, _24,
 413 008a 1360     		str	r3, [r2]	@ _26, *_25
 414              	@ FreeRTOS/portable/GCC/ARM_CM3/port.c:336: 	vPortSetupTimerInterrupt();
 333:FreeRTOS/portable/GCC/ARM_CM3/port.c **** 
 334:FreeRTOS/portable/GCC/ARM_CM3/port.c **** 	/* Start the timer that generates the tick ISR.  Interrupts are disabled
 335:FreeRTOS/portable/GCC/ARM_CM3/port.c **** 	here already. */
 336:FreeRTOS/portable/GCC/ARM_CM3/port.c **** 	vPortSetupTimerInterrupt();
 415              		.loc 1 336 0
 416 008c FFF7FEFF 		bl	vPortSetupTimerInterrupt	@
 417              	@ FreeRTOS/portable/GCC/ARM_CM3/port.c:339: 	uxCriticalNesting = 0;
 337:FreeRTOS/portable/GCC/ARM_CM3/port.c **** 
 338:FreeRTOS/portable/GCC/ARM_CM3/port.c **** 	/* Initialise the critical nesting count ready for the first task. */
 339:FreeRTOS/portable/GCC/ARM_CM3/port.c **** 	uxCriticalNesting = 0;
 418              		.loc 1 339 0
 419 0090 094B     		ldr	r3, .L17+16	@ tmp168,
 420 0092 0022     		movs	r2, #0	@ tmp169,
 421 0094 1A60     		str	r2, [r3]	@ tmp169, uxCriticalNesting
 422              	@ FreeRTOS/portable/GCC/ARM_CM3/port.c:342: 	prvPortStartFirstTask();
 340:FreeRTOS/portable/GCC/ARM_CM3/port.c **** 
 341:FreeRTOS/portable/GCC/ARM_CM3/port.c **** 	/* Start the first task. */
 342:FreeRTOS/portable/GCC/ARM_CM3/port.c **** 	prvPortStartFirstTask();
 423              		.loc 1 342 0
 424 0096 FFF7FEFF 		bl	prvPortStartFirstTask	@
 425              	@ FreeRTOS/portable/GCC/ARM_CM3/port.c:348: 	prvTaskExitError();
 343:FreeRTOS/portable/GCC/ARM_CM3/port.c **** 
 344:FreeRTOS/portable/GCC/ARM_CM3/port.c **** 	/* Should never get here as the tasks will now be executing!  Call the task
 345:FreeRTOS/portable/GCC/ARM_CM3/port.c **** 	exit error function to prevent compiler warnings about a static function
 346:FreeRTOS/portable/GCC/ARM_CM3/port.c **** 	not being called in the case that the application writer overrides this
 347:FreeRTOS/portable/GCC/ARM_CM3/port.c **** 	functionality by defining configTASK_RETURN_ADDRESS. */
 348:FreeRTOS/portable/GCC/ARM_CM3/port.c **** 	prvTaskExitError();
 426              		.loc 1 348 0
 427 009a FFF7FEFF 		bl	prvTaskExitError	@
 428              	@ FreeRTOS/portable/GCC/ARM_CM3/port.c:351: 	return 0;
 349:FreeRTOS/portable/GCC/ARM_CM3/port.c **** 
 350:FreeRTOS/portable/GCC/ARM_CM3/port.c **** 	/* Should not get here! */
 351:FreeRTOS/portable/GCC/ARM_CM3/port.c **** 	return 0;
 429              		.loc 1 351 0
 430 009e 0023     		movs	r3, #0	@ _44,
 431              	@ FreeRTOS/portable/GCC/ARM_CM3/port.c:352: }
 352:FreeRTOS/portable/GCC/ARM_CM3/port.c **** }
 432              		.loc 1 352 0
 433 00a0 1846     		mov	r0, r3	@, <retval>
 434 00a2 1037     		adds	r7, r7, #16	@,,
 435              		.cfi_def_cfa_offset 8
 436 00a4 BD46     		mov	sp, r7	@,
 437              		.cfi_def_cfa_register 13
 438              		@ sp needed	@
 439 00a6 80BD     		pop	{r7, pc}	@
 440              	.L18:
 441              		.align	2
 442              	.L17:
 443 00a8 00E400E0 		.word	-536812544
 444 00ac 00000000 		.word	ucMaxSysCallPriority
 445 00b0 00000000 		.word	ulMaxPRIGROUPValue
ARM GAS  /tmp/ccCduwM4.s 			page 15


 446 00b4 20ED00E0 		.word	-536810208
 447 00b8 00000000 		.word	uxCriticalNesting
 448              		.cfi_endproc
 449              	.LFE5:
 450              		.size	xPortStartScheduler, .-xPortStartScheduler
 451              		.section	.text.vPortEndScheduler,"ax",%progbits
 452              		.align	1
 453              		.global	vPortEndScheduler
 454              		.syntax unified
 455              		.thumb
 456              		.thumb_func
 457              		.fpu softvfp
 458              		.type	vPortEndScheduler, %function
 459              	vPortEndScheduler:
 460              	.LFB6:
 353:FreeRTOS/portable/GCC/ARM_CM3/port.c **** /*-----------------------------------------------------------*/
 354:FreeRTOS/portable/GCC/ARM_CM3/port.c **** 
 355:FreeRTOS/portable/GCC/ARM_CM3/port.c **** void vPortEndScheduler( void )
 356:FreeRTOS/portable/GCC/ARM_CM3/port.c **** {
 461              		.loc 1 356 0
 462              		.cfi_startproc
 463              		@ args = 0, pretend = 0, frame = 0
 464              		@ frame_needed = 1, uses_anonymous_args = 0
 465 0000 80B5     		push	{r7, lr}	@
 466              		.cfi_def_cfa_offset 8
 467              		.cfi_offset 7, -8
 468              		.cfi_offset 14, -4
 469 0002 00AF     		add	r7, sp, #0	@,,
 470              		.cfi_def_cfa_register 7
 471              	@ FreeRTOS/portable/GCC/ARM_CM3/port.c:359: 	configASSERT( uxCriticalNesting == 1000UL );
 357:FreeRTOS/portable/GCC/ARM_CM3/port.c **** 	/* Not implemented in ports where there is nothing to return to.
 358:FreeRTOS/portable/GCC/ARM_CM3/port.c **** 	Artificially force an assert. */
 359:FreeRTOS/portable/GCC/ARM_CM3/port.c **** 	configASSERT( uxCriticalNesting == 1000UL );
 472              		.loc 1 359 0
 473 0004 044B     		ldr	r3, .L23	@ tmp111,
 474 0006 1B68     		ldr	r3, [r3]	@ uxCriticalNesting.11_1, uxCriticalNesting
 475 0008 B3F57A7F 		cmp	r3, #1000	@ uxCriticalNesting.11_1,
 476 000c 02D0     		beq	.L22	@,
 477              	@ FreeRTOS/portable/GCC/ARM_CM3/port.c:359: 	configASSERT( uxCriticalNesting == 1000UL );
 478              		.loc 1 359 0 is_stmt 0 discriminator 1
 479 000e FFF7FEFF 		bl	ulPortSetInterruptMask	@
 480              	.L21:
 481 0012 FEE7     		b	.L21	@
 482              	.L22:
 483              	@ FreeRTOS/portable/GCC/ARM_CM3/port.c:360: }
 360:FreeRTOS/portable/GCC/ARM_CM3/port.c **** }
 484              		.loc 1 360 0 is_stmt 1
 485 0014 00BF     		nop
 486 0016 80BD     		pop	{r7, pc}	@
 487              	.L24:
 488              		.align	2
 489              	.L23:
 490 0018 00000000 		.word	uxCriticalNesting
 491              		.cfi_endproc
 492              	.LFE6:
 493              		.size	vPortEndScheduler, .-vPortEndScheduler
 494              		.section	.text.vPortYield,"ax",%progbits
ARM GAS  /tmp/ccCduwM4.s 			page 16


 495              		.align	1
 496              		.global	vPortYield
 497              		.syntax unified
 498              		.thumb
 499              		.thumb_func
 500              		.fpu softvfp
 501              		.type	vPortYield, %function
 502              	vPortYield:
 503              	.LFB7:
 361:FreeRTOS/portable/GCC/ARM_CM3/port.c **** /*-----------------------------------------------------------*/
 362:FreeRTOS/portable/GCC/ARM_CM3/port.c **** 
 363:FreeRTOS/portable/GCC/ARM_CM3/port.c **** void vPortYield( void )
 364:FreeRTOS/portable/GCC/ARM_CM3/port.c **** {
 504              		.loc 1 364 0
 505              		.cfi_startproc
 506              		@ args = 0, pretend = 0, frame = 0
 507              		@ frame_needed = 1, uses_anonymous_args = 0
 508              		@ link register save eliminated.
 509 0000 80B4     		push	{r7}	@
 510              		.cfi_def_cfa_offset 4
 511              		.cfi_offset 7, -4
 512 0002 00AF     		add	r7, sp, #0	@,,
 513              		.cfi_def_cfa_register 7
 514              	@ FreeRTOS/portable/GCC/ARM_CM3/port.c:366: 	portNVIC_INT_CTRL_REG = portNVIC_PENDSVSET_BIT;
 365:FreeRTOS/portable/GCC/ARM_CM3/port.c **** 	/* Set a PendSV to request a context switch. */
 366:FreeRTOS/portable/GCC/ARM_CM3/port.c **** 	portNVIC_INT_CTRL_REG = portNVIC_PENDSVSET_BIT;
 515              		.loc 1 366 0
 516 0004 054B     		ldr	r3, .L26	@ _1,
 517 0006 4FF08052 		mov	r2, #268435456	@ tmp111,
 518 000a 1A60     		str	r2, [r3]	@ tmp111, *_1
 519              	@ FreeRTOS/portable/GCC/ARM_CM3/port.c:370: 	__asm volatile( "dsb" );
 367:FreeRTOS/portable/GCC/ARM_CM3/port.c **** 
 368:FreeRTOS/portable/GCC/ARM_CM3/port.c **** 	/* Barriers are normally not required but do ensure the code is completely
 369:FreeRTOS/portable/GCC/ARM_CM3/port.c **** 	within the specified behaviour for the architecture. */
 370:FreeRTOS/portable/GCC/ARM_CM3/port.c **** 	__asm volatile( "dsb" );
 520              		.loc 1 370 0
 521              		.syntax unified
 522              	@ 370 "FreeRTOS/portable/GCC/ARM_CM3/port.c" 1
 523 000c BFF34F8F 		dsb
 524              	@ 0 "" 2
 525              	@ FreeRTOS/portable/GCC/ARM_CM3/port.c:371: 	__asm volatile( "isb" );
 371:FreeRTOS/portable/GCC/ARM_CM3/port.c **** 	__asm volatile( "isb" );
 526              		.loc 1 371 0
 527              	@ 371 "FreeRTOS/portable/GCC/ARM_CM3/port.c" 1
 528 0010 BFF36F8F 		isb
 529              	@ 0 "" 2
 530              	@ FreeRTOS/portable/GCC/ARM_CM3/port.c:372: }
 372:FreeRTOS/portable/GCC/ARM_CM3/port.c **** }
 531              		.loc 1 372 0
 532              		.thumb
 533              		.syntax unified
 534 0014 00BF     		nop
 535 0016 BD46     		mov	sp, r7	@,
 536              		.cfi_def_cfa_register 13
 537              		@ sp needed	@
 538 0018 80BC     		pop	{r7}	@
 539              		.cfi_restore 7
ARM GAS  /tmp/ccCduwM4.s 			page 17


 540              		.cfi_def_cfa_offset 0
 541 001a 7047     		bx	lr	@
 542              	.L27:
 543              		.align	2
 544              	.L26:
 545 001c 04ED00E0 		.word	-536810236
 546              		.cfi_endproc
 547              	.LFE7:
 548              		.size	vPortYield, .-vPortYield
 549              		.section	.text.vPortEnterCritical,"ax",%progbits
 550              		.align	1
 551              		.global	vPortEnterCritical
 552              		.syntax unified
 553              		.thumb
 554              		.thumb_func
 555              		.fpu softvfp
 556              		.type	vPortEnterCritical, %function
 557              	vPortEnterCritical:
 558              	.LFB8:
 373:FreeRTOS/portable/GCC/ARM_CM3/port.c **** /*-----------------------------------------------------------*/
 374:FreeRTOS/portable/GCC/ARM_CM3/port.c **** 
 375:FreeRTOS/portable/GCC/ARM_CM3/port.c **** void vPortEnterCritical( void )
 376:FreeRTOS/portable/GCC/ARM_CM3/port.c **** {
 559              		.loc 1 376 0
 560              		.cfi_startproc
 561              		@ args = 0, pretend = 0, frame = 0
 562              		@ frame_needed = 1, uses_anonymous_args = 0
 563 0000 80B5     		push	{r7, lr}	@
 564              		.cfi_def_cfa_offset 8
 565              		.cfi_offset 7, -8
 566              		.cfi_offset 14, -4
 567 0002 00AF     		add	r7, sp, #0	@,,
 568              		.cfi_def_cfa_register 7
 569              	@ FreeRTOS/portable/GCC/ARM_CM3/port.c:377: 	portDISABLE_INTERRUPTS();
 377:FreeRTOS/portable/GCC/ARM_CM3/port.c **** 	portDISABLE_INTERRUPTS();
 570              		.loc 1 377 0
 571 0004 FFF7FEFF 		bl	ulPortSetInterruptMask	@
 572              	@ FreeRTOS/portable/GCC/ARM_CM3/port.c:378: 	uxCriticalNesting++;
 378:FreeRTOS/portable/GCC/ARM_CM3/port.c **** 	uxCriticalNesting++;
 573              		.loc 1 378 0
 574 0008 0B4B     		ldr	r3, .L32	@ tmp116,
 575 000a 1B68     		ldr	r3, [r3]	@ uxCriticalNesting.12_1, uxCriticalNesting
 576 000c 0133     		adds	r3, r3, #1	@ _2, uxCriticalNesting.12_1,
 577 000e 0A4A     		ldr	r2, .L32	@ tmp117,
 578 0010 1360     		str	r3, [r2]	@ _2, uxCriticalNesting
 579              	@ FreeRTOS/portable/GCC/ARM_CM3/port.c:379: 	__asm volatile( "dsb" );
 379:FreeRTOS/portable/GCC/ARM_CM3/port.c **** 	__asm volatile( "dsb" );
 580              		.loc 1 379 0
 581              		.syntax unified
 582              	@ 379 "FreeRTOS/portable/GCC/ARM_CM3/port.c" 1
 583 0012 BFF34F8F 		dsb
 584              	@ 0 "" 2
 585              	@ FreeRTOS/portable/GCC/ARM_CM3/port.c:380: 	__asm volatile( "isb" );
 380:FreeRTOS/portable/GCC/ARM_CM3/port.c **** 	__asm volatile( "isb" );
 586              		.loc 1 380 0
 587              	@ 380 "FreeRTOS/portable/GCC/ARM_CM3/port.c" 1
 588 0016 BFF36F8F 		isb
ARM GAS  /tmp/ccCduwM4.s 			page 18


 589              	@ 0 "" 2
 590              	@ FreeRTOS/portable/GCC/ARM_CM3/port.c:387: 	if( uxCriticalNesting == 1 )
 381:FreeRTOS/portable/GCC/ARM_CM3/port.c **** 	
 382:FreeRTOS/portable/GCC/ARM_CM3/port.c **** 	/* This is not the interrupt safe version of the enter critical function so
 383:FreeRTOS/portable/GCC/ARM_CM3/port.c **** 	assert() if it is being called from an interrupt context.  Only API 
 384:FreeRTOS/portable/GCC/ARM_CM3/port.c **** 	functions that end in "FromISR" can be used in an interrupt.  Only assert if
 385:FreeRTOS/portable/GCC/ARM_CM3/port.c **** 	the critical nesting count is 1 to protect against recursive calls if the
 386:FreeRTOS/portable/GCC/ARM_CM3/port.c **** 	assert function also uses a critical section. */
 387:FreeRTOS/portable/GCC/ARM_CM3/port.c **** 	if( uxCriticalNesting == 1 )
 591              		.loc 1 387 0
 592              		.thumb
 593              		.syntax unified
 594 001a 074B     		ldr	r3, .L32	@ tmp118,
 595 001c 1B68     		ldr	r3, [r3]	@ uxCriticalNesting.13_3, uxCriticalNesting
 596 001e 012B     		cmp	r3, #1	@ uxCriticalNesting.13_3,
 597 0020 08D1     		bne	.L31	@,
 598              	@ FreeRTOS/portable/GCC/ARM_CM3/port.c:389: 		configASSERT( ( portNVIC_INT_CTRL_REG & portVECTACTIV
 388:FreeRTOS/portable/GCC/ARM_CM3/port.c **** 	{
 389:FreeRTOS/portable/GCC/ARM_CM3/port.c **** 		configASSERT( ( portNVIC_INT_CTRL_REG & portVECTACTIVE_MASK ) == 0 );
 599              		.loc 1 389 0
 600 0022 064B     		ldr	r3, .L32+4	@ _4,
 601 0024 1B68     		ldr	r3, [r3]	@ _5, *_4
 602 0026 03F01F03 		and	r3, r3, #31	@ _6, _5,
 603 002a 002B     		cmp	r3, #0	@ _6,
 604 002c 02D0     		beq	.L31	@,
 605              	@ FreeRTOS/portable/GCC/ARM_CM3/port.c:389: 		configASSERT( ( portNVIC_INT_CTRL_REG & portVECTACTIV
 606              		.loc 1 389 0 is_stmt 0 discriminator 1
 607 002e FFF7FEFF 		bl	ulPortSetInterruptMask	@
 608              	.L30:
 609 0032 FEE7     		b	.L30	@
 610              	.L31:
 611              	@ FreeRTOS/portable/GCC/ARM_CM3/port.c:391: }
 390:FreeRTOS/portable/GCC/ARM_CM3/port.c **** 	}
 391:FreeRTOS/portable/GCC/ARM_CM3/port.c **** }
 612              		.loc 1 391 0 is_stmt 1
 613 0034 00BF     		nop
 614 0036 80BD     		pop	{r7, pc}	@
 615              	.L33:
 616              		.align	2
 617              	.L32:
 618 0038 00000000 		.word	uxCriticalNesting
 619 003c 04ED00E0 		.word	-536810236
 620              		.cfi_endproc
 621              	.LFE8:
 622              		.size	vPortEnterCritical, .-vPortEnterCritical
 623              		.section	.text.vPortExitCritical,"ax",%progbits
 624              		.align	1
 625              		.global	vPortExitCritical
 626              		.syntax unified
 627              		.thumb
 628              		.thumb_func
 629              		.fpu softvfp
 630              		.type	vPortExitCritical, %function
 631              	vPortExitCritical:
 632              	.LFB9:
 392:FreeRTOS/portable/GCC/ARM_CM3/port.c **** /*-----------------------------------------------------------*/
 393:FreeRTOS/portable/GCC/ARM_CM3/port.c **** 
ARM GAS  /tmp/ccCduwM4.s 			page 19


 394:FreeRTOS/portable/GCC/ARM_CM3/port.c **** void vPortExitCritical( void )
 395:FreeRTOS/portable/GCC/ARM_CM3/port.c **** {
 633              		.loc 1 395 0
 634              		.cfi_startproc
 635              		@ args = 0, pretend = 0, frame = 0
 636              		@ frame_needed = 1, uses_anonymous_args = 0
 637 0000 80B5     		push	{r7, lr}	@
 638              		.cfi_def_cfa_offset 8
 639              		.cfi_offset 7, -8
 640              		.cfi_offset 14, -4
 641 0002 00AF     		add	r7, sp, #0	@,,
 642              		.cfi_def_cfa_register 7
 643              	@ FreeRTOS/portable/GCC/ARM_CM3/port.c:396: 	configASSERT( uxCriticalNesting );
 396:FreeRTOS/portable/GCC/ARM_CM3/port.c **** 	configASSERT( uxCriticalNesting );
 644              		.loc 1 396 0
 645 0004 0A4B     		ldr	r3, .L39	@ tmp114,
 646 0006 1B68     		ldr	r3, [r3]	@ uxCriticalNesting.14_1, uxCriticalNesting
 647 0008 002B     		cmp	r3, #0	@ uxCriticalNesting.14_1,
 648 000a 02D1     		bne	.L35	@,
 649              	@ FreeRTOS/portable/GCC/ARM_CM3/port.c:396: 	configASSERT( uxCriticalNesting );
 650              		.loc 1 396 0 is_stmt 0 discriminator 1
 651 000c FFF7FEFF 		bl	ulPortSetInterruptMask	@
 652              	.L36:
 653 0010 FEE7     		b	.L36	@
 654              	.L35:
 655              	@ FreeRTOS/portable/GCC/ARM_CM3/port.c:397: 	uxCriticalNesting--;
 397:FreeRTOS/portable/GCC/ARM_CM3/port.c **** 	uxCriticalNesting--;
 656              		.loc 1 397 0 is_stmt 1
 657 0012 074B     		ldr	r3, .L39	@ tmp115,
 658 0014 1B68     		ldr	r3, [r3]	@ uxCriticalNesting.15_2, uxCriticalNesting
 659 0016 013B     		subs	r3, r3, #1	@ _3, uxCriticalNesting.15_2,
 660 0018 054A     		ldr	r2, .L39	@ tmp116,
 661 001a 1360     		str	r3, [r2]	@ _3, uxCriticalNesting
 662              	@ FreeRTOS/portable/GCC/ARM_CM3/port.c:398: 	if( uxCriticalNesting == 0 )
 398:FreeRTOS/portable/GCC/ARM_CM3/port.c **** 	if( uxCriticalNesting == 0 )
 663              		.loc 1 398 0
 664 001c 044B     		ldr	r3, .L39	@ tmp117,
 665 001e 1B68     		ldr	r3, [r3]	@ uxCriticalNesting.16_4, uxCriticalNesting
 666 0020 002B     		cmp	r3, #0	@ uxCriticalNesting.16_4,
 667 0022 02D1     		bne	.L38	@,
 668              	@ FreeRTOS/portable/GCC/ARM_CM3/port.c:400: 		portENABLE_INTERRUPTS();
 399:FreeRTOS/portable/GCC/ARM_CM3/port.c **** 	{
 400:FreeRTOS/portable/GCC/ARM_CM3/port.c **** 		portENABLE_INTERRUPTS();
 669              		.loc 1 400 0
 670 0024 0020     		movs	r0, #0	@,
 671 0026 FFF7FEFF 		bl	vPortClearInterruptMask	@
 672              	.L38:
 673              	@ FreeRTOS/portable/GCC/ARM_CM3/port.c:402: }
 401:FreeRTOS/portable/GCC/ARM_CM3/port.c **** 	}
 402:FreeRTOS/portable/GCC/ARM_CM3/port.c **** }
 674              		.loc 1 402 0
 675 002a 00BF     		nop
 676 002c 80BD     		pop	{r7, pc}	@
 677              	.L40:
 678 002e 00BF     		.align	2
 679              	.L39:
 680 0030 00000000 		.word	uxCriticalNesting
ARM GAS  /tmp/ccCduwM4.s 			page 20


 681              		.cfi_endproc
 682              	.LFE9:
 683              		.size	vPortExitCritical, .-vPortExitCritical
 684              		.section	.text.ulPortSetInterruptMask,"ax",%progbits
 685              		.align	1
 686              		.global	ulPortSetInterruptMask
 687              		.syntax unified
 688              		.thumb
 689              		.thumb_func
 690              		.fpu softvfp
 691              		.type	ulPortSetInterruptMask, %function
 692              	ulPortSetInterruptMask:
 693              	.LFB10:
 403:FreeRTOS/portable/GCC/ARM_CM3/port.c **** /*-----------------------------------------------------------*/
 404:FreeRTOS/portable/GCC/ARM_CM3/port.c **** 
 405:FreeRTOS/portable/GCC/ARM_CM3/port.c **** __attribute__(( naked )) uint32_t ulPortSetInterruptMask( void )
 406:FreeRTOS/portable/GCC/ARM_CM3/port.c **** {
 694              		.loc 1 406 0
 695              		.cfi_startproc
 696              		@ Naked Function: prologue and epilogue provided by programmer.
 697              		@ args = 0, pretend = 0, frame = 0
 698              		@ frame_needed = 1, uses_anonymous_args = 0
 699              	@ FreeRTOS/portable/GCC/ARM_CM3/port.c:407: 	__asm volatile														\
 407:FreeRTOS/portable/GCC/ARM_CM3/port.c **** 	__asm volatile														\
 700              		.loc 1 407 0
 701              		.syntax unified
 702              	@ 407 "FreeRTOS/portable/GCC/ARM_CM3/port.c" 1
 703 0000 EFF31180 			mrs r0, basepri											
 704 0004 4FF02801 		mov r1, #40													@
 705 0008 81F31188 		msr basepri, r1											
 706 000c 7047     		bx lr													
 707              	
 708              	@ 0 "" 2
 709              	@ FreeRTOS/portable/GCC/ARM_CM3/port.c:418: 	return 0;
 408:FreeRTOS/portable/GCC/ARM_CM3/port.c **** 	(																	\
 409:FreeRTOS/portable/GCC/ARM_CM3/port.c **** 		"	mrs r0, basepri											\n" \
 410:FreeRTOS/portable/GCC/ARM_CM3/port.c **** 		"	mov r1, %0												\n"	\
 411:FreeRTOS/portable/GCC/ARM_CM3/port.c **** 		"	msr basepri, r1											\n" \
 412:FreeRTOS/portable/GCC/ARM_CM3/port.c **** 		"	bx lr													\n" \
 413:FreeRTOS/portable/GCC/ARM_CM3/port.c **** 		:: "i" ( configMAX_SYSCALL_INTERRUPT_PRIORITY ) : "r0", "r1"	\
 414:FreeRTOS/portable/GCC/ARM_CM3/port.c **** 	);
 415:FreeRTOS/portable/GCC/ARM_CM3/port.c **** 
 416:FreeRTOS/portable/GCC/ARM_CM3/port.c **** 	/* This return will not be reached but is necessary to prevent compiler
 417:FreeRTOS/portable/GCC/ARM_CM3/port.c **** 	warnings. */
 418:FreeRTOS/portable/GCC/ARM_CM3/port.c **** 	return 0;
 710              		.loc 1 418 0
 711              		.thumb
 712              		.syntax unified
 713 000e 0023     		movs	r3, #0	@ _1,
 714              	@ FreeRTOS/portable/GCC/ARM_CM3/port.c:419: }
 419:FreeRTOS/portable/GCC/ARM_CM3/port.c **** }
 715              		.loc 1 419 0
 716 0010 1846     		mov	r0, r3	@, <retval>
 717              		.cfi_endproc
 718              	.LFE10:
 719              		.size	ulPortSetInterruptMask, .-ulPortSetInterruptMask
 720              		.section	.text.vPortClearInterruptMask,"ax",%progbits
ARM GAS  /tmp/ccCduwM4.s 			page 21


 721              		.align	1
 722              		.global	vPortClearInterruptMask
 723              		.syntax unified
 724              		.thumb
 725              		.thumb_func
 726              		.fpu softvfp
 727              		.type	vPortClearInterruptMask, %function
 728              	vPortClearInterruptMask:
 729              	.LFB11:
 420:FreeRTOS/portable/GCC/ARM_CM3/port.c **** /*-----------------------------------------------------------*/
 421:FreeRTOS/portable/GCC/ARM_CM3/port.c **** 
 422:FreeRTOS/portable/GCC/ARM_CM3/port.c **** __attribute__(( naked )) void vPortClearInterruptMask( uint32_t ulNewMaskValue )
 423:FreeRTOS/portable/GCC/ARM_CM3/port.c **** {
 730              		.loc 1 423 0
 731              		.cfi_startproc
 732              		@ Naked Function: prologue and epilogue provided by programmer.
 733              		@ args = 0, pretend = 0, frame = 0
 734              		@ frame_needed = 1, uses_anonymous_args = 0
 735              	@ FreeRTOS/portable/GCC/ARM_CM3/port.c:424: 	__asm volatile													\
 424:FreeRTOS/portable/GCC/ARM_CM3/port.c **** 	__asm volatile													\
 736              		.loc 1 424 0
 737              		.syntax unified
 738              	@ 424 "FreeRTOS/portable/GCC/ARM_CM3/port.c" 1
 739 0000 80F31188 			msr basepri, r0										
 740 0004 7047     		bx lr												
 741              	
 742              	@ 0 "" 2
 743              	@ FreeRTOS/portable/GCC/ARM_CM3/port.c:433: }
 425:FreeRTOS/portable/GCC/ARM_CM3/port.c **** 	(																\
 426:FreeRTOS/portable/GCC/ARM_CM3/port.c **** 		"	msr basepri, r0										\n"	\
 427:FreeRTOS/portable/GCC/ARM_CM3/port.c **** 		"	bx lr												\n" \
 428:FreeRTOS/portable/GCC/ARM_CM3/port.c **** 		:::"r0"														\
 429:FreeRTOS/portable/GCC/ARM_CM3/port.c **** 	);
 430:FreeRTOS/portable/GCC/ARM_CM3/port.c **** 
 431:FreeRTOS/portable/GCC/ARM_CM3/port.c **** 	/* Just to avoid compiler warnings. */
 432:FreeRTOS/portable/GCC/ARM_CM3/port.c **** 	( void ) ulNewMaskValue;
 433:FreeRTOS/portable/GCC/ARM_CM3/port.c **** }
 744              		.loc 1 433 0
 745              		.thumb
 746              		.syntax unified
 747 0006 00BF     		nop
 748              		.cfi_endproc
 749              	.LFE11:
 750              		.size	vPortClearInterruptMask, .-vPortClearInterruptMask
 751              		.section	.text.xPortPendSVHandler,"ax",%progbits
 752              		.align	1
 753              		.global	xPortPendSVHandler
 754              		.syntax unified
 755              		.thumb
 756              		.thumb_func
 757              		.fpu softvfp
 758              		.type	xPortPendSVHandler, %function
 759              	xPortPendSVHandler:
 760              	.LFB12:
 434:FreeRTOS/portable/GCC/ARM_CM3/port.c **** /*-----------------------------------------------------------*/
 435:FreeRTOS/portable/GCC/ARM_CM3/port.c **** 
 436:FreeRTOS/portable/GCC/ARM_CM3/port.c **** void xPortPendSVHandler( void )
ARM GAS  /tmp/ccCduwM4.s 			page 22


 437:FreeRTOS/portable/GCC/ARM_CM3/port.c **** {
 761              		.loc 1 437 0
 762              		.cfi_startproc
 763              		@ Naked Function: prologue and epilogue provided by programmer.
 764              		@ args = 0, pretend = 0, frame = 0
 765              		@ frame_needed = 1, uses_anonymous_args = 0
 766              	@ FreeRTOS/portable/GCC/ARM_CM3/port.c:440: 	__asm volatile
 438:FreeRTOS/portable/GCC/ARM_CM3/port.c **** 	/* This is a naked function. */
 439:FreeRTOS/portable/GCC/ARM_CM3/port.c **** 
 440:FreeRTOS/portable/GCC/ARM_CM3/port.c **** 	__asm volatile
 767              		.loc 1 440 0
 768              		.syntax unified
 769              	@ 440 "FreeRTOS/portable/GCC/ARM_CM3/port.c" 1
 770 0000 EFF30980 			mrs r0, psp							
 771 0004 BFF36F8F 		isb									
 772              											
 773 0008 0D4B     		ldr	r3, pxCurrentTCBConst			
 774 000a 1A68     		ldr	r2, [r3]						
 775              											
 776 000c 20E9F00F 		stmdb r0!, {r4-r11}					
 777 0010 1060     		str r0, [r2]						
 778              											
 779 0012 2DE90840 		stmdb sp!, {r3, r14}				
 780 0016 4FF02800 		mov r0, #40								@
 781 001a 80F31188 		msr basepri, r0						
 782 001e FFF7FEFF 		bl vTaskSwitchContext				
 783 0022 4FF00000 		mov r0, #0							
 784 0026 80F31188 		msr basepri, r0						
 785 002a BDE80840 		ldmia sp!, {r3, r14}				
 786              											
 787 002e 1968     		ldr r1, [r3]						
 788 0030 0868     		ldr r0, [r1]						
 789 0032 B0E8F00F 		ldmia r0!, {r4-r11}					
 790 0036 80F30988 		msr psp, r0							
 791 003a BFF36F8F 		isb									
 792 003e 7047     		bx r14								
 793              											
 794              		.align 2							
 795 0040 00000000 	pxCurrentTCBConst: .word pxCurrentTCB	
 796              	
 797              	@ 0 "" 2
 798              	@ FreeRTOS/portable/GCC/ARM_CM3/port.c:470: }
 441:FreeRTOS/portable/GCC/ARM_CM3/port.c **** 	(
 442:FreeRTOS/portable/GCC/ARM_CM3/port.c **** 	"	mrs r0, psp							\n"
 443:FreeRTOS/portable/GCC/ARM_CM3/port.c **** 	"	isb									\n"
 444:FreeRTOS/portable/GCC/ARM_CM3/port.c **** 	"										\n"
 445:FreeRTOS/portable/GCC/ARM_CM3/port.c **** 	"	ldr	r3, pxCurrentTCBConst			\n" /* Get the location of the current TCB. */
 446:FreeRTOS/portable/GCC/ARM_CM3/port.c **** 	"	ldr	r2, [r3]						\n"
 447:FreeRTOS/portable/GCC/ARM_CM3/port.c **** 	"										\n"
 448:FreeRTOS/portable/GCC/ARM_CM3/port.c **** 	"	stmdb r0!, {r4-r11}					\n" /* Save the remaining registers. */
 449:FreeRTOS/portable/GCC/ARM_CM3/port.c **** 	"	str r0, [r2]						\n" /* Save the new top of stack into the first member of the TCB. */
 450:FreeRTOS/portable/GCC/ARM_CM3/port.c **** 	"										\n"
 451:FreeRTOS/portable/GCC/ARM_CM3/port.c **** 	"	stmdb sp!, {r3, r14}				\n"
 452:FreeRTOS/portable/GCC/ARM_CM3/port.c **** 	"	mov r0, %0							\n"
 453:FreeRTOS/portable/GCC/ARM_CM3/port.c **** 	"	msr basepri, r0						\n"
 454:FreeRTOS/portable/GCC/ARM_CM3/port.c **** 	"	bl vTaskSwitchContext				\n"
 455:FreeRTOS/portable/GCC/ARM_CM3/port.c **** 	"	mov r0, #0							\n"
ARM GAS  /tmp/ccCduwM4.s 			page 23


 456:FreeRTOS/portable/GCC/ARM_CM3/port.c **** 	"	msr basepri, r0						\n"
 457:FreeRTOS/portable/GCC/ARM_CM3/port.c **** 	"	ldmia sp!, {r3, r14}				\n"
 458:FreeRTOS/portable/GCC/ARM_CM3/port.c **** 	"										\n"	/* Restore the context, including the critical nesting count. */
 459:FreeRTOS/portable/GCC/ARM_CM3/port.c **** 	"	ldr r1, [r3]						\n"
 460:FreeRTOS/portable/GCC/ARM_CM3/port.c **** 	"	ldr r0, [r1]						\n" /* The first item in pxCurrentTCB is the task top of stack. */
 461:FreeRTOS/portable/GCC/ARM_CM3/port.c **** 	"	ldmia r0!, {r4-r11}					\n" /* Pop the registers. */
 462:FreeRTOS/portable/GCC/ARM_CM3/port.c **** 	"	msr psp, r0							\n"
 463:FreeRTOS/portable/GCC/ARM_CM3/port.c **** 	"	isb									\n"
 464:FreeRTOS/portable/GCC/ARM_CM3/port.c **** 	"	bx r14								\n"
 465:FreeRTOS/portable/GCC/ARM_CM3/port.c **** 	"										\n"
 466:FreeRTOS/portable/GCC/ARM_CM3/port.c **** 	"	.align 2							\n"
 467:FreeRTOS/portable/GCC/ARM_CM3/port.c **** 	"pxCurrentTCBConst: .word pxCurrentTCB	\n"
 468:FreeRTOS/portable/GCC/ARM_CM3/port.c **** 	::"i"(configMAX_SYSCALL_INTERRUPT_PRIORITY)
 469:FreeRTOS/portable/GCC/ARM_CM3/port.c **** 	);
 470:FreeRTOS/portable/GCC/ARM_CM3/port.c **** }
 799              		.loc 1 470 0
 800              		.thumb
 801              		.syntax unified
 802 0044 00BF     		nop
 803              		.cfi_endproc
 804              	.LFE12:
 805              		.size	xPortPendSVHandler, .-xPortPendSVHandler
 806 0046 00BF     		.section	.text.xPortSysTickHandler,"ax",%progbits
 807              		.align	1
 808              		.global	xPortSysTickHandler
 809              		.syntax unified
 810              		.thumb
 811              		.thumb_func
 812              		.fpu softvfp
 813              		.type	xPortSysTickHandler, %function
 814              	xPortSysTickHandler:
 815              	.LFB13:
 471:FreeRTOS/portable/GCC/ARM_CM3/port.c **** /*-----------------------------------------------------------*/
 472:FreeRTOS/portable/GCC/ARM_CM3/port.c **** 
 473:FreeRTOS/portable/GCC/ARM_CM3/port.c **** void xPortSysTickHandler( void )
 474:FreeRTOS/portable/GCC/ARM_CM3/port.c **** {
 816              		.loc 1 474 0
 817              		.cfi_startproc
 818              		@ args = 0, pretend = 0, frame = 0
 819              		@ frame_needed = 1, uses_anonymous_args = 0
 820 0000 80B5     		push	{r7, lr}	@
 821              		.cfi_def_cfa_offset 8
 822              		.cfi_offset 7, -8
 823              		.cfi_offset 14, -4
 824 0002 00AF     		add	r7, sp, #0	@,,
 825              		.cfi_def_cfa_register 7
 826              	@ FreeRTOS/portable/GCC/ARM_CM3/port.c:479: 	( void ) portSET_INTERRUPT_MASK_FROM_ISR();
 475:FreeRTOS/portable/GCC/ARM_CM3/port.c **** 	/* The SysTick runs at the lowest interrupt priority, so when this interrupt
 476:FreeRTOS/portable/GCC/ARM_CM3/port.c **** 	executes all interrupts must be unmasked.  There is therefore no need to
 477:FreeRTOS/portable/GCC/ARM_CM3/port.c **** 	save and then restore the interrupt mask value as its value is already
 478:FreeRTOS/portable/GCC/ARM_CM3/port.c **** 	known. */
 479:FreeRTOS/portable/GCC/ARM_CM3/port.c **** 	( void ) portSET_INTERRUPT_MASK_FROM_ISR();
 827              		.loc 1 479 0
 828 0004 FFF7FEFF 		bl	ulPortSetInterruptMask	@
 829              	@ FreeRTOS/portable/GCC/ARM_CM3/port.c:482: 		if( xTaskIncrementTick() != pdFALSE )
 480:FreeRTOS/portable/GCC/ARM_CM3/port.c **** 	{
 481:FreeRTOS/portable/GCC/ARM_CM3/port.c **** 		/* Increment the RTOS tick. */
ARM GAS  /tmp/ccCduwM4.s 			page 24


 482:FreeRTOS/portable/GCC/ARM_CM3/port.c **** 		if( xTaskIncrementTick() != pdFALSE )
 830              		.loc 1 482 0
 831 0008 FFF7FEFF 		bl	xTaskIncrementTick	@
 832 000c 0346     		mov	r3, r0	@ _1,
 833 000e 002B     		cmp	r3, #0	@ _1,
 834 0010 03D0     		beq	.L46	@,
 835              	@ FreeRTOS/portable/GCC/ARM_CM3/port.c:486: 			portNVIC_INT_CTRL_REG = portNVIC_PENDSVSET_BIT;
 483:FreeRTOS/portable/GCC/ARM_CM3/port.c **** 		{
 484:FreeRTOS/portable/GCC/ARM_CM3/port.c **** 			/* A context switch is required.  Context switching is performed in
 485:FreeRTOS/portable/GCC/ARM_CM3/port.c **** 			the PendSV interrupt.  Pend the PendSV interrupt. */
 486:FreeRTOS/portable/GCC/ARM_CM3/port.c **** 			portNVIC_INT_CTRL_REG = portNVIC_PENDSVSET_BIT;
 836              		.loc 1 486 0
 837 0012 044B     		ldr	r3, .L47	@ _2,
 838 0014 4FF08052 		mov	r2, #268435456	@ tmp112,
 839 0018 1A60     		str	r2, [r3]	@ tmp112, *_2
 840              	.L46:
 841              	@ FreeRTOS/portable/GCC/ARM_CM3/port.c:489: 	portCLEAR_INTERRUPT_MASK_FROM_ISR( 0 );
 487:FreeRTOS/portable/GCC/ARM_CM3/port.c **** 		}
 488:FreeRTOS/portable/GCC/ARM_CM3/port.c **** 	}
 489:FreeRTOS/portable/GCC/ARM_CM3/port.c **** 	portCLEAR_INTERRUPT_MASK_FROM_ISR( 0 );
 842              		.loc 1 489 0
 843 001a 0020     		movs	r0, #0	@,
 844 001c FFF7FEFF 		bl	vPortClearInterruptMask	@
 845              	@ FreeRTOS/portable/GCC/ARM_CM3/port.c:490: }
 490:FreeRTOS/portable/GCC/ARM_CM3/port.c **** }
 846              		.loc 1 490 0
 847 0020 00BF     		nop
 848 0022 80BD     		pop	{r7, pc}	@
 849              	.L48:
 850              		.align	2
 851              	.L47:
 852 0024 04ED00E0 		.word	-536810236
 853              		.cfi_endproc
 854              	.LFE13:
 855              		.size	xPortSysTickHandler, .-xPortSysTickHandler
 856              		.section	.text.vPortSetupTimerInterrupt,"ax",%progbits
 857              		.align	1
 858              		.weak	vPortSetupTimerInterrupt
 859              		.syntax unified
 860              		.thumb
 861              		.thumb_func
 862              		.fpu softvfp
 863              		.type	vPortSetupTimerInterrupt, %function
 864              	vPortSetupTimerInterrupt:
 865              	.LFB14:
 491:FreeRTOS/portable/GCC/ARM_CM3/port.c **** /*-----------------------------------------------------------*/
 492:FreeRTOS/portable/GCC/ARM_CM3/port.c **** 
 493:FreeRTOS/portable/GCC/ARM_CM3/port.c **** #if configUSE_TICKLESS_IDLE == 1
 494:FreeRTOS/portable/GCC/ARM_CM3/port.c **** 
 495:FreeRTOS/portable/GCC/ARM_CM3/port.c **** 	__attribute__((weak)) void vPortSuppressTicksAndSleep( TickType_t xExpectedIdleTime )
 496:FreeRTOS/portable/GCC/ARM_CM3/port.c **** 	{
 497:FreeRTOS/portable/GCC/ARM_CM3/port.c **** 	uint32_t ulReloadValue, ulCompleteTickPeriods, ulCompletedSysTickDecrements, ulSysTickCTRL;
 498:FreeRTOS/portable/GCC/ARM_CM3/port.c **** 	TickType_t xModifiableIdleTime;
 499:FreeRTOS/portable/GCC/ARM_CM3/port.c **** 
 500:FreeRTOS/portable/GCC/ARM_CM3/port.c **** 		/* Make sure the SysTick reload value does not overflow the counter. */
 501:FreeRTOS/portable/GCC/ARM_CM3/port.c **** 		if( xExpectedIdleTime > xMaximumPossibleSuppressedTicks )
 502:FreeRTOS/portable/GCC/ARM_CM3/port.c **** 		{
ARM GAS  /tmp/ccCduwM4.s 			page 25


 503:FreeRTOS/portable/GCC/ARM_CM3/port.c **** 			xExpectedIdleTime = xMaximumPossibleSuppressedTicks;
 504:FreeRTOS/portable/GCC/ARM_CM3/port.c **** 		}
 505:FreeRTOS/portable/GCC/ARM_CM3/port.c **** 
 506:FreeRTOS/portable/GCC/ARM_CM3/port.c **** 		/* Stop the SysTick momentarily.  The time the SysTick is stopped for
 507:FreeRTOS/portable/GCC/ARM_CM3/port.c **** 		is accounted for as best it can be, but using the tickless mode will
 508:FreeRTOS/portable/GCC/ARM_CM3/port.c **** 		inevitably result in some tiny drift of the time maintained by the
 509:FreeRTOS/portable/GCC/ARM_CM3/port.c **** 		kernel with respect to calendar time. */
 510:FreeRTOS/portable/GCC/ARM_CM3/port.c **** 		portNVIC_SYSTICK_CTRL_REG &= ~portNVIC_SYSTICK_ENABLE_BIT;
 511:FreeRTOS/portable/GCC/ARM_CM3/port.c **** 
 512:FreeRTOS/portable/GCC/ARM_CM3/port.c **** 		/* Calculate the reload value required to wait xExpectedIdleTime
 513:FreeRTOS/portable/GCC/ARM_CM3/port.c **** 		tick periods.  -1 is used because this code will execute part way
 514:FreeRTOS/portable/GCC/ARM_CM3/port.c **** 		through one of the tick periods. */
 515:FreeRTOS/portable/GCC/ARM_CM3/port.c **** 		ulReloadValue = portNVIC_SYSTICK_CURRENT_VALUE_REG + ( ulTimerCountsForOneTick * ( xExpectedIdleT
 516:FreeRTOS/portable/GCC/ARM_CM3/port.c **** 		if( ulReloadValue > ulStoppedTimerCompensation )
 517:FreeRTOS/portable/GCC/ARM_CM3/port.c **** 		{
 518:FreeRTOS/portable/GCC/ARM_CM3/port.c **** 			ulReloadValue -= ulStoppedTimerCompensation;
 519:FreeRTOS/portable/GCC/ARM_CM3/port.c **** 		}
 520:FreeRTOS/portable/GCC/ARM_CM3/port.c **** 
 521:FreeRTOS/portable/GCC/ARM_CM3/port.c **** 		/* Enter a critical section but don't use the taskENTER_CRITICAL()
 522:FreeRTOS/portable/GCC/ARM_CM3/port.c **** 		method as that will mask interrupts that should exit sleep mode. */
 523:FreeRTOS/portable/GCC/ARM_CM3/port.c **** 		__asm volatile( "cpsid i" );
 524:FreeRTOS/portable/GCC/ARM_CM3/port.c **** 
 525:FreeRTOS/portable/GCC/ARM_CM3/port.c **** 		/* If a context switch is pending or a task is waiting for the scheduler
 526:FreeRTOS/portable/GCC/ARM_CM3/port.c **** 		to be unsuspended then abandon the low power entry. */
 527:FreeRTOS/portable/GCC/ARM_CM3/port.c **** 		if( eTaskConfirmSleepModeStatus() == eAbortSleep )
 528:FreeRTOS/portable/GCC/ARM_CM3/port.c **** 		{
 529:FreeRTOS/portable/GCC/ARM_CM3/port.c **** 			/* Restart from whatever is left in the count register to complete
 530:FreeRTOS/portable/GCC/ARM_CM3/port.c **** 			this tick period. */
 531:FreeRTOS/portable/GCC/ARM_CM3/port.c **** 			portNVIC_SYSTICK_LOAD_REG = portNVIC_SYSTICK_CURRENT_VALUE_REG;
 532:FreeRTOS/portable/GCC/ARM_CM3/port.c **** 
 533:FreeRTOS/portable/GCC/ARM_CM3/port.c **** 			/* Restart SysTick. */
 534:FreeRTOS/portable/GCC/ARM_CM3/port.c **** 			portNVIC_SYSTICK_CTRL_REG |= portNVIC_SYSTICK_ENABLE_BIT;
 535:FreeRTOS/portable/GCC/ARM_CM3/port.c **** 
 536:FreeRTOS/portable/GCC/ARM_CM3/port.c **** 			/* Reset the reload register to the value required for normal tick
 537:FreeRTOS/portable/GCC/ARM_CM3/port.c **** 			periods. */
 538:FreeRTOS/portable/GCC/ARM_CM3/port.c **** 			portNVIC_SYSTICK_LOAD_REG = ulTimerCountsForOneTick - 1UL;
 539:FreeRTOS/portable/GCC/ARM_CM3/port.c **** 
 540:FreeRTOS/portable/GCC/ARM_CM3/port.c **** 			/* Re-enable interrupts - see comments above the cpsid instruction()
 541:FreeRTOS/portable/GCC/ARM_CM3/port.c **** 			above. */
 542:FreeRTOS/portable/GCC/ARM_CM3/port.c **** 			__asm volatile( "cpsie i" );
 543:FreeRTOS/portable/GCC/ARM_CM3/port.c **** 		}
 544:FreeRTOS/portable/GCC/ARM_CM3/port.c **** 		else
 545:FreeRTOS/portable/GCC/ARM_CM3/port.c **** 		{
 546:FreeRTOS/portable/GCC/ARM_CM3/port.c **** 			/* Set the new reload value. */
 547:FreeRTOS/portable/GCC/ARM_CM3/port.c **** 			portNVIC_SYSTICK_LOAD_REG = ulReloadValue;
 548:FreeRTOS/portable/GCC/ARM_CM3/port.c **** 
 549:FreeRTOS/portable/GCC/ARM_CM3/port.c **** 			/* Clear the SysTick count flag and set the count value back to
 550:FreeRTOS/portable/GCC/ARM_CM3/port.c **** 			zero. */
 551:FreeRTOS/portable/GCC/ARM_CM3/port.c **** 			portNVIC_SYSTICK_CURRENT_VALUE_REG = 0UL;
 552:FreeRTOS/portable/GCC/ARM_CM3/port.c **** 
 553:FreeRTOS/portable/GCC/ARM_CM3/port.c **** 			/* Restart SysTick. */
 554:FreeRTOS/portable/GCC/ARM_CM3/port.c **** 			portNVIC_SYSTICK_CTRL_REG |= portNVIC_SYSTICK_ENABLE_BIT;
 555:FreeRTOS/portable/GCC/ARM_CM3/port.c **** 
 556:FreeRTOS/portable/GCC/ARM_CM3/port.c **** 			/* Sleep until something happens.  configPRE_SLEEP_PROCESSING() can
 557:FreeRTOS/portable/GCC/ARM_CM3/port.c **** 			set its parameter to 0 to indicate that its implementation contains
 558:FreeRTOS/portable/GCC/ARM_CM3/port.c **** 			its own wait for interrupt or wait for event instruction, and so wfi
 559:FreeRTOS/portable/GCC/ARM_CM3/port.c **** 			should not be executed again.  However, the original expected idle
ARM GAS  /tmp/ccCduwM4.s 			page 26


 560:FreeRTOS/portable/GCC/ARM_CM3/port.c **** 			time variable must remain unmodified, so a copy is taken. */
 561:FreeRTOS/portable/GCC/ARM_CM3/port.c **** 			xModifiableIdleTime = xExpectedIdleTime;
 562:FreeRTOS/portable/GCC/ARM_CM3/port.c **** 			configPRE_SLEEP_PROCESSING( xModifiableIdleTime );
 563:FreeRTOS/portable/GCC/ARM_CM3/port.c **** 			if( xModifiableIdleTime > 0 )
 564:FreeRTOS/portable/GCC/ARM_CM3/port.c **** 			{
 565:FreeRTOS/portable/GCC/ARM_CM3/port.c **** 				__asm volatile( "dsb" );
 566:FreeRTOS/portable/GCC/ARM_CM3/port.c **** 				__asm volatile( "wfi" );
 567:FreeRTOS/portable/GCC/ARM_CM3/port.c **** 				__asm volatile( "isb" );
 568:FreeRTOS/portable/GCC/ARM_CM3/port.c **** 			}
 569:FreeRTOS/portable/GCC/ARM_CM3/port.c **** 			configPOST_SLEEP_PROCESSING( xExpectedIdleTime );
 570:FreeRTOS/portable/GCC/ARM_CM3/port.c **** 
 571:FreeRTOS/portable/GCC/ARM_CM3/port.c **** 			/* Stop SysTick.  Again, the time the SysTick is stopped for is
 572:FreeRTOS/portable/GCC/ARM_CM3/port.c **** 			accounted for as best it can be, but using the tickless mode will
 573:FreeRTOS/portable/GCC/ARM_CM3/port.c **** 			inevitably result in some tiny drift of the time maintained by the
 574:FreeRTOS/portable/GCC/ARM_CM3/port.c **** 			kernel with respect to calendar time. */
 575:FreeRTOS/portable/GCC/ARM_CM3/port.c **** 			ulSysTickCTRL = portNVIC_SYSTICK_CTRL_REG;
 576:FreeRTOS/portable/GCC/ARM_CM3/port.c **** 			portNVIC_SYSTICK_CTRL_REG = ( ulSysTickCTRL & ~portNVIC_SYSTICK_ENABLE_BIT );
 577:FreeRTOS/portable/GCC/ARM_CM3/port.c **** 
 578:FreeRTOS/portable/GCC/ARM_CM3/port.c **** 			/* Re-enable interrupts - see comments above the cpsid instruction()
 579:FreeRTOS/portable/GCC/ARM_CM3/port.c **** 			above. */
 580:FreeRTOS/portable/GCC/ARM_CM3/port.c **** 			__asm volatile( "cpsie i" );
 581:FreeRTOS/portable/GCC/ARM_CM3/port.c **** 
 582:FreeRTOS/portable/GCC/ARM_CM3/port.c **** 			if( ( ulSysTickCTRL & portNVIC_SYSTICK_COUNT_FLAG_BIT ) != 0 )
 583:FreeRTOS/portable/GCC/ARM_CM3/port.c **** 			{
 584:FreeRTOS/portable/GCC/ARM_CM3/port.c **** 				uint32_t ulCalculatedLoadValue;
 585:FreeRTOS/portable/GCC/ARM_CM3/port.c **** 
 586:FreeRTOS/portable/GCC/ARM_CM3/port.c **** 				/* The tick interrupt has already executed, and the SysTick
 587:FreeRTOS/portable/GCC/ARM_CM3/port.c **** 				count reloaded with ulReloadValue.  Reset the
 588:FreeRTOS/portable/GCC/ARM_CM3/port.c **** 				portNVIC_SYSTICK_LOAD_REG with whatever remains of this tick
 589:FreeRTOS/portable/GCC/ARM_CM3/port.c **** 				period. */
 590:FreeRTOS/portable/GCC/ARM_CM3/port.c **** 				ulCalculatedLoadValue = ( ulTimerCountsForOneTick - 1UL ) - ( ulReloadValue - portNVIC_SYSTICK_
 591:FreeRTOS/portable/GCC/ARM_CM3/port.c **** 
 592:FreeRTOS/portable/GCC/ARM_CM3/port.c **** 				/* Don't allow a tiny value, or values that have somehow
 593:FreeRTOS/portable/GCC/ARM_CM3/port.c **** 				underflowed because the post sleep hook did something
 594:FreeRTOS/portable/GCC/ARM_CM3/port.c **** 				that took too long. */
 595:FreeRTOS/portable/GCC/ARM_CM3/port.c **** 				if( ( ulCalculatedLoadValue < ulStoppedTimerCompensation ) || ( ulCalculatedLoadValue > ulTimer
 596:FreeRTOS/portable/GCC/ARM_CM3/port.c **** 				{
 597:FreeRTOS/portable/GCC/ARM_CM3/port.c **** 					ulCalculatedLoadValue = ( ulTimerCountsForOneTick - 1UL );
 598:FreeRTOS/portable/GCC/ARM_CM3/port.c **** 				}
 599:FreeRTOS/portable/GCC/ARM_CM3/port.c **** 
 600:FreeRTOS/portable/GCC/ARM_CM3/port.c **** 				portNVIC_SYSTICK_LOAD_REG = ulCalculatedLoadValue;
 601:FreeRTOS/portable/GCC/ARM_CM3/port.c **** 
 602:FreeRTOS/portable/GCC/ARM_CM3/port.c **** 				/* The tick interrupt handler will already have pended the tick
 603:FreeRTOS/portable/GCC/ARM_CM3/port.c **** 				processing in the kernel.  As the pending tick will be
 604:FreeRTOS/portable/GCC/ARM_CM3/port.c **** 				processed as soon as this function exits, the tick value
 605:FreeRTOS/portable/GCC/ARM_CM3/port.c **** 				maintained by the tick is stepped forward by one less than the
 606:FreeRTOS/portable/GCC/ARM_CM3/port.c **** 				time spent waiting. */
 607:FreeRTOS/portable/GCC/ARM_CM3/port.c **** 				ulCompleteTickPeriods = xExpectedIdleTime - 1UL;
 608:FreeRTOS/portable/GCC/ARM_CM3/port.c **** 			}
 609:FreeRTOS/portable/GCC/ARM_CM3/port.c **** 			else
 610:FreeRTOS/portable/GCC/ARM_CM3/port.c **** 			{
 611:FreeRTOS/portable/GCC/ARM_CM3/port.c **** 				/* Something other than the tick interrupt ended the sleep.
 612:FreeRTOS/portable/GCC/ARM_CM3/port.c **** 				Work out how long the sleep lasted rounded to complete tick
 613:FreeRTOS/portable/GCC/ARM_CM3/port.c **** 				periods (not the ulReload value which accounted for part
 614:FreeRTOS/portable/GCC/ARM_CM3/port.c **** 				ticks). */
 615:FreeRTOS/portable/GCC/ARM_CM3/port.c **** 				ulCompletedSysTickDecrements = ( xExpectedIdleTime * ulTimerCountsForOneTick ) - portNVIC_SYSTI
 616:FreeRTOS/portable/GCC/ARM_CM3/port.c **** 
ARM GAS  /tmp/ccCduwM4.s 			page 27


 617:FreeRTOS/portable/GCC/ARM_CM3/port.c **** 				/* How many complete tick periods passed while the processor
 618:FreeRTOS/portable/GCC/ARM_CM3/port.c **** 				was waiting? */
 619:FreeRTOS/portable/GCC/ARM_CM3/port.c **** 				ulCompleteTickPeriods = ulCompletedSysTickDecrements / ulTimerCountsForOneTick;
 620:FreeRTOS/portable/GCC/ARM_CM3/port.c **** 
 621:FreeRTOS/portable/GCC/ARM_CM3/port.c **** 				/* The reload value is set to whatever fraction of a single tick
 622:FreeRTOS/portable/GCC/ARM_CM3/port.c **** 				period remains. */
 623:FreeRTOS/portable/GCC/ARM_CM3/port.c **** 				portNVIC_SYSTICK_LOAD_REG = ( ( ulCompleteTickPeriods + 1 ) * ulTimerCountsForOneTick ) - ulCom
 624:FreeRTOS/portable/GCC/ARM_CM3/port.c **** 			}
 625:FreeRTOS/portable/GCC/ARM_CM3/port.c **** 
 626:FreeRTOS/portable/GCC/ARM_CM3/port.c **** 			/* Restart SysTick so it runs from portNVIC_SYSTICK_LOAD_REG
 627:FreeRTOS/portable/GCC/ARM_CM3/port.c **** 			again, then set portNVIC_SYSTICK_LOAD_REG back to its standard
 628:FreeRTOS/portable/GCC/ARM_CM3/port.c **** 			value.  The critical section is used to ensure the tick interrupt
 629:FreeRTOS/portable/GCC/ARM_CM3/port.c **** 			can only execute once in the case that the reload register is near
 630:FreeRTOS/portable/GCC/ARM_CM3/port.c **** 			zero. */
 631:FreeRTOS/portable/GCC/ARM_CM3/port.c **** 			portNVIC_SYSTICK_CURRENT_VALUE_REG = 0UL;
 632:FreeRTOS/portable/GCC/ARM_CM3/port.c **** 			portENTER_CRITICAL();
 633:FreeRTOS/portable/GCC/ARM_CM3/port.c **** 			{
 634:FreeRTOS/portable/GCC/ARM_CM3/port.c **** 				portNVIC_SYSTICK_CTRL_REG |= portNVIC_SYSTICK_ENABLE_BIT;
 635:FreeRTOS/portable/GCC/ARM_CM3/port.c **** 				vTaskStepTick( ulCompleteTickPeriods );
 636:FreeRTOS/portable/GCC/ARM_CM3/port.c **** 				portNVIC_SYSTICK_LOAD_REG = ulTimerCountsForOneTick - 1UL;
 637:FreeRTOS/portable/GCC/ARM_CM3/port.c **** 			}
 638:FreeRTOS/portable/GCC/ARM_CM3/port.c **** 			portEXIT_CRITICAL();
 639:FreeRTOS/portable/GCC/ARM_CM3/port.c **** 		}
 640:FreeRTOS/portable/GCC/ARM_CM3/port.c **** 	}
 641:FreeRTOS/portable/GCC/ARM_CM3/port.c **** 
 642:FreeRTOS/portable/GCC/ARM_CM3/port.c **** #endif /* #if configUSE_TICKLESS_IDLE */
 643:FreeRTOS/portable/GCC/ARM_CM3/port.c **** /*-----------------------------------------------------------*/
 644:FreeRTOS/portable/GCC/ARM_CM3/port.c **** 
 645:FreeRTOS/portable/GCC/ARM_CM3/port.c **** /*
 646:FreeRTOS/portable/GCC/ARM_CM3/port.c ****  * Setup the systick timer to generate the tick interrupts at the required
 647:FreeRTOS/portable/GCC/ARM_CM3/port.c ****  * frequency.
 648:FreeRTOS/portable/GCC/ARM_CM3/port.c ****  */
 649:FreeRTOS/portable/GCC/ARM_CM3/port.c **** __attribute__(( weak )) void vPortSetupTimerInterrupt( void )
 650:FreeRTOS/portable/GCC/ARM_CM3/port.c **** {
 866              		.loc 1 650 0
 867              		.cfi_startproc
 868              		@ args = 0, pretend = 0, frame = 0
 869              		@ frame_needed = 1, uses_anonymous_args = 0
 870              		@ link register save eliminated.
 871 0000 80B4     		push	{r7}	@
 872              		.cfi_def_cfa_offset 4
 873              		.cfi_offset 7, -4
 874 0002 00AF     		add	r7, sp, #0	@,,
 875              		.cfi_def_cfa_register 7
 876              	@ FreeRTOS/portable/GCC/ARM_CM3/port.c:661: 	portNVIC_SYSTICK_LOAD_REG = ( configSYSTICK_CLOCK_HZ /
 651:FreeRTOS/portable/GCC/ARM_CM3/port.c **** 	/* Calculate the constants required to configure the tick interrupt. */
 652:FreeRTOS/portable/GCC/ARM_CM3/port.c **** 	#if configUSE_TICKLESS_IDLE == 1
 653:FreeRTOS/portable/GCC/ARM_CM3/port.c **** 	{
 654:FreeRTOS/portable/GCC/ARM_CM3/port.c **** 		ulTimerCountsForOneTick = ( configSYSTICK_CLOCK_HZ / configTICK_RATE_HZ );
 655:FreeRTOS/portable/GCC/ARM_CM3/port.c **** 		xMaximumPossibleSuppressedTicks = portMAX_24_BIT_NUMBER / ulTimerCountsForOneTick;
 656:FreeRTOS/portable/GCC/ARM_CM3/port.c **** 		ulStoppedTimerCompensation = portMISSED_COUNTS_FACTOR / ( configCPU_CLOCK_HZ / configSYSTICK_CLOC
 657:FreeRTOS/portable/GCC/ARM_CM3/port.c **** 	}
 658:FreeRTOS/portable/GCC/ARM_CM3/port.c **** 	#endif /* configUSE_TICKLESS_IDLE */
 659:FreeRTOS/portable/GCC/ARM_CM3/port.c **** 
 660:FreeRTOS/portable/GCC/ARM_CM3/port.c **** 	/* Configure SysTick to interrupt at the requested rate. */
 661:FreeRTOS/portable/GCC/ARM_CM3/port.c **** 	portNVIC_SYSTICK_LOAD_REG = ( configSYSTICK_CLOCK_HZ / configTICK_RATE_HZ ) - 1UL;
 877              		.loc 1 661 0
ARM GAS  /tmp/ccCduwM4.s 			page 28


 878 0004 044B     		ldr	r3, .L50	@ _1,
 879 0006 054A     		ldr	r2, .L50+4	@ tmp112,
 880 0008 1A60     		str	r2, [r3]	@ tmp112, *_1
 881              	@ FreeRTOS/portable/GCC/ARM_CM3/port.c:662: 	portNVIC_SYSTICK_CTRL_REG = ( portNVIC_SYSTICK_CLK_BIT
 662:FreeRTOS/portable/GCC/ARM_CM3/port.c **** 	portNVIC_SYSTICK_CTRL_REG = ( portNVIC_SYSTICK_CLK_BIT | portNVIC_SYSTICK_INT_BIT | portNVIC_SYSTI
 882              		.loc 1 662 0
 883 000a 054B     		ldr	r3, .L50+8	@ _2,
 884 000c 0722     		movs	r2, #7	@ tmp113,
 885 000e 1A60     		str	r2, [r3]	@ tmp113, *_2
 886              	@ FreeRTOS/portable/GCC/ARM_CM3/port.c:663: }
 663:FreeRTOS/portable/GCC/ARM_CM3/port.c **** }
 887              		.loc 1 663 0
 888 0010 00BF     		nop
 889 0012 BD46     		mov	sp, r7	@,
 890              		.cfi_def_cfa_register 13
 891              		@ sp needed	@
 892 0014 80BC     		pop	{r7}	@
 893              		.cfi_restore 7
 894              		.cfi_def_cfa_offset 0
 895 0016 7047     		bx	lr	@
 896              	.L51:
 897              		.align	2
 898              	.L50:
 899 0018 14E000E0 		.word	-536813548
 900 001c 9F860100 		.word	99999
 901 0020 10E000E0 		.word	-536813552
 902              		.cfi_endproc
 903              	.LFE14:
 904              		.size	vPortSetupTimerInterrupt, .-vPortSetupTimerInterrupt
 905              		.section	.text.vPortValidateInterruptPriority,"ax",%progbits
 906              		.align	1
 907              		.global	vPortValidateInterruptPriority
 908              		.syntax unified
 909              		.thumb
 910              		.thumb_func
 911              		.fpu softvfp
 912              		.type	vPortValidateInterruptPriority, %function
 913              	vPortValidateInterruptPriority:
 914              	.LFB15:
 664:FreeRTOS/portable/GCC/ARM_CM3/port.c **** /*-----------------------------------------------------------*/
 665:FreeRTOS/portable/GCC/ARM_CM3/port.c **** 
 666:FreeRTOS/portable/GCC/ARM_CM3/port.c **** #if( configASSERT_DEFINED == 1 )
 667:FreeRTOS/portable/GCC/ARM_CM3/port.c **** 
 668:FreeRTOS/portable/GCC/ARM_CM3/port.c **** 	void vPortValidateInterruptPriority( void )
 669:FreeRTOS/portable/GCC/ARM_CM3/port.c **** 	{
 915              		.loc 1 669 0
 916              		.cfi_startproc
 917              		@ args = 0, pretend = 0, frame = 8
 918              		@ frame_needed = 1, uses_anonymous_args = 0
 919 0000 80B5     		push	{r7, lr}	@
 920              		.cfi_def_cfa_offset 8
 921              		.cfi_offset 7, -8
 922              		.cfi_offset 14, -4
 923 0002 82B0     		sub	sp, sp, #8	@,,
 924              		.cfi_def_cfa_offset 16
 925 0004 00AF     		add	r7, sp, #0	@,,
 926              		.cfi_def_cfa_register 7
ARM GAS  /tmp/ccCduwM4.s 			page 29


 927              	@ FreeRTOS/portable/GCC/ARM_CM3/port.c:674: 		__asm volatile( "mrs %0, ipsr" : "=r"( ulCurrentInter
 670:FreeRTOS/portable/GCC/ARM_CM3/port.c **** 	uint32_t ulCurrentInterrupt;
 671:FreeRTOS/portable/GCC/ARM_CM3/port.c **** 	uint8_t ucCurrentPriority;
 672:FreeRTOS/portable/GCC/ARM_CM3/port.c **** 
 673:FreeRTOS/portable/GCC/ARM_CM3/port.c **** 		/* Obtain the number of the currently executing interrupt. */
 674:FreeRTOS/portable/GCC/ARM_CM3/port.c **** 		__asm volatile( "mrs %0, ipsr" : "=r"( ulCurrentInterrupt ) );
 928              		.loc 1 674 0
 929              		.syntax unified
 930              	@ 674 "FreeRTOS/portable/GCC/ARM_CM3/port.c" 1
 931 0006 EFF30583 		mrs r3, ipsr	@ ulCurrentInterrupt
 932              	@ 0 "" 2
 933              		.thumb
 934              		.syntax unified
 935 000a 7B60     		str	r3, [r7, #4]	@ ulCurrentInterrupt, ulCurrentInterrupt
 936              	@ FreeRTOS/portable/GCC/ARM_CM3/port.c:677: 		if( ulCurrentInterrupt >= portFIRST_USER_INTERRUPT_NU
 675:FreeRTOS/portable/GCC/ARM_CM3/port.c **** 
 676:FreeRTOS/portable/GCC/ARM_CM3/port.c **** 		/* Is the interrupt number a user defined interrupt? */
 677:FreeRTOS/portable/GCC/ARM_CM3/port.c **** 		if( ulCurrentInterrupt >= portFIRST_USER_INTERRUPT_NUMBER )
 937              		.loc 1 677 0
 938 000c 7B68     		ldr	r3, [r7, #4]	@ tmp118, ulCurrentInterrupt
 939 000e 0F2B     		cmp	r3, #15	@ tmp118,
 940 0010 0CD9     		bls	.L53	@,
 941              	@ FreeRTOS/portable/GCC/ARM_CM3/port.c:680: 			ucCurrentPriority = pcInterruptPriorityRegisters[ ul
 678:FreeRTOS/portable/GCC/ARM_CM3/port.c **** 		{
 679:FreeRTOS/portable/GCC/ARM_CM3/port.c **** 			/* Look up the interrupt's priority. */
 680:FreeRTOS/portable/GCC/ARM_CM3/port.c **** 			ucCurrentPriority = pcInterruptPriorityRegisters[ ulCurrentInterrupt ];
 942              		.loc 1 680 0
 943 0012 0E4A     		ldr	r2, .L58	@ pcInterruptPriorityRegisters.17_1,
 944 0014 7B68     		ldr	r3, [r7, #4]	@ tmp119, ulCurrentInterrupt
 945 0016 1344     		add	r3, r3, r2	@ _2, pcInterruptPriorityRegisters.17_1
 946 0018 1B78     		ldrb	r3, [r3]	@ tmp120, *_2
 947 001a FB70     		strb	r3, [r7, #3]	@ tmp120, ucCurrentPriority
 948              	@ FreeRTOS/portable/GCC/ARM_CM3/port.c:705: 			configASSERT( ucCurrentPriority >= ucMaxSysCallPrior
 681:FreeRTOS/portable/GCC/ARM_CM3/port.c **** 
 682:FreeRTOS/portable/GCC/ARM_CM3/port.c **** 			/* The following assertion will fail if a service routine (ISR) for
 683:FreeRTOS/portable/GCC/ARM_CM3/port.c **** 			an interrupt that has been assigned a priority above
 684:FreeRTOS/portable/GCC/ARM_CM3/port.c **** 			configMAX_SYSCALL_INTERRUPT_PRIORITY calls an ISR safe FreeRTOS API
 685:FreeRTOS/portable/GCC/ARM_CM3/port.c **** 			function.  ISR safe FreeRTOS API functions must *only* be called
 686:FreeRTOS/portable/GCC/ARM_CM3/port.c **** 			from interrupts that have been assigned a priority at or below
 687:FreeRTOS/portable/GCC/ARM_CM3/port.c **** 			configMAX_SYSCALL_INTERRUPT_PRIORITY.
 688:FreeRTOS/portable/GCC/ARM_CM3/port.c **** 
 689:FreeRTOS/portable/GCC/ARM_CM3/port.c **** 			Numerically low interrupt priority numbers represent logically high
 690:FreeRTOS/portable/GCC/ARM_CM3/port.c **** 			interrupt priorities, therefore the priority of the interrupt must
 691:FreeRTOS/portable/GCC/ARM_CM3/port.c **** 			be set to a value equal to or numerically *higher* than
 692:FreeRTOS/portable/GCC/ARM_CM3/port.c **** 			configMAX_SYSCALL_INTERRUPT_PRIORITY.
 693:FreeRTOS/portable/GCC/ARM_CM3/port.c **** 
 694:FreeRTOS/portable/GCC/ARM_CM3/port.c **** 			Interrupts that	use the FreeRTOS API must not be left at their
 695:FreeRTOS/portable/GCC/ARM_CM3/port.c **** 			default priority of	zero as that is the highest possible priority,
 696:FreeRTOS/portable/GCC/ARM_CM3/port.c **** 			which is guaranteed to be above configMAX_SYSCALL_INTERRUPT_PRIORITY,
 697:FreeRTOS/portable/GCC/ARM_CM3/port.c **** 			and	therefore also guaranteed to be invalid.
 698:FreeRTOS/portable/GCC/ARM_CM3/port.c **** 
 699:FreeRTOS/portable/GCC/ARM_CM3/port.c **** 			FreeRTOS maintains separate thread and ISR API functions to ensure
 700:FreeRTOS/portable/GCC/ARM_CM3/port.c **** 			interrupt entry is as fast and simple as possible.
 701:FreeRTOS/portable/GCC/ARM_CM3/port.c **** 
 702:FreeRTOS/portable/GCC/ARM_CM3/port.c **** 			The following links provide detailed information:
 703:FreeRTOS/portable/GCC/ARM_CM3/port.c **** 			http://www.freertos.org/RTOS-Cortex-M3-M4.html
 704:FreeRTOS/portable/GCC/ARM_CM3/port.c **** 			http://www.freertos.org/FAQHelp.html */
ARM GAS  /tmp/ccCduwM4.s 			page 30


 705:FreeRTOS/portable/GCC/ARM_CM3/port.c **** 			configASSERT( ucCurrentPriority >= ucMaxSysCallPriority );
 949              		.loc 1 705 0
 950 001c 0C4B     		ldr	r3, .L58+4	@ tmp121,
 951 001e 1B78     		ldrb	r3, [r3]	@ zero_extendqisi2	@ ucMaxSysCallPriority.18_3, ucMaxSysCallPriority
 952 0020 FA78     		ldrb	r2, [r7, #3]	@ zero_extendqisi2	@ tmp122, ucCurrentPriority
 953 0022 9A42     		cmp	r2, r3	@ tmp122, ucMaxSysCallPriority.18_3
 954 0024 02D2     		bcs	.L53	@,
 955              	@ FreeRTOS/portable/GCC/ARM_CM3/port.c:705: 			configASSERT( ucCurrentPriority >= ucMaxSysCallPrior
 956              		.loc 1 705 0 is_stmt 0 discriminator 1
 957 0026 FFF7FEFF 		bl	ulPortSetInterruptMask	@
 958              	.L54:
 959 002a FEE7     		b	.L54	@
 960              	.L53:
 961              	@ FreeRTOS/portable/GCC/ARM_CM3/port.c:721: 		configASSERT( ( portAIRCR_REG & portPRIORITY_GROUP_MA
 706:FreeRTOS/portable/GCC/ARM_CM3/port.c **** 		}
 707:FreeRTOS/portable/GCC/ARM_CM3/port.c **** 
 708:FreeRTOS/portable/GCC/ARM_CM3/port.c **** 		/* Priority grouping:  The interrupt controller (NVIC) allows the bits
 709:FreeRTOS/portable/GCC/ARM_CM3/port.c **** 		that define each interrupt's priority to be split between bits that
 710:FreeRTOS/portable/GCC/ARM_CM3/port.c **** 		define the interrupt's pre-emption priority bits and bits that define
 711:FreeRTOS/portable/GCC/ARM_CM3/port.c **** 		the interrupt's sub-priority.  For simplicity all bits must be defined
 712:FreeRTOS/portable/GCC/ARM_CM3/port.c **** 		to be pre-emption priority bits.  The following assertion will fail if
 713:FreeRTOS/portable/GCC/ARM_CM3/port.c **** 		this is not the case (if some bits represent a sub-priority).
 714:FreeRTOS/portable/GCC/ARM_CM3/port.c **** 
 715:FreeRTOS/portable/GCC/ARM_CM3/port.c **** 		If the application only uses CMSIS libraries for interrupt
 716:FreeRTOS/portable/GCC/ARM_CM3/port.c **** 		configuration then the correct setting can be achieved on all Cortex-M
 717:FreeRTOS/portable/GCC/ARM_CM3/port.c **** 		devices by calling NVIC_SetPriorityGrouping( 0 ); before starting the
 718:FreeRTOS/portable/GCC/ARM_CM3/port.c **** 		scheduler.  Note however that some vendor specific peripheral libraries
 719:FreeRTOS/portable/GCC/ARM_CM3/port.c **** 		assume a non-zero priority group setting, in which cases using a value
 720:FreeRTOS/portable/GCC/ARM_CM3/port.c **** 		of zero will result in unpredicable behaviour. */
 721:FreeRTOS/portable/GCC/ARM_CM3/port.c **** 		configASSERT( ( portAIRCR_REG & portPRIORITY_GROUP_MASK ) <= ulMaxPRIGROUPValue );
 962              		.loc 1 721 0 is_stmt 1
 963 002c 094B     		ldr	r3, .L58+8	@ _4,
 964 002e 1B68     		ldr	r3, [r3]	@ _5, *_4
 965 0030 03F4E062 		and	r2, r3, #1792	@ _6, _5,
 966 0034 084B     		ldr	r3, .L58+12	@ tmp123,
 967 0036 1B68     		ldr	r3, [r3]	@ ulMaxPRIGROUPValue.19_7, ulMaxPRIGROUPValue
 968 0038 9A42     		cmp	r2, r3	@ _6, ulMaxPRIGROUPValue.19_7
 969 003a 02D9     		bls	.L57	@,
 970              	@ FreeRTOS/portable/GCC/ARM_CM3/port.c:721: 		configASSERT( ( portAIRCR_REG & portPRIORITY_GROUP_MA
 971              		.loc 1 721 0 is_stmt 0 discriminator 1
 972 003c FFF7FEFF 		bl	ulPortSetInterruptMask	@
 973              	.L56:
 974              	@ FreeRTOS/portable/GCC/ARM_CM3/port.c:721: 		configASSERT( ( portAIRCR_REG & portPRIORITY_GROUP_MA
 975              		.loc 1 721 0 discriminator 2
 976 0040 FEE7     		b	.L56	@
 977              	.L57:
 978              	@ FreeRTOS/portable/GCC/ARM_CM3/port.c:722: 	}
 722:FreeRTOS/portable/GCC/ARM_CM3/port.c **** 	}
 979              		.loc 1 722 0 is_stmt 1
 980 0042 00BF     		nop
 981 0044 0837     		adds	r7, r7, #8	@,,
 982              		.cfi_def_cfa_offset 8
 983 0046 BD46     		mov	sp, r7	@,
 984              		.cfi_def_cfa_register 13
 985              		@ sp needed	@
 986 0048 80BD     		pop	{r7, pc}	@
 987              	.L59:
ARM GAS  /tmp/ccCduwM4.s 			page 31


 988 004a 00BF     		.align	2
 989              	.L58:
 990 004c F0E300E0 		.word	-536812560
 991 0050 00000000 		.word	ucMaxSysCallPriority
 992 0054 0CED00E0 		.word	-536810228
 993 0058 00000000 		.word	ulMaxPRIGROUPValue
 994              		.cfi_endproc
 995              	.LFE15:
 996              		.size	vPortValidateInterruptPriority, .-vPortValidateInterruptPriority
 997              		.text
 998              	.Letext0:
 999              		.file 2 "/usr/arm-none-eabi/include/machine/_default_types.h"
 1000              		.file 3 "/usr/arm-none-eabi/include/sys/_stdint.h"
 1001              		.file 4 "FreeRTOS/include/projdefs.h"
 1002              		.file 5 "FreeRTOS/portable/GCC/ARM_CM3/portmacro.h"
 1003              		.file 6 "config/FreeRTOSConfig.h"