ARM GAS  /tmp/cc43bZ3F.s 			page 1


   1              		.cpu cortex-m3
   2              		.eabi_attribute 20, 1	@ Tag_ABI_FP_denormal
   3              		.eabi_attribute 21, 1	@ Tag_ABI_FP_exceptions
   4              		.eabi_attribute 23, 3	@ Tag_ABI_FP_number_model
   5              		.eabi_attribute 24, 1	@ Tag_ABI_align8_needed
   6              		.eabi_attribute 25, 1	@ Tag_ABI_align8_preserved
   7              		.eabi_attribute 26, 1	@ Tag_ABI_enum_size
   8              		.eabi_attribute 30, 6	@ Tag_ABI_optimization_goals
   9              		.eabi_attribute 34, 1	@ Tag_CPU_unaligned_access
  10              		.eabi_attribute 18, 4	@ Tag_ABI_PCS_wchar_t
  11              		.file	"rc_adc.c"
  12              	@ GNU C89 (Arch Repository) version 7.1.0 (arm-none-eabi)
  13              	@	compiled by GNU C version 6.3.1 20170306, GMP version 6.1.2, MPFR version 3.1.5-p2, MPC version 1
  14              	
  15              	@ GGC heuristics: --param ggc-min-expand=100 --param ggc-min-heapsize=131072
  16              	@ options passed:  -I . -I config -I system -I core -I drivers -I FreeRTOS
  17              	@ -I FreeRTOS/include -I FreeRTOS/portable/GCC/ARM_CM3 -I FreeRTOS/portable
  18              	@ -I tasks/rc_task_leds -I tasks/rc_task_xbee -I modules/rc_leds
  19              	@ -I modules/rc_xbee -I modules/rc_scheduler -I drivers/rc_system
  20              	@ -I drivers/rc_gpio -I drivers/rc_uart -I drivers/rc_pinsel
  21              	@ -I drivers/rc_timer -I drivers/rc_adc -imultilib armv7-m -MD out/rc_adc.d
  22              	@ -MF out/rc_adc.d -MP -MQ out/rc_adc.o -D__USES_INITFINI__
  23              	@ drivers/rc_adc/rc_adc.c -mcpu=cortex-m3 -mthumb
  24              	@ -auxbase-strip out/rc_adc.o -g -ggdb3 -O0 -Wall -Wstrict-prototypes
  25              	@ -Wextra -std=gnu90 -ffunction-sections -fdata-sections -fverbose-asm
  26              	@ options enabled:  -faggressive-loop-optimizations -fauto-inc-dec
  27              	@ -fchkp-check-incomplete-type -fchkp-check-read -fchkp-check-write
  28              	@ -fchkp-instrument-calls -fchkp-narrow-bounds -fchkp-optimize
  29              	@ -fchkp-store-bounds -fchkp-use-static-bounds
  30              	@ -fchkp-use-static-const-bounds -fchkp-use-wrappers -fcommon
  31              	@ -fdata-sections -fdelete-null-pointer-checks -fdwarf2-cfi-asm
  32              	@ -fearly-inlining -feliminate-unused-debug-types -ffp-int-builtin-inexact
  33              	@ -ffunction-cse -ffunction-sections -fgcse-lm -fgnu-runtime -fgnu-unique
  34              	@ -fident -finline-atomics -fira-hoist-pressure -fira-share-save-slots
  35              	@ -fira-share-spill-slots -fivopts -fkeep-static-consts
  36              	@ -fleading-underscore -flifetime-dse -flto-odr-type-merging -fmath-errno
  37              	@ -fmerge-debug-strings -fpeephole -fplt -fprefetch-loop-arrays
  38              	@ -freg-struct-return -fsched-critical-path-heuristic
  39              	@ -fsched-dep-count-heuristic -fsched-group-heuristic -fsched-interblock
  40              	@ -fsched-last-insn-heuristic -fsched-rank-heuristic -fsched-spec
  41              	@ -fsched-spec-insn-heuristic -fsched-stalled-insns-dep
  42              	@ -fsemantic-interposition -fshow-column -fshrink-wrap-separate
  43              	@ -fsigned-zeros -fsplit-ivs-in-unroller -fssa-backprop -fstdarg-opt
  44              	@ -fstrict-volatile-bitfields -fsync-libcalls -ftrapping-math -ftree-cselim
  45              	@ -ftree-forwprop -ftree-loop-if-convert -ftree-loop-im -ftree-loop-ivcanon
  46              	@ -ftree-loop-optimize -ftree-parallelize-loops= -ftree-phiprop
  47              	@ -ftree-reassoc -ftree-scev-cprop -funit-at-a-time -fverbose-asm
  48              	@ -fzero-initialized-in-bss -masm-syntax-unified -mfix-cortex-m3-ldrd
  49              	@ -mlittle-endian -mpic-data-is-text-relative -msched-prolog -mthumb
  50              	@ -munaligned-access -mvectorize-with-neon-quad
  51              	
  52              		.text
  53              	.Ltext0:
  54              		.cfi_sections	.debug_frame
  55              		.section	.text.rcadc_Init,"ax",%progbits
  56              		.align	1
  57              		.global	rcadc_Init
ARM GAS  /tmp/cc43bZ3F.s 			page 2


  58              		.syntax unified
  59              		.thumb
  60              		.thumb_func
  61              		.fpu softvfp
  62              		.type	rcadc_Init, %function
  63              	rcadc_Init:
  64              	.LFB55:
  65              		.file 1 "drivers/rc_adc/rc_adc.c"
   1:drivers/rc_adc/rc_adc.c **** /**
   2:drivers/rc_adc/rc_adc.c ****  * \file	rc_adc.c
   3:drivers/rc_adc/rc_adc.c ****  * \brief	Analog-to-Digital converter functions
   4:drivers/rc_adc/rc_adc.c ****  * \details	Implements the functions which configures ADC ports
   5:drivers/rc_adc/rc_adc.c ****  * \author	Cosmin Marcu
   6:drivers/rc_adc/rc_adc.c ****  * \date	27.06.2015
   7:drivers/rc_adc/rc_adc.c ****  * \version 1.0.1
   8:drivers/rc_adc/rc_adc.c ****  */
   9:drivers/rc_adc/rc_adc.c **** 
  10:drivers/rc_adc/rc_adc.c **** /* Includes */
  11:drivers/rc_adc/rc_adc.c **** #include "rc_adc.h"
  12:drivers/rc_adc/rc_adc.c **** 
  13:drivers/rc_adc/rc_adc.c **** /* Begin functions implementation */
  14:drivers/rc_adc/rc_adc.c **** 
  15:drivers/rc_adc/rc_adc.c **** /** \defgroup rc_adc ADC driver
  16:drivers/rc_adc/rc_adc.c ****   Contains the functions to configure and read ADC pins
  17:drivers/rc_adc/rc_adc.c **** */
  18:drivers/rc_adc/rc_adc.c **** 
  19:drivers/rc_adc/rc_adc.c **** /**
  20:drivers/rc_adc/rc_adc.c ****  * \ingroup  rc_adc
  21:drivers/rc_adc/rc_adc.c ****  * \defgroup adc_functions ADC Functions
  22:drivers/rc_adc/rc_adc.c ****  *  Functions definitions for the ADC ports
  23:drivers/rc_adc/rc_adc.c ****  *  @{
  24:drivers/rc_adc/rc_adc.c ****  */
  25:drivers/rc_adc/rc_adc.c **** 
  26:drivers/rc_adc/rc_adc.c **** /* ADC functions group: */
  27:drivers/rc_adc/rc_adc.c **** 
  28:drivers/rc_adc/rc_adc.c **** /**
  29:drivers/rc_adc/rc_adc.c ****  * \brief	Initializes ADC peripheral
  30:drivers/rc_adc/rc_adc.c ****  * \param 	ls_Port ADC port structure
  31:drivers/rc_adc/rc_adc.c ****  * \param 	lul_ClockFrequency ADC clock frequency
  32:drivers/rc_adc/rc_adc.c ****  * \return 	none
  33:drivers/rc_adc/rc_adc.c ****  */
  34:drivers/rc_adc/rc_adc.c **** void rcadc_Init(T_RCADC_PORT *ls_Port, T_ULONG lul_ClockFrequency)
  35:drivers/rc_adc/rc_adc.c **** {
  66              		.loc 1 35 0
  67              		.cfi_startproc
  68              		@ args = 0, pretend = 0, frame = 8
  69              		@ frame_needed = 1, uses_anonymous_args = 0
  70 0000 80B5     		push	{r7, lr}	@
  71              		.cfi_def_cfa_offset 8
  72              		.cfi_offset 7, -8
  73              		.cfi_offset 14, -4
  74 0002 82B0     		sub	sp, sp, #8	@,,
  75              		.cfi_def_cfa_offset 16
  76 0004 00AF     		add	r7, sp, #0	@,,
  77              		.cfi_def_cfa_register 7
  78 0006 7860     		str	r0, [r7, #4]	@ ls_Port, ls_Port
  79 0008 3960     		str	r1, [r7]	@ lul_ClockFrequency, lul_ClockFrequency
ARM GAS  /tmp/cc43bZ3F.s 			page 3


  80              	@ drivers/rc_adc/rc_adc.c:36: 	ADC_Init(ls_Port, lul_ClockFrequency);
  36:drivers/rc_adc/rc_adc.c **** 	ADC_Init(ls_Port, lul_ClockFrequency);
  81              		.loc 1 36 0
  82 000a 3968     		ldr	r1, [r7]	@, lul_ClockFrequency
  83 000c 7868     		ldr	r0, [r7, #4]	@, ls_Port
  84 000e FFF7FEFF 		bl	ADC_Init	@
  85              	@ drivers/rc_adc/rc_adc.c:37: }
  37:drivers/rc_adc/rc_adc.c **** }
  86              		.loc 1 37 0
  87 0012 00BF     		nop
  88 0014 0837     		adds	r7, r7, #8	@,,
  89              		.cfi_def_cfa_offset 8
  90 0016 BD46     		mov	sp, r7	@,
  91              		.cfi_def_cfa_register 13
  92              		@ sp needed	@
  93 0018 80BD     		pop	{r7, pc}	@
  94              		.cfi_endproc
  95              	.LFE55:
  96              		.size	rcadc_Init, .-rcadc_Init
  97              		.section	.text.rcadc_DeInit,"ax",%progbits
  98              		.align	1
  99              		.global	rcadc_DeInit
 100              		.syntax unified
 101              		.thumb
 102              		.thumb_func
 103              		.fpu softvfp
 104              		.type	rcadc_DeInit, %function
 105              	rcadc_DeInit:
 106              	.LFB56:
  38:drivers/rc_adc/rc_adc.c **** 
  39:drivers/rc_adc/rc_adc.c **** /**
  40:drivers/rc_adc/rc_adc.c ****  * \brief	De-initializes ADC peripheral
  41:drivers/rc_adc/rc_adc.c ****  * \param 	ls_Port ADC port structure
  42:drivers/rc_adc/rc_adc.c ****  * \return 	none
  43:drivers/rc_adc/rc_adc.c ****  */
  44:drivers/rc_adc/rc_adc.c **** void rcadc_DeInit(T_RCADC_PORT *ls_Port)
  45:drivers/rc_adc/rc_adc.c **** {
 107              		.loc 1 45 0
 108              		.cfi_startproc
 109              		@ args = 0, pretend = 0, frame = 8
 110              		@ frame_needed = 1, uses_anonymous_args = 0
 111 0000 80B5     		push	{r7, lr}	@
 112              		.cfi_def_cfa_offset 8
 113              		.cfi_offset 7, -8
 114              		.cfi_offset 14, -4
 115 0002 82B0     		sub	sp, sp, #8	@,,
 116              		.cfi_def_cfa_offset 16
 117 0004 00AF     		add	r7, sp, #0	@,,
 118              		.cfi_def_cfa_register 7
 119 0006 7860     		str	r0, [r7, #4]	@ ls_Port, ls_Port
 120              	@ drivers/rc_adc/rc_adc.c:46: 	ADC_DeInit(ls_Port);
  46:drivers/rc_adc/rc_adc.c **** 	ADC_DeInit(ls_Port);
 121              		.loc 1 46 0
 122 0008 7868     		ldr	r0, [r7, #4]	@, ls_Port
 123 000a FFF7FEFF 		bl	ADC_DeInit	@
 124              	@ drivers/rc_adc/rc_adc.c:47: }
  47:drivers/rc_adc/rc_adc.c **** }
ARM GAS  /tmp/cc43bZ3F.s 			page 4


 125              		.loc 1 47 0
 126 000e 00BF     		nop
 127 0010 0837     		adds	r7, r7, #8	@,,
 128              		.cfi_def_cfa_offset 8
 129 0012 BD46     		mov	sp, r7	@,
 130              		.cfi_def_cfa_register 13
 131              		@ sp needed	@
 132 0014 80BD     		pop	{r7, pc}	@
 133              		.cfi_endproc
 134              	.LFE56:
 135              		.size	rcadc_DeInit, .-rcadc_DeInit
 136              		.section	.text.rcadc_ReadChannelData,"ax",%progbits
 137              		.align	1
 138              		.global	rcadc_ReadChannelData
 139              		.syntax unified
 140              		.thumb
 141              		.thumb_func
 142              		.fpu softvfp
 143              		.type	rcadc_ReadChannelData, %function
 144              	rcadc_ReadChannelData:
 145              	.LFB57:
  48:drivers/rc_adc/rc_adc.c **** 
  49:drivers/rc_adc/rc_adc.c **** /**
  50:drivers/rc_adc/rc_adc.c ****  * \brief	Reads an ADC channel
  51:drivers/rc_adc/rc_adc.c ****  * \param 	ls_Port ADC port structure
  52:drivers/rc_adc/rc_adc.c ****  * \param 	le_Channel ADC channel to read
  53:drivers/rc_adc/rc_adc.c ****  * \return 	none
  54:drivers/rc_adc/rc_adc.c ****  */
  55:drivers/rc_adc/rc_adc.c **** T_UWORD rcadc_ReadChannelData(T_RCADC_PORT *ls_Port, T_E_RCADC_CHANNEL le_Channel)
  56:drivers/rc_adc/rc_adc.c **** {
 146              		.loc 1 56 0
 147              		.cfi_startproc
 148              		@ args = 0, pretend = 0, frame = 8
 149              		@ frame_needed = 1, uses_anonymous_args = 0
 150 0000 80B5     		push	{r7, lr}	@
 151              		.cfi_def_cfa_offset 8
 152              		.cfi_offset 7, -8
 153              		.cfi_offset 14, -4
 154 0002 82B0     		sub	sp, sp, #8	@,,
 155              		.cfi_def_cfa_offset 16
 156 0004 00AF     		add	r7, sp, #0	@,,
 157              		.cfi_def_cfa_register 7
 158 0006 7860     		str	r0, [r7, #4]	@ ls_Port, ls_Port
 159 0008 0B46     		mov	r3, r1	@ tmp112, le_Channel
 160 000a FB70     		strb	r3, [r7, #3]	@ tmp113, le_Channel
 161              	@ drivers/rc_adc/rc_adc.c:57: 	return ADC_ChannelGetData(ls_Port, (T_ULONG)le_Channel);
  57:drivers/rc_adc/rc_adc.c **** 	return ADC_ChannelGetData(ls_Port, (T_ULONG)le_Channel);
 162              		.loc 1 57 0
 163 000c FB78     		ldrb	r3, [r7, #3]	@ zero_extendqisi2	@ tmp114, le_Channel
 164 000e 1946     		mov	r1, r3	@, tmp114
 165 0010 7868     		ldr	r0, [r7, #4]	@, ls_Port
 166 0012 FFF7FEFF 		bl	ADC_ChannelGetData	@
 167 0016 0346     		mov	r3, r0	@ tmp115,
 168              	@ drivers/rc_adc/rc_adc.c:58: }
  58:drivers/rc_adc/rc_adc.c **** }
 169              		.loc 1 58 0
 170 0018 1846     		mov	r0, r3	@, <retval>
ARM GAS  /tmp/cc43bZ3F.s 			page 5


 171 001a 0837     		adds	r7, r7, #8	@,,
 172              		.cfi_def_cfa_offset 8
 173 001c BD46     		mov	sp, r7	@,
 174              		.cfi_def_cfa_register 13
 175              		@ sp needed	@
 176 001e 80BD     		pop	{r7, pc}	@
 177              		.cfi_endproc
 178              	.LFE57:
 179              		.size	rcadc_ReadChannelData, .-rcadc_ReadChannelData
 180              		.section	.text.rcadc_ReadChannelStatus,"ax",%progbits
 181              		.align	1
 182              		.global	rcadc_ReadChannelStatus
 183              		.syntax unified
 184              		.thumb
 185              		.thumb_func
 186              		.fpu softvfp
 187              		.type	rcadc_ReadChannelStatus, %function
 188              	rcadc_ReadChannelStatus:
 189              	.LFB58:
  59:drivers/rc_adc/rc_adc.c **** 
  60:drivers/rc_adc/rc_adc.c **** /**
  61:drivers/rc_adc/rc_adc.c ****  * \brief	Reads an ADC channel status
  62:drivers/rc_adc/rc_adc.c ****  * \param 	ls_Port ADC port structure
  63:drivers/rc_adc/rc_adc.c ****  * \param 	le_Channel ADC channel to read
  64:drivers/rc_adc/rc_adc.c ****  * \param 	le_StatusType Status type of the channel:
  65:drivers/rc_adc/rc_adc.c ****  * 							 - E_RCADC_STATUS_BURST
  66:drivers/rc_adc/rc_adc.c ****  * 							 - E_RCADC_STATUS_DONE
  67:drivers/rc_adc/rc_adc.c ****  * \return 	Status of the channel, based on status type
  68:drivers/rc_adc/rc_adc.c ****  */
  69:drivers/rc_adc/rc_adc.c **** T_E_RC_STATUS rcadc_ReadChannelStatus(T_RCADC_PORT *ls_Port, T_E_RCADC_CHANNEL le_Channel, T_E_RCAD
  70:drivers/rc_adc/rc_adc.c **** {
 190              		.loc 1 70 0
 191              		.cfi_startproc
 192              		@ args = 0, pretend = 0, frame = 8
 193              		@ frame_needed = 1, uses_anonymous_args = 0
 194 0000 80B5     		push	{r7, lr}	@
 195              		.cfi_def_cfa_offset 8
 196              		.cfi_offset 7, -8
 197              		.cfi_offset 14, -4
 198 0002 82B0     		sub	sp, sp, #8	@,,
 199              		.cfi_def_cfa_offset 16
 200 0004 00AF     		add	r7, sp, #0	@,,
 201              		.cfi_def_cfa_register 7
 202 0006 7860     		str	r0, [r7, #4]	@ ls_Port, ls_Port
 203 0008 0B46     		mov	r3, r1	@ tmp113, le_Channel
 204 000a FB70     		strb	r3, [r7, #3]	@ tmp114, le_Channel
 205 000c 1346     		mov	r3, r2	@ tmp116, tmp115
 206 000e BB70     		strb	r3, [r7, #2]	@ tmp116, le_StatusType
 207              	@ drivers/rc_adc/rc_adc.c:71: 	return (T_E_RC_STATUS)ADC_ChannelGetStatus(ls_Port, le_Channel, le_S
  71:drivers/rc_adc/rc_adc.c **** 	return (T_E_RC_STATUS)ADC_ChannelGetStatus(ls_Port, le_Channel, le_StatusType);
 208              		.loc 1 71 0
 209 0010 BA78     		ldrb	r2, [r7, #2]	@ zero_extendqisi2	@ _1, le_StatusType
 210 0012 FB78     		ldrb	r3, [r7, #3]	@ zero_extendqisi2	@ tmp117, le_Channel
 211 0014 1946     		mov	r1, r3	@, tmp117
 212 0016 7868     		ldr	r0, [r7, #4]	@, ls_Port
 213 0018 FFF7FEFF 		bl	ADC_ChannelGetStatus	@
 214 001c 0346     		mov	r3, r0	@ tmp118,
ARM GAS  /tmp/cc43bZ3F.s 			page 6


 215              	@ drivers/rc_adc/rc_adc.c:72: }
  72:drivers/rc_adc/rc_adc.c **** }
 216              		.loc 1 72 0
 217 001e 1846     		mov	r0, r3	@, <retval>
 218 0020 0837     		adds	r7, r7, #8	@,,
 219              		.cfi_def_cfa_offset 8
 220 0022 BD46     		mov	sp, r7	@,
 221              		.cfi_def_cfa_register 13
 222              		@ sp needed	@
 223 0024 80BD     		pop	{r7, pc}	@
 224              		.cfi_endproc
 225              	.LFE58:
 226              		.size	rcadc_ReadChannelStatus, .-rcadc_ReadChannelStatus
 227              		.section	.text.rcadc_SetBurstMode,"ax",%progbits
 228              		.align	1
 229              		.global	rcadc_SetBurstMode
 230              		.syntax unified
 231              		.thumb
 232              		.thumb_func
 233              		.fpu softvfp
 234              		.type	rcadc_SetBurstMode, %function
 235              	rcadc_SetBurstMode:
 236              	.LFB59:
  73:drivers/rc_adc/rc_adc.c **** 
  74:drivers/rc_adc/rc_adc.c **** /**
  75:drivers/rc_adc/rc_adc.c ****  * \brief	Enable/Disable ADC burst mode
  76:drivers/rc_adc/rc_adc.c ****  * \param 	ls_Port ADC port structure
  77:drivers/rc_adc/rc_adc.c ****  * \param 	le_State Burst mode state to set
  78:drivers/rc_adc/rc_adc.c ****  * \return 	none
  79:drivers/rc_adc/rc_adc.c ****  */
  80:drivers/rc_adc/rc_adc.c **** void rcadc_SetBurstMode(T_RCADC_PORT *ls_Port, T_E_RC_ENABLE le_State)
  81:drivers/rc_adc/rc_adc.c **** {
 237              		.loc 1 81 0
 238              		.cfi_startproc
 239              		@ args = 0, pretend = 0, frame = 8
 240              		@ frame_needed = 1, uses_anonymous_args = 0
 241 0000 80B5     		push	{r7, lr}	@
 242              		.cfi_def_cfa_offset 8
 243              		.cfi_offset 7, -8
 244              		.cfi_offset 14, -4
 245 0002 82B0     		sub	sp, sp, #8	@,,
 246              		.cfi_def_cfa_offset 16
 247 0004 00AF     		add	r7, sp, #0	@,,
 248              		.cfi_def_cfa_register 7
 249 0006 7860     		str	r0, [r7, #4]	@ ls_Port, ls_Port
 250 0008 0B46     		mov	r3, r1	@ tmp110, le_State
 251 000a FB70     		strb	r3, [r7, #3]	@ tmp111, le_State
 252              	@ drivers/rc_adc/rc_adc.c:82: 	 ADC_BurstCmd(ls_Port, le_State);
  82:drivers/rc_adc/rc_adc.c **** 	 ADC_BurstCmd(ls_Port, le_State);
 253              		.loc 1 82 0
 254 000c FB78     		ldrb	r3, [r7, #3]	@ zero_extendqisi2	@ tmp112, le_State
 255 000e 1946     		mov	r1, r3	@, tmp112
 256 0010 7868     		ldr	r0, [r7, #4]	@, ls_Port
 257 0012 FFF7FEFF 		bl	ADC_BurstCmd	@
 258              	@ drivers/rc_adc/rc_adc.c:83: }
  83:drivers/rc_adc/rc_adc.c **** }
 259              		.loc 1 83 0
ARM GAS  /tmp/cc43bZ3F.s 			page 7


 260 0016 00BF     		nop
 261 0018 0837     		adds	r7, r7, #8	@,,
 262              		.cfi_def_cfa_offset 8
 263 001a BD46     		mov	sp, r7	@,
 264              		.cfi_def_cfa_register 13
 265              		@ sp needed	@
 266 001c 80BD     		pop	{r7, pc}	@
 267              		.cfi_endproc
 268              	.LFE59:
 269              		.size	rcadc_SetBurstMode, .-rcadc_SetBurstMode
 270              		.section	.text.rcadc_SetStartMode,"ax",%progbits
 271              		.align	1
 272              		.global	rcadc_SetStartMode
 273              		.syntax unified
 274              		.thumb
 275              		.thumb_func
 276              		.fpu softvfp
 277              		.type	rcadc_SetStartMode, %function
 278              	rcadc_SetStartMode:
 279              	.LFB60:
  84:drivers/rc_adc/rc_adc.c **** 
  85:drivers/rc_adc/rc_adc.c **** /**
  86:drivers/rc_adc/rc_adc.c ****  * \brief	Sets ADC start mode
  87:drivers/rc_adc/rc_adc.c ****  * \param 	ls_Port ADC port structure
  88:drivers/rc_adc/rc_adc.c ****  * \param 	le_Mode Start mode
  89:drivers/rc_adc/rc_adc.c ****  * \return 	none
  90:drivers/rc_adc/rc_adc.c ****  */
  91:drivers/rc_adc/rc_adc.c **** void rcadc_SetStartMode(T_RCADC_PORT *ls_Port, T_E_RCADC_START_MODE le_Mode)
  92:drivers/rc_adc/rc_adc.c **** {
 280              		.loc 1 92 0
 281              		.cfi_startproc
 282              		@ args = 0, pretend = 0, frame = 8
 283              		@ frame_needed = 1, uses_anonymous_args = 0
 284 0000 80B5     		push	{r7, lr}	@
 285              		.cfi_def_cfa_offset 8
 286              		.cfi_offset 7, -8
 287              		.cfi_offset 14, -4
 288 0002 82B0     		sub	sp, sp, #8	@,,
 289              		.cfi_def_cfa_offset 16
 290 0004 00AF     		add	r7, sp, #0	@,,
 291              		.cfi_def_cfa_register 7
 292 0006 7860     		str	r0, [r7, #4]	@ ls_Port, ls_Port
 293 0008 0B46     		mov	r3, r1	@ tmp110, le_Mode
 294 000a FB70     		strb	r3, [r7, #3]	@ tmp111, le_Mode
 295              	@ drivers/rc_adc/rc_adc.c:93: 	ADC_StartCmd(ls_Port, le_Mode);
  93:drivers/rc_adc/rc_adc.c **** 	ADC_StartCmd(ls_Port, le_Mode);
 296              		.loc 1 93 0
 297 000c FB78     		ldrb	r3, [r7, #3]	@ zero_extendqisi2	@ tmp112, le_Mode
 298 000e 1946     		mov	r1, r3	@, tmp112
 299 0010 7868     		ldr	r0, [r7, #4]	@, ls_Port
 300 0012 FFF7FEFF 		bl	ADC_StartCmd	@
 301              	@ drivers/rc_adc/rc_adc.c:94: }
  94:drivers/rc_adc/rc_adc.c **** }
 302              		.loc 1 94 0
 303 0016 00BF     		nop
 304 0018 0837     		adds	r7, r7, #8	@,,
 305              		.cfi_def_cfa_offset 8
ARM GAS  /tmp/cc43bZ3F.s 			page 8


 306 001a BD46     		mov	sp, r7	@,
 307              		.cfi_def_cfa_register 13
 308              		@ sp needed	@
 309 001c 80BD     		pop	{r7, pc}	@
 310              		.cfi_endproc
 311              	.LFE60:
 312              		.size	rcadc_SetStartMode, .-rcadc_SetStartMode
 313              		.section	.text.rcadc_SetInterruptState,"ax",%progbits
 314              		.align	1
 315              		.global	rcadc_SetInterruptState
 316              		.syntax unified
 317              		.thumb
 318              		.thumb_func
 319              		.fpu softvfp
 320              		.type	rcadc_SetInterruptState, %function
 321              	rcadc_SetInterruptState:
 322              	.LFB61:
  95:drivers/rc_adc/rc_adc.c **** 
  96:drivers/rc_adc/rc_adc.c **** /**
  97:drivers/rc_adc/rc_adc.c ****  * \brief	Sets an ADC interrupt state
  98:drivers/rc_adc/rc_adc.c ****  * \param 	ls_Port ADC port structure
  99:drivers/rc_adc/rc_adc.c ****  * \param 	le_IRQType Interrupt type
 100:drivers/rc_adc/rc_adc.c ****  * \param 	le_State Interrupt state
 101:drivers/rc_adc/rc_adc.c ****  * \return 	none
 102:drivers/rc_adc/rc_adc.c ****  */
 103:drivers/rc_adc/rc_adc.c **** void rcadc_SetInterruptState(T_RCADC_PORT *ls_Port, T_E_RCADC_IRQTYPE le_IRQType, T_E_RC_ENABLE le_
 104:drivers/rc_adc/rc_adc.c **** {
 323              		.loc 1 104 0
 324              		.cfi_startproc
 325              		@ args = 0, pretend = 0, frame = 8
 326              		@ frame_needed = 1, uses_anonymous_args = 0
 327 0000 80B5     		push	{r7, lr}	@
 328              		.cfi_def_cfa_offset 8
 329              		.cfi_offset 7, -8
 330              		.cfi_offset 14, -4
 331 0002 82B0     		sub	sp, sp, #8	@,,
 332              		.cfi_def_cfa_offset 16
 333 0004 00AF     		add	r7, sp, #0	@,,
 334              		.cfi_def_cfa_register 7
 335 0006 7860     		str	r0, [r7, #4]	@ ls_Port, ls_Port
 336 0008 0B46     		mov	r3, r1	@ tmp110, le_IRQType
 337 000a FB70     		strb	r3, [r7, #3]	@ tmp111, le_IRQType
 338 000c 1346     		mov	r3, r2	@ tmp113, tmp112
 339 000e BB70     		strb	r3, [r7, #2]	@ tmp113, le_State
 340              	@ drivers/rc_adc/rc_adc.c:105: 	ADC_IntConfig(ls_Port, le_IRQType, le_State);
 105:drivers/rc_adc/rc_adc.c **** 	ADC_IntConfig(ls_Port, le_IRQType, le_State);
 341              		.loc 1 105 0
 342 0010 BA78     		ldrb	r2, [r7, #2]	@ zero_extendqisi2	@ tmp114, le_State
 343 0012 FB78     		ldrb	r3, [r7, #3]	@ zero_extendqisi2	@ tmp115, le_IRQType
 344 0014 1946     		mov	r1, r3	@, tmp115
 345 0016 7868     		ldr	r0, [r7, #4]	@, ls_Port
 346 0018 FFF7FEFF 		bl	ADC_IntConfig	@
 347              	@ drivers/rc_adc/rc_adc.c:106: }
 106:drivers/rc_adc/rc_adc.c **** }
 348              		.loc 1 106 0
 349 001c 00BF     		nop
 350 001e 0837     		adds	r7, r7, #8	@,,
ARM GAS  /tmp/cc43bZ3F.s 			page 9


 351              		.cfi_def_cfa_offset 8
 352 0020 BD46     		mov	sp, r7	@,
 353              		.cfi_def_cfa_register 13
 354              		@ sp needed	@
 355 0022 80BD     		pop	{r7, pc}	@
 356              		.cfi_endproc
 357              	.LFE61:
 358              		.size	rcadc_SetInterruptState, .-rcadc_SetInterruptState
 359              		.section	.text.rcadc_SetChannelState,"ax",%progbits
 360              		.align	1
 361              		.global	rcadc_SetChannelState
 362              		.syntax unified
 363              		.thumb
 364              		.thumb_func
 365              		.fpu softvfp
 366              		.type	rcadc_SetChannelState, %function
 367              	rcadc_SetChannelState:
 368              	.LFB62:
 107:drivers/rc_adc/rc_adc.c **** 
 108:drivers/rc_adc/rc_adc.c **** /**
 109:drivers/rc_adc/rc_adc.c ****  * \brief	Sets an ADC channel state
 110:drivers/rc_adc/rc_adc.c ****  * \param 	ls_Port ADC port structure
 111:drivers/rc_adc/rc_adc.c ****  * \param 	le_Channel Channel number
 112:drivers/rc_adc/rc_adc.c ****  * \param 	le_State Channel state
 113:drivers/rc_adc/rc_adc.c ****  * \return 	none
 114:drivers/rc_adc/rc_adc.c ****  */
 115:drivers/rc_adc/rc_adc.c **** void rcadc_SetChannelState(T_RCADC_PORT *ls_Port, T_E_RCADC_CHANNEL le_Channel, T_E_RC_ENABLE le_St
 116:drivers/rc_adc/rc_adc.c **** {
 369              		.loc 1 116 0
 370              		.cfi_startproc
 371              		@ args = 0, pretend = 0, frame = 8
 372              		@ frame_needed = 1, uses_anonymous_args = 0
 373 0000 80B5     		push	{r7, lr}	@
 374              		.cfi_def_cfa_offset 8
 375              		.cfi_offset 7, -8
 376              		.cfi_offset 14, -4
 377 0002 82B0     		sub	sp, sp, #8	@,,
 378              		.cfi_def_cfa_offset 16
 379 0004 00AF     		add	r7, sp, #0	@,,
 380              		.cfi_def_cfa_register 7
 381 0006 7860     		str	r0, [r7, #4]	@ ls_Port, ls_Port
 382 0008 0B46     		mov	r3, r1	@ tmp110, le_Channel
 383 000a FB70     		strb	r3, [r7, #3]	@ tmp111, le_Channel
 384 000c 1346     		mov	r3, r2	@ tmp113, tmp112
 385 000e BB70     		strb	r3, [r7, #2]	@ tmp113, le_State
 386              	@ drivers/rc_adc/rc_adc.c:117: 	ADC_ChannelCmd(ls_Port, le_Channel, le_State);
 117:drivers/rc_adc/rc_adc.c **** 	ADC_ChannelCmd(ls_Port, le_Channel, le_State);
 387              		.loc 1 117 0
 388 0010 BA78     		ldrb	r2, [r7, #2]	@ zero_extendqisi2	@ tmp114, le_State
 389 0012 FB78     		ldrb	r3, [r7, #3]	@ zero_extendqisi2	@ tmp115, le_Channel
 390 0014 1946     		mov	r1, r3	@, tmp115
 391 0016 7868     		ldr	r0, [r7, #4]	@, ls_Port
 392 0018 FFF7FEFF 		bl	ADC_ChannelCmd	@
 393              	@ drivers/rc_adc/rc_adc.c:118: }
 118:drivers/rc_adc/rc_adc.c **** }
 394              		.loc 1 118 0
 395 001c 00BF     		nop
ARM GAS  /tmp/cc43bZ3F.s 			page 10


 396 001e 0837     		adds	r7, r7, #8	@,,
 397              		.cfi_def_cfa_offset 8
 398 0020 BD46     		mov	sp, r7	@,
 399              		.cfi_def_cfa_register 13
 400              		@ sp needed	@
 401 0022 80BD     		pop	{r7, pc}	@
 402              		.cfi_endproc
 403              	.LFE62:
 404              		.size	rcadc_SetChannelState, .-rcadc_SetChannelState
 405              		.section	.text.rcadc_SetEdgeStart,"ax",%progbits
 406              		.align	1
 407              		.global	rcadc_SetEdgeStart
 408              		.syntax unified
 409              		.thumb
 410              		.thumb_func
 411              		.fpu softvfp
 412              		.type	rcadc_SetEdgeStart, %function
 413              	rcadc_SetEdgeStart:
 414              	.LFB63:
 119:drivers/rc_adc/rc_adc.c **** 
 120:drivers/rc_adc/rc_adc.c **** /**
 121:drivers/rc_adc/rc_adc.c ****  * \brief	Configures ADC edge start
 122:drivers/rc_adc/rc_adc.c ****  * \param 	ls_Port ADC port structure
 123:drivers/rc_adc/rc_adc.c ****  * \param 	le_Edge Edge mode:
 124:drivers/rc_adc/rc_adc.c ****  * 					- E_RCADC_EDGE_START_RISING
 125:drivers/rc_adc/rc_adc.c ****  * 					- E_RCADC_EDGE_START_FALLING
 126:drivers/rc_adc/rc_adc.c ****  * \return 	none
 127:drivers/rc_adc/rc_adc.c ****  */
 128:drivers/rc_adc/rc_adc.c **** void rcadc_SetEdgeStart(T_RCADC_PORT *ls_Port, T_E_RCADC_EDGE_START le_Edge)
 129:drivers/rc_adc/rc_adc.c **** {
 415              		.loc 1 129 0
 416              		.cfi_startproc
 417              		@ args = 0, pretend = 0, frame = 8
 418              		@ frame_needed = 1, uses_anonymous_args = 0
 419 0000 80B5     		push	{r7, lr}	@
 420              		.cfi_def_cfa_offset 8
 421              		.cfi_offset 7, -8
 422              		.cfi_offset 14, -4
 423 0002 82B0     		sub	sp, sp, #8	@,,
 424              		.cfi_def_cfa_offset 16
 425 0004 00AF     		add	r7, sp, #0	@,,
 426              		.cfi_def_cfa_register 7
 427 0006 7860     		str	r0, [r7, #4]	@ ls_Port, ls_Port
 428 0008 0B46     		mov	r3, r1	@ tmp110, le_Edge
 429 000a FB70     		strb	r3, [r7, #3]	@ tmp111, le_Edge
 430              	@ drivers/rc_adc/rc_adc.c:130: 	ADC_EdgeStartConfig(ls_Port, le_Edge);
 130:drivers/rc_adc/rc_adc.c **** 	ADC_EdgeStartConfig(ls_Port, le_Edge);
 431              		.loc 1 130 0
 432 000c FB78     		ldrb	r3, [r7, #3]	@ zero_extendqisi2	@ tmp112, le_Edge
 433 000e 1946     		mov	r1, r3	@, tmp112
 434 0010 7868     		ldr	r0, [r7, #4]	@, ls_Port
 435 0012 FFF7FEFF 		bl	ADC_EdgeStartConfig	@
 436              	@ drivers/rc_adc/rc_adc.c:131: }
 131:drivers/rc_adc/rc_adc.c **** }
 437              		.loc 1 131 0
 438 0016 00BF     		nop
 439 0018 0837     		adds	r7, r7, #8	@,,
ARM GAS  /tmp/cc43bZ3F.s 			page 11


 440              		.cfi_def_cfa_offset 8
 441 001a BD46     		mov	sp, r7	@,
 442              		.cfi_def_cfa_register 13
 443              		@ sp needed	@
 444 001c 80BD     		pop	{r7, pc}	@
 445              		.cfi_endproc
 446              	.LFE63:
 447              		.size	rcadc_SetEdgeStart, .-rcadc_SetEdgeStart
 448              		.text
 449              	.Letext0:
 450              		.file 2 "/usr/arm-none-eabi/include/machine/_default_types.h"
 451              		.file 3 "/usr/arm-none-eabi/include/sys/_stdint.h"
 452              		.file 4 "system/core_cm3.h"
 453              		.file 5 "system/system_LPC17xx.h"
 454              		.file 6 "system/LPC17xx.h"
 455              		.file 7 "config/rc_stdtypedefs.h"
 456              		.file 8 "drivers/rc_adc/rc_adc.h"