ARM GAS  /tmp/ccB4pSnv.s 			page 1


   1              		.cpu cortex-m3
   2              		.eabi_attribute 20, 1	@ Tag_ABI_FP_denormal
   3              		.eabi_attribute 21, 1	@ Tag_ABI_FP_exceptions
   4              		.eabi_attribute 23, 3	@ Tag_ABI_FP_number_model
   5              		.eabi_attribute 24, 1	@ Tag_ABI_align8_needed
   6              		.eabi_attribute 25, 1	@ Tag_ABI_align8_preserved
   7              		.eabi_attribute 26, 1	@ Tag_ABI_enum_size
   8              		.eabi_attribute 30, 6	@ Tag_ABI_optimization_goals
   9              		.eabi_attribute 34, 1	@ Tag_CPU_unaligned_access
  10              		.eabi_attribute 18, 4	@ Tag_ABI_PCS_wchar_t
  11              		.file	"rc_pinsel.c"
  12              	@ GNU C89 (Arch Repository) version 7.1.0 (arm-none-eabi)
  13              	@	compiled by GNU C version 6.3.1 20170306, GMP version 6.1.2, MPFR version 3.1.5-p2, MPC version 1
  14              	
  15              	@ GGC heuristics: --param ggc-min-expand=100 --param ggc-min-heapsize=131072
  16              	@ options passed:  -I . -I config -I system -I core -I drivers -I FreeRTOS
  17              	@ -I FreeRTOS/include -I FreeRTOS/portable/GCC/ARM_CM3 -I FreeRTOS/portable
  18              	@ -I tasks/rc_task_leds -I tasks/rc_task_xbee -I modules/rc_leds
  19              	@ -I modules/rc_xbee -I modules/rc_scheduler -I drivers/rc_system
  20              	@ -I drivers/rc_gpio -I drivers/rc_uart -I drivers/rc_pinsel
  21              	@ -I drivers/rc_timer -I drivers/rc_adc -imultilib armv7-m
  22              	@ -MD out/rc_pinsel.d -MF out/rc_pinsel.d -MP -MQ out/rc_pinsel.o
  23              	@ -D__USES_INITFINI__ drivers/rc_pinsel/rc_pinsel.c -mcpu=cortex-m3 -mthumb
  24              	@ -auxbase-strip out/rc_pinsel.o -g -ggdb3 -O0 -Wall -Wstrict-prototypes
  25              	@ -Wextra -std=gnu90 -ffunction-sections -fdata-sections -fverbose-asm
  26              	@ options enabled:  -faggressive-loop-optimizations -fauto-inc-dec
  27              	@ -fchkp-check-incomplete-type -fchkp-check-read -fchkp-check-write
  28              	@ -fchkp-instrument-calls -fchkp-narrow-bounds -fchkp-optimize
  29              	@ -fchkp-store-bounds -fchkp-use-static-bounds
  30              	@ -fchkp-use-static-const-bounds -fchkp-use-wrappers -fcommon
  31              	@ -fdata-sections -fdelete-null-pointer-checks -fdwarf2-cfi-asm
  32              	@ -fearly-inlining -feliminate-unused-debug-types -ffp-int-builtin-inexact
  33              	@ -ffunction-cse -ffunction-sections -fgcse-lm -fgnu-runtime -fgnu-unique
  34              	@ -fident -finline-atomics -fira-hoist-pressure -fira-share-save-slots
  35              	@ -fira-share-spill-slots -fivopts -fkeep-static-consts
  36              	@ -fleading-underscore -flifetime-dse -flto-odr-type-merging -fmath-errno
  37              	@ -fmerge-debug-strings -fpeephole -fplt -fprefetch-loop-arrays
  38              	@ -freg-struct-return -fsched-critical-path-heuristic
  39              	@ -fsched-dep-count-heuristic -fsched-group-heuristic -fsched-interblock
  40              	@ -fsched-last-insn-heuristic -fsched-rank-heuristic -fsched-spec
  41              	@ -fsched-spec-insn-heuristic -fsched-stalled-insns-dep
  42              	@ -fsemantic-interposition -fshow-column -fshrink-wrap-separate
  43              	@ -fsigned-zeros -fsplit-ivs-in-unroller -fssa-backprop -fstdarg-opt
  44              	@ -fstrict-volatile-bitfields -fsync-libcalls -ftrapping-math -ftree-cselim
  45              	@ -ftree-forwprop -ftree-loop-if-convert -ftree-loop-im -ftree-loop-ivcanon
  46              	@ -ftree-loop-optimize -ftree-parallelize-loops= -ftree-phiprop
  47              	@ -ftree-reassoc -ftree-scev-cprop -funit-at-a-time -fverbose-asm
  48              	@ -fzero-initialized-in-bss -masm-syntax-unified -mfix-cortex-m3-ldrd
  49              	@ -mlittle-endian -mpic-data-is-text-relative -msched-prolog -mthumb
  50              	@ -munaligned-access -mvectorize-with-neon-quad
  51              	
  52              		.text
  53              	.Ltext0:
  54              		.cfi_sections	.debug_frame
  55              		.section	.text.rcpinsel_SetPinFunction,"ax",%progbits
  56              		.align	1
  57              		.global	rcpinsel_SetPinFunction
ARM GAS  /tmp/ccB4pSnv.s 			page 2


  58              		.syntax unified
  59              		.thumb
  60              		.thumb_func
  61              		.fpu softvfp
  62              		.type	rcpinsel_SetPinFunction, %function
  63              	rcpinsel_SetPinFunction:
  64              	.LFB55:
  65              		.file 1 "drivers/rc_pinsel/rc_pinsel.c"
   1:drivers/rc_pinsel/rc_pinsel.c **** /**
   2:drivers/rc_pinsel/rc_pinsel.c ****  * \file	rc_pinsel.c
   3:drivers/rc_pinsel/rc_pinsel.c ****  * \brief	Pin selection functions
   4:drivers/rc_pinsel/rc_pinsel.c ****  * \details	Implements the functions which configures pins selection
   5:drivers/rc_pinsel/rc_pinsel.c ****  * \author	Cosmin Marcu
   6:drivers/rc_pinsel/rc_pinsel.c ****  * \date	12.06.2015
   7:drivers/rc_pinsel/rc_pinsel.c ****  * \version 1.0.1
   8:drivers/rc_pinsel/rc_pinsel.c ****  */
   9:drivers/rc_pinsel/rc_pinsel.c **** 
  10:drivers/rc_pinsel/rc_pinsel.c **** /* Includes */
  11:drivers/rc_pinsel/rc_pinsel.c **** #include "rc_pinsel.h"
  12:drivers/rc_pinsel/rc_pinsel.c **** 
  13:drivers/rc_pinsel/rc_pinsel.c **** /* Begin functions implementation */
  14:drivers/rc_pinsel/rc_pinsel.c **** 
  15:drivers/rc_pinsel/rc_pinsel.c **** /** \defgroup rc_pinsel Pin selection driver
  16:drivers/rc_pinsel/rc_pinsel.c ****   Contains the functions to set the pins attributes
  17:drivers/rc_pinsel/rc_pinsel.c **** */
  18:drivers/rc_pinsel/rc_pinsel.c **** 
  19:drivers/rc_pinsel/rc_pinsel.c **** /**
  20:drivers/rc_pinsel/rc_pinsel.c ****  * \ingroup  rc_pinsel
  21:drivers/rc_pinsel/rc_pinsel.c ****  * \defgroup Pinsel_functions Pin Selection Functions
  22:drivers/rc_pinsel/rc_pinsel.c ****  *  Functions definitions for the pin selection attributes
  23:drivers/rc_pinsel/rc_pinsel.c ****  *  @{
  24:drivers/rc_pinsel/rc_pinsel.c ****  */
  25:drivers/rc_pinsel/rc_pinsel.c **** /* Pinsel functions group: */
  26:drivers/rc_pinsel/rc_pinsel.c **** /**
  27:drivers/rc_pinsel/rc_pinsel.c ****  * \brief	Setup the pin selection function
  28:drivers/rc_pinsel/rc_pinsel.c ****  * \param	le_Port		Port number
  29:drivers/rc_pinsel/rc_pinsel.c ****  * \param	le_Pin		Pin number
  30:drivers/rc_pinsel/rc_pinsel.c ****  * \param	le_Function	Pin function number
  31:drivers/rc_pinsel/rc_pinsel.c ****  * \return 	none
  32:drivers/rc_pinsel/rc_pinsel.c ****  */
  33:drivers/rc_pinsel/rc_pinsel.c **** void rcpinsel_SetPinFunction(T_E_RC_IOPORTS le_Port, T_E_RC_IOPINS le_Pin, T_E_RCPINSEL_FUNC le_Fun
  34:drivers/rc_pinsel/rc_pinsel.c **** {
  66              		.loc 1 34 0
  67              		.cfi_startproc
  68              		@ args = 0, pretend = 0, frame = 8
  69              		@ frame_needed = 1, uses_anonymous_args = 0
  70 0000 80B5     		push	{r7, lr}	@
  71              		.cfi_def_cfa_offset 8
  72              		.cfi_offset 7, -8
  73              		.cfi_offset 14, -4
  74 0002 82B0     		sub	sp, sp, #8	@,,
  75              		.cfi_def_cfa_offset 16
  76 0004 00AF     		add	r7, sp, #0	@,,
  77              		.cfi_def_cfa_register 7
  78 0006 0346     		mov	r3, r0	@ tmp110, le_Port
  79 0008 FB71     		strb	r3, [r7, #7]	@ tmp111, le_Port
  80 000a 0B46     		mov	r3, r1	@ tmp113, tmp112
ARM GAS  /tmp/ccB4pSnv.s 			page 3


  81 000c BB71     		strb	r3, [r7, #6]	@ tmp113, le_Pin
  82 000e 1346     		mov	r3, r2	@ tmp115, tmp114
  83 0010 7B71     		strb	r3, [r7, #5]	@ tmp115, le_Function
  84              	@ drivers/rc_pinsel/rc_pinsel.c:35: 	PINSEL_SetPinFunc((T_UBYTE)le_Port, (T_UBYTE)le_Pin, (T_UBYTE)
  35:drivers/rc_pinsel/rc_pinsel.c **** 	PINSEL_SetPinFunc((T_UBYTE)le_Port, (T_UBYTE)le_Pin, (T_UBYTE)le_Function);
  85              		.loc 1 35 0
  86 0012 7A79     		ldrb	r2, [r7, #5]	@ zero_extendqisi2	@ tmp116, le_Function
  87 0014 B979     		ldrb	r1, [r7, #6]	@ zero_extendqisi2	@ tmp117, le_Pin
  88 0016 FB79     		ldrb	r3, [r7, #7]	@ zero_extendqisi2	@ tmp118, le_Port
  89 0018 1846     		mov	r0, r3	@, tmp118
  90 001a FFF7FEFF 		bl	PINSEL_SetPinFunc	@
  91              	@ drivers/rc_pinsel/rc_pinsel.c:36: }
  36:drivers/rc_pinsel/rc_pinsel.c **** }
  92              		.loc 1 36 0
  93 001e 00BF     		nop
  94 0020 0837     		adds	r7, r7, #8	@,,
  95              		.cfi_def_cfa_offset 8
  96 0022 BD46     		mov	sp, r7	@,
  97              		.cfi_def_cfa_register 13
  98              		@ sp needed	@
  99 0024 80BD     		pop	{r7, pc}	@
 100              		.cfi_endproc
 101              	.LFE55:
 102              		.size	rcpinsel_SetPinFunction, .-rcpinsel_SetPinFunction
 103              		.section	.text.rcpinsel_ConfigTraceFunction,"ax",%progbits
 104              		.align	1
 105              		.global	rcpinsel_ConfigTraceFunction
 106              		.syntax unified
 107              		.thumb
 108              		.thumb_func
 109              		.fpu softvfp
 110              		.type	rcpinsel_ConfigTraceFunction, %function
 111              	rcpinsel_ConfigTraceFunction:
 112              	.LFB56:
  37:drivers/rc_pinsel/rc_pinsel.c **** 
  38:drivers/rc_pinsel/rc_pinsel.c **** /**
  39:drivers/rc_pinsel/rc_pinsel.c ****  * \brief	Enable/Disable the trace function
  40:drivers/rc_pinsel/rc_pinsel.c ****  * \param	le_State	State of the trace function
  41:drivers/rc_pinsel/rc_pinsel.c ****  * \return 	none
  42:drivers/rc_pinsel/rc_pinsel.c ****  */
  43:drivers/rc_pinsel/rc_pinsel.c **** void rcpinsel_ConfigTraceFunction(T_E_RC_ENABLE le_State)
  44:drivers/rc_pinsel/rc_pinsel.c **** {
 113              		.loc 1 44 0
 114              		.cfi_startproc
 115              		@ args = 0, pretend = 0, frame = 8
 116              		@ frame_needed = 1, uses_anonymous_args = 0
 117 0000 80B5     		push	{r7, lr}	@
 118              		.cfi_def_cfa_offset 8
 119              		.cfi_offset 7, -8
 120              		.cfi_offset 14, -4
 121 0002 82B0     		sub	sp, sp, #8	@,,
 122              		.cfi_def_cfa_offset 16
 123 0004 00AF     		add	r7, sp, #0	@,,
 124              		.cfi_def_cfa_register 7
 125 0006 0346     		mov	r3, r0	@ tmp110, le_State
 126 0008 FB71     		strb	r3, [r7, #7]	@ tmp111, le_State
 127              	@ drivers/rc_pinsel/rc_pinsel.c:45: 	PINSEL_ConfigTraceFunc((T_UBYTE)le_State);
ARM GAS  /tmp/ccB4pSnv.s 			page 4


  45:drivers/rc_pinsel/rc_pinsel.c **** 	PINSEL_ConfigTraceFunc((T_UBYTE)le_State);
 128              		.loc 1 45 0
 129 000a FB79     		ldrb	r3, [r7, #7]	@ zero_extendqisi2	@ tmp112, le_State
 130 000c 1846     		mov	r0, r3	@, tmp112
 131 000e FFF7FEFF 		bl	PINSEL_ConfigTraceFunc	@
 132              	@ drivers/rc_pinsel/rc_pinsel.c:46: }
  46:drivers/rc_pinsel/rc_pinsel.c **** }
 133              		.loc 1 46 0
 134 0012 00BF     		nop
 135 0014 0837     		adds	r7, r7, #8	@,,
 136              		.cfi_def_cfa_offset 8
 137 0016 BD46     		mov	sp, r7	@,
 138              		.cfi_def_cfa_register 13
 139              		@ sp needed	@
 140 0018 80BD     		pop	{r7, pc}	@
 141              		.cfi_endproc
 142              	.LFE56:
 143              		.size	rcpinsel_ConfigTraceFunction, .-rcpinsel_ConfigTraceFunction
 144              		.section	.text.rcpinsel_SetResistorMode,"ax",%progbits
 145              		.align	1
 146              		.global	rcpinsel_SetResistorMode
 147              		.syntax unified
 148              		.thumb
 149              		.thumb_func
 150              		.fpu softvfp
 151              		.type	rcpinsel_SetResistorMode, %function
 152              	rcpinsel_SetResistorMode:
 153              	.LFB57:
  47:drivers/rc_pinsel/rc_pinsel.c **** 
  48:drivers/rc_pinsel/rc_pinsel.c **** /**
  49:drivers/rc_pinsel/rc_pinsel.c ****  * \brief	Setup the pin resistor mode
  50:drivers/rc_pinsel/rc_pinsel.c ****  * \param	le_Port		Port number
  51:drivers/rc_pinsel/rc_pinsel.c ****  * \param	le_Pin		Pin number
  52:drivers/rc_pinsel/rc_pinsel.c ****  * \param	le_Mode		Resistor mode (pullup, tri-state, pulldown)
  53:drivers/rc_pinsel/rc_pinsel.c ****  * \return 	none
  54:drivers/rc_pinsel/rc_pinsel.c ****  */
  55:drivers/rc_pinsel/rc_pinsel.c **** void rcpinsel_SetResistorMode(T_E_RC_IOPORTS le_Port, T_E_RC_IOPINS le_Pin, T_E_RCPINSEL_MODE le_Mo
  56:drivers/rc_pinsel/rc_pinsel.c **** {
 154              		.loc 1 56 0
 155              		.cfi_startproc
 156              		@ args = 0, pretend = 0, frame = 8
 157              		@ frame_needed = 1, uses_anonymous_args = 0
 158 0000 80B5     		push	{r7, lr}	@
 159              		.cfi_def_cfa_offset 8
 160              		.cfi_offset 7, -8
 161              		.cfi_offset 14, -4
 162 0002 82B0     		sub	sp, sp, #8	@,,
 163              		.cfi_def_cfa_offset 16
 164 0004 00AF     		add	r7, sp, #0	@,,
 165              		.cfi_def_cfa_register 7
 166 0006 0346     		mov	r3, r0	@ tmp110, le_Port
 167 0008 FB71     		strb	r3, [r7, #7]	@ tmp111, le_Port
 168 000a 0B46     		mov	r3, r1	@ tmp113, tmp112
 169 000c BB71     		strb	r3, [r7, #6]	@ tmp113, le_Pin
 170 000e 1346     		mov	r3, r2	@ tmp115, tmp114
 171 0010 7B71     		strb	r3, [r7, #5]	@ tmp115, le_Mode
 172              	@ drivers/rc_pinsel/rc_pinsel.c:57: 	PINSEL_SetResistorMode((T_UBYTE)le_Port, (T_UBYTE)le_Pin, (T_U
ARM GAS  /tmp/ccB4pSnv.s 			page 5


  57:drivers/rc_pinsel/rc_pinsel.c **** 	PINSEL_SetResistorMode((T_UBYTE)le_Port, (T_UBYTE)le_Pin, (T_UBYTE)le_Mode);
 173              		.loc 1 57 0
 174 0012 7A79     		ldrb	r2, [r7, #5]	@ zero_extendqisi2	@ tmp116, le_Mode
 175 0014 B979     		ldrb	r1, [r7, #6]	@ zero_extendqisi2	@ tmp117, le_Pin
 176 0016 FB79     		ldrb	r3, [r7, #7]	@ zero_extendqisi2	@ tmp118, le_Port
 177 0018 1846     		mov	r0, r3	@, tmp118
 178 001a FFF7FEFF 		bl	PINSEL_SetResistorMode	@
 179              	@ drivers/rc_pinsel/rc_pinsel.c:58: }
  58:drivers/rc_pinsel/rc_pinsel.c **** }
 180              		.loc 1 58 0
 181 001e 00BF     		nop
 182 0020 0837     		adds	r7, r7, #8	@,,
 183              		.cfi_def_cfa_offset 8
 184 0022 BD46     		mov	sp, r7	@,
 185              		.cfi_def_cfa_register 13
 186              		@ sp needed	@
 187 0024 80BD     		pop	{r7, pc}	@
 188              		.cfi_endproc
 189              	.LFE57:
 190              		.size	rcpinsel_SetResistorMode, .-rcpinsel_SetResistorMode
 191              		.section	.text.rcpinsel_SetDrainMode,"ax",%progbits
 192              		.align	1
 193              		.global	rcpinsel_SetDrainMode
 194              		.syntax unified
 195              		.thumb
 196              		.thumb_func
 197              		.fpu softvfp
 198              		.type	rcpinsel_SetDrainMode, %function
 199              	rcpinsel_SetDrainMode:
 200              	.LFB58:
  59:drivers/rc_pinsel/rc_pinsel.c **** 
  60:drivers/rc_pinsel/rc_pinsel.c **** /**
  61:drivers/rc_pinsel/rc_pinsel.c ****  * \brief	Setup the pin drain mode
  62:drivers/rc_pinsel/rc_pinsel.c ****  * \param	le_Port		Port number
  63:drivers/rc_pinsel/rc_pinsel.c ****  * \param	le_Pin		Pin number
  64:drivers/rc_pinsel/rc_pinsel.c ****  * \param	le_Drain	Drain mode (Normal or Open)
  65:drivers/rc_pinsel/rc_pinsel.c ****  * \return 	none
  66:drivers/rc_pinsel/rc_pinsel.c ****  */
  67:drivers/rc_pinsel/rc_pinsel.c **** void rcpinsel_SetDrainMode(T_E_RC_IOPORTS le_Port, T_E_RC_IOPINS le_Pin, T_E_RCPINSEL_DRAIN le_Drai
  68:drivers/rc_pinsel/rc_pinsel.c **** {
 201              		.loc 1 68 0
 202              		.cfi_startproc
 203              		@ args = 0, pretend = 0, frame = 8
 204              		@ frame_needed = 1, uses_anonymous_args = 0
 205 0000 80B5     		push	{r7, lr}	@
 206              		.cfi_def_cfa_offset 8
 207              		.cfi_offset 7, -8
 208              		.cfi_offset 14, -4
 209 0002 82B0     		sub	sp, sp, #8	@,,
 210              		.cfi_def_cfa_offset 16
 211 0004 00AF     		add	r7, sp, #0	@,,
 212              		.cfi_def_cfa_register 7
 213 0006 0346     		mov	r3, r0	@ tmp110, le_Port
 214 0008 FB71     		strb	r3, [r7, #7]	@ tmp111, le_Port
 215 000a 0B46     		mov	r3, r1	@ tmp113, tmp112
 216 000c BB71     		strb	r3, [r7, #6]	@ tmp113, le_Pin
 217 000e 1346     		mov	r3, r2	@ tmp115, tmp114
ARM GAS  /tmp/ccB4pSnv.s 			page 6


 218 0010 7B71     		strb	r3, [r7, #5]	@ tmp115, le_Drain
 219              	@ drivers/rc_pinsel/rc_pinsel.c:69: 	PINSEL_SetOpenDrainMode((T_UBYTE)le_Port, (T_UBYTE)le_Pin, (T_
  69:drivers/rc_pinsel/rc_pinsel.c **** 	PINSEL_SetOpenDrainMode((T_UBYTE)le_Port, (T_UBYTE)le_Pin, (T_UBYTE)le_Drain);
 220              		.loc 1 69 0
 221 0012 7A79     		ldrb	r2, [r7, #5]	@ zero_extendqisi2	@ tmp116, le_Drain
 222 0014 B979     		ldrb	r1, [r7, #6]	@ zero_extendqisi2	@ tmp117, le_Pin
 223 0016 FB79     		ldrb	r3, [r7, #7]	@ zero_extendqisi2	@ tmp118, le_Port
 224 0018 1846     		mov	r0, r3	@, tmp118
 225 001a FFF7FEFF 		bl	PINSEL_SetOpenDrainMode	@
 226              	@ drivers/rc_pinsel/rc_pinsel.c:70: }
  70:drivers/rc_pinsel/rc_pinsel.c **** }
 227              		.loc 1 70 0
 228 001e 00BF     		nop
 229 0020 0837     		adds	r7, r7, #8	@,,
 230              		.cfi_def_cfa_offset 8
 231 0022 BD46     		mov	sp, r7	@,
 232              		.cfi_def_cfa_register 13
 233              		@ sp needed	@
 234 0024 80BD     		pop	{r7, pc}	@
 235              		.cfi_endproc
 236              	.LFE58:
 237              		.size	rcpinsel_SetDrainMode, .-rcpinsel_SetDrainMode
 238              		.section	.text.rcpinsel_ConfigPin,"ax",%progbits
 239              		.align	1
 240              		.global	rcpinsel_ConfigPin
 241              		.syntax unified
 242              		.thumb
 243              		.thumb_func
 244              		.fpu softvfp
 245              		.type	rcpinsel_ConfigPin, %function
 246              	rcpinsel_ConfigPin:
 247              	.LFB59:
  71:drivers/rc_pinsel/rc_pinsel.c **** 
  72:drivers/rc_pinsel/rc_pinsel.c **** /**
  73:drivers/rc_pinsel/rc_pinsel.c ****  * \brief	Configure Pin specific parameters
  74:drivers/rc_pinsel/rc_pinsel.c ****  * \param	ls_Config	Pin configuration structure
  75:drivers/rc_pinsel/rc_pinsel.c ****  * \return 	none
  76:drivers/rc_pinsel/rc_pinsel.c ****  */
  77:drivers/rc_pinsel/rc_pinsel.c **** void rcpinsel_ConfigPin(T_RCPINSEL_CFG ls_Config)
  78:drivers/rc_pinsel/rc_pinsel.c **** {
 248              		.loc 1 78 0
 249              		.cfi_startproc
 250              		@ args = 0, pretend = 0, frame = 16
 251              		@ frame_needed = 1, uses_anonymous_args = 0
 252 0000 80B5     		push	{r7, lr}	@
 253              		.cfi_def_cfa_offset 8
 254              		.cfi_offset 7, -8
 255              		.cfi_offset 14, -4
 256 0002 84B0     		sub	sp, sp, #16	@,,
 257              		.cfi_def_cfa_offset 24
 258 0004 00AF     		add	r7, sp, #0	@,,
 259              		.cfi_def_cfa_register 7
 260 0006 3B46     		mov	r3, r7	@ tmp115,
 261 0008 83E80300 		stm	r3, {r0, r1}	@ tmp115,,
 262              	@ drivers/rc_pinsel/rc_pinsel.c:81: 	ls_Pinsel_Config[0].Portnum = ls_Config.e_Port;
  79:drivers/rc_pinsel/rc_pinsel.c **** 	PINSEL_CFG_Type ls_Pinsel_Config[1u];
  80:drivers/rc_pinsel/rc_pinsel.c **** 	/* Fill PINSEL configuration structure */
ARM GAS  /tmp/ccB4pSnv.s 			page 7


  81:drivers/rc_pinsel/rc_pinsel.c **** 	ls_Pinsel_Config[0].Portnum = ls_Config.e_Port;
 263              		.loc 1 81 0
 264 000c 3B78     		ldrb	r3, [r7]	@ zero_extendqisi2	@ _1, ls_Config.e_Port
 265 000e 3B72     		strb	r3, [r7, #8]	@ tmp116, ls_Pinsel_Config[0].Portnum
 266              	@ drivers/rc_pinsel/rc_pinsel.c:82: 	ls_Pinsel_Config[0].Pinnum = ls_Config.e_Pin;
  82:drivers/rc_pinsel/rc_pinsel.c **** 	ls_Pinsel_Config[0].Pinnum = ls_Config.e_Pin;
 267              		.loc 1 82 0
 268 0010 7B78     		ldrb	r3, [r7, #1]	@ zero_extendqisi2	@ _2, ls_Config.e_Pin
 269 0012 7B72     		strb	r3, [r7, #9]	@ tmp117, ls_Pinsel_Config[0].Pinnum
 270              	@ drivers/rc_pinsel/rc_pinsel.c:83: 	ls_Pinsel_Config[0].Funcnum = ls_Config.e_Function;
  83:drivers/rc_pinsel/rc_pinsel.c **** 	ls_Pinsel_Config[0].Funcnum = ls_Config.e_Function;
 271              		.loc 1 83 0
 272 0014 BB78     		ldrb	r3, [r7, #2]	@ zero_extendqisi2	@ _3, ls_Config.e_Function
 273 0016 BB72     		strb	r3, [r7, #10]	@ tmp118, ls_Pinsel_Config[0].Funcnum
 274              	@ drivers/rc_pinsel/rc_pinsel.c:84: 	ls_Pinsel_Config[0].Pinmode = ls_Config.e_Mode;
  84:drivers/rc_pinsel/rc_pinsel.c **** 	ls_Pinsel_Config[0].Pinmode = ls_Config.e_Mode;
 275              		.loc 1 84 0
 276 0018 FB78     		ldrb	r3, [r7, #3]	@ zero_extendqisi2	@ _4, ls_Config.e_Mode
 277 001a FB72     		strb	r3, [r7, #11]	@ tmp119, ls_Pinsel_Config[0].Pinmode
 278              	@ drivers/rc_pinsel/rc_pinsel.c:85: 	ls_Pinsel_Config[0].OpenDrain = ls_Config.e_Drain;
  85:drivers/rc_pinsel/rc_pinsel.c **** 	ls_Pinsel_Config[0].OpenDrain = ls_Config.e_Drain;
 279              		.loc 1 85 0
 280 001c 3B79     		ldrb	r3, [r7, #4]	@ zero_extendqisi2	@ _5, ls_Config.e_Drain
 281 001e 3B73     		strb	r3, [r7, #12]	@ tmp120, ls_Pinsel_Config[0].OpenDrain
 282              	@ drivers/rc_pinsel/rc_pinsel.c:87: 	PINSEL_ConfigPin(ls_Pinsel_Config);
  86:drivers/rc_pinsel/rc_pinsel.c **** 	/* Call driver initializer */
  87:drivers/rc_pinsel/rc_pinsel.c **** 	PINSEL_ConfigPin(ls_Pinsel_Config);
 283              		.loc 1 87 0
 284 0020 07F10803 		add	r3, r7, #8	@ tmp121,,
 285 0024 1846     		mov	r0, r3	@, tmp121
 286 0026 FFF7FEFF 		bl	PINSEL_ConfigPin	@
 287              	@ drivers/rc_pinsel/rc_pinsel.c:88: }
  88:drivers/rc_pinsel/rc_pinsel.c **** }
 288              		.loc 1 88 0
 289 002a 00BF     		nop
 290 002c 1037     		adds	r7, r7, #16	@,,
 291              		.cfi_def_cfa_offset 8
 292 002e BD46     		mov	sp, r7	@,
 293              		.cfi_def_cfa_register 13
 294              		@ sp needed	@
 295 0030 80BD     		pop	{r7, pc}	@
 296              		.cfi_endproc
 297              	.LFE59:
 298              		.size	rcpinsel_ConfigPin, .-rcpinsel_ConfigPin
 299              		.text
 300              	.Letext0:
 301              		.file 2 "/usr/arm-none-eabi/include/machine/_default_types.h"
 302              		.file 3 "/usr/arm-none-eabi/include/sys/_stdint.h"
 303              		.file 4 "system/core_cm3.h"
 304              		.file 5 "system/system_LPC17xx.h"
 305              		.file 6 "config/rc_stdtypedefs.h"
 306              		.file 7 "core/lpc17xx_pinsel.h"
 307              		.file 8 "drivers/rc_pinsel/rc_pinsel.h"