ARM GAS  C:\Users\STUDENT\AppData\Local\Temp\cccJxUdc.s 			page 1


   1              		.syntax unified
   2              		.cpu cortex-m3
   3              		.fpu softvfp
   4              		.eabi_attribute 20, 1	@ Tag_ABI_FP_denormal
   5              		.eabi_attribute 21, 1	@ Tag_ABI_FP_exceptions
   6              		.eabi_attribute 23, 3	@ Tag_ABI_FP_number_model
   7              		.eabi_attribute 24, 1	@ Tag_ABI_align8_needed
   8              		.eabi_attribute 25, 1	@ Tag_ABI_align8_preserved
   9              		.eabi_attribute 26, 1	@ Tag_ABI_enum_size
  10              		.eabi_attribute 30, 6	@ Tag_ABI_optimization_goals
  11              		.eabi_attribute 34, 1	@ Tag_CPU_unaligned_access
  12              		.eabi_attribute 18, 4	@ Tag_ABI_PCS_wchar_t
  13              		.file	"rc_task_leds.c"
  14              	@ GNU C89 (GNU Tools for ARM Embedded Processors) version 5.4.1 20160919 (release) [ARM/embedded-5-
  15              	@	compiled by GNU C version 4.7.4, GMP version 4.3.2, MPFR version 2.4.2, MPC version 0.8.1
  16              	@ GGC heuristics: --param ggc-min-expand=100 --param ggc-min-heapsize=131072
  17              	@ options passed:  -I . -I config -I system -I core -I drivers -I FreeRTOS
  18              	@ -I FreeRTOS/include -I FreeRTOS/portable/GCC/ARM_CM3 -I FreeRTOS/portable
  19              	@ -I tasks/rc_task_leds -I tasks/rc_task_xbee -I modules/rc_leds
  20              	@ -I modules/rc_xbee -I modules/rc_scheduler -I drivers/rc_system
  21              	@ -I drivers/rc_gpio -I drivers/rc_uart -I drivers/rc_pinsel
  22              	@ -I drivers/rc_timer -I drivers/rc_adc -imultilib armv7-m
  23              	@ -iprefix c:\program files (x86)\gnu tools arm embedded\5.4 2016q3\bin\../lib/gcc/arm-none-eabi/5.
  24              	@ -isysroot c:\program files (x86)\gnu tools arm embedded\5.4 2016q3\bin\../arm-none-eabi
  25              	@ -MD out/rc_task_leds.d -MF out/rc_task_leds.d -MP -MQ out/rc_task_leds.o
  26              	@ -D__USES_INITFINI__ tasks/rc_task_leds/rc_task_leds.c -mcpu=cortex-m3
  27              	@ -mthumb -auxbase-strip out/rc_task_leds.o -g -ggdb3 -O0 -Wall
  28              	@ -Wstrict-prototypes -Wextra -std=gnu90 -ffunction-sections
  29              	@ -fdata-sections -fverbose-asm
  30              	@ options enabled:  -faggressive-loop-optimizations -fauto-inc-dec
  31              	@ -fchkp-check-incomplete-type -fchkp-check-read -fchkp-check-write
  32              	@ -fchkp-instrument-calls -fchkp-narrow-bounds -fchkp-optimize
  33              	@ -fchkp-store-bounds -fchkp-use-static-bounds
  34              	@ -fchkp-use-static-const-bounds -fchkp-use-wrappers -fcommon
  35              	@ -fdata-sections -fdelete-null-pointer-checks -fdwarf2-cfi-asm
  36              	@ -fearly-inlining -feliminate-unused-debug-types -ffunction-cse
  37              	@ -ffunction-sections -fgcse-lm -fgnu-runtime -fgnu-unique -fident
  38              	@ -finline-atomics -fira-hoist-pressure -fira-share-save-slots
  39              	@ -fira-share-spill-slots -fivopts -fkeep-static-consts
  40              	@ -fleading-underscore -flifetime-dse -flto-odr-type-merging -fmath-errno
  41              	@ -fmerge-debug-strings -fpeephole -fprefetch-loop-arrays
  42              	@ -freg-struct-return -fsched-critical-path-heuristic
  43              	@ -fsched-dep-count-heuristic -fsched-group-heuristic -fsched-interblock
  44              	@ -fsched-last-insn-heuristic -fsched-rank-heuristic -fsched-spec
  45              	@ -fsched-spec-insn-heuristic -fsched-stalled-insns-dep
  46              	@ -fsemantic-interposition -fshow-column -fsigned-zeros
  47              	@ -fsplit-ivs-in-unroller -fstdarg-opt -fstrict-volatile-bitfields
  48              	@ -fsync-libcalls -ftrapping-math -ftree-coalesce-vars -ftree-cselim
  49              	@ -ftree-forwprop -ftree-loop-if-convert -ftree-loop-im -ftree-loop-ivcanon
  50              	@ -ftree-loop-optimize -ftree-parallelize-loops= -ftree-phiprop
  51              	@ -ftree-reassoc -ftree-scev-cprop -funit-at-a-time -fverbose-asm
  52              	@ -fzero-initialized-in-bss -masm-syntax-unified -mfix-cortex-m3-ldrd
  53              	@ -mlittle-endian -mpic-data-is-text-relative -msched-prolog -mthumb
  54              	@ -munaligned-access -mvectorize-with-neon-quad
  55              	
  56              		.text
  57              	.Ltext0:
ARM GAS  C:\Users\STUDENT\AppData\Local\Temp\cccJxUdc.s 			page 2


  58              		.cfi_sections	.debug_frame
  59              		.comm	xHandleLEDs,4,4
  60              		.section	.bss.re_rcleds_state,"aw",%nobits
  61              		.type	re_rcleds_state, %object
  62              		.size	re_rcleds_state, 1
  63              	re_rcleds_state:
  64 0000 00       		.space	1
  65              		.section	.text.rctask_LEDs,"ax",%progbits
  66              		.align	2
  67              		.global	rctask_LEDs
  68              		.thumb
  69              		.thumb_func
  70              		.type	rctask_LEDs, %function
  71              	rctask_LEDs:
  72              	.LFB56:
  73              		.file 1 "tasks/rc_task_leds/rc_task_leds.c"
   1:tasks/rc_task_leds/rc_task_leds.c **** /**
   2:tasks/rc_task_leds/rc_task_leds.c ****  * \file	rc_task_leds.c
   3:tasks/rc_task_leds/rc_task_leds.c ****  * \brief	LEDs task
   4:tasks/rc_task_leds/rc_task_leds.c ****  * \details	Implements LEDs functions
   5:tasks/rc_task_leds/rc_task_leds.c ****  * \author	Cosmin Marcu
   6:tasks/rc_task_leds/rc_task_leds.c ****  * \date	Nov 02, 2015
   7:tasks/rc_task_leds/rc_task_leds.c ****  * \version 1.0.1
   8:tasks/rc_task_leds/rc_task_leds.c ****  */
   9:tasks/rc_task_leds/rc_task_leds.c **** 
  10:tasks/rc_task_leds/rc_task_leds.c **** /* System and general headers */
  11:tasks/rc_task_leds/rc_task_leds.c **** #include "rc_task_leds.h"
  12:tasks/rc_task_leds/rc_task_leds.c **** 
  13:tasks/rc_task_leds/rc_task_leds.c **** #include "rc_leds.h"
  14:tasks/rc_task_leds/rc_task_leds.c **** #include "rc_stdtypedefs.h"
  15:tasks/rc_task_leds/rc_task_leds.c **** #include "rc_board.h"
  16:tasks/rc_task_leds/rc_task_leds.c **** #include "rc_gpio.h"
  17:tasks/rc_task_leds/rc_task_leds.c **** 
  18:tasks/rc_task_leds/rc_task_leds.c **** /**
  19:tasks/rc_task_leds/rc_task_leds.c ****  * \ingroup  rc_task_leds
  20:tasks/rc_task_leds/rc_task_leds.c ****  * \defgroup Task_LEDs_functions LEDs task
  21:tasks/rc_task_leds/rc_task_leds.c ****  *  FreeRTOS task for LEDs
  22:tasks/rc_task_leds/rc_task_leds.c ****  *  @{
  23:tasks/rc_task_leds/rc_task_leds.c ****  */
  24:tasks/rc_task_leds/rc_task_leds.c **** 
  25:tasks/rc_task_leds/rc_task_leds.c **** 
  26:tasks/rc_task_leds/rc_task_leds.c **** PRIVATE_DATA T_E_RCLEDS_STATE re_rcleds_state;					//!< Current state of the LEDs task (private)
  27:tasks/rc_task_leds/rc_task_leds.c **** 
  28:tasks/rc_task_leds/rc_task_leds.c **** /**
  29:tasks/rc_task_leds/rc_task_leds.c **** * \brief 	RTOS LEDs task
  30:tasks/rc_task_leds/rc_task_leds.c **** * \details 	TBD.
  31:tasks/rc_task_leds/rc_task_leds.c **** */
  32:tasks/rc_task_leds/rc_task_leds.c **** void rctask_LEDs(void *pvParameters)
  33:tasks/rc_task_leds/rc_task_leds.c **** {
  74              		.loc 1 33 0
  75              		.cfi_startproc
  76              		@ args = 0, pretend = 0, frame = 8
  77              		@ frame_needed = 1, uses_anonymous_args = 0
  78 0000 80B5     		push	{r7, lr}	@
  79              		.cfi_def_cfa_offset 8
  80              		.cfi_offset 7, -8
  81              		.cfi_offset 14, -4
ARM GAS  C:\Users\STUDENT\AppData\Local\Temp\cccJxUdc.s 			page 3


  82 0002 82B0     		sub	sp, sp, #8	@,,
  83              		.cfi_def_cfa_offset 16
  84 0004 00AF     		add	r7, sp, #0	@,,
  85              		.cfi_def_cfa_register 7
  86 0006 7860     		str	r0, [r7, #4]	@ pvParameters, pvParameters
  87              	.L6:
  34:tasks/rc_task_leds/rc_task_leds.c **** 	if (NULL == pvParameters) {};	//avoid compiler warning
  35:tasks/rc_task_leds/rc_task_leds.c **** 
  36:tasks/rc_task_leds/rc_task_leds.c **** 	while(1)
  37:tasks/rc_task_leds/rc_task_leds.c **** 	{
  38:tasks/rc_task_leds/rc_task_leds.c **** 		//Check the current state of the task
  39:tasks/rc_task_leds/rc_task_leds.c **** 		switch(re_rcleds_state)
  88              		.loc 1 39 0
  89 0008 194B     		ldr	r3, .L8	@ tmp112,
  90 000a 1B78     		ldrb	r3, [r3]	@ zero_extendqisi2	@ D.5846, re_rcleds_state
  91 000c 002B     		cmp	r3, #0	@ D.5847,
  92 000e 02D0     		beq	.L3	@,
  93 0010 012B     		cmp	r3, #1	@ D.5847,
  94 0012 10D0     		beq	.L4	@,
  95 0014 1FE0     		b	.L7	@
  96              	.L3:
  40:tasks/rc_task_leds/rc_task_leds.c **** 		{
  41:tasks/rc_task_leds/rc_task_leds.c **** 		case E_RCLEDS_STATE_NONE:
  42:tasks/rc_task_leds/rc_task_leds.c **** 			rcgpio_ClearPin(RC_RGBLEDS_PORT, RC_RGBLED1_RED_PIN);
  97              		.loc 1 42 0
  98 0016 0021     		movs	r1, #0	@,
  99 0018 0220     		movs	r0, #2	@,
 100 001a FFF7FEFF 		bl	rcgpio_ClearPin	@
  43:tasks/rc_task_leds/rc_task_leds.c **** 			rcgpio_ClearPin(RC_RGBLEDS_PORT, RC_RGBLED2_RED_PIN);
 101              		.loc 1 43 0
 102 001e 0321     		movs	r1, #3	@,
 103 0020 0220     		movs	r0, #2	@,
 104 0022 FFF7FEFF 		bl	rcgpio_ClearPin	@
  44:tasks/rc_task_leds/rc_task_leds.c **** 			re_rcleds_state = E_RCLEDS_STATE_LEDS_ON;
 105              		.loc 1 44 0
 106 0026 124B     		ldr	r3, .L8	@ tmp113,
 107 0028 0122     		movs	r2, #1	@ tmp114,
 108 002a 1A70     		strb	r2, [r3]	@ tmp115, re_rcleds_state
  45:tasks/rc_task_leds/rc_task_leds.c **** 			vTaskDelay(1000);
 109              		.loc 1 45 0
 110 002c 4FF47A70 		mov	r0, #1000	@,
 111 0030 FFF7FEFF 		bl	vTaskDelay	@
  46:tasks/rc_task_leds/rc_task_leds.c **** 			break;
 112              		.loc 1 46 0
 113 0034 17E0     		b	.L5	@
 114              	.L4:
  47:tasks/rc_task_leds/rc_task_leds.c **** 		case E_RCLEDS_STATE_LEDS_ON:
  48:tasks/rc_task_leds/rc_task_leds.c **** 			rcgpio_SetPin(RC_RGBLEDS_PORT, RC_RGBLED1_RED_PIN);
 115              		.loc 1 48 0
 116 0036 0021     		movs	r1, #0	@,
 117 0038 0220     		movs	r0, #2	@,
 118 003a FFF7FEFF 		bl	rcgpio_SetPin	@
  49:tasks/rc_task_leds/rc_task_leds.c **** 			rcgpio_SetPin(RC_RGBLEDS_PORT, RC_RGBLED2_RED_PIN);
 119              		.loc 1 49 0
 120 003e 0321     		movs	r1, #3	@,
 121 0040 0220     		movs	r0, #2	@,
 122 0042 FFF7FEFF 		bl	rcgpio_SetPin	@
ARM GAS  C:\Users\STUDENT\AppData\Local\Temp\cccJxUdc.s 			page 4


  50:tasks/rc_task_leds/rc_task_leds.c **** 			re_rcleds_state = E_RCLEDS_STATE_NONE;
 123              		.loc 1 50 0
 124 0046 0A4B     		ldr	r3, .L8	@ tmp116,
 125 0048 0022     		movs	r2, #0	@ tmp117,
 126 004a 1A70     		strb	r2, [r3]	@ tmp118, re_rcleds_state
  51:tasks/rc_task_leds/rc_task_leds.c **** 			vTaskDelay(1000);
 127              		.loc 1 51 0
 128 004c 4FF47A70 		mov	r0, #1000	@,
 129 0050 FFF7FEFF 		bl	vTaskDelay	@
  52:tasks/rc_task_leds/rc_task_leds.c **** 			break;
 130              		.loc 1 52 0
 131 0054 07E0     		b	.L5	@
 132              	.L7:
  53:tasks/rc_task_leds/rc_task_leds.c **** 		default:
  54:tasks/rc_task_leds/rc_task_leds.c **** 			re_rcleds_state = E_RCLEDS_STATE_NONE;
 133              		.loc 1 54 0
 134 0056 064B     		ldr	r3, .L8	@ tmp119,
 135 0058 0022     		movs	r2, #0	@ tmp120,
 136 005a 1A70     		strb	r2, [r3]	@ tmp121, re_rcleds_state
  55:tasks/rc_task_leds/rc_task_leds.c **** 			vTaskDelay(1000);
 137              		.loc 1 55 0
 138 005c 4FF47A70 		mov	r0, #1000	@,
 139 0060 FFF7FEFF 		bl	vTaskDelay	@
  56:tasks/rc_task_leds/rc_task_leds.c **** 			break;
 140              		.loc 1 56 0
 141 0064 00BF     		nop
 142              	.L5:
  57:tasks/rc_task_leds/rc_task_leds.c **** 		}
  58:tasks/rc_task_leds/rc_task_leds.c **** 		vTaskDelay(100);
 143              		.loc 1 58 0
 144 0066 6420     		movs	r0, #100	@,
 145 0068 FFF7FEFF 		bl	vTaskDelay	@
  59:tasks/rc_task_leds/rc_task_leds.c **** 	}
 146              		.loc 1 59 0
 147 006c CCE7     		b	.L6	@
 148              	.L9:
 149 006e 00BF     		.align	2
 150              	.L8:
 151 0070 00000000 		.word	re_rcleds_state
 152              		.cfi_endproc
 153              	.LFE56:
 154              		.size	rctask_LEDs, .-rctask_LEDs
 155              		.text
 156              	.Letext0:
 157              		.file 2 "c:\\program files (x86)\\gnu tools arm embedded\\5.4 2016q3\\arm-none-eabi\\include\\mach
 158              		.file 3 "c:\\program files (x86)\\gnu tools arm embedded\\5.4 2016q3\\arm-none-eabi\\include\\sys\
 159              		.file 4 "FreeRTOS/include/task.h"
 160              		.file 5 "tasks/rc_task_leds/rc_task_leds.h"
 161              		.file 6 "config/rc_stdtypedefs.h"
 162              		.file 7 "system/core_cm3.h"