ARM GAS  /tmp/ccUdv9tt.s 			page 1


   1              		.cpu cortex-m3
   2              		.eabi_attribute 20, 1	@ Tag_ABI_FP_denormal
   3              		.eabi_attribute 21, 1	@ Tag_ABI_FP_exceptions
   4              		.eabi_attribute 23, 3	@ Tag_ABI_FP_number_model
   5              		.eabi_attribute 24, 1	@ Tag_ABI_align8_needed
   6              		.eabi_attribute 25, 1	@ Tag_ABI_align8_preserved
   7              		.eabi_attribute 26, 1	@ Tag_ABI_enum_size
   8              		.eabi_attribute 30, 6	@ Tag_ABI_optimization_goals
   9              		.eabi_attribute 34, 1	@ Tag_CPU_unaligned_access
  10              		.eabi_attribute 18, 4	@ Tag_ABI_PCS_wchar_t
  11              		.file	"rc_uart.c"
  12              	@ GNU C89 (Arch Repository) version 7.1.0 (arm-none-eabi)
  13              	@	compiled by GNU C version 6.3.1 20170306, GMP version 6.1.2, MPFR version 3.1.5-p2, MPC version 1
  14              	
  15              	@ GGC heuristics: --param ggc-min-expand=100 --param ggc-min-heapsize=131072
  16              	@ options passed:  -I . -I config -I system -I core -I drivers -I FreeRTOS
  17              	@ -I FreeRTOS/include -I FreeRTOS/portable/GCC/ARM_CM3 -I FreeRTOS/portable
  18              	@ -I tasks/rc_task_leds -I tasks/rc_task_xbee -I modules/rc_leds
  19              	@ -I modules/rc_xbee -I modules/rc_scheduler -I drivers/rc_system
  20              	@ -I drivers/rc_gpio -I drivers/rc_uart -I drivers/rc_pinsel
  21              	@ -I drivers/rc_timer -I drivers/rc_adc -imultilib armv7-m
  22              	@ -MD out/rc_uart.d -MF out/rc_uart.d -MP -MQ out/rc_uart.o
  23              	@ -D__USES_INITFINI__ drivers/rc_uart/rc_uart.c -mcpu=cortex-m3 -mthumb
  24              	@ -auxbase-strip out/rc_uart.o -g -ggdb3 -O0 -Wall -Wstrict-prototypes
  25              	@ -Wextra -std=gnu90 -ffunction-sections -fdata-sections -fverbose-asm
  26              	@ options enabled:  -faggressive-loop-optimizations -fauto-inc-dec
  27              	@ -fchkp-check-incomplete-type -fchkp-check-read -fchkp-check-write
  28              	@ -fchkp-instrument-calls -fchkp-narrow-bounds -fchkp-optimize
  29              	@ -fchkp-store-bounds -fchkp-use-static-bounds
  30              	@ -fchkp-use-static-const-bounds -fchkp-use-wrappers -fcommon
  31              	@ -fdata-sections -fdelete-null-pointer-checks -fdwarf2-cfi-asm
  32              	@ -fearly-inlining -feliminate-unused-debug-types -ffp-int-builtin-inexact
  33              	@ -ffunction-cse -ffunction-sections -fgcse-lm -fgnu-runtime -fgnu-unique
  34              	@ -fident -finline-atomics -fira-hoist-pressure -fira-share-save-slots
  35              	@ -fira-share-spill-slots -fivopts -fkeep-static-consts
  36              	@ -fleading-underscore -flifetime-dse -flto-odr-type-merging -fmath-errno
  37              	@ -fmerge-debug-strings -fpeephole -fplt -fprefetch-loop-arrays
  38              	@ -freg-struct-return -fsched-critical-path-heuristic
  39              	@ -fsched-dep-count-heuristic -fsched-group-heuristic -fsched-interblock
  40              	@ -fsched-last-insn-heuristic -fsched-rank-heuristic -fsched-spec
  41              	@ -fsched-spec-insn-heuristic -fsched-stalled-insns-dep
  42              	@ -fsemantic-interposition -fshow-column -fshrink-wrap-separate
  43              	@ -fsigned-zeros -fsplit-ivs-in-unroller -fssa-backprop -fstdarg-opt
  44              	@ -fstrict-volatile-bitfields -fsync-libcalls -ftrapping-math -ftree-cselim
  45              	@ -ftree-forwprop -ftree-loop-if-convert -ftree-loop-im -ftree-loop-ivcanon
  46              	@ -ftree-loop-optimize -ftree-parallelize-loops= -ftree-phiprop
  47              	@ -ftree-reassoc -ftree-scev-cprop -funit-at-a-time -fverbose-asm
  48              	@ -fzero-initialized-in-bss -masm-syntax-unified -mfix-cortex-m3-ldrd
  49              	@ -mlittle-endian -mpic-data-is-text-relative -msched-prolog -mthumb
  50              	@ -munaligned-access -mvectorize-with-neon-quad
  51              	
  52              		.text
  53              	.Ltext0:
  54              		.cfi_sections	.debug_frame
  55              		.section	.text.rcuart_Init,"ax",%progbits
  56              		.align	1
  57              		.global	rcuart_Init
ARM GAS  /tmp/ccUdv9tt.s 			page 2


  58              		.syntax unified
  59              		.thumb
  60              		.thumb_func
  61              		.fpu softvfp
  62              		.type	rcuart_Init, %function
  63              	rcuart_Init:
  64              	.LFB55:
  65              		.file 1 "drivers/rc_uart/rc_uart.c"
   1:drivers/rc_uart/rc_uart.c **** /**
   2:drivers/rc_uart/rc_uart.c ****  * \file	rc_uart.c
   3:drivers/rc_uart/rc_uart.c ****  * \brief	Implements the interface functions with the UART peripheral
   4:drivers/rc_uart/rc_uart.c ****  * \details	Implements the functions which communicate directly with the
   5:drivers/rc_uart/rc_uart.c ****  * 			LPC17xx UART peripheral
   6:drivers/rc_uart/rc_uart.c ****  * \author	Cosmin Marcu
   7:drivers/rc_uart/rc_uart.c ****  * \date	29.05.2015
   8:drivers/rc_uart/rc_uart.c ****  * \version 1.0.1
   9:drivers/rc_uart/rc_uart.c ****  */
  10:drivers/rc_uart/rc_uart.c **** 
  11:drivers/rc_uart/rc_uart.c **** /* Includes */
  12:drivers/rc_uart/rc_uart.c **** #include "rc_uart.h"
  13:drivers/rc_uart/rc_uart.c **** 
  14:drivers/rc_uart/rc_uart.c **** /* Begin functions implementation */
  15:drivers/rc_uart/rc_uart.c **** 
  16:drivers/rc_uart/rc_uart.c **** /** \defgroup rc_uart  UART driver
  17:drivers/rc_uart/rc_uart.c ****   Contains the functions to set the pins attributes
  18:drivers/rc_uart/rc_uart.c **** */
  19:drivers/rc_uart/rc_uart.c **** 
  20:drivers/rc_uart/rc_uart.c **** /**
  21:drivers/rc_uart/rc_uart.c ****  * \ingroup  rc_uart
  22:drivers/rc_uart/rc_uart.c ****  * \defgroup uart_functions UART Functions
  23:drivers/rc_uart/rc_uart.c ****  *  Functions definitions for the UART setup
  24:drivers/rc_uart/rc_uart.c ****  *  @{
  25:drivers/rc_uart/rc_uart.c ****  */
  26:drivers/rc_uart/rc_uart.c **** 
  27:drivers/rc_uart/rc_uart.c **** /* UART Functions Group: */
  28:drivers/rc_uart/rc_uart.c **** /**
  29:drivers/rc_uart/rc_uart.c ****  * \brief 	Initializes UART.
  30:drivers/rc_uart/rc_uart.c ****  * \param	ps_Port		Pointer to LPC_UARTx port structure
  31:drivers/rc_uart/rc_uart.c ****  * \param	ls_Config	UART config structure
  32:drivers/rc_uart/rc_uart.c ****  * \return	none
  33:drivers/rc_uart/rc_uart.c ****  */
  34:drivers/rc_uart/rc_uart.c **** void rcuart_Init(T_RCUART_PORT *ps_Port, T_RCUART_CONFIG ls_Config)
  35:drivers/rc_uart/rc_uart.c **** {
  66              		.loc 1 35 0
  67              		.cfi_startproc
  68              		@ args = 0, pretend = 0, frame = 24
  69              		@ frame_needed = 1, uses_anonymous_args = 0
  70 0000 80B5     		push	{r7, lr}	@
  71              		.cfi_def_cfa_offset 8
  72              		.cfi_offset 7, -8
  73              		.cfi_offset 14, -4
  74 0002 86B0     		sub	sp, sp, #24	@,,
  75              		.cfi_def_cfa_offset 32
  76 0004 00AF     		add	r7, sp, #0	@,,
  77              		.cfi_def_cfa_register 7
  78 0006 F860     		str	r0, [r7, #12]	@ ps_Port, ps_Port
  79 0008 3B1D     		adds	r3, r7, #4	@ tmp114,,
ARM GAS  /tmp/ccUdv9tt.s 			page 3


  80 000a 83E80600 		stm	r3, {r1, r2}	@ tmp114,,
  81              	@ drivers/rc_uart/rc_uart.c:38: 	UART_ConfigStruct[0].Baud_rate = ls_Config.ul_Baudrate;
  36:drivers/rc_uart/rc_uart.c **** 	UART_CFG_Type UART_ConfigStruct[1u];
  37:drivers/rc_uart/rc_uart.c **** 	/* Fill UART config structure */
  38:drivers/rc_uart/rc_uart.c **** 	UART_ConfigStruct[0].Baud_rate = ls_Config.ul_Baudrate;
  82              		.loc 1 38 0
  83 000e 7B68     		ldr	r3, [r7, #4]	@ _1, ls_Config.ul_Baudrate
  84 0010 3B61     		str	r3, [r7, #16]	@ _1, UART_ConfigStruct[0].Baud_rate
  85              	@ drivers/rc_uart/rc_uart.c:39: 	UART_ConfigStruct[0].Databits = ls_Config.e_Databit;
  39:drivers/rc_uart/rc_uart.c **** 	UART_ConfigStruct[0].Databits = ls_Config.e_Databit;
  86              		.loc 1 39 0
  87 0012 7B7A     		ldrb	r3, [r7, #9]	@ zero_extendqisi2	@ _2, ls_Config.e_Databit
  88 0014 7B75     		strb	r3, [r7, #21]	@ tmp115, UART_ConfigStruct[0].Databits
  89              	@ drivers/rc_uart/rc_uart.c:40: 	UART_ConfigStruct[0].Parity = ls_Config.e_Parity;
  40:drivers/rc_uart/rc_uart.c **** 	UART_ConfigStruct[0].Parity = ls_Config.e_Parity;
  90              		.loc 1 40 0
  91 0016 3B7A     		ldrb	r3, [r7, #8]	@ zero_extendqisi2	@ _3, ls_Config.e_Parity
  92 0018 3B75     		strb	r3, [r7, #20]	@ tmp116, UART_ConfigStruct[0].Parity
  93              	@ drivers/rc_uart/rc_uart.c:41: 	UART_ConfigStruct[0].Stopbits = ls_Config.e_Stopbit;
  41:drivers/rc_uart/rc_uart.c **** 	UART_ConfigStruct[0].Stopbits = ls_Config.e_Stopbit;
  94              		.loc 1 41 0
  95 001a BB7A     		ldrb	r3, [r7, #10]	@ zero_extendqisi2	@ _4, ls_Config.e_Stopbit
  96 001c BB75     		strb	r3, [r7, #22]	@ tmp117, UART_ConfigStruct[0].Stopbits
  97              	@ drivers/rc_uart/rc_uart.c:43: 	UART_Init(ps_Port, UART_ConfigStruct);
  42:drivers/rc_uart/rc_uart.c **** 	/* Call driver initializer */
  43:drivers/rc_uart/rc_uart.c **** 	UART_Init(ps_Port, UART_ConfigStruct);
  98              		.loc 1 43 0
  99 001e 07F11003 		add	r3, r7, #16	@ tmp118,,
 100 0022 1946     		mov	r1, r3	@, tmp118
 101 0024 F868     		ldr	r0, [r7, #12]	@, ps_Port
 102 0026 FFF7FEFF 		bl	UART_Init	@
 103              	@ drivers/rc_uart/rc_uart.c:44: }
  44:drivers/rc_uart/rc_uart.c **** }
 104              		.loc 1 44 0
 105 002a 00BF     		nop
 106 002c 1837     		adds	r7, r7, #24	@,,
 107              		.cfi_def_cfa_offset 8
 108 002e BD46     		mov	sp, r7	@,
 109              		.cfi_def_cfa_register 13
 110              		@ sp needed	@
 111 0030 80BD     		pop	{r7, pc}	@
 112              		.cfi_endproc
 113              	.LFE55:
 114              		.size	rcuart_Init, .-rcuart_Init
 115              		.section	.text.rcuart_DeInit,"ax",%progbits
 116              		.align	1
 117              		.global	rcuart_DeInit
 118              		.syntax unified
 119              		.thumb
 120              		.thumb_func
 121              		.fpu softvfp
 122              		.type	rcuart_DeInit, %function
 123              	rcuart_DeInit:
 124              	.LFB56:
  45:drivers/rc_uart/rc_uart.c **** 
  46:drivers/rc_uart/rc_uart.c **** /**
  47:drivers/rc_uart/rc_uart.c ****  * \brief 	De-Initializes UART.
ARM GAS  /tmp/ccUdv9tt.s 			page 4


  48:drivers/rc_uart/rc_uart.c ****  * \param	ps_Port	Pointer to LPC_UARTx port structure
  49:drivers/rc_uart/rc_uart.c ****  * \return	none
  50:drivers/rc_uart/rc_uart.c ****  */
  51:drivers/rc_uart/rc_uart.c **** void rcuart_DeInit(T_RCUART_PORT *ps_Port)
  52:drivers/rc_uart/rc_uart.c **** {
 125              		.loc 1 52 0
 126              		.cfi_startproc
 127              		@ args = 0, pretend = 0, frame = 8
 128              		@ frame_needed = 1, uses_anonymous_args = 0
 129 0000 80B5     		push	{r7, lr}	@
 130              		.cfi_def_cfa_offset 8
 131              		.cfi_offset 7, -8
 132              		.cfi_offset 14, -4
 133 0002 82B0     		sub	sp, sp, #8	@,,
 134              		.cfi_def_cfa_offset 16
 135 0004 00AF     		add	r7, sp, #0	@,,
 136              		.cfi_def_cfa_register 7
 137 0006 7860     		str	r0, [r7, #4]	@ ps_Port, ps_Port
 138              	@ drivers/rc_uart/rc_uart.c:53: 	UART_DeInit(ps_Port);
  53:drivers/rc_uart/rc_uart.c **** 	UART_DeInit(ps_Port);
 139              		.loc 1 53 0
 140 0008 7868     		ldr	r0, [r7, #4]	@, ps_Port
 141 000a FFF7FEFF 		bl	UART_DeInit	@
 142              	@ drivers/rc_uart/rc_uart.c:54: }
  54:drivers/rc_uart/rc_uart.c **** }
 143              		.loc 1 54 0
 144 000e 00BF     		nop
 145 0010 0837     		adds	r7, r7, #8	@,,
 146              		.cfi_def_cfa_offset 8
 147 0012 BD46     		mov	sp, r7	@,
 148              		.cfi_def_cfa_register 13
 149              		@ sp needed	@
 150 0014 80BD     		pop	{r7, pc}	@
 151              		.cfi_endproc
 152              	.LFE56:
 153              		.size	rcuart_DeInit, .-rcuart_DeInit
 154              		.section	.text.rcuart_Send,"ax",%progbits
 155              		.align	1
 156              		.global	rcuart_Send
 157              		.syntax unified
 158              		.thumb
 159              		.thumb_func
 160              		.fpu softvfp
 161              		.type	rcuart_Send, %function
 162              	rcuart_Send:
 163              	.LFB57:
  55:drivers/rc_uart/rc_uart.c **** 
  56:drivers/rc_uart/rc_uart.c **** /**
  57:drivers/rc_uart/rc_uart.c ****  * \brief 	Send a block of data to the UART.
  58:drivers/rc_uart/rc_uart.c ****  * \param	ps_Port				Pointer to LPC_UARTx port structure
  59:drivers/rc_uart/rc_uart.c ****  * \param 	lub_UART_TxBuffer	buffer containing the data to be sent
  60:drivers/rc_uart/rc_uart.c ****  * \param	lul_Length			number of bytes to be sent
  61:drivers/rc_uart/rc_uart.c ****  * \param	le_Transfer			Transfer type (Non Blocking or Blocking)
  62:drivers/rc_uart/rc_uart.c ****  * \return	Transmit status (E_RC_SUCCES if all bytes were transmitted)
  63:drivers/rc_uart/rc_uart.c ****  */
  64:drivers/rc_uart/rc_uart.c **** T_E_RC_ERROR rcuart_Send(T_RCUART_PORT *ps_Port, T_UBYTE *lub_UART_TxBuffer, T_ULONG lul_Length, T_
  65:drivers/rc_uart/rc_uart.c **** {
ARM GAS  /tmp/ccUdv9tt.s 			page 5


 164              		.loc 1 65 0
 165              		.cfi_startproc
 166              		@ args = 0, pretend = 0, frame = 32
 167              		@ frame_needed = 1, uses_anonymous_args = 0
 168 0000 80B5     		push	{r7, lr}	@
 169              		.cfi_def_cfa_offset 8
 170              		.cfi_offset 7, -8
 171              		.cfi_offset 14, -4
 172 0002 88B0     		sub	sp, sp, #32	@,,
 173              		.cfi_def_cfa_offset 40
 174 0004 00AF     		add	r7, sp, #0	@,,
 175              		.cfi_def_cfa_register 7
 176 0006 F860     		str	r0, [r7, #12]	@ ps_Port, ps_Port
 177 0008 B960     		str	r1, [r7, #8]	@ lub_UART_TxBuffer, lub_UART_TxBuffer
 178 000a 7A60     		str	r2, [r7, #4]	@ lul_Length, lul_Length
 179 000c FB70     		strb	r3, [r7, #3]	@ tmp115, le_Transfer
 180              	@ drivers/rc_uart/rc_uart.c:66: 	T_ULONG lul_BytesTransmitted = 0u;
  66:drivers/rc_uart/rc_uart.c **** 	T_ULONG lul_BytesTransmitted = 0u;
 181              		.loc 1 66 0
 182 000e 0023     		movs	r3, #0	@ tmp116,
 183 0010 FB61     		str	r3, [r7, #28]	@ tmp116, lul_BytesTransmitted
 184              	@ drivers/rc_uart/rc_uart.c:67: 	T_ULONG lul_TotalBytesTransmitted = 0u;
  67:drivers/rc_uart/rc_uart.c **** 	T_ULONG lul_TotalBytesTransmitted = 0u;
 185              		.loc 1 67 0
 186 0012 0023     		movs	r3, #0	@ tmp117,
 187 0014 BB61     		str	r3, [r7, #24]	@ tmp117, lul_TotalBytesTransmitted
 188              	@ drivers/rc_uart/rc_uart.c:68: 	T_ULONG lul_BytesRemaining = 0u;
  68:drivers/rc_uart/rc_uart.c **** 	T_ULONG lul_BytesRemaining = 0u;
 189              		.loc 1 68 0
 190 0016 0023     		movs	r3, #0	@ tmp118,
 191 0018 3B61     		str	r3, [r7, #16]	@ tmp118, lul_BytesRemaining
 192              	@ drivers/rc_uart/rc_uart.c:69: 	T_E_RC_ERROR le_Status = E_RC_ERROR;
  69:drivers/rc_uart/rc_uart.c **** 	T_E_RC_ERROR le_Status = E_RC_ERROR;
 193              		.loc 1 69 0
 194 001a 0123     		movs	r3, #1	@ tmp119,
 195 001c FB75     		strb	r3, [r7, #23]	@ tmp120, le_Status
 196              	@ drivers/rc_uart/rc_uart.c:72: 	while (lul_TotalBytesTransmitted < lul_Length)
  70:drivers/rc_uart/rc_uart.c **** 
  71:drivers/rc_uart/rc_uart.c **** 	/* Transmit data available in buffer */
  72:drivers/rc_uart/rc_uart.c **** 	while (lul_TotalBytesTransmitted < lul_Length)
 197              		.loc 1 72 0
 198 001e 1DE0     		b	.L4	@
 199              	.L7:
 200              	@ drivers/rc_uart/rc_uart.c:74: 		lul_BytesRemaining = lul_Length-lul_TotalBytesTransmitted;
  73:drivers/rc_uart/rc_uart.c **** 	{
  74:drivers/rc_uart/rc_uart.c **** 		lul_BytesRemaining = lul_Length-lul_TotalBytesTransmitted;
 201              		.loc 1 74 0
 202 0020 7A68     		ldr	r2, [r7, #4]	@ tmp122, lul_Length
 203 0022 BB69     		ldr	r3, [r7, #24]	@ tmp123, lul_TotalBytesTransmitted
 204 0024 D31A     		subs	r3, r2, r3	@ tmp121, tmp122, tmp123
 205 0026 3B61     		str	r3, [r7, #16]	@ tmp121, lul_BytesRemaining
 206              	@ drivers/rc_uart/rc_uart.c:76: 		if(lul_BytesRemaining > RCUART_FIFO_BUFFER_SIZE)
  75:drivers/rc_uart/rc_uart.c **** 		/* Send segments of 16 bytes */
  76:drivers/rc_uart/rc_uart.c **** 		if(lul_BytesRemaining > RCUART_FIFO_BUFFER_SIZE)
 207              		.loc 1 76 0
 208 0028 3B69     		ldr	r3, [r7, #16]	@ tmp124, lul_BytesRemaining
 209 002a 102B     		cmp	r3, #16	@ tmp124,
ARM GAS  /tmp/ccUdv9tt.s 			page 6


 210 002c 09D9     		bls	.L5	@,
 211              	@ drivers/rc_uart/rc_uart.c:78: 			lul_BytesTransmitted = UART_Send(ps_Port, &lub_UART_TxBuffer[lul
  77:drivers/rc_uart/rc_uart.c **** 		{
  78:drivers/rc_uart/rc_uart.c **** 			lul_BytesTransmitted = UART_Send(ps_Port, &lub_UART_TxBuffer[lul_TotalBytesTransmitted], RCUART_
 212              		.loc 1 78 0
 213 002e BA68     		ldr	r2, [r7, #8]	@ tmp125, lub_UART_TxBuffer
 214 0030 BB69     		ldr	r3, [r7, #24]	@ tmp126, lul_TotalBytesTransmitted
 215 0032 D118     		adds	r1, r2, r3	@ _1, tmp125, tmp126
 216 0034 FB78     		ldrb	r3, [r7, #3]	@ zero_extendqisi2	@ tmp127, le_Transfer
 217 0036 1022     		movs	r2, #16	@,
 218 0038 F868     		ldr	r0, [r7, #12]	@, ps_Port
 219 003a FFF7FEFF 		bl	UART_Send	@
 220 003e F861     		str	r0, [r7, #28]	@, lul_BytesTransmitted
 221 0040 08E0     		b	.L6	@
 222              	.L5:
 223              	@ drivers/rc_uart/rc_uart.c:83: 			lul_BytesTransmitted = UART_Send(ps_Port, &lub_UART_TxBuffer[lul
  79:drivers/rc_uart/rc_uart.c **** 		}
  80:drivers/rc_uart/rc_uart.c **** 		/* Send last segment */
  81:drivers/rc_uart/rc_uart.c **** 		else
  82:drivers/rc_uart/rc_uart.c **** 		{
  83:drivers/rc_uart/rc_uart.c **** 			lul_BytesTransmitted = UART_Send(ps_Port, &lub_UART_TxBuffer[lul_TotalBytesTransmitted], lul_Byt
 224              		.loc 1 83 0
 225 0042 BA68     		ldr	r2, [r7, #8]	@ tmp128, lub_UART_TxBuffer
 226 0044 BB69     		ldr	r3, [r7, #24]	@ tmp129, lul_TotalBytesTransmitted
 227 0046 D118     		adds	r1, r2, r3	@ _2, tmp128, tmp129
 228 0048 FB78     		ldrb	r3, [r7, #3]	@ zero_extendqisi2	@ tmp130, le_Transfer
 229 004a 3A69     		ldr	r2, [r7, #16]	@, lul_BytesRemaining
 230 004c F868     		ldr	r0, [r7, #12]	@, ps_Port
 231 004e FFF7FEFF 		bl	UART_Send	@
 232 0052 F861     		str	r0, [r7, #28]	@, lul_BytesTransmitted
 233              	.L6:
 234              	@ drivers/rc_uart/rc_uart.c:86: 		lul_TotalBytesTransmitted += lul_BytesTransmitted;
  84:drivers/rc_uart/rc_uart.c **** 		}
  85:drivers/rc_uart/rc_uart.c **** 		/* Count transmitted bytes */
  86:drivers/rc_uart/rc_uart.c **** 		lul_TotalBytesTransmitted += lul_BytesTransmitted;
 235              		.loc 1 86 0
 236 0054 BA69     		ldr	r2, [r7, #24]	@ tmp132, lul_TotalBytesTransmitted
 237 0056 FB69     		ldr	r3, [r7, #28]	@ tmp133, lul_BytesTransmitted
 238 0058 1344     		add	r3, r3, r2	@ tmp131, tmp132
 239 005a BB61     		str	r3, [r7, #24]	@ tmp131, lul_TotalBytesTransmitted
 240              	.L4:
 241              	@ drivers/rc_uart/rc_uart.c:72: 	while (lul_TotalBytesTransmitted < lul_Length)
  72:drivers/rc_uart/rc_uart.c **** 	{
 242              		.loc 1 72 0
 243 005c BA69     		ldr	r2, [r7, #24]	@ tmp134, lul_TotalBytesTransmitted
 244 005e 7B68     		ldr	r3, [r7, #4]	@ tmp135, lul_Length
 245 0060 9A42     		cmp	r2, r3	@ tmp134, tmp135
 246 0062 DDD3     		bcc	.L7	@,
 247              	@ drivers/rc_uart/rc_uart.c:89: 	if (lul_TotalBytesTransmitted == lul_Length)
  87:drivers/rc_uart/rc_uart.c **** 	}
  88:drivers/rc_uart/rc_uart.c **** 	/* Check if all bytes were transmitted */
  89:drivers/rc_uart/rc_uart.c **** 	if (lul_TotalBytesTransmitted == lul_Length)
 248              		.loc 1 89 0
 249 0064 BA69     		ldr	r2, [r7, #24]	@ tmp136, lul_TotalBytesTransmitted
 250 0066 7B68     		ldr	r3, [r7, #4]	@ tmp137, lul_Length
 251 0068 9A42     		cmp	r2, r3	@ tmp136, tmp137
 252 006a 01D1     		bne	.L8	@,
ARM GAS  /tmp/ccUdv9tt.s 			page 7


 253              	@ drivers/rc_uart/rc_uart.c:91: 		le_Status = E_RC_SUCCESS;
  90:drivers/rc_uart/rc_uart.c **** 	{
  91:drivers/rc_uart/rc_uart.c **** 		le_Status = E_RC_SUCCESS;
 254              		.loc 1 91 0
 255 006c 0023     		movs	r3, #0	@ tmp138,
 256 006e FB75     		strb	r3, [r7, #23]	@ tmp139, le_Status
 257              	.L8:
 258              	@ drivers/rc_uart/rc_uart.c:93: 	return le_Status;
  92:drivers/rc_uart/rc_uart.c **** 	}
  93:drivers/rc_uart/rc_uart.c **** 	return le_Status;
 259              		.loc 1 93 0
 260 0070 FB7D     		ldrb	r3, [r7, #23]	@ zero_extendqisi2	@ _15, le_Status
 261              	@ drivers/rc_uart/rc_uart.c:94: }
  94:drivers/rc_uart/rc_uart.c **** }
 262              		.loc 1 94 0
 263 0072 1846     		mov	r0, r3	@, <retval>
 264 0074 2037     		adds	r7, r7, #32	@,,
 265              		.cfi_def_cfa_offset 8
 266 0076 BD46     		mov	sp, r7	@,
 267              		.cfi_def_cfa_register 13
 268              		@ sp needed	@
 269 0078 80BD     		pop	{r7, pc}	@
 270              		.cfi_endproc
 271              	.LFE57:
 272              		.size	rcuart_Send, .-rcuart_Send
 273              		.section	.text.rcuart_Receive,"ax",%progbits
 274              		.align	1
 275              		.global	rcuart_Receive
 276              		.syntax unified
 277              		.thumb
 278              		.thumb_func
 279              		.fpu softvfp
 280              		.type	rcuart_Receive, %function
 281              	rcuart_Receive:
 282              	.LFB58:
  95:drivers/rc_uart/rc_uart.c **** 
  96:drivers/rc_uart/rc_uart.c **** /**
  97:drivers/rc_uart/rc_uart.c ****  * \brief 	Receives a block of data from UART.
  98:drivers/rc_uart/rc_uart.c ****  * \param	ps_Port				Pointer to LPC_UARTx port structure
  99:drivers/rc_uart/rc_uart.c ****  * \param 	lub_UART_RxBuffer	buffer where data will be saved
 100:drivers/rc_uart/rc_uart.c ****  * \param	lul_Length			number of received bytes
 101:drivers/rc_uart/rc_uart.c ****  * \param	le_Transfer			Transfer type (Non Blocking or Blocking)
 102:drivers/rc_uart/rc_uart.c ****  * \return	Number of transferred bytes
 103:drivers/rc_uart/rc_uart.c ****  */
 104:drivers/rc_uart/rc_uart.c **** T_ULONG rcuart_Receive(T_RCUART_PORT *ps_Port, T_UBYTE *lub_UART_RxBuffer, T_ULONG lul_Length, T_E_
 105:drivers/rc_uart/rc_uart.c **** {
 283              		.loc 1 105 0
 284              		.cfi_startproc
 285              		@ args = 0, pretend = 0, frame = 16
 286              		@ frame_needed = 1, uses_anonymous_args = 0
 287 0000 80B5     		push	{r7, lr}	@
 288              		.cfi_def_cfa_offset 8
 289              		.cfi_offset 7, -8
 290              		.cfi_offset 14, -4
 291 0002 84B0     		sub	sp, sp, #16	@,,
 292              		.cfi_def_cfa_offset 24
 293 0004 00AF     		add	r7, sp, #0	@,,
ARM GAS  /tmp/ccUdv9tt.s 			page 8


 294              		.cfi_def_cfa_register 7
 295 0006 F860     		str	r0, [r7, #12]	@ ps_Port, ps_Port
 296 0008 B960     		str	r1, [r7, #8]	@ lub_UART_RxBuffer, lub_UART_RxBuffer
 297 000a 7A60     		str	r2, [r7, #4]	@ lul_Length, lul_Length
 298 000c FB70     		strb	r3, [r7, #3]	@ tmp113, le_Transfer
 299              	@ drivers/rc_uart/rc_uart.c:106: 	return UART_Receive(ps_Port, lub_UART_RxBuffer, lul_Length, (TRAN
 106:drivers/rc_uart/rc_uart.c **** 	return UART_Receive(ps_Port, lub_UART_RxBuffer, lul_Length, (TRANSFER_BLOCK_Type)le_Transfer);
 300              		.loc 1 106 0
 301 000e FB78     		ldrb	r3, [r7, #3]	@ zero_extendqisi2	@ tmp114, le_Transfer
 302 0010 7A68     		ldr	r2, [r7, #4]	@, lul_Length
 303 0012 B968     		ldr	r1, [r7, #8]	@, lub_UART_RxBuffer
 304 0014 F868     		ldr	r0, [r7, #12]	@, ps_Port
 305 0016 FFF7FEFF 		bl	UART_Receive	@
 306 001a 0346     		mov	r3, r0	@ _7,
 307              	@ drivers/rc_uart/rc_uart.c:107: }
 107:drivers/rc_uart/rc_uart.c **** }
 308              		.loc 1 107 0
 309 001c 1846     		mov	r0, r3	@, <retval>
 310 001e 1037     		adds	r7, r7, #16	@,,
 311              		.cfi_def_cfa_offset 8
 312 0020 BD46     		mov	sp, r7	@,
 313              		.cfi_def_cfa_register 13
 314              		@ sp needed	@
 315 0022 80BD     		pop	{r7, pc}	@
 316              		.cfi_endproc
 317              	.LFE58:
 318              		.size	rcuart_Receive, .-rcuart_Receive
 319              		.section	.text.rcuart_SetInterrupt,"ax",%progbits
 320              		.align	1
 321              		.global	rcuart_SetInterrupt
 322              		.syntax unified
 323              		.thumb
 324              		.thumb_func
 325              		.fpu softvfp
 326              		.type	rcuart_SetInterrupt, %function
 327              	rcuart_SetInterrupt:
 328              	.LFB59:
 108:drivers/rc_uart/rc_uart.c **** 
 109:drivers/rc_uart/rc_uart.c **** /**
 110:drivers/rc_uart/rc_uart.c ****  * \brief 	Configures an interrupt on UART.
 111:drivers/rc_uart/rc_uart.c ****  * \param	ps_Port				Pointer to LPC_UARTx port structure
 112:drivers/rc_uart/rc_uart.c ****  * \param 	le_UART_IRQType		IRQ Type
 113:drivers/rc_uart/rc_uart.c ****  * \param	le_UART_IRQState	IRQ State
 114:drivers/rc_uart/rc_uart.c ****  * \return	none
 115:drivers/rc_uart/rc_uart.c ****  */
 116:drivers/rc_uart/rc_uart.c **** void rcuart_SetInterrupt(T_RCUART_PORT *ps_Port, T_E_RCUART_IRQ le_UART_IRQType, T_E_RC_ENABLE le_U
 117:drivers/rc_uart/rc_uart.c **** {
 329              		.loc 1 117 0
 330              		.cfi_startproc
 331              		@ args = 0, pretend = 0, frame = 8
 332              		@ frame_needed = 1, uses_anonymous_args = 0
 333 0000 80B5     		push	{r7, lr}	@
 334              		.cfi_def_cfa_offset 8
 335              		.cfi_offset 7, -8
 336              		.cfi_offset 14, -4
 337 0002 82B0     		sub	sp, sp, #8	@,,
 338              		.cfi_def_cfa_offset 16
ARM GAS  /tmp/ccUdv9tt.s 			page 9


 339 0004 00AF     		add	r7, sp, #0	@,,
 340              		.cfi_def_cfa_register 7
 341 0006 7860     		str	r0, [r7, #4]	@ ps_Port, ps_Port
 342 0008 0B46     		mov	r3, r1	@ tmp110, le_UART_IRQType
 343 000a FB70     		strb	r3, [r7, #3]	@ tmp111, le_UART_IRQType
 344 000c 1346     		mov	r3, r2	@ tmp113, tmp112
 345 000e BB70     		strb	r3, [r7, #2]	@ tmp113, le_UART_IRQState
 346              	@ drivers/rc_uart/rc_uart.c:118: 	UART_IntConfig(ps_Port, (UART_INT_Type)le_UART_IRQType, (Function
 118:drivers/rc_uart/rc_uart.c **** 	UART_IntConfig(ps_Port, (UART_INT_Type)le_UART_IRQType, (FunctionalState)le_UART_IRQState);
 347              		.loc 1 118 0
 348 0010 BA78     		ldrb	r2, [r7, #2]	@ zero_extendqisi2	@ tmp114, le_UART_IRQState
 349 0012 FB78     		ldrb	r3, [r7, #3]	@ zero_extendqisi2	@ tmp115, le_UART_IRQType
 350 0014 1946     		mov	r1, r3	@, tmp115
 351 0016 7868     		ldr	r0, [r7, #4]	@, ps_Port
 352 0018 FFF7FEFF 		bl	UART_IntConfig	@
 353              	@ drivers/rc_uart/rc_uart.c:119: }
 119:drivers/rc_uart/rc_uart.c **** }
 354              		.loc 1 119 0
 355 001c 00BF     		nop
 356 001e 0837     		adds	r7, r7, #8	@,,
 357              		.cfi_def_cfa_offset 8
 358 0020 BD46     		mov	sp, r7	@,
 359              		.cfi_def_cfa_register 13
 360              		@ sp needed	@
 361 0022 80BD     		pop	{r7, pc}	@
 362              		.cfi_endproc
 363              	.LFE59:
 364              		.size	rcuart_SetInterrupt, .-rcuart_SetInterrupt
 365              		.section	.text.rcuart_TxState,"ax",%progbits
 366              		.align	1
 367              		.global	rcuart_TxState
 368              		.syntax unified
 369              		.thumb
 370              		.thumb_func
 371              		.fpu softvfp
 372              		.type	rcuart_TxState, %function
 373              	rcuart_TxState:
 374              	.LFB60:
 120:drivers/rc_uart/rc_uart.c **** 
 121:drivers/rc_uart/rc_uart.c **** /**
 122:drivers/rc_uart/rc_uart.c ****  * \brief 	Configures UART Transmit state.
 123:drivers/rc_uart/rc_uart.c ****  * \param	ps_Port		Pointer to LPC_UARTx port structure
 124:drivers/rc_uart/rc_uart.c ****  * \param	le_TxState	New transmit state
 125:drivers/rc_uart/rc_uart.c ****  * \return	none
 126:drivers/rc_uart/rc_uart.c ****  */
 127:drivers/rc_uart/rc_uart.c **** void rcuart_TxState(T_RCUART_PORT *ps_Port, T_E_RC_ENABLE le_TxState)
 128:drivers/rc_uart/rc_uart.c **** {
 375              		.loc 1 128 0
 376              		.cfi_startproc
 377              		@ args = 0, pretend = 0, frame = 8
 378              		@ frame_needed = 1, uses_anonymous_args = 0
 379 0000 80B5     		push	{r7, lr}	@
 380              		.cfi_def_cfa_offset 8
 381              		.cfi_offset 7, -8
 382              		.cfi_offset 14, -4
 383 0002 82B0     		sub	sp, sp, #8	@,,
 384              		.cfi_def_cfa_offset 16
ARM GAS  /tmp/ccUdv9tt.s 			page 10


 385 0004 00AF     		add	r7, sp, #0	@,,
 386              		.cfi_def_cfa_register 7
 387 0006 7860     		str	r0, [r7, #4]	@ ps_Port, ps_Port
 388 0008 0B46     		mov	r3, r1	@ tmp110, le_TxState
 389 000a FB70     		strb	r3, [r7, #3]	@ tmp111, le_TxState
 390              	@ drivers/rc_uart/rc_uart.c:129: 	UART_TxCmd(ps_Port, (FunctionalState)le_TxState);
 129:drivers/rc_uart/rc_uart.c **** 	UART_TxCmd(ps_Port, (FunctionalState)le_TxState);
 391              		.loc 1 129 0
 392 000c FB78     		ldrb	r3, [r7, #3]	@ zero_extendqisi2	@ tmp112, le_TxState
 393 000e 1946     		mov	r1, r3	@, tmp112
 394 0010 7868     		ldr	r0, [r7, #4]	@, ps_Port
 395 0012 FFF7FEFF 		bl	UART_TxCmd	@
 396              	@ drivers/rc_uart/rc_uart.c:130: }
 130:drivers/rc_uart/rc_uart.c **** }
 397              		.loc 1 130 0
 398 0016 00BF     		nop
 399 0018 0837     		adds	r7, r7, #8	@,,
 400              		.cfi_def_cfa_offset 8
 401 001a BD46     		mov	sp, r7	@,
 402              		.cfi_def_cfa_register 13
 403              		@ sp needed	@
 404 001c 80BD     		pop	{r7, pc}	@
 405              		.cfi_endproc
 406              	.LFE60:
 407              		.size	rcuart_TxState, .-rcuart_TxState
 408              		.section	.text.rcuart_SetCallback_Function,"ax",%progbits
 409              		.align	1
 410              		.global	rcuart_SetCallback_Function
 411              		.syntax unified
 412              		.thumb
 413              		.thumb_func
 414              		.fpu softvfp
 415              		.type	rcuart_SetCallback_Function, %function
 416              	rcuart_SetCallback_Function:
 417              	.LFB61:
 131:drivers/rc_uart/rc_uart.c **** 
 132:drivers/rc_uart/rc_uart.c **** /**
 133:drivers/rc_uart/rc_uart.c ****  * \brief 	Configures callback functions.
 134:drivers/rc_uart/rc_uart.c ****  * \param	ps_Port				Pointer to LPC_UARTx port structure
 135:drivers/rc_uart/rc_uart.c ****  * \param	le_CBFunctionType	Callback function type
 136:drivers/rc_uart/rc_uart.c ****  * \param	pv_Function			Pointer to callback function
 137:drivers/rc_uart/rc_uart.c ****  * \return	none
 138:drivers/rc_uart/rc_uart.c ****  */
 139:drivers/rc_uart/rc_uart.c **** void rcuart_SetCallback_Function(T_RCUART_PORT *ps_Port, T_E_RCUART_CB_FCT le_CBFunctionType, void 
 140:drivers/rc_uart/rc_uart.c **** {
 418              		.loc 1 140 0
 419              		.cfi_startproc
 420              		@ args = 0, pretend = 0, frame = 16
 421              		@ frame_needed = 1, uses_anonymous_args = 0
 422 0000 80B5     		push	{r7, lr}	@
 423              		.cfi_def_cfa_offset 8
 424              		.cfi_offset 7, -8
 425              		.cfi_offset 14, -4
 426 0002 84B0     		sub	sp, sp, #16	@,,
 427              		.cfi_def_cfa_offset 24
 428 0004 00AF     		add	r7, sp, #0	@,,
 429              		.cfi_def_cfa_register 7
ARM GAS  /tmp/ccUdv9tt.s 			page 11


 430 0006 F860     		str	r0, [r7, #12]	@ ps_Port, ps_Port
 431 0008 0B46     		mov	r3, r1	@ tmp110, le_CBFunctionType
 432 000a 7A60     		str	r2, [r7, #4]	@ pv_Function, pv_Function
 433 000c FB72     		strb	r3, [r7, #11]	@ tmp111, le_CBFunctionType
 434              	@ drivers/rc_uart/rc_uart.c:141: 	UART_SetupCbs(ps_Port, (T_UBYTE)le_CBFunctionType, pv_Function);
 141:drivers/rc_uart/rc_uart.c **** 	UART_SetupCbs(ps_Port, (T_UBYTE)le_CBFunctionType, pv_Function);
 435              		.loc 1 141 0
 436 000e FB7A     		ldrb	r3, [r7, #11]	@ zero_extendqisi2	@ tmp112, le_CBFunctionType
 437 0010 7A68     		ldr	r2, [r7, #4]	@, pv_Function
 438 0012 1946     		mov	r1, r3	@, tmp112
 439 0014 F868     		ldr	r0, [r7, #12]	@, ps_Port
 440 0016 FFF7FEFF 		bl	UART_SetupCbs	@
 441              	@ drivers/rc_uart/rc_uart.c:142: }
 142:drivers/rc_uart/rc_uart.c **** }
 442              		.loc 1 142 0
 443 001a 00BF     		nop
 444 001c 1037     		adds	r7, r7, #16	@,,
 445              		.cfi_def_cfa_offset 8
 446 001e BD46     		mov	sp, r7	@,
 447              		.cfi_def_cfa_register 13
 448              		@ sp needed	@
 449 0020 80BD     		pop	{r7, pc}	@
 450              		.cfi_endproc
 451              	.LFE61:
 452              		.size	rcuart_SetCallback_Function, .-rcuart_SetCallback_Function
 453              		.section	.text.rcuart_PORT0_IRQHandler,"ax",%progbits
 454              		.align	1
 455              		.global	rcuart_PORT0_IRQHandler
 456              		.syntax unified
 457              		.thumb
 458              		.thumb_func
 459              		.fpu softvfp
 460              		.type	rcuart_PORT0_IRQHandler, %function
 461              	rcuart_PORT0_IRQHandler:
 462              	.LFB62:
 143:drivers/rc_uart/rc_uart.c **** 
 144:drivers/rc_uart/rc_uart.c **** /**
 145:drivers/rc_uart/rc_uart.c ****  * \brief 	Standard UART0 IRQHandler
 146:drivers/rc_uart/rc_uart.c ****  * \return	none
 147:drivers/rc_uart/rc_uart.c ****  */
 148:drivers/rc_uart/rc_uart.c **** void rcuart_PORT0_IRQHandler(void)
 149:drivers/rc_uart/rc_uart.c **** {
 463              		.loc 1 149 0
 464              		.cfi_startproc
 465              		@ args = 0, pretend = 0, frame = 0
 466              		@ frame_needed = 1, uses_anonymous_args = 0
 467 0000 80B5     		push	{r7, lr}	@
 468              		.cfi_def_cfa_offset 8
 469              		.cfi_offset 7, -8
 470              		.cfi_offset 14, -4
 471 0002 00AF     		add	r7, sp, #0	@,,
 472              		.cfi_def_cfa_register 7
 473              	@ drivers/rc_uart/rc_uart.c:150: 	UART0_StdIntHandler();
 150:drivers/rc_uart/rc_uart.c **** 	UART0_StdIntHandler();
 474              		.loc 1 150 0
 475 0004 FFF7FEFF 		bl	UART0_StdIntHandler	@
 476              	@ drivers/rc_uart/rc_uart.c:151: }
ARM GAS  /tmp/ccUdv9tt.s 			page 12


 151:drivers/rc_uart/rc_uart.c **** }
 477              		.loc 1 151 0
 478 0008 00BF     		nop
 479 000a 80BD     		pop	{r7, pc}	@
 480              		.cfi_endproc
 481              	.LFE62:
 482              		.size	rcuart_PORT0_IRQHandler, .-rcuart_PORT0_IRQHandler
 483              		.section	.text.rcuart_PORT1_IRQHandler,"ax",%progbits
 484              		.align	1
 485              		.global	rcuart_PORT1_IRQHandler
 486              		.syntax unified
 487              		.thumb
 488              		.thumb_func
 489              		.fpu softvfp
 490              		.type	rcuart_PORT1_IRQHandler, %function
 491              	rcuart_PORT1_IRQHandler:
 492              	.LFB63:
 152:drivers/rc_uart/rc_uart.c **** 
 153:drivers/rc_uart/rc_uart.c **** /**
 154:drivers/rc_uart/rc_uart.c ****  * \brief 	Standard UART1 IRQHandler
 155:drivers/rc_uart/rc_uart.c ****  * \return	none
 156:drivers/rc_uart/rc_uart.c ****  */
 157:drivers/rc_uart/rc_uart.c **** void rcuart_PORT1_IRQHandler(void)
 158:drivers/rc_uart/rc_uart.c **** {
 493              		.loc 1 158 0
 494              		.cfi_startproc
 495              		@ args = 0, pretend = 0, frame = 0
 496              		@ frame_needed = 1, uses_anonymous_args = 0
 497 0000 80B5     		push	{r7, lr}	@
 498              		.cfi_def_cfa_offset 8
 499              		.cfi_offset 7, -8
 500              		.cfi_offset 14, -4
 501 0002 00AF     		add	r7, sp, #0	@,,
 502              		.cfi_def_cfa_register 7
 503              	@ drivers/rc_uart/rc_uart.c:159: 	UART1_StdIntHandler();
 159:drivers/rc_uart/rc_uart.c **** 	UART1_StdIntHandler();
 504              		.loc 1 159 0
 505 0004 FFF7FEFF 		bl	UART1_StdIntHandler	@
 506              	@ drivers/rc_uart/rc_uart.c:160: }
 160:drivers/rc_uart/rc_uart.c **** }
 507              		.loc 1 160 0
 508 0008 00BF     		nop
 509 000a 80BD     		pop	{r7, pc}	@
 510              		.cfi_endproc
 511              	.LFE63:
 512              		.size	rcuart_PORT1_IRQHandler, .-rcuart_PORT1_IRQHandler
 513              		.section	.text.rcuart_PORT2_IRQHandler,"ax",%progbits
 514              		.align	1
 515              		.global	rcuart_PORT2_IRQHandler
 516              		.syntax unified
 517              		.thumb
 518              		.thumb_func
 519              		.fpu softvfp
 520              		.type	rcuart_PORT2_IRQHandler, %function
 521              	rcuart_PORT2_IRQHandler:
 522              	.LFB64:
 161:drivers/rc_uart/rc_uart.c **** 
ARM GAS  /tmp/ccUdv9tt.s 			page 13


 162:drivers/rc_uart/rc_uart.c **** /**
 163:drivers/rc_uart/rc_uart.c ****  * \brief 	Standard UART2 IRQHandler
 164:drivers/rc_uart/rc_uart.c ****  * \return	none
 165:drivers/rc_uart/rc_uart.c ****  */
 166:drivers/rc_uart/rc_uart.c **** void rcuart_PORT2_IRQHandler(void)
 167:drivers/rc_uart/rc_uart.c **** {
 523              		.loc 1 167 0
 524              		.cfi_startproc
 525              		@ args = 0, pretend = 0, frame = 0
 526              		@ frame_needed = 1, uses_anonymous_args = 0
 527 0000 80B5     		push	{r7, lr}	@
 528              		.cfi_def_cfa_offset 8
 529              		.cfi_offset 7, -8
 530              		.cfi_offset 14, -4
 531 0002 00AF     		add	r7, sp, #0	@,,
 532              		.cfi_def_cfa_register 7
 533              	@ drivers/rc_uart/rc_uart.c:168: 	UART2_StdIntHandler();
 168:drivers/rc_uart/rc_uart.c **** 	UART2_StdIntHandler();
 534              		.loc 1 168 0
 535 0004 FFF7FEFF 		bl	UART2_StdIntHandler	@
 536              	@ drivers/rc_uart/rc_uart.c:169: }
 169:drivers/rc_uart/rc_uart.c **** }
 537              		.loc 1 169 0
 538 0008 00BF     		nop
 539 000a 80BD     		pop	{r7, pc}	@
 540              		.cfi_endproc
 541              	.LFE64:
 542              		.size	rcuart_PORT2_IRQHandler, .-rcuart_PORT2_IRQHandler
 543              		.section	.text.rcuart_PORT3_IRQHandler,"ax",%progbits
 544              		.align	1
 545              		.global	rcuart_PORT3_IRQHandler
 546              		.syntax unified
 547              		.thumb
 548              		.thumb_func
 549              		.fpu softvfp
 550              		.type	rcuart_PORT3_IRQHandler, %function
 551              	rcuart_PORT3_IRQHandler:
 552              	.LFB65:
 170:drivers/rc_uart/rc_uart.c **** 
 171:drivers/rc_uart/rc_uart.c **** /**
 172:drivers/rc_uart/rc_uart.c ****  * \brief 	Standard UART3 IRQHandler
 173:drivers/rc_uart/rc_uart.c ****  * \return	none
 174:drivers/rc_uart/rc_uart.c ****  */
 175:drivers/rc_uart/rc_uart.c **** void rcuart_PORT3_IRQHandler(void)
 176:drivers/rc_uart/rc_uart.c **** {
 553              		.loc 1 176 0
 554              		.cfi_startproc
 555              		@ args = 0, pretend = 0, frame = 0
 556              		@ frame_needed = 1, uses_anonymous_args = 0
 557 0000 80B5     		push	{r7, lr}	@
 558              		.cfi_def_cfa_offset 8
 559              		.cfi_offset 7, -8
 560              		.cfi_offset 14, -4
 561 0002 00AF     		add	r7, sp, #0	@,,
 562              		.cfi_def_cfa_register 7
 563              	@ drivers/rc_uart/rc_uart.c:177: 	UART3_StdIntHandler();
 177:drivers/rc_uart/rc_uart.c **** 	UART3_StdIntHandler();
ARM GAS  /tmp/ccUdv9tt.s 			page 14


 564              		.loc 1 177 0
 565 0004 FFF7FEFF 		bl	UART3_StdIntHandler	@
 566              	@ drivers/rc_uart/rc_uart.c:178: }
 178:drivers/rc_uart/rc_uart.c **** }
 567              		.loc 1 178 0
 568 0008 00BF     		nop
 569 000a 80BD     		pop	{r7, pc}	@
 570              		.cfi_endproc
 571              	.LFE65:
 572              		.size	rcuart_PORT3_IRQHandler, .-rcuart_PORT3_IRQHandler
 573              		.text
 574              	.Letext0:
 575              		.file 2 "/usr/arm-none-eabi/include/machine/_default_types.h"
 576              		.file 3 "/usr/arm-none-eabi/include/sys/_stdint.h"
 577              		.file 4 "system/core_cm3.h"
 578              		.file 5 "system/system_LPC17xx.h"
 579              		.file 6 "system/LPC17xx.h"
 580              		.file 7 "core/lpc_types.h"
 581              		.file 8 "config/rc_stdtypedefs.h"
 582              		.file 9 "core/lpc17xx_uart.h"
 583              		.file 10 "drivers/rc_uart/rc_uart.h"