ARM GAS  C:\Users\STUDENT\AppData\Local\Temp\ccDEhX6s.s 			page 1


   1              		.syntax unified
   2              		.cpu cortex-m3
   3              		.fpu softvfp
   4              		.eabi_attribute 20, 1	@ Tag_ABI_FP_denormal
   5              		.eabi_attribute 21, 1	@ Tag_ABI_FP_exceptions
   6              		.eabi_attribute 23, 3	@ Tag_ABI_FP_number_model
   7              		.eabi_attribute 24, 1	@ Tag_ABI_align8_needed
   8              		.eabi_attribute 25, 1	@ Tag_ABI_align8_preserved
   9              		.eabi_attribute 26, 1	@ Tag_ABI_enum_size
  10              		.eabi_attribute 30, 6	@ Tag_ABI_optimization_goals
  11              		.eabi_attribute 34, 1	@ Tag_CPU_unaligned_access
  12              		.eabi_attribute 18, 4	@ Tag_ABI_PCS_wchar_t
  13              		.file	"startup_LPC17xx.c"
  14              	@ GNU C89 (GNU Tools for ARM Embedded Processors) version 5.4.1 20160919 (release) [ARM/embedded-5-
  15              	@	compiled by GNU C version 4.7.4, GMP version 4.3.2, MPFR version 2.4.2, MPC version 0.8.1
  16              	@ GGC heuristics: --param ggc-min-expand=100 --param ggc-min-heapsize=131072
  17              	@ options passed:  -I . -I config -I system -I core -I drivers -I FreeRTOS
  18              	@ -I FreeRTOS/include -I FreeRTOS/portable/GCC/ARM_CM3 -I FreeRTOS/portable
  19              	@ -I tasks/rc_task_leds -I tasks/rc_task_xbee -I modules/rc_leds
  20              	@ -I modules/rc_xbee -I modules/rc_scheduler -I drivers/rc_system
  21              	@ -I drivers/rc_gpio -I drivers/rc_uart -I drivers/rc_pinsel
  22              	@ -I drivers/rc_timer -I drivers/rc_adc -imultilib armv7-m
  23              	@ -iprefix c:\program files (x86)\gnu tools arm embedded\5.4 2016q3\bin\../lib/gcc/arm-none-eabi/5.
  24              	@ -isysroot c:\program files (x86)\gnu tools arm embedded\5.4 2016q3\bin\../arm-none-eabi
  25              	@ -MD out/startup_LPC17xx.d -MF out/startup_LPC17xx.d -MP
  26              	@ -MQ out/startup_LPC17xx.o -D__USES_INITFINI__ system/startup_LPC17xx.c
  27              	@ -mcpu=cortex-m3 -mthumb -auxbase-strip out/startup_LPC17xx.o -g -ggdb3
  28              	@ -O0 -Wall -Wstrict-prototypes -Wextra -std=gnu90 -ffunction-sections
  29              	@ -fdata-sections -fverbose-asm
  30              	@ options enabled:  -faggressive-loop-optimizations -fauto-inc-dec
  31              	@ -fchkp-check-incomplete-type -fchkp-check-read -fchkp-check-write
  32              	@ -fchkp-instrument-calls -fchkp-narrow-bounds -fchkp-optimize
  33              	@ -fchkp-store-bounds -fchkp-use-static-bounds
  34              	@ -fchkp-use-static-const-bounds -fchkp-use-wrappers -fcommon
  35              	@ -fdata-sections -fdelete-null-pointer-checks -fdwarf2-cfi-asm
  36              	@ -fearly-inlining -feliminate-unused-debug-types -ffunction-cse
  37              	@ -ffunction-sections -fgcse-lm -fgnu-runtime -fgnu-unique -fident
  38              	@ -finline-atomics -fira-hoist-pressure -fira-share-save-slots
  39              	@ -fira-share-spill-slots -fivopts -fkeep-static-consts
  40              	@ -fleading-underscore -flifetime-dse -flto-odr-type-merging -fmath-errno
  41              	@ -fmerge-debug-strings -fpeephole -fprefetch-loop-arrays
  42              	@ -freg-struct-return -fsched-critical-path-heuristic
  43              	@ -fsched-dep-count-heuristic -fsched-group-heuristic -fsched-interblock
  44              	@ -fsched-last-insn-heuristic -fsched-rank-heuristic -fsched-spec
  45              	@ -fsched-spec-insn-heuristic -fsched-stalled-insns-dep
  46              	@ -fsemantic-interposition -fshow-column -fsigned-zeros
  47              	@ -fsplit-ivs-in-unroller -fstdarg-opt -fstrict-volatile-bitfields
  48              	@ -fsync-libcalls -ftrapping-math -ftree-coalesce-vars -ftree-cselim
  49              	@ -ftree-forwprop -ftree-loop-if-convert -ftree-loop-im -ftree-loop-ivcanon
  50              	@ -ftree-loop-optimize -ftree-parallelize-loops= -ftree-phiprop
  51              	@ -ftree-reassoc -ftree-scev-cprop -funit-at-a-time -fverbose-asm
  52              	@ -fzero-initialized-in-bss -masm-syntax-unified -mfix-cortex-m3-ldrd
  53              	@ -mlittle-endian -mpic-data-is-text-relative -msched-prolog -mthumb
  54              	@ -munaligned-access -mvectorize-with-neon-quad
  55              	
  56              		.text
  57              	.Ltext0:
ARM GAS  C:\Users\STUDENT\AppData\Local\Temp\ccDEhX6s.s 			page 2


  58              		.cfi_sections	.debug_frame
  59              		.global	g_pfnVectors
  60              		.section	.isr_vector,"a",%progbits
  61              		.align	2
  62              		.type	g_pfnVectors, %object
  63              		.size	g_pfnVectors, 204
  64              	g_pfnVectors:
  65 0000 00000000 		.word	_estack
  66 0004 00000000 		.word	Reset_Handler
  67 0008 00000000 		.word	NMI_Handler
  68 000c 00000000 		.word	HardFault_Handler
  69 0010 00000000 		.word	MemManage_Handler
  70 0014 00000000 		.word	BusFault_Handler
  71 0018 00000000 		.word	UsageFault_Handler
  72 001c 00000000 		.word	0
  73 0020 00000000 		.word	0
  74 0024 00000000 		.word	0
  75 0028 00000000 		.word	0
  76 002c 00000000 		.word	vPortSVCHandler
  77 0030 00000000 		.word	DebugMon_Handler
  78 0034 00000000 		.word	0
  79 0038 00000000 		.word	xPortPendSVHandler
  80 003c 00000000 		.word	xPortSysTickHandler
  81 0040 00000000 		.word	WDT_IRQHandler
  82 0044 00000000 		.word	rcscheduler_Timer0_IRQHandler
  83 0048 00000000 		.word	TIMER1_IRQHandler
  84 004c 00000000 		.word	TIMER2_IRQHandler
  85 0050 00000000 		.word	TIMER3_IRQHandler
  86 0054 00000000 		.word	UART0_IRQHandler
  87 0058 00000000 		.word	rcuart_PORT1_IRQHandler
  88 005c 00000000 		.word	UART2_IRQHandler
  89 0060 00000000 		.word	UART3_IRQHandler
  90 0064 00000000 		.word	PWM1_IRQHandler
  91 0068 00000000 		.word	I2C0_IRQHandler
  92 006c 00000000 		.word	I2C1_IRQHandler
  93 0070 00000000 		.word	I2C2_IRQHandler
  94 0074 00000000 		.word	SPI_IRQHandler
  95 0078 00000000 		.word	SSP0_IRQHandler
  96 007c 00000000 		.word	SSP1_IRQHandler
  97 0080 00000000 		.word	PLL0_IRQHandler
  98 0084 00000000 		.word	RTC_IRQHandler
  99 0088 00000000 		.word	EINT0_IRQHandler
 100 008c 00000000 		.word	EINT1_IRQHandler
 101 0090 00000000 		.word	EINT2_IRQHandler
 102 0094 00000000 		.word	EINT3_IRQHandler
 103 0098 00000000 		.word	ADC_IRQHandler
 104 009c 00000000 		.word	BOD_IRQHandler
 105 00a0 00000000 		.word	USB_IRQHandler
 106 00a4 00000000 		.word	CAN_IRQHandler
 107 00a8 00000000 		.word	DMA_IRQHandler
 108 00ac 00000000 		.word	I2S_IRQHandler
 109 00b0 00000000 		.word	ENET_IRQHandler
 110 00b4 00000000 		.word	RIT_IRQHandler
 111 00b8 00000000 		.word	MCPWM_IRQHandler
 112 00bc 00000000 		.word	QEI_IRQHandler
 113 00c0 00000000 		.word	PLL1_IRQHandler
 114 00c4 00000000 		.word	USBActivity_IRQHandler
ARM GAS  C:\Users\STUDENT\AppData\Local\Temp\ccDEhX6s.s 			page 3


 115 00c8 00000000 		.word	CANActivity_IRQHandler
 116              		.section	.text.Reset_Handler,"ax",%progbits
 117              		.align	2
 118              		.weak	Reset_Handler
 119              		.thumb
 120              		.thumb_func
 121              		.type	Reset_Handler, %function
 122              	Reset_Handler:
 123              	.LFB0:
 124              		.file 1 "system/startup_LPC17xx.c"
   1:system/startup_LPC17xx.c **** //$Id: startup_LPC17xx.c 1269 2011-07-22 22:51:08Z tk $
   2:system/startup_LPC17xx.c **** /**
   3:system/startup_LPC17xx.c ****  ******************************************************************************
   4:system/startup_LPC17xx.c ****  * @file      startup_LPC17xx.c
   5:system/startup_LPC17xx.c ****  ******************************************************************************
   6:system/startup_LPC17xx.c ****  */
   7:system/startup_LPC17xx.c **** 
   8:system/startup_LPC17xx.c **** #define STARTUP_FREERTOS	1
   9:system/startup_LPC17xx.c **** 
  10:system/startup_LPC17xx.c **** /* Includes ------------------------------------------------------------------*/
  11:system/startup_LPC17xx.c **** /* Private typedef -----------------------------------------------------------*/
  12:system/startup_LPC17xx.c **** typedef void( *const intfunc )( void );
  13:system/startup_LPC17xx.c **** 
  14:system/startup_LPC17xx.c **** /* Private define ------------------------------------------------------------*/
  15:system/startup_LPC17xx.c **** #define WEAK __attribute__ ((weak))
  16:system/startup_LPC17xx.c **** #define ALIAS(f) __attribute__ ((weak, alias (#f)))
  17:system/startup_LPC17xx.c **** 
  18:system/startup_LPC17xx.c **** /* Private macro -------------------------------------------------------------*/
  19:system/startup_LPC17xx.c **** //extern unsigned long _etext;
  20:system/startup_LPC17xx.c **** /* start address for the initialization values of the .data section.
  21:system/startup_LPC17xx.c **** defined in linker script */
  22:system/startup_LPC17xx.c **** extern unsigned long _sidata;
  23:system/startup_LPC17xx.c **** 
  24:system/startup_LPC17xx.c **** /* start address for the .data section. defined in linker script */    
  25:system/startup_LPC17xx.c **** extern unsigned long _sdata;
  26:system/startup_LPC17xx.c **** 
  27:system/startup_LPC17xx.c **** /* end address for the .data section. defined in linker script */    
  28:system/startup_LPC17xx.c **** extern unsigned long _edata;
  29:system/startup_LPC17xx.c ****    
  30:system/startup_LPC17xx.c **** /* start address for the .bss section. defined in linker script */
  31:system/startup_LPC17xx.c **** extern unsigned long _sbss;
  32:system/startup_LPC17xx.c **** extern unsigned long _sbss_ahb;
  33:system/startup_LPC17xx.c **** 
  34:system/startup_LPC17xx.c **** /* end address for the .bss section. defined in linker script */      
  35:system/startup_LPC17xx.c **** extern unsigned long _ebss;  
  36:system/startup_LPC17xx.c **** extern unsigned long _ebss_ahb;  
  37:system/startup_LPC17xx.c ****    
  38:system/startup_LPC17xx.c **** /* init value for the stack pointer. defined in linker script */
  39:system/startup_LPC17xx.c **** extern unsigned long _estack;
  40:system/startup_LPC17xx.c **** 
  41:system/startup_LPC17xx.c **** /* Private variables ---------------------------------------------------------*/
  42:system/startup_LPC17xx.c **** /* Private function prototypes -----------------------------------------------*/
  43:system/startup_LPC17xx.c **** void Reset_Handler(void) __attribute__((__interrupt__));
  44:system/startup_LPC17xx.c **** extern int main(void);
  45:system/startup_LPC17xx.c **** extern void SystemInit(void);
  46:system/startup_LPC17xx.c **** //extern void __libc_init_array(void);  /* calls CTORS of static objects */
  47:system/startup_LPC17xx.c **** //void __Init_Data(void);
ARM GAS  C:\Users\STUDENT\AppData\Local\Temp\ccDEhX6s.s 			page 4


  48:system/startup_LPC17xx.c **** void _init(void);
  49:system/startup_LPC17xx.c **** 
  50:system/startup_LPC17xx.c **** // for FreeRTOS
  51:system/startup_LPC17xx.c **** #if STARTUP_FREERTOS
  52:system/startup_LPC17xx.c **** extern void xPortPendSVHandler(void);
  53:system/startup_LPC17xx.c **** extern void xPortSysTickHandler(void);
  54:system/startup_LPC17xx.c **** extern void vPortSVCHandler( void );
  55:system/startup_LPC17xx.c **** #endif
  56:system/startup_LPC17xx.c **** 
  57:system/startup_LPC17xx.c **** /******************************************************************************
  58:system/startup_LPC17xx.c **** *
  59:system/startup_LPC17xx.c **** * Forward declaration of the default fault handlers.
  60:system/startup_LPC17xx.c **** *
  61:system/startup_LPC17xx.c **** *******************************************************************************/
  62:system/startup_LPC17xx.c **** void WEAK Reset_Handler(void);
  63:system/startup_LPC17xx.c **** void WEAK NMI_Handler(void);
  64:system/startup_LPC17xx.c **** void WEAK HardFault_Handler(void);
  65:system/startup_LPC17xx.c **** void WEAK MemManage_Handler(void);
  66:system/startup_LPC17xx.c **** void WEAK BusFault_Handler(void);
  67:system/startup_LPC17xx.c **** void WEAK UsageFault_Handler(void);
  68:system/startup_LPC17xx.c **** void WEAK MemManage_Handler(void);
  69:system/startup_LPC17xx.c **** void WEAK SVC_Handler(void);
  70:system/startup_LPC17xx.c **** void WEAK DebugMon_Handler(void);
  71:system/startup_LPC17xx.c **** void WEAK PendSV_Handler(void);
  72:system/startup_LPC17xx.c **** void WEAK SysTick_Handler(void);
  73:system/startup_LPC17xx.c **** 
  74:system/startup_LPC17xx.c **** void WEAK Default_Handler(void);
  75:system/startup_LPC17xx.c **** 
  76:system/startup_LPC17xx.c **** /* External Interrupts */
  77:system/startup_LPC17xx.c **** void WDT_IRQHandler(void) ALIAS(Default_Handler);
  78:system/startup_LPC17xx.c **** void rcscheduler_Timer0_IRQHandler(void) ALIAS(Default_Handler);
  79:system/startup_LPC17xx.c **** void TIMER1_IRQHandler(void) ALIAS(Default_Handler);
  80:system/startup_LPC17xx.c **** void TIMER2_IRQHandler(void) ALIAS(Default_Handler);
  81:system/startup_LPC17xx.c **** void TIMER3_IRQHandler(void) ALIAS(Default_Handler);
  82:system/startup_LPC17xx.c **** void UART0_IRQHandler(void) ALIAS(Default_Handler);
  83:system/startup_LPC17xx.c **** void rcuart_PORT1_IRQHandler(void) ALIAS(Default_Handler);
  84:system/startup_LPC17xx.c **** void UART2_IRQHandler(void) ALIAS(Default_Handler);
  85:system/startup_LPC17xx.c **** void UART3_IRQHandler(void) ALIAS(Default_Handler);
  86:system/startup_LPC17xx.c **** void PWM1_IRQHandler(void) ALIAS(Default_Handler);
  87:system/startup_LPC17xx.c **** void I2C0_IRQHandler(void) ALIAS(Default_Handler);
  88:system/startup_LPC17xx.c **** void I2C1_IRQHandler(void) ALIAS(Default_Handler);
  89:system/startup_LPC17xx.c **** void I2C2_IRQHandler(void) ALIAS(Default_Handler);
  90:system/startup_LPC17xx.c **** void SPI_IRQHandler(void) ALIAS(Default_Handler);
  91:system/startup_LPC17xx.c **** void SSP0_IRQHandler(void) ALIAS(Default_Handler);
  92:system/startup_LPC17xx.c **** void SSP1_IRQHandler(void) ALIAS(Default_Handler);
  93:system/startup_LPC17xx.c **** void PLL0_IRQHandler(void) ALIAS(Default_Handler);
  94:system/startup_LPC17xx.c **** void RTC_IRQHandler(void) ALIAS(Default_Handler);
  95:system/startup_LPC17xx.c **** void EINT0_IRQHandler(void) ALIAS(Default_Handler);
  96:system/startup_LPC17xx.c **** void EINT1_IRQHandler(void) ALIAS(Default_Handler);
  97:system/startup_LPC17xx.c **** void EINT2_IRQHandler(void) ALIAS(Default_Handler);
  98:system/startup_LPC17xx.c **** void EINT3_IRQHandler(void) ALIAS(Default_Handler);
  99:system/startup_LPC17xx.c **** void ADC_IRQHandler(void) ALIAS(Default_Handler);
 100:system/startup_LPC17xx.c **** void BOD_IRQHandler(void) ALIAS(Default_Handler);
 101:system/startup_LPC17xx.c **** void USB_IRQHandler(void) ALIAS(Default_Handler);
 102:system/startup_LPC17xx.c **** void CAN_IRQHandler(void) ALIAS(Default_Handler);
 103:system/startup_LPC17xx.c **** void DMA_IRQHandler(void) ALIAS(Default_Handler);
 104:system/startup_LPC17xx.c **** void I2S_IRQHandler(void) ALIAS(Default_Handler);
ARM GAS  C:\Users\STUDENT\AppData\Local\Temp\ccDEhX6s.s 			page 5


 105:system/startup_LPC17xx.c **** void ENET_IRQHandler(void) ALIAS(Default_Handler);
 106:system/startup_LPC17xx.c **** void RIT_IRQHandler(void) ALIAS(Default_Handler);
 107:system/startup_LPC17xx.c **** void MCPWM_IRQHandler(void) ALIAS(Default_Handler);
 108:system/startup_LPC17xx.c **** void QEI_IRQHandler(void) ALIAS(Default_Handler);
 109:system/startup_LPC17xx.c **** void PLL1_IRQHandler(void) ALIAS(Default_Handler);
 110:system/startup_LPC17xx.c **** void USBActivity_IRQHandler(void) ALIAS(Default_Handler);
 111:system/startup_LPC17xx.c **** void CANActivity_IRQHandler(void) ALIAS(Default_Handler);
 112:system/startup_LPC17xx.c **** 
 113:system/startup_LPC17xx.c **** /* Private functions ---------------------------------------------------------*/
 114:system/startup_LPC17xx.c **** /******************************************************************************
 115:system/startup_LPC17xx.c **** *
 116:system/startup_LPC17xx.c **** * The minimal vector table for a Cortex M3.  Note that the proper constructs
 117:system/startup_LPC17xx.c **** * must be placed on this to ensure that it ends up at physical address
 118:system/startup_LPC17xx.c **** * 0x0000.0000.
 119:system/startup_LPC17xx.c **** *
 120:system/startup_LPC17xx.c **** ******************************************************************************/
 121:system/startup_LPC17xx.c **** 
 122:system/startup_LPC17xx.c **** __attribute__ ((section(".isr_vector")))
 123:system/startup_LPC17xx.c **** void (* const g_pfnVectors[])(void) =
 124:system/startup_LPC17xx.c **** {      
 125:system/startup_LPC17xx.c ****     (intfunc)((unsigned long)&_estack), /* The initial stack pointer */
 126:system/startup_LPC17xx.c ****     Reset_Handler,              /* Reset Handler */
 127:system/startup_LPC17xx.c ****     NMI_Handler,                /* NMI Handler */
 128:system/startup_LPC17xx.c ****     HardFault_Handler,          /* Hard Fault Handler */
 129:system/startup_LPC17xx.c ****     MemManage_Handler,          /* MPU Fault Handler */
 130:system/startup_LPC17xx.c ****     BusFault_Handler,           /* Bus Fault Handler */
 131:system/startup_LPC17xx.c ****     UsageFault_Handler,         /* Usage Fault Handler */
 132:system/startup_LPC17xx.c ****     0,                          /* Reserved */
 133:system/startup_LPC17xx.c ****     0,                          /* Reserved */
 134:system/startup_LPC17xx.c ****     0,                          /* Reserved */
 135:system/startup_LPC17xx.c ****     0,                          /* Reserved */
 136:system/startup_LPC17xx.c **** 
 137:system/startup_LPC17xx.c **** #if !STARTUP_FREERTOS
 138:system/startup_LPC17xx.c ****     SVC_Handler,                /* SVCall Handler */
 139:system/startup_LPC17xx.c **** #else
 140:system/startup_LPC17xx.c ****     // for FreeRTOS
 141:system/startup_LPC17xx.c ****     vPortSVCHandler,
 142:system/startup_LPC17xx.c **** #endif
 143:system/startup_LPC17xx.c **** 
 144:system/startup_LPC17xx.c ****     DebugMon_Handler,           /* Debug Monitor Handler */
 145:system/startup_LPC17xx.c ****     0,                          /* Reserved */
 146:system/startup_LPC17xx.c **** 
 147:system/startup_LPC17xx.c **** #if !STARTUP_FREERTOS
 148:system/startup_LPC17xx.c ****     PendSV_Handler,             /* PendSV Handler */
 149:system/startup_LPC17xx.c ****     SysTick_Handler,            /* SysTick Handler */
 150:system/startup_LPC17xx.c **** #else
 151:system/startup_LPC17xx.c ****     // for FreeRTOS
 152:system/startup_LPC17xx.c ****     xPortPendSVHandler,
 153:system/startup_LPC17xx.c ****     xPortSysTickHandler,
 154:system/startup_LPC17xx.c **** #endif
 155:system/startup_LPC17xx.c **** 
 156:system/startup_LPC17xx.c ****     /* External Interrupts */
 157:system/startup_LPC17xx.c ****     WDT_IRQHandler,                         // 16, 0x40 - WDT
 158:system/startup_LPC17xx.c **** 	rcscheduler_Timer0_IRQHandler,                      // 17, 0x44 - TIMER0
 159:system/startup_LPC17xx.c ****     TIMER1_IRQHandler,                      // 18, 0x48 - TIMER1
 160:system/startup_LPC17xx.c ****     TIMER2_IRQHandler,                      // 19, 0x4c - TIMER2
 161:system/startup_LPC17xx.c ****     TIMER3_IRQHandler,                      // 20, 0x50 - TIMER3
ARM GAS  C:\Users\STUDENT\AppData\Local\Temp\ccDEhX6s.s 			page 6


 162:system/startup_LPC17xx.c ****     UART0_IRQHandler,                       // 21, 0x54 - UART0
 163:system/startup_LPC17xx.c **** 	rcuart_PORT1_IRQHandler,                       // 22, 0x58 - UART1
 164:system/startup_LPC17xx.c ****     UART2_IRQHandler,                       // 23, 0x5c - UART2
 165:system/startup_LPC17xx.c ****     UART3_IRQHandler,                       // 24, 0x60 - UART3
 166:system/startup_LPC17xx.c ****     PWM1_IRQHandler,                        // 25, 0x64 - PWM1
 167:system/startup_LPC17xx.c ****     I2C0_IRQHandler,                        // 26, 0x68 - I2C0
 168:system/startup_LPC17xx.c ****     I2C1_IRQHandler,                        // 27, 0x6c - I2C1
 169:system/startup_LPC17xx.c ****     I2C2_IRQHandler,                        // 28, 0x70 - I2C2
 170:system/startup_LPC17xx.c ****     SPI_IRQHandler,                         // 29, 0x74 - SPI
 171:system/startup_LPC17xx.c ****     SSP0_IRQHandler,                        // 30, 0x78 - SSP0
 172:system/startup_LPC17xx.c ****     SSP1_IRQHandler,                        // 31, 0x7c - SSP1
 173:system/startup_LPC17xx.c ****     PLL0_IRQHandler,                        // 32, 0x80 - PLL0 (Main PLL)
 174:system/startup_LPC17xx.c ****     RTC_IRQHandler,                         // 33, 0x84 - RTC
 175:system/startup_LPC17xx.c ****     EINT0_IRQHandler,                       // 34, 0x88 - EINT0
 176:system/startup_LPC17xx.c ****     EINT1_IRQHandler,                       // 35, 0x8c - EINT1
 177:system/startup_LPC17xx.c ****     EINT2_IRQHandler,                       // 36, 0x90 - EINT2
 178:system/startup_LPC17xx.c ****     EINT3_IRQHandler,                       // 37, 0x94 - EINT3
 179:system/startup_LPC17xx.c ****     ADC_IRQHandler,                         // 38, 0x98 - ADC
 180:system/startup_LPC17xx.c ****     BOD_IRQHandler,                         // 39, 0x9c - BOD
 181:system/startup_LPC17xx.c ****     USB_IRQHandler,                         // 40, 0xA0 - USB
 182:system/startup_LPC17xx.c ****     CAN_IRQHandler,                         // 41, 0xa4 - CAN
 183:system/startup_LPC17xx.c ****     DMA_IRQHandler,                         // 42, 0xa8 - GP DMA
 184:system/startup_LPC17xx.c ****     I2S_IRQHandler,                         // 43, 0xac - I2S
 185:system/startup_LPC17xx.c ****     ENET_IRQHandler,                        // 44, 0xb0 - Ethernet
 186:system/startup_LPC17xx.c ****     RIT_IRQHandler,                         // 45, 0xb4 - RITINT
 187:system/startup_LPC17xx.c ****     MCPWM_IRQHandler,                       // 46, 0xb8 - Motor Control PWM
 188:system/startup_LPC17xx.c ****     QEI_IRQHandler,                         // 47, 0xbc - Quadrature Encoder
 189:system/startup_LPC17xx.c ****     PLL1_IRQHandler,                        // 48, 0xc0 - PLL1 (USB PLL)
 190:system/startup_LPC17xx.c ****     USBActivity_IRQHandler,                 // 49, 0xc4 - USB Activity interrupt to wakeup
 191:system/startup_LPC17xx.c ****     CANActivity_IRQHandler,                 // 50, 0xc8 - CAN Activity interrupt to wakeup
 192:system/startup_LPC17xx.c **** };
 193:system/startup_LPC17xx.c **** 
 194:system/startup_LPC17xx.c **** /**
 195:system/startup_LPC17xx.c ****  * @brief  This is the code that gets called when the processor first
 196:system/startup_LPC17xx.c ****  *          starts execution following a reset event. Only the absolutely
 197:system/startup_LPC17xx.c ****  *          necessary set is performed, after which the application
 198:system/startup_LPC17xx.c ****  *          supplied main() routine is called.
 199:system/startup_LPC17xx.c ****  * @param  None
 200:system/startup_LPC17xx.c ****  * @retval : None
 201:system/startup_LPC17xx.c **** */
 202:system/startup_LPC17xx.c **** 
 203:system/startup_LPC17xx.c **** void Reset_Handler(void)
 204:system/startup_LPC17xx.c **** {
 125              		.loc 1 204 0
 126              		.cfi_startproc
 127              		@ Stack Align: May be called with mis-aligned SP.
 128              		@ args = 0, pretend = 0, frame = 8
 129              		@ frame_needed = 1, uses_anonymous_args = 0
 130 0000 6846     		mov	r0, sp	@,
 131              		.cfi_register 13, 0
 132 0002 20F00701 		bic	r1, r0, #7	@,,
 133 0006 8D46     		mov	sp, r1	@,
 134 0008 81B5     		push	{r0, r7, lr}	@
 135              		.cfi_def_cfa_offset 12
 136              		.cfi_offset 13, -12
 137              		.cfi_offset 7, -8
 138              		.cfi_offset 14, -4
ARM GAS  C:\Users\STUDENT\AppData\Local\Temp\ccDEhX6s.s 			page 7


 139 000a 83B0     		sub	sp, sp, #12	@,,
 140              		.cfi_def_cfa_offset 24
 141 000c 00AF     		add	r7, sp, #0	@,,
 142              		.cfi_def_cfa_register 7
 205:system/startup_LPC17xx.c ****   /* Initialize data and bss */
 206:system/startup_LPC17xx.c ****   unsigned long *pulSrc, *pulDest;
 207:system/startup_LPC17xx.c **** 
 208:system/startup_LPC17xx.c ****   /* Copy the data segment initializers from flash to SRAM */
 209:system/startup_LPC17xx.c ****   pulSrc = &_sidata;
 143              		.loc 1 209 0
 144 000e 174B     		ldr	r3, .L9	@ tmp115,
 145 0010 7B60     		str	r3, [r7, #4]	@ tmp115, pulSrc
 210:system/startup_LPC17xx.c **** 
 211:system/startup_LPC17xx.c ****   for(pulDest = &_sdata; pulDest < &_edata; )
 146              		.loc 1 211 0
 147 0012 174B     		ldr	r3, .L9+4	@ tmp116,
 148 0014 3B60     		str	r3, [r7]	@ tmp116, pulDest
 149 0016 07E0     		b	.L2	@
 150              	.L3:
 212:system/startup_LPC17xx.c ****   {
 213:system/startup_LPC17xx.c ****     *(pulDest++) = *(pulSrc++);
 151              		.loc 1 213 0
 152 0018 3B68     		ldr	r3, [r7]	@ D.4315, pulDest
 153 001a 1A1D     		adds	r2, r3, #4	@ tmp117, D.4315,
 154 001c 3A60     		str	r2, [r7]	@ tmp117, pulDest
 155 001e 7A68     		ldr	r2, [r7, #4]	@ D.4315, pulSrc
 156 0020 111D     		adds	r1, r2, #4	@ tmp118, D.4315,
 157 0022 7960     		str	r1, [r7, #4]	@ tmp118, pulSrc
 158 0024 1268     		ldr	r2, [r2]	@ D.4316, *_13
 159 0026 1A60     		str	r2, [r3]	@ D.4316, *_11
 160              	.L2:
 211:system/startup_LPC17xx.c ****   {
 161              		.loc 1 211 0 discriminator 1
 162 0028 3B68     		ldr	r3, [r7]	@ tmp119, pulDest
 163 002a 124A     		ldr	r2, .L9+8	@ tmp120,
 164 002c 9342     		cmp	r3, r2	@ tmp119, tmp120
 165 002e F3D3     		bcc	.L3	@,
 214:system/startup_LPC17xx.c ****   }
 215:system/startup_LPC17xx.c **** 
 216:system/startup_LPC17xx.c ****   /* Zero fill the bss segment. */
 217:system/startup_LPC17xx.c ****   for(pulDest = &_sbss; pulDest < &_ebss; )
 166              		.loc 1 217 0
 167 0030 114B     		ldr	r3, .L9+12	@ tmp121,
 168 0032 3B60     		str	r3, [r7]	@ tmp121, pulDest
 169 0034 04E0     		b	.L4	@
 170              	.L5:
 218:system/startup_LPC17xx.c ****   {
 219:system/startup_LPC17xx.c ****     *(pulDest++) = 0;
 171              		.loc 1 219 0
 172 0036 3B68     		ldr	r3, [r7]	@ D.4315, pulDest
 173 0038 1A1D     		adds	r2, r3, #4	@ tmp122, D.4315,
 174 003a 3A60     		str	r2, [r7]	@ tmp122, pulDest
 175 003c 0022     		movs	r2, #0	@ tmp123,
 176 003e 1A60     		str	r2, [r3]	@ tmp123, *_18
 177              	.L4:
 217:system/startup_LPC17xx.c ****   {
 178              		.loc 1 217 0 discriminator 1
ARM GAS  C:\Users\STUDENT\AppData\Local\Temp\ccDEhX6s.s 			page 8


 179 0040 3B68     		ldr	r3, [r7]	@ tmp124, pulDest
 180 0042 0E4A     		ldr	r2, .L9+16	@ tmp125,
 181 0044 9342     		cmp	r3, r2	@ tmp124, tmp125
 182 0046 F6D3     		bcc	.L5	@,
 220:system/startup_LPC17xx.c ****   }
 221:system/startup_LPC17xx.c **** 
 222:system/startup_LPC17xx.c ****   /* Zero fill the bss_ahb segment. */
 223:system/startup_LPC17xx.c ****   for(pulDest = &_sbss_ahb; pulDest < &_ebss_ahb; )
 183              		.loc 1 223 0
 184 0048 0D4B     		ldr	r3, .L9+20	@ tmp126,
 185 004a 3B60     		str	r3, [r7]	@ tmp126, pulDest
 186 004c 04E0     		b	.L6	@
 187              	.L7:
 224:system/startup_LPC17xx.c ****   {
 225:system/startup_LPC17xx.c ****     *(pulDest++) = 0;
 188              		.loc 1 225 0
 189 004e 3B68     		ldr	r3, [r7]	@ D.4315, pulDest
 190 0050 1A1D     		adds	r2, r3, #4	@ tmp127, D.4315,
 191 0052 3A60     		str	r2, [r7]	@ tmp127, pulDest
 192 0054 0022     		movs	r2, #0	@ tmp128,
 193 0056 1A60     		str	r2, [r3]	@ tmp128, *_22
 194              	.L6:
 223:system/startup_LPC17xx.c ****   {
 195              		.loc 1 223 0 discriminator 1
 196 0058 3B68     		ldr	r3, [r7]	@ tmp129, pulDest
 197 005a 0A4A     		ldr	r2, .L9+24	@ tmp130,
 198 005c 9342     		cmp	r3, r2	@ tmp129, tmp130
 199 005e F6D3     		bcc	.L7	@,
 226:system/startup_LPC17xx.c ****   }
 227:system/startup_LPC17xx.c **** 
 228:system/startup_LPC17xx.c ****   /* Call the application's entry point.*/
 229:system/startup_LPC17xx.c ****   SystemInit();
 200              		.loc 1 229 0
 201 0060 FFF7FEFF 		bl	SystemInit	@
 230:system/startup_LPC17xx.c ****   main();
 202              		.loc 1 230 0
 203 0064 FFF7FEFF 		bl	main	@
 204              	.L8:
 231:system/startup_LPC17xx.c **** 
 232:system/startup_LPC17xx.c ****   //
 233:system/startup_LPC17xx.c ****   // we should never reach this point
 234:system/startup_LPC17xx.c ****   // however, wait endless...
 235:system/startup_LPC17xx.c ****   //
 236:system/startup_LPC17xx.c ****   while( 1 );
 205              		.loc 1 236 0 discriminator 1
 206 0068 FEE7     		b	.L8	@
 207              	.L10:
 208 006a 00BF     		.align	2
 209              	.L9:
 210 006c 00000000 		.word	_sidata
 211 0070 00000000 		.word	_sdata
 212 0074 00000000 		.word	_edata
 213 0078 00000000 		.word	_sbss
 214 007c 00000000 		.word	_ebss
 215 0080 00000000 		.word	_sbss_ahb
 216 0084 00000000 		.word	_ebss_ahb
 217              		.cfi_endproc
ARM GAS  C:\Users\STUDENT\AppData\Local\Temp\ccDEhX6s.s 			page 9


 218              	.LFE0:
 219              		.size	Reset_Handler, .-Reset_Handler
 220              		.section	.text._init,"ax",%progbits
 221              		.align	2
 222              		.global	_init
 223              		.thumb
 224              		.thumb_func
 225              		.type	_init, %function
 226              	_init:
 227              	.LFB1:
 237:system/startup_LPC17xx.c **** }
 238:system/startup_LPC17xx.c **** 
 239:system/startup_LPC17xx.c **** // dummy for newer gcc versions
 240:system/startup_LPC17xx.c **** void _init()
 241:system/startup_LPC17xx.c **** {
 228              		.loc 1 241 0
 229              		.cfi_startproc
 230              		@ args = 0, pretend = 0, frame = 0
 231              		@ frame_needed = 1, uses_anonymous_args = 0
 232              		@ link register save eliminated.
 233 0000 80B4     		push	{r7}	@
 234              		.cfi_def_cfa_offset 4
 235              		.cfi_offset 7, -4
 236 0002 00AF     		add	r7, sp, #0	@,,
 237              		.cfi_def_cfa_register 7
 242:system/startup_LPC17xx.c **** }
 238              		.loc 1 242 0
 239 0004 00BF     		nop
 240 0006 BD46     		mov	sp, r7	@,
 241              		.cfi_def_cfa_register 13
 242              		@ sp needed	@
 243 0008 80BC     		pop	{r7}	@
 244              		.cfi_restore 7
 245              		.cfi_def_cfa_offset 0
 246 000a 7047     		bx	lr	@
 247              		.cfi_endproc
 248              	.LFE1:
 249              		.size	_init, .-_init
 250              		.section	.text.Default_Handler,"ax",%progbits
 251              		.align	2
 252              		.weak	Default_Handler
 253              		.thumb
 254              		.thumb_func
 255              		.type	Default_Handler, %function
 256              	Default_Handler:
 257              	.LFB2:
 243:system/startup_LPC17xx.c **** 
 244:system/startup_LPC17xx.c **** /*******************************************************************************
 245:system/startup_LPC17xx.c **** *
 246:system/startup_LPC17xx.c **** * Provide weak aliases for each Exception handler to the Default_Handler.
 247:system/startup_LPC17xx.c **** * As they are weak aliases, any function with the same name will override
 248:system/startup_LPC17xx.c **** * this definition.
 249:system/startup_LPC17xx.c **** *
 250:system/startup_LPC17xx.c **** *******************************************************************************/
 251:system/startup_LPC17xx.c **** #pragma weak NMI_Handler = Default_Handler
 252:system/startup_LPC17xx.c **** #pragma weak MemManage_Handler = Default_Handler
 253:system/startup_LPC17xx.c **** #pragma weak BusFault_Handler = Default_Handler
ARM GAS  C:\Users\STUDENT\AppData\Local\Temp\ccDEhX6s.s 			page 10


 254:system/startup_LPC17xx.c **** #pragma weak HardFault_Handler = Default_Handler
 255:system/startup_LPC17xx.c **** #pragma weak UsageFault_Handler = Default_Handler
 256:system/startup_LPC17xx.c **** #pragma weak SVC_Handler = Default_Handler
 257:system/startup_LPC17xx.c **** #pragma weak DebugMon_Handler = Default_Handler
 258:system/startup_LPC17xx.c **** #pragma weak PendSV_Handler = Default_Handler
 259:system/startup_LPC17xx.c **** #pragma weak SysTick_Handler = Default_Handler
 260:system/startup_LPC17xx.c **** 
 261:system/startup_LPC17xx.c **** /**
 262:system/startup_LPC17xx.c ****  * @brief  This is the code that gets called when the processor receives an
 263:system/startup_LPC17xx.c ****  *         unexpected interrupt.  This simply enters an infinite loop, preserving
 264:system/startup_LPC17xx.c ****  *         the system state for examination by a debugger.
 265:system/startup_LPC17xx.c ****  *
 266:system/startup_LPC17xx.c ****  * @param  None    
 267:system/startup_LPC17xx.c ****  * @retval : None      
 268:system/startup_LPC17xx.c **** */
 269:system/startup_LPC17xx.c **** 
 270:system/startup_LPC17xx.c **** void Default_Handler(void)
 271:system/startup_LPC17xx.c **** {
 258              		.loc 1 271 0
 259              		.cfi_startproc
 260              		@ args = 0, pretend = 0, frame = 0
 261              		@ frame_needed = 1, uses_anonymous_args = 0
 262              		@ link register save eliminated.
 263 0000 80B4     		push	{r7}	@
 264              		.cfi_def_cfa_offset 4
 265              		.cfi_offset 7, -4
 266 0002 00AF     		add	r7, sp, #0	@,,
 267              		.cfi_def_cfa_register 7
 268              	.L13:
 272:system/startup_LPC17xx.c ****   /* Go into an infinite loop. */
 273:system/startup_LPC17xx.c ****   while (1)
 274:system/startup_LPC17xx.c ****   {
 275:system/startup_LPC17xx.c ****     // TK: TODO - insert an error notification here
 276:system/startup_LPC17xx.c ****     // We could send a debug message via USB, but this could be critical if there is
 277:system/startup_LPC17xx.c ****     // an issue in the MIDI or USB handler or related application hooks
 278:system/startup_LPC17xx.c ****     //
 279:system/startup_LPC17xx.c ****     // Alternatively we could flash the On-Board LED - it's safe!
 280:system/startup_LPC17xx.c ****   }
 269              		.loc 1 280 0 discriminator 1
 270 0004 FEE7     		b	.L13	@
 271              		.cfi_endproc
 272              	.LFE2:
 273              		.size	Default_Handler, .-Default_Handler
 274              		.weak	SysTick_Handler
 275              		.thumb_set SysTick_Handler,Default_Handler
 276              		.weak	PendSV_Handler
 277              		.thumb_set PendSV_Handler,Default_Handler
 278              		.weak	DebugMon_Handler
 279              		.thumb_set DebugMon_Handler,Default_Handler
 280              		.weak	SVC_Handler
 281              		.thumb_set SVC_Handler,Default_Handler
 282              		.weak	UsageFault_Handler
 283              		.thumb_set UsageFault_Handler,Default_Handler
 284              		.weak	HardFault_Handler
 285              		.thumb_set HardFault_Handler,Default_Handler
 286              		.weak	BusFault_Handler
 287              		.thumb_set BusFault_Handler,Default_Handler
ARM GAS  C:\Users\STUDENT\AppData\Local\Temp\ccDEhX6s.s 			page 11


 288              		.weak	MemManage_Handler
 289              		.thumb_set MemManage_Handler,Default_Handler
 290              		.weak	NMI_Handler
 291              		.thumb_set NMI_Handler,Default_Handler
 292              		.weak	CANActivity_IRQHandler
 293              		.thumb_set CANActivity_IRQHandler,Default_Handler
 294              		.weak	USBActivity_IRQHandler
 295              		.thumb_set USBActivity_IRQHandler,Default_Handler
 296              		.weak	PLL1_IRQHandler
 297              		.thumb_set PLL1_IRQHandler,Default_Handler
 298              		.weak	QEI_IRQHandler
 299              		.thumb_set QEI_IRQHandler,Default_Handler
 300              		.weak	MCPWM_IRQHandler
 301              		.thumb_set MCPWM_IRQHandler,Default_Handler
 302              		.weak	RIT_IRQHandler
 303              		.thumb_set RIT_IRQHandler,Default_Handler
 304              		.weak	ENET_IRQHandler
 305              		.thumb_set ENET_IRQHandler,Default_Handler
 306              		.weak	I2S_IRQHandler
 307              		.thumb_set I2S_IRQHandler,Default_Handler
 308              		.weak	DMA_IRQHandler
 309              		.thumb_set DMA_IRQHandler,Default_Handler
 310              		.weak	CAN_IRQHandler
 311              		.thumb_set CAN_IRQHandler,Default_Handler
 312              		.weak	USB_IRQHandler
 313              		.thumb_set USB_IRQHandler,Default_Handler
 314              		.weak	BOD_IRQHandler
 315              		.thumb_set BOD_IRQHandler,Default_Handler
 316              		.weak	ADC_IRQHandler
 317              		.thumb_set ADC_IRQHandler,Default_Handler
 318              		.weak	EINT3_IRQHandler
 319              		.thumb_set EINT3_IRQHandler,Default_Handler
 320              		.weak	EINT2_IRQHandler
 321              		.thumb_set EINT2_IRQHandler,Default_Handler
 322              		.weak	EINT1_IRQHandler
 323              		.thumb_set EINT1_IRQHandler,Default_Handler
 324              		.weak	EINT0_IRQHandler
 325              		.thumb_set EINT0_IRQHandler,Default_Handler
 326              		.weak	RTC_IRQHandler
 327              		.thumb_set RTC_IRQHandler,Default_Handler
 328              		.weak	PLL0_IRQHandler
 329              		.thumb_set PLL0_IRQHandler,Default_Handler
 330              		.weak	SSP1_IRQHandler
 331              		.thumb_set SSP1_IRQHandler,Default_Handler
 332              		.weak	SSP0_IRQHandler
 333              		.thumb_set SSP0_IRQHandler,Default_Handler
 334              		.weak	SPI_IRQHandler
 335              		.thumb_set SPI_IRQHandler,Default_Handler
 336              		.weak	I2C2_IRQHandler
 337              		.thumb_set I2C2_IRQHandler,Default_Handler
 338              		.weak	I2C1_IRQHandler
 339              		.thumb_set I2C1_IRQHandler,Default_Handler
 340              		.weak	I2C0_IRQHandler
 341              		.thumb_set I2C0_IRQHandler,Default_Handler
 342              		.weak	PWM1_IRQHandler
 343              		.thumb_set PWM1_IRQHandler,Default_Handler
 344              		.weak	UART3_IRQHandler
ARM GAS  C:\Users\STUDENT\AppData\Local\Temp\ccDEhX6s.s 			page 12


 345              		.thumb_set UART3_IRQHandler,Default_Handler
 346              		.weak	UART2_IRQHandler
 347              		.thumb_set UART2_IRQHandler,Default_Handler
 348              		.weak	rcuart_PORT1_IRQHandler
 349              		.thumb_set rcuart_PORT1_IRQHandler,Default_Handler
 350              		.weak	UART0_IRQHandler
 351              		.thumb_set UART0_IRQHandler,Default_Handler
 352              		.weak	TIMER3_IRQHandler
 353              		.thumb_set TIMER3_IRQHandler,Default_Handler
 354              		.weak	TIMER2_IRQHandler
 355              		.thumb_set TIMER2_IRQHandler,Default_Handler
 356              		.weak	TIMER1_IRQHandler
 357              		.thumb_set TIMER1_IRQHandler,Default_Handler
 358              		.weak	rcscheduler_Timer0_IRQHandler
 359              		.thumb_set rcscheduler_Timer0_IRQHandler,Default_Handler
 360              		.weak	WDT_IRQHandler
 361              		.thumb_set WDT_IRQHandler,Default_Handler
 362 0006 00BF     		.text
 363              	.Letext0: