ARM GAS  C:\Users\STUDENT\AppData\Local\Temp\ccDEhX6s.s 			page 1


   1              		.syntax unified
   2              		.cpu cortex-m3
   3              		.fpu softvfp
   4              		.eabi_attribute 20, 1	@ Tag_ABI_FP_denormal
   5              		.eabi_attribute 21, 1	@ Tag_ABI_FP_exceptions
   6              		.eabi_attribute 23, 3	@ Tag_ABI_FP_number_model
   7              		.eabi_attribute 24, 1	@ Tag_ABI_align8_needed
   8              		.eabi_attribute 25, 1	@ Tag_ABI_align8_preserved
   9              		.eabi_attribute 26, 1	@ Tag_ABI_enum_size
  10              		.eabi_attribute 30, 6	@ Tag_ABI_optimization_goals
  11              		.eabi_attribute 34, 1	@ Tag_CPU_unaligned_access
  12              		.eabi_attribute 18, 4	@ Tag_ABI_PCS_wchar_t
  13              		.file	"startup_LPC17xx.c"
  14              	@ GNU C89 (GNU Tools for ARM Embedded Processors) version 5.4.1 20160919 (release) [ARM/embedded-5-
  15              	@	compiled by GNU C version 4.7.4, GMP version 4.3.2, MPFR version 2.4.2, MPC version 0.8.1
  16              	@ GGC heuristics: --param ggc-min-expand=100 --param ggc-min-heapsize=131072
  17              	@ options passed:  -I . -I config -I system -I core -I drivers -I FreeRTOS
  18              	@ -I FreeRTOS/include -I FreeRTOS/portable/GCC/ARM_CM3 -I FreeRTOS/portable
  19              	@ -I tasks/rc_task_leds -I tasks/rc_task_xbee -I modules/rc_leds
  20              	@ -I modules/rc_xbee -I modules/rc_scheduler -I drivers/rc_system
  21              	@ -I drivers/rc_gpio -I drivers/rc_uart -I drivers/rc_pinsel
  22              	@ -I drivers/rc_timer -I drivers/rc_adc -imultilib armv7-m
  23              	@ -iprefix c:\program files (x86)\gnu tools arm embedded\5.4 2016q3\bin\../lib/gcc/arm-none-eabi/5.
  24              	@ -isysroot c:\program files (x86)\gnu tools arm embedded\5.4 2016q3\bin\../arm-none-eabi
  25              	@ -MD out/startup_LPC17xx.d -MF out/startup_LPC17xx.d -MP
  26              	@ -MQ out/startup_LPC17xx.o -D__USES_INITFINI__ system/startup_LPC17xx.c
  27              	@ -mcpu=cortex-m3 -mthumb -auxbase-strip out/startup_LPC17xx.o -g -ggdb3
  28              	@ -O0 -Wall -Wstrict-prototypes -Wextra -std=gnu90 -ffunction-sections
  29              	@ -fdata-sections -fverbose-asm
  30              	@ options enabled:  -faggressive-loop-optimizations -fauto-inc-dec
  31              	@ -fchkp-check-incomplete-type -fchkp-check-read -fchkp-check-write
  32              	@ -fchkp-instrument-calls -fchkp-narrow-bounds -fchkp-optimize
  33              	@ -fchkp-store-bounds -fchkp-use-static-bounds
  34              	@ -fchkp-use-static-const-bounds -fchkp-use-wrappers -fcommon
  35              	@ -fdata-sections -fdelete-null-pointer-checks -fdwarf2-cfi-asm
  36              	@ -fearly-inlining -feliminate-unused-debug-types -ffunction-cse
  37              	@ -ffunction-sections -fgcse-lm -fgnu-runtime -fgnu-unique -fident
  38              	@ -finline-atomics -fira-hoist-pressure -fira-share-save-slots
  39              	@ -fira-share-spill-slots -fivopts -fkeep-static-consts
  40              	@ -fleading-underscore -flifetime-dse -flto-odr-type-merging -fmath-errno
  41              	@ -fmerge-debug-strings -fpeephole -fprefetch-loop-arrays
  42              	@ -freg-struct-return -fsched-critical-path-heuristic
  43              	@ -fsched-dep-count-heuristic -fsched-group-heuristic -fsched-interblock
  44              	@ -fsched-last-insn-heuristic -fsched-rank-heuristic -fsched-spec
  45              	@ -fsched-spec-insn-heuristic -fsched-stalled-insns-dep
  46              	@ -fsemantic-interposition -fshow-column -fsigned-zeros
  47              	@ -fsplit-ivs-in-unroller -fstdarg-opt -fstrict-volatile-bitfields
  48              	@ -fsync-libcalls -ftrapping-math -ftree-coalesce-vars -ftree-cselim
  49              	@ -ftree-forwprop -ftree-loop-if-convert -ftree-loop-im -ftree-loop-ivcanon
  50              	@ -ftree-loop-optimize -ftree-parallelize-loops= -ftree-phiprop
  51              	@ -ftree-reassoc -ftree-scev-cprop -funit-at-a-time -fverbose-asm
  52              	@ -fzero-initialized-in-bss -masm-syntax-unified -mfix-cortex-m3-ldrd
  53              	@ -mlittle-endian -mpic-data-is-text-relative -msched-prolog -mthumb
  54              	@ -munaligned-access -mvectorize-with-neon-quad
  55              	
  56              		.text
  57              	.Ltext0:
ARM GAS  C:\Users\STUDENT\AppData\Local\Temp\ccDEhX6s.s 			page 2


  58              		.cfi_sections	.debug_frame
  59              		.global	g_pfnVectors
  60              		.section	.isr_vector,"a",%progbits
  61              		.align	2
  62              		.type	g_pfnVectors, %object
  63              		.size	g_pfnVectors, 204
  64              	g_pfnVectors:
  65 0000 00000000 		.word	_estack
  66 0004 00000000 		.word	Reset_Handler
  67 0008 00000000 		.word	NMI_Handler
  68 000c 00000000 		.word	HardFault_Handler
  69 0010 00000000 		.word	MemManage_Handler
  70 0014 00000000 		.word	BusFault_Handler
  71 0018 00000000 		.word	UsageFault_Handler
  72 001c 00000000 		.word	0
  73 0020 00000000 		.word	0
  74 0024 00000000 		.word	0
  75 0028 00000000 		.word	0
  76 002c 00000000 		.word	vPortSVCHandler
  77 0030 00000000 		.word	DebugMon_Handler
  78 0034 00000000 		.word	0
  79 0038 00000000 		.word	xPortPendSVHandler
  80 003c 00000000 		.word	xPortSysTickHandler
  81 0040 00000000 		.word	WDT_IRQHandler
  82 0044 00000000 		.word	rcscheduler_Timer0_IRQHandler
  83 0048 00000000 		.word	TIMER1_IRQHandler
  84 004c 00000000 		.word	TIMER2_IRQHandler
  85 0050 00000000 		.word	TIMER3_IRQHandler
  86 0054 00000000 		.word	UART0_IRQHandler
  87 0058 00000000 		.word	rcuart_PORT1_IRQHandler
  88 005c 00000000 		.word	UART2_IRQHandler
  89 0060 00000000 		.word	UART3_IRQHandler
  90 0064 00000000 		.word	PWM1_IRQHandler
  91 0068 00000000 		.word	I2C0_IRQHandler
  92 006c 00000000 		.word	I2C1_IRQHandler
  93 0070 00000000 		.word	I2C2_IRQHandler
  94 0074 00000000 		.word	SPI_IRQHandler
  95 0078 00000000 		.word	SSP0_IRQHandler
  96 007c 00000000 		.word	SSP1_IRQHandler
  97 0080 00000000 		.word	PLL0_IRQHandler
  98 0084 00000000 		.word	RTC_IRQHandler
  99 0088 00000000 		.word	EINT0_IRQHandler
 100 008c 00000000 		.word	EINT1_IRQHandler
 101 0090 00000000 		.word	EINT2_IRQHandler
 102 0094 00000000 		.word	EINT3_IRQHandler
 103 0098 00000000 		.word	ADC_IRQHandler
 104 009c 00000000 		.word	BOD_IRQHandler
 105 00a0 00000000 		.word	USB_IRQHandler
 106 00a4 00000000 		.word	CAN_IRQHandler
 107 00a8 00000000 		.word	DMA_IRQHandler
 108 00ac 00000000 		.word	I2S_IRQHandler
 109 00b0 00000000 		.word	ENET_IRQHandler
 110 00b4 00000000 		.word	RIT_IRQHandler
 111 00b8 00000000 		.word	MCPWM_IRQHandler
 112 00bc 00000000 		.word	QEI_IRQHandler
 113 00c0 00000000 		.word	PLL1_IRQHandler
 114 00c4 00000000 		.word	USBActivity_IRQHandler
ARM GAS  C:\Users\STUDENT\AppData\Local\Temp\ccDEhX6s.s 			page 3


 115 00c8 00000000 		.word	CANActivity_IRQHandler
 116              		.section	.text.Reset_Handler,"ax",%progbits
 117              		.align	2
 118              		.weak	Reset_Handler
 119              		.thumb
 120              		.thumb_func
 121              		.type	Reset_Handler, %function
 122              	Reset_Handler:
 123              	.LFB0:
 124              		.file 1 "system/startup_LPC17xx.c"
   1:system/startup_LPC17xx.c **** //$Id: startup_LPC17xx.c 1269 2011-07-22 22:51:08Z tk $
   2:system/startup_LPC17xx.c **** /**
   3:system/startup_LPC17xx.c ****  ******************************************************************************
   4:system/startup_LPC17xx.c ****  * @file      startup_LPC17xx.c
   5:system/startup_LPC17xx.c ****  ******************************************************************************
   6:system/startup_LPC17xx.c ****  */
   7:system/startup_LPC17xx.c **** 
   8:system/startup_LPC17xx.c **** #define STARTUP_FREERTOS	1
   9:system/startup_LPC17xx.c **** 
  10:system/startup_LPC17xx.c **** /* Includes ------------------------------------------------------------------*/
  11:system/startup_LPC17xx.c **** /* Private typedef -----------------------------------------------------------*/
  12:system/startup_LPC17xx.c **** typedef void( *const intfunc )( void );
  13:system/startup_LPC17xx.c **** 
  14:system/startup_LPC17xx.c **** /* Private define ------------------------------------------------------------*/
  15:system/startup_LPC17xx.c **** #define WEAK __attribute__ ((weak))
  16:system/startup_LPC17xx.c **** #define ALIAS(f) __attribute__ ((weak, alias (#f)))
  17:system/startup_LPC17xx.c **** 
  18:system/startup_LPC17xx.c **** /* Private macro -------------------------------------------------------------*/
  19:system/startup_LPC17xx.c **** //extern unsigned long _etext;
  20:system/startup_LPC17xx.c **** /* start address for the initialization values of the .data section.
  21:system/startup_LPC17xx.c **** defined in linker script */
  22:system/startup_LPC17xx.c **** extern unsigned long _sidata;
  23:system/startup_LPC17xx.c **** 
  24:system/startup_LPC17xx.c **** /* start address for the .data section. defined in linker script */    
  25:system/startup_LPC17xx.c **** extern unsigned long _sdata;
  26:system/startup_LPC17xx.c **** 
  27:system/startup_LPC17xx.c **** /* end address for the .data section. defined in linker script */    
  28:system/startup_LPC17xx.c **** extern unsigned long _edata;
  29:system/startup_LPC17xx.c ****    
  30:system/startup_LPC17xx.c **** /* start address for the .bss section. defined in linker script */
  31:system/startup_LPC17xx.c **** extern unsigned long _sbss;
  32:system/startup_LPC17xx.c **** extern unsigned long _sbss_ahb;
  33:system/startup_LPC17xx.c **** 
  34:system/startup_LPC17xx.c **** /* end address for the .bss section. defined in linker script */      
  35:system/startup_LPC17xx.c **** extern unsigned long _ebss;  
  36:system/startup_LPC17xx.c **** extern unsigned long _ebss_ahb;  
  37:system/startup_LPC17xx.c ****    
  38:system/startup_LPC17xx.c **** /* init value for the stack pointer. defined in linker script */
  39:system/startup_LPC17xx.c **** extern unsigned long _estack;
  40:system/startup_LPC17xx.c **** 
  41:system/startup_LPC17xx.c **** /* Private variables ---------------------------------------------------------*/
  42:system/startup_LPC17xx.c **** /* Private function prototypes -----------------------------------------------*/
  43:system/startup_LPC17xx.c **** void Reset_Handler(void) __attribute__((__interrupt__));
  44:system/startup_LPC17xx.c **** extern int main(void);
  45:system/startup_LPC17xx.c **** extern void SystemInit(void);
  46:system/startup_LPC17xx.c **** //extern void __libc_init_array(void);  /* calls CTORS of static objects */
  47:system/startup_LPC17xx.c **** //void __Init_Data(void);
ARM GAS  C:\Users\STUDENT\AppData\Local\Temp\ccDEhX6s.s 			page 4


  48:system/startup_LPC17xx.c **** void _init(void);
  49:system/startup_LPC17xx.c **** 
  50:system/startup_LPC17xx.c **** // for FreeRTOS
  51:system/startup_LPC17xx.c **** #if STARTUP_FREERTOS
  52:system/startup_LPC17xx.c **** extern void xPortPendSVHandler(void);
  53:system/startup_LPC17xx.c **** extern void xPortSysTickHandler(void);
  54:system/startup_LPC17xx.c **** extern void vPortSVCHandler( void );
  55:system/startup_LPC17xx.c **** #endif
  56:system/startup_LPC17xx.c **** 
  57:system/startup_LPC17xx.c **** /******************************************************************************
  58:system/startup_LPC17xx.c **** *
  59:system/startup_LPC17xx.c **** * Forward declaration of the default fault handlers.
  60:system/startup_LPC17xx.c **** *
  61:system/startup_LPC17xx.c **** *******************************************************************************/
  62:system/startup_LPC17xx.c **** void WEAK Reset_Handler(void);
  63:system/startup_LPC17xx.c **** void WEAK NMI_Handler(void);
  64:system/startup_LPC17xx.c **** void WEAK HardFault_Handler(void);
  65:system/startup_LPC17xx.c **** void WEAK MemManage_Handler(void);
  66:system/startup_LPC17xx.c **** void WEAK BusFault_Handler(void);
  67:system/startup_LPC17xx.c **** void WEAK UsageFault_Handler(void);
  68:system/startup_LPC17xx.c **** void WEAK MemManage_Handler(void);
  69:system/startup_LPC17xx.c **** void WEAK SVC_Handler(void);
  70:system/startup_LPC17xx.c **** void WEAK DebugMon_Handler(void);
  71:system/startup_LPC17xx.c **** void WEAK PendSV_Handler(void);
  72:system/startup_LPC17xx.c **** void WEAK SysTick_Handler(void);
  73:system/startup_LPC17xx.c **** 
  74:system/startup_LPC17xx.c **** void WEAK Default_Handler(void);
  75:system/startup_LPC17xx.c **** 
  76:system/startup_LPC17xx.c **** /* External Interrupts */
  77:system/startup_LPC17xx.c **** void WDT_IRQHandler(void) ALIAS(Default_Handler);
  78:system/startup_LPC17xx.c **** void rcscheduler_Timer0_IRQHandler(void) ALIAS(Default_Handler);
  79:system/startup_LPC17xx.c **** void TIMER1_IRQHandler(void) ALIAS(Default_Handler);
  80:system/startup_LPC17xx.c **** void TIMER2_IRQHandler(void) ALIAS(Default_Handler);
  81:system/startup_LPC17xx.c **** void TIMER3_IRQHandler(void) ALIAS(Default_Handler);
  82:system/startup_LPC17xx.c **** void UART0_IRQHandler(void) ALIAS(Default_Handler);
  83:system/startup_LPC17xx.c **** void rcuart_PORT1_IRQHandler(void) ALIAS(Default_Handler);
  84:system/startup_LPC17xx.c **** void UART2_IRQHandler(void) ALIAS(Default_Handler);
  85:system/startup_LPC17xx.c **** void UART3_IRQHandler(void) ALIAS(Default_Handler);
  86:system/startup_LPC17xx.c **** void PWM1_IRQHandler(void) ALIAS(Default_Handler);
  87:system/startup_LPC17xx.c **** void I2C0_IRQHandler(void) ALIAS(Default_Handler);
  88:system/startup_LPC17xx.c **** void I2C1_IRQHandler(void) ALIAS(Default_Handler);
  89:system/startup_LPC17xx.c **** void I2C2_IRQHandler(void) ALIAS(Default_Handler);
  90:system/startup_LPC17xx.c **** void SPI_IRQHandler(void) ALIAS(Default_Handler);
  91:system/startup_LPC17xx.c **** void SSP0_IRQHandler(void) ALIAS(Default_Handler);
  92:system/startup_LPC17xx.c **** void SSP1_IRQHandler(void) ALIAS(Default_Handler);
  93:system/startup_LPC17xx.c **** void PLL0_IRQHandler(void) ALIAS(Default_Handler);
  94:system/startup_LPC17xx.c **** void RTC_IRQHandler(void) ALIAS(Default_Handler);
  95:system/startup_LPC17xx.c **** void EINT0_IRQHandler(void) ALIAS(Default_Handler);
  96:system/startup_LPC17xx.c **** void EINT1_IRQHandler(void) ALIAS(Default_Handler);
  97:system/startup_LPC17xx.c **** void EINT2_IRQHandler(void) ALIAS(Default_Handler);
  98:system/startup_LPC17xx.c **** void EINT3_IRQHandler(void) ALIAS(Default_Handler);
  99:system/startup_LPC17xx.c **** void ADC_IRQHandler(void) ALIAS(Default_Handler);
 100:system/startup_LPC17xx.c **** void BOD_IRQHandler(void) ALIAS(Default_Handler);
 101:system/startup_LPC17xx.c **** void USB_IRQHandler(void) ALIAS(Default_Handler);
 102:system/startup_LPC17xx.c **** void CAN_IRQHandler(void) ALIAS(Default_Handler);
 103:system/startup_LPC17xx.c **** void DMA_IRQHandler(void) ALIAS(Default_Handler);
 104:system/startup_LPC17xx.c **** void I2S_IRQHandler(void) ALIAS(Default_Handler);
ARM GAS  C:\Users\STUDENT\AppData\Local\Temp\ccDEhX6s.s 			page 5


 105:system/startup_LPC17xx.c **** void ENET_IRQHandler(void) ALIAS(Default_Handler);
 106:system/startup_LPC17xx.c **** void RIT_IRQHandler(void) ALIAS(Default_Handler);
 107:system/startup_LPC17xx.c **** void MCPWM_IRQHandler(void) ALIAS(Default_Handler);
 108:system/startup_LPC17xx.c **** void QEI_IRQHandler(void) ALIAS(Default_Handler);
 109:system/startup_LPC17xx.c **** void PLL1_IRQHandler(void) ALIAS(Default_Handler);
 110:system/startup_LPC17xx.c **** void USBActivity_IRQHandler(void) ALIAS(Default_Handler);
 111:system/startup_LPC17xx.c **** void CANActivity_IRQHandler(void) ALIAS(Default_Handler);
 112:system/startup_LPC17xx.c **** 
 113:system/startup_LPC17xx.c **** /* Private functions ---------------------------------------------------------*/
 114:system/startup_LPC17xx.c **** /******************************************************************************
 115:system/startup_LPC17xx.c **** *
 116:system/startup_LPC17xx.c **** * The minimal vector table for a Cortex M3.  Note that the proper constructs
 117:system/startup_LPC17xx.c **** * must be placed on this to ensure that it ends up at physical address
 118:system/startup_LPC17xx.c **** * 0x0000.0000.
 119:system/startup_LPC17xx.c **** *
 120:system/startup_LPC17xx.c **** ******************************************************************************/
 121:system/startup_LPC17xx.c **** 
 122:system/startup_LPC17xx.c **** __attribute__ ((section(".isr_vector")))
 123:system/startup_LPC17xx.c **** void (* const g_pfnVectors[])(void) =
 124:system/startup_LPC17xx.c **** {      
 125:system/startup_LPC17xx.c ****     (intfunc)((unsigned long)&_estack), /* The initial stack pointer */
 126:system/startup_LPC17xx.c ****     Reset_Handler,              /* Reset Handler */
 127:system/startup_LPC17xx.c ****     NMI_Handler,                /* NMI Handler */
 128:system/startup_LPC17xx.c ****     HardFault_Handler,          /* Hard Fault Handler */
 129:system/startup_LPC17xx.c ****     MemManage_Handler,          /* MPU Fault Handler */
 130:system/startup_LPC17xx.c ****     BusFault_Handler,           /* Bus Fault Handler */
 131:system/startup_LPC17xx.c ****     UsageFault_Handler,         /* Usage Fault Handler */
 132:system/startup_LPC17xx.c ****     0,                          /* Reserved */
 133:system/startup_LPC17xx.c ****     0,                          /* Reserved */
 134:system/startup_LPC17xx.c ****     0,                          /* Reserved */
 135:system/startup_LPC17xx.c ****     0,                          /* Reserved */
 136:system/startup_LPC17xx.c **** 
 137:system/startup_LPC17xx.c **** #if !STARTUP_FREERTOS
 138:system/startup_LPC17xx.c ****     SVC_Handler,                /* SVCall Handler */
 139:system/startup_LPC17xx.c **** #else
 140:system/startup_LPC17xx.c ****     // for FreeRTOS
 141:system/startup_LPC17xx.c ****     vPortSVCHandler,
 142:system/startup_LPC17xx.c **** #endif
 143:system/startup_LPC17xx.c **** 
 144:system/startup_LPC17xx.c ****     DebugMon_Handler,           /* Debug Monitor Handler */
 145:system/startup_LPC17xx.c ****     0,                          /* Reserved */
 146:system/startup_LPC17xx.c **** 
 147:system/startup_LPC17xx.c **** #if !STARTUP_FREERTOS
 148:system/startup_LPC17xx.c ****     PendSV_Handler,             /* PendSV Handler */
 149:system/startup_LPC17xx.c ****     SysTick_Handler,            /* SysTick Handler */
 150:system/startup_LPC17xx.c **** #else
 151:system/startup_LPC17xx.c ****     // for FreeRTOS
 152:system/startup_LPC17xx.c ****     xPortPendSVHandler,
 153:system/startup_LPC17xx.c ****     xPortSysTickHandler,
 154:system/startup_LPC17xx.c **** #endif
 155:system/startup_LPC17xx.c **** 
 156:system/startup_LPC17xx.c ****     /* External Interrupts */
 157:system/startup_LPC17xx.c ****     WDT_IRQHandler,                         // 16, 0x40 - WDT
 158:system/startup_LPC17xx.c **** 	rcscheduler_Timer0_IRQHandler,                      // 17, 0x44 - TIMER0
 159:system/startup_LPC17xx.c ****     TIMER1_IRQHandler,                      // 18, 0x48 - TIMER1
 160:system/startup_LPC17xx.c ****     TIMER2_IRQHandler,                      // 19, 0x4c - TIMER2
 161:system/startup_LPC17xx.c ****     TIMER3_IRQHandler,                      // 20, 0x50 - TIMER3
ARM GAS  C:\Users\STUDENT\AppData\Local\Temp\ccDEhX6s.s 			page 6


 162:system/startup_LPC17xx.c ****     UART0_IRQHandler,                       // 21, 0x54 - UART0
 163:system/startup_LPC17xx.c **** 	rcuart_PORT1_IRQHandler,                       // 22, 0x58 - UART1
 164:system/startup_LPC17xx.c ****     UART2_IRQHandler,                       // 23, 0x5c - UART2
 165:system/startup_LPC17xx.c ****     UART3_IRQHandler,                       // 24, 0x60 - UART3
 166:system/startup_LPC17xx.c ****     PWM1_IRQHandler,                        // 25, 0x64 - PWM1
 167:system/startup_LPC17xx.c ****     I2C0_IRQHandler,                        // 26, 0x68 - I2C0
 168:system/startup_LPC17xx.c ****     I2C1_IRQHandler,                        // 27, 0x6c - I2C1
 169:system/startup_LPC17xx.c ****     I2C2_IRQHandler,                        // 28, 0x70 - I2C2
 170:system/startup_LPC17xx.c ****     SPI_IRQHandler,                         // 29, 0x74 - SPI
 171:system/startup_LPC17xx.c ****     SSP0_IRQHandler,                        // 30, 0x78 - SSP0
 172:system/startup_LPC17xx.c ****     SSP1_IRQHandler,                        // 31, 0x7c - SSP1
 173:system/startup_LPC17xx.c ****     PLL0_IRQHandler,                        // 32, 0x80 - PLL0 (Main PLL)
 174:system/startup_LPC17xx.c ****     RTC_IRQHandler,                         // 33, 0x84 - RTC
 175:system/startup_LPC17xx.c ****     EINT0_IRQHandler,                       // 34, 0x88 - EINT0
 176:system/startup_LPC17xx.c ****     EINT1_IRQHandler,                       // 35, 0x8c - EINT1
 177:system/startup_LPC17xx.c ****     EINT2_IRQHandler,                       // 36, 0x90 - EINT2
 178:system/startup_LPC17xx.c ****     EINT3_IRQHandler,                       // 37, 0x94 - EINT3
 179:system/startup_LPC17xx.c ****     ADC_IRQHandler,                         // 38, 0x98 - ADC
 180:system/startup_LPC17xx.c ****     BOD_IRQHandler,                         // 39, 0x9c - BOD
 181:system/startup_LPC17xx.c ****     USB_IRQHandler,                         // 40, 0xA0 - USB
 182:system/startup_LPC17xx.c ****     CAN_IRQHandler,                         // 41, 0xa4 - CAN
 183:system/startup_LPC17xx.c ****     DMA_IRQHandler,                         // 42, 0xa8 - GP DMA
 184:system/startup_LPC17xx.c ****     I2S_IRQHandler,                         // 43, 0xac - I2S
 185:system/startup_LPC17xx.c ****     ENET_IRQHandler,                        // 44, 0xb0 - Ethernet
 186:system/startup_LPC17xx.c ****     RIT_IRQHandler,                         // 45, 0xb4 - RITINT
 187:system/startup_LPC17xx.c ****     MCPWM_IRQHandler,                       // 46, 0xb8 - Motor Control PWM
 188:system/startup_LPC17xx.c ****     QEI_IRQHandler,                         // 47, 0xbc - Quadrature Encoder
 189:system/startup_LPC17xx.c ****     PLL1_IRQHandler,                        // 48, 0xc0 - PLL1 (USB PLL)
 190:system/startup_LPC17xx.c ****     USBActivity_IRQHandler,                 // 49, 0xc4 - USB Activity interrupt to wakeup
 191:system/startup_LPC17xx.c ****     CANActivity_IRQHandler,                 // 50, 0xc8 - CAN Activity interrupt to wakeup
 192:system/startup_LPC17xx.c **** };
 193:system/startup_LPC17xx.c **** 
 194:system/startup_LPC17xx.c **** /**
 195:system/startup_LPC17xx.c ****  * @brief  This is the code that gets called when the processor first
 196:system/startup_LPC17xx.c ****  *          starts execution following a reset event. Only the absolutely
 197:system/startup_LPC17xx.c ****  *          necessary set is performed, after which the application
 198:system/startup_LPC17xx.c ****  *          supplied main() routine is called.
 199:system/startup_LPC17xx.c ****  * @param  None
 200:system/startup_LPC17xx.c ****  * @retval : None
 201:system/startup_LPC17xx.c **** */
 202:system/startup_LPC17xx.c **** 
 203:system/startup_LPC17xx.c **** void Reset_Handler(void)
 204:system/startup_LPC17xx.c **** {
 125              		.loc 1 204 0
 126              		.cfi_startproc
 127              		@ Stack Align: May be called with mis-aligned SP.
 128              		@ args = 0, pretend = 0, frame = 8
 129              		@ frame_needed = 1, uses_anonymous_args = 0
 130 0000 6846     		mov	r0, sp	@,
 131              		.cfi_register 13, 0
 132 0002 20F00701 		bic	r1, r0, #7	@,,
 133 0006 8D46     		mov	sp, r1	@,
 134 0008 81B5     		push	{r0, r7, lr}	@
 135              		.cfi_def_cfa_offset 12
 136              		.cfi_offset 13, -12
 137              		.cfi_offset 7, -8
 138              		.cfi_offset 14, -4
ARM GAS  C:\Users\STUDENT\AppData\Local\Temp\ccDEhX6s.s 			page 7


 139 000a 83B0     		sub	sp, sp, #12	@,,
 140              		.cfi_def_cfa_offset 24
 141 000c 00AF     		add	r7, sp, #0	@,,
 142              		.cfi_def_cfa_register 7
 205:system/startup_LPC17xx.c ****   /* Initialize data and bss */
 206:system/startup_LPC17xx.c ****   unsigned long *pulSrc, *pulDest;
 207:system/startup_LPC17xx.c **** 
 208:system/startup_LPC17xx.c ****   /* Copy the data segment initializers from flash to SRAM */
 209:system/startup_LPC17xx.c ****   pulSrc = &_sidata;
 143              		.loc 1 209 0
 144 000e 174B     		ldr	r3, .L9	@ tmp115,
 145 0010 7B60     		str	r3, [r7, #4]	@ tmp115, pulSrc
 210:system/startup_LPC17xx.c **** 
 211:system/startup_LPC17xx.c ****   for(pulDest = &_sdata; pulDest < &_edata; )
 146              		.loc 1 211 0
 147 0012 174B     		ldr	r3, .L9+4	@ tmp116,
 148 0014 3B60     		str	r3, [r7]	@ tmp116, pulDest
 149 0016 07E0     		b	.L2	@
 150              	.L3:
 212:system/startup_LPC17xx.c ****   {
 213:system/startup_LPC17xx.c ****     *(pulDest++) = *(pulSrc++);
 151              		.loc 1 213 0
 152 0018 3B68     		ldr	r3, [r7]	@ D.4315, pulDest
 153 001a 1A1D     		adds	r2, r3, #4	@ tmp117, D.4315,
 154 001c 3A60     		str	r2, [r7]	@ tmp117, pulDest
 155 001e 7A68     		ldr	r2, [r7, #4]	@ D.4315, pulSrc
 156 0020 111D     		adds	r1, r2, #4	@ tmp118, D.4315,
 157 0022 7960     		str	r1, [r7, #4]	@ tmp118, pulSrc
 158 0024 1268     		ldr	r2, [r2]	@ D.4316, *_13
 159 0026 1A60     		str	r2, [r3]	@ D.4316, *_11
 160              	.L2:
 211:system/startup_LPC17xx.c ****   {
 161              		.loc 1 211 0 discriminator 1
 162 0028 3B68     		ldr	r3, [r7]	@ tmp119, pulDest
 163 002a 124A     		ldr	r2, .L9+8	@ tmp120,
 164 002c 9342     		cmp	r3, r2	@ tmp119, tmp120
 165 002e F3D3     		bcc	.L3	@,
 214:system/startup_LPC17xx.c ****   }
 215:system/startup_LPC17xx.c **** 
 216:system/startup_LPC17xx.c ****   /* Zero fill the bss segment. */
 217:system/startup_LPC17xx.c ****   for(pulDest = &_sbss; pulDest < &_ebss; )
 166              		.loc 1 217 0
 167 0030 114B     		ldr	r3, .L9+12	@ tmp121,
 168 0032 3B60     		str	r3, [r7]	@ tmp121, pulDest
 169 0034 04E0     		b	.L4	@
 170              	.L5:
 218:system/startup_LPC17xx.c ****   {
 219:system/startup_LPC17xx.c ****     *(pulDest++) = 0;
 171              		.loc 1 219 0
 172 0036 3B68     		ldr	r3, [r7]	@ D.4315, pulDest
 173 0038 1A1D     		adds	r2, r3, #4	@ tmp122, D.4315,
 174 003a 3A60     		str	r2, [r7]	@ tmp122, pulDest
 175 003c 0022     		movs	r2, #0	@ tmp123,
 176 003e 1A60     		str	r2, [r3]	@ tmp123, *_18
 177              	.L4:
 217:system/startup_LPC17xx.c ****   {
 178              		.loc 1 217 0 discriminator 1
ARM GAS  C:\Users\STUDENT\AppData\Local\Temp\ccDEhX6s.s 			page 8


 179 0040 3B68     		ldr	r3, [r7]	@ tmp124, pulDest
 180 0042 0E4A     		ldr	r2, .L9+16	@ tmp125,
 181 0044 9342     		cmp	r3, r2	@ tmp124, tmp125
 182 0046 F6D3     		bcc	.L5	@,
 220:system/startup_LPC17xx.c ****   }
 221:system/startup_LPC17xx.c **** 
 222:system/startup_LPC17xx.c ****   /* Zero fill the bss_ahb segment. */
 223:system/startup_LPC17xx.c ****   for(pulDest = &_sbss_ahb; pulDest < &_ebss_ahb; )
 183              		.loc 1 223 0
 184 0048 0D4B     		ldr	r3, .L9+20	@ tmp126,
 185 004a 3B60     		str	r3, [r7]	@ tmp126, pulDest
 186 004c 04E0     		b	.L6	@
 187              	.L7:
 224:system/startup_LPC17xx.c ****   {
 225:system/startup_LPC17xx.c ****     *(pulDest++) = 0;
 188              		.loc 1 225 0
 189 004e 3B68     		ldr	r3, [r7]	@ D.4315, pulDest
 190 0050 1A1D     		adds	r2, r3, #4	@ tmp127, D.4315,
 191 0052 3A60     		str	r2, [r7]	@ tmp127, pulDest
 192 0054 0022     		movs	r2, #0	@ tmp128,
 193 0056 1A60     		str	r2, [r3]	@ tmp128, *_22
 194              	.L6:
 223:system/startup_LPC17xx.c ****   {
 195              		.loc 1 223 0 discriminator 1
 196 0058 3B68     		ldr	r3, [r7]	@ tmp129, pulDest
 197 005a 0A4A     		ldr	r2, .L9+24	@ tmp130,
 198 005c 9342     		cmp	r3, r2	@ tmp129, tmp130
 199 005e F6D3     		bcc	.L7	@,
 226:system/startup_LPC17xx.c ****   }
 227:system/startup_LPC17xx.c **** 
 228:system/startup_LPC17xx.c ****   /* Call the application's entry point.*/
 229:system/startup_LPC17xx.c ****   SystemInit();
 200              		.loc 1 229 0
 201 0060 FFF7FEFF 		bl	SystemInit	@
 230:system/startup_LPC17xx.c ****   main();
 202              		.loc 1 230 0
 203 0064 FFF7FEFF 		bl	main	@
 204              	.L8:
 231:system/startup_LPC17xx.c **** 
 232:system/startup_LPC17xx.c ****   //
 233:system/startup_LPC17xx.c ****   // we should never reach this point
 234:system/startup_LPC17xx.c ****   // however, wait endless...
 235:system/startup_LPC17xx.c ****   //
 236:system/startup_LPC17xx.c ****   while( 1 );
 205              		.loc 1 236 0 discriminator 1
 206 0068 FEE7     		b	.L8	@
 207              	.L10:
 208 006a 00BF     		.align	2
 209              	.L9:
 210 006c 00000000 		.word	_sidata
 211 0070 00000000 		.word	_sdata
 212 0074 00000000 		.word	_edata
 213 0078 00000000 		.word	_sbss
 214 007c 00000000 		.word	_ebss
 215 0080 00000000 		.word	_sbss_ahb
 216 0084 00000000 		.word	_ebss_ahb
 217              		.cfi_endproc
ARM GAS  C:\Users\STUDENT\AppData\Local\Temp\ccDEhX6s.s 			page 9


 218              	.LFE0:
 219              		.size	Reset_Handler, .-Reset_Handler
 220              		.section	.text._init,"ax",%progbits
 221              		.align	2
 222              		.global	_init
 223              		.thumb
 224              		.thumb_func
 225              		.type	_init, %function
 226              	_init:
 227              	.LFB1:
 237:system/startup_LPC17xx.c **** }
 238:system/startup_LPC17xx.c **** 
 239:system/startup_LPC17xx.c **** // dummy for newer gcc versions
 240:system/startup_LPC17xx.c **** void _init()
 241:system/startup_LPC17xx.c **** {
 228              		.loc 1 241 0
 229              		.cfi_startproc
 230              		@ args = 0, pretend = 0, frame = 0
 231              		@ frame_needed = 1, uses_anonymous_args = 0
 232              		@ link register save eliminated.
 233 0000 80B4     		push	{r7}	@
 234              		.cfi_def_cfa_offset 4
 235              		.cfi_offset 7, -4
 236 0002 00AF     		add	r7, sp, #0	@,,
 237              		.cfi_def_cfa_register 7
 242:system/startup_LPC17xx.c **** }
 238              		.loc 1 242 0
 239 0004 00BF     		nop
 240 0006 BD46     		mov	sp, r7	@,
 241              		.cfi_def_cfa_register 13
 242              		@ sp needed	@
 243 0008 80BC     		pop	{r7}	@
 244              		.cfi_restore 7
 245              		.cfi_def_cfa_offset 0
 246 000a 7047     		bx	lr	@
 247              		.cfi_endproc
 248              	.LFE1:
 249              		.size	_init, .-_init
 250              		.section	.text.Default_Handler,"ax",%progbits
 251              		.align	2
 252              		.weak	Default_Handler
 253              		.thumb
 254              		.thumb_func
 255              		.type	Default_Handler, %function
 256              	Default_Handler:
 257              	.LFB2:
 243:system/startup_LPC17xx.c **** 
 244:system/startup_LPC17xx.c **** /*******************************************************************************
 245:system/startup_LPC17xx.c **** *
 246:system/startup_LPC17xx.c **** * Provide weak aliases for each Exception handler to the Default_Handler.
 247:system/startup_LPC17xx.c **** * As they are weak aliases, any function with the same name will override
 248:system/startup_LPC17xx.c **** * this definition.
 249:system/startup_LPC17xx.c **** *
 250:system/startup_LPC17xx.c **** *******************************************************************************/
 251:system/startup_LPC17xx.c **** #pragma weak NMI_Handler = Default_Handler
 252:system/startup_LPC17xx.c **** #pragma weak MemManage_Handler = Default_Handler
 253:system/startup_LPC17xx.c **** #pragma weak BusFault_Handler = Default_Handler
ARM GAS  C:\Users\STUDENT\AppData\Local\Temp\ccDEhX6s.s 			page 10


 254:system/startup_LPC17xx.c **** #pragma weak HardFault_Handler = Default_Handler
 255:system/startup_LPC17xx.c **** #pragma weak UsageFault_Handler = Default_Handler
 256:system/startup_LPC17xx.c **** #pragma weak SVC_Handler = Default_Handler
 257:system/startup_LPC17xx.c **** #pragma weak DebugMon_Handler = Default_Handler
 258:system/startup_LPC17xx.c **** #pragma weak PendSV_Handler = Default_Handler
 259:system/startup_LPC17xx.c **** #pragma weak SysTick_Handler = Default_Handler
 260:system/startup_LPC17xx.c **** 
 261:system/startup_LPC17xx.c **** /**
 262:system/startup_LPC17xx.c ****  * @brief  This is the code that gets called when the processor receives an
 263:system/startup_LPC17xx.c ****  *         unexpected interrupt.  This simply enters an infinite loop, preserving
 264:system/startup_LPC17xx.c ****  *         the system state for examination by a debugger.
 265:system/startup_LPC17xx.c ****  *
 266:system/startup_LPC17xx.c ****  * @param  None    
 267:system/startup_LPC17xx.c ****  * @retval : None      
 268:system/startup_LPC17xx.c **** */
 269:system/startup_LPC17xx.c **** 
 270:system/startup_LPC17xx.c **** void Default_Handler(void)
 271:system/startup_LPC17xx.c **** {
 258              		.loc 1 271 0
 259              		.cfi_startproc
 260              		@ args = 0, pretend = 0, frame = 0
 261              		@ frame_needed = 1, uses_anonymous_args = 0
 262              		@ link register save eliminated.
 263 0000 80B4     		push	{r7}	@
 264              		.cfi_def_cfa_offset 4
 265              		.cfi_offset 7, -4
 266 0002 00AF     		add	r7, sp, #0	@,,
 267              		.cfi_def_cfa_register 7
 268              	.L13:
 272:system/startup_LPC17xx.c ****   /* Go into an infinite loop. */
 273:system/startup_LPC17xx.c ****   while (1)
 274:system/startup_LPC17xx.c ****   {
 275:system/startup_LPC17xx.c ****     // TK: TODO - insert an error notification here
 276:system/startup_LPC17xx.c ****     // We could send a debug message via USB, but this could be critical if there is
 277:system/startup_LPC17xx.c ****     // an issue in the MIDI or USB handler or related application hooks
 278:system/startup_LPC17xx.c ****     //
 279:system/startup_LPC17xx.c ****     // Alternatively we could flash the On-Board LED - it's safe!
 280:system/startup_LPC17xx.c ****   }
 269              		.loc 1 280 0 discriminator 1
 270 0004 FEE7     		b	.L13	@
 271              		.cfi_endproc
 272              	.LFE2:
 273              		.size	Default_Handler, .-Default_Handler
 274              		.weak	SysTick_Handler
 275              		.thumb_set SysTick_Handler,Default_Handler
 276              		.weak	PendSV_Handler
 277              		.thumb_set PendSV_Handler,Default_Handler
 278              		.weak	DebugMon_Handler
 279              		.thumb_set DebugMon_Handler,Default_Handler
 280              		.weak	SVC_Handler
 281              		.thumb_set SVC_Handler,Default_Handler
 282              		.weak	UsageFault_Handler
 283              		.thumb_set UsageFault_Handler,Default_Handler
 284              		.weak	HardFault_Handler
 285              		.thumb_set HardFault_Handler,Default_Handler
 286              		.weak	BusFault_Handler
 287              		.thumb_set BusFault_Handler,Default_Handler
ARM GAS  C:\Users\STUDENT\AppData\Local\Temp\ccDEhX6s.s 			page 11


 288              		.weak	MemManage_Handler
 289              		.thumb_set MemManage_Handler,Default_Handler
 290              		.weak	NMI_Handler
 291              		.thumb_set NMI_Handler,Default_Handler
 292              		.weak	CANActivity_IRQHandler
 293              		.thumb_set CANActivity_IRQHandler,Default_Handler
 294              		.weak	USBActivity_IRQHandler
 295              		.thumb_set USBActivity_IRQHandler,Default_Handler
 296              		.weak	PLL1_IRQHandler
 297              		.thumb_set PLL1_IRQHandler,Default_Handler
 298              		.weak	QEI_IRQHandler
 299              		.thumb_set QEI_IRQHandler,Default_Handler
 300              		.weak	MCPWM_IRQHandler
 301              		.thumb_set MCPWM_IRQHandler,Default_Handler
 302              		.weak	RIT_IRQHandler
 303              		.thumb_set RIT_IRQHandler,Default_Handler
 304              		.weak	ENET_IRQHandler
 305              		.thumb_set ENET_IRQHandler,Default_Handler
 306              		.weak	I2S_IRQHandler
 307              		.thumb_set I2S_IRQHandler,Default_Handler
 308              		.weak	DMA_IRQHandler
 309              		.thumb_set DMA_IRQHandler,Default_Handler
 310              		.weak	CAN_IRQHandler
 311              		.thumb_set CAN_IRQHandler,Default_Handler
 312              		.weak	USB_IRQHandler
 313              		.thumb_set USB_IRQHandler,Default_Handler
 314              		.weak	BOD_IRQHandler
 315              		.thumb_set BOD_IRQHandler,Default_Handler
 316              		.weak	ADC_IRQHandler
 317              		.thumb_set ADC_IRQHandler,Default_Handler
 318              		.weak	EINT3_IRQHandler
 319              		.thumb_set EINT3_IRQHandler,Default_Handler
 320              		.weak	EINT2_IRQHandler
 321              		.thumb_set EINT2_IRQHandler,Default_Handler
 322              		.weak	EINT1_IRQHandler
 323              		.thumb_set EINT1_IRQHandler,Default_Handler
 324              		.weak	EINT0_IRQHandler
 325              		.thumb_set EINT0_IRQHandler,Default_Handler
 326              		.weak	RTC_IRQHandler
 327              		.thumb_set RTC_IRQHandler,Default_Handler
 328              		.weak	PLL0_IRQHandler
 329              		.thumb_set PLL0_IRQHandler,Default_Handler
 330              		.weak	SSP1_IRQHandler
 331              		.thumb_set SSP1_IRQHandler,Default_Handler
 332              		.weak	SSP0_IRQHandler
 333              		.thumb_set SSP0_IRQHandler,Default_Handler
 334              		.weak	SPI_IRQHandler
 335              		.thumb_set SPI_IRQHandler,Default_Handler
 336              		.weak	I2C2_IRQHandler
 337              		.thumb_set I2C2_IRQHandler,Default_Handler
 338              		.weak	I2C1_IRQHandler
 339              		.thumb_set I2C1_IRQHandler,Default_Handler
 340              		.weak	I2C0_IRQHandler
 341              		.thumb_set I2C0_IRQHandler,Default_Handler
 342              		.weak	PWM1_IRQHandler
 343              		.thumb_set PWM1_IRQHandler,Default_Handler
 344              		.weak	UART3_IRQHandler
ARM GAS  C:\Users\STUDENT\AppData\Local\Temp\ccDEhX6s.s 			page 12


 345              		.thumb_set UART3_IRQHandler,Default_Handler
 346              		.weak	UART2_IRQHandler
 347              		.thumb_set UART2_IRQHandler,Default_Handler
 348              		.weak	rcuart_PORT1_IRQHandler
 349              		.thumb_set rcuart_PORT1_IRQHandler,Default_Handler
 350              		.weak	UART0_IRQHandler
 351              		.thumb_set UART0_IRQHandler,Default_Handler
 352              		.weak	TIMER3_IRQHandler
 353              		.thumb_set TIMER3_IRQHandler,Default_Handler
 354              		.weak	TIMER2_IRQHandler
 355              		.thumb_set TIMER2_IRQHandler,Default_Handler
 356              		.weak	TIMER1_IRQHandler
 357              		.thumb_set TIMER1_IRQHandler,Default_Handler
 358              		.weak	rcscheduler_Timer0_IRQHandler
 359              		.thumb_set rcscheduler_Timer0_IRQHandler,Default_Handler
 360              		.weak	WDT_IRQHandler
 361              		.thumb_set WDT_IRQHandler,Default_Handler
 362 0006 00BF     		.text
 363              	.Letext0:
 364              		.section	.debug_info,"",%progbits
 365              	.Ldebug_info0:
 366 0000 24010000 		.4byte	0x124
 367 0004 0400     		.2byte	0x4
 368 0006 00000000 		.4byte	.Ldebug_abbrev0
 369 000a 04       		.byte	0x4
 370 000b 01       		.uleb128 0x1
 371 000c C10D0000 		.4byte	.LASF373
 372 0010 01       		.byte	0x1
 373 0011 64150000 		.4byte	.LASF374
 374 0015 050C0000 		.4byte	.LASF375
 375 0019 00000000 		.4byte	.Ldebug_ranges0+0
 376 001d 00000000 		.4byte	0
 377 0021 00000000 		.4byte	.Ldebug_line0
 378 0025 00000000 		.4byte	.Ldebug_macro0
 379 0029 02       		.uleb128 0x2
 380 002a 0A200000 		.4byte	.LASF376
 381 002e 01       		.byte	0x1
 382 002f 0C       		.byte	0xc
 383 0030 3B000000 		.4byte	0x3b
 384 0034 03       		.uleb128 0x3
 385 0035 04       		.byte	0x4
 386 0036 3A000000 		.4byte	0x3a
 387 003a 04       		.uleb128 0x4
 388 003b 05       		.uleb128 0x5
 389 003c 34000000 		.4byte	0x34
 390 0040 06       		.uleb128 0x6
 391 0041 7F0D0000 		.4byte	.LASF377
 392 0045 01       		.byte	0x1
 393 0046 CB       		.byte	0xcb
 394 0047 00000000 		.4byte	.LFB0
 395 004b 88000000 		.4byte	.LFE0-.LFB0
 396 004f 01       		.uleb128 0x1
 397 0050 9C       		.byte	0x9c
 398 0051 72000000 		.4byte	0x72
 399 0055 07       		.uleb128 0x7
 400 0056 9D050000 		.4byte	.LASF358
 401 005a 01       		.byte	0x1
ARM GAS  C:\Users\STUDENT\AppData\Local\Temp\ccDEhX6s.s 			page 13


 402 005b CE       		.byte	0xce
 403 005c 72000000 		.4byte	0x72
 404 0060 02       		.uleb128 0x2
 405 0061 91       		.byte	0x91
 406 0062 6C       		.sleb128 -20
 407 0063 07       		.uleb128 0x7
 408 0064 DC130000 		.4byte	.LASF359
 409 0068 01       		.byte	0x1
 410 0069 CE       		.byte	0xce
 411 006a 72000000 		.4byte	0x72
 412 006e 02       		.uleb128 0x2
 413 006f 91       		.byte	0x91
 414 0070 68       		.sleb128 -24
 415 0071 00       		.byte	0
 416 0072 03       		.uleb128 0x3
 417 0073 04       		.byte	0x4
 418 0074 78000000 		.4byte	0x78
 419 0078 08       		.uleb128 0x8
 420 0079 04       		.byte	0x4
 421 007a 07       		.byte	0x7
 422 007b 6C1C0000 		.4byte	.LASF370
 423 007f 09       		.uleb128 0x9
 424 0080 7E1C0000 		.4byte	.LASF360
 425 0084 01       		.byte	0x1
 426 0085 F0       		.byte	0xf0
 427 0086 00000000 		.4byte	.LFB1
 428 008a 0C000000 		.4byte	.LFE1-.LFB1
 429 008e 01       		.uleb128 0x1
 430 008f 9C       		.byte	0x9c
 431 0090 0A       		.uleb128 0xa
 432 0091 671E0000 		.4byte	.LASF361
 433 0095 01       		.byte	0x1
 434 0096 0E01     		.2byte	0x10e
 435 0098 00000000 		.4byte	.LFB2
 436 009c 06000000 		.4byte	.LFE2-.LFB2
 437 00a0 01       		.uleb128 0x1
 438 00a1 9C       		.byte	0x9c
 439 00a2 0B       		.uleb128 0xb
 440 00a3 7F0C0000 		.4byte	.LASF362
 441 00a7 01       		.byte	0x1
 442 00a8 16       		.byte	0x16
 443 00a9 78000000 		.4byte	0x78
 444 00ad 0B       		.uleb128 0xb
 445 00ae C2220000 		.4byte	.LASF363
 446 00b2 01       		.byte	0x1
 447 00b3 19       		.byte	0x19
 448 00b4 78000000 		.4byte	0x78
 449 00b8 0B       		.uleb128 0xb
 450 00b9 64040000 		.4byte	.LASF364
 451 00bd 01       		.byte	0x1
 452 00be 1C       		.byte	0x1c
 453 00bf 78000000 		.4byte	0x78
 454 00c3 0B       		.uleb128 0xb
 455 00c4 B7130000 		.4byte	.LASF365
 456 00c8 01       		.byte	0x1
 457 00c9 1F       		.byte	0x1f
 458 00ca 78000000 		.4byte	0x78
ARM GAS  C:\Users\STUDENT\AppData\Local\Temp\ccDEhX6s.s 			page 14


 459 00ce 0B       		.uleb128 0xb
 460 00cf 6D1F0000 		.4byte	.LASF366
 461 00d3 01       		.byte	0x1
 462 00d4 20       		.byte	0x20
 463 00d5 78000000 		.4byte	0x78
 464 00d9 0B       		.uleb128 0xb
 465 00da EA230000 		.4byte	.LASF367
 466 00de 01       		.byte	0x1
 467 00df 23       		.byte	0x23
 468 00e0 78000000 		.4byte	0x78
 469 00e4 0B       		.uleb128 0xb
 470 00e5 CD0F0000 		.4byte	.LASF368
 471 00e9 01       		.byte	0x1
 472 00ea 24       		.byte	0x24
 473 00eb 78000000 		.4byte	0x78
 474 00ef 0B       		.uleb128 0xb
 475 00f0 9F1B0000 		.4byte	.LASF369
 476 00f4 01       		.byte	0x1
 477 00f5 27       		.byte	0x27
 478 00f6 78000000 		.4byte	0x78
 479 00fa 0C       		.uleb128 0xc
 480 00fb 3B000000 		.4byte	0x3b
 481 00ff 0A010000 		.4byte	0x10a
 482 0103 0D       		.uleb128 0xd
 483 0104 0A010000 		.4byte	0x10a
 484 0108 32       		.byte	0x32
 485 0109 00       		.byte	0
 486 010a 08       		.uleb128 0x8
 487 010b 04       		.byte	0x4
 488 010c 07       		.byte	0x7
 489 010d 18130000 		.4byte	.LASF371
 490 0111 0E       		.uleb128 0xe
 491 0112 FB130000 		.4byte	.LASF372
 492 0116 01       		.byte	0x1
 493 0117 7B       		.byte	0x7b
 494 0118 22010000 		.4byte	0x122
 495 011c 05       		.uleb128 0x5
 496 011d 03       		.byte	0x3
 497 011e 00000000 		.4byte	g_pfnVectors
 498 0122 05       		.uleb128 0x5
 499 0123 FA000000 		.4byte	0xfa
 500 0127 00       		.byte	0
 501              		.section	.debug_abbrev,"",%progbits
 502              	.Ldebug_abbrev0:
 503 0000 01       		.uleb128 0x1
 504 0001 11       		.uleb128 0x11
 505 0002 01       		.byte	0x1
 506 0003 25       		.uleb128 0x25
 507 0004 0E       		.uleb128 0xe
 508 0005 13       		.uleb128 0x13
 509 0006 0B       		.uleb128 0xb
 510 0007 03       		.uleb128 0x3
 511 0008 0E       		.uleb128 0xe
 512 0009 1B       		.uleb128 0x1b
 513 000a 0E       		.uleb128 0xe
 514 000b 55       		.uleb128 0x55
 515 000c 17       		.uleb128 0x17
ARM GAS  C:\Users\STUDENT\AppData\Local\Temp\ccDEhX6s.s 			page 15


 516 000d 11       		.uleb128 0x11
 517 000e 01       		.uleb128 0x1
 518 000f 10       		.uleb128 0x10
 519 0010 17       		.uleb128 0x17
 520 0011 9942     		.uleb128 0x2119
 521 0013 17       		.uleb128 0x17
 522 0014 00       		.byte	0
 523 0015 00       		.byte	0
 524 0016 02       		.uleb128 0x2
 525 0017 16       		.uleb128 0x16
 526 0018 00       		.byte	0
 527 0019 03       		.uleb128 0x3
 528 001a 0E       		.uleb128 0xe
 529 001b 3A       		.uleb128 0x3a
 530 001c 0B       		.uleb128 0xb
 531 001d 3B       		.uleb128 0x3b
 532 001e 0B       		.uleb128 0xb
 533 001f 49       		.uleb128 0x49
 534 0020 13       		.uleb128 0x13
 535 0021 00       		.byte	0
 536 0022 00       		.byte	0
 537 0023 03       		.uleb128 0x3
 538 0024 0F       		.uleb128 0xf
 539 0025 00       		.byte	0
 540 0026 0B       		.uleb128 0xb
 541 0027 0B       		.uleb128 0xb
 542 0028 49       		.uleb128 0x49
 543 0029 13       		.uleb128 0x13
 544 002a 00       		.byte	0
 545 002b 00       		.byte	0
 546 002c 04       		.uleb128 0x4
 547 002d 15       		.uleb128 0x15
 548 002e 00       		.byte	0
 549 002f 27       		.uleb128 0x27
 550 0030 19       		.uleb128 0x19
 551 0031 00       		.byte	0
 552 0032 00       		.byte	0
 553 0033 05       		.uleb128 0x5
 554 0034 26       		.uleb128 0x26
 555 0035 00       		.byte	0
 556 0036 49       		.uleb128 0x49
 557 0037 13       		.uleb128 0x13
 558 0038 00       		.byte	0
 559 0039 00       		.byte	0
 560 003a 06       		.uleb128 0x6
 561 003b 2E       		.uleb128 0x2e
 562 003c 01       		.byte	0x1
 563 003d 3F       		.uleb128 0x3f
 564 003e 19       		.uleb128 0x19
 565 003f 03       		.uleb128 0x3
 566 0040 0E       		.uleb128 0xe
 567 0041 3A       		.uleb128 0x3a
 568 0042 0B       		.uleb128 0xb
 569 0043 3B       		.uleb128 0x3b
 570 0044 0B       		.uleb128 0xb
 571 0045 27       		.uleb128 0x27
 572 0046 19       		.uleb128 0x19
ARM GAS  C:\Users\STUDENT\AppData\Local\Temp\ccDEhX6s.s 			page 16


 573 0047 11       		.uleb128 0x11
 574 0048 01       		.uleb128 0x1
 575 0049 12       		.uleb128 0x12
 576 004a 06       		.uleb128 0x6
 577 004b 40       		.uleb128 0x40
 578 004c 18       		.uleb128 0x18
 579 004d 9642     		.uleb128 0x2116
 580 004f 19       		.uleb128 0x19
 581 0050 01       		.uleb128 0x1
 582 0051 13       		.uleb128 0x13
 583 0052 00       		.byte	0
 584 0053 00       		.byte	0
 585 0054 07       		.uleb128 0x7
 586 0055 34       		.uleb128 0x34
 587 0056 00       		.byte	0
 588 0057 03       		.uleb128 0x3
 589 0058 0E       		.uleb128 0xe
 590 0059 3A       		.uleb128 0x3a
 591 005a 0B       		.uleb128 0xb
 592 005b 3B       		.uleb128 0x3b
 593 005c 0B       		.uleb128 0xb
 594 005d 49       		.uleb128 0x49
 595 005e 13       		.uleb128 0x13
 596 005f 02       		.uleb128 0x2
 597 0060 18       		.uleb128 0x18
 598 0061 00       		.byte	0
 599 0062 00       		.byte	0
 600 0063 08       		.uleb128 0x8
 601 0064 24       		.uleb128 0x24
 602 0065 00       		.byte	0
 603 0066 0B       		.uleb128 0xb
 604 0067 0B       		.uleb128 0xb
 605 0068 3E       		.uleb128 0x3e
 606 0069 0B       		.uleb128 0xb
 607 006a 03       		.uleb128 0x3
 608 006b 0E       		.uleb128 0xe
 609 006c 00       		.byte	0
 610 006d 00       		.byte	0
 611 006e 09       		.uleb128 0x9
 612 006f 2E       		.uleb128 0x2e
 613 0070 00       		.byte	0
 614 0071 3F       		.uleb128 0x3f
 615 0072 19       		.uleb128 0x19
 616 0073 03       		.uleb128 0x3
 617 0074 0E       		.uleb128 0xe
 618 0075 3A       		.uleb128 0x3a
 619 0076 0B       		.uleb128 0xb
 620 0077 3B       		.uleb128 0x3b
 621 0078 0B       		.uleb128 0xb
 622 0079 27       		.uleb128 0x27
 623 007a 19       		.uleb128 0x19
 624 007b 11       		.uleb128 0x11
 625 007c 01       		.uleb128 0x1
 626 007d 12       		.uleb128 0x12
 627 007e 06       		.uleb128 0x6
 628 007f 40       		.uleb128 0x40
 629 0080 18       		.uleb128 0x18
ARM GAS  C:\Users\STUDENT\AppData\Local\Temp\ccDEhX6s.s 			page 17


 630 0081 9742     		.uleb128 0x2117
 631 0083 19       		.uleb128 0x19
 632 0084 00       		.byte	0
 633 0085 00       		.byte	0
 634 0086 0A       		.uleb128 0xa
 635 0087 2E       		.uleb128 0x2e
 636 0088 00       		.byte	0
 637 0089 3F       		.uleb128 0x3f
 638 008a 19       		.uleb128 0x19
 639 008b 03       		.uleb128 0x3
 640 008c 0E       		.uleb128 0xe
 641 008d 3A       		.uleb128 0x3a
 642 008e 0B       		.uleb128 0xb
 643 008f 3B       		.uleb128 0x3b
 644 0090 05       		.uleb128 0x5
 645 0091 27       		.uleb128 0x27
 646 0092 19       		.uleb128 0x19
 647 0093 11       		.uleb128 0x11
 648 0094 01       		.uleb128 0x1
 649 0095 12       		.uleb128 0x12
 650 0096 06       		.uleb128 0x6
 651 0097 40       		.uleb128 0x40
 652 0098 18       		.uleb128 0x18
 653 0099 9742     		.uleb128 0x2117
 654 009b 19       		.uleb128 0x19
 655 009c 00       		.byte	0
 656 009d 00       		.byte	0
 657 009e 0B       		.uleb128 0xb
 658 009f 34       		.uleb128 0x34
 659 00a0 00       		.byte	0
 660 00a1 03       		.uleb128 0x3
 661 00a2 0E       		.uleb128 0xe
 662 00a3 3A       		.uleb128 0x3a
 663 00a4 0B       		.uleb128 0xb
 664 00a5 3B       		.uleb128 0x3b
 665 00a6 0B       		.uleb128 0xb
 666 00a7 49       		.uleb128 0x49
 667 00a8 13       		.uleb128 0x13
 668 00a9 3F       		.uleb128 0x3f
 669 00aa 19       		.uleb128 0x19
 670 00ab 3C       		.uleb128 0x3c
 671 00ac 19       		.uleb128 0x19
 672 00ad 00       		.byte	0
 673 00ae 00       		.byte	0
 674 00af 0C       		.uleb128 0xc
 675 00b0 01       		.uleb128 0x1
 676 00b1 01       		.byte	0x1
 677 00b2 49       		.uleb128 0x49
 678 00b3 13       		.uleb128 0x13
 679 00b4 01       		.uleb128 0x1
 680 00b5 13       		.uleb128 0x13
 681 00b6 00       		.byte	0
 682 00b7 00       		.byte	0
 683 00b8 0D       		.uleb128 0xd
 684 00b9 21       		.uleb128 0x21
 685 00ba 00       		.byte	0
 686 00bb 49       		.uleb128 0x49
ARM GAS  C:\Users\STUDENT\AppData\Local\Temp\ccDEhX6s.s 			page 18


 687 00bc 13       		.uleb128 0x13
 688 00bd 2F       		.uleb128 0x2f
 689 00be 0B       		.uleb128 0xb
 690 00bf 00       		.byte	0
 691 00c0 00       		.byte	0
 692 00c1 0E       		.uleb128 0xe
 693 00c2 34       		.uleb128 0x34
 694 00c3 00       		.byte	0
 695 00c4 03       		.uleb128 0x3
 696 00c5 0E       		.uleb128 0xe
 697 00c6 3A       		.uleb128 0x3a
 698 00c7 0B       		.uleb128 0xb
 699 00c8 3B       		.uleb128 0x3b
 700 00c9 0B       		.uleb128 0xb
 701 00ca 49       		.uleb128 0x49
 702 00cb 13       		.uleb128 0x13
 703 00cc 3F       		.uleb128 0x3f
 704 00cd 19       		.uleb128 0x19
 705 00ce 02       		.uleb128 0x2
 706 00cf 18       		.uleb128 0x18
 707 00d0 00       		.byte	0
 708 00d1 00       		.byte	0
 709 00d2 00       		.byte	0
 710              		.section	.debug_aranges,"",%progbits
 711 0000 2C000000 		.4byte	0x2c
 712 0004 0200     		.2byte	0x2
 713 0006 00000000 		.4byte	.Ldebug_info0
 714 000a 04       		.byte	0x4
 715 000b 00       		.byte	0
 716 000c 0000     		.2byte	0
 717 000e 0000     		.2byte	0
 718 0010 00000000 		.4byte	.LFB0
 719 0014 88000000 		.4byte	.LFE0-.LFB0
 720 0018 00000000 		.4byte	.LFB1
 721 001c 0C000000 		.4byte	.LFE1-.LFB1
 722 0020 00000000 		.4byte	.LFB2
 723 0024 06000000 		.4byte	.LFE2-.LFB2
 724 0028 00000000 		.4byte	0
 725 002c 00000000 		.4byte	0
 726              		.section	.debug_ranges,"",%progbits
 727              	.Ldebug_ranges0:
 728 0000 00000000 		.4byte	.LFB0
 729 0004 88000000 		.4byte	.LFE0
 730 0008 00000000 		.4byte	.LFB1
 731 000c 0C000000 		.4byte	.LFE1
 732 0010 00000000 		.4byte	.LFB2
 733 0014 06000000 		.4byte	.LFE2
 734 0018 00000000 		.4byte	0
 735 001c 00000000 		.4byte	0
 736              		.section	.debug_macro,"",%progbits
 737              	.Ldebug_macro0:
 738 0000 0400     		.2byte	0x4
 739 0002 02       		.byte	0x2
 740 0003 00000000 		.4byte	.Ldebug_line0
 741 0007 07       		.byte	0x7
 742 0008 00000000 		.4byte	.Ldebug_macro1
 743 000c 03       		.byte	0x3
ARM GAS  C:\Users\STUDENT\AppData\Local\Temp\ccDEhX6s.s 			page 19


 744 000d 00       		.uleb128 0
 745 000e 01       		.uleb128 0x1
 746 000f 05       		.byte	0x5
 747 0010 08       		.uleb128 0x8
 748 0011 151F0000 		.4byte	.LASF355
 749 0015 05       		.byte	0x5
 750 0016 0F       		.uleb128 0xf
 751 0017 FF1D0000 		.4byte	.LASF356
 752 001b 05       		.byte	0x5
 753 001c 10       		.uleb128 0x10
 754 001d 3A200000 		.4byte	.LASF357
 755 0021 04       		.byte	0x4
 756 0022 00       		.byte	0
 757              		.section	.debug_macro,"G",%progbits,wm4.0.c0d9c46791312c607b68c96c4ad07fb1,comdat
 758              	.Ldebug_macro1:
 759 0000 0400     		.2byte	0x4
 760 0002 00       		.byte	0
 761 0003 05       		.byte	0x5
 762 0004 00       		.uleb128 0
 763 0005 4F150000 		.4byte	.LASF0
 764 0009 05       		.byte	0x5
 765 000a 00       		.uleb128 0
 766 000b 29040000 		.4byte	.LASF1
 767 000f 05       		.byte	0x5
 768 0010 00       		.uleb128 0
 769 0011 D1130000 		.4byte	.LASF2
 770 0015 05       		.byte	0x5
 771 0016 00       		.uleb128 0
 772 0017 0D0D0000 		.4byte	.LASF3
 773 001b 05       		.byte	0x5
 774 001c 00       		.uleb128 0
 775 001d A8110000 		.4byte	.LASF4
 776 0021 05       		.byte	0x5
 777 0022 00       		.uleb128 0
 778 0023 C9220000 		.4byte	.LASF5
 779 0027 05       		.byte	0x5
 780 0028 00       		.uleb128 0
 781 0029 D91A0000 		.4byte	.LASF6
 782 002d 05       		.byte	0x5
 783 002e 00       		.uleb128 0
 784 002f BA020000 		.4byte	.LASF7
 785 0033 05       		.byte	0x5
 786 0034 00       		.uleb128 0
 787 0035 A5150000 		.4byte	.LASF8
 788 0039 05       		.byte	0x5
 789 003a 00       		.uleb128 0
 790 003b 26170000 		.4byte	.LASF9
 791 003f 05       		.byte	0x5
 792 0040 00       		.uleb128 0
 793 0041 E5210000 		.4byte	.LASF10
 794 0045 05       		.byte	0x5
 795 0046 00       		.uleb128 0
 796 0047 021F0000 		.4byte	.LASF11
 797 004b 05       		.byte	0x5
 798 004c 00       		.uleb128 0
 799 004d 92220000 		.4byte	.LASF12
 800 0051 05       		.byte	0x5
ARM GAS  C:\Users\STUDENT\AppData\Local\Temp\ccDEhX6s.s 			page 20


 801 0052 00       		.uleb128 0
 802 0053 88120000 		.4byte	.LASF13
 803 0057 05       		.byte	0x5
 804 0058 00       		.uleb128 0
 805 0059 AF1D0000 		.4byte	.LASF14
 806 005d 05       		.byte	0x5
 807 005e 00       		.uleb128 0
 808 005f AC0B0000 		.4byte	.LASF15
 809 0063 05       		.byte	0x5
 810 0064 00       		.uleb128 0
 811 0065 BA0F0000 		.4byte	.LASF16
 812 0069 05       		.byte	0x5
 813 006a 00       		.uleb128 0
 814 006b B4190000 		.4byte	.LASF17
 815 006f 05       		.byte	0x5
 816 0070 00       		.uleb128 0
 817 0071 1F0A0000 		.4byte	.LASF18
 818 0075 05       		.byte	0x5
 819 0076 00       		.uleb128 0
 820 0077 69060000 		.4byte	.LASF19
 821 007b 05       		.byte	0x5
 822 007c 00       		.uleb128 0
 823 007d 6D000000 		.4byte	.LASF20
 824 0081 05       		.byte	0x5
 825 0082 00       		.uleb128 0
 826 0083 66200000 		.4byte	.LASF21
 827 0087 05       		.byte	0x5
 828 0088 00       		.uleb128 0
 829 0089 15140000 		.4byte	.LASF22
 830 008d 05       		.byte	0x5
 831 008e 00       		.uleb128 0
 832 008f 7E1A0000 		.4byte	.LASF23
 833 0093 05       		.byte	0x5
 834 0094 00       		.uleb128 0
 835 0095 380F0000 		.4byte	.LASF24
 836 0099 05       		.byte	0x5
 837 009a 00       		.uleb128 0
 838 009b 301A0000 		.4byte	.LASF25
 839 009f 05       		.byte	0x5
 840 00a0 00       		.uleb128 0
 841 00a1 F9070000 		.4byte	.LASF26
 842 00a5 05       		.byte	0x5
 843 00a6 00       		.uleb128 0
 844 00a7 77080000 		.4byte	.LASF27
 845 00ab 05       		.byte	0x5
 846 00ac 00       		.uleb128 0
 847 00ad 09010000 		.4byte	.LASF28
 848 00b1 05       		.byte	0x5
 849 00b2 00       		.uleb128 0
 850 00b3 DA040000 		.4byte	.LASF29
 851 00b7 05       		.byte	0x5
 852 00b8 00       		.uleb128 0
 853 00b9 3C1E0000 		.4byte	.LASF30
 854 00bd 05       		.byte	0x5
 855 00be 00       		.uleb128 0
 856 00bf 771E0000 		.4byte	.LASF31
 857 00c3 05       		.byte	0x5
ARM GAS  C:\Users\STUDENT\AppData\Local\Temp\ccDEhX6s.s 			page 21


 858 00c4 00       		.uleb128 0
 859 00c5 9B1A0000 		.4byte	.LASF32
 860 00c9 05       		.byte	0x5
 861 00ca 00       		.uleb128 0
 862 00cb 9C0F0000 		.4byte	.LASF33
 863 00cf 05       		.byte	0x5
 864 00d0 00       		.uleb128 0
 865 00d1 260B0000 		.4byte	.LASF34
 866 00d5 05       		.byte	0x5
 867 00d6 00       		.uleb128 0
 868 00d7 520F0000 		.4byte	.LASF35
 869 00db 05       		.byte	0x5
 870 00dc 00       		.uleb128 0
 871 00dd 4A030000 		.4byte	.LASF36
 872 00e1 05       		.byte	0x5
 873 00e2 00       		.uleb128 0
 874 00e3 3D060000 		.4byte	.LASF37
 875 00e7 05       		.byte	0x5
 876 00e8 00       		.uleb128 0
 877 00e9 DF070000 		.4byte	.LASF38
 878 00ed 05       		.byte	0x5
 879 00ee 00       		.uleb128 0
 880 00ef D7090000 		.4byte	.LASF39
 881 00f3 05       		.byte	0x5
 882 00f4 00       		.uleb128 0
 883 00f5 DD080000 		.4byte	.LASF40
 884 00f9 05       		.byte	0x5
 885 00fa 00       		.uleb128 0
 886 00fb 81000000 		.4byte	.LASF41
 887 00ff 05       		.byte	0x5
 888 0100 00       		.uleb128 0
 889 0101 F5050000 		.4byte	.LASF42
 890 0105 05       		.byte	0x5
 891 0106 00       		.uleb128 0
 892 0107 771F0000 		.4byte	.LASF43
 893 010b 05       		.byte	0x5
 894 010c 00       		.uleb128 0
 895 010d 47170000 		.4byte	.LASF44
 896 0111 05       		.byte	0x5
 897 0112 00       		.uleb128 0
 898 0113 39020000 		.4byte	.LASF45
 899 0117 05       		.byte	0x5
 900 0118 00       		.uleb128 0
 901 0119 70190000 		.4byte	.LASF46
 902 011d 05       		.byte	0x5
 903 011e 00       		.uleb128 0
 904 011f F5080000 		.4byte	.LASF47
 905 0123 05       		.byte	0x5
 906 0124 00       		.uleb128 0
 907 0125 C8200000 		.4byte	.LASF48
 908 0129 05       		.byte	0x5
 909 012a 00       		.uleb128 0
 910 012b B61A0000 		.4byte	.LASF49
 911 012f 05       		.byte	0x5
 912 0130 00       		.uleb128 0
 913 0131 C7230000 		.4byte	.LASF50
 914 0135 05       		.byte	0x5
ARM GAS  C:\Users\STUDENT\AppData\Local\Temp\ccDEhX6s.s 			page 22


 915 0136 00       		.uleb128 0
 916 0137 F7140000 		.4byte	.LASF51
 917 013b 05       		.byte	0x5
 918 013c 00       		.uleb128 0
 919 013d 1E010000 		.4byte	.LASF52
 920 0141 05       		.byte	0x5
 921 0142 00       		.uleb128 0
 922 0143 70050000 		.4byte	.LASF53
 923 0147 05       		.byte	0x5
 924 0148 00       		.uleb128 0
 925 0149 E4130000 		.4byte	.LASF54
 926 014d 05       		.byte	0x5
 927 014e 00       		.uleb128 0
 928 014f 14090000 		.4byte	.LASF55
 929 0153 05       		.byte	0x5
 930 0154 00       		.uleb128 0
 931 0155 01210000 		.4byte	.LASF56
 932 0159 05       		.byte	0x5
 933 015a 00       		.uleb128 0
 934 015b 37120000 		.4byte	.LASF57
 935 015f 05       		.byte	0x5
 936 0160 00       		.uleb128 0
 937 0161 1B1E0000 		.4byte	.LASF58
 938 0165 05       		.byte	0x5
 939 0166 00       		.uleb128 0
 940 0167 19210000 		.4byte	.LASF59
 941 016b 05       		.byte	0x5
 942 016c 00       		.uleb128 0
 943 016d 7F160000 		.4byte	.LASF60
 944 0171 05       		.byte	0x5
 945 0172 00       		.uleb128 0
 946 0173 8C230000 		.4byte	.LASF61
 947 0177 05       		.byte	0x5
 948 0178 00       		.uleb128 0
 949 0179 A4050000 		.4byte	.LASF62
 950 017d 05       		.byte	0x5
 951 017e 00       		.uleb128 0
 952 017f C41C0000 		.4byte	.LASF63
 953 0183 05       		.byte	0x5
 954 0184 00       		.uleb128 0
 955 0185 12200000 		.4byte	.LASF64
 956 0189 05       		.byte	0x5
 957 018a 00       		.uleb128 0
 958 018b 52090000 		.4byte	.LASF65
 959 018f 05       		.byte	0x5
 960 0190 00       		.uleb128 0
 961 0191 191C0000 		.4byte	.LASF66
 962 0195 05       		.byte	0x5
 963 0196 00       		.uleb128 0
 964 0197 66110000 		.4byte	.LASF67
 965 019b 05       		.byte	0x5
 966 019c 00       		.uleb128 0
 967 019d A0190000 		.4byte	.LASF68
 968 01a1 05       		.byte	0x5
 969 01a2 00       		.uleb128 0
 970 01a3 14110000 		.4byte	.LASF69
 971 01a7 05       		.byte	0x5
ARM GAS  C:\Users\STUDENT\AppData\Local\Temp\ccDEhX6s.s 			page 23


 972 01a8 00       		.uleb128 0
 973 01a9 A9220000 		.4byte	.LASF70
 974 01ad 05       		.byte	0x5
 975 01ae 00       		.uleb128 0
 976 01af D2150000 		.4byte	.LASF71
 977 01b3 05       		.byte	0x5
 978 01b4 00       		.uleb128 0
 979 01b5 CD020000 		.4byte	.LASF72
 980 01b9 05       		.byte	0x5
 981 01ba 00       		.uleb128 0
 982 01bb 421D0000 		.4byte	.LASF73
 983 01bf 05       		.byte	0x5
 984 01c0 00       		.uleb128 0
 985 01c1 AF040000 		.4byte	.LASF74
 986 01c5 05       		.byte	0x5
 987 01c6 00       		.uleb128 0
 988 01c7 6F0C0000 		.4byte	.LASF75
 989 01cb 05       		.byte	0x5
 990 01cc 00       		.uleb128 0
 991 01cd 35190000 		.4byte	.LASF76
 992 01d1 05       		.byte	0x5
 993 01d2 00       		.uleb128 0
 994 01d3 710A0000 		.4byte	.LASF77
 995 01d7 05       		.byte	0x5
 996 01d8 00       		.uleb128 0
 997 01d9 84090000 		.4byte	.LASF78
 998 01dd 05       		.byte	0x5
 999 01de 00       		.uleb128 0
 1000 01df E2180000 		.4byte	.LASF79
 1001 01e3 05       		.byte	0x5
 1002 01e4 00       		.uleb128 0
 1003 01e5 F9150000 		.4byte	.LASF80
 1004 01e9 05       		.byte	0x5
 1005 01ea 00       		.uleb128 0
 1006 01eb 32030000 		.4byte	.LASF81
 1007 01ef 05       		.byte	0x5
 1008 01f0 00       		.uleb128 0
 1009 01f1 301C0000 		.4byte	.LASF82
 1010 01f5 05       		.byte	0x5
 1011 01f6 00       		.uleb128 0
 1012 01f7 75200000 		.4byte	.LASF83
 1013 01fb 05       		.byte	0x5
 1014 01fc 00       		.uleb128 0
 1015 01fd 79210000 		.4byte	.LASF84
 1016 0201 05       		.byte	0x5
 1017 0202 00       		.uleb128 0
 1018 0203 DE120000 		.4byte	.LASF85
 1019 0207 05       		.byte	0x5
 1020 0208 00       		.uleb128 0
 1021 0209 09240000 		.4byte	.LASF86
 1022 020d 05       		.byte	0x5
 1023 020e 00       		.uleb128 0
 1024 020f 9D0E0000 		.4byte	.LASF87
 1025 0213 05       		.byte	0x5
 1026 0214 00       		.uleb128 0
 1027 0215 500A0000 		.4byte	.LASF88
 1028 0219 05       		.byte	0x5
ARM GAS  C:\Users\STUDENT\AppData\Local\Temp\ccDEhX6s.s 			page 24


 1029 021a 00       		.uleb128 0
 1030 021b A8070000 		.4byte	.LASF89
 1031 021f 05       		.byte	0x5
 1032 0220 00       		.uleb128 0
 1033 0221 2D140000 		.4byte	.LASF90
 1034 0225 05       		.byte	0x5
 1035 0226 00       		.uleb128 0
 1036 0227 E80C0000 		.4byte	.LASF91
 1037 022b 05       		.byte	0x5
 1038 022c 00       		.uleb128 0
 1039 022d 69240000 		.4byte	.LASF92
 1040 0231 05       		.byte	0x5
 1041 0232 00       		.uleb128 0
 1042 0233 C30C0000 		.4byte	.LASF93
 1043 0237 05       		.byte	0x5
 1044 0238 00       		.uleb128 0
 1045 0239 AC170000 		.4byte	.LASF94
 1046 023d 05       		.byte	0x5
 1047 023e 00       		.uleb128 0
 1048 023f 16100000 		.4byte	.LASF95
 1049 0243 05       		.byte	0x5
 1050 0244 00       		.uleb128 0
 1051 0245 3C1B0000 		.4byte	.LASF96
 1052 0249 05       		.byte	0x5
 1053 024a 00       		.uleb128 0
 1054 024b CD0A0000 		.4byte	.LASF97
 1055 024f 05       		.byte	0x5
 1056 0250 00       		.uleb128 0
 1057 0251 B8050000 		.4byte	.LASF98
 1058 0255 05       		.byte	0x5
 1059 0256 00       		.uleb128 0
 1060 0257 F4000000 		.4byte	.LASF99
 1061 025b 05       		.byte	0x5
 1062 025c 00       		.uleb128 0
 1063 025d 99120000 		.4byte	.LASF100
 1064 0261 05       		.byte	0x5
 1065 0262 00       		.uleb128 0
 1066 0263 B8230000 		.4byte	.LASF101
 1067 0267 05       		.byte	0x5
 1068 0268 00       		.uleb128 0
 1069 0269 A4080000 		.4byte	.LASF102
 1070 026d 05       		.byte	0x5
 1071 026e 00       		.uleb128 0
 1072 026f 90190000 		.4byte	.LASF103
 1073 0273 05       		.byte	0x5
 1074 0274 00       		.uleb128 0
 1075 0275 BD000000 		.4byte	.LASF104
 1076 0279 05       		.byte	0x5
 1077 027a 00       		.uleb128 0
 1078 027b 69170000 		.4byte	.LASF105
 1079 027f 05       		.byte	0x5
 1080 0280 00       		.uleb128 0
 1081 0281 98240000 		.4byte	.LASF106
 1082 0285 05       		.byte	0x5
 1083 0286 00       		.uleb128 0
 1084 0287 E21C0000 		.4byte	.LASF107
 1085 028b 05       		.byte	0x5
ARM GAS  C:\Users\STUDENT\AppData\Local\Temp\ccDEhX6s.s 			page 25


 1086 028c 00       		.uleb128 0
 1087 028d 06020000 		.4byte	.LASF108
 1088 0291 05       		.byte	0x5
 1089 0292 00       		.uleb128 0
 1090 0293 F6100000 		.4byte	.LASF109
 1091 0297 05       		.byte	0x5
 1092 0298 00       		.uleb128 0
 1093 0299 510C0000 		.4byte	.LASF110
 1094 029d 05       		.byte	0x5
 1095 029e 00       		.uleb128 0
 1096 029f 7E140000 		.4byte	.LASF111
 1097 02a3 05       		.byte	0x5
 1098 02a4 00       		.uleb128 0
 1099 02a5 00000000 		.4byte	.LASF112
 1100 02a9 05       		.byte	0x5
 1101 02aa 00       		.uleb128 0
 1102 02ab 6E070000 		.4byte	.LASF113
 1103 02af 05       		.byte	0x5
 1104 02b0 00       		.uleb128 0
 1105 02b1 C11D0000 		.4byte	.LASF114
 1106 02b5 05       		.byte	0x5
 1107 02b6 00       		.uleb128 0
 1108 02b7 630B0000 		.4byte	.LASF115
 1109 02bb 05       		.byte	0x5
 1110 02bc 00       		.uleb128 0
 1111 02bd 8E070000 		.4byte	.LASF116
 1112 02c1 05       		.byte	0x5
 1113 02c2 00       		.uleb128 0
 1114 02c3 EA010000 		.4byte	.LASF117
 1115 02c7 05       		.byte	0x5
 1116 02c8 00       		.uleb128 0
 1117 02c9 711B0000 		.4byte	.LASF118
 1118 02cd 05       		.byte	0x5
 1119 02ce 00       		.uleb128 0
 1120 02cf 7D150000 		.4byte	.LASF119
 1121 02d3 05       		.byte	0x5
 1122 02d4 00       		.uleb128 0
 1123 02d5 5A190000 		.4byte	.LASF120
 1124 02d9 05       		.byte	0x5
 1125 02da 00       		.uleb128 0
 1126 02db 1E0D0000 		.4byte	.LASF121
 1127 02df 05       		.byte	0x5
 1128 02e0 00       		.uleb128 0
 1129 02e1 DA010000 		.4byte	.LASF122
 1130 02e5 05       		.byte	0x5
 1131 02e6 00       		.uleb128 0
 1132 02e7 BD130000 		.4byte	.LASF123
 1133 02eb 05       		.byte	0x5
 1134 02ec 00       		.uleb128 0
 1135 02ed C30B0000 		.4byte	.LASF124
 1136 02f1 05       		.byte	0x5
 1137 02f2 00       		.uleb128 0
 1138 02f3 C00E0000 		.4byte	.LASF125
 1139 02f7 05       		.byte	0x5
 1140 02f8 00       		.uleb128 0
 1141 02f9 B7210000 		.4byte	.LASF126
 1142 02fd 05       		.byte	0x5
ARM GAS  C:\Users\STUDENT\AppData\Local\Temp\ccDEhX6s.s 			page 26


 1143 02fe 00       		.uleb128 0
 1144 02ff 80100000 		.4byte	.LASF127
 1145 0303 05       		.byte	0x5
 1146 0304 00       		.uleb128 0
 1147 0305 3B0C0000 		.4byte	.LASF128
 1148 0309 05       		.byte	0x5
 1149 030a 00       		.uleb128 0
 1150 030b 21120000 		.4byte	.LASF129
 1151 030f 05       		.byte	0x5
 1152 0310 00       		.uleb128 0
 1153 0311 23180000 		.4byte	.LASF130
 1154 0315 05       		.byte	0x5
 1155 0316 00       		.uleb128 0
 1156 0317 26050000 		.4byte	.LASF131
 1157 031b 05       		.byte	0x5
 1158 031c 00       		.uleb128 0
 1159 031d 091A0000 		.4byte	.LASF132
 1160 0321 05       		.byte	0x5
 1161 0322 00       		.uleb128 0
 1162 0323 DE190000 		.4byte	.LASF133
 1163 0327 05       		.byte	0x5
 1164 0328 00       		.uleb128 0
 1165 0329 42070000 		.4byte	.LASF134
 1166 032d 05       		.byte	0x5
 1167 032e 00       		.uleb128 0
 1168 032f 2B1D0000 		.4byte	.LASF135
 1169 0333 05       		.byte	0x5
 1170 0334 00       		.uleb128 0
 1171 0335 5F0E0000 		.4byte	.LASF136
 1172 0339 05       		.byte	0x5
 1173 033a 00       		.uleb128 0
 1174 033b 4A050000 		.4byte	.LASF137
 1175 033f 05       		.byte	0x5
 1176 0340 00       		.uleb128 0
 1177 0341 FC110000 		.4byte	.LASF138
 1178 0345 05       		.byte	0x5
 1179 0346 00       		.uleb128 0
 1180 0347 94170000 		.4byte	.LASF139
 1181 034b 05       		.byte	0x5
 1182 034c 00       		.uleb128 0
 1183 034d C3240000 		.4byte	.LASF140
 1184 0351 05       		.byte	0x5
 1185 0352 00       		.uleb128 0
 1186 0353 3A150000 		.4byte	.LASF141
 1187 0357 05       		.byte	0x5
 1188 0358 00       		.uleb128 0
 1189 0359 C7190000 		.4byte	.LASF142
 1190 035d 05       		.byte	0x5
 1191 035e 00       		.uleb128 0
 1192 035f E5110000 		.4byte	.LASF143
 1193 0363 05       		.byte	0x5
 1194 0364 00       		.uleb128 0
 1195 0365 95010000 		.4byte	.LASF144
 1196 0369 05       		.byte	0x5
 1197 036a 00       		.uleb128 0
 1198 036b 500D0000 		.4byte	.LASF145
 1199 036f 05       		.byte	0x5
ARM GAS  C:\Users\STUDENT\AppData\Local\Temp\ccDEhX6s.s 			page 27


 1200 0370 00       		.uleb128 0
 1201 0371 B51E0000 		.4byte	.LASF146
 1202 0375 05       		.byte	0x5
 1203 0376 00       		.uleb128 0
 1204 0377 81130000 		.4byte	.LASF147
 1205 037b 05       		.byte	0x5
 1206 037c 00       		.uleb128 0
 1207 037d CE100000 		.4byte	.LASF148
 1208 0381 05       		.byte	0x5
 1209 0382 00       		.uleb128 0
 1210 0383 C6030000 		.4byte	.LASF149
 1211 0387 05       		.byte	0x5
 1212 0388 00       		.uleb128 0
 1213 0389 9F210000 		.4byte	.LASF150
 1214 038d 05       		.byte	0x5
 1215 038e 00       		.uleb128 0
 1216 038f 921C0000 		.4byte	.LASF151
 1217 0393 05       		.byte	0x5
 1218 0394 00       		.uleb128 0
 1219 0395 A1160000 		.4byte	.LASF152
 1220 0399 05       		.byte	0x5
 1221 039a 00       		.uleb128 0
 1222 039b DD030000 		.4byte	.LASF153
 1223 039f 05       		.byte	0x5
 1224 03a0 00       		.uleb128 0
 1225 03a1 59120000 		.4byte	.LASF154
 1226 03a5 05       		.byte	0x5
 1227 03a6 00       		.uleb128 0
 1228 03a7 27060000 		.4byte	.LASF155
 1229 03ab 05       		.byte	0x5
 1230 03ac 00       		.uleb128 0
 1231 03ad 661D0000 		.4byte	.LASF156
 1232 03b1 05       		.byte	0x5
 1233 03b2 00       		.uleb128 0
 1234 03b3 51040000 		.4byte	.LASF157
 1235 03b7 05       		.byte	0x5
 1236 03b8 00       		.uleb128 0
 1237 03b9 89040000 		.4byte	.LASF158
 1238 03bd 05       		.byte	0x5
 1239 03be 00       		.uleb128 0
 1240 03bf 770E0000 		.4byte	.LASF159
 1241 03c3 05       		.byte	0x5
 1242 03c4 00       		.uleb128 0
 1243 03c5 C5160000 		.4byte	.LASF160
 1244 03c9 05       		.byte	0x5
 1245 03ca 00       		.uleb128 0
 1246 03cb 3E130000 		.4byte	.LASF161
 1247 03cf 05       		.byte	0x5
 1248 03d0 00       		.uleb128 0
 1249 03d1 511E0000 		.4byte	.LASF162
 1250 03d5 05       		.byte	0x5
 1251 03d6 00       		.uleb128 0
 1252 03d7 2A070000 		.4byte	.LASF163
 1253 03db 05       		.byte	0x5
 1254 03dc 00       		.uleb128 0
 1255 03dd F0090000 		.4byte	.LASF164
 1256 03e1 05       		.byte	0x5
ARM GAS  C:\Users\STUDENT\AppData\Local\Temp\ccDEhX6s.s 			page 28


 1257 03e2 00       		.uleb128 0
 1258 03e3 5C1B0000 		.4byte	.LASF165
 1259 03e7 05       		.byte	0x5
 1260 03e8 00       		.uleb128 0
 1261 03e9 67160000 		.4byte	.LASF166
 1262 03ed 05       		.byte	0x5
 1263 03ee 00       		.uleb128 0
 1264 03ef 12060000 		.4byte	.LASF167
 1265 03f3 05       		.byte	0x5
 1266 03f4 00       		.uleb128 0
 1267 03f5 23020000 		.4byte	.LASF168
 1268 03f9 05       		.byte	0x5
 1269 03fa 00       		.uleb128 0
 1270 03fb 340D0000 		.4byte	.LASF169
 1271 03ff 05       		.byte	0x5
 1272 0400 00       		.uleb128 0
 1273 0401 F0230000 		.4byte	.LASF170
 1274 0405 05       		.byte	0x5
 1275 0406 00       		.uleb128 0
 1276 0407 BE1F0000 		.4byte	.LASF171
 1277 040b 05       		.byte	0x5
 1278 040c 00       		.uleb128 0
 1279 040d C4010000 		.4byte	.LASF172
 1280 0411 05       		.byte	0x5
 1281 0412 00       		.uleb128 0
 1282 0413 0A180000 		.4byte	.LASF173
 1283 0417 05       		.byte	0x5
 1284 0418 00       		.uleb128 0
 1285 0419 6B130000 		.4byte	.LASF174
 1286 041d 05       		.byte	0x5
 1287 041e 00       		.uleb128 0
 1288 041f 0F0B0000 		.4byte	.LASF175
 1289 0423 05       		.byte	0x5
 1290 0424 00       		.uleb128 0
 1291 0425 58140000 		.4byte	.LASF176
 1292 0429 05       		.byte	0x5
 1293 042a 00       		.uleb128 0
 1294 042b B8150000 		.4byte	.LASF177
 1295 042f 05       		.byte	0x5
 1296 0430 00       		.uleb128 0
 1297 0431 F5040000 		.4byte	.LASF178
 1298 0435 05       		.byte	0x5
 1299 0436 00       		.uleb128 0
 1300 0437 C7170000 		.4byte	.LASF179
 1301 043b 05       		.byte	0x5
 1302 043c 00       		.uleb128 0
 1303 043d 8D110000 		.4byte	.LASF180
 1304 0441 05       		.byte	0x5
 1305 0442 00       		.uleb128 0
 1306 0443 C6120000 		.4byte	.LASF181
 1307 0447 05       		.byte	0x5
 1308 0448 00       		.uleb128 0
 1309 0449 54230000 		.4byte	.LASF182
 1310 044d 05       		.byte	0x5
 1311 044e 00       		.uleb128 0
 1312 044f A6140000 		.4byte	.LASF183
 1313 0453 05       		.byte	0x5
ARM GAS  C:\Users\STUDENT\AppData\Local\Temp\ccDEhX6s.s 			page 29


 1314 0454 00       		.uleb128 0
 1315 0455 3D160000 		.4byte	.LASF184
 1316 0459 05       		.byte	0x5
 1317 045a 00       		.uleb128 0
 1318 045b 281F0000 		.4byte	.LASF185
 1319 045f 05       		.byte	0x5
 1320 0460 00       		.uleb128 0
 1321 0461 D3110000 		.4byte	.LASF186
 1322 0465 05       		.byte	0x5
 1323 0466 00       		.uleb128 0
 1324 0467 C8040000 		.4byte	.LASF187
 1325 046b 05       		.byte	0x5
 1326 046c 00       		.uleb128 0
 1327 046d 77180000 		.4byte	.LASF188
 1328 0471 05       		.byte	0x5
 1329 0472 00       		.uleb128 0
 1330 0473 B40A0000 		.4byte	.LASF189
 1331 0477 05       		.byte	0x5
 1332 0478 00       		.uleb128 0
 1333 0479 AA030000 		.4byte	.LASF190
 1334 047d 05       		.byte	0x5
 1335 047e 00       		.uleb128 0
 1336 047f 13170000 		.4byte	.LASF191
 1337 0483 05       		.byte	0x5
 1338 0484 00       		.uleb128 0
 1339 0485 D41B0000 		.4byte	.LASF192
 1340 0489 05       		.byte	0x5
 1341 048a 00       		.uleb128 0
 1342 048b 750F0000 		.4byte	.LASF193
 1343 048f 05       		.byte	0x5
 1344 0490 00       		.uleb128 0
 1345 0491 1D0F0000 		.4byte	.LASF194
 1346 0495 05       		.byte	0x5
 1347 0496 00       		.uleb128 0
 1348 0497 67010000 		.4byte	.LASF195
 1349 049b 05       		.byte	0x5
 1350 049c 00       		.uleb128 0
 1351 049d 82060000 		.4byte	.LASF196
 1352 04a1 05       		.byte	0x5
 1353 04a2 00       		.uleb128 0
 1354 04a3 3B210000 		.4byte	.LASF197
 1355 04a7 05       		.byte	0x5
 1356 04a8 00       		.uleb128 0
 1357 04a9 E6200000 		.4byte	.LASF198
 1358 04ad 05       		.byte	0x5
 1359 04ae 00       		.uleb128 0
 1360 04af 5F210000 		.4byte	.LASF199
 1361 04b3 05       		.byte	0x5
 1362 04b4 00       		.uleb128 0
 1363 04b5 40080000 		.4byte	.LASF200
 1364 04b9 05       		.byte	0x5
 1365 04ba 00       		.uleb128 0
 1366 04bb E3100000 		.4byte	.LASF201
 1367 04bf 05       		.byte	0x5
 1368 04c0 00       		.uleb128 0
 1369 04c1 9A1F0000 		.4byte	.LASF202
 1370 04c5 05       		.byte	0x5
ARM GAS  C:\Users\STUDENT\AppData\Local\Temp\ccDEhX6s.s 			page 30


 1371 04c6 00       		.uleb128 0
 1372 04c7 7F170000 		.4byte	.LASF203
 1373 04cb 05       		.byte	0x5
 1374 04cc 00       		.uleb128 0
 1375 04cd 010F0000 		.4byte	.LASF204
 1376 04d1 05       		.byte	0x5
 1377 04d2 00       		.uleb128 0
 1378 04d3 A71C0000 		.4byte	.LASF205
 1379 04d7 05       		.byte	0x5
 1380 04d8 00       		.uleb128 0
 1381 04d9 DD240000 		.4byte	.LASF206
 1382 04dd 05       		.byte	0x5
 1383 04de 00       		.uleb128 0
 1384 04df 5E050000 		.4byte	.LASF207
 1385 04e3 05       		.byte	0x5
 1386 04e4 00       		.uleb128 0
 1387 04e5 E11D0000 		.4byte	.LASF208
 1388 04e9 05       		.byte	0x5
 1389 04ea 00       		.uleb128 0
 1390 04eb 20080000 		.4byte	.LASF209
 1391 04ef 05       		.byte	0x5
 1392 04f0 00       		.uleb128 0
 1393 04f1 21130000 		.4byte	.LASF210
 1394 04f5 05       		.byte	0x5
 1395 04f6 00       		.uleb128 0
 1396 04f7 79110000 		.4byte	.LASF211
 1397 04fb 05       		.byte	0x5
 1398 04fc 00       		.uleb128 0
 1399 04fd D70F0000 		.4byte	.LASF212
 1400 0501 05       		.byte	0x5
 1401 0502 00       		.uleb128 0
 1402 0503 D10C0000 		.4byte	.LASF213
 1403 0507 05       		.byte	0x5
 1404 0508 00       		.uleb128 0
 1405 0509 0E250000 		.4byte	.LASF214
 1406 050d 05       		.byte	0x5
 1407 050e 00       		.uleb128 0
 1408 050f D10B0000 		.4byte	.LASF215
 1409 0513 05       		.byte	0x5
 1410 0514 00       		.uleb128 0
 1411 0515 55060000 		.4byte	.LASF216
 1412 0519 05       		.byte	0x5
 1413 051a 00       		.uleb128 0
 1414 051b 4C210000 		.4byte	.LASF217
 1415 051f 05       		.byte	0x5
 1416 0520 00       		.uleb128 0
 1417 0521 F8210000 		.4byte	.LASF218
 1418 0525 05       		.byte	0x5
 1419 0526 00       		.uleb128 0
 1420 0527 94060000 		.4byte	.LASF219
 1421 052b 05       		.byte	0x5
 1422 052c 00       		.uleb128 0
 1423 052d 8D0B0000 		.4byte	.LASF220
 1424 0531 05       		.byte	0x5
 1425 0532 00       		.uleb128 0
 1426 0533 D0210000 		.4byte	.LASF221
 1427 0537 05       		.byte	0x5
ARM GAS  C:\Users\STUDENT\AppData\Local\Temp\ccDEhX6s.s 			page 31


 1428 0538 00       		.uleb128 0
 1429 0539 E1050000 		.4byte	.LASF222
 1430 053d 05       		.byte	0x5
 1431 053e 00       		.uleb128 0
 1432 053f 60020000 		.4byte	.LASF223
 1433 0543 05       		.byte	0x5
 1434 0544 00       		.uleb128 0
 1435 0545 DE170000 		.4byte	.LASF224
 1436 0549 05       		.byte	0x5
 1437 054a 00       		.uleb128 0
 1438 054b 8E1D0000 		.4byte	.LASF225
 1439 054f 05       		.byte	0x5
 1440 0550 00       		.uleb128 0
 1441 0551 AC1F0000 		.4byte	.LASF226
 1442 0555 05       		.byte	0x5
 1443 0556 00       		.uleb128 0
 1444 0557 55010000 		.4byte	.LASF227
 1445 055b 05       		.byte	0x5
 1446 055c 00       		.uleb128 0
 1447 055d 091D0000 		.4byte	.LASF228
 1448 0561 05       		.byte	0x5
 1449 0562 00       		.uleb128 0
 1450 0563 A71B0000 		.4byte	.LASF229
 1451 0567 05       		.byte	0x5
 1452 0568 00       		.uleb128 0
 1453 0569 08030000 		.4byte	.LASF230
 1454 056d 05       		.byte	0x5
 1455 056e 00       		.uleb128 0
 1456 056f 531D0000 		.4byte	.LASF231
 1457 0573 05       		.byte	0x5
 1458 0574 00       		.uleb128 0
 1459 0575 6B1A0000 		.4byte	.LASF232
 1460 0579 05       		.byte	0x5
 1461 057a 00       		.uleb128 0
 1462 057b 7B220000 		.4byte	.LASF233
 1463 057f 05       		.byte	0x5
 1464 0580 00       		.uleb128 0
 1465 0581 330A0000 		.4byte	.LASF234
 1466 0585 05       		.byte	0x5
 1467 0586 00       		.uleb128 0
 1468 0587 6B040000 		.4byte	.LASF235
 1469 058b 05       		.byte	0x5
 1470 058c 00       		.uleb128 0
 1471 058d C21B0000 		.4byte	.LASF236
 1472 0591 05       		.byte	0x5
 1473 0592 00       		.uleb128 0
 1474 0593 40090000 		.4byte	.LASF237
 1475 0597 05       		.byte	0x5
 1476 0598 00       		.uleb128 0
 1477 0599 48240000 		.4byte	.LASF238
 1478 059d 05       		.byte	0x5
 1479 059e 00       		.uleb128 0
 1480 059f 811B0000 		.4byte	.LASF239
 1481 05a3 05       		.byte	0x5
 1482 05a4 00       		.uleb128 0
 1483 05a5 65100000 		.4byte	.LASF240
 1484 05a9 05       		.byte	0x5
ARM GAS  C:\Users\STUDENT\AppData\Local\Temp\ccDEhX6s.s 			page 32


 1485 05aa 00       		.uleb128 0
 1486 05ab 47180000 		.4byte	.LASF241
 1487 05af 05       		.byte	0x5
 1488 05b0 00       		.uleb128 0
 1489 05b1 AE0D0000 		.4byte	.LASF242
 1490 05b5 05       		.byte	0x5
 1491 05b6 00       		.uleb128 0
 1492 05b7 18230000 		.4byte	.LASF243
 1493 05bb 05       		.byte	0x5
 1494 05bc 00       		.uleb128 0
 1495 05bd B7090000 		.4byte	.LASF244
 1496 05c1 05       		.byte	0x5
 1497 05c2 00       		.uleb128 0
 1498 05c3 5A180000 		.4byte	.LASF245
 1499 05c7 05       		.byte	0x5
 1500 05c8 00       		.uleb128 0
 1501 05c9 3C220000 		.4byte	.LASF246
 1502 05cd 05       		.byte	0x5
 1503 05ce 00       		.uleb128 0
 1504 05cf 06040000 		.4byte	.LASF247
 1505 05d3 05       		.byte	0x5
 1506 05d4 00       		.uleb128 0
 1507 05d5 41100000 		.4byte	.LASF248
 1508 05d9 05       		.byte	0x5
 1509 05da 00       		.uleb128 0
 1510 05db FB1A0000 		.4byte	.LASF249
 1511 05df 05       		.byte	0x5
 1512 05e0 00       		.uleb128 0
 1513 05e1 C0080000 		.4byte	.LASF250
 1514 05e5 05       		.byte	0x5
 1515 05e6 00       		.uleb128 0
 1516 05e7 6C030000 		.4byte	.LASF251
 1517 05eb 05       		.byte	0x5
 1518 05ec 00       		.uleb128 0
 1519 05ed F61B0000 		.4byte	.LASF252
 1520 05f1 05       		.byte	0x5
 1521 05f2 00       		.uleb128 0
 1522 05f3 A2200000 		.4byte	.LASF253
 1523 05f7 05       		.byte	0x5
 1524 05f8 00       		.uleb128 0
 1525 05f9 CD060000 		.4byte	.LASF254
 1526 05fd 05       		.byte	0x5
 1527 05fe 00       		.uleb128 0
 1528 05ff 9E000000 		.4byte	.LASF255
 1529 0603 05       		.byte	0x5
 1530 0604 00       		.uleb128 0
 1531 0605 8B210000 		.4byte	.LASF256
 1532 0609 05       		.byte	0x5
 1533 060a 00       		.uleb128 0
 1534 060b 28220000 		.4byte	.LASF257
 1535 060f 05       		.byte	0x5
 1536 0610 00       		.uleb128 0
 1537 0611 870C0000 		.4byte	.LASF258
 1538 0615 05       		.byte	0x5
 1539 0616 00       		.uleb128 0
 1540 0617 94100000 		.4byte	.LASF259
 1541 061b 05       		.byte	0x5
ARM GAS  C:\Users\STUDENT\AppData\Local\Temp\ccDEhX6s.s 			page 33


 1542 061c 00       		.uleb128 0
 1543 061d 6D230000 		.4byte	.LASF260
 1544 0621 05       		.byte	0x5
 1545 0622 00       		.uleb128 0
 1546 0623 DF000000 		.4byte	.LASF261
 1547 0627 05       		.byte	0x5
 1548 0628 00       		.uleb128 0
 1549 0629 BE110000 		.4byte	.LASF262
 1550 062d 05       		.byte	0x5
 1551 062e 00       		.uleb128 0
 1552 062f 231B0000 		.4byte	.LASF263
 1553 0633 05       		.byte	0x5
 1554 0634 00       		.uleb128 0
 1555 0635 4F220000 		.4byte	.LASF264
 1556 0639 05       		.byte	0x5
 1557 063a 00       		.uleb128 0
 1558 063b 79020000 		.4byte	.LASF265
 1559 063f 05       		.byte	0x5
 1560 0640 00       		.uleb128 0
 1561 0641 8A0A0000 		.4byte	.LASF266
 1562 0645 05       		.byte	0x5
 1563 0646 00       		.uleb128 0
 1564 0647 58110000 		.4byte	.LASF267
 1565 064b 05       		.byte	0x5
 1566 064c 00       		.uleb128 0
 1567 064d 1F000000 		.4byte	.LASF268
 1568 0651 05       		.byte	0x5
 1569 0652 00       		.uleb128 0
 1570 0653 5E1C0000 		.4byte	.LASF269
 1571 0657 05       		.byte	0x5
 1572 0658 00       		.uleb128 0
 1573 0659 EA0F0000 		.4byte	.LASF270
 1574 065d 05       		.byte	0x5
 1575 065e 00       		.uleb128 0
 1576 065f 2B110000 		.4byte	.LASF271
 1577 0663 05       		.byte	0x5
 1578 0664 00       		.uleb128 0
 1579 0665 0A1C0000 		.4byte	.LASF272
 1580 0669 05       		.byte	0x5
 1581 066a 00       		.uleb128 0
 1582 066b D4180000 		.4byte	.LASF273
 1583 066f 05       		.byte	0x5
 1584 0670 00       		.uleb128 0
 1585 0671 F91C0000 		.4byte	.LASF274
 1586 0675 05       		.byte	0x5
 1587 0676 00       		.uleb128 0
 1588 0677 630A0000 		.4byte	.LASF275
 1589 067b 05       		.byte	0x5
 1590 067c 00       		.uleb128 0
 1591 067d 49140000 		.4byte	.LASF276
 1592 0681 05       		.byte	0x5
 1593 0682 00       		.uleb128 0
 1594 0683 19220000 		.4byte	.LASF277
 1595 0687 05       		.byte	0x5
 1596 0688 00       		.uleb128 0
 1597 0689 85010000 		.4byte	.LASF278
 1598 068d 05       		.byte	0x5
ARM GAS  C:\Users\STUDENT\AppData\Local\Temp\ccDEhX6s.s 			page 34


 1599 068e 00       		.uleb128 0
 1600 068f 4F000000 		.4byte	.LASF279
 1601 0693 05       		.byte	0x5
 1602 0694 00       		.uleb128 0
 1603 0695 8C0F0000 		.4byte	.LASF280
 1604 0699 05       		.byte	0x5
 1605 069a 00       		.uleb128 0
 1606 069b EE160000 		.4byte	.LASF281
 1607 069f 05       		.byte	0x5
 1608 06a0 00       		.uleb128 0
 1609 06a1 4E1C0000 		.4byte	.LASF282
 1610 06a5 05       		.byte	0x5
 1611 06a6 00       		.uleb128 0
 1612 06a7 58160000 		.4byte	.LASF283
 1613 06ab 05       		.byte	0x5
 1614 06ac 00       		.uleb128 0
 1615 06ad 2E000000 		.4byte	.LASF284
 1616 06b1 05       		.byte	0x5
 1617 06b2 00       		.uleb128 0
 1618 06b3 A8090000 		.4byte	.LASF285
 1619 06b7 05       		.byte	0x5
 1620 06b8 00       		.uleb128 0
 1621 06b9 841C0000 		.4byte	.LASF286
 1622 06bd 05       		.byte	0x5
 1623 06be 00       		.uleb128 0
 1624 06bf 39170000 		.4byte	.LASF287
 1625 06c3 05       		.byte	0x5
 1626 06c4 00       		.uleb128 0
 1627 06c5 E71B0000 		.4byte	.LASF288
 1628 06c9 05       		.byte	0x5
 1629 06ca 00       		.uleb128 0
 1630 06cb 46010000 		.4byte	.LASF289
 1631 06cf 05       		.byte	0x5
 1632 06d0 00       		.uleb128 0
 1633 06d1 F90F0000 		.4byte	.LASF290
 1634 06d5 05       		.byte	0x5
 1635 06d6 00       		.uleb128 0
 1636 06d7 EC1A0000 		.4byte	.LASF291
 1637 06db 05       		.byte	0x5
 1638 06dc 00       		.uleb128 0
 1639 06dd B9200000 		.4byte	.LASF292
 1640 06e1 05       		.byte	0x5
 1641 06e2 00       		.uleb128 0
 1642 06e3 1B070000 		.4byte	.LASF293
 1643 06e7 05       		.byte	0x5
 1644 06e8 00       		.uleb128 0
 1645 06e9 F31E0000 		.4byte	.LASF294
 1646 06ed 05       		.byte	0x5
 1647 06ee 00       		.uleb128 0
 1648 06ef 5E000000 		.4byte	.LASF295
 1649 06f3 05       		.byte	0x5
 1650 06f4 00       		.uleb128 0
 1651 06f5 2D230000 		.4byte	.LASF296
 1652 06f9 05       		.byte	0x5
 1653 06fa 00       		.uleb128 0
 1654 06fb BE100000 		.4byte	.LASF297
 1655 06ff 05       		.byte	0x5
ARM GAS  C:\Users\STUDENT\AppData\Local\Temp\ccDEhX6s.s 			page 35


 1656 0700 00       		.uleb128 0
 1657 0701 19040000 		.4byte	.LASF298
 1658 0705 05       		.byte	0x5
 1659 0706 00       		.uleb128 0
 1660 0707 F6030000 		.4byte	.LASF299
 1661 070b 05       		.byte	0x5
 1662 070c 00       		.uleb128 0
 1663 070d 3F000000 		.4byte	.LASF300
 1664 0711 05       		.byte	0x5
 1665 0712 00       		.uleb128 0
 1666 0713 95150000 		.4byte	.LASF301
 1667 0717 05       		.byte	0x5
 1668 0718 00       		.uleb128 0
 1669 0719 4E0B0000 		.4byte	.LASF302
 1670 071d 05       		.byte	0x5
 1671 071e 00       		.uleb128 0
 1672 071f 3D230000 		.4byte	.LASF303
 1673 0723 05       		.byte	0x5
 1674 0724 00       		.uleb128 0
 1675 0725 FD160000 		.4byte	.LASF304
 1676 0729 05       		.byte	0x5
 1677 072a 00       		.uleb128 0
 1678 072b 7E1D0000 		.4byte	.LASF305
 1679 072f 05       		.byte	0x5
 1680 0730 00       		.uleb128 0
 1681 0731 B2120000 		.4byte	.LASF306
 1682 0735 05       		.byte	0x5
 1683 0736 00       		.uleb128 0
 1684 0737 23240000 		.4byte	.LASF307
 1685 073b 05       		.byte	0x5
 1686 073c 00       		.uleb128 0
 1687 073d E51F0000 		.4byte	.LASF308
 1688 0741 05       		.byte	0x5
 1689 0742 00       		.uleb128 0
 1690 0743 F3120000 		.4byte	.LASF309
 1691 0747 05       		.byte	0x5
 1692 0748 00       		.uleb128 0
 1693 0749 F0240000 		.4byte	.LASF310
 1694 074d 05       		.byte	0x5
 1695 074e 00       		.uleb128 0
 1696 074f 1F160000 		.4byte	.LASF311
 1697 0753 05       		.byte	0x5
 1698 0754 00       		.uleb128 0
 1699 0755 931E0000 		.4byte	.LASF312
 1700 0759 05       		.byte	0x5
 1701 075a 00       		.uleb128 0
 1702 075b ED0A0000 		.4byte	.LASF313
 1703 075f 05       		.byte	0x5
 1704 0760 00       		.uleb128 0
 1705 0761 BE070000 		.4byte	.LASF314
 1706 0765 05       		.byte	0x5
 1707 0766 00       		.uleb128 0
 1708 0767 F8180000 		.4byte	.LASF315
 1709 076b 05       		.byte	0x5
 1710 076c 00       		.uleb128 0
 1711 076d 8D030000 		.4byte	.LASF316
 1712 0771 05       		.byte	0x5
ARM GAS  C:\Users\STUDENT\AppData\Local\Temp\ccDEhX6s.s 			page 36


 1713 0772 00       		.uleb128 0
 1714 0773 17190000 		.4byte	.LASF317
 1715 0777 05       		.byte	0x5
 1716 0778 00       		.uleb128 0
 1717 0779 39110000 		.4byte	.LASF318
 1718 077d 05       		.byte	0x5
 1719 077e 00       		.uleb128 0
 1720 077f F7060000 		.4byte	.LASF319
 1721 0783 05       		.byte	0x5
 1722 0784 00       		.uleb128 0
 1723 0785 4A1A0000 		.4byte	.LASF320
 1724 0789 05       		.byte	0x5
 1725 078a 00       		.uleb128 0
 1726 078b 980A0000 		.4byte	.LASF321
 1727 078f 05       		.byte	0x5
 1728 0790 00       		.uleb128 0
 1729 0791 5B080000 		.4byte	.LASF322
 1730 0795 05       		.byte	0x5
 1731 0796 00       		.uleb128 0
 1732 0797 F00B0000 		.4byte	.LASF323
 1733 079b 05       		.byte	0x5
 1734 079c 00       		.uleb128 0
 1735 079d F4020000 		.4byte	.LASF324
 1736 07a1 05       		.byte	0x5
 1737 07a2 00       		.uleb128 0
 1738 07a3 57070000 		.4byte	.LASF325
 1739 07a7 05       		.byte	0x5
 1740 07a8 00       		.uleb128 0
 1741 07a9 AE0C0000 		.4byte	.LASF326
 1742 07ad 05       		.byte	0x5
 1743 07ae 00       		.uleb128 0
 1744 07af 2C090000 		.4byte	.LASF327
 1745 07b3 05       		.byte	0x5
 1746 07b4 00       		.uleb128 0
 1747 07b5 20150000 		.4byte	.LASF328
 1748 07b9 05       		.byte	0x5
 1749 07ba 00       		.uleb128 0
 1750 07bb 74120000 		.4byte	.LASF329
 1751 07bf 05       		.byte	0x5
 1752 07c0 00       		.uleb128 0
 1753 07c1 090A0000 		.4byte	.LASF330
 1754 07c5 05       		.byte	0x5
 1755 07c6 00       		.uleb128 0
 1756 07c7 B1160000 		.4byte	.LASF331
 1757 07cb 05       		.byte	0x5
 1758 07cc 00       		.uleb128 0
 1759 07cd 25100000 		.4byte	.LASF332
 1760 07d1 05       		.byte	0x5
 1761 07d2 00       		.uleb128 0
 1762 07d3 81240000 		.4byte	.LASF333
 1763 07d7 05       		.byte	0x5
 1764 07d8 00       		.uleb128 0
 1765 07d9 3B040000 		.4byte	.LASF334
 1766 07dd 05       		.byte	0x5
 1767 07de 00       		.uleb128 0
 1768 07df 50190000 		.4byte	.LASF335
 1769 07e3 05       		.byte	0x5
ARM GAS  C:\Users\STUDENT\AppData\Local\Temp\ccDEhX6s.s 			page 37


 1770 07e4 00       		.uleb128 0
 1771 07e5 08140000 		.4byte	.LASF336
 1772 07e9 05       		.byte	0x5
 1773 07ea 00       		.uleb128 0
 1774 07eb 08100000 		.4byte	.LASF337
 1775 07ef 05       		.byte	0x5
 1776 07f0 00       		.uleb128 0
 1777 07f1 E71E0000 		.4byte	.LASF338
 1778 07f5 05       		.byte	0x5
 1779 07f6 00       		.uleb128 0
 1780 07f7 C7180000 		.4byte	.LASF339
 1781 07fb 05       		.byte	0x5
 1782 07fc 00       		.uleb128 0
 1783 07fd E0140000 		.4byte	.LASF340
 1784 0801 05       		.byte	0x5
 1785 0802 00       		.uleb128 0
 1786 0803 E10A0000 		.4byte	.LASF341
 1787 0807 05       		.byte	0x5
 1788 0808 00       		.uleb128 0
 1789 0809 24030000 		.4byte	.LASF342
 1790 080d 05       		.byte	0x5
 1791 080e 00       		.uleb128 0
 1792 080f 80030000 		.4byte	.LASF343
 1793 0813 05       		.byte	0x5
 1794 0814 00       		.uleb128 0
 1795 0815 E7020000 		.4byte	.LASF344
 1796 0819 05       		.byte	0x5
 1797 081a 00       		.uleb128 0
 1798 081b 0B120000 		.4byte	.LASF345
 1799 081f 05       		.byte	0x5
 1800 0820 00       		.uleb128 0
 1801 0821 EF0E0000 		.4byte	.LASF346
 1802 0825 05       		.byte	0x5
 1803 0826 00       		.uleb128 0
 1804 0827 9A020000 		.4byte	.LASF347
 1805 082b 05       		.byte	0x5
 1806 082c 00       		.uleb128 0
 1807 082d BE060000 		.4byte	.LASF348
 1808 0831 05       		.byte	0x5
 1809 0832 00       		.uleb128 0
 1810 0833 D70E0000 		.4byte	.LASF349
 1811 0837 05       		.byte	0x5
 1812 0838 00       		.uleb128 0
 1813 0839 95180000 		.4byte	.LASF350
 1814 083d 05       		.byte	0x5
 1815 083e 00       		.uleb128 0
 1816 083f AA180000 		.4byte	.LASF351
 1817 0843 05       		.byte	0x5
 1818 0844 00       		.uleb128 0
 1819 0845 8D0D0000 		.4byte	.LASF352
 1820 0849 05       		.byte	0x5
 1821 084a 00       		.uleb128 0
 1822 084b 5A150000 		.4byte	.LASF353
 1823 084f 05       		.byte	0x5
 1824 0850 00       		.uleb128 0
 1825 0851 A6020000 		.4byte	.LASF354
 1826 0855 00       		.byte	0
ARM GAS  C:\Users\STUDENT\AppData\Local\Temp\ccDEhX6s.s 			page 38


 1827              		.section	.debug_line,"",%progbits
 1828              	.Ldebug_line0:
 1829 0000 8A000000 		.section	.debug_str,"MS",%progbits,1
 1829      02002F00 
 1829      00000201 
 1829      FB0E0D00 
 1829      01010101 
 1830              	.LASF112:
 1831 0000 5F5F5549 		.ascii	"__UINT_FAST8_MAX__ 0xffffffffU\000"
 1831      4E545F46 
 1831      41535438 
 1831      5F4D4158 
 1831      5F5F2030 
 1832              	.LASF268:
 1833 001f 5F5F4851 		.ascii	"__HQ_FBIT__ 15\000"
 1833      5F464249 
 1833      545F5F20 
 1833      313500
 1834              	.LASF284:
 1835 002e 5F5F5554 		.ascii	"__UTQ_FBIT__ 128\000"
 1835      515F4642 
 1835      49545F5F 
 1835      20313238 
 1835      00
 1836              	.LASF300:
 1837 003f 5F5F5554 		.ascii	"__UTA_FBIT__ 64\000"
 1837      415F4642 
 1837      49545F5F 
 1837      20363400 
 1838              	.LASF279:
 1839 004f 5F5F5548 		.ascii	"__UHQ_IBIT__ 0\000"
 1839      515F4942 
 1839      49545F5F 
 1839      203000
 1840              	.LASF295:
 1841 005e 5F5F5548 		.ascii	"__UHA_IBIT__ 8\000"
 1841      415F4942 
 1841      49545F5F 
 1841      203800
 1842              	.LASF20:
 1843 006d 5F5F5349 		.ascii	"__SIZEOF_SIZE_T__ 4\000"
 1843      5A454F46 
 1843      5F53495A 
 1843      455F545F 
 1843      5F203400 
 1844              	.LASF41:
 1845 0081 5F5F494E 		.ascii	"__INT64_TYPE__ long long int\000"
 1845      5436345F 
 1845      54595045 
 1845      5F5F206C 
 1845      6F6E6720 
 1846              	.LASF255:
 1847 009e 5F5F554C 		.ascii	"__ULACCUM_EPSILON__ 0x1P-32ULK\000"
 1847      41434355 
 1847      4D5F4550 
 1847      53494C4F 
 1847      4E5F5F20 
ARM GAS  C:\Users\STUDENT\AppData\Local\Temp\ccDEhX6s.s 			page 39


 1848              	.LASF104:
 1849 00bd 5F5F5549 		.ascii	"__UINT_LEAST32_MAX__ 0xffffffffUL\000"
 1849      4E545F4C 
 1849      45415354 
 1849      33325F4D 
 1849      41585F5F 
 1850              	.LASF261:
 1851 00df 5F5F554C 		.ascii	"__ULLACCUM_FBIT__ 32\000"
 1851      4C414343 
 1851      554D5F46 
 1851      4249545F 
 1851      5F203332 
 1852              	.LASF99:
 1853 00f4 5F5F494E 		.ascii	"__INT64_C(c) c ## LL\000"
 1853      5436345F 
 1853      43286329 
 1853      20632023 
 1853      23204C4C 
 1854              	.LASF28:
 1855 0109 5F5F5349 		.ascii	"__SIZEOF_POINTER__ 4\000"
 1855      5A454F46 
 1855      5F504F49 
 1855      4E544552 
 1855      5F5F2034 
 1856              	.LASF52:
 1857 011e 5F5F5549 		.ascii	"__UINT_LEAST32_TYPE__ long unsigned int\000"
 1857      4E545F4C 
 1857      45415354 
 1857      33325F54 
 1857      5950455F 
 1858              	.LASF289:
 1859 0146 5F5F5341 		.ascii	"__SA_IBIT__ 16\000"
 1859      5F494249 
 1859      545F5F20 
 1859      313600
 1860              	.LASF227:
 1861 0155 5F5F5341 		.ascii	"__SACCUM_IBIT__ 8\000"
 1861      4343554D 
 1861      5F494249 
 1861      545F5F20 
 1861      3800
 1862              	.LASF195:
 1863 0167 5F5F5553 		.ascii	"__USFRACT_EPSILON__ 0x1P-8UHR\000"
 1863      46524143 
 1863      545F4550 
 1863      53494C4F 
 1863      4E5F5F20 
 1864              	.LASF278:
 1865 0185 5F5F5548 		.ascii	"__UHQ_FBIT__ 16\000"
 1865      515F4642 
 1865      49545F5F 
 1865      20313600 
 1866              	.LASF144:
 1867 0195 5F5F4442 		.ascii	"__DBL_MAX__ ((double)1.7976931348623157e+308L)\000"
 1867      4C5F4D41 
 1867      585F5F20 
 1867      2828646F 
ARM GAS  C:\Users\STUDENT\AppData\Local\Temp\ccDEhX6s.s 			page 40


 1867      75626C65 
 1868              	.LASF172:
 1869 01c4 5F5F4445 		.ascii	"__DEC64_MANT_DIG__ 16\000"
 1869      4336345F 
 1869      4D414E54 
 1869      5F444947 
 1869      5F5F2031 
 1870              	.LASF122:
 1871 01da 5F5F464C 		.ascii	"__FLT_RADIX__ 2\000"
 1871      545F5241 
 1871      4449585F 
 1871      5F203200 
 1872              	.LASF117:
 1873 01ea 5F5F5549 		.ascii	"__UINTPTR_MAX__ 0xffffffffU\000"
 1873      4E545054 
 1873      525F4D41 
 1873      585F5F20 
 1873      30786666 
 1874              	.LASF108:
 1875 0206 5F5F494E 		.ascii	"__INT_FAST8_MAX__ 0x7fffffff\000"
 1875      545F4641 
 1875      5354385F 
 1875      4D41585F 
 1875      5F203078 
 1876              	.LASF168:
 1877 0223 5F5F4445 		.ascii	"__DEC32_MIN__ 1E-95DF\000"
 1877      4333325F 
 1877      4D494E5F 
 1877      5F203145 
 1877      2D393544 
 1878              	.LASF45:
 1879 0239 5F5F5549 		.ascii	"__UINT64_TYPE__ long long unsigned int\000"
 1879      4E543634 
 1879      5F545950 
 1879      455F5F20 
 1879      6C6F6E67 
 1880              	.LASF223:
 1881 0260 5F5F554C 		.ascii	"__ULLFRACT_MIN__ 0.0ULLR\000"
 1881      4C465241 
 1881      43545F4D 
 1881      494E5F5F 
 1881      20302E30 
 1882              	.LASF265:
 1883 0279 5F5F554C 		.ascii	"__ULLACCUM_EPSILON__ 0x1P-32ULLK\000"
 1883      4C414343 
 1883      554D5F45 
 1883      5053494C 
 1883      4F4E5F5F 
 1884              	.LASF347:
 1885 029a 5F5F4152 		.ascii	"__ARM_PCS 1\000"
 1885      4D5F5043 
 1885      53203100 
 1886              	.LASF354:
 1887 02a6 5F5F5553 		.ascii	"__USES_INITFINI__ 1\000"
 1887      45535F49 
 1887      4E495446 
 1887      494E495F 
ARM GAS  C:\Users\STUDENT\AppData\Local\Temp\ccDEhX6s.s 			page 41


 1887      5F203100 
 1888              	.LASF7:
 1889 02ba 5F5F4154 		.ascii	"__ATOMIC_SEQ_CST 5\000"
 1889      4F4D4943 
 1889      5F534551 
 1889      5F435354 
 1889      203500
 1890              	.LASF72:
 1891 02cd 5F5F5743 		.ascii	"__WCHAR_MAX__ 0xffffffffU\000"
 1891      4841525F 
 1891      4D41585F 
 1891      5F203078 
 1891      66666666 
 1892              	.LASF344:
 1893 02e7 5F5F5646 		.ascii	"__VFP_FP__ 1\000"
 1893      505F4650 
 1893      5F5F2031 
 1893      00
 1894              	.LASF324:
 1895 02f4 5F5F5349 		.ascii	"__SIZEOF_WINT_T__ 4\000"
 1895      5A454F46 
 1895      5F57494E 
 1895      545F545F 
 1895      5F203400 
 1896              	.LASF230:
 1897 0308 5F5F5341 		.ascii	"__SACCUM_EPSILON__ 0x1P-7HK\000"
 1897      4343554D 
 1897      5F455053 
 1897      494C4F4E 
 1897      5F5F2030 
 1898              	.LASF342:
 1899 0324 5F5F5448 		.ascii	"__THUMBEL__ 1\000"
 1899      554D4245 
 1899      4C5F5F20 
 1899      3100
 1900              	.LASF81:
 1901 0332 5F5F5549 		.ascii	"__UINTMAX_C(c) c ## ULL\000"
 1901      4E544D41 
 1901      585F4328 
 1901      63292063 
 1901      20232320 
 1902              	.LASF36:
 1903 034a 5F5F4348 		.ascii	"__CHAR32_TYPE__ long unsigned int\000"
 1903      41523332 
 1903      5F545950 
 1903      455F5F20 
 1903      6C6F6E67 
 1904              	.LASF251:
 1905 036c 5F5F554C 		.ascii	"__ULACCUM_FBIT__ 32\000"
 1905      41434355 
 1905      4D5F4642 
 1905      49545F5F 
 1905      20333200 
 1906              	.LASF343:
 1907 0380 5F5F534F 		.ascii	"__SOFTFP__ 1\000"
 1907      46544650 
 1907      5F5F2031 
ARM GAS  C:\Users\STUDENT\AppData\Local\Temp\ccDEhX6s.s 			page 42


 1907      00
 1908              	.LASF316:
 1909 038d 5F5F4743 		.ascii	"__GCC_ATOMIC_INT_LOCK_FREE 2\000"
 1909      435F4154 
 1909      4F4D4943 
 1909      5F494E54 
 1909      5F4C4F43 
 1910              	.LASF190:
 1911 03aa 5F5F5346 		.ascii	"__SFRACT_EPSILON__ 0x1P-7HR\000"
 1911      52414354 
 1911      5F455053 
 1911      494C4F4E 
 1911      5F5F2030 
 1912              	.LASF149:
 1913 03c6 5F5F4442 		.ascii	"__DBL_HAS_INFINITY__ 1\000"
 1913      4C5F4841 
 1913      535F494E 
 1913      46494E49 
 1913      54595F5F 
 1914              	.LASF153:
 1915 03dd 5F5F4C44 		.ascii	"__LDBL_MIN_EXP__ (-1021)\000"
 1915      424C5F4D 
 1915      494E5F45 
 1915      58505F5F 
 1915      20282D31 
 1916              	.LASF299:
 1917 03f6 5F5F5544 		.ascii	"__UDA_IBIT__ 32\000"
 1917      415F4942 
 1917      49545F5F 
 1917      20333200 
 1918              	.LASF247:
 1919 0406 5F5F4C41 		.ascii	"__LACCUM_IBIT__ 32\000"
 1919      4343554D 
 1919      5F494249 
 1919      545F5F20 
 1919      333200
 1920              	.LASF298:
 1921 0419 5F5F5544 		.ascii	"__UDA_FBIT__ 32\000"
 1921      415F4642 
 1921      49545F5F 
 1921      20333200 
 1922              	.LASF1:
 1923 0429 5F5F5354 		.ascii	"__STDC_HOSTED__ 1\000"
 1923      44435F48 
 1923      4F535445 
 1923      445F5F20 
 1923      3100
 1924              	.LASF334:
 1925 043b 5F5F4152 		.ascii	"__ARM_ARCH_PROFILE 77\000"
 1925      4D5F4152 
 1925      43485F50 
 1925      524F4649 
 1925      4C452037 
 1926              	.LASF157:
 1927 0451 5F5F4445 		.ascii	"__DECIMAL_DIG__ 17\000"
 1927      43494D41 
 1927      4C5F4449 
ARM GAS  C:\Users\STUDENT\AppData\Local\Temp\ccDEhX6s.s 			page 43


 1927      475F5F20 
 1927      313700
 1928              	.LASF364:
 1929 0464 5F656461 		.ascii	"_edata\000"
 1929      746100
 1930              	.LASF235:
 1931 046b 5F5F5553 		.ascii	"__USACCUM_EPSILON__ 0x1P-8UHK\000"
 1931      41434355 
 1931      4D5F4550 
 1931      53494C4F 
 1931      4E5F5F20 
 1932              	.LASF158:
 1933 0489 5F5F4C44 		.ascii	"__LDBL_MAX__ 1.7976931348623157e+308L\000"
 1933      424C5F4D 
 1933      41585F5F 
 1933      20312E37 
 1933      39373639 
 1934              	.LASF74:
 1935 04af 5F5F5749 		.ascii	"__WINT_MAX__ 0xffffffffU\000"
 1935      4E545F4D 
 1935      41585F5F 
 1935      20307866 
 1935      66666666 
 1936              	.LASF187:
 1937 04c8 5F5F5346 		.ascii	"__SFRACT_IBIT__ 0\000"
 1937      52414354 
 1937      5F494249 
 1937      545F5F20 
 1937      3000
 1938              	.LASF29:
 1939 04da 5F5F5349 		.ascii	"__SIZE_TYPE__ unsigned int\000"
 1939      5A455F54 
 1939      5950455F 
 1939      5F20756E 
 1939      7369676E 
 1940              	.LASF178:
 1941 04f5 5F5F4445 		.ascii	"__DEC64_SUBNORMAL_MIN__ 0.000000000000001E-383DD\000"
 1941      4336345F 
 1941      5355424E 
 1941      4F524D41 
 1941      4C5F4D49 
 1942              	.LASF131:
 1943 0526 5F5F464C 		.ascii	"__FLT_MIN__ 1.1754943508222875e-38F\000"
 1943      545F4D49 
 1943      4E5F5F20 
 1943      312E3137 
 1943      35343934 
 1944              	.LASF137:
 1945 054a 5F5F4442 		.ascii	"__DBL_MANT_DIG__ 53\000"
 1945      4C5F4D41 
 1945      4E545F44 
 1945      49475F5F 
 1945      20353300 
 1946              	.LASF207:
 1947 055e 5F5F4C46 		.ascii	"__LFRACT_IBIT__ 0\000"
 1947      52414354 
 1947      5F494249 
ARM GAS  C:\Users\STUDENT\AppData\Local\Temp\ccDEhX6s.s 			page 44


 1947      545F5F20 
 1947      3000
 1948              	.LASF53:
 1949 0570 5F5F5549 		.ascii	"__UINT_LEAST64_TYPE__ long long unsigned int\000"
 1949      4E545F4C 
 1949      45415354 
 1949      36345F54 
 1949      5950455F 
 1950              	.LASF358:
 1951 059d 70756C53 		.ascii	"pulSrc\000"
 1951      726300
 1952              	.LASF62:
 1953 05a4 5F5F494E 		.ascii	"__INTPTR_TYPE__ int\000"
 1953      54505452 
 1953      5F545950 
 1953      455F5F20 
 1953      696E7400 
 1954              	.LASF98:
 1955 05b8 5F5F494E 		.ascii	"__INT_LEAST64_MAX__ 0x7fffffffffffffffLL\000"
 1955      545F4C45 
 1955      41535436 
 1955      345F4D41 
 1955      585F5F20 
 1956              	.LASF222:
 1957 05e1 5F5F554C 		.ascii	"__ULLFRACT_IBIT__ 0\000"
 1957      4C465241 
 1957      43545F49 
 1957      4249545F 
 1957      5F203000 
 1958              	.LASF42:
 1959 05f5 5F5F5549 		.ascii	"__UINT8_TYPE__ unsigned char\000"
 1959      4E54385F 
 1959      54595045 
 1959      5F5F2075 
 1959      6E736967 
 1960              	.LASF167:
 1961 0612 5F5F4445 		.ascii	"__DEC32_MAX_EXP__ 97\000"
 1961      4333325F 
 1961      4D41585F 
 1961      4558505F 
 1961      5F203937 
 1962              	.LASF155:
 1963 0627 5F5F4C44 		.ascii	"__LDBL_MAX_EXP__ 1024\000"
 1963      424C5F4D 
 1963      41585F45 
 1963      58505F5F 
 1963      20313032 
 1964              	.LASF37:
 1965 063d 5F5F5349 		.ascii	"__SIG_ATOMIC_TYPE__ int\000"
 1965      475F4154 
 1965      4F4D4943 
 1965      5F545950 
 1965      455F5F20 
 1966              	.LASF216:
 1967 0655 5F5F4C4C 		.ascii	"__LLFRACT_FBIT__ 63\000"
 1967      46524143 
 1967      545F4642 
ARM GAS  C:\Users\STUDENT\AppData\Local\Temp\ccDEhX6s.s 			page 45


 1967      49545F5F 
 1967      20363300 
 1968              	.LASF19:
 1969 0669 5F5F5349 		.ascii	"__SIZEOF_LONG_DOUBLE__ 8\000"
 1969      5A454F46 
 1969      5F4C4F4E 
 1969      475F444F 
 1969      55424C45 
 1970              	.LASF196:
 1971 0682 5F5F4652 		.ascii	"__FRACT_FBIT__ 15\000"
 1971      4143545F 
 1971      46424954 
 1971      5F5F2031 
 1971      3500
 1972              	.LASF219:
 1973 0694 5F5F4C4C 		.ascii	"__LLFRACT_MAX__ 0X7FFFFFFFFFFFFFFFP-63LLR\000"
 1973      46524143 
 1973      545F4D41 
 1973      585F5F20 
 1973      30583746 
 1974              	.LASF348:
 1975 06be 5F5F4152 		.ascii	"__ARM_EABI__ 1\000"
 1975      4D5F4541 
 1975      42495F5F 
 1975      203100
 1976              	.LASF254:
 1977 06cd 5F5F554C 		.ascii	"__ULACCUM_MAX__ 0XFFFFFFFFFFFFFFFFP-32ULK\000"
 1977      41434355 
 1977      4D5F4D41 
 1977      585F5F20 
 1977      30584646 
 1978              	.LASF319:
 1979 06f7 5F5F4743 		.ascii	"__GCC_ATOMIC_TEST_AND_SET_TRUEVAL 1\000"
 1979      435F4154 
 1979      4F4D4943 
 1979      5F544553 
 1979      545F414E 
 1980              	.LASF293:
 1981 071b 5F5F5441 		.ascii	"__TA_IBIT__ 64\000"
 1981      5F494249 
 1981      545F5F20 
 1981      363400
 1982              	.LASF163:
 1983 072a 5F5F4C44 		.ascii	"__LDBL_HAS_INFINITY__ 1\000"
 1983      424C5F48 
 1983      41535F49 
 1983      4E46494E 
 1983      4954595F 
 1984              	.LASF134:
 1985 0742 5F5F464C 		.ascii	"__FLT_HAS_DENORM__ 1\000"
 1985      545F4841 
 1985      535F4445 
 1985      4E4F524D 
 1985      5F5F2031 
 1986              	.LASF325:
 1987 0757 5F5F5349 		.ascii	"__SIZEOF_PTRDIFF_T__ 4\000"
 1987      5A454F46 
ARM GAS  C:\Users\STUDENT\AppData\Local\Temp\ccDEhX6s.s 			page 46


 1987      5F505452 
 1987      44494646 
 1987      5F545F5F 
 1988              	.LASF113:
 1989 076e 5F5F5549 		.ascii	"__UINT_FAST16_MAX__ 0xffffffffU\000"
 1989      4E545F46 
 1989      41535431 
 1989      365F4D41 
 1989      585F5F20 
 1990              	.LASF116:
 1991 078e 5F5F494E 		.ascii	"__INTPTR_MAX__ 0x7fffffff\000"
 1991      54505452 
 1991      5F4D4158 
 1991      5F5F2030 
 1991      78376666 
 1992              	.LASF89:
 1993 07a8 5F5F5549 		.ascii	"__UINT16_MAX__ 0xffff\000"
 1993      4E543136 
 1993      5F4D4158 
 1993      5F5F2030 
 1993      78666666 
 1994              	.LASF314:
 1995 07be 5F5F4743 		.ascii	"__GCC_ATOMIC_WCHAR_T_LOCK_FREE 2\000"
 1995      435F4154 
 1995      4F4D4943 
 1995      5F574348 
 1995      41525F54 
 1996              	.LASF38:
 1997 07df 5F5F494E 		.ascii	"__INT8_TYPE__ signed char\000"
 1997      54385F54 
 1997      5950455F 
 1997      5F207369 
 1997      676E6564 
 1998              	.LASF26:
 1999 07f9 5F5F4259 		.ascii	"__BYTE_ORDER__ __ORDER_LITTLE_ENDIAN__\000"
 1999      54455F4F 
 1999      52444552 
 1999      5F5F205F 
 1999      5F4F5244 
 2000              	.LASF209:
 2001 0820 5F5F4C46 		.ascii	"__LFRACT_MAX__ 0X7FFFFFFFP-31LR\000"
 2001      52414354 
 2001      5F4D4158 
 2001      5F5F2030 
 2001      58374646 
 2002              	.LASF200:
 2003 0840 5F5F4652 		.ascii	"__FRACT_EPSILON__ 0x1P-15R\000"
 2003      4143545F 
 2003      45505349 
 2003      4C4F4E5F 
 2003      5F203078 
 2004              	.LASF322:
 2005 085b 5F5F5052 		.ascii	"__PRAGMA_REDEFINE_EXTNAME 1\000"
 2005      41474D41 
 2005      5F524544 
 2005      4546494E 
 2005      455F4558 
ARM GAS  C:\Users\STUDENT\AppData\Local\Temp\ccDEhX6s.s 			page 47


 2006              	.LASF27:
 2007 0877 5F5F464C 		.ascii	"__FLOAT_WORD_ORDER__ __ORDER_LITTLE_ENDIAN__\000"
 2007      4F41545F 
 2007      574F5244 
 2007      5F4F5244 
 2007      45525F5F 
 2008              	.LASF102:
 2009 08a4 5F5F5549 		.ascii	"__UINT_LEAST16_MAX__ 0xffff\000"
 2009      4E545F4C 
 2009      45415354 
 2009      31365F4D 
 2009      41585F5F 
 2010              	.LASF250:
 2011 08c0 5F5F4C41 		.ascii	"__LACCUM_EPSILON__ 0x1P-31LK\000"
 2011      4343554D 
 2011      5F455053 
 2011      494C4F4E 
 2011      5F5F2030 
 2012              	.LASF40:
 2013 08dd 5F5F494E 		.ascii	"__INT32_TYPE__ long int\000"
 2013      5433325F 
 2013      54595045 
 2013      5F5F206C 
 2013      6F6E6720 
 2014              	.LASF47:
 2015 08f5 5F5F494E 		.ascii	"__INT_LEAST16_TYPE__ short int\000"
 2015      545F4C45 
 2015      41535431 
 2015      365F5459 
 2015      50455F5F 
 2016              	.LASF55:
 2017 0914 5F5F494E 		.ascii	"__INT_FAST16_TYPE__ int\000"
 2017      545F4641 
 2017      53543136 
 2017      5F545950 
 2017      455F5F20 
 2018              	.LASF327:
 2019 092c 5F5F4152 		.ascii	"__ARM_FEATURE_SAT 1\000"
 2019      4D5F4645 
 2019      41545552 
 2019      455F5341 
 2019      54203100 
 2020              	.LASF237:
 2021 0940 5F5F4143 		.ascii	"__ACCUM_IBIT__ 16\000"
 2021      43554D5F 
 2021      49424954 
 2021      5F5F2031 
 2021      3600
 2022              	.LASF65:
 2023 0952 5F5F6861 		.ascii	"__has_include_next(STR) __has_include_next__(STR)\000"
 2023      735F696E 
 2023      636C7564 
 2023      655F6E65 
 2023      78742853 
 2024              	.LASF78:
 2025 0984 5F5F494E 		.ascii	"__INTMAX_MAX__ 0x7fffffffffffffffLL\000"
 2025      544D4158 
ARM GAS  C:\Users\STUDENT\AppData\Local\Temp\ccDEhX6s.s 			page 48


 2025      5F4D4158 
 2025      5F5F2030 
 2025      78376666 
 2026              	.LASF285:
 2027 09a8 5F5F5554 		.ascii	"__UTQ_IBIT__ 0\000"
 2027      515F4942 
 2027      49545F5F 
 2027      203000
 2028              	.LASF244:
 2029 09b7 5F5F5541 		.ascii	"__UACCUM_MAX__ 0XFFFFFFFFP-16UK\000"
 2029      4343554D 
 2029      5F4D4158 
 2029      5F5F2030 
 2029      58464646 
 2030              	.LASF39:
 2031 09d7 5F5F494E 		.ascii	"__INT16_TYPE__ short int\000"
 2031      5431365F 
 2031      54595045 
 2031      5F5F2073 
 2031      686F7274 
 2032              	.LASF164:
 2033 09f0 5F5F4C44 		.ascii	"__LDBL_HAS_QUIET_NAN__ 1\000"
 2033      424C5F48 
 2033      41535F51 
 2033      55494554 
 2033      5F4E414E 
 2034              	.LASF330:
 2035 0a09 5F5F4152 		.ascii	"__ARM_FEATURE_LDREX 7\000"
 2035      4D5F4645 
 2035      41545552 
 2035      455F4C44 
 2035      52455820 
 2036              	.LASF18:
 2037 0a1f 5F5F5349 		.ascii	"__SIZEOF_DOUBLE__ 8\000"
 2037      5A454F46 
 2037      5F444F55 
 2037      424C455F 
 2037      5F203800 
 2038              	.LASF234:
 2039 0a33 5F5F5553 		.ascii	"__USACCUM_MAX__ 0XFFFFP-8UHK\000"
 2039      41434355 
 2039      4D5F4D41 
 2039      585F5F20 
 2039      30584646 
 2040              	.LASF88:
 2041 0a50 5F5F5549 		.ascii	"__UINT8_MAX__ 0xff\000"
 2041      4E54385F 
 2041      4D41585F 
 2041      5F203078 
 2041      666600
 2042              	.LASF275:
 2043 0a63 5F5F5451 		.ascii	"__TQ_IBIT__ 0\000"
 2043      5F494249 
 2043      545F5F20 
 2043      3000
 2044              	.LASF77:
 2045 0a71 5F5F5349 		.ascii	"__SIZE_MAX__ 0xffffffffU\000"
ARM GAS  C:\Users\STUDENT\AppData\Local\Temp\ccDEhX6s.s 			page 49


 2045      5A455F4D 
 2045      41585F5F 
 2045      20307866 
 2045      66666666 
 2046              	.LASF266:
 2047 0a8a 5F5F5151 		.ascii	"__QQ_FBIT__ 7\000"
 2047      5F464249 
 2047      545F5F20 
 2047      3700
 2048              	.LASF321:
 2049 0a98 5F5F4743 		.ascii	"__GCC_HAVE_DWARF2_CFI_ASM 1\000"
 2049      435F4841 
 2049      56455F44 
 2049      57415246 
 2049      325F4346 
 2050              	.LASF189:
 2051 0ab4 5F5F5346 		.ascii	"__SFRACT_MAX__ 0X7FP-7HR\000"
 2051      52414354 
 2051      5F4D4158 
 2051      5F5F2030 
 2051      58374650 
 2052              	.LASF97:
 2053 0acd 5F5F494E 		.ascii	"__INT32_C(c) c ## L\000"
 2053      5433325F 
 2053      43286329 
 2053      20632023 
 2053      23204C00 
 2054              	.LASF341:
 2055 0ae1 5F5F4152 		.ascii	"__ARMEL__ 1\000"
 2055      4D454C5F 
 2055      5F203100 
 2056              	.LASF313:
 2057 0aed 5F5F4743 		.ascii	"__GCC_ATOMIC_CHAR32_T_LOCK_FREE 2\000"
 2057      435F4154 
 2057      4F4D4943 
 2057      5F434841 
 2057      5233325F 
 2058              	.LASF175:
 2059 0b0f 5F5F4445 		.ascii	"__DEC64_MIN__ 1E-383DD\000"
 2059      4336345F 
 2059      4D494E5F 
 2059      5F203145 
 2059      2D333833 
 2060              	.LASF34:
 2061 0b26 5F5F5549 		.ascii	"__UINTMAX_TYPE__ long long unsigned int\000"
 2061      4E544D41 
 2061      585F5459 
 2061      50455F5F 
 2061      206C6F6E 
 2062              	.LASF302:
 2063 0b4e 5F5F5245 		.ascii	"__REGISTER_PREFIX__ \000"
 2063      47495354 
 2063      45525F50 
 2063      52454649 
 2063      585F5F20 
 2064              	.LASF115:
 2065 0b63 5F5F5549 		.ascii	"__UINT_FAST64_MAX__ 0xffffffffffffffffULL\000"
ARM GAS  C:\Users\STUDENT\AppData\Local\Temp\ccDEhX6s.s 			page 50


 2065      4E545F46 
 2065      41535436 
 2065      345F4D41 
 2065      585F5F20 
 2066              	.LASF220:
 2067 0b8d 5F5F4C4C 		.ascii	"__LLFRACT_EPSILON__ 0x1P-63LLR\000"
 2067      46524143 
 2067      545F4550 
 2067      53494C4F 
 2067      4E5F5F20 
 2068              	.LASF15:
 2069 0bac 5F5F5349 		.ascii	"__SIZEOF_LONG_LONG__ 8\000"
 2069      5A454F46 
 2069      5F4C4F4E 
 2069      475F4C4F 
 2069      4E475F5F 
 2070              	.LASF124:
 2071 0bc3 5F5F464C 		.ascii	"__FLT_DIG__ 6\000"
 2071      545F4449 
 2071      475F5F20 
 2071      3600
 2072              	.LASF215:
 2073 0bd1 5F5F554C 		.ascii	"__ULFRACT_EPSILON__ 0x1P-32ULR\000"
 2073      46524143 
 2073      545F4550 
 2073      53494C4F 
 2073      4E5F5F20 
 2074              	.LASF323:
 2075 0bf0 5F5F5349 		.ascii	"__SIZEOF_WCHAR_T__ 4\000"
 2075      5A454F46 
 2075      5F574348 
 2075      41525F54 
 2075      5F5F2034 
 2076              	.LASF375:
 2077 0c05 433A5C55 		.ascii	"C:\\Users\\STUDENT\\Desktop\\RSC\\Embedded\\LEDs_ac"
 2077      73657273 
 2077      5C535455 
 2077      44454E54 
 2077      5C446573 
 2078 0c32 74697661 		.ascii	"tivation\000"
 2078      74696F6E 
 2078      00
 2079              	.LASF128:
 2080 0c3b 5F5F464C 		.ascii	"__FLT_MAX_10_EXP__ 38\000"
 2080      545F4D41 
 2080      585F3130 
 2080      5F455850 
 2080      5F5F2033 
 2081              	.LASF110:
 2082 0c51 5F5F494E 		.ascii	"__INT_FAST32_MAX__ 0x7fffffff\000"
 2082      545F4641 
 2082      53543332 
 2082      5F4D4158 
 2082      5F5F2030 
 2083              	.LASF75:
 2084 0c6f 5F5F5749 		.ascii	"__WINT_MIN__ 0U\000"
 2084      4E545F4D 
ARM GAS  C:\Users\STUDENT\AppData\Local\Temp\ccDEhX6s.s 			page 51


 2084      494E5F5F 
 2084      20305500 
 2085              	.LASF362:
 2086 0c7f 5F736964 		.ascii	"_sidata\000"
 2086      61746100 
 2087              	.LASF258:
 2088 0c87 5F5F4C4C 		.ascii	"__LLACCUM_MIN__ (-0X1P31LLK-0X1P31LLK)\000"
 2088      41434355 
 2088      4D5F4D49 
 2088      4E5F5F20 
 2088      282D3058 
 2089              	.LASF326:
 2090 0cae 5F5F4152 		.ascii	"__ARM_FEATURE_QBIT 1\000"
 2090      4D5F4645 
 2090      41545552 
 2090      455F5142 
 2090      49542031 
 2091              	.LASF93:
 2092 0cc3 5F5F494E 		.ascii	"__INT8_C(c) c\000"
 2092      54385F43 
 2092      28632920 
 2092      6300
 2093              	.LASF213:
 2094 0cd1 5F5F554C 		.ascii	"__ULFRACT_MIN__ 0.0ULR\000"
 2094      46524143 
 2094      545F4D49 
 2094      4E5F5F20 
 2094      302E3055 
 2095              	.LASF91:
 2096 0ce8 5F5F5549 		.ascii	"__UINT64_MAX__ 0xffffffffffffffffULL\000"
 2096      4E543634 
 2096      5F4D4158 
 2096      5F5F2030 
 2096      78666666 
 2097              	.LASF3:
 2098 0d0d 5F5F474E 		.ascii	"__GNUC_MINOR__ 4\000"
 2098      55435F4D 
 2098      494E4F52 
 2098      5F5F2034 
 2098      00
 2099              	.LASF121:
 2100 0d1e 5F5F4445 		.ascii	"__DEC_EVAL_METHOD__ 2\000"
 2100      435F4556 
 2100      414C5F4D 
 2100      4554484F 
 2100      445F5F20 
 2101              	.LASF169:
 2102 0d34 5F5F4445 		.ascii	"__DEC32_MAX__ 9.999999E96DF\000"
 2102      4333325F 
 2102      4D41585F 
 2102      5F20392E 
 2102      39393939 
 2103              	.LASF145:
 2104 0d50 5F5F4442 		.ascii	"__DBL_MIN__ ((double)2.2250738585072014e-308L)\000"
 2104      4C5F4D49 
 2104      4E5F5F20 
 2104      2828646F 
ARM GAS  C:\Users\STUDENT\AppData\Local\Temp\ccDEhX6s.s 			page 52


 2104      75626C65 
 2105              	.LASF377:
 2106 0d7f 52657365 		.ascii	"Reset_Handler\000"
 2106      745F4861 
 2106      6E646C65 
 2106      7200
 2107              	.LASF352:
 2108 0d8d 5F5F4758 		.ascii	"__GXX_TYPEINFO_EQUALITY_INLINE 0\000"
 2108      585F5459 
 2108      5045494E 
 2108      464F5F45 
 2108      5155414C 
 2109              	.LASF242:
 2110 0dae 5F5F5541 		.ascii	"__UACCUM_IBIT__ 16\000"
 2110      4343554D 
 2110      5F494249 
 2110      545F5F20 
 2110      313600
 2111              	.LASF373:
 2112 0dc1 474E5520 		.ascii	"GNU C89 5.4.1 20160919 (release) [ARM/embedded-5-br"
 2112      43383920 
 2112      352E342E 
 2112      31203230 
 2112      31363039 
 2113 0df4 616E6368 		.ascii	"anch revision 240496] -mcpu=cortex-m3 -mthumb -g -g"
 2113      20726576 
 2113      6973696F 
 2113      6E203234 
 2113      30343936 
 2114 0e27 67646233 		.ascii	"gdb3 -O0 -std=gnu90 -ffunction-sections -fdata-sect"
 2114      202D4F30 
 2114      202D7374 
 2114      643D676E 
 2114      75393020 
 2115 0e5a 696F6E73 		.ascii	"ions\000"
 2115      00
 2116              	.LASF136:
 2117 0e5f 5F5F464C 		.ascii	"__FLT_HAS_QUIET_NAN__ 1\000"
 2117      545F4841 
 2117      535F5155 
 2117      4945545F 
 2117      4E414E5F 
 2118              	.LASF159:
 2119 0e77 5F5F4C44 		.ascii	"__LDBL_MIN__ 2.2250738585072014e-308L\000"
 2119      424C5F4D 
 2119      494E5F5F 
 2119      20322E32 
 2119      32353037 
 2120              	.LASF87:
 2121 0e9d 5F5F494E 		.ascii	"__INT64_MAX__ 0x7fffffffffffffffLL\000"
 2121      5436345F 
 2121      4D41585F 
 2121      5F203078 
 2121      37666666 
 2122              	.LASF125:
 2123 0ec0 5F5F464C 		.ascii	"__FLT_MIN_EXP__ (-125)\000"
 2123      545F4D49 
ARM GAS  C:\Users\STUDENT\AppData\Local\Temp\ccDEhX6s.s 			page 53


 2123      4E5F4558 
 2123      505F5F20 
 2123      282D3132 
 2124              	.LASF349:
 2125 0ed7 5F5F4152 		.ascii	"__ARM_ARCH_EXT_IDIV__ 1\000"
 2125      4D5F4152 
 2125      43485F45 
 2125      58545F49 
 2125      4449565F 
 2126              	.LASF346:
 2127 0eef 5F5F4152 		.ascii	"__ARM_ARCH_7M__ 1\000"
 2127      4D5F4152 
 2127      43485F37 
 2127      4D5F5F20 
 2127      3100
 2128              	.LASF204:
 2129 0f01 5F5F5546 		.ascii	"__UFRACT_MAX__ 0XFFFFP-16UR\000"
 2129      52414354 
 2129      5F4D4158 
 2129      5F5F2030 
 2129      58464646 
 2130              	.LASF194:
 2131 0f1d 5F5F5553 		.ascii	"__USFRACT_MAX__ 0XFFP-8UHR\000"
 2131      46524143 
 2131      545F4D41 
 2131      585F5F20 
 2131      30584646 
 2132              	.LASF24:
 2133 0f38 5F5F4F52 		.ascii	"__ORDER_BIG_ENDIAN__ 4321\000"
 2133      4445525F 
 2133      4249475F 
 2133      454E4449 
 2133      414E5F5F 
 2134              	.LASF35:
 2135 0f52 5F5F4348 		.ascii	"__CHAR16_TYPE__ short unsigned int\000"
 2135      41523136 
 2135      5F545950 
 2135      455F5F20 
 2135      73686F72 
 2136              	.LASF193:
 2137 0f75 5F5F5553 		.ascii	"__USFRACT_MIN__ 0.0UHR\000"
 2137      46524143 
 2137      545F4D49 
 2137      4E5F5F20 
 2137      302E3055 
 2138              	.LASF280:
 2139 0f8c 5F5F5553 		.ascii	"__USQ_FBIT__ 32\000"
 2139      515F4642 
 2139      49545F5F 
 2139      20333200 
 2140              	.LASF33:
 2141 0f9c 5F5F494E 		.ascii	"__INTMAX_TYPE__ long long int\000"
 2141      544D4158 
 2141      5F545950 
 2141      455F5F20 
 2141      6C6F6E67 
 2142              	.LASF16:
ARM GAS  C:\Users\STUDENT\AppData\Local\Temp\ccDEhX6s.s 			page 54


 2143 0fba 5F5F5349 		.ascii	"__SIZEOF_SHORT__ 2\000"
 2143      5A454F46 
 2143      5F53484F 
 2143      52545F5F 
 2143      203200
 2144              	.LASF368:
 2145 0fcd 5F656273 		.ascii	"_ebss_ahb\000"
 2145      735F6168 
 2145      6200
 2146              	.LASF212:
 2147 0fd7 5F5F554C 		.ascii	"__ULFRACT_IBIT__ 0\000"
 2147      46524143 
 2147      545F4942 
 2147      49545F5F 
 2147      203000
 2148              	.LASF270:
 2149 0fea 5F5F5351 		.ascii	"__SQ_FBIT__ 31\000"
 2149      5F464249 
 2149      545F5F20 
 2149      333100
 2150              	.LASF290:
 2151 0ff9 5F5F4441 		.ascii	"__DA_FBIT__ 31\000"
 2151      5F464249 
 2151      545F5F20 
 2151      333100
 2152              	.LASF337:
 2153 1008 5F5F4150 		.ascii	"__APCS_32__ 1\000"
 2153      43535F33 
 2153      325F5F20 
 2153      3100
 2154              	.LASF95:
 2155 1016 5F5F494E 		.ascii	"__INT16_C(c) c\000"
 2155      5431365F 
 2155      43286329 
 2155      206300
 2156              	.LASF332:
 2157 1025 5F5F4152 		.ascii	"__ARM_SIZEOF_MINIMAL_ENUM 1\000"
 2157      4D5F5349 
 2157      5A454F46 
 2157      5F4D494E 
 2157      494D414C 
 2158              	.LASF248:
 2159 1041 5F5F4C41 		.ascii	"__LACCUM_MIN__ (-0X1P31LK-0X1P31LK)\000"
 2159      4343554D 
 2159      5F4D494E 
 2159      5F5F2028 
 2159      2D305831 
 2160              	.LASF240:
 2161 1065 5F5F4143 		.ascii	"__ACCUM_EPSILON__ 0x1P-15K\000"
 2161      43554D5F 
 2161      45505349 
 2161      4C4F4E5F 
 2161      5F203078 
 2162              	.LASF127:
 2163 1080 5F5F464C 		.ascii	"__FLT_MAX_EXP__ 128\000"
 2163      545F4D41 
 2163      585F4558 
ARM GAS  C:\Users\STUDENT\AppData\Local\Temp\ccDEhX6s.s 			page 55


 2163      505F5F20 
 2163      31323800 
 2164              	.LASF259:
 2165 1094 5F5F4C4C 		.ascii	"__LLACCUM_MAX__ 0X7FFFFFFFFFFFFFFFP-31LLK\000"
 2165      41434355 
 2165      4D5F4D41 
 2165      585F5F20 
 2165      30583746 
 2166              	.LASF297:
 2167 10be 5F5F5553 		.ascii	"__USA_IBIT__ 16\000"
 2167      415F4942 
 2167      49545F5F 
 2167      20313600 
 2168              	.LASF148:
 2169 10ce 5F5F4442 		.ascii	"__DBL_HAS_DENORM__ 1\000"
 2169      4C5F4841 
 2169      535F4445 
 2169      4E4F524D 
 2169      5F5F2031 
 2170              	.LASF201:
 2171 10e3 5F5F5546 		.ascii	"__UFRACT_FBIT__ 16\000"
 2171      52414354 
 2171      5F464249 
 2171      545F5F20 
 2171      313600
 2172              	.LASF109:
 2173 10f6 5F5F494E 		.ascii	"__INT_FAST16_MAX__ 0x7fffffff\000"
 2173      545F4641 
 2173      53543136 
 2173      5F4D4158 
 2173      5F5F2030 
 2174              	.LASF69:
 2175 1114 5F5F494E 		.ascii	"__INT_MAX__ 0x7fffffff\000"
 2175      545F4D41 
 2175      585F5F20 
 2175      30783766 
 2175      66666666 
 2176              	.LASF271:
 2177 112b 5F5F5351 		.ascii	"__SQ_IBIT__ 0\000"
 2177      5F494249 
 2177      545F5F20 
 2177      3000
 2178              	.LASF318:
 2179 1139 5F5F4743 		.ascii	"__GCC_ATOMIC_LLONG_LOCK_FREE 1\000"
 2179      435F4154 
 2179      4F4D4943 
 2179      5F4C4C4F 
 2179      4E475F4C 
 2180              	.LASF267:
 2181 1158 5F5F5151 		.ascii	"__QQ_IBIT__ 0\000"
 2181      5F494249 
 2181      545F5F20 
 2181      3000
 2182              	.LASF67:
 2183 1166 5F5F5343 		.ascii	"__SCHAR_MAX__ 0x7f\000"
 2183      4841525F 
 2183      4D41585F 
ARM GAS  C:\Users\STUDENT\AppData\Local\Temp\ccDEhX6s.s 			page 56


 2183      5F203078 
 2183      376600
 2184              	.LASF211:
 2185 1179 5F5F554C 		.ascii	"__ULFRACT_FBIT__ 32\000"
 2185      46524143 
 2185      545F4642 
 2185      49545F5F 
 2185      20333200 
 2186              	.LASF180:
 2187 118d 5F5F4445 		.ascii	"__DEC128_MIN_EXP__ (-6142)\000"
 2187      43313238 
 2187      5F4D494E 
 2187      5F455850 
 2187      5F5F2028 
 2188              	.LASF4:
 2189 11a8 5F5F474E 		.ascii	"__GNUC_PATCHLEVEL__ 1\000"
 2189      55435F50 
 2189      41544348 
 2189      4C455645 
 2189      4C5F5F20 
 2190              	.LASF262:
 2191 11be 5F5F554C 		.ascii	"__ULLACCUM_IBIT__ 32\000"
 2191      4C414343 
 2191      554D5F49 
 2191      4249545F 
 2191      5F203332 
 2192              	.LASF186:
 2193 11d3 5F5F5346 		.ascii	"__SFRACT_FBIT__ 7\000"
 2193      52414354 
 2193      5F464249 
 2193      545F5F20 
 2193      3700
 2194              	.LASF143:
 2195 11e5 5F5F4442 		.ascii	"__DBL_DECIMAL_DIG__ 17\000"
 2195      4C5F4445 
 2195      43494D41 
 2195      4C5F4449 
 2195      475F5F20 
 2196              	.LASF138:
 2197 11fc 5F5F4442 		.ascii	"__DBL_DIG__ 15\000"
 2197      4C5F4449 
 2197      475F5F20 
 2197      313500
 2198              	.LASF345:
 2199 120b 5F5F5448 		.ascii	"__THUMB_INTERWORK__ 1\000"
 2199      554D425F 
 2199      494E5445 
 2199      52574F52 
 2199      4B5F5F20 
 2200              	.LASF129:
 2201 1221 5F5F464C 		.ascii	"__FLT_DECIMAL_DIG__ 9\000"
 2201      545F4445 
 2201      43494D41 
 2201      4C5F4449 
 2201      475F5F20 
 2202              	.LASF57:
 2203 1237 5F5F494E 		.ascii	"__INT_FAST64_TYPE__ long long int\000"
ARM GAS  C:\Users\STUDENT\AppData\Local\Temp\ccDEhX6s.s 			page 57


 2203      545F4641 
 2203      53543634 
 2203      5F545950 
 2203      455F5F20 
 2204              	.LASF154:
 2205 1259 5F5F4C44 		.ascii	"__LDBL_MIN_10_EXP__ (-307)\000"
 2205      424C5F4D 
 2205      494E5F31 
 2205      305F4558 
 2205      505F5F20 
 2206              	.LASF329:
 2207 1274 5F5F4152 		.ascii	"__ARM_32BIT_STATE 1\000"
 2207      4D5F3332 
 2207      4249545F 
 2207      53544154 
 2207      45203100 
 2208              	.LASF13:
 2209 1288 5F5F5349 		.ascii	"__SIZEOF_INT__ 4\000"
 2209      5A454F46 
 2209      5F494E54 
 2209      5F5F2034 
 2209      00
 2210              	.LASF100:
 2211 1299 5F5F5549 		.ascii	"__UINT_LEAST8_MAX__ 0xff\000"
 2211      4E545F4C 
 2211      45415354 
 2211      385F4D41 
 2211      585F5F20 
 2212              	.LASF306:
 2213 12b2 5F5F4348 		.ascii	"__CHAR_UNSIGNED__ 1\000"
 2213      41525F55 
 2213      4E534947 
 2213      4E45445F 
 2213      5F203100 
 2214              	.LASF181:
 2215 12c6 5F5F4445 		.ascii	"__DEC128_MAX_EXP__ 6145\000"
 2215      43313238 
 2215      5F4D4158 
 2215      5F455850 
 2215      5F5F2036 
 2216              	.LASF85:
 2217 12de 5F5F494E 		.ascii	"__INT16_MAX__ 0x7fff\000"
 2217      5431365F 
 2217      4D41585F 
 2217      5F203078 
 2217      37666666 
 2218              	.LASF309:
 2219 12f3 5F5F4743 		.ascii	"__GCC_HAVE_SYNC_COMPARE_AND_SWAP_4 1\000"
 2219      435F4841 
 2219      56455F53 
 2219      594E435F 
 2219      434F4D50 
 2220              	.LASF371:
 2221 1318 73697A65 		.ascii	"sizetype\000"
 2221      74797065 
 2221      00
 2222              	.LASF210:
ARM GAS  C:\Users\STUDENT\AppData\Local\Temp\ccDEhX6s.s 			page 58


 2223 1321 5F5F4C46 		.ascii	"__LFRACT_EPSILON__ 0x1P-31LR\000"
 2223      52414354 
 2223      5F455053 
 2223      494C4F4E 
 2223      5F5F2030 
 2224              	.LASF161:
 2225 133e 5F5F4C44 		.ascii	"__LDBL_DENORM_MIN__ 4.9406564584124654e-324L\000"
 2225      424C5F44 
 2225      454E4F52 
 2225      4D5F4D49 
 2225      4E5F5F20 
 2226              	.LASF174:
 2227 136b 5F5F4445 		.ascii	"__DEC64_MAX_EXP__ 385\000"
 2227      4336345F 
 2227      4D41585F 
 2227      4558505F 
 2227      5F203338 
 2228              	.LASF147:
 2229 1381 5F5F4442 		.ascii	"__DBL_DENORM_MIN__ ((double)4.9406564584124654e-324"
 2229      4C5F4445 
 2229      4E4F524D 
 2229      5F4D494E 
 2229      5F5F2028 
 2230 13b4 4C2900   		.ascii	"L)\000"
 2231              	.LASF365:
 2232 13b7 5F736273 		.ascii	"_sbss\000"
 2232      7300
 2233              	.LASF123:
 2234 13bd 5F5F464C 		.ascii	"__FLT_MANT_DIG__ 24\000"
 2234      545F4D41 
 2234      4E545F44 
 2234      49475F5F 
 2234      20323400 
 2235              	.LASF2:
 2236 13d1 5F5F474E 		.ascii	"__GNUC__ 5\000"
 2236      55435F5F 
 2236      203500
 2237              	.LASF359:
 2238 13dc 70756C44 		.ascii	"pulDest\000"
 2238      65737400 
 2239              	.LASF54:
 2240 13e4 5F5F494E 		.ascii	"__INT_FAST8_TYPE__ int\000"
 2240      545F4641 
 2240      5354385F 
 2240      54595045 
 2240      5F5F2069 
 2241              	.LASF372:
 2242 13fb 675F7066 		.ascii	"g_pfnVectors\000"
 2242      6E566563 
 2242      746F7273 
 2242      00
 2243              	.LASF336:
 2244 1408 5F5F4152 		.ascii	"__ARM_ARCH 7\000"
 2244      4D5F4152 
 2244      43482037 
 2244      00
 2245              	.LASF22:
ARM GAS  C:\Users\STUDENT\AppData\Local\Temp\ccDEhX6s.s 			page 59


 2246 1415 5F5F4249 		.ascii	"__BIGGEST_ALIGNMENT__ 8\000"
 2246      47474553 
 2246      545F414C 
 2246      49474E4D 
 2246      454E545F 
 2247              	.LASF90:
 2248 142d 5F5F5549 		.ascii	"__UINT32_MAX__ 0xffffffffUL\000"
 2248      4E543332 
 2248      5F4D4158 
 2248      5F5F2030 
 2248      78666666 
 2249              	.LASF276:
 2250 1449 5F5F5551 		.ascii	"__UQQ_FBIT__ 8\000"
 2250      515F4642 
 2250      49545F5F 
 2250      203800
 2251              	.LASF176:
 2252 1458 5F5F4445 		.ascii	"__DEC64_MAX__ 9.999999999999999E384DD\000"
 2252      4336345F 
 2252      4D41585F 
 2252      5F20392E 
 2252      39393939 
 2253              	.LASF111:
 2254 147e 5F5F494E 		.ascii	"__INT_FAST64_MAX__ 0x7fffffffffffffffLL\000"
 2254      545F4641 
 2254      53543634 
 2254      5F4D4158 
 2254      5F5F2030 
 2255              	.LASF183:
 2256 14a6 5F5F4445 		.ascii	"__DEC128_MAX__ 9.999999999999999999999999999999999E"
 2256      43313238 
 2256      5F4D4158 
 2256      5F5F2039 
 2256      2E393939 
 2257 14d9 36313434 		.ascii	"6144DL\000"
 2257      444C00
 2258              	.LASF340:
 2259 14e0 5F5F4152 		.ascii	"__ARM_ARCH_ISA_THUMB 2\000"
 2259      4D5F4152 
 2259      43485F49 
 2259      53415F54 
 2259      48554D42 
 2260              	.LASF51:
 2261 14f7 5F5F5549 		.ascii	"__UINT_LEAST16_TYPE__ short unsigned int\000"
 2261      4E545F4C 
 2261      45415354 
 2261      31365F54 
 2261      5950455F 
 2262              	.LASF328:
 2263 1520 5F5F4152 		.ascii	"__ARM_FEATURE_UNALIGNED 1\000"
 2263      4D5F4645 
 2263      41545552 
 2263      455F554E 
 2263      414C4947 
 2264              	.LASF141:
 2265 153a 5F5F4442 		.ascii	"__DBL_MAX_EXP__ 1024\000"
 2265      4C5F4D41 
ARM GAS  C:\Users\STUDENT\AppData\Local\Temp\ccDEhX6s.s 			page 60


 2265      585F4558 
 2265      505F5F20 
 2265      31303234 
 2266              	.LASF0:
 2267 154f 5F5F5354 		.ascii	"__STDC__ 1\000"
 2267      44435F5F 
 2267      203100
 2268              	.LASF353:
 2269 155a 5F5F454C 		.ascii	"__ELF__ 1\000"
 2269      465F5F20 
 2269      3100
 2270              	.LASF374:
 2271 1564 73797374 		.ascii	"system/startup_LPC17xx.c\000"
 2271      656D2F73 
 2271      74617274 
 2271      75705F4C 
 2271      50433137 
 2272              	.LASF119:
 2273 157d 5F5F4743 		.ascii	"__GCC_IEC_559_COMPLEX 0\000"
 2273      435F4945 
 2273      435F3535 
 2273      395F434F 
 2273      4D504C45 
 2274              	.LASF301:
 2275 1595 5F5F5554 		.ascii	"__UTA_IBIT__ 64\000"
 2275      415F4942 
 2275      49545F5F 
 2275      20363400 
 2276              	.LASF8:
 2277 15a5 5F5F4154 		.ascii	"__ATOMIC_ACQUIRE 2\000"
 2277      4F4D4943 
 2277      5F414351 
 2277      55495245 
 2277      203200
 2278              	.LASF177:
 2279 15b8 5F5F4445 		.ascii	"__DEC64_EPSILON__ 1E-15DD\000"
 2279      4336345F 
 2279      45505349 
 2279      4C4F4E5F 
 2279      5F203145 
 2280              	.LASF71:
 2281 15d2 5F5F4C4F 		.ascii	"__LONG_LONG_MAX__ 0x7fffffffffffffffLL\000"
 2281      4E475F4C 
 2281      4F4E475F 
 2281      4D41585F 
 2281      5F203078 
 2282              	.LASF80:
 2283 15f9 5F5F5549 		.ascii	"__UINTMAX_MAX__ 0xffffffffffffffffULL\000"
 2283      4E544D41 
 2283      585F4D41 
 2283      585F5F20 
 2283      30786666 
 2284              	.LASF311:
 2285 161f 5F5F4743 		.ascii	"__GCC_ATOMIC_CHAR_LOCK_FREE 2\000"
 2285      435F4154 
 2285      4F4D4943 
 2285      5F434841 
ARM GAS  C:\Users\STUDENT\AppData\Local\Temp\ccDEhX6s.s 			page 61


 2285      525F4C4F 
 2286              	.LASF184:
 2287 163d 5F5F4445 		.ascii	"__DEC128_EPSILON__ 1E-33DL\000"
 2287      43313238 
 2287      5F455053 
 2287      494C4F4E 
 2287      5F5F2031 
 2288              	.LASF283:
 2289 1658 5F5F5544 		.ascii	"__UDQ_IBIT__ 0\000"
 2289      515F4942 
 2289      49545F5F 
 2289      203000
 2290              	.LASF166:
 2291 1667 5F5F4445 		.ascii	"__DEC32_MIN_EXP__ (-94)\000"
 2291      4333325F 
 2291      4D494E5F 
 2291      4558505F 
 2291      5F20282D 
 2292              	.LASF60:
 2293 167f 5F5F5549 		.ascii	"__UINT_FAST32_TYPE__ unsigned int\000"
 2293      4E545F46 
 2293      41535433 
 2293      325F5459 
 2293      50455F5F 
 2294              	.LASF152:
 2295 16a1 5F5F4C44 		.ascii	"__LDBL_DIG__ 15\000"
 2295      424C5F44 
 2295      49475F5F 
 2295      20313500 
 2296              	.LASF331:
 2297 16b1 5F5F4152 		.ascii	"__ARM_FEATURE_CLZ 1\000"
 2297      4D5F4645 
 2297      41545552 
 2297      455F434C 
 2297      5A203100 
 2298              	.LASF160:
 2299 16c5 5F5F4C44 		.ascii	"__LDBL_EPSILON__ 2.2204460492503131e-16L\000"
 2299      424C5F45 
 2299      5053494C 
 2299      4F4E5F5F 
 2299      20322E32 
 2300              	.LASF281:
 2301 16ee 5F5F5553 		.ascii	"__USQ_IBIT__ 0\000"
 2301      515F4942 
 2301      49545F5F 
 2301      203000
 2302              	.LASF304:
 2303 16fd 5F5F474E 		.ascii	"__GNUC_GNU_INLINE__ 1\000"
 2303      55435F47 
 2303      4E555F49 
 2303      4E4C494E 
 2303      455F5F20 
 2304              	.LASF191:
 2305 1713 5F5F5553 		.ascii	"__USFRACT_FBIT__ 8\000"
 2305      46524143 
 2305      545F4642 
 2305      49545F5F 
ARM GAS  C:\Users\STUDENT\AppData\Local\Temp\ccDEhX6s.s 			page 62


 2305      203800
 2306              	.LASF9:
 2307 1726 5F5F4154 		.ascii	"__ATOMIC_RELEASE 3\000"
 2307      4F4D4943 
 2307      5F52454C 
 2307      45415345 
 2307      203300
 2308              	.LASF287:
 2309 1739 5F5F4841 		.ascii	"__HA_IBIT__ 8\000"
 2309      5F494249 
 2309      545F5F20 
 2309      3800
 2310              	.LASF44:
 2311 1747 5F5F5549 		.ascii	"__UINT32_TYPE__ long unsigned int\000"
 2311      4E543332 
 2311      5F545950 
 2311      455F5F20 
 2311      6C6F6E67 
 2312              	.LASF105:
 2313 1769 5F5F5549 		.ascii	"__UINT32_C(c) c ## UL\000"
 2313      4E543332 
 2313      5F432863 
 2313      29206320 
 2313      23232055 
 2314              	.LASF203:
 2315 177f 5F5F5546 		.ascii	"__UFRACT_MIN__ 0.0UR\000"
 2315      52414354 
 2315      5F4D494E 
 2315      5F5F2030 
 2315      2E305552 
 2316              	.LASF139:
 2317 1794 5F5F4442 		.ascii	"__DBL_MIN_EXP__ (-1021)\000"
 2317      4C5F4D49 
 2317      4E5F4558 
 2317      505F5F20 
 2317      282D3130 
 2318              	.LASF94:
 2319 17ac 5F5F494E 		.ascii	"__INT_LEAST16_MAX__ 0x7fff\000"
 2319      545F4C45 
 2319      41535431 
 2319      365F4D41 
 2319      585F5F20 
 2320              	.LASF179:
 2321 17c7 5F5F4445 		.ascii	"__DEC128_MANT_DIG__ 34\000"
 2321      43313238 
 2321      5F4D414E 
 2321      545F4449 
 2321      475F5F20 
 2322              	.LASF224:
 2323 17de 5F5F554C 		.ascii	"__ULLFRACT_MAX__ 0XFFFFFFFFFFFFFFFFP-64ULLR\000"
 2323      4C465241 
 2323      43545F4D 
 2323      41585F5F 
 2323      20305846 
 2324              	.LASF173:
 2325 180a 5F5F4445 		.ascii	"__DEC64_MIN_EXP__ (-382)\000"
 2325      4336345F 
ARM GAS  C:\Users\STUDENT\AppData\Local\Temp\ccDEhX6s.s 			page 63


 2325      4D494E5F 
 2325      4558505F 
 2325      5F20282D 
 2326              	.LASF130:
 2327 1823 5F5F464C 		.ascii	"__FLT_MAX__ 3.4028234663852886e+38F\000"
 2327      545F4D41 
 2327      585F5F20 
 2327      332E3430 
 2327      32383233 
 2328              	.LASF241:
 2329 1847 5F5F5541 		.ascii	"__UACCUM_FBIT__ 16\000"
 2329      4343554D 
 2329      5F464249 
 2329      545F5F20 
 2329      313600
 2330              	.LASF245:
 2331 185a 5F5F5541 		.ascii	"__UACCUM_EPSILON__ 0x1P-16UK\000"
 2331      4343554D 
 2331      5F455053 
 2331      494C4F4E 
 2331      5F5F2030 
 2332              	.LASF188:
 2333 1877 5F5F5346 		.ascii	"__SFRACT_MIN__ (-0.5HR-0.5HR)\000"
 2333      52414354 
 2333      5F4D494E 
 2333      5F5F2028 
 2333      2D302E35 
 2334              	.LASF350:
 2335 1895 5F5F4152 		.ascii	"__ARM_FEATURE_IDIV 1\000"
 2335      4D5F4645 
 2335      41545552 
 2335      455F4944 
 2335      49562031 
 2336              	.LASF351:
 2337 18aa 5F5F4152 		.ascii	"__ARM_ASM_SYNTAX_UNIFIED__ 1\000"
 2337      4D5F4153 
 2337      4D5F5359 
 2337      4E544158 
 2337      5F554E49 
 2338              	.LASF339:
 2339 18c7 5F5F7468 		.ascii	"__thumb2__ 1\000"
 2339      756D6232 
 2339      5F5F2031 
 2339      00
 2340              	.LASF273:
 2341 18d4 5F5F4451 		.ascii	"__DQ_IBIT__ 0\000"
 2341      5F494249 
 2341      545F5F20 
 2341      3000
 2342              	.LASF79:
 2343 18e2 5F5F494E 		.ascii	"__INTMAX_C(c) c ## LL\000"
 2343      544D4158 
 2343      5F432863 
 2343      29206320 
 2343      2323204C 
 2344              	.LASF315:
 2345 18f8 5F5F4743 		.ascii	"__GCC_ATOMIC_SHORT_LOCK_FREE 2\000"
ARM GAS  C:\Users\STUDENT\AppData\Local\Temp\ccDEhX6s.s 			page 64


 2345      435F4154 
 2345      4F4D4943 
 2345      5F53484F 
 2345      52545F4C 
 2346              	.LASF317:
 2347 1917 5F5F4743 		.ascii	"__GCC_ATOMIC_LONG_LOCK_FREE 2\000"
 2347      435F4154 
 2347      4F4D4943 
 2347      5F4C4F4E 
 2347      475F4C4F 
 2348              	.LASF76:
 2349 1935 5F5F5054 		.ascii	"__PTRDIFF_MAX__ 0x7fffffff\000"
 2349      52444946 
 2349      465F4D41 
 2349      585F5F20 
 2349      30783766 
 2350              	.LASF335:
 2351 1950 5F5F6172 		.ascii	"__arm__ 1\000"
 2351      6D5F5F20 
 2351      3100
 2352              	.LASF120:
 2353 195a 5F5F464C 		.ascii	"__FLT_EVAL_METHOD__ 0\000"
 2353      545F4556 
 2353      414C5F4D 
 2353      4554484F 
 2353      445F5F20 
 2354              	.LASF46:
 2355 1970 5F5F494E 		.ascii	"__INT_LEAST8_TYPE__ signed char\000"
 2355      545F4C45 
 2355      41535438 
 2355      5F545950 
 2355      455F5F20 
 2356              	.LASF103:
 2357 1990 5F5F5549 		.ascii	"__UINT16_C(c) c\000"
 2357      4E543136 
 2357      5F432863 
 2357      29206300 
 2358              	.LASF68:
 2359 19a0 5F5F5348 		.ascii	"__SHRT_MAX__ 0x7fff\000"
 2359      52545F4D 
 2359      41585F5F 
 2359      20307837 
 2359      66666600 
 2360              	.LASF17:
 2361 19b4 5F5F5349 		.ascii	"__SIZEOF_FLOAT__ 4\000"
 2361      5A454F46 
 2361      5F464C4F 
 2361      41545F5F 
 2361      203400
 2362              	.LASF142:
 2363 19c7 5F5F4442 		.ascii	"__DBL_MAX_10_EXP__ 308\000"
 2363      4C5F4D41 
 2363      585F3130 
 2363      5F455850 
 2363      5F5F2033 
 2364              	.LASF133:
 2365 19de 5F5F464C 		.ascii	"__FLT_DENORM_MIN__ 1.4012984643248171e-45F\000"
ARM GAS  C:\Users\STUDENT\AppData\Local\Temp\ccDEhX6s.s 			page 65


 2365      545F4445 
 2365      4E4F524D 
 2365      5F4D494E 
 2365      5F5F2031 
 2366              	.LASF132:
 2367 1a09 5F5F464C 		.ascii	"__FLT_EPSILON__ 1.1920928955078125e-7F\000"
 2367      545F4550 
 2367      53494C4F 
 2367      4E5F5F20 
 2367      312E3139 
 2368              	.LASF25:
 2369 1a30 5F5F4F52 		.ascii	"__ORDER_PDP_ENDIAN__ 3412\000"
 2369      4445525F 
 2369      5044505F 
 2369      454E4449 
 2369      414E5F5F 
 2370              	.LASF320:
 2371 1a4a 5F5F4743 		.ascii	"__GCC_ATOMIC_POINTER_LOCK_FREE 2\000"
 2371      435F4154 
 2371      4F4D4943 
 2371      5F504F49 
 2371      4E544552 
 2372              	.LASF232:
 2373 1a6b 5F5F5553 		.ascii	"__USACCUM_IBIT__ 8\000"
 2373      41434355 
 2373      4D5F4942 
 2373      49545F5F 
 2373      203800
 2374              	.LASF23:
 2375 1a7e 5F5F4F52 		.ascii	"__ORDER_LITTLE_ENDIAN__ 1234\000"
 2375      4445525F 
 2375      4C495454 
 2375      4C455F45 
 2375      4E444941 
 2376              	.LASF32:
 2377 1a9b 5F5F5749 		.ascii	"__WINT_TYPE__ unsigned int\000"
 2377      4E545F54 
 2377      5950455F 
 2377      5F20756E 
 2377      7369676E 
 2378              	.LASF49:
 2379 1ab6 5F5F494E 		.ascii	"__INT_LEAST64_TYPE__ long long int\000"
 2379      545F4C45 
 2379      41535436 
 2379      345F5459 
 2379      50455F5F 
 2380              	.LASF6:
 2381 1ad9 5F5F4154 		.ascii	"__ATOMIC_RELAXED 0\000"
 2381      4F4D4943 
 2381      5F52454C 
 2381      41584544 
 2381      203000
 2382              	.LASF291:
 2383 1aec 5F5F4441 		.ascii	"__DA_IBIT__ 32\000"
 2383      5F494249 
 2383      545F5F20 
 2383      333200
ARM GAS  C:\Users\STUDENT\AppData\Local\Temp\ccDEhX6s.s 			page 66


 2384              	.LASF249:
 2385 1afb 5F5F4C41 		.ascii	"__LACCUM_MAX__ 0X7FFFFFFFFFFFFFFFP-31LK\000"
 2385      4343554D 
 2385      5F4D4158 
 2385      5F5F2030 
 2385      58374646 
 2386              	.LASF263:
 2387 1b23 5F5F554C 		.ascii	"__ULLACCUM_MIN__ 0.0ULLK\000"
 2387      4C414343 
 2387      554D5F4D 
 2387      494E5F5F 
 2387      20302E30 
 2388              	.LASF96:
 2389 1b3c 5F5F494E 		.ascii	"__INT_LEAST32_MAX__ 0x7fffffffL\000"
 2389      545F4C45 
 2389      41535433 
 2389      325F4D41 
 2389      585F5F20 
 2390              	.LASF165:
 2391 1b5c 5F5F4445 		.ascii	"__DEC32_MANT_DIG__ 7\000"
 2391      4333325F 
 2391      4D414E54 
 2391      5F444947 
 2391      5F5F2037 
 2392              	.LASF118:
 2393 1b71 5F5F4743 		.ascii	"__GCC_IEC_559 0\000"
 2393      435F4945 
 2393      435F3535 
 2393      39203000 
 2394              	.LASF239:
 2395 1b81 5F5F4143 		.ascii	"__ACCUM_MAX__ 0X7FFFFFFFP-15K\000"
 2395      43554D5F 
 2395      4D41585F 
 2395      5F203058 
 2395      37464646 
 2396              	.LASF369:
 2397 1b9f 5F657374 		.ascii	"_estack\000"
 2397      61636B00 
 2398              	.LASF229:
 2399 1ba7 5F5F5341 		.ascii	"__SACCUM_MAX__ 0X7FFFP-7HK\000"
 2399      4343554D 
 2399      5F4D4158 
 2399      5F5F2030 
 2399      58374646 
 2400              	.LASF236:
 2401 1bc2 5F5F4143 		.ascii	"__ACCUM_FBIT__ 15\000"
 2401      43554D5F 
 2401      46424954 
 2401      5F5F2031 
 2401      3500
 2402              	.LASF192:
 2403 1bd4 5F5F5553 		.ascii	"__USFRACT_IBIT__ 0\000"
 2403      46524143 
 2403      545F4942 
 2403      49545F5F 
 2403      203000
 2404              	.LASF288:
ARM GAS  C:\Users\STUDENT\AppData\Local\Temp\ccDEhX6s.s 			page 67


 2405 1be7 5F5F5341 		.ascii	"__SA_FBIT__ 15\000"
 2405      5F464249 
 2405      545F5F20 
 2405      313500
 2406              	.LASF252:
 2407 1bf6 5F5F554C 		.ascii	"__ULACCUM_IBIT__ 32\000"
 2407      41434355 
 2407      4D5F4942 
 2407      49545F5F 
 2407      20333200 
 2408              	.LASF272:
 2409 1c0a 5F5F4451 		.ascii	"__DQ_FBIT__ 63\000"
 2409      5F464249 
 2409      545F5F20 
 2409      363300
 2410              	.LASF66:
 2411 1c19 5F5F4758 		.ascii	"__GXX_ABI_VERSION 1009\000"
 2411      585F4142 
 2411      495F5645 
 2411      5253494F 
 2411      4E203130 
 2412              	.LASF82:
 2413 1c30 5F5F5349 		.ascii	"__SIG_ATOMIC_MAX__ 0x7fffffff\000"
 2413      475F4154 
 2413      4F4D4943 
 2413      5F4D4158 
 2413      5F5F2030 
 2414              	.LASF282:
 2415 1c4e 5F5F5544 		.ascii	"__UDQ_FBIT__ 64\000"
 2415      515F4642 
 2415      49545F5F 
 2415      20363400 
 2416              	.LASF269:
 2417 1c5e 5F5F4851 		.ascii	"__HQ_IBIT__ 0\000"
 2417      5F494249 
 2417      545F5F20 
 2417      3000
 2418              	.LASF370:
 2419 1c6c 6C6F6E67 		.ascii	"long unsigned int\000"
 2419      20756E73 
 2419      69676E65 
 2419      6420696E 
 2419      7400
 2420              	.LASF360:
 2421 1c7e 5F696E69 		.ascii	"_init\000"
 2421      7400
 2422              	.LASF286:
 2423 1c84 5F5F4841 		.ascii	"__HA_FBIT__ 7\000"
 2423      5F464249 
 2423      545F5F20 
 2423      3700
 2424              	.LASF151:
 2425 1c92 5F5F4C44 		.ascii	"__LDBL_MANT_DIG__ 53\000"
 2425      424C5F4D 
 2425      414E545F 
 2425      4449475F 
 2425      5F203533 
ARM GAS  C:\Users\STUDENT\AppData\Local\Temp\ccDEhX6s.s 			page 68


 2426              	.LASF205:
 2427 1ca7 5F5F5546 		.ascii	"__UFRACT_EPSILON__ 0x1P-16UR\000"
 2427      52414354 
 2427      5F455053 
 2427      494C4F4E 
 2427      5F5F2030 
 2428              	.LASF63:
 2429 1cc4 5F5F5549 		.ascii	"__UINTPTR_TYPE__ unsigned int\000"
 2429      4E545054 
 2429      525F5459 
 2429      50455F5F 
 2429      20756E73 
 2430              	.LASF107:
 2431 1ce2 5F5F5549 		.ascii	"__UINT64_C(c) c ## ULL\000"
 2431      4E543634 
 2431      5F432863 
 2431      29206320 
 2431      23232055 
 2432              	.LASF274:
 2433 1cf9 5F5F5451 		.ascii	"__TQ_FBIT__ 127\000"
 2433      5F464249 
 2433      545F5F20 
 2433      31323700 
 2434              	.LASF228:
 2435 1d09 5F5F5341 		.ascii	"__SACCUM_MIN__ (-0X1P7HK-0X1P7HK)\000"
 2435      4343554D 
 2435      5F4D494E 
 2435      5F5F2028 
 2435      2D305831 
 2436              	.LASF135:
 2437 1d2b 5F5F464C 		.ascii	"__FLT_HAS_INFINITY__ 1\000"
 2437      545F4841 
 2437      535F494E 
 2437      46494E49 
 2437      54595F5F 
 2438              	.LASF73:
 2439 1d42 5F5F5743 		.ascii	"__WCHAR_MIN__ 0U\000"
 2439      4841525F 
 2439      4D494E5F 
 2439      5F203055 
 2439      00
 2440              	.LASF231:
 2441 1d53 5F5F5553 		.ascii	"__USACCUM_FBIT__ 8\000"
 2441      41434355 
 2441      4D5F4642 
 2441      49545F5F 
 2441      203800
 2442              	.LASF156:
 2443 1d66 5F5F4C44 		.ascii	"__LDBL_MAX_10_EXP__ 308\000"
 2443      424C5F4D 
 2443      41585F31 
 2443      305F4558 
 2443      505F5F20 
 2444              	.LASF305:
 2445 1d7e 5F5F4E4F 		.ascii	"__NO_INLINE__ 1\000"
 2445      5F494E4C 
 2445      494E455F 
ARM GAS  C:\Users\STUDENT\AppData\Local\Temp\ccDEhX6s.s 			page 69


 2445      5F203100 
 2446              	.LASF225:
 2447 1d8e 5F5F554C 		.ascii	"__ULLFRACT_EPSILON__ 0x1P-64ULLR\000"
 2447      4C465241 
 2447      43545F45 
 2447      5053494C 
 2447      4F4E5F5F 
 2448              	.LASF14:
 2449 1daf 5F5F5349 		.ascii	"__SIZEOF_LONG__ 4\000"
 2449      5A454F46 
 2449      5F4C4F4E 
 2449      475F5F20 
 2449      3400
 2450              	.LASF114:
 2451 1dc1 5F5F5549 		.ascii	"__UINT_FAST32_MAX__ 0xffffffffU\000"
 2451      4E545F46 
 2451      41535433 
 2451      325F4D41 
 2451      585F5F20 
 2452              	.LASF208:
 2453 1de1 5F5F4C46 		.ascii	"__LFRACT_MIN__ (-0.5LR-0.5LR)\000"
 2453      52414354 
 2453      5F4D494E 
 2453      5F5F2028 
 2453      2D302E35 
 2454              	.LASF356:
 2455 1dff 5745414B 		.ascii	"WEAK __attribute__ ((weak))\000"
 2455      205F5F61 
 2455      74747269 
 2455      62757465 
 2455      5F5F2028 
 2456              	.LASF58:
 2457 1e1b 5F5F5549 		.ascii	"__UINT_FAST8_TYPE__ unsigned int\000"
 2457      4E545F46 
 2457      41535438 
 2457      5F545950 
 2457      455F5F20 
 2458              	.LASF30:
 2459 1e3c 5F5F5054 		.ascii	"__PTRDIFF_TYPE__ int\000"
 2459      52444946 
 2459      465F5459 
 2459      50455F5F 
 2459      20696E74 
 2460              	.LASF162:
 2461 1e51 5F5F4C44 		.ascii	"__LDBL_HAS_DENORM__ 1\000"
 2461      424C5F48 
 2461      41535F44 
 2461      454E4F52 
 2461      4D5F5F20 
 2462              	.LASF361:
 2463 1e67 44656661 		.ascii	"Default_Handler\000"
 2463      756C745F 
 2463      48616E64 
 2463      6C657200 
 2464              	.LASF31:
 2465 1e77 5F5F5743 		.ascii	"__WCHAR_TYPE__ unsigned int\000"
 2465      4841525F 
ARM GAS  C:\Users\STUDENT\AppData\Local\Temp\ccDEhX6s.s 			page 70


 2465      54595045 
 2465      5F5F2075 
 2465      6E736967 
 2466              	.LASF312:
 2467 1e93 5F5F4743 		.ascii	"__GCC_ATOMIC_CHAR16_T_LOCK_FREE 2\000"
 2467      435F4154 
 2467      4F4D4943 
 2467      5F434841 
 2467      5231365F 
 2468              	.LASF146:
 2469 1eb5 5F5F4442 		.ascii	"__DBL_EPSILON__ ((double)2.2204460492503131e-16L)\000"
 2469      4C5F4550 
 2469      53494C4F 
 2469      4E5F5F20 
 2469      2828646F 
 2470              	.LASF338:
 2471 1ee7 5F5F7468 		.ascii	"__thumb__ 1\000"
 2471      756D625F 
 2471      5F203100 
 2472              	.LASF294:
 2473 1ef3 5F5F5548 		.ascii	"__UHA_FBIT__ 8\000"
 2473      415F4642 
 2473      49545F5F 
 2473      203800
 2474              	.LASF11:
 2475 1f02 5F5F4154 		.ascii	"__ATOMIC_CONSUME 1\000"
 2475      4F4D4943 
 2475      5F434F4E 
 2475      53554D45 
 2475      203100
 2476              	.LASF355:
 2477 1f15 53544152 		.ascii	"STARTUP_FREERTOS 1\000"
 2477      5455505F 
 2477      46524545 
 2477      52544F53 
 2477      203100
 2478              	.LASF185:
 2479 1f28 5F5F4445 		.ascii	"__DEC128_SUBNORMAL_MIN__ 0.000000000000000000000000"
 2479      43313238 
 2479      5F535542 
 2479      4E4F524D 
 2479      414C5F4D 
 2480 1f5b 30303030 		.ascii	"000000001E-6143DL\000"
 2480      30303030 
 2480      31452D36 
 2480      31343344 
 2480      4C00
 2481              	.LASF366:
 2482 1f6d 5F736273 		.ascii	"_sbss_ahb\000"
 2482      735F6168 
 2482      6200
 2483              	.LASF43:
 2484 1f77 5F5F5549 		.ascii	"__UINT16_TYPE__ short unsigned int\000"
 2484      4E543136 
 2484      5F545950 
 2484      455F5F20 
 2484      73686F72 
ARM GAS  C:\Users\STUDENT\AppData\Local\Temp\ccDEhX6s.s 			page 71


 2485              	.LASF202:
 2486 1f9a 5F5F5546 		.ascii	"__UFRACT_IBIT__ 0\000"
 2486      52414354 
 2486      5F494249 
 2486      545F5F20 
 2486      3000
 2487              	.LASF226:
 2488 1fac 5F5F5341 		.ascii	"__SACCUM_FBIT__ 7\000"
 2488      4343554D 
 2488      5F464249 
 2488      545F5F20 
 2488      3700
 2489              	.LASF171:
 2490 1fbe 5F5F4445 		.ascii	"__DEC32_SUBNORMAL_MIN__ 0.000001E-95DF\000"
 2490      4333325F 
 2490      5355424E 
 2490      4F524D41 
 2490      4C5F4D49 
 2491              	.LASF308:
 2492 1fe5 5F5F4743 		.ascii	"__GCC_HAVE_SYNC_COMPARE_AND_SWAP_2 1\000"
 2492      435F4841 
 2492      56455F53 
 2492      594E435F 
 2492      434F4D50 
 2493              	.LASF376:
 2494 200a 696E7466 		.ascii	"intfunc\000"
 2494      756E6300 
 2495              	.LASF64:
 2496 2012 5F5F6861 		.ascii	"__has_include(STR) __has_include__(STR)\000"
 2496      735F696E 
 2496      636C7564 
 2496      65285354 
 2496      5229205F 
 2497              	.LASF357:
 2498 203a 414C4941 		.ascii	"ALIAS(f) __attribute__ ((weak, alias (#f)))\000"
 2498      53286629 
 2498      205F5F61 
 2498      74747269 
 2498      62757465 
 2499              	.LASF21:
 2500 2066 5F5F4348 		.ascii	"__CHAR_BIT__ 8\000"
 2500      41525F42 
 2500      49545F5F 
 2500      203800
 2501              	.LASF83:
 2502 2075 5F5F5349 		.ascii	"__SIG_ATOMIC_MIN__ (-__SIG_ATOMIC_MAX__ - 1)\000"
 2502      475F4154 
 2502      4F4D4943 
 2502      5F4D494E 
 2502      5F5F2028 
 2503              	.LASF253:
 2504 20a2 5F5F554C 		.ascii	"__ULACCUM_MIN__ 0.0ULK\000"
 2504      41434355 
 2504      4D5F4D49 
 2504      4E5F5F20 
 2504      302E3055 
 2505              	.LASF292:
ARM GAS  C:\Users\STUDENT\AppData\Local\Temp\ccDEhX6s.s 			page 72


 2506 20b9 5F5F5441 		.ascii	"__TA_FBIT__ 63\000"
 2506      5F464249 
 2506      545F5F20 
 2506      363300
 2507              	.LASF48:
 2508 20c8 5F5F494E 		.ascii	"__INT_LEAST32_TYPE__ long int\000"
 2508      545F4C45 
 2508      41535433 
 2508      325F5459 
 2508      50455F5F 
 2509              	.LASF198:
 2510 20e6 5F5F4652 		.ascii	"__FRACT_MIN__ (-0.5R-0.5R)\000"
 2510      4143545F 
 2510      4D494E5F 
 2510      5F20282D 
 2510      302E3552 
 2511              	.LASF56:
 2512 2101 5F5F494E 		.ascii	"__INT_FAST32_TYPE__ int\000"
 2512      545F4641 
 2512      53543332 
 2512      5F545950 
 2512      455F5F20 
 2513              	.LASF59:
 2514 2119 5F5F5549 		.ascii	"__UINT_FAST16_TYPE__ unsigned int\000"
 2514      4E545F46 
 2514      41535431 
 2514      365F5459 
 2514      50455F5F 
 2515              	.LASF197:
 2516 213b 5F5F4652 		.ascii	"__FRACT_IBIT__ 0\000"
 2516      4143545F 
 2516      49424954 
 2516      5F5F2030 
 2516      00
 2517              	.LASF217:
 2518 214c 5F5F4C4C 		.ascii	"__LLFRACT_IBIT__ 0\000"
 2518      46524143 
 2518      545F4942 
 2518      49545F5F 
 2518      203000
 2519              	.LASF199:
 2520 215f 5F5F4652 		.ascii	"__FRACT_MAX__ 0X7FFFP-15R\000"
 2520      4143545F 
 2520      4D41585F 
 2520      5F203058 
 2520      37464646 
 2521              	.LASF84:
 2522 2179 5F5F494E 		.ascii	"__INT8_MAX__ 0x7f\000"
 2522      54385F4D 
 2522      41585F5F 
 2522      20307837 
 2522      6600
 2523              	.LASF256:
 2524 218b 5F5F4C4C 		.ascii	"__LLACCUM_FBIT__ 31\000"
 2524      41434355 
 2524      4D5F4642 
 2524      49545F5F 
ARM GAS  C:\Users\STUDENT\AppData\Local\Temp\ccDEhX6s.s 			page 73


 2524      20333100 
 2525              	.LASF150:
 2526 219f 5F5F4442 		.ascii	"__DBL_HAS_QUIET_NAN__ 1\000"
 2526      4C5F4841 
 2526      535F5155 
 2526      4945545F 
 2526      4E414E5F 
 2527              	.LASF126:
 2528 21b7 5F5F464C 		.ascii	"__FLT_MIN_10_EXP__ (-37)\000"
 2528      545F4D49 
 2528      4E5F3130 
 2528      5F455850 
 2528      5F5F2028 
 2529              	.LASF221:
 2530 21d0 5F5F554C 		.ascii	"__ULLFRACT_FBIT__ 64\000"
 2530      4C465241 
 2530      43545F46 
 2530      4249545F 
 2530      5F203634 
 2531              	.LASF10:
 2532 21e5 5F5F4154 		.ascii	"__ATOMIC_ACQ_REL 4\000"
 2532      4F4D4943 
 2532      5F414351 
 2532      5F52454C 
 2532      203400
 2533              	.LASF218:
 2534 21f8 5F5F4C4C 		.ascii	"__LLFRACT_MIN__ (-0.5LLR-0.5LLR)\000"
 2534      46524143 
 2534      545F4D49 
 2534      4E5F5F20 
 2534      282D302E 
 2535              	.LASF277:
 2536 2219 5F5F5551 		.ascii	"__UQQ_IBIT__ 0\000"
 2536      515F4942 
 2536      49545F5F 
 2536      203000
 2537              	.LASF257:
 2538 2228 5F5F4C4C 		.ascii	"__LLACCUM_IBIT__ 32\000"
 2538      41434355 
 2538      4D5F4942 
 2538      49545F5F 
 2538      20333200 
 2539              	.LASF246:
 2540 223c 5F5F4C41 		.ascii	"__LACCUM_FBIT__ 31\000"
 2540      4343554D 
 2540      5F464249 
 2540      545F5F20 
 2540      333100
 2541              	.LASF264:
 2542 224f 5F5F554C 		.ascii	"__ULLACCUM_MAX__ 0XFFFFFFFFFFFFFFFFP-32ULLK\000"
 2542      4C414343 
 2542      554D5F4D 
 2542      41585F5F 
 2542      20305846 
 2543              	.LASF233:
 2544 227b 5F5F5553 		.ascii	"__USACCUM_MIN__ 0.0UHK\000"
 2544      41434355 
ARM GAS  C:\Users\STUDENT\AppData\Local\Temp\ccDEhX6s.s 			page 74


 2544      4D5F4D49 
 2544      4E5F5F20 
 2544      302E3055 
 2545              	.LASF12:
 2546 2292 5F5F4649 		.ascii	"__FINITE_MATH_ONLY__ 0\000"
 2546      4E495445 
 2546      5F4D4154 
 2546      485F4F4E 
 2546      4C595F5F 
 2547              	.LASF70:
 2548 22a9 5F5F4C4F 		.ascii	"__LONG_MAX__ 0x7fffffffL\000"
 2548      4E475F4D 
 2548      41585F5F 
 2548      20307837 
 2548      66666666 
 2549              	.LASF363:
 2550 22c2 5F736461 		.ascii	"_sdata\000"
 2550      746100
 2551              	.LASF5:
 2552 22c9 5F5F5645 		.ascii	"__VERSION__ \"5.4.1 20160919 (release) [ARM/embedde"
 2552      5253494F 
 2552      4E5F5F20 
 2552      22352E34 
 2552      2E312032 
 2553 22fb 642D352D 		.ascii	"d-5-branch revision 240496]\"\000"
 2553      6272616E 
 2553      63682072 
 2553      65766973 
 2553      696F6E20 
 2554              	.LASF243:
 2555 2318 5F5F5541 		.ascii	"__UACCUM_MIN__ 0.0UK\000"
 2555      4343554D 
 2555      5F4D494E 
 2555      5F5F2030 
 2555      2E30554B 
 2556              	.LASF296:
 2557 232d 5F5F5553 		.ascii	"__USA_FBIT__ 16\000"
 2557      415F4642 
 2557      49545F5F 
 2557      20313600 
 2558              	.LASF303:
 2559 233d 5F5F5553 		.ascii	"__USER_LABEL_PREFIX__ \000"
 2559      45525F4C 
 2559      4142454C 
 2559      5F505245 
 2559      4649585F 
 2560              	.LASF182:
 2561 2354 5F5F4445 		.ascii	"__DEC128_MIN__ 1E-6143DL\000"
 2561      43313238 
 2561      5F4D494E 
 2561      5F5F2031 
 2561      452D3631 
 2562              	.LASF260:
 2563 236d 5F5F4C4C 		.ascii	"__LLACCUM_EPSILON__ 0x1P-31LLK\000"
 2563      41434355 
 2563      4D5F4550 
 2563      53494C4F 
ARM GAS  C:\Users\STUDENT\AppData\Local\Temp\ccDEhX6s.s 			page 75


 2563      4E5F5F20 
 2564              	.LASF61:
 2565 238c 5F5F5549 		.ascii	"__UINT_FAST64_TYPE__ long long unsigned int\000"
 2565      4E545F46 
 2565      41535436 
 2565      345F5459 
 2565      50455F5F 
 2566              	.LASF101:
 2567 23b8 5F5F5549 		.ascii	"__UINT8_C(c) c\000"
 2567      4E54385F 
 2567      43286329 
 2567      206300
 2568              	.LASF50:
 2569 23c7 5F5F5549 		.ascii	"__UINT_LEAST8_TYPE__ unsigned char\000"
 2569      4E545F4C 
 2569      45415354 
 2569      385F5459 
 2569      50455F5F 
 2570              	.LASF367:
 2571 23ea 5F656273 		.ascii	"_ebss\000"
 2571      7300
 2572              	.LASF170:
 2573 23f0 5F5F4445 		.ascii	"__DEC32_EPSILON__ 1E-6DF\000"
 2573      4333325F 
 2573      45505349 
 2573      4C4F4E5F 
 2573      5F203145 
 2574              	.LASF86:
 2575 2409 5F5F494E 		.ascii	"__INT32_MAX__ 0x7fffffffL\000"
 2575      5433325F 
 2575      4D41585F 
 2575      5F203078 
 2575      37666666 
 2576              	.LASF307:
 2577 2423 5F5F4743 		.ascii	"__GCC_HAVE_SYNC_COMPARE_AND_SWAP_1 1\000"
 2577      435F4841 
 2577      56455F53 
 2577      594E435F 
 2577      434F4D50 
 2578              	.LASF238:
 2579 2448 5F5F4143 		.ascii	"__ACCUM_MIN__ (-0X1P15K-0X1P15K)\000"
 2579      43554D5F 
 2579      4D494E5F 
 2579      5F20282D 
 2579      30583150 
 2580              	.LASF92:
 2581 2469 5F5F494E 		.ascii	"__INT_LEAST8_MAX__ 0x7f\000"
 2581      545F4C45 
 2581      41535438 
 2581      5F4D4158 
 2581      5F5F2030 
 2582              	.LASF333:
 2583 2481 5F5F4152 		.ascii	"__ARM_SIZEOF_WCHAR_T 4\000"
 2583      4D5F5349 
 2583      5A454F46 
 2583      5F574348 
 2583      41525F54 
ARM GAS  C:\Users\STUDENT\AppData\Local\Temp\ccDEhX6s.s 			page 76


 2584              	.LASF106:
 2585 2498 5F5F5549 		.ascii	"__UINT_LEAST64_MAX__ 0xffffffffffffffffULL\000"
 2585      4E545F4C 
 2585      45415354 
 2585      36345F4D 
 2585      41585F5F 
 2586              	.LASF140:
 2587 24c3 5F5F4442 		.ascii	"__DBL_MIN_10_EXP__ (-307)\000"
 2587      4C5F4D49 
 2587      4E5F3130 
 2587      5F455850 
 2587      5F5F2028 
 2588              	.LASF206:
 2589 24dd 5F5F4C46 		.ascii	"__LFRACT_FBIT__ 31\000"
 2589      52414354 
 2589      5F464249 
 2589      545F5F20 
 2589      333100
 2590              	.LASF310:
 2591 24f0 5F5F4743 		.ascii	"__GCC_ATOMIC_BOOL_LOCK_FREE 2\000"
 2591      435F4154 
 2591      4F4D4943 
 2591      5F424F4F 
 2591      4C5F4C4F 
 2592              	.LASF214:
 2593 250e 5F5F554C 		.ascii	"__ULFRACT_MAX__ 0XFFFFFFFFP-32ULR\000"
 2593      46524143 
 2593      545F4D41 
 2593      585F5F20 
 2593      30584646 
 2594              		.ident	"GCC: (GNU Tools for ARM Embedded Processors) 5.4.1 20160919 (release) [ARM/embedded-5-bran
ARM GAS  C:\Users\STUDENT\AppData\Local\Temp\ccDEhX6s.s 			page 77


DEFINED SYMBOLS
                            *ABS*:00000000 startup_LPC17xx.c
C:\Users\STUDENT\AppData\Local\Temp\ccDEhX6s.s:64     .isr_vector:00000000 g_pfnVectors
C:\Users\STUDENT\AppData\Local\Temp\ccDEhX6s.s:61     .isr_vector:00000000 $d
C:\Users\STUDENT\AppData\Local\Temp\ccDEhX6s.s:122    .text.Reset_Handler:00000000 Reset_Handler
C:\Users\STUDENT\AppData\Local\Temp\ccDEhX6s.s:256    .text.Default_Handler:00000000 NMI_Handler
C:\Users\STUDENT\AppData\Local\Temp\ccDEhX6s.s:256    .text.Default_Handler:00000000 HardFault_Handler
C:\Users\STUDENT\AppData\Local\Temp\ccDEhX6s.s:256    .text.Default_Handler:00000000 MemManage_Handler
C:\Users\STUDENT\AppData\Local\Temp\ccDEhX6s.s:256    .text.Default_Handler:00000000 BusFault_Handler
C:\Users\STUDENT\AppData\Local\Temp\ccDEhX6s.s:256    .text.Default_Handler:00000000 UsageFault_Handler
C:\Users\STUDENT\AppData\Local\Temp\ccDEhX6s.s:256    .text.Default_Handler:00000000 DebugMon_Handler
C:\Users\STUDENT\AppData\Local\Temp\ccDEhX6s.s:256    .text.Default_Handler:00000000 WDT_IRQHandler
C:\Users\STUDENT\AppData\Local\Temp\ccDEhX6s.s:256    .text.Default_Handler:00000000 rcscheduler_Timer0_IRQHandler
C:\Users\STUDENT\AppData\Local\Temp\ccDEhX6s.s:256    .text.Default_Handler:00000000 TIMER1_IRQHandler
C:\Users\STUDENT\AppData\Local\Temp\ccDEhX6s.s:256    .text.Default_Handler:00000000 TIMER2_IRQHandler
C:\Users\STUDENT\AppData\Local\Temp\ccDEhX6s.s:256    .text.Default_Handler:00000000 TIMER3_IRQHandler
C:\Users\STUDENT\AppData\Local\Temp\ccDEhX6s.s:256    .text.Default_Handler:00000000 UART0_IRQHandler
C:\Users\STUDENT\AppData\Local\Temp\ccDEhX6s.s:256    .text.Default_Handler:00000000 rcuart_PORT1_IRQHandler
C:\Users\STUDENT\AppData\Local\Temp\ccDEhX6s.s:256    .text.Default_Handler:00000000 UART2_IRQHandler
C:\Users\STUDENT\AppData\Local\Temp\ccDEhX6s.s:256    .text.Default_Handler:00000000 UART3_IRQHandler
C:\Users\STUDENT\AppData\Local\Temp\ccDEhX6s.s:256    .text.Default_Handler:00000000 PWM1_IRQHandler
C:\Users\STUDENT\AppData\Local\Temp\ccDEhX6s.s:256    .text.Default_Handler:00000000 I2C0_IRQHandler
C:\Users\STUDENT\AppData\Local\Temp\ccDEhX6s.s:256    .text.Default_Handler:00000000 I2C1_IRQHandler
C:\Users\STUDENT\AppData\Local\Temp\ccDEhX6s.s:256    .text.Default_Handler:00000000 I2C2_IRQHandler
C:\Users\STUDENT\AppData\Local\Temp\ccDEhX6s.s:256    .text.Default_Handler:00000000 SPI_IRQHandler
C:\Users\STUDENT\AppData\Local\Temp\ccDEhX6s.s:256    .text.Default_Handler:00000000 SSP0_IRQHandler
C:\Users\STUDENT\AppData\Local\Temp\ccDEhX6s.s:256    .text.Default_Handler:00000000 SSP1_IRQHandler
C:\Users\STUDENT\AppData\Local\Temp\ccDEhX6s.s:256    .text.Default_Handler:00000000 PLL0_IRQHandler
C:\Users\STUDENT\AppData\Local\Temp\ccDEhX6s.s:256    .text.Default_Handler:00000000 RTC_IRQHandler
C:\Users\STUDENT\AppData\Local\Temp\ccDEhX6s.s:256    .text.Default_Handler:00000000 EINT0_IRQHandler
C:\Users\STUDENT\AppData\Local\Temp\ccDEhX6s.s:256    .text.Default_Handler:00000000 EINT1_IRQHandler
C:\Users\STUDENT\AppData\Local\Temp\ccDEhX6s.s:256    .text.Default_Handler:00000000 EINT2_IRQHandler
C:\Users\STUDENT\AppData\Local\Temp\ccDEhX6s.s:256    .text.Default_Handler:00000000 EINT3_IRQHandler
C:\Users\STUDENT\AppData\Local\Temp\ccDEhX6s.s:256    .text.Default_Handler:00000000 ADC_IRQHandler
C:\Users\STUDENT\AppData\Local\Temp\ccDEhX6s.s:256    .text.Default_Handler:00000000 BOD_IRQHandler
C:\Users\STUDENT\AppData\Local\Temp\ccDEhX6s.s:256    .text.Default_Handler:00000000 USB_IRQHandler
C:\Users\STUDENT\AppData\Local\Temp\ccDEhX6s.s:256    .text.Default_Handler:00000000 CAN_IRQHandler
C:\Users\STUDENT\AppData\Local\Temp\ccDEhX6s.s:256    .text.Default_Handler:00000000 DMA_IRQHandler
C:\Users\STUDENT\AppData\Local\Temp\ccDEhX6s.s:256    .text.Default_Handler:00000000 I2S_IRQHandler
C:\Users\STUDENT\AppData\Local\Temp\ccDEhX6s.s:256    .text.Default_Handler:00000000 ENET_IRQHandler
C:\Users\STUDENT\AppData\Local\Temp\ccDEhX6s.s:256    .text.Default_Handler:00000000 RIT_IRQHandler
C:\Users\STUDENT\AppData\Local\Temp\ccDEhX6s.s:256    .text.Default_Handler:00000000 MCPWM_IRQHandler
C:\Users\STUDENT\AppData\Local\Temp\ccDEhX6s.s:256    .text.Default_Handler:00000000 QEI_IRQHandler
C:\Users\STUDENT\AppData\Local\Temp\ccDEhX6s.s:256    .text.Default_Handler:00000000 PLL1_IRQHandler
C:\Users\STUDENT\AppData\Local\Temp\ccDEhX6s.s:256    .text.Default_Handler:00000000 USBActivity_IRQHandler
C:\Users\STUDENT\AppData\Local\Temp\ccDEhX6s.s:256    .text.Default_Handler:00000000 CANActivity_IRQHandler
C:\Users\STUDENT\AppData\Local\Temp\ccDEhX6s.s:117    .text.Reset_Handler:00000000 $t
C:\Users\STUDENT\AppData\Local\Temp\ccDEhX6s.s:210    .text.Reset_Handler:0000006c $d
C:\Users\STUDENT\AppData\Local\Temp\ccDEhX6s.s:221    .text._init:00000000 $t
C:\Users\STUDENT\AppData\Local\Temp\ccDEhX6s.s:226    .text._init:00000000 _init
C:\Users\STUDENT\AppData\Local\Temp\ccDEhX6s.s:251    .text.Default_Handler:00000000 $t
C:\Users\STUDENT\AppData\Local\Temp\ccDEhX6s.s:256    .text.Default_Handler:00000000 Default_Handler
C:\Users\STUDENT\AppData\Local\Temp\ccDEhX6s.s:256    .text.Default_Handler:00000000 SysTick_Handler
C:\Users\STUDENT\AppData\Local\Temp\ccDEhX6s.s:256    .text.Default_Handler:00000000 PendSV_Handler
C:\Users\STUDENT\AppData\Local\Temp\ccDEhX6s.s:256    .text.Default_Handler:00000000 SVC_Handler
                     .debug_frame:00000010 $d
                           .group:00000000 wm4.0.c0d9c46791312c607b68c96c4ad07fb1
ARM GAS  C:\Users\STUDENT\AppData\Local\Temp\ccDEhX6s.s 			page 78



UNDEFINED SYMBOLS
_estack
vPortSVCHandler
xPortPendSVHandler
xPortSysTickHandler
SystemInit
main
_sidata
_sdata
_edata
_sbss
_ebss
_sbss_ahb
_ebss_ahb
