ARM GAS  C:\Users\STUDENT\AppData\Local\Temp\cc6nyEnk.s 			page 1


   1              		.syntax unified
   2              		.cpu cortex-m3
   3              		.fpu softvfp
   4              		.eabi_attribute 20, 1	@ Tag_ABI_FP_denormal
   5              		.eabi_attribute 21, 1	@ Tag_ABI_FP_exceptions
   6              		.eabi_attribute 23, 3	@ Tag_ABI_FP_number_model
   7              		.eabi_attribute 24, 1	@ Tag_ABI_align8_needed
   8              		.eabi_attribute 25, 1	@ Tag_ABI_align8_preserved
   9              		.eabi_attribute 26, 1	@ Tag_ABI_enum_size
  10              		.eabi_attribute 30, 6	@ Tag_ABI_optimization_goals
  11              		.eabi_attribute 34, 1	@ Tag_CPU_unaligned_access
  12              		.eabi_attribute 18, 4	@ Tag_ABI_PCS_wchar_t
  13              		.file	"system_LPC17xx.c"
  14              	@ GNU C89 (GNU Tools for ARM Embedded Processors) version 5.4.1 20160919 (release) [ARM/embedded-5-
  15              	@	compiled by GNU C version 4.7.4, GMP version 4.3.2, MPFR version 2.4.2, MPC version 0.8.1
  16              	@ GGC heuristics: --param ggc-min-expand=100 --param ggc-min-heapsize=131072
  17              	@ options passed:  -I . -I config -I system -I core -I drivers -I FreeRTOS
  18              	@ -I FreeRTOS/include -I FreeRTOS/portable/GCC/ARM_CM3 -I FreeRTOS/portable
  19              	@ -I tasks/rc_task_leds -I tasks/rc_task_xbee -I modules/rc_leds
  20              	@ -I modules/rc_xbee -I modules/rc_scheduler -I drivers/rc_system
  21              	@ -I drivers/rc_gpio -I drivers/rc_uart -I drivers/rc_pinsel
  22              	@ -I drivers/rc_timer -I drivers/rc_adc -imultilib armv7-m
  23              	@ -iprefix c:\program files (x86)\gnu tools arm embedded\5.4 2016q3\bin\../lib/gcc/arm-none-eabi/5.
  24              	@ -isysroot c:\program files (x86)\gnu tools arm embedded\5.4 2016q3\bin\../arm-none-eabi
  25              	@ -MD out/system_LPC17xx.d -MF out/system_LPC17xx.d -MP
  26              	@ -MQ out/system_LPC17xx.o -D__USES_INITFINI__ system/system_LPC17xx.c
  27              	@ -mcpu=cortex-m3 -mthumb -auxbase-strip out/system_LPC17xx.o -g -ggdb3 -O0
  28              	@ -Wall -Wstrict-prototypes -Wextra -std=gnu90 -ffunction-sections
  29              	@ -fdata-sections -fverbose-asm
  30              	@ options enabled:  -faggressive-loop-optimizations -fauto-inc-dec
  31              	@ -fchkp-check-incomplete-type -fchkp-check-read -fchkp-check-write
  32              	@ -fchkp-instrument-calls -fchkp-narrow-bounds -fchkp-optimize
  33              	@ -fchkp-store-bounds -fchkp-use-static-bounds
  34              	@ -fchkp-use-static-const-bounds -fchkp-use-wrappers -fcommon
  35              	@ -fdata-sections -fdelete-null-pointer-checks -fdwarf2-cfi-asm
  36              	@ -fearly-inlining -feliminate-unused-debug-types -ffunction-cse
  37              	@ -ffunction-sections -fgcse-lm -fgnu-runtime -fgnu-unique -fident
  38              	@ -finline-atomics -fira-hoist-pressure -fira-share-save-slots
  39              	@ -fira-share-spill-slots -fivopts -fkeep-static-consts
  40              	@ -fleading-underscore -flifetime-dse -flto-odr-type-merging -fmath-errno
  41              	@ -fmerge-debug-strings -fpeephole -fprefetch-loop-arrays
  42              	@ -freg-struct-return -fsched-critical-path-heuristic
  43              	@ -fsched-dep-count-heuristic -fsched-group-heuristic -fsched-interblock
  44              	@ -fsched-last-insn-heuristic -fsched-rank-heuristic -fsched-spec
  45              	@ -fsched-spec-insn-heuristic -fsched-stalled-insns-dep
  46              	@ -fsemantic-interposition -fshow-column -fsigned-zeros
  47              	@ -fsplit-ivs-in-unroller -fstdarg-opt -fstrict-volatile-bitfields
  48              	@ -fsync-libcalls -ftrapping-math -ftree-coalesce-vars -ftree-cselim
  49              	@ -ftree-forwprop -ftree-loop-if-convert -ftree-loop-im -ftree-loop-ivcanon
  50              	@ -ftree-loop-optimize -ftree-parallelize-loops= -ftree-phiprop
  51              	@ -ftree-reassoc -ftree-scev-cprop -funit-at-a-time -fverbose-asm
  52              	@ -fzero-initialized-in-bss -masm-syntax-unified -mfix-cortex-m3-ldrd
  53              	@ -mlittle-endian -mpic-data-is-text-relative -msched-prolog -mthumb
  54              	@ -munaligned-access -mvectorize-with-neon-quad
  55              	
  56              		.text
  57              	.Ltext0:
ARM GAS  C:\Users\STUDENT\AppData\Local\Temp\cc6nyEnk.s 			page 2


  58              		.cfi_sections	.debug_frame
  59              		.global	SystemCoreClock
  60              		.section	.data.SystemCoreClock,"aw",%progbits
  61              		.align	2
  62              		.type	SystemCoreClock, %object
  63              		.size	SystemCoreClock, 4
  64              	SystemCoreClock:
  65 0000 00E1F505 		.word	100000000
  66              		.section	.text.SystemCoreClockUpdate,"ax",%progbits
  67              		.align	2
  68              		.global	SystemCoreClockUpdate
  69              		.thumb
  70              		.thumb_func
  71              		.type	SystemCoreClockUpdate, %function
  72              	SystemCoreClockUpdate:
  73              	.LFB55:
  74              		.file 1 "system/system_LPC17xx.c"
   1:system/system_LPC17xx.c **** /**************************************************************************//**
   2:system/system_LPC17xx.c ****  * @file     system_LPC17xx.c
   3:system/system_LPC17xx.c ****  * @brief    CMSIS Cortex-M3 Device Peripheral Access Layer Source File
   4:system/system_LPC17xx.c ****  *           for the NXP LPC17xx Device Series
   5:system/system_LPC17xx.c ****  * @version  V1.03
   6:system/system_LPC17xx.c ****  * @date     07. October 2009
   7:system/system_LPC17xx.c ****  *
   8:system/system_LPC17xx.c ****  * @note
   9:system/system_LPC17xx.c ****  * Copyright (C) 2009 ARM Limited. All rights reserved.
  10:system/system_LPC17xx.c ****  *
  11:system/system_LPC17xx.c ****  * @par
  12:system/system_LPC17xx.c ****  * ARM Limited (ARM) is supplying this software for use with Cortex-M
  13:system/system_LPC17xx.c ****  * processor based microcontrollers.  This file can be freely distributed
  14:system/system_LPC17xx.c ****  * within development tools that are supporting such ARM based processors.
  15:system/system_LPC17xx.c ****  *
  16:system/system_LPC17xx.c ****  * @par
  17:system/system_LPC17xx.c ****  * THIS SOFTWARE IS PROVIDED "AS IS".  NO WARRANTIES, WHETHER EXPRESS, IMPLIED
  18:system/system_LPC17xx.c ****  * OR STATUTORY, INCLUDING, BUT NOT LIMITED TO, IMPLIED WARRANTIES OF
  19:system/system_LPC17xx.c ****  * MERCHANTABILITY AND FITNESS FOR A PARTICULAR PURPOSE APPLY TO THIS SOFTWARE.
  20:system/system_LPC17xx.c ****  * ARM SHALL NOT, IN ANY CIRCUMSTANCES, BE LIABLE FOR SPECIAL, INCIDENTAL, OR
  21:system/system_LPC17xx.c ****  * CONSEQUENTIAL DAMAGES, FOR ANY REASON WHATSOEVER.
  22:system/system_LPC17xx.c ****  *
  23:system/system_LPC17xx.c ****  ******************************************************************************/
  24:system/system_LPC17xx.c **** 
  25:system/system_LPC17xx.c **** 
  26:system/system_LPC17xx.c **** #include <stdint.h>
  27:system/system_LPC17xx.c **** #include "LPC17xx.h"
  28:system/system_LPC17xx.c **** 
  29:system/system_LPC17xx.c **** 
  30:system/system_LPC17xx.c **** /** @addtogroup LPC17xx_System
  31:system/system_LPC17xx.c ****  * @{
  32:system/system_LPC17xx.c ****  */
  33:system/system_LPC17xx.c **** 
  34:system/system_LPC17xx.c **** /*
  35:system/system_LPC17xx.c **** //-------- <<< Use Configuration Wizard in Context Menu >>> ------------------
  36:system/system_LPC17xx.c **** */
  37:system/system_LPC17xx.c **** 
  38:system/system_LPC17xx.c **** /*--------------------- Clock Configuration ----------------------------------
  39:system/system_LPC17xx.c **** //
  40:system/system_LPC17xx.c **** // <e> Clock Configuration
ARM GAS  C:\Users\STUDENT\AppData\Local\Temp\cc6nyEnk.s 			page 3


  41:system/system_LPC17xx.c **** //   <h> System Controls and Status Register (SCS)
  42:system/system_LPC17xx.c **** //     <o1.4>    OSCRANGE: Main Oscillator Range Select
  43:system/system_LPC17xx.c **** //                     <0=>  1 MHz to 20 MHz
  44:system/system_LPC17xx.c **** //                     <1=> 15 MHz to 24 MHz
  45:system/system_LPC17xx.c **** //     <e1.5>       OSCEN: Main Oscillator Enable
  46:system/system_LPC17xx.c **** //     </e>
  47:system/system_LPC17xx.c **** //   </h>
  48:system/system_LPC17xx.c **** //
  49:system/system_LPC17xx.c **** //   <h> Clock Source Select Register (CLKSRCSEL)
  50:system/system_LPC17xx.c **** //     <o2.0..1>   CLKSRC: PLL Clock Source Selection
  51:system/system_LPC17xx.c **** //                     <0=> Internal RC oscillator
  52:system/system_LPC17xx.c **** //                     <1=> Main oscillator
  53:system/system_LPC17xx.c **** //                     <2=> RTC oscillator
  54:system/system_LPC17xx.c **** //   </h>
  55:system/system_LPC17xx.c **** //
  56:system/system_LPC17xx.c **** //   <e3> PLL0 Configuration (Main PLL)
  57:system/system_LPC17xx.c **** //     <h> PLL0 Configuration Register (PLL0CFG)
  58:system/system_LPC17xx.c **** //                     <i> F_cco0 = (2 * M * F_in) / N
  59:system/system_LPC17xx.c **** //                     <i> F_in must be in the range of 32 kHz to 50 MHz
  60:system/system_LPC17xx.c **** //                     <i> F_cco0 must be in the range of 275 MHz to 550 MHz
  61:system/system_LPC17xx.c **** //       <o4.0..14>  MSEL: PLL Multiplier Selection
  62:system/system_LPC17xx.c **** //                     <6-32768><#-1>
  63:system/system_LPC17xx.c **** //                     <i> M Value
  64:system/system_LPC17xx.c **** //       <o4.16..23> NSEL: PLL Divider Selection
  65:system/system_LPC17xx.c **** //                     <1-256><#-1>
  66:system/system_LPC17xx.c **** //                     <i> N Value
  67:system/system_LPC17xx.c **** //     </h>
  68:system/system_LPC17xx.c **** //   </e>
  69:system/system_LPC17xx.c **** //
  70:system/system_LPC17xx.c **** //   <e5> PLL1 Configuration (USB PLL)
  71:system/system_LPC17xx.c **** //     <h> PLL1 Configuration Register (PLL1CFG)
  72:system/system_LPC17xx.c **** //                     <i> F_usb = M * F_osc or F_usb = F_cco1 / (2 * P)
  73:system/system_LPC17xx.c **** //                     <i> F_cco1 = F_osc * M * 2 * P
  74:system/system_LPC17xx.c **** //                     <i> F_cco1 must be in the range of 156 MHz to 320 MHz
  75:system/system_LPC17xx.c **** //       <o6.0..4>   MSEL: PLL Multiplier Selection
  76:system/system_LPC17xx.c **** //                     <1-32><#-1>
  77:system/system_LPC17xx.c **** //                     <i> M Value (for USB maximum value is 4)
  78:system/system_LPC17xx.c **** //       <o6.5..6>   PSEL: PLL Divider Selection
  79:system/system_LPC17xx.c **** //                     <0=> 1
  80:system/system_LPC17xx.c **** //                     <1=> 2
  81:system/system_LPC17xx.c **** //                     <2=> 4
  82:system/system_LPC17xx.c **** //                     <3=> 8
  83:system/system_LPC17xx.c **** //                     <i> P Value
  84:system/system_LPC17xx.c **** //     </h>
  85:system/system_LPC17xx.c **** //   </e>
  86:system/system_LPC17xx.c **** //
  87:system/system_LPC17xx.c **** //   <h> CPU Clock Configuration Register (CCLKCFG)
  88:system/system_LPC17xx.c **** //     <o7.0..7>  CCLKSEL: Divide Value for CPU Clock from PLL0
  89:system/system_LPC17xx.c **** //                     <3-256><#-1>
  90:system/system_LPC17xx.c **** //   </h>
  91:system/system_LPC17xx.c **** //
  92:system/system_LPC17xx.c **** //   <h> USB Clock Configuration Register (USBCLKCFG)
  93:system/system_LPC17xx.c **** //     <o8.0..3>   USBSEL: Divide Value for USB Clock from PLL0
  94:system/system_LPC17xx.c **** //                     <0-15>
  95:system/system_LPC17xx.c **** //                     <i> Divide is USBSEL + 1
  96:system/system_LPC17xx.c **** //   </h>
  97:system/system_LPC17xx.c **** //
ARM GAS  C:\Users\STUDENT\AppData\Local\Temp\cc6nyEnk.s 			page 4


  98:system/system_LPC17xx.c **** //   <h> Peripheral Clock Selection Register 0 (PCLKSEL0)
  99:system/system_LPC17xx.c **** //     <o9.0..1>    PCLK_WDT: Peripheral Clock Selection for WDT
 100:system/system_LPC17xx.c **** //                     <0=> Pclk = Cclk / 4
 101:system/system_LPC17xx.c **** //                     <1=> Pclk = Cclk
 102:system/system_LPC17xx.c **** //                     <2=> Pclk = Cclk / 2
 103:system/system_LPC17xx.c **** //                     <3=> Pclk = Hclk / 8
 104:system/system_LPC17xx.c **** //     <o9.2..3>    PCLK_TIMER0: Peripheral Clock Selection for TIMER0
 105:system/system_LPC17xx.c **** //                     <0=> Pclk = Cclk / 4
 106:system/system_LPC17xx.c **** //                     <1=> Pclk = Cclk
 107:system/system_LPC17xx.c **** //                     <2=> Pclk = Cclk / 2
 108:system/system_LPC17xx.c **** //                     <3=> Pclk = Hclk / 8
 109:system/system_LPC17xx.c **** //     <o9.4..5>    PCLK_TIMER1: Peripheral Clock Selection for TIMER1
 110:system/system_LPC17xx.c **** //                     <0=> Pclk = Cclk / 4
 111:system/system_LPC17xx.c **** //                     <1=> Pclk = Cclk
 112:system/system_LPC17xx.c **** //                     <2=> Pclk = Cclk / 2
 113:system/system_LPC17xx.c **** //                     <3=> Pclk = Hclk / 8
 114:system/system_LPC17xx.c **** //     <o9.6..7>    PCLK_UART0: Peripheral Clock Selection for UART0
 115:system/system_LPC17xx.c **** //                     <0=> Pclk = Cclk / 4
 116:system/system_LPC17xx.c **** //                     <1=> Pclk = Cclk
 117:system/system_LPC17xx.c **** //                     <2=> Pclk = Cclk / 2
 118:system/system_LPC17xx.c **** //                     <3=> Pclk = Hclk / 8
 119:system/system_LPC17xx.c **** //     <o9.8..9>    PCLK_UART1: Peripheral Clock Selection for UART1
 120:system/system_LPC17xx.c **** //                     <0=> Pclk = Cclk / 4
 121:system/system_LPC17xx.c **** //                     <1=> Pclk = Cclk
 122:system/system_LPC17xx.c **** //                     <2=> Pclk = Cclk / 2
 123:system/system_LPC17xx.c **** //                     <3=> Pclk = Hclk / 8
 124:system/system_LPC17xx.c **** //     <o9.12..13>  PCLK_PWM1: Peripheral Clock Selection for PWM1
 125:system/system_LPC17xx.c **** //                     <0=> Pclk = Cclk / 4
 126:system/system_LPC17xx.c **** //                     <1=> Pclk = Cclk
 127:system/system_LPC17xx.c **** //                     <2=> Pclk = Cclk / 2
 128:system/system_LPC17xx.c **** //                     <3=> Pclk = Hclk / 8
 129:system/system_LPC17xx.c **** //     <o9.14..15>  PCLK_I2C0: Peripheral Clock Selection for I2C0
 130:system/system_LPC17xx.c **** //                     <0=> Pclk = Cclk / 4
 131:system/system_LPC17xx.c **** //                     <1=> Pclk = Cclk
 132:system/system_LPC17xx.c **** //                     <2=> Pclk = Cclk / 2
 133:system/system_LPC17xx.c **** //                     <3=> Pclk = Hclk / 8
 134:system/system_LPC17xx.c **** //     <o9.16..17>  PCLK_SPI: Peripheral Clock Selection for SPI
 135:system/system_LPC17xx.c **** //                     <0=> Pclk = Cclk / 4
 136:system/system_LPC17xx.c **** //                     <1=> Pclk = Cclk
 137:system/system_LPC17xx.c **** //                     <2=> Pclk = Cclk / 2
 138:system/system_LPC17xx.c **** //                     <3=> Pclk = Hclk / 8
 139:system/system_LPC17xx.c **** //     <o9.20..21>  PCLK_SSP1: Peripheral Clock Selection for SSP1
 140:system/system_LPC17xx.c **** //                     <0=> Pclk = Cclk / 4
 141:system/system_LPC17xx.c **** //                     <1=> Pclk = Cclk
 142:system/system_LPC17xx.c **** //                     <2=> Pclk = Cclk / 2
 143:system/system_LPC17xx.c **** //                     <3=> Pclk = Hclk / 8
 144:system/system_LPC17xx.c **** //     <o9.22..23>  PCLK_DAC: Peripheral Clock Selection for DAC
 145:system/system_LPC17xx.c **** //                     <0=> Pclk = Cclk / 4
 146:system/system_LPC17xx.c **** //                     <1=> Pclk = Cclk
 147:system/system_LPC17xx.c **** //                     <2=> Pclk = Cclk / 2
 148:system/system_LPC17xx.c **** //                     <3=> Pclk = Hclk / 8
 149:system/system_LPC17xx.c **** //     <o9.24..25>  PCLK_ADC: Peripheral Clock Selection for ADC
 150:system/system_LPC17xx.c **** //                     <0=> Pclk = Cclk / 4
 151:system/system_LPC17xx.c **** //                     <1=> Pclk = Cclk
 152:system/system_LPC17xx.c **** //                     <2=> Pclk = Cclk / 2
 153:system/system_LPC17xx.c **** //                     <3=> Pclk = Hclk / 8
 154:system/system_LPC17xx.c **** //     <o9.26..27>  PCLK_CAN1: Peripheral Clock Selection for CAN1
ARM GAS  C:\Users\STUDENT\AppData\Local\Temp\cc6nyEnk.s 			page 5


 155:system/system_LPC17xx.c **** //                     <0=> Pclk = Cclk / 4
 156:system/system_LPC17xx.c **** //                     <1=> Pclk = Cclk
 157:system/system_LPC17xx.c **** //                     <2=> Pclk = Cclk / 2
 158:system/system_LPC17xx.c **** //                     <3=> Pclk = Hclk / 6
 159:system/system_LPC17xx.c **** //     <o9.28..29>  PCLK_CAN2: Peripheral Clock Selection for CAN2
 160:system/system_LPC17xx.c **** //                     <0=> Pclk = Cclk / 4
 161:system/system_LPC17xx.c **** //                     <1=> Pclk = Cclk
 162:system/system_LPC17xx.c **** //                     <2=> Pclk = Cclk / 2
 163:system/system_LPC17xx.c **** //                     <3=> Pclk = Hclk / 6
 164:system/system_LPC17xx.c **** //     <o9.30..31>  PCLK_ACF: Peripheral Clock Selection for ACF
 165:system/system_LPC17xx.c **** //                     <0=> Pclk = Cclk / 4
 166:system/system_LPC17xx.c **** //                     <1=> Pclk = Cclk
 167:system/system_LPC17xx.c **** //                     <2=> Pclk = Cclk / 2
 168:system/system_LPC17xx.c **** //                     <3=> Pclk = Hclk / 6
 169:system/system_LPC17xx.c **** //   </h>
 170:system/system_LPC17xx.c **** //
 171:system/system_LPC17xx.c **** //   <h> Peripheral Clock Selection Register 1 (PCLKSEL1)
 172:system/system_LPC17xx.c **** //     <o10.0..1>   PCLK_QEI: Peripheral Clock Selection for the Quadrature Encoder Interface
 173:system/system_LPC17xx.c **** //                     <0=> Pclk = Cclk / 4
 174:system/system_LPC17xx.c **** //                     <1=> Pclk = Cclk
 175:system/system_LPC17xx.c **** //                     <2=> Pclk = Cclk / 2
 176:system/system_LPC17xx.c **** //                     <3=> Pclk = Hclk / 8
 177:system/system_LPC17xx.c **** //     <o10.2..3>   PCLK_GPIO: Peripheral Clock Selection for GPIOs
 178:system/system_LPC17xx.c **** //                     <0=> Pclk = Cclk / 4
 179:system/system_LPC17xx.c **** //                     <1=> Pclk = Cclk
 180:system/system_LPC17xx.c **** //                     <2=> Pclk = Cclk / 2
 181:system/system_LPC17xx.c **** //                     <3=> Pclk = Hclk / 8
 182:system/system_LPC17xx.c **** //     <o10.4..5>   PCLK_PCB: Peripheral Clock Selection for the Pin Connect Block
 183:system/system_LPC17xx.c **** //                     <0=> Pclk = Cclk / 4
 184:system/system_LPC17xx.c **** //                     <1=> Pclk = Cclk
 185:system/system_LPC17xx.c **** //                     <2=> Pclk = Cclk / 2
 186:system/system_LPC17xx.c **** //                     <3=> Pclk = Hclk / 8
 187:system/system_LPC17xx.c **** //     <o10.6..7>   PCLK_I2C1: Peripheral Clock Selection for I2C1
 188:system/system_LPC17xx.c **** //                     <0=> Pclk = Cclk / 4
 189:system/system_LPC17xx.c **** //                     <1=> Pclk = Cclk
 190:system/system_LPC17xx.c **** //                     <2=> Pclk = Cclk / 2
 191:system/system_LPC17xx.c **** //                     <3=> Pclk = Hclk / 8
 192:system/system_LPC17xx.c **** //     <o10.10..11> PCLK_SSP0: Peripheral Clock Selection for SSP0
 193:system/system_LPC17xx.c **** //                     <0=> Pclk = Cclk / 4
 194:system/system_LPC17xx.c **** //                     <1=> Pclk = Cclk
 195:system/system_LPC17xx.c **** //                     <2=> Pclk = Cclk / 2
 196:system/system_LPC17xx.c **** //                     <3=> Pclk = Hclk / 8
 197:system/system_LPC17xx.c **** //     <o10.12..13> PCLK_TIMER2: Peripheral Clock Selection for TIMER2
 198:system/system_LPC17xx.c **** //                     <0=> Pclk = Cclk / 4
 199:system/system_LPC17xx.c **** //                     <1=> Pclk = Cclk
 200:system/system_LPC17xx.c **** //                     <2=> Pclk = Cclk / 2
 201:system/system_LPC17xx.c **** //                     <3=> Pclk = Hclk / 8
 202:system/system_LPC17xx.c **** //     <o10.14..15> PCLK_TIMER3: Peripheral Clock Selection for TIMER3
 203:system/system_LPC17xx.c **** //                     <0=> Pclk = Cclk / 4
 204:system/system_LPC17xx.c **** //                     <1=> Pclk = Cclk
 205:system/system_LPC17xx.c **** //                     <2=> Pclk = Cclk / 2
 206:system/system_LPC17xx.c **** //                     <3=> Pclk = Hclk / 8
 207:system/system_LPC17xx.c **** //     <o10.16..17> PCLK_UART2: Peripheral Clock Selection for UART2
 208:system/system_LPC17xx.c **** //                     <0=> Pclk = Cclk / 4
 209:system/system_LPC17xx.c **** //                     <1=> Pclk = Cclk
 210:system/system_LPC17xx.c **** //                     <2=> Pclk = Cclk / 2
 211:system/system_LPC17xx.c **** //                     <3=> Pclk = Hclk / 8
ARM GAS  C:\Users\STUDENT\AppData\Local\Temp\cc6nyEnk.s 			page 6


 212:system/system_LPC17xx.c **** //     <o10.18..19> PCLK_UART3: Peripheral Clock Selection for UART3
 213:system/system_LPC17xx.c **** //                     <0=> Pclk = Cclk / 4
 214:system/system_LPC17xx.c **** //                     <1=> Pclk = Cclk
 215:system/system_LPC17xx.c **** //                     <2=> Pclk = Cclk / 2
 216:system/system_LPC17xx.c **** //                     <3=> Pclk = Hclk / 8
 217:system/system_LPC17xx.c **** //     <o10.20..21> PCLK_I2C2: Peripheral Clock Selection for I2C2
 218:system/system_LPC17xx.c **** //                     <0=> Pclk = Cclk / 4
 219:system/system_LPC17xx.c **** //                     <1=> Pclk = Cclk
 220:system/system_LPC17xx.c **** //                     <2=> Pclk = Cclk / 2
 221:system/system_LPC17xx.c **** //                     <3=> Pclk = Hclk / 8
 222:system/system_LPC17xx.c **** //     <o10.22..23> PCLK_I2S: Peripheral Clock Selection for I2S
 223:system/system_LPC17xx.c **** //                     <0=> Pclk = Cclk / 4
 224:system/system_LPC17xx.c **** //                     <1=> Pclk = Cclk
 225:system/system_LPC17xx.c **** //                     <2=> Pclk = Cclk / 2
 226:system/system_LPC17xx.c **** //                     <3=> Pclk = Hclk / 8
 227:system/system_LPC17xx.c **** //     <o10.26..27> PCLK_RIT: Peripheral Clock Selection for the Repetitive Interrupt Timer
 228:system/system_LPC17xx.c **** //                     <0=> Pclk = Cclk / 4
 229:system/system_LPC17xx.c **** //                     <1=> Pclk = Cclk
 230:system/system_LPC17xx.c **** //                     <2=> Pclk = Cclk / 2
 231:system/system_LPC17xx.c **** //                     <3=> Pclk = Hclk / 8
 232:system/system_LPC17xx.c **** //     <o10.28..29> PCLK_SYSCON: Peripheral Clock Selection for the System Control Block
 233:system/system_LPC17xx.c **** //                     <0=> Pclk = Cclk / 4
 234:system/system_LPC17xx.c **** //                     <1=> Pclk = Cclk
 235:system/system_LPC17xx.c **** //                     <2=> Pclk = Cclk / 2
 236:system/system_LPC17xx.c **** //                     <3=> Pclk = Hclk / 8
 237:system/system_LPC17xx.c **** //     <o10.30..31> PCLK_MC: Peripheral Clock Selection for the Motor Control PWM
 238:system/system_LPC17xx.c **** //                     <0=> Pclk = Cclk / 4
 239:system/system_LPC17xx.c **** //                     <1=> Pclk = Cclk
 240:system/system_LPC17xx.c **** //                     <2=> Pclk = Cclk / 2
 241:system/system_LPC17xx.c **** //                     <3=> Pclk = Hclk / 8
 242:system/system_LPC17xx.c **** //   </h>
 243:system/system_LPC17xx.c **** //
 244:system/system_LPC17xx.c **** //   <h> Power Control for Peripherals Register (PCONP)
 245:system/system_LPC17xx.c **** //     <o11.1>      PCTIM0: Timer/Counter 0 power/clock enable
 246:system/system_LPC17xx.c **** //     <o11.2>      PCTIM1: Timer/Counter 1 power/clock enable
 247:system/system_LPC17xx.c **** //     <o11.3>      PCUART0: UART 0 power/clock enable
 248:system/system_LPC17xx.c **** //     <o11.4>      PCUART1: UART 1 power/clock enable
 249:system/system_LPC17xx.c **** //     <o11.6>      PCPWM1: PWM 1 power/clock enable
 250:system/system_LPC17xx.c **** //     <o11.7>      PCI2C0: I2C interface 0 power/clock enable
 251:system/system_LPC17xx.c **** //     <o11.8>      PCSPI: SPI interface power/clock enable
 252:system/system_LPC17xx.c **** //     <o11.9>      PCRTC: RTC power/clock enable
 253:system/system_LPC17xx.c **** //     <o11.10>     PCSSP1: SSP interface 1 power/clock enable
 254:system/system_LPC17xx.c **** //     <o11.12>     PCAD: A/D converter power/clock enable
 255:system/system_LPC17xx.c **** //     <o11.13>     PCCAN1: CAN controller 1 power/clock enable
 256:system/system_LPC17xx.c **** //     <o11.14>     PCCAN2: CAN controller 2 power/clock enable
 257:system/system_LPC17xx.c **** //     <o11.15>     PCGPIO: GPIOs power/clock enable
 258:system/system_LPC17xx.c **** //     <o11.16>     PCRIT: Repetitive interrupt timer power/clock enable
 259:system/system_LPC17xx.c **** //     <o11.17>     PCMC: Motor control PWM power/clock enable
 260:system/system_LPC17xx.c **** //     <o11.18>     PCQEI: Quadrature encoder interface power/clock enable
 261:system/system_LPC17xx.c **** //     <o11.19>     PCI2C1: I2C interface 1 power/clock enable
 262:system/system_LPC17xx.c **** //     <o11.21>     PCSSP0: SSP interface 0 power/clock enable
 263:system/system_LPC17xx.c **** //     <o11.22>     PCTIM2: Timer 2 power/clock enable
 264:system/system_LPC17xx.c **** //     <o11.23>     PCTIM3: Timer 3 power/clock enable
 265:system/system_LPC17xx.c **** //     <o11.24>     PCUART2: UART 2 power/clock enable
 266:system/system_LPC17xx.c **** //     <o11.25>     PCUART3: UART 3 power/clock enable
 267:system/system_LPC17xx.c **** //     <o11.26>     PCI2C2: I2C interface 2 power/clock enable
 268:system/system_LPC17xx.c **** //     <o11.27>     PCI2S: I2S interface power/clock enable
ARM GAS  C:\Users\STUDENT\AppData\Local\Temp\cc6nyEnk.s 			page 7


 269:system/system_LPC17xx.c **** //     <o11.29>     PCGPDMA: GP DMA function power/clock enable
 270:system/system_LPC17xx.c **** //     <o11.30>     PCENET: Ethernet block power/clock enable
 271:system/system_LPC17xx.c **** //     <o11.31>     PCUSB: USB interface power/clock enable
 272:system/system_LPC17xx.c **** //   </h>
 273:system/system_LPC17xx.c **** //
 274:system/system_LPC17xx.c **** //   <h> Clock Output Configuration Register (CLKOUTCFG)
 275:system/system_LPC17xx.c **** //     <o12.0..3>   CLKOUTSEL: Selects clock source for CLKOUT
 276:system/system_LPC17xx.c **** //                     <0=> CPU clock
 277:system/system_LPC17xx.c **** //                     <1=> Main oscillator
 278:system/system_LPC17xx.c **** //                     <2=> Internal RC oscillator
 279:system/system_LPC17xx.c **** //                     <3=> USB clock
 280:system/system_LPC17xx.c **** //                     <4=> RTC oscillator
 281:system/system_LPC17xx.c **** //     <o12.4..7>   CLKOUTDIV: Selects clock divider for CLKOUT
 282:system/system_LPC17xx.c **** //                     <1-16><#-1>
 283:system/system_LPC17xx.c **** //     <o12.8>      CLKOUT_EN: CLKOUT enable control
 284:system/system_LPC17xx.c **** //   </h>
 285:system/system_LPC17xx.c **** //
 286:system/system_LPC17xx.c **** // </e>
 287:system/system_LPC17xx.c **** */
 288:system/system_LPC17xx.c **** 
 289:system/system_LPC17xx.c **** 
 290:system/system_LPC17xx.c **** 
 291:system/system_LPC17xx.c **** /** @addtogroup LPC17xx_System_Defines  LPC17xx System Defines
 292:system/system_LPC17xx.c ****   @{
 293:system/system_LPC17xx.c ****  */
 294:system/system_LPC17xx.c **** 
 295:system/system_LPC17xx.c **** #define CLOCK_SETUP           1
 296:system/system_LPC17xx.c **** #define SCS_Val               0x00000020
 297:system/system_LPC17xx.c **** #define CLKSRCSEL_Val         0x00000001
 298:system/system_LPC17xx.c **** #define PLL0_SETUP            1
 299:system/system_LPC17xx.c **** #define PLL0CFG_Val           0x00050063
 300:system/system_LPC17xx.c **** #define PLL1_SETUP            1
 301:system/system_LPC17xx.c **** #define PLL1CFG_Val           0x00000023
 302:system/system_LPC17xx.c **** #define CCLKCFG_Val           0x00000003
 303:system/system_LPC17xx.c **** #define USBCLKCFG_Val         0x00000000
 304:system/system_LPC17xx.c **** #define PCLKSEL0_Val          0x00000000
 305:system/system_LPC17xx.c **** #define PCLKSEL1_Val          0x00000000
 306:system/system_LPC17xx.c **** #define PCONP_Val             0x042887DE
 307:system/system_LPC17xx.c **** #define CLKOUTCFG_Val         0x00000000
 308:system/system_LPC17xx.c **** 
 309:system/system_LPC17xx.c **** 
 310:system/system_LPC17xx.c **** /*--------------------- Flash Accelerator Configuration ----------------------
 311:system/system_LPC17xx.c **** //
 312:system/system_LPC17xx.c **** // <e> Flash Accelerator Configuration
 313:system/system_LPC17xx.c **** //   <o1.0..11>  Reserved
 314:system/system_LPC17xx.c **** //   <o1.12..15> FLASHTIM: Flash Access Time
 315:system/system_LPC17xx.c **** //               <0=> 1 CPU clock (for CPU clock up to 20 MHz)
 316:system/system_LPC17xx.c **** //               <1=> 2 CPU clocks (for CPU clock up to 40 MHz)
 317:system/system_LPC17xx.c **** //               <2=> 3 CPU clocks (for CPU clock up to 60 MHz)
 318:system/system_LPC17xx.c **** //               <3=> 4 CPU clocks (for CPU clock up to 80 MHz)
 319:system/system_LPC17xx.c **** //               <4=> 5 CPU clocks (for CPU clock up to 100 MHz)
 320:system/system_LPC17xx.c **** //               <5=> 6 CPU clocks (for any CPU clock)
 321:system/system_LPC17xx.c **** // </e>
 322:system/system_LPC17xx.c **** */
 323:system/system_LPC17xx.c **** #define FLASH_SETUP           1
 324:system/system_LPC17xx.c **** #define FLASHCFG_Val          0x0000303A
 325:system/system_LPC17xx.c **** 
ARM GAS  C:\Users\STUDENT\AppData\Local\Temp\cc6nyEnk.s 			page 8


 326:system/system_LPC17xx.c **** /*
 327:system/system_LPC17xx.c **** //-------- <<< end of configuration section >>> ------------------------------
 328:system/system_LPC17xx.c **** */
 329:system/system_LPC17xx.c **** 
 330:system/system_LPC17xx.c **** /*----------------------------------------------------------------------------
 331:system/system_LPC17xx.c ****   Check the register settings
 332:system/system_LPC17xx.c ****  *----------------------------------------------------------------------------*/
 333:system/system_LPC17xx.c **** #define CHECK_RANGE(val, min, max)                ((val < min) || (val > max))
 334:system/system_LPC17xx.c **** #define CHECK_RSVD(val, mask)                     (val & mask)
 335:system/system_LPC17xx.c **** 
 336:system/system_LPC17xx.c **** /* Clock Configuration -------------------------------------------------------*/
 337:system/system_LPC17xx.c **** #if (CHECK_RSVD((SCS_Val),       ~0x00000030))
 338:system/system_LPC17xx.c ****    #error "SCS: Invalid values of reserved bits!"
 339:system/system_LPC17xx.c **** #endif
 340:system/system_LPC17xx.c **** 
 341:system/system_LPC17xx.c **** #if (CHECK_RANGE((CLKSRCSEL_Val), 0, 2))
 342:system/system_LPC17xx.c ****    #error "CLKSRCSEL: Value out of range!"
 343:system/system_LPC17xx.c **** #endif
 344:system/system_LPC17xx.c **** 
 345:system/system_LPC17xx.c **** #if (CHECK_RSVD((PLL0CFG_Val),   ~0x00FF7FFF))
 346:system/system_LPC17xx.c ****    #error "PLL0CFG: Invalid values of reserved bits!"
 347:system/system_LPC17xx.c **** #endif
 348:system/system_LPC17xx.c **** 
 349:system/system_LPC17xx.c **** #if (CHECK_RSVD((PLL1CFG_Val),   ~0x0000007F))
 350:system/system_LPC17xx.c ****    #error "PLL1CFG: Invalid values of reserved bits!"
 351:system/system_LPC17xx.c **** #endif
 352:system/system_LPC17xx.c **** 
 353:system/system_LPC17xx.c **** #if ((CCLKCFG_Val != 0) && (((CCLKCFG_Val - 1) % 2)))
 354:system/system_LPC17xx.c ****    #error "CCLKCFG: CCLKSEL field does not contain only odd values or 0!"
 355:system/system_LPC17xx.c **** #endif
 356:system/system_LPC17xx.c **** 
 357:system/system_LPC17xx.c **** #if (CHECK_RSVD((USBCLKCFG_Val), ~0x0000000F))
 358:system/system_LPC17xx.c ****    #error "USBCLKCFG: Invalid values of reserved bits!"
 359:system/system_LPC17xx.c **** #endif
 360:system/system_LPC17xx.c **** 
 361:system/system_LPC17xx.c **** #if (CHECK_RSVD((PCLKSEL0_Val),   0x000C0C00))
 362:system/system_LPC17xx.c ****    #error "PCLKSEL0: Invalid values of reserved bits!"
 363:system/system_LPC17xx.c **** #endif
 364:system/system_LPC17xx.c **** 
 365:system/system_LPC17xx.c **** #if (CHECK_RSVD((PCLKSEL1_Val),   0x03000300))
 366:system/system_LPC17xx.c ****    #error "PCLKSEL1: Invalid values of reserved bits!"
 367:system/system_LPC17xx.c **** #endif
 368:system/system_LPC17xx.c **** 
 369:system/system_LPC17xx.c **** #if (CHECK_RSVD((PCONP_Val),      0x10100821))
 370:system/system_LPC17xx.c ****    #error "PCONP: Invalid values of reserved bits!"
 371:system/system_LPC17xx.c **** #endif
 372:system/system_LPC17xx.c **** 
 373:system/system_LPC17xx.c **** #if (CHECK_RSVD((CLKOUTCFG_Val), ~0x000001FF))
 374:system/system_LPC17xx.c ****    #error "CLKOUTCFG: Invalid values of reserved bits!"
 375:system/system_LPC17xx.c **** #endif
 376:system/system_LPC17xx.c **** 
 377:system/system_LPC17xx.c **** /* Flash Accelerator Configuration -------------------------------------------*/
 378:system/system_LPC17xx.c **** #if (CHECK_RSVD((FLASHCFG_Val), ~0x0000F07F))
 379:system/system_LPC17xx.c ****    #error "FLASHCFG: Invalid values of reserved bits!"
 380:system/system_LPC17xx.c **** #endif
 381:system/system_LPC17xx.c **** 
 382:system/system_LPC17xx.c **** 
ARM GAS  C:\Users\STUDENT\AppData\Local\Temp\cc6nyEnk.s 			page 9


 383:system/system_LPC17xx.c **** /*----------------------------------------------------------------------------
 384:system/system_LPC17xx.c ****   DEFINES
 385:system/system_LPC17xx.c ****  *----------------------------------------------------------------------------*/
 386:system/system_LPC17xx.c **** 
 387:system/system_LPC17xx.c **** /*----------------------------------------------------------------------------
 388:system/system_LPC17xx.c ****   Define clocks
 389:system/system_LPC17xx.c ****  *----------------------------------------------------------------------------*/
 390:system/system_LPC17xx.c **** #define XTAL        (12000000UL)        /* Oscillator frequency               */
 391:system/system_LPC17xx.c **** #define OSC_CLK     (      XTAL)        /* Main oscillator frequency          */
 392:system/system_LPC17xx.c **** #define RTC_CLK     (   32768UL)        /* RTC oscillator frequency           */
 393:system/system_LPC17xx.c **** #define IRC_OSC     ( 4000000UL)        /* Internal RC oscillator frequency   */
 394:system/system_LPC17xx.c **** 
 395:system/system_LPC17xx.c **** 
 396:system/system_LPC17xx.c **** /* F_cco0 = (2 * M * F_in) / N  */
 397:system/system_LPC17xx.c **** #define __M               (((PLL0CFG_Val      ) & 0x7FFF) + 1)
 398:system/system_LPC17xx.c **** #define __N               (((PLL0CFG_Val >> 16) & 0x00FF) + 1)
 399:system/system_LPC17xx.c **** #define __FCCO(__F_IN)    ((2 * __M * __F_IN) / __N)
 400:system/system_LPC17xx.c **** #define __CCLK_DIV        (((CCLKCFG_Val      ) & 0x00FF) + 1)
 401:system/system_LPC17xx.c **** 
 402:system/system_LPC17xx.c **** /* Determine core clock frequency according to settings */
 403:system/system_LPC17xx.c ****  #if (PLL0_SETUP)
 404:system/system_LPC17xx.c ****     #if   ((CLKSRCSEL_Val & 0x03) == 1)
 405:system/system_LPC17xx.c ****         #define __CORE_CLK (__FCCO(OSC_CLK) / __CCLK_DIV)
 406:system/system_LPC17xx.c ****     #elif ((CLKSRCSEL_Val & 0x03) == 2)
 407:system/system_LPC17xx.c ****         #define __CORE_CLK (__FCCO(RTC_CLK) / __CCLK_DIV)
 408:system/system_LPC17xx.c ****     #else
 409:system/system_LPC17xx.c ****         #define __CORE_CLK (__FCCO(IRC_OSC) / __CCLK_DIV)
 410:system/system_LPC17xx.c ****     #endif
 411:system/system_LPC17xx.c ****  #else
 412:system/system_LPC17xx.c ****     #if   ((CLKSRCSEL_Val & 0x03) == 1)
 413:system/system_LPC17xx.c ****         #define __CORE_CLK (OSC_CLK         / __CCLK_DIV)
 414:system/system_LPC17xx.c ****     #elif ((CLKSRCSEL_Val & 0x03) == 2)
 415:system/system_LPC17xx.c ****         #define __CORE_CLK (RTC_CLK         / __CCLK_DIV)
 416:system/system_LPC17xx.c ****     #else
 417:system/system_LPC17xx.c ****         #define __CORE_CLK (IRC_OSC         / __CCLK_DIV)
 418:system/system_LPC17xx.c ****     #endif
 419:system/system_LPC17xx.c ****  #endif
 420:system/system_LPC17xx.c **** 
 421:system/system_LPC17xx.c ****  /**
 422:system/system_LPC17xx.c ****   * @}
 423:system/system_LPC17xx.c ****   */
 424:system/system_LPC17xx.c **** 
 425:system/system_LPC17xx.c **** 
 426:system/system_LPC17xx.c **** /** @addtogroup LPC17xx_System_Public_Variables  LPC17xx System Public Variables
 427:system/system_LPC17xx.c ****   @{
 428:system/system_LPC17xx.c ****  */
 429:system/system_LPC17xx.c **** /*----------------------------------------------------------------------------
 430:system/system_LPC17xx.c ****   Clock Variable definitions
 431:system/system_LPC17xx.c ****  *----------------------------------------------------------------------------*/
 432:system/system_LPC17xx.c **** uint32_t SystemCoreClock = __CORE_CLK;/*!< System Clock Frequency (Core Clock)*/
 433:system/system_LPC17xx.c **** 
 434:system/system_LPC17xx.c **** /**
 435:system/system_LPC17xx.c ****  * @}
 436:system/system_LPC17xx.c ****  */
 437:system/system_LPC17xx.c **** 
 438:system/system_LPC17xx.c **** 
 439:system/system_LPC17xx.c **** /** @addtogroup LPC17xx_System_Public_Functions  LPC17xx System Public Functions
ARM GAS  C:\Users\STUDENT\AppData\Local\Temp\cc6nyEnk.s 			page 10


 440:system/system_LPC17xx.c ****   @{
 441:system/system_LPC17xx.c ****  */
 442:system/system_LPC17xx.c **** 
 443:system/system_LPC17xx.c **** /*----------------------------------------------------------------------------
 444:system/system_LPC17xx.c ****   Clock functions
 445:system/system_LPC17xx.c ****  *----------------------------------------------------------------------------*/
 446:system/system_LPC17xx.c **** 
 447:system/system_LPC17xx.c **** 
 448:system/system_LPC17xx.c **** void SystemCoreClockUpdate (void)            /* Get Core Clock Frequency      */
 449:system/system_LPC17xx.c **** {
  75              		.loc 1 449 0
  76              		.cfi_startproc
  77              		@ args = 0, pretend = 0, frame = 0
  78              		@ frame_needed = 1, uses_anonymous_args = 0
  79              		@ link register save eliminated.
  80 0000 80B4     		push	{r7}	@
  81              		.cfi_def_cfa_offset 4
  82              		.cfi_offset 7, -4
  83 0002 00AF     		add	r7, sp, #0	@,,
  84              		.cfi_def_cfa_register 7
 450:system/system_LPC17xx.c ****   /* Determine clock frequency according to clock register values             */
 451:system/system_LPC17xx.c ****   if (((LPC_SC->PLL0STAT >> 24) & 3) == 3) { /* If PLL0 enabled and connected */
  85              		.loc 1 451 0
  86 0004 514B     		ldr	r3, .L14	@ D.5487,
  87 0006 D3F88830 		ldr	r3, [r3, #136]	@ D.5488, _3->PLL0STAT
  88 000a 1B0E     		lsrs	r3, r3, #24	@ D.5488, D.5488,
  89 000c 03F00303 		and	r3, r3, #3	@ D.5488, D.5488,
  90 0010 032B     		cmp	r3, #3	@ D.5488,
  91 0012 63D1     		bne	.L2	@,
 452:system/system_LPC17xx.c ****     switch (LPC_SC->CLKSRCSEL & 0x03) {
  92              		.loc 1 452 0
  93 0014 4D4B     		ldr	r3, .L14	@ D.5487,
  94 0016 D3F80C31 		ldr	r3, [r3, #268]	@ D.5488, _8->CLKSRCSEL
  95 001a 03F00303 		and	r3, r3, #3	@ D.5488, D.5488,
  96 001e 032B     		cmp	r3, #3	@ D.5488,
  97 0020 00F29080 		bhi	.L13	@
  98 0024 01A2     		adr	r2, .L5	@ tmp194,
  99 0026 52F823F0 		ldr	pc, [r2, r3, lsl #2]	@ tmp194, D.5488
 100 002a 00BF     		.p2align 2
 101              	.L5:
 102 002c 3D000000 		.word	.L4+1
 103 0030 73000000 		.word	.L6+1
 104 0034 A9000000 		.word	.L7+1
 105 0038 3D000000 		.word	.L4+1
 106              		.p2align 1
 107              	.L4:
 453:system/system_LPC17xx.c ****       case 0:                                /* Int. RC oscillator => PLL0    */
 454:system/system_LPC17xx.c ****       case 3:                                /* Reserved, default to Int. RC  */
 455:system/system_LPC17xx.c ****         SystemCoreClock = (IRC_OSC *
 456:system/system_LPC17xx.c ****                           ((2 * ((LPC_SC->PLL0STAT & 0x7FFF) + 1)))  /
 108              		.loc 1 456 0
 109 003c 434B     		ldr	r3, .L14	@ D.5487,
 110 003e D3F88830 		ldr	r3, [r3, #136]	@ D.5488, _11->PLL0STAT
 111 0042 C3F30E03 		ubfx	r3, r3, #0, #15	@ D.5488, D.5488,,
 455:system/system_LPC17xx.c ****                           ((2 * ((LPC_SC->PLL0STAT & 0x7FFF) + 1)))  /
 112              		.loc 1 455 0
 113 0046 0133     		adds	r3, r3, #1	@ D.5488, D.5488,
ARM GAS  C:\Users\STUDENT\AppData\Local\Temp\cc6nyEnk.s 			page 11


 114 0048 414A     		ldr	r2, .L14+4	@ tmp183,
 115 004a 02FB03F2 		mul	r2, r2, r3	@ D.5488, tmp183, D.5488
 457:system/system_LPC17xx.c ****                           (((LPC_SC->PLL0STAT >> 16) & 0xFF) + 1)    /
 116              		.loc 1 457 0
 117 004e 3F4B     		ldr	r3, .L14	@ D.5487,
 118 0050 D3F88830 		ldr	r3, [r3, #136]	@ D.5488, _16->PLL0STAT
 119 0054 1B0C     		lsrs	r3, r3, #16	@ D.5488, D.5488,
 120 0056 DBB2     		uxtb	r3, r3	@ D.5488, D.5488
 121 0058 0133     		adds	r3, r3, #1	@ D.5488, D.5488,
 456:system/system_LPC17xx.c ****                           (((LPC_SC->PLL0STAT >> 16) & 0xFF) + 1)    /
 122              		.loc 1 456 0
 123 005a B2FBF3F2 		udiv	r2, r2, r3	@ D.5488, D.5488, D.5488
 458:system/system_LPC17xx.c ****                           ((LPC_SC->CCLKCFG & 0xFF)+ 1));
 124              		.loc 1 458 0
 125 005e 3B4B     		ldr	r3, .L14	@ D.5487,
 126 0060 D3F80431 		ldr	r3, [r3, #260]	@ D.5488, _22->CCLKCFG
 127 0064 DBB2     		uxtb	r3, r3	@ D.5488, D.5488
 128 0066 0133     		adds	r3, r3, #1	@ D.5488, D.5488,
 457:system/system_LPC17xx.c ****                           (((LPC_SC->PLL0STAT >> 16) & 0xFF) + 1)    /
 129              		.loc 1 457 0
 130 0068 B2FBF3F3 		udiv	r3, r2, r3	@ D.5488, D.5488, D.5488
 455:system/system_LPC17xx.c ****                           ((2 * ((LPC_SC->PLL0STAT & 0x7FFF) + 1)))  /
 131              		.loc 1 455 0
 132 006c 394A     		ldr	r2, .L14+8	@ tmp184,
 133 006e 1360     		str	r3, [r2]	@ D.5488, SystemCoreClock
 459:system/system_LPC17xx.c ****         break;
 134              		.loc 1 459 0
 135 0070 68E0     		b	.L8	@
 136              	.L6:
 460:system/system_LPC17xx.c ****       case 1:                                /* Main oscillator => PLL0       */
 461:system/system_LPC17xx.c ****         SystemCoreClock = (OSC_CLK *
 462:system/system_LPC17xx.c ****                           ((2 * ((LPC_SC->PLL0STAT & 0x7FFF) + 1)))  /
 137              		.loc 1 462 0
 138 0072 364B     		ldr	r3, .L14	@ D.5487,
 139 0074 D3F88830 		ldr	r3, [r3, #136]	@ D.5488, _28->PLL0STAT
 140 0078 C3F30E03 		ubfx	r3, r3, #0, #15	@ D.5488, D.5488,,
 461:system/system_LPC17xx.c ****                           ((2 * ((LPC_SC->PLL0STAT & 0x7FFF) + 1)))  /
 141              		.loc 1 461 0
 142 007c 0133     		adds	r3, r3, #1	@ D.5488, D.5488,
 143 007e 364A     		ldr	r2, .L14+12	@ tmp185,
 144 0080 02FB03F2 		mul	r2, r2, r3	@ D.5488, tmp185, D.5488
 463:system/system_LPC17xx.c ****                           (((LPC_SC->PLL0STAT >> 16) & 0xFF) + 1)    /
 145              		.loc 1 463 0
 146 0084 314B     		ldr	r3, .L14	@ D.5487,
 147 0086 D3F88830 		ldr	r3, [r3, #136]	@ D.5488, _33->PLL0STAT
 148 008a 1B0C     		lsrs	r3, r3, #16	@ D.5488, D.5488,
 149 008c DBB2     		uxtb	r3, r3	@ D.5488, D.5488
 150 008e 0133     		adds	r3, r3, #1	@ D.5488, D.5488,
 462:system/system_LPC17xx.c ****                           (((LPC_SC->PLL0STAT >> 16) & 0xFF) + 1)    /
 151              		.loc 1 462 0
 152 0090 B2FBF3F2 		udiv	r2, r2, r3	@ D.5488, D.5488, D.5488
 464:system/system_LPC17xx.c ****                           ((LPC_SC->CCLKCFG & 0xFF)+ 1));
 153              		.loc 1 464 0
 154 0094 2D4B     		ldr	r3, .L14	@ D.5487,
 155 0096 D3F80431 		ldr	r3, [r3, #260]	@ D.5488, _39->CCLKCFG
 156 009a DBB2     		uxtb	r3, r3	@ D.5488, D.5488
 157 009c 0133     		adds	r3, r3, #1	@ D.5488, D.5488,
ARM GAS  C:\Users\STUDENT\AppData\Local\Temp\cc6nyEnk.s 			page 12


 463:system/system_LPC17xx.c ****                           (((LPC_SC->PLL0STAT >> 16) & 0xFF) + 1)    /
 158              		.loc 1 463 0
 159 009e B2FBF3F3 		udiv	r3, r2, r3	@ D.5488, D.5488, D.5488
 461:system/system_LPC17xx.c ****                           ((2 * ((LPC_SC->PLL0STAT & 0x7FFF) + 1)))  /
 160              		.loc 1 461 0
 161 00a2 2C4A     		ldr	r2, .L14+8	@ tmp186,
 162 00a4 1360     		str	r3, [r2]	@ D.5488, SystemCoreClock
 465:system/system_LPC17xx.c ****         break;
 163              		.loc 1 465 0
 164 00a6 4DE0     		b	.L8	@
 165              	.L7:
 466:system/system_LPC17xx.c ****       case 2:                                /* RTC oscillator => PLL0        */
 467:system/system_LPC17xx.c ****         SystemCoreClock = (RTC_CLK *
 468:system/system_LPC17xx.c ****                           ((2 * ((LPC_SC->PLL0STAT & 0x7FFF) + 1)))  /
 166              		.loc 1 468 0
 167 00a8 284B     		ldr	r3, .L14	@ D.5487,
 168 00aa D3F88830 		ldr	r3, [r3, #136]	@ D.5488, _45->PLL0STAT
 169 00ae C3F30E03 		ubfx	r3, r3, #0, #15	@ D.5488, D.5488,,
 467:system/system_LPC17xx.c ****                           ((2 * ((LPC_SC->PLL0STAT & 0x7FFF) + 1)))  /
 170              		.loc 1 467 0
 171 00b2 0133     		adds	r3, r3, #1	@ D.5488, D.5488,
 172 00b4 1A04     		lsls	r2, r3, #16	@ D.5488, D.5488,
 469:system/system_LPC17xx.c ****                           (((LPC_SC->PLL0STAT >> 16) & 0xFF) + 1)    /
 173              		.loc 1 469 0
 174 00b6 254B     		ldr	r3, .L14	@ D.5487,
 175 00b8 D3F88830 		ldr	r3, [r3, #136]	@ D.5488, _50->PLL0STAT
 176 00bc 1B0C     		lsrs	r3, r3, #16	@ D.5488, D.5488,
 177 00be DBB2     		uxtb	r3, r3	@ D.5488, D.5488
 178 00c0 0133     		adds	r3, r3, #1	@ D.5488, D.5488,
 468:system/system_LPC17xx.c ****                           (((LPC_SC->PLL0STAT >> 16) & 0xFF) + 1)    /
 179              		.loc 1 468 0
 180 00c2 B2FBF3F2 		udiv	r2, r2, r3	@ D.5488, D.5488, D.5488
 470:system/system_LPC17xx.c ****                           ((LPC_SC->CCLKCFG & 0xFF)+ 1));
 181              		.loc 1 470 0
 182 00c6 214B     		ldr	r3, .L14	@ D.5487,
 183 00c8 D3F80431 		ldr	r3, [r3, #260]	@ D.5488, _56->CCLKCFG
 184 00cc DBB2     		uxtb	r3, r3	@ D.5488, D.5488
 185 00ce 0133     		adds	r3, r3, #1	@ D.5488, D.5488,
 469:system/system_LPC17xx.c ****                           (((LPC_SC->PLL0STAT >> 16) & 0xFF) + 1)    /
 186              		.loc 1 469 0
 187 00d0 B2FBF3F3 		udiv	r3, r2, r3	@ D.5488, D.5488, D.5488
 467:system/system_LPC17xx.c ****                           ((2 * ((LPC_SC->PLL0STAT & 0x7FFF) + 1)))  /
 188              		.loc 1 467 0
 189 00d4 1F4A     		ldr	r2, .L14+8	@ tmp187,
 190 00d6 1360     		str	r3, [r2]	@ D.5488, SystemCoreClock
 471:system/system_LPC17xx.c ****         break;
 191              		.loc 1 471 0
 192 00d8 00BF     		nop
 193 00da 33E0     		b	.L8	@
 194              	.L2:
 472:system/system_LPC17xx.c ****     }
 473:system/system_LPC17xx.c ****   } else {
 474:system/system_LPC17xx.c ****     switch (LPC_SC->CLKSRCSEL & 0x03) {
 195              		.loc 1 474 0
 196 00dc 1B4B     		ldr	r3, .L14	@ D.5487,
 197 00de D3F80C31 		ldr	r3, [r3, #268]	@ D.5488, _62->CLKSRCSEL
 198 00e2 03F00303 		and	r3, r3, #3	@ D.5488, D.5488,
ARM GAS  C:\Users\STUDENT\AppData\Local\Temp\cc6nyEnk.s 			page 13


 199 00e6 032B     		cmp	r3, #3	@ D.5488,
 200 00e8 2CD8     		bhi	.L13	@
 201 00ea 01A2     		adr	r2, .L10	@ tmp195,
 202 00ec 52F823F0 		ldr	pc, [r2, r3, lsl #2]	@ tmp195, D.5488
 203              		.p2align 2
 204              	.L10:
 205 00f0 01010000 		.word	.L9+1
 206 00f4 17010000 		.word	.L11+1
 207 00f8 2D010000 		.word	.L12+1
 208 00fc 01010000 		.word	.L9+1
 209              		.p2align 1
 210              	.L9:
 475:system/system_LPC17xx.c ****       case 0:                                /* Int. RC oscillator => PLL0    */
 476:system/system_LPC17xx.c ****       case 3:                                /* Reserved, default to Int. RC  */
 477:system/system_LPC17xx.c ****         SystemCoreClock = IRC_OSC / ((LPC_SC->CCLKCFG & 0xFF)+ 1);
 211              		.loc 1 477 0
 212 0100 124B     		ldr	r3, .L14	@ D.5487,
 213 0102 D3F80431 		ldr	r3, [r3, #260]	@ D.5488, _65->CCLKCFG
 214 0106 DBB2     		uxtb	r3, r3	@ D.5488, D.5488
 215 0108 0133     		adds	r3, r3, #1	@ D.5488, D.5488,
 216 010a 144A     		ldr	r2, .L14+16	@ tmp188,
 217 010c B2FBF3F3 		udiv	r3, r2, r3	@ D.5488, tmp188, D.5488
 218 0110 104A     		ldr	r2, .L14+8	@ tmp189,
 219 0112 1360     		str	r3, [r2]	@ D.5488, SystemCoreClock
 478:system/system_LPC17xx.c ****         break;
 220              		.loc 1 478 0
 221 0114 16E0     		b	.L8	@
 222              	.L11:
 479:system/system_LPC17xx.c ****       case 1:                                /* Main oscillator => PLL0       */
 480:system/system_LPC17xx.c ****         SystemCoreClock = OSC_CLK / ((LPC_SC->CCLKCFG & 0xFF)+ 1);
 223              		.loc 1 480 0
 224 0116 0D4B     		ldr	r3, .L14	@ D.5487,
 225 0118 D3F80431 		ldr	r3, [r3, #260]	@ D.5488, _71->CCLKCFG
 226 011c DBB2     		uxtb	r3, r3	@ D.5488, D.5488
 227 011e 0133     		adds	r3, r3, #1	@ D.5488, D.5488,
 228 0120 0F4A     		ldr	r2, .L14+20	@ tmp190,
 229 0122 B2FBF3F3 		udiv	r3, r2, r3	@ D.5488, tmp190, D.5488
 230 0126 0B4A     		ldr	r2, .L14+8	@ tmp191,
 231 0128 1360     		str	r3, [r2]	@ D.5488, SystemCoreClock
 481:system/system_LPC17xx.c ****         break;
 232              		.loc 1 481 0
 233 012a 0BE0     		b	.L8	@
 234              	.L12:
 482:system/system_LPC17xx.c ****       case 2:                                /* RTC oscillator => PLL0        */
 483:system/system_LPC17xx.c ****         SystemCoreClock = RTC_CLK / ((LPC_SC->CCLKCFG & 0xFF)+ 1);
 235              		.loc 1 483 0
 236 012c 074B     		ldr	r3, .L14	@ D.5487,
 237 012e D3F80431 		ldr	r3, [r3, #260]	@ D.5488, _77->CCLKCFG
 238 0132 DBB2     		uxtb	r3, r3	@ D.5488, D.5488
 239 0134 0133     		adds	r3, r3, #1	@ D.5488, D.5488,
 240 0136 4FF40042 		mov	r2, #32768	@ tmp192,
 241 013a B2FBF3F3 		udiv	r3, r2, r3	@ D.5488, tmp192, D.5488
 242 013e 054A     		ldr	r2, .L14+8	@ tmp193,
 243 0140 1360     		str	r3, [r2]	@ D.5488, SystemCoreClock
 484:system/system_LPC17xx.c ****         break;
 244              		.loc 1 484 0
 245 0142 00BF     		nop
ARM GAS  C:\Users\STUDENT\AppData\Local\Temp\cc6nyEnk.s 			page 14


 246              	.L8:
 247              	.L13:
 485:system/system_LPC17xx.c ****     }
 486:system/system_LPC17xx.c ****   }
 487:system/system_LPC17xx.c **** 
 488:system/system_LPC17xx.c **** }
 248              		.loc 1 488 0
 249 0144 00BF     		nop
 250 0146 BD46     		mov	sp, r7	@,
 251              		.cfi_def_cfa_register 13
 252              		@ sp needed	@
 253 0148 80BC     		pop	{r7}	@
 254              		.cfi_restore 7
 255              		.cfi_def_cfa_offset 0
 256 014a 7047     		bx	lr	@
 257              	.L15:
 258              		.align	2
 259              	.L14:
 260 014c 00C00F40 		.word	1074774016
 261 0150 00127A00 		.word	8000000
 262 0154 00000000 		.word	SystemCoreClock
 263 0158 00366E01 		.word	24000000
 264 015c 00093D00 		.word	4000000
 265 0160 001BB700 		.word	12000000
 266              		.cfi_endproc
 267              	.LFE55:
 268              		.size	SystemCoreClockUpdate, .-SystemCoreClockUpdate
 269              		.section	.text.SystemInit,"ax",%progbits
 270              		.align	2
 271              		.global	SystemInit
 272              		.thumb
 273              		.thumb_func
 274              		.type	SystemInit, %function
 275              	SystemInit:
 276              	.LFB56:
 489:system/system_LPC17xx.c **** 
 490:system/system_LPC17xx.c **** /**
 491:system/system_LPC17xx.c ****  * Initialize the system
 492:system/system_LPC17xx.c ****  *
 493:system/system_LPC17xx.c ****  * @param  none
 494:system/system_LPC17xx.c ****  * @return none
 495:system/system_LPC17xx.c ****  *
 496:system/system_LPC17xx.c ****  * @brief  Setup the microcontroller system.
 497:system/system_LPC17xx.c ****  *         Initialize the System.
 498:system/system_LPC17xx.c ****  */
 499:system/system_LPC17xx.c **** void SystemInit (void)
 500:system/system_LPC17xx.c **** {
 277              		.loc 1 500 0
 278              		.cfi_startproc
 279              		@ args = 0, pretend = 0, frame = 0
 280              		@ frame_needed = 1, uses_anonymous_args = 0
 281              		@ link register save eliminated.
 282 0000 80B4     		push	{r7}	@
 283              		.cfi_def_cfa_offset 4
 284              		.cfi_offset 7, -4
 285 0002 00AF     		add	r7, sp, #0	@,,
 286              		.cfi_def_cfa_register 7
ARM GAS  C:\Users\STUDENT\AppData\Local\Temp\cc6nyEnk.s 			page 15


 501:system/system_LPC17xx.c **** #if (CLOCK_SETUP)                       /* Clock Setup                        */
 502:system/system_LPC17xx.c ****   LPC_SC->SCS       = SCS_Val;
 287              		.loc 1 502 0
 288 0004 4E4B     		ldr	r3, .L23	@ D.5489,
 289 0006 2022     		movs	r2, #32	@ tmp155,
 290 0008 C3F8A021 		str	r2, [r3, #416]	@ tmp155, _1->SCS
 503:system/system_LPC17xx.c ****   if (LPC_SC->SCS & (1 << 5)) {             /* If Main Oscillator is enabled  */
 291              		.loc 1 503 0
 292 000c 4C4B     		ldr	r3, .L23	@ D.5489,
 293 000e D3F8A031 		ldr	r3, [r3, #416]	@ D.5490, _4->SCS
 294 0012 03F02003 		and	r3, r3, #32	@ D.5490, D.5490,
 295 0016 002B     		cmp	r3, #0	@ D.5490,
 296 0018 07D0     		beq	.L17	@,
 504:system/system_LPC17xx.c ****     while ((LPC_SC->SCS & (1<<6)) == 0);/* Wait for Oscillator to be ready    */
 297              		.loc 1 504 0
 298 001a 00BF     		nop
 299              	.L18:
 300              		.loc 1 504 0 is_stmt 0 discriminator 1
 301 001c 484B     		ldr	r3, .L23	@ D.5489,
 302 001e D3F8A031 		ldr	r3, [r3, #416]	@ D.5490, _7->SCS
 303 0022 03F04003 		and	r3, r3, #64	@ D.5490, D.5490,
 304 0026 002B     		cmp	r3, #0	@ D.5490,
 305 0028 F8D0     		beq	.L18	@,
 306              	.L17:
 505:system/system_LPC17xx.c ****   }
 506:system/system_LPC17xx.c **** 
 507:system/system_LPC17xx.c ****   LPC_SC->CCLKCFG   = CCLKCFG_Val;      /* Setup Clock Divider                */
 307              		.loc 1 507 0 is_stmt 1
 308 002a 454B     		ldr	r3, .L23	@ D.5489,
 309 002c 0322     		movs	r2, #3	@ tmp156,
 310 002e C3F80421 		str	r2, [r3, #260]	@ tmp156, _10->CCLKCFG
 508:system/system_LPC17xx.c ****   /* Periphral clock must be selected before PLL0 enabling and connecting
 509:system/system_LPC17xx.c ****    * - according errata.lpc1768-16.March.2010 -
 510:system/system_LPC17xx.c ****    */
 511:system/system_LPC17xx.c ****   LPC_SC->PCLKSEL0  = PCLKSEL0_Val;     /* Peripheral Clock Selection         */
 311              		.loc 1 511 0
 312 0032 434B     		ldr	r3, .L23	@ D.5489,
 313 0034 0022     		movs	r2, #0	@ tmp157,
 314 0036 C3F8A821 		str	r2, [r3, #424]	@ tmp157, _12->PCLKSEL0
 512:system/system_LPC17xx.c ****   LPC_SC->PCLKSEL1  = PCLKSEL1_Val;
 315              		.loc 1 512 0
 316 003a 414B     		ldr	r3, .L23	@ D.5489,
 317 003c 0022     		movs	r2, #0	@ tmp158,
 318 003e C3F8AC21 		str	r2, [r3, #428]	@ tmp158, _14->PCLKSEL1
 513:system/system_LPC17xx.c **** 
 514:system/system_LPC17xx.c **** #if (PLL0_SETUP)
 515:system/system_LPC17xx.c ****   LPC_SC->CLKSRCSEL = CLKSRCSEL_Val;    /* Select Clock Source for PLL0       */
 319              		.loc 1 515 0
 320 0042 3F4B     		ldr	r3, .L23	@ D.5489,
 321 0044 0122     		movs	r2, #1	@ tmp159,
 322 0046 C3F80C21 		str	r2, [r3, #268]	@ tmp159, _16->CLKSRCSEL
 516:system/system_LPC17xx.c **** 
 517:system/system_LPC17xx.c ****   LPC_SC->PLL0CFG   = PLL0CFG_Val;      /* configure PLL0                     */
 323              		.loc 1 517 0
 324 004a 3D4B     		ldr	r3, .L23	@ D.5489,
 325 004c 3D4A     		ldr	r2, .L23+4	@ tmp160,
 326 004e C3F88420 		str	r2, [r3, #132]	@ tmp160, _18->PLL0CFG
ARM GAS  C:\Users\STUDENT\AppData\Local\Temp\cc6nyEnk.s 			page 16


 518:system/system_LPC17xx.c ****   LPC_SC->PLL0FEED  = 0xAA;
 327              		.loc 1 518 0
 328 0052 3B4B     		ldr	r3, .L23	@ D.5489,
 329 0054 AA22     		movs	r2, #170	@ tmp161,
 330 0056 C3F88C20 		str	r2, [r3, #140]	@ tmp161, _20->PLL0FEED
 519:system/system_LPC17xx.c ****   LPC_SC->PLL0FEED  = 0x55;
 331              		.loc 1 519 0
 332 005a 394B     		ldr	r3, .L23	@ D.5489,
 333 005c 5522     		movs	r2, #85	@ tmp162,
 334 005e C3F88C20 		str	r2, [r3, #140]	@ tmp162, _22->PLL0FEED
 520:system/system_LPC17xx.c **** 
 521:system/system_LPC17xx.c ****   LPC_SC->PLL0CON   = 0x01;             /* PLL0 Enable                        */
 335              		.loc 1 521 0
 336 0062 374B     		ldr	r3, .L23	@ D.5489,
 337 0064 0122     		movs	r2, #1	@ tmp163,
 338 0066 C3F88020 		str	r2, [r3, #128]	@ tmp163, _24->PLL0CON
 522:system/system_LPC17xx.c ****   LPC_SC->PLL0FEED  = 0xAA;
 339              		.loc 1 522 0
 340 006a 354B     		ldr	r3, .L23	@ D.5489,
 341 006c AA22     		movs	r2, #170	@ tmp164,
 342 006e C3F88C20 		str	r2, [r3, #140]	@ tmp164, _26->PLL0FEED
 523:system/system_LPC17xx.c ****   LPC_SC->PLL0FEED  = 0x55;
 343              		.loc 1 523 0
 344 0072 334B     		ldr	r3, .L23	@ D.5489,
 345 0074 5522     		movs	r2, #85	@ tmp165,
 346 0076 C3F88C20 		str	r2, [r3, #140]	@ tmp165, _28->PLL0FEED
 524:system/system_LPC17xx.c ****   while (!(LPC_SC->PLL0STAT & (1<<26)));/* Wait for PLOCK0                    */
 347              		.loc 1 524 0
 348 007a 00BF     		nop
 349              	.L19:
 350              		.loc 1 524 0 is_stmt 0 discriminator 1
 351 007c 304B     		ldr	r3, .L23	@ D.5489,
 352 007e D3F88830 		ldr	r3, [r3, #136]	@ D.5490, _30->PLL0STAT
 353 0082 03F08063 		and	r3, r3, #67108864	@ D.5490, D.5490,
 354 0086 002B     		cmp	r3, #0	@ D.5490,
 355 0088 F8D0     		beq	.L19	@,
 525:system/system_LPC17xx.c **** 
 526:system/system_LPC17xx.c ****   LPC_SC->PLL0CON   = 0x03;             /* PLL0 Enable & Connect              */
 356              		.loc 1 526 0 is_stmt 1
 357 008a 2D4B     		ldr	r3, .L23	@ D.5489,
 358 008c 0322     		movs	r2, #3	@ tmp166,
 359 008e C3F88020 		str	r2, [r3, #128]	@ tmp166, _33->PLL0CON
 527:system/system_LPC17xx.c ****   LPC_SC->PLL0FEED  = 0xAA;
 360              		.loc 1 527 0
 361 0092 2B4B     		ldr	r3, .L23	@ D.5489,
 362 0094 AA22     		movs	r2, #170	@ tmp167,
 363 0096 C3F88C20 		str	r2, [r3, #140]	@ tmp167, _35->PLL0FEED
 528:system/system_LPC17xx.c ****   LPC_SC->PLL0FEED  = 0x55;
 364              		.loc 1 528 0
 365 009a 294B     		ldr	r3, .L23	@ D.5489,
 366 009c 5522     		movs	r2, #85	@ tmp168,
 367 009e C3F88C20 		str	r2, [r3, #140]	@ tmp168, _37->PLL0FEED
 529:system/system_LPC17xx.c ****   while (!(LPC_SC->PLL0STAT & ((1<<25) | (1<<24))));/* Wait for PLLC0_STAT & PLLE0_STAT */
 368              		.loc 1 529 0
 369 00a2 00BF     		nop
 370              	.L20:
 371              		.loc 1 529 0 is_stmt 0 discriminator 1
ARM GAS  C:\Users\STUDENT\AppData\Local\Temp\cc6nyEnk.s 			page 17


 372 00a4 264B     		ldr	r3, .L23	@ D.5489,
 373 00a6 D3F88830 		ldr	r3, [r3, #136]	@ D.5490, _39->PLL0STAT
 374 00aa 03F04073 		and	r3, r3, #50331648	@ D.5490, D.5490,
 375 00ae 002B     		cmp	r3, #0	@ D.5490,
 376 00b0 F8D0     		beq	.L20	@,
 530:system/system_LPC17xx.c **** #endif
 531:system/system_LPC17xx.c **** 
 532:system/system_LPC17xx.c **** #if (PLL1_SETUP)
 533:system/system_LPC17xx.c ****   LPC_SC->PLL1CFG   = PLL1CFG_Val;
 377              		.loc 1 533 0 is_stmt 1
 378 00b2 234B     		ldr	r3, .L23	@ D.5489,
 379 00b4 2322     		movs	r2, #35	@ tmp169,
 380 00b6 C3F8A420 		str	r2, [r3, #164]	@ tmp169, _42->PLL1CFG
 534:system/system_LPC17xx.c ****   LPC_SC->PLL1FEED  = 0xAA;
 381              		.loc 1 534 0
 382 00ba 214B     		ldr	r3, .L23	@ D.5489,
 383 00bc AA22     		movs	r2, #170	@ tmp170,
 384 00be C3F8AC20 		str	r2, [r3, #172]	@ tmp170, _44->PLL1FEED
 535:system/system_LPC17xx.c ****   LPC_SC->PLL1FEED  = 0x55;
 385              		.loc 1 535 0
 386 00c2 1F4B     		ldr	r3, .L23	@ D.5489,
 387 00c4 5522     		movs	r2, #85	@ tmp171,
 388 00c6 C3F8AC20 		str	r2, [r3, #172]	@ tmp171, _46->PLL1FEED
 536:system/system_LPC17xx.c **** 
 537:system/system_LPC17xx.c ****   LPC_SC->PLL1CON   = 0x01;             /* PLL1 Enable                        */
 389              		.loc 1 537 0
 390 00ca 1D4B     		ldr	r3, .L23	@ D.5489,
 391 00cc 0122     		movs	r2, #1	@ tmp172,
 392 00ce C3F8A020 		str	r2, [r3, #160]	@ tmp172, _48->PLL1CON
 538:system/system_LPC17xx.c ****   LPC_SC->PLL1FEED  = 0xAA;
 393              		.loc 1 538 0
 394 00d2 1B4B     		ldr	r3, .L23	@ D.5489,
 395 00d4 AA22     		movs	r2, #170	@ tmp173,
 396 00d6 C3F8AC20 		str	r2, [r3, #172]	@ tmp173, _50->PLL1FEED
 539:system/system_LPC17xx.c ****   LPC_SC->PLL1FEED  = 0x55;
 397              		.loc 1 539 0
 398 00da 194B     		ldr	r3, .L23	@ D.5489,
 399 00dc 5522     		movs	r2, #85	@ tmp174,
 400 00de C3F8AC20 		str	r2, [r3, #172]	@ tmp174, _52->PLL1FEED
 540:system/system_LPC17xx.c ****   while (!(LPC_SC->PLL1STAT & (1<<10)));/* Wait for PLOCK1                    */
 401              		.loc 1 540 0
 402 00e2 00BF     		nop
 403              	.L21:
 404              		.loc 1 540 0 is_stmt 0 discriminator 1
 405 00e4 164B     		ldr	r3, .L23	@ D.5489,
 406 00e6 D3F8A830 		ldr	r3, [r3, #168]	@ D.5490, _54->PLL1STAT
 407 00ea 03F48063 		and	r3, r3, #1024	@ D.5490, D.5490,
 408 00ee 002B     		cmp	r3, #0	@ D.5490,
 409 00f0 F8D0     		beq	.L21	@,
 541:system/system_LPC17xx.c **** 
 542:system/system_LPC17xx.c ****   LPC_SC->PLL1CON   = 0x03;             /* PLL1 Enable & Connect              */
 410              		.loc 1 542 0 is_stmt 1
 411 00f2 134B     		ldr	r3, .L23	@ D.5489,
 412 00f4 0322     		movs	r2, #3	@ tmp175,
 413 00f6 C3F8A020 		str	r2, [r3, #160]	@ tmp175, _57->PLL1CON
 543:system/system_LPC17xx.c ****   LPC_SC->PLL1FEED  = 0xAA;
 414              		.loc 1 543 0
ARM GAS  C:\Users\STUDENT\AppData\Local\Temp\cc6nyEnk.s 			page 18


 415 00fa 114B     		ldr	r3, .L23	@ D.5489,
 416 00fc AA22     		movs	r2, #170	@ tmp176,
 417 00fe C3F8AC20 		str	r2, [r3, #172]	@ tmp176, _59->PLL1FEED
 544:system/system_LPC17xx.c ****   LPC_SC->PLL1FEED  = 0x55;
 418              		.loc 1 544 0
 419 0102 0F4B     		ldr	r3, .L23	@ D.5489,
 420 0104 5522     		movs	r2, #85	@ tmp177,
 421 0106 C3F8AC20 		str	r2, [r3, #172]	@ tmp177, _61->PLL1FEED
 545:system/system_LPC17xx.c ****   while (!(LPC_SC->PLL1STAT & ((1<< 9) | (1<< 8))));/* Wait for PLLC1_STAT & PLLE1_STAT */
 422              		.loc 1 545 0
 423 010a 00BF     		nop
 424              	.L22:
 425              		.loc 1 545 0 is_stmt 0 discriminator 1
 426 010c 0C4B     		ldr	r3, .L23	@ D.5489,
 427 010e D3F8A830 		ldr	r3, [r3, #168]	@ D.5490, _63->PLL1STAT
 428 0112 03F44073 		and	r3, r3, #768	@ D.5490, D.5490,
 429 0116 002B     		cmp	r3, #0	@ D.5490,
 430 0118 F8D0     		beq	.L22	@,
 546:system/system_LPC17xx.c **** #else
 547:system/system_LPC17xx.c ****   LPC_SC->USBCLKCFG = USBCLKCFG_Val;    /* Setup USB Clock Divider            */
 548:system/system_LPC17xx.c **** #endif
 549:system/system_LPC17xx.c ****   LPC_SC->PCONP     = PCONP_Val;        /* Power Control for Peripherals      */
 431              		.loc 1 549 0 is_stmt 1
 432 011a 094B     		ldr	r3, .L23	@ D.5489,
 433 011c 0A4A     		ldr	r2, .L23+8	@ tmp178,
 434 011e C3F8C420 		str	r2, [r3, #196]	@ tmp178, _66->PCONP
 550:system/system_LPC17xx.c **** 
 551:system/system_LPC17xx.c ****   LPC_SC->CLKOUTCFG = CLKOUTCFG_Val;    /* Clock Output Configuration         */
 435              		.loc 1 551 0
 436 0122 074B     		ldr	r3, .L23	@ D.5489,
 437 0124 0022     		movs	r2, #0	@ tmp179,
 438 0126 C3F8C821 		str	r2, [r3, #456]	@ tmp179, _68->CLKOUTCFG
 552:system/system_LPC17xx.c **** #endif
 553:system/system_LPC17xx.c **** 
 554:system/system_LPC17xx.c **** #if (FLASH_SETUP == 1)                  /* Flash Accelerator Setup            */
 555:system/system_LPC17xx.c ****   LPC_SC->FLASHCFG  = FLASHCFG_Val;
 439              		.loc 1 555 0
 440 012a 054B     		ldr	r3, .L23	@ D.5489,
 441 012c 43F23A02 		movw	r2, #12346	@ tmp180,
 442 0130 1A60     		str	r2, [r3]	@ tmp180, _70->FLASHCFG
 556:system/system_LPC17xx.c **** #endif
 557:system/system_LPC17xx.c **** 
 558:system/system_LPC17xx.c **** //  Set Vector table offset value
 559:system/system_LPC17xx.c **** #if (__RAM_MODE__==1)
 560:system/system_LPC17xx.c ****   SCB->VTOR  = 0x10000000 & 0x3FFFFF80;
 561:system/system_LPC17xx.c **** #else
 562:system/system_LPC17xx.c ****   SCB->VTOR  = 0x00000000 & 0x3FFFFF80;
 443              		.loc 1 562 0
 444 0132 064B     		ldr	r3, .L23+12	@ D.5491,
 445 0134 0022     		movs	r2, #0	@ tmp181,
 446 0136 9A60     		str	r2, [r3, #8]	@ tmp181, _72->VTOR
 563:system/system_LPC17xx.c **** #endif
 564:system/system_LPC17xx.c **** }
 447              		.loc 1 564 0
 448 0138 00BF     		nop
 449 013a BD46     		mov	sp, r7	@,
 450              		.cfi_def_cfa_register 13
ARM GAS  C:\Users\STUDENT\AppData\Local\Temp\cc6nyEnk.s 			page 19


 451              		@ sp needed	@
 452 013c 80BC     		pop	{r7}	@
 453              		.cfi_restore 7
 454              		.cfi_def_cfa_offset 0
 455 013e 7047     		bx	lr	@
 456              	.L24:
 457              		.align	2
 458              	.L23:
 459 0140 00C00F40 		.word	1074774016
 460 0144 63000500 		.word	327779
 461 0148 DE872804 		.word	69765086
 462 014c 00ED00E0 		.word	-536810240
 463              		.cfi_endproc
 464              	.LFE56:
 465              		.size	SystemInit, .-SystemInit
 466              		.text
 467              	.Letext0:
 468              		.file 2 "c:\\program files (x86)\\gnu tools arm embedded\\5.4 2016q3\\arm-none-eabi\\include\\mach
 469              		.file 3 "c:\\program files (x86)\\gnu tools arm embedded\\5.4 2016q3\\arm-none-eabi\\include\\sys\
 470              		.file 4 "system/core_cm3.h"
 471              		.file 5 "system/LPC17xx.h"