ARM GAS  /tmp/ccTV2SzP.s 			page 1


   1              		.cpu cortex-m3
   2              		.eabi_attribute 20, 1	@ Tag_ABI_FP_denormal
   3              		.eabi_attribute 21, 1	@ Tag_ABI_FP_exceptions
   4              		.eabi_attribute 23, 3	@ Tag_ABI_FP_number_model
   5              		.eabi_attribute 24, 1	@ Tag_ABI_align8_needed
   6              		.eabi_attribute 25, 1	@ Tag_ABI_align8_preserved
   7              		.eabi_attribute 26, 1	@ Tag_ABI_enum_size
   8              		.eabi_attribute 30, 6	@ Tag_ABI_optimization_goals
   9              		.eabi_attribute 34, 1	@ Tag_CPU_unaligned_access
  10              		.eabi_attribute 18, 4	@ Tag_ABI_PCS_wchar_t
  11              		.file	"tasks.c"
  12              	@ GNU C89 (Arch Repository) version 7.1.0 (arm-none-eabi)
  13              	@	compiled by GNU C version 6.3.1 20170306, GMP version 6.1.2, MPFR version 3.1.5-p2, MPC version 1
  14              	
  15              	@ GGC heuristics: --param ggc-min-expand=100 --param ggc-min-heapsize=131072
  16              	@ options passed:  -I . -I config -I system -I core -I drivers -I FreeRTOS
  17              	@ -I FreeRTOS/include -I FreeRTOS/portable/GCC/ARM_CM3 -I FreeRTOS/portable
  18              	@ -I tasks/rc_task_leds -I tasks/rc_task_xbee -I modules/rc_leds
  19              	@ -I modules/rc_xbee -I modules/rc_scheduler -I drivers/rc_system
  20              	@ -I drivers/rc_gpio -I drivers/rc_uart -I drivers/rc_pinsel
  21              	@ -I drivers/rc_timer -I drivers/rc_adc -imultilib armv7-m -MD out/tasks.d
  22              	@ -MF out/tasks.d -MP -MQ out/tasks.o -D__USES_INITFINI__ FreeRTOS/tasks.c
  23              	@ -mcpu=cortex-m3 -mthumb -auxbase-strip out/tasks.o -g -ggdb3 -O0 -Wall
  24              	@ -Wstrict-prototypes -Wextra -std=gnu90 -ffunction-sections
  25              	@ -fdata-sections -fverbose-asm
  26              	@ options enabled:  -faggressive-loop-optimizations -fauto-inc-dec
  27              	@ -fchkp-check-incomplete-type -fchkp-check-read -fchkp-check-write
  28              	@ -fchkp-instrument-calls -fchkp-narrow-bounds -fchkp-optimize
  29              	@ -fchkp-store-bounds -fchkp-use-static-bounds
  30              	@ -fchkp-use-static-const-bounds -fchkp-use-wrappers -fcommon
  31              	@ -fdata-sections -fdelete-null-pointer-checks -fdwarf2-cfi-asm
  32              	@ -fearly-inlining -feliminate-unused-debug-types -ffp-int-builtin-inexact
  33              	@ -ffunction-cse -ffunction-sections -fgcse-lm -fgnu-runtime -fgnu-unique
  34              	@ -fident -finline-atomics -fira-hoist-pressure -fira-share-save-slots
  35              	@ -fira-share-spill-slots -fivopts -fkeep-static-consts
  36              	@ -fleading-underscore -flifetime-dse -flto-odr-type-merging -fmath-errno
  37              	@ -fmerge-debug-strings -fpeephole -fplt -fprefetch-loop-arrays
  38              	@ -freg-struct-return -fsched-critical-path-heuristic
  39              	@ -fsched-dep-count-heuristic -fsched-group-heuristic -fsched-interblock
  40              	@ -fsched-last-insn-heuristic -fsched-rank-heuristic -fsched-spec
  41              	@ -fsched-spec-insn-heuristic -fsched-stalled-insns-dep
  42              	@ -fsemantic-interposition -fshow-column -fshrink-wrap-separate
  43              	@ -fsigned-zeros -fsplit-ivs-in-unroller -fssa-backprop -fstdarg-opt
  44              	@ -fstrict-volatile-bitfields -fsync-libcalls -ftrapping-math -ftree-cselim
  45              	@ -ftree-forwprop -ftree-loop-if-convert -ftree-loop-im -ftree-loop-ivcanon
  46              	@ -ftree-loop-optimize -ftree-parallelize-loops= -ftree-phiprop
  47              	@ -ftree-reassoc -ftree-scev-cprop -funit-at-a-time -fverbose-asm
  48              	@ -fzero-initialized-in-bss -masm-syntax-unified -mfix-cortex-m3-ldrd
  49              	@ -mlittle-endian -mpic-data-is-text-relative -msched-prolog -mthumb
  50              	@ -munaligned-access -mvectorize-with-neon-quad
  51              	
  52              		.text
  53              	.Ltext0:
  54              		.cfi_sections	.debug_frame
  55              		.global	pxCurrentTCB
  56              		.section	.bss.pxCurrentTCB,"aw",%nobits
  57              		.align	2
ARM GAS  /tmp/ccTV2SzP.s 			page 2


  58              		.type	pxCurrentTCB, %object
  59              		.size	pxCurrentTCB, 4
  60              	pxCurrentTCB:
  61 0000 00000000 		.space	4
  62              		.section	.bss.pxReadyTasksLists,"aw",%nobits
  63              		.align	2
  64              		.type	pxReadyTasksLists, %object
  65              		.size	pxReadyTasksLists, 160
  66              	pxReadyTasksLists:
  67 0000 00000000 		.space	160
  67      00000000 
  67      00000000 
  67      00000000 
  67      00000000 
  68              		.section	.bss.xDelayedTaskList1,"aw",%nobits
  69              		.align	2
  70              		.type	xDelayedTaskList1, %object
  71              		.size	xDelayedTaskList1, 20
  72              	xDelayedTaskList1:
  73 0000 00000000 		.space	20
  73      00000000 
  73      00000000 
  73      00000000 
  73      00000000 
  74              		.section	.bss.xDelayedTaskList2,"aw",%nobits
  75              		.align	2
  76              		.type	xDelayedTaskList2, %object
  77              		.size	xDelayedTaskList2, 20
  78              	xDelayedTaskList2:
  79 0000 00000000 		.space	20
  79      00000000 
  79      00000000 
  79      00000000 
  79      00000000 
  80              		.section	.bss.pxDelayedTaskList,"aw",%nobits
  81              		.align	2
  82              		.type	pxDelayedTaskList, %object
  83              		.size	pxDelayedTaskList, 4
  84              	pxDelayedTaskList:
  85 0000 00000000 		.space	4
  86              		.section	.bss.pxOverflowDelayedTaskList,"aw",%nobits
  87              		.align	2
  88              		.type	pxOverflowDelayedTaskList, %object
  89              		.size	pxOverflowDelayedTaskList, 4
  90              	pxOverflowDelayedTaskList:
  91 0000 00000000 		.space	4
  92              		.section	.bss.xPendingReadyList,"aw",%nobits
  93              		.align	2
  94              		.type	xPendingReadyList, %object
  95              		.size	xPendingReadyList, 20
  96              	xPendingReadyList:
  97 0000 00000000 		.space	20
  97      00000000 
  97      00000000 
  97      00000000 
  97      00000000 
  98              		.section	.bss.xTasksWaitingTermination,"aw",%nobits
ARM GAS  /tmp/ccTV2SzP.s 			page 3


  99              		.align	2
 100              		.type	xTasksWaitingTermination, %object
 101              		.size	xTasksWaitingTermination, 20
 102              	xTasksWaitingTermination:
 103 0000 00000000 		.space	20
 103      00000000 
 103      00000000 
 103      00000000 
 103      00000000 
 104              		.section	.bss.uxTasksDeleted,"aw",%nobits
 105              		.align	2
 106              		.type	uxTasksDeleted, %object
 107              		.size	uxTasksDeleted, 4
 108              	uxTasksDeleted:
 109 0000 00000000 		.space	4
 110              		.section	.bss.xSuspendedTaskList,"aw",%nobits
 111              		.align	2
 112              		.type	xSuspendedTaskList, %object
 113              		.size	xSuspendedTaskList, 20
 114              	xSuspendedTaskList:
 115 0000 00000000 		.space	20
 115      00000000 
 115      00000000 
 115      00000000 
 115      00000000 
 116              		.section	.bss.uxCurrentNumberOfTasks,"aw",%nobits
 117              		.align	2
 118              		.type	uxCurrentNumberOfTasks, %object
 119              		.size	uxCurrentNumberOfTasks, 4
 120              	uxCurrentNumberOfTasks:
 121 0000 00000000 		.space	4
 122              		.section	.bss.xTickCount,"aw",%nobits
 123              		.align	2
 124              		.type	xTickCount, %object
 125              		.size	xTickCount, 4
 126              	xTickCount:
 127 0000 00000000 		.space	4
 128              		.section	.bss.uxTopReadyPriority,"aw",%nobits
 129              		.align	2
 130              		.type	uxTopReadyPriority, %object
 131              		.size	uxTopReadyPriority, 4
 132              	uxTopReadyPriority:
 133 0000 00000000 		.space	4
 134              		.section	.bss.xSchedulerRunning,"aw",%nobits
 135              		.align	2
 136              		.type	xSchedulerRunning, %object
 137              		.size	xSchedulerRunning, 4
 138              	xSchedulerRunning:
 139 0000 00000000 		.space	4
 140              		.section	.bss.uxPendedTicks,"aw",%nobits
 141              		.align	2
 142              		.type	uxPendedTicks, %object
 143              		.size	uxPendedTicks, 4
 144              	uxPendedTicks:
 145 0000 00000000 		.space	4
 146              		.section	.bss.xYieldPending,"aw",%nobits
 147              		.align	2
ARM GAS  /tmp/ccTV2SzP.s 			page 4


 148              		.type	xYieldPending, %object
 149              		.size	xYieldPending, 4
 150              	xYieldPending:
 151 0000 00000000 		.space	4
 152              		.section	.bss.xNumOfOverflows,"aw",%nobits
 153              		.align	2
 154              		.type	xNumOfOverflows, %object
 155              		.size	xNumOfOverflows, 4
 156              	xNumOfOverflows:
 157 0000 00000000 		.space	4
 158              		.section	.bss.uxTaskNumber,"aw",%nobits
 159              		.align	2
 160              		.type	uxTaskNumber, %object
 161              		.size	uxTaskNumber, 4
 162              	uxTaskNumber:
 163 0000 00000000 		.space	4
 164              		.section	.data.xNextTaskUnblockTime,"aw",%progbits
 165              		.align	2
 166              		.type	xNextTaskUnblockTime, %object
 167              		.size	xNextTaskUnblockTime, 4
 168              	xNextTaskUnblockTime:
 169 0000 FFFFFFFF 		.word	-1
 170              		.section	.bss.uxSchedulerSuspended,"aw",%nobits
 171              		.align	2
 172              		.type	uxSchedulerSuspended, %object
 173              		.size	uxSchedulerSuspended, 4
 174              	uxSchedulerSuspended:
 175 0000 00000000 		.space	4
 176              		.section	.text.xTaskGenericCreate,"ax",%progbits
 177              		.align	1
 178              		.global	xTaskGenericCreate
 179              		.syntax unified
 180              		.thumb
 181              		.thumb_func
 182              		.fpu softvfp
 183              		.type	xTaskGenericCreate, %function
 184              	xTaskGenericCreate:
 185              	.LFB1:
 186              		.file 1 "FreeRTOS/tasks.c"
   1:FreeRTOS/tasks.c **** /*
   2:FreeRTOS/tasks.c ****     FreeRTOS V8.1.2 - Copyright (C) 2014 Real Time Engineers Ltd.
   3:FreeRTOS/tasks.c ****     All rights reserved
   4:FreeRTOS/tasks.c **** 
   5:FreeRTOS/tasks.c ****     VISIT http://www.FreeRTOS.org TO ENSURE YOU ARE USING THE LATEST VERSION.
   6:FreeRTOS/tasks.c **** 
   7:FreeRTOS/tasks.c ****     ***************************************************************************
   8:FreeRTOS/tasks.c ****      *                                                                       *
   9:FreeRTOS/tasks.c ****      *    FreeRTOS provides completely free yet professionally developed,    *
  10:FreeRTOS/tasks.c ****      *    robust, strictly quality controlled, supported, and cross          *
  11:FreeRTOS/tasks.c ****      *    platform software that has become a de facto standard.             *
  12:FreeRTOS/tasks.c ****      *                                                                       *
  13:FreeRTOS/tasks.c ****      *    Help yourself get started quickly and support the FreeRTOS         *
  14:FreeRTOS/tasks.c ****      *    project by purchasing a FreeRTOS tutorial book, reference          *
  15:FreeRTOS/tasks.c ****      *    manual, or both from: http://www.FreeRTOS.org/Documentation        *
  16:FreeRTOS/tasks.c ****      *                                                                       *
  17:FreeRTOS/tasks.c ****      *    Thank you!                                                         *
  18:FreeRTOS/tasks.c ****      *                                                                       *
ARM GAS  /tmp/ccTV2SzP.s 			page 5


  19:FreeRTOS/tasks.c ****     ***************************************************************************
  20:FreeRTOS/tasks.c **** 
  21:FreeRTOS/tasks.c ****     This file is part of the FreeRTOS distribution.
  22:FreeRTOS/tasks.c **** 
  23:FreeRTOS/tasks.c ****     FreeRTOS is free software; you can redistribute it and/or modify it under
  24:FreeRTOS/tasks.c ****     the terms of the GNU General Public License (version 2) as published by the
  25:FreeRTOS/tasks.c ****     Free Software Foundation >>!AND MODIFIED BY!<< the FreeRTOS exception.
  26:FreeRTOS/tasks.c **** 
  27:FreeRTOS/tasks.c ****     >>!   NOTE: The modification to the GPL is included to allow you to     !<<
  28:FreeRTOS/tasks.c ****     >>!   distribute a combined work that includes FreeRTOS without being   !<<
  29:FreeRTOS/tasks.c ****     >>!   obliged to provide the source code for proprietary components     !<<
  30:FreeRTOS/tasks.c ****     >>!   outside of the FreeRTOS kernel.                                   !<<
  31:FreeRTOS/tasks.c **** 
  32:FreeRTOS/tasks.c ****     FreeRTOS is distributed in the hope that it will be useful, but WITHOUT ANY
  33:FreeRTOS/tasks.c ****     WARRANTY; without even the implied warranty of MERCHANTABILITY or FITNESS
  34:FreeRTOS/tasks.c ****     FOR A PARTICULAR PURPOSE.  Full license text is available from the following
  35:FreeRTOS/tasks.c ****     link: http://www.freertos.org/a00114.html
  36:FreeRTOS/tasks.c **** 
  37:FreeRTOS/tasks.c ****     1 tab == 4 spaces!
  38:FreeRTOS/tasks.c **** 
  39:FreeRTOS/tasks.c ****     ***************************************************************************
  40:FreeRTOS/tasks.c ****      *                                                                       *
  41:FreeRTOS/tasks.c ****      *    Having a problem?  Start by reading the FAQ "My application does   *
  42:FreeRTOS/tasks.c ****      *    not run, what could be wrong?"                                     *
  43:FreeRTOS/tasks.c ****      *                                                                       *
  44:FreeRTOS/tasks.c ****      *    http://www.FreeRTOS.org/FAQHelp.html                               *
  45:FreeRTOS/tasks.c ****      *                                                                       *
  46:FreeRTOS/tasks.c ****     ***************************************************************************
  47:FreeRTOS/tasks.c **** 
  48:FreeRTOS/tasks.c ****     http://www.FreeRTOS.org - Documentation, books, training, latest versions,
  49:FreeRTOS/tasks.c ****     license and Real Time Engineers Ltd. contact details.
  50:FreeRTOS/tasks.c **** 
  51:FreeRTOS/tasks.c ****     http://www.FreeRTOS.org/plus - A selection of FreeRTOS ecosystem products,
  52:FreeRTOS/tasks.c ****     including FreeRTOS+Trace - an indispensable productivity tool, a DOS
  53:FreeRTOS/tasks.c ****     compatible FAT file system, and our tiny thread aware UDP/IP stack.
  54:FreeRTOS/tasks.c **** 
  55:FreeRTOS/tasks.c ****     http://www.OpenRTOS.com - Real Time Engineers ltd license FreeRTOS to High
  56:FreeRTOS/tasks.c ****     Integrity Systems to sell under the OpenRTOS brand.  Low cost OpenRTOS
  57:FreeRTOS/tasks.c ****     licenses offer ticketed support, indemnification and middleware.
  58:FreeRTOS/tasks.c **** 
  59:FreeRTOS/tasks.c ****     http://www.SafeRTOS.com - High Integrity Systems also provide a safety
  60:FreeRTOS/tasks.c ****     engineered and independently SIL3 certified version for use in safety and
  61:FreeRTOS/tasks.c ****     mission critical applications that require provable dependability.
  62:FreeRTOS/tasks.c **** 
  63:FreeRTOS/tasks.c ****     1 tab == 4 spaces!
  64:FreeRTOS/tasks.c **** */
  65:FreeRTOS/tasks.c **** 
  66:FreeRTOS/tasks.c **** /* Standard includes. */
  67:FreeRTOS/tasks.c **** #include <stdlib.h>
  68:FreeRTOS/tasks.c **** #include <string.h>
  69:FreeRTOS/tasks.c **** 
  70:FreeRTOS/tasks.c **** /* Defining MPU_WRAPPERS_INCLUDED_FROM_API_FILE prevents task.h from redefining
  71:FreeRTOS/tasks.c **** all the API functions to use the MPU wrappers.  That should only be done when
  72:FreeRTOS/tasks.c **** task.h is included from an application file. */
  73:FreeRTOS/tasks.c **** #define MPU_WRAPPERS_INCLUDED_FROM_API_FILE
  74:FreeRTOS/tasks.c **** 
  75:FreeRTOS/tasks.c **** /* FreeRTOS includes. */
ARM GAS  /tmp/ccTV2SzP.s 			page 6


  76:FreeRTOS/tasks.c **** #include "FreeRTOS.h"
  77:FreeRTOS/tasks.c **** #include "task.h"
  78:FreeRTOS/tasks.c **** #include "timers.h"
  79:FreeRTOS/tasks.c **** #include "StackMacros.h"
  80:FreeRTOS/tasks.c **** 
  81:FreeRTOS/tasks.c **** /* Lint e961 and e750 are suppressed as a MISRA exception justified because the
  82:FreeRTOS/tasks.c **** MPU ports require MPU_WRAPPERS_INCLUDED_FROM_API_FILE to be defined for the
  83:FreeRTOS/tasks.c **** header files above, but not in this file, in order to generate the correct
  84:FreeRTOS/tasks.c **** privileged Vs unprivileged linkage and placement. */
  85:FreeRTOS/tasks.c **** #undef MPU_WRAPPERS_INCLUDED_FROM_API_FILE /*lint !e961 !e750. */
  86:FreeRTOS/tasks.c **** 
  87:FreeRTOS/tasks.c **** #if ( configUSE_STATS_FORMATTING_FUNCTIONS == 1 )
  88:FreeRTOS/tasks.c **** 	/* At the bottom of this file are two optional functions that can be used
  89:FreeRTOS/tasks.c **** 	to generate human readable text from the raw data generated by the
  90:FreeRTOS/tasks.c **** 	uxTaskGetSystemState() function.  Note the formatting functions are provided
  91:FreeRTOS/tasks.c **** 	for convenience only, and are NOT considered part of the kernel. */
  92:FreeRTOS/tasks.c **** 	#include <stdio.h>
  93:FreeRTOS/tasks.c **** #endif /* configUSE_STATS_FORMATTING_FUNCTIONS == 1 ) */
  94:FreeRTOS/tasks.c **** 
  95:FreeRTOS/tasks.c **** /* Sanity check the configuration. */
  96:FreeRTOS/tasks.c **** #if configUSE_TICKLESS_IDLE != 0
  97:FreeRTOS/tasks.c **** 	#if INCLUDE_vTaskSuspend != 1
  98:FreeRTOS/tasks.c **** 		#error INCLUDE_vTaskSuspend must be set to 1 if configUSE_TICKLESS_IDLE is not set to 0
  99:FreeRTOS/tasks.c **** 	#endif /* INCLUDE_vTaskSuspend */
 100:FreeRTOS/tasks.c **** #endif /* configUSE_TICKLESS_IDLE */
 101:FreeRTOS/tasks.c **** 
 102:FreeRTOS/tasks.c **** /*
 103:FreeRTOS/tasks.c ****  * Defines the size, in words, of the stack allocated to the idle task.
 104:FreeRTOS/tasks.c ****  */
 105:FreeRTOS/tasks.c **** #define tskIDLE_STACK_SIZE	configMINIMAL_STACK_SIZE
 106:FreeRTOS/tasks.c **** 
 107:FreeRTOS/tasks.c **** #if( configUSE_PREEMPTION == 0 )
 108:FreeRTOS/tasks.c **** 	/* If the cooperative scheduler is being used then a yield should not be
 109:FreeRTOS/tasks.c **** 	performed just because a higher priority task has been woken. */
 110:FreeRTOS/tasks.c **** 	#define taskYIELD_IF_USING_PREEMPTION()
 111:FreeRTOS/tasks.c **** #else
 112:FreeRTOS/tasks.c **** 	#define taskYIELD_IF_USING_PREEMPTION() portYIELD_WITHIN_API()
 113:FreeRTOS/tasks.c **** #endif
 114:FreeRTOS/tasks.c **** 
 115:FreeRTOS/tasks.c **** /*
 116:FreeRTOS/tasks.c ****  * Task control block.  A task control block (TCB) is allocated for each task,
 117:FreeRTOS/tasks.c ****  * and stores task state information, including a pointer to the task's context
 118:FreeRTOS/tasks.c ****  * (the task's run time environment, including register values)
 119:FreeRTOS/tasks.c ****  */
 120:FreeRTOS/tasks.c **** typedef struct tskTaskControlBlock
 121:FreeRTOS/tasks.c **** {
 122:FreeRTOS/tasks.c **** 	volatile StackT_t	*pxTopOfStack;	/*< Points to the location of the last item placed on the tasks s
 123:FreeRTOS/tasks.c **** 
 124:FreeRTOS/tasks.c **** 	#if ( portUSING_MPU_WRAPPERS == 1 )
 125:FreeRTOS/tasks.c **** 		xMPU_SETTINGS	xMPUSettings;		/*< The MPU settings are defined as part of the port layer.  THIS MU
 126:FreeRTOS/tasks.c **** 	#endif
 127:FreeRTOS/tasks.c **** 
 128:FreeRTOS/tasks.c **** 	ListItem_t			xGenericListItem;	/*< The list that the state list item of a task is reference from d
 129:FreeRTOS/tasks.c **** 	ListItem_t			xEventListItem;		/*< Used to reference a task from an event list. */
 130:FreeRTOS/tasks.c **** 	UBaseT_t			uxPriority;			/*< The priority of the task.  0 is the lowest priority. */
 131:FreeRTOS/tasks.c **** 	StackT_t			*pxStack;			/*< Points to the start of the stack. */
 132:FreeRTOS/tasks.c **** 	char				pcTaskName[ configMAX_TASK_NAME_LEN ];/*< Descriptive name given to the task when created.
ARM GAS  /tmp/ccTV2SzP.s 			page 7


 133:FreeRTOS/tasks.c **** 
 134:FreeRTOS/tasks.c **** 	#if ( portSTACK_GROWTH > 0 )
 135:FreeRTOS/tasks.c **** 		StackT_t		*pxEndOfStack;		/*< Points to the end of the stack on architectures where the stack gro
 136:FreeRTOS/tasks.c **** 	#endif
 137:FreeRTOS/tasks.c **** 
 138:FreeRTOS/tasks.c **** 	#if ( portCRITICAL_NESTING_IN_TCB == 1 )
 139:FreeRTOS/tasks.c **** 		UBaseT_t 	uxCriticalNesting; 	/*< Holds the critical section nesting depth for ports that do not 
 140:FreeRTOS/tasks.c **** 	#endif
 141:FreeRTOS/tasks.c **** 
 142:FreeRTOS/tasks.c **** 	#if ( configUSE_TRACE_FACILITY == 1 )
 143:FreeRTOS/tasks.c **** 		UBaseT_t		uxTCBNumber;		/*< Stores a number that increments each time a TCB is created.  It allow
 144:FreeRTOS/tasks.c **** 		UBaseT_t  	uxTaskNumber;		/*< Stores a number specifically for use by third party trace code. */
 145:FreeRTOS/tasks.c **** 	#endif
 146:FreeRTOS/tasks.c **** 
 147:FreeRTOS/tasks.c **** 	#if ( configUSE_MUTEXES == 1 )
 148:FreeRTOS/tasks.c **** 		UBaseT_t 	uxBasePriority;		/*< The priority last assigned to the task - used by the priority inhe
 149:FreeRTOS/tasks.c **** 		UBaseT_t 	uxMutexesHeld;
 150:FreeRTOS/tasks.c **** 	#endif
 151:FreeRTOS/tasks.c **** 
 152:FreeRTOS/tasks.c **** 	#if ( configUSE_APPLICATION_TASK_TAG == 1 )
 153:FreeRTOS/tasks.c **** 		TaskHookFunction_t pxTaskTag;
 154:FreeRTOS/tasks.c **** 	#endif
 155:FreeRTOS/tasks.c **** 
 156:FreeRTOS/tasks.c **** 	#if ( configGENERATE_RUN_TIME_STATS == 1 )
 157:FreeRTOS/tasks.c **** 		uint32_t		ulRunTimeCounter;	/*< Stores the amount of time the task has spent in the Running state
 158:FreeRTOS/tasks.c **** 	#endif
 159:FreeRTOS/tasks.c **** 
 160:FreeRTOS/tasks.c **** 	#if ( configUSE_NEWLIB_REENTRANT == 1 )
 161:FreeRTOS/tasks.c **** 		/* Allocate a Newlib reent structure that is specific to this task.
 162:FreeRTOS/tasks.c **** 		Note Newlib support has been included by popular demand, but is not
 163:FreeRTOS/tasks.c **** 		used by the FreeRTOS maintainers themselves.  FreeRTOS is not
 164:FreeRTOS/tasks.c **** 		responsible for resulting newlib operation.  User must be familiar with
 165:FreeRTOS/tasks.c **** 		newlib and must provide system-wide implementations of the necessary
 166:FreeRTOS/tasks.c **** 		stubs. Be warned that (at the time of writing) the current newlib design
 167:FreeRTOS/tasks.c **** 		implements a system-wide malloc() that must be provided with locks. */
 168:FreeRTOS/tasks.c **** 		struct 	_reent xNewLib_reent;
 169:FreeRTOS/tasks.c **** 	#endif
 170:FreeRTOS/tasks.c **** 
 171:FreeRTOS/tasks.c **** } tskTCB;
 172:FreeRTOS/tasks.c **** 
 173:FreeRTOS/tasks.c **** /* The old tskTCB name is maintained above then typedefed to the new TCB_t name
 174:FreeRTOS/tasks.c **** below to enable the use of older kernel aware debuggers. */
 175:FreeRTOS/tasks.c **** typedef tskTCB TCB_t;
 176:FreeRTOS/tasks.c **** 
 177:FreeRTOS/tasks.c **** /*
 178:FreeRTOS/tasks.c ****  * Some kernel aware debuggers require the data the debugger needs access to to
 179:FreeRTOS/tasks.c ****  * be global, rather than file scope.
 180:FreeRTOS/tasks.c ****  */
 181:FreeRTOS/tasks.c **** #ifdef portREMOVE_STATIC_QUALIFIER
 182:FreeRTOS/tasks.c **** 	#define static
 183:FreeRTOS/tasks.c **** #endif
 184:FreeRTOS/tasks.c **** 
 185:FreeRTOS/tasks.c **** /*lint -e956 A manual analysis and inspection has been used to determine which
 186:FreeRTOS/tasks.c **** static variables must be declared volatile. */
 187:FreeRTOS/tasks.c **** 
 188:FreeRTOS/tasks.c **** PRIVILEGED_DATA TCB_t * volatile pxCurrentTCB = NULL;
 189:FreeRTOS/tasks.c **** 
ARM GAS  /tmp/ccTV2SzP.s 			page 8


 190:FreeRTOS/tasks.c **** /* Lists for ready and blocked tasks. --------------------*/
 191:FreeRTOS/tasks.c **** PRIVILEGED_DATA static List_t pxReadyTasksLists[ configMAX_PRIORITIES ];/*< Prioritised ready tasks
 192:FreeRTOS/tasks.c **** PRIVILEGED_DATA static List_t xDelayedTaskList1;						/*< Delayed tasks. */
 193:FreeRTOS/tasks.c **** PRIVILEGED_DATA static List_t xDelayedTaskList2;						/*< Delayed tasks (two lists are used - one f
 194:FreeRTOS/tasks.c **** PRIVILEGED_DATA static List_t * volatile pxDelayedTaskList;				/*< Points to the delayed task list 
 195:FreeRTOS/tasks.c **** PRIVILEGED_DATA static List_t * volatile pxOverflowDelayedTaskList;		/*< Points to the delayed task
 196:FreeRTOS/tasks.c **** PRIVILEGED_DATA static List_t xPendingReadyList;						/*< Tasks that have been readied while the sc
 197:FreeRTOS/tasks.c **** 
 198:FreeRTOS/tasks.c **** #if ( INCLUDE_vTaskDelete == 1 )
 199:FreeRTOS/tasks.c **** 
 200:FreeRTOS/tasks.c **** 	PRIVILEGED_DATA static List_t xTasksWaitingTermination;				/*< Tasks that have been deleted - but 
 201:FreeRTOS/tasks.c **** 	PRIVILEGED_DATA static volatile UBaseT_t uxTasksDeleted = ( UBaseT_t ) 0U;
 202:FreeRTOS/tasks.c **** 
 203:FreeRTOS/tasks.c **** #endif
 204:FreeRTOS/tasks.c **** 
 205:FreeRTOS/tasks.c **** #if ( INCLUDE_vTaskSuspend == 1 )
 206:FreeRTOS/tasks.c **** 
 207:FreeRTOS/tasks.c **** 	PRIVILEGED_DATA static List_t xSuspendedTaskList;					/*< Tasks that are currently suspended. */
 208:FreeRTOS/tasks.c **** 
 209:FreeRTOS/tasks.c **** #endif
 210:FreeRTOS/tasks.c **** 
 211:FreeRTOS/tasks.c **** #if ( INCLUDE_xTaskGetIdleTaskHandle == 1 )
 212:FreeRTOS/tasks.c **** 
 213:FreeRTOS/tasks.c **** 	PRIVILEGED_DATA static TaskHandle_t xIdleTaskHandle = NULL;			/*< Holds the handle of the idle tas
 214:FreeRTOS/tasks.c **** 
 215:FreeRTOS/tasks.c **** #endif
 216:FreeRTOS/tasks.c **** 
 217:FreeRTOS/tasks.c **** /* Other file private variables. --------------------------------*/
 218:FreeRTOS/tasks.c **** PRIVILEGED_DATA static volatile UBaseT_t uxCurrentNumberOfTasks 	= ( UBaseT_t ) 0U;
 219:FreeRTOS/tasks.c **** PRIVILEGED_DATA static volatile TickT_t xTickCount 				= ( TickT_t ) 0U;
 220:FreeRTOS/tasks.c **** PRIVILEGED_DATA static volatile UBaseT_t uxTopReadyPriority 		= tskIDLE_PRIORITY;
 221:FreeRTOS/tasks.c **** PRIVILEGED_DATA static volatile BaseT_t xSchedulerRunning 		= pdFALSE;
 222:FreeRTOS/tasks.c **** PRIVILEGED_DATA static volatile UBaseT_t uxPendedTicks 			= ( UBaseT_t ) 0U;
 223:FreeRTOS/tasks.c **** PRIVILEGED_DATA static volatile BaseT_t xYieldPending 			= pdFALSE;
 224:FreeRTOS/tasks.c **** PRIVILEGED_DATA static volatile BaseT_t xNumOfOverflows 			= ( BaseT_t ) 0;
 225:FreeRTOS/tasks.c **** PRIVILEGED_DATA static UBaseT_t uxTaskNumber 					= ( UBaseT_t ) 0U;
 226:FreeRTOS/tasks.c **** PRIVILEGED_DATA static volatile TickT_t xNextTaskUnblockTime		= portMAX_DELAY;
 227:FreeRTOS/tasks.c **** 
 228:FreeRTOS/tasks.c **** /* Context switches are held pending while the scheduler is suspended.  Also,
 229:FreeRTOS/tasks.c **** interrupts must not manipulate the xStateListItem of a TCB, or any of the
 230:FreeRTOS/tasks.c **** lists the xStateListItem can be referenced from, if the scheduler is suspended.
 231:FreeRTOS/tasks.c **** If an interrupt needs to unblock a task while the scheduler is suspended then it
 232:FreeRTOS/tasks.c **** moves the task's event list item into the xPendingReadyList, ready for the
 233:FreeRTOS/tasks.c **** kernel to move the task from the pending ready list into the real ready list
 234:FreeRTOS/tasks.c **** when the scheduler is unsuspended.  The pending ready list itself can only be
 235:FreeRTOS/tasks.c **** accessed from a critical section. */
 236:FreeRTOS/tasks.c **** PRIVILEGED_DATA static volatile UBaseT_t uxSchedulerSuspended	= ( UBaseT_t ) pdFALSE;
 237:FreeRTOS/tasks.c **** 
 238:FreeRTOS/tasks.c **** #if ( configGENERATE_RUN_TIME_STATS == 1 )
 239:FreeRTOS/tasks.c **** 
 240:FreeRTOS/tasks.c **** 	PRIVILEGED_DATA static uint32_t ulTaskSwitchedInTime = 0UL;	/*< Holds the value of a timer/counter
 241:FreeRTOS/tasks.c **** 	PRIVILEGED_DATA static uint32_t ulTotalRunTime = 0UL;		/*< Holds the total amount of execution tim
 242:FreeRTOS/tasks.c **** 
 243:FreeRTOS/tasks.c **** #endif
 244:FreeRTOS/tasks.c **** 
 245:FreeRTOS/tasks.c **** /*lint +e956 */
 246:FreeRTOS/tasks.c **** 
ARM GAS  /tmp/ccTV2SzP.s 			page 9


 247:FreeRTOS/tasks.c **** /* Debugging and trace facilities private variables and macros. ------------*/
 248:FreeRTOS/tasks.c **** 
 249:FreeRTOS/tasks.c **** /*
 250:FreeRTOS/tasks.c ****  * The value used to fill the stack of a task when the task is created.  This
 251:FreeRTOS/tasks.c ****  * is used purely for checking the high water mark for tasks.
 252:FreeRTOS/tasks.c ****  */
 253:FreeRTOS/tasks.c **** #define tskSTACK_FILL_BYTE	( 0xa5U )
 254:FreeRTOS/tasks.c **** 
 255:FreeRTOS/tasks.c **** /*
 256:FreeRTOS/tasks.c ****  * Macros used by vListTask to indicate which state a task is in.
 257:FreeRTOS/tasks.c ****  */
 258:FreeRTOS/tasks.c **** #define tskBLOCKED_CHAR		( 'B' )
 259:FreeRTOS/tasks.c **** #define tskREADY_CHAR		( 'R' )
 260:FreeRTOS/tasks.c **** #define tskDELETED_CHAR		( 'D' )
 261:FreeRTOS/tasks.c **** #define tskSUSPENDED_CHAR	( 'S' )
 262:FreeRTOS/tasks.c **** 
 263:FreeRTOS/tasks.c **** /*-----------------------------------------------------------*/
 264:FreeRTOS/tasks.c **** 
 265:FreeRTOS/tasks.c **** #if ( configUSE_PORT_OPTIMISED_TASK_SELECTION == 0 )
 266:FreeRTOS/tasks.c **** 
 267:FreeRTOS/tasks.c **** 	/* If configUSE_PORT_OPTIMISED_TASK_SELECTION is 0 then task selection is
 268:FreeRTOS/tasks.c **** 	performed in a generic way that is not optimised to any particular
 269:FreeRTOS/tasks.c **** 	microcontroller architecture. */
 270:FreeRTOS/tasks.c **** 
 271:FreeRTOS/tasks.c **** 	/* uxTopReadyPriority holds the priority of the highest priority ready
 272:FreeRTOS/tasks.c **** 	state task. */
 273:FreeRTOS/tasks.c **** 	#define taskRECORD_READY_PRIORITY( uxPriority )														\
 274:FreeRTOS/tasks.c **** 	{																									\
 275:FreeRTOS/tasks.c **** 		if( ( uxPriority ) > uxTopReadyPriority )														\
 276:FreeRTOS/tasks.c **** 		{																								\
 277:FreeRTOS/tasks.c **** 			uxTopReadyPriority = ( uxPriority );														\
 278:FreeRTOS/tasks.c **** 		}																								\
 279:FreeRTOS/tasks.c **** 	} /* taskRECORD_READY_PRIORITY */
 280:FreeRTOS/tasks.c **** 
 281:FreeRTOS/tasks.c **** 	/*-----------------------------------------------------------*/
 282:FreeRTOS/tasks.c **** 
 283:FreeRTOS/tasks.c **** 	#define taskSELECT_HIGHEST_PRIORITY_TASK()															\
 284:FreeRTOS/tasks.c **** 	{																									\
 285:FreeRTOS/tasks.c **** 		/* Find the highest priority queue that contains ready tasks. */								\
 286:FreeRTOS/tasks.c **** 		while( listLIST_IS_EMPTY( &( pxReadyTasksLists[ uxTopReadyPriority ] ) ) )						\
 287:FreeRTOS/tasks.c **** 		{																								\
 288:FreeRTOS/tasks.c **** 			configASSERT( uxTopReadyPriority );															\
 289:FreeRTOS/tasks.c **** 			--uxTopReadyPriority;																		\
 290:FreeRTOS/tasks.c **** 		}																								\
 291:FreeRTOS/tasks.c **** 																										\
 292:FreeRTOS/tasks.c **** 		/* listGET_OWNER_OF_NEXT_ENTRY indexes through the list, so the tasks of						\
 293:FreeRTOS/tasks.c **** 		the	same priority get an equal share of the processor time. */									\
 294:FreeRTOS/tasks.c **** 		listGET_OWNER_OF_NEXT_ENTRY( pxCurrentTCB, &( pxReadyTasksLists[ uxTopReadyPriority ] ) );		\
 295:FreeRTOS/tasks.c **** 	} /* taskSELECT_HIGHEST_PRIORITY_TASK */
 296:FreeRTOS/tasks.c **** 
 297:FreeRTOS/tasks.c **** 	/*-----------------------------------------------------------*/
 298:FreeRTOS/tasks.c **** 
 299:FreeRTOS/tasks.c **** 	/* Define away taskRESET_READY_PRIORITY() and portRESET_READY_PRIORITY() as
 300:FreeRTOS/tasks.c **** 	they are only required when a port optimised method of task selection is
 301:FreeRTOS/tasks.c **** 	being used. */
 302:FreeRTOS/tasks.c **** 	#define taskRESET_READY_PRIORITY( uxPriority )
 303:FreeRTOS/tasks.c **** 	#define portRESET_READY_PRIORITY( uxPriority, uxTopReadyPriority )
ARM GAS  /tmp/ccTV2SzP.s 			page 10


 304:FreeRTOS/tasks.c **** 
 305:FreeRTOS/tasks.c **** #else /* configUSE_PORT_OPTIMISED_TASK_SELECTION */
 306:FreeRTOS/tasks.c **** 
 307:FreeRTOS/tasks.c **** 	/* If configUSE_PORT_OPTIMISED_TASK_SELECTION is 1 then task selection is
 308:FreeRTOS/tasks.c **** 	performed in a way that is tailored to the particular microcontroller
 309:FreeRTOS/tasks.c **** 	architecture being used. */
 310:FreeRTOS/tasks.c **** 
 311:FreeRTOS/tasks.c **** 	/* A port optimised version is provided.  Call the port defined macros. */
 312:FreeRTOS/tasks.c **** 	#define taskRECORD_READY_PRIORITY( uxPriority )	portRECORD_READY_PRIORITY( uxPriority, uxTopReadyP
 313:FreeRTOS/tasks.c **** 
 314:FreeRTOS/tasks.c **** 	/*-----------------------------------------------------------*/
 315:FreeRTOS/tasks.c **** 
 316:FreeRTOS/tasks.c **** 	#define taskSELECT_HIGHEST_PRIORITY_TASK()														\
 317:FreeRTOS/tasks.c **** 	{																								\
 318:FreeRTOS/tasks.c **** 	UBaseT_t uxTopPriority;																		\
 319:FreeRTOS/tasks.c **** 																									\
 320:FreeRTOS/tasks.c **** 		/* Find the highest priority queue that contains ready tasks. */							\
 321:FreeRTOS/tasks.c **** 		portGET_HIGHEST_PRIORITY( uxTopPriority, uxTopReadyPriority );								\
 322:FreeRTOS/tasks.c **** 		configASSERT( listCURRENT_LIST_LENGTH( &( pxReadyTasksLists[ uxTopPriority ] ) ) > 0 );		\
 323:FreeRTOS/tasks.c **** 		listGET_OWNER_OF_NEXT_ENTRY( pxCurrentTCB, &( pxReadyTasksLists[ uxTopPriority ] ) );		\
 324:FreeRTOS/tasks.c **** 	} /* taskSELECT_HIGHEST_PRIORITY_TASK() */
 325:FreeRTOS/tasks.c **** 
 326:FreeRTOS/tasks.c **** 	/*-----------------------------------------------------------*/
 327:FreeRTOS/tasks.c **** 
 328:FreeRTOS/tasks.c **** 	/* A port optimised version is provided, call it only if the TCB being reset
 329:FreeRTOS/tasks.c **** 	is being referenced from a ready list.  If it is referenced from a delayed
 330:FreeRTOS/tasks.c **** 	or suspended list then it won't be in a ready list. */
 331:FreeRTOS/tasks.c **** 	#define taskRESET_READY_PRIORITY( uxPriority )														\
 332:FreeRTOS/tasks.c **** 	{																									\
 333:FreeRTOS/tasks.c **** 		if( listCURRENT_LIST_LENGTH( &( pxReadyTasksLists[ ( uxPriority ) ] ) ) == ( UBaseT_t ) 0 )	\
 334:FreeRTOS/tasks.c **** 		{																								\
 335:FreeRTOS/tasks.c **** 			portRESET_READY_PRIORITY( ( uxPriority ), ( uxTopReadyPriority ) );							\
 336:FreeRTOS/tasks.c **** 		}																								\
 337:FreeRTOS/tasks.c **** 	}
 338:FreeRTOS/tasks.c **** 
 339:FreeRTOS/tasks.c **** #endif /* configUSE_PORT_OPTIMISED_TASK_SELECTION */
 340:FreeRTOS/tasks.c **** 
 341:FreeRTOS/tasks.c **** /*-----------------------------------------------------------*/
 342:FreeRTOS/tasks.c **** 
 343:FreeRTOS/tasks.c **** /* pxDelayedTaskList and pxOverflowDelayedTaskList are switched when the tick
 344:FreeRTOS/tasks.c **** count overflows. */
 345:FreeRTOS/tasks.c **** #define taskSWITCH_DELAYED_LISTS()																	\
 346:FreeRTOS/tasks.c **** {																									\
 347:FreeRTOS/tasks.c **** 	List_t *pxTemp;																					\
 348:FreeRTOS/tasks.c **** 																									\
 349:FreeRTOS/tasks.c **** 	/* The delayed tasks list should be empty when the lists are switched. */						\
 350:FreeRTOS/tasks.c **** 	configASSERT( ( listLIST_IS_EMPTY( pxDelayedTaskList ) ) );										\
 351:FreeRTOS/tasks.c **** 																									\
 352:FreeRTOS/tasks.c **** 	pxTemp = pxDelayedTaskList;																		\
 353:FreeRTOS/tasks.c **** 	pxDelayedTaskList = pxOverflowDelayedTaskList;													\
 354:FreeRTOS/tasks.c **** 	pxOverflowDelayedTaskList = pxTemp;																\
 355:FreeRTOS/tasks.c **** 	xNumOfOverflows++;																				\
 356:FreeRTOS/tasks.c **** 	prvResetNextTaskUnblockTime();																	\
 357:FreeRTOS/tasks.c **** }
 358:FreeRTOS/tasks.c **** 
 359:FreeRTOS/tasks.c **** /*-----------------------------------------------------------*/
 360:FreeRTOS/tasks.c **** 
ARM GAS  /tmp/ccTV2SzP.s 			page 11


 361:FreeRTOS/tasks.c **** /*
 362:FreeRTOS/tasks.c ****  * Place the task represented by pxTCB into the appropriate ready list for
 363:FreeRTOS/tasks.c ****  * the task.  It is inserted at the end of the list.
 364:FreeRTOS/tasks.c ****  */
 365:FreeRTOS/tasks.c **** #define prvAddTaskToReadyList( pxTCB )																\
 366:FreeRTOS/tasks.c **** 	traceMOVED_TASK_TO_READY_STATE( pxTCB )															\
 367:FreeRTOS/tasks.c **** 	taskRECORD_READY_PRIORITY( ( pxTCB )->uxPriority );												\
 368:FreeRTOS/tasks.c **** 	vListInsertEnd( &( pxReadyTasksLists[ ( pxTCB )->uxPriority ] ), &( ( pxTCB )->xGenericListItem ) 
 369:FreeRTOS/tasks.c **** /*-----------------------------------------------------------*/
 370:FreeRTOS/tasks.c **** 
 371:FreeRTOS/tasks.c **** /*
 372:FreeRTOS/tasks.c ****  * Several functions take an TaskHandle_t parameter that can optionally be NULL,
 373:FreeRTOS/tasks.c ****  * where NULL is used to indicate that the handle of the currently executing
 374:FreeRTOS/tasks.c ****  * task should be used in place of the parameter.  This macro simply checks to
 375:FreeRTOS/tasks.c ****  * see if the parameter is NULL and returns a pointer to the appropriate TCB.
 376:FreeRTOS/tasks.c ****  */
 377:FreeRTOS/tasks.c **** #define prvGetTCBFromHandle( pxHandle ) ( ( ( pxHandle ) == NULL ) ? ( TCB_t * ) pxCurrentTCB : ( T
 378:FreeRTOS/tasks.c **** 
 379:FreeRTOS/tasks.c **** /* The item value of the event list item is normally used to hold the priority
 380:FreeRTOS/tasks.c **** of the task to which it belongs (coded to allow it to be held in reverse
 381:FreeRTOS/tasks.c **** priority order).  However, it is occasionally borrowed for other purposes.  It
 382:FreeRTOS/tasks.c **** is important its value is not updated due to a task priority change while it is
 383:FreeRTOS/tasks.c **** being used for another purpose.  The following bit definition is used to inform
 384:FreeRTOS/tasks.c **** the scheduler that the value should not be changed - in which case it is the
 385:FreeRTOS/tasks.c **** responsibility of whichever module is using the value to ensure it gets set back
 386:FreeRTOS/tasks.c **** to its original value when it is released. */
 387:FreeRTOS/tasks.c **** #if configUSE_16_BIT_TICKS == 1
 388:FreeRTOS/tasks.c **** 	#define taskEVENT_LIST_ITEM_VALUE_IN_USE	0x8000U
 389:FreeRTOS/tasks.c **** #else
 390:FreeRTOS/tasks.c **** 	#define taskEVENT_LIST_ITEM_VALUE_IN_USE	0x80000000UL
 391:FreeRTOS/tasks.c **** #endif
 392:FreeRTOS/tasks.c **** 
 393:FreeRTOS/tasks.c **** /* Callback function prototypes. --------------------------*/
 394:FreeRTOS/tasks.c **** #if configCHECK_FOR_STACK_OVERFLOW > 0
 395:FreeRTOS/tasks.c **** 	extern void vApplicationStackOverflowHook( TaskHandle_t xTask, char *pcTaskName );
 396:FreeRTOS/tasks.c **** #endif
 397:FreeRTOS/tasks.c **** 
 398:FreeRTOS/tasks.c **** #if configUSE_TICK_HOOK > 0
 399:FreeRTOS/tasks.c **** 	extern void vApplicationTickHook( void );
 400:FreeRTOS/tasks.c **** #endif
 401:FreeRTOS/tasks.c **** 
 402:FreeRTOS/tasks.c **** /* File private functions. --------------------------------*/
 403:FreeRTOS/tasks.c **** 
 404:FreeRTOS/tasks.c **** /*
 405:FreeRTOS/tasks.c ****  * Utility to ready a TCB for a given task.  Mainly just copies the parameters
 406:FreeRTOS/tasks.c ****  * into the TCB structure.
 407:FreeRTOS/tasks.c ****  */
 408:FreeRTOS/tasks.c **** static void prvInitialiseTCBVariables( TCB_t * const pxTCB, const char * const pcName, UBaseT_t uxP
 409:FreeRTOS/tasks.c **** 
 410:FreeRTOS/tasks.c **** /**
 411:FreeRTOS/tasks.c ****  * Utility task that simply returns pdTRUE if the task referenced by xTask is
 412:FreeRTOS/tasks.c ****  * currently in the Suspended state, or pdFALSE if the task referenced by xTask
 413:FreeRTOS/tasks.c ****  * is in any other state.
 414:FreeRTOS/tasks.c ****  */
 415:FreeRTOS/tasks.c **** static BaseT_t prvTaskIsTaskSuspended( const TaskHandle_t xTask ) PRIVILEGED_FUNCTION;
 416:FreeRTOS/tasks.c **** 
 417:FreeRTOS/tasks.c **** /*
ARM GAS  /tmp/ccTV2SzP.s 			page 12


 418:FreeRTOS/tasks.c ****  * Utility to ready all the lists used by the scheduler.  This is called
 419:FreeRTOS/tasks.c ****  * automatically upon the creation of the first task.
 420:FreeRTOS/tasks.c ****  */
 421:FreeRTOS/tasks.c **** static void prvInitialiseTaskLists( void ) PRIVILEGED_FUNCTION;
 422:FreeRTOS/tasks.c **** 
 423:FreeRTOS/tasks.c **** /*
 424:FreeRTOS/tasks.c ****  * The idle task, which as all tasks is implemented as a never ending loop.
 425:FreeRTOS/tasks.c ****  * The idle task is automatically created and added to the ready lists upon
 426:FreeRTOS/tasks.c ****  * creation of the first user task.
 427:FreeRTOS/tasks.c ****  *
 428:FreeRTOS/tasks.c ****  * The portTASK_FUNCTION_PROTO() macro is used to allow port/compiler specific
 429:FreeRTOS/tasks.c ****  * language extensions.  The equivalent prototype for this function is:
 430:FreeRTOS/tasks.c ****  *
 431:FreeRTOS/tasks.c ****  * void prvIdleTask( void *pvParameters );
 432:FreeRTOS/tasks.c ****  *
 433:FreeRTOS/tasks.c ****  */
 434:FreeRTOS/tasks.c **** static portTASK_FUNCTION_PROTO( prvIdleTask, pvParameters );
 435:FreeRTOS/tasks.c **** 
 436:FreeRTOS/tasks.c **** /*
 437:FreeRTOS/tasks.c ****  * Utility to free all memory allocated by the scheduler to hold a TCB,
 438:FreeRTOS/tasks.c ****  * including the stack pointed to by the TCB.
 439:FreeRTOS/tasks.c ****  *
 440:FreeRTOS/tasks.c ****  * This does not free memory allocated by the task itself (i.e. memory
 441:FreeRTOS/tasks.c ****  * allocated by calls to pvPortMalloc from within the tasks application code).
 442:FreeRTOS/tasks.c ****  */
 443:FreeRTOS/tasks.c **** #if ( INCLUDE_vTaskDelete == 1 )
 444:FreeRTOS/tasks.c **** 
 445:FreeRTOS/tasks.c **** 	static void prvDeleteTCB( TCB_t *pxTCB ) PRIVILEGED_FUNCTION;
 446:FreeRTOS/tasks.c **** 
 447:FreeRTOS/tasks.c **** #endif
 448:FreeRTOS/tasks.c **** 
 449:FreeRTOS/tasks.c **** /*
 450:FreeRTOS/tasks.c ****  * Used only by the idle task.  This checks to see if anything has been placed
 451:FreeRTOS/tasks.c ****  * in the list of tasks waiting to be deleted.  If so the task is cleaned up
 452:FreeRTOS/tasks.c ****  * and its TCB deleted.
 453:FreeRTOS/tasks.c ****  */
 454:FreeRTOS/tasks.c **** static void prvCheckTasksWaitingTermination( void ) PRIVILEGED_FUNCTION;
 455:FreeRTOS/tasks.c **** 
 456:FreeRTOS/tasks.c **** /*
 457:FreeRTOS/tasks.c ****  * The currently executing task is entering the Blocked state.  Add the task to
 458:FreeRTOS/tasks.c ****  * either the current or the overflow delayed task list.
 459:FreeRTOS/tasks.c ****  */
 460:FreeRTOS/tasks.c **** static void prvAddCurrentTaskToDelayedList( const TickT_t xTimeToWake ) PRIVILEGED_FUNCTION;
 461:FreeRTOS/tasks.c **** 
 462:FreeRTOS/tasks.c **** /*
 463:FreeRTOS/tasks.c ****  * Allocates memory from the heap for a TCB and associated stack.  Checks the
 464:FreeRTOS/tasks.c ****  * allocation was successful.
 465:FreeRTOS/tasks.c ****  */
 466:FreeRTOS/tasks.c **** static TCB_t *prvAllocateTCBAndStack( const uint16_t usStackDepth, StackT_t * const puxStackBuffer 
 467:FreeRTOS/tasks.c **** 
 468:FreeRTOS/tasks.c **** /*
 469:FreeRTOS/tasks.c ****  * Fills an TaskStatus_t structure with information on each task that is
 470:FreeRTOS/tasks.c ****  * referenced from the pxList list (which may be a ready list, a delayed list,
 471:FreeRTOS/tasks.c ****  * a suspended list, etc.).
 472:FreeRTOS/tasks.c ****  *
 473:FreeRTOS/tasks.c ****  * THIS FUNCTION IS INTENDED FOR DEBUGGING ONLY, AND SHOULD NOT BE CALLED FROM
 474:FreeRTOS/tasks.c ****  * NORMAL APPLICATION CODE.
ARM GAS  /tmp/ccTV2SzP.s 			page 13


 475:FreeRTOS/tasks.c ****  */
 476:FreeRTOS/tasks.c **** #if ( configUSE_TRACE_FACILITY == 1 )
 477:FreeRTOS/tasks.c **** 
 478:FreeRTOS/tasks.c **** 	static UBaseT_t prvListTaskWithinSingleList( TaskStatus_t *pxTaskStatusArray, List_t *pxList, eTas
 479:FreeRTOS/tasks.c **** 
 480:FreeRTOS/tasks.c **** #endif
 481:FreeRTOS/tasks.c **** 
 482:FreeRTOS/tasks.c **** /*
 483:FreeRTOS/tasks.c ****  * When a task is created, the stack of the task is filled with a known value.
 484:FreeRTOS/tasks.c ****  * This function determines the 'high water mark' of the task stack by
 485:FreeRTOS/tasks.c ****  * determining how much of the stack remains at the original preset value.
 486:FreeRTOS/tasks.c ****  */
 487:FreeRTOS/tasks.c **** #if ( ( configUSE_TRACE_FACILITY == 1 ) || ( INCLUDE_uxTaskGetStackHighWaterMark == 1 ) )
 488:FreeRTOS/tasks.c **** 
 489:FreeRTOS/tasks.c **** 	static uint16_t prvTaskCheckFreeStackSpace( const uint8_t * pucStackByte ) PRIVILEGED_FUNCTION;
 490:FreeRTOS/tasks.c **** 
 491:FreeRTOS/tasks.c **** #endif
 492:FreeRTOS/tasks.c **** 
 493:FreeRTOS/tasks.c **** /*
 494:FreeRTOS/tasks.c ****  * Return the amount of time, in ticks, that will pass before the kernel will
 495:FreeRTOS/tasks.c ****  * next move a task from the Blocked state to the Running state.
 496:FreeRTOS/tasks.c ****  *
 497:FreeRTOS/tasks.c ****  * This conditional compilation should use inequality to 0, not equality to 1.
 498:FreeRTOS/tasks.c ****  * This is to ensure portSUPPRESS_TICKS_AND_SLEEP() can be called when user
 499:FreeRTOS/tasks.c ****  * defined low power mode implementations require configUSE_TICKLESS_IDLE to be
 500:FreeRTOS/tasks.c ****  * set to a value other than 1.
 501:FreeRTOS/tasks.c ****  */
 502:FreeRTOS/tasks.c **** #if ( configUSE_TICKLESS_IDLE != 0 )
 503:FreeRTOS/tasks.c **** 
 504:FreeRTOS/tasks.c **** 	static TickT_t prvGetExpectedIdleTime( void ) PRIVILEGED_FUNCTION;
 505:FreeRTOS/tasks.c **** 
 506:FreeRTOS/tasks.c **** #endif
 507:FreeRTOS/tasks.c **** 
 508:FreeRTOS/tasks.c **** /*
 509:FreeRTOS/tasks.c ****  * Set xNextTaskUnblockTime to the time at which the next Blocked state task
 510:FreeRTOS/tasks.c ****  * will exit the Blocked state.
 511:FreeRTOS/tasks.c ****  */
 512:FreeRTOS/tasks.c **** static void prvResetNextTaskUnblockTime( void );
 513:FreeRTOS/tasks.c **** 
 514:FreeRTOS/tasks.c **** /*-----------------------------------------------------------*/
 515:FreeRTOS/tasks.c **** 
 516:FreeRTOS/tasks.c **** BaseT_t xTaskGenericCreate( TaskFunction_t pxTaskCode, const char * const pcName, const uint16_t us
 517:FreeRTOS/tasks.c **** {
 187              		.loc 1 517 0
 188              		.cfi_startproc
 189              		@ args = 16, pretend = 0, frame = 32
 190              		@ frame_needed = 1, uses_anonymous_args = 0
 191 0000 80B5     		push	{r7, lr}	@
 192              		.cfi_def_cfa_offset 8
 193              		.cfi_offset 7, -8
 194              		.cfi_offset 14, -4
 195 0002 8AB0     		sub	sp, sp, #40	@,,
 196              		.cfi_def_cfa_offset 48
 197 0004 02AF     		add	r7, sp, #8	@,,
 198              		.cfi_def_cfa 7, 40
 199 0006 F860     		str	r0, [r7, #12]	@ pxTaskCode, pxTaskCode
 200 0008 B960     		str	r1, [r7, #8]	@ pcName, pcName
ARM GAS  /tmp/ccTV2SzP.s 			page 14


 201 000a 3B60     		str	r3, [r7]	@ pvParameters, pvParameters
 202 000c 1346     		mov	r3, r2	@ movhi	@ tmp142, tmp141
 203 000e FB80     		strh	r3, [r7, #6]	@ movhi	@ tmp142, usStackDepth
 204              	@ FreeRTOS/tasks.c:521: 	configASSERT( pxTaskCode );
 518:FreeRTOS/tasks.c **** BaseT_t xReturn;
 519:FreeRTOS/tasks.c **** TCB_t * pxNewTCB;
 520:FreeRTOS/tasks.c **** 
 521:FreeRTOS/tasks.c **** 	configASSERT( pxTaskCode );
 205              		.loc 1 521 0
 206 0010 FB68     		ldr	r3, [r7, #12]	@ tmp143, pxTaskCode
 207 0012 002B     		cmp	r3, #0	@ tmp143,
 208 0014 02D1     		bne	.L2	@,
 209              	@ FreeRTOS/tasks.c:521: 	configASSERT( pxTaskCode );
 210              		.loc 1 521 0 is_stmt 0 discriminator 1
 211 0016 FFF7FEFF 		bl	ulPortSetInterruptMask	@
 212              	.L3:
 213 001a FEE7     		b	.L3	@
 214              	.L2:
 215              	@ FreeRTOS/tasks.c:522: 	configASSERT( ( ( uxPriority & ( ~portPRIVILEGE_BIT ) ) < configMAX_PRIORI
 522:FreeRTOS/tasks.c **** 	configASSERT( ( ( uxPriority & ( ~portPRIVILEGE_BIT ) ) < configMAX_PRIORITIES ) );
 216              		.loc 1 522 0 is_stmt 1
 217 001c BB6A     		ldr	r3, [r7, #40]	@ tmp144, uxPriority
 218 001e 072B     		cmp	r3, #7	@ tmp144,
 219 0020 02D9     		bls	.L4	@,
 220              	@ FreeRTOS/tasks.c:522: 	configASSERT( ( ( uxPriority & ( ~portPRIVILEGE_BIT ) ) < configMAX_PRIORI
 221              		.loc 1 522 0 is_stmt 0 discriminator 1
 222 0022 FFF7FEFF 		bl	ulPortSetInterruptMask	@
 223              	.L5:
 224              	@ FreeRTOS/tasks.c:522: 	configASSERT( ( ( uxPriority & ( ~portPRIVILEGE_BIT ) ) < configMAX_PRIORI
 225              		.loc 1 522 0 discriminator 2
 226 0026 FEE7     		b	.L5	@
 227              	.L4:
 228              	@ FreeRTOS/tasks.c:526: 	pxNewTCB = prvAllocateTCBAndStack( usStackDepth, puxStackBuffer );
 523:FreeRTOS/tasks.c **** 
 524:FreeRTOS/tasks.c **** 	/* Allocate the memory required by the TCB and stack for the new task,
 525:FreeRTOS/tasks.c **** 	checking that the allocation was successful. */
 526:FreeRTOS/tasks.c **** 	pxNewTCB = prvAllocateTCBAndStack( usStackDepth, puxStackBuffer );
 229              		.loc 1 526 0 is_stmt 1
 230 0028 FB88     		ldrh	r3, [r7, #6]	@ tmp145, usStackDepth
 231 002a 396B     		ldr	r1, [r7, #48]	@, puxStackBuffer
 232 002c 1846     		mov	r0, r3	@, tmp145
 233 002e FFF7FEFF 		bl	prvAllocateTCBAndStack	@
 234 0032 B861     		str	r0, [r7, #24]	@, pxNewTCB
 235              	@ FreeRTOS/tasks.c:528: 	if( pxNewTCB != NULL )
 527:FreeRTOS/tasks.c **** 
 528:FreeRTOS/tasks.c **** 	if( pxNewTCB != NULL )
 236              		.loc 1 528 0
 237 0034 BB69     		ldr	r3, [r7, #24]	@ tmp146, pxNewTCB
 238 0036 002B     		cmp	r3, #0	@ tmp146,
 239 0038 71D0     		beq	.L6	@,
 240              	.LBB6:
 241              	@ FreeRTOS/tasks.c:552: 			pxTopOfStack = pxNewTCB->pxStack + ( usStackDepth - ( uint16_t ) 1 );
 529:FreeRTOS/tasks.c **** 	{
 530:FreeRTOS/tasks.c **** 		StackT_t *pxTopOfStack;
 531:FreeRTOS/tasks.c **** 
 532:FreeRTOS/tasks.c **** 		#if( portUSING_MPU_WRAPPERS == 1 )
 533:FreeRTOS/tasks.c **** 			/* Should the task be created in privileged mode? */
ARM GAS  /tmp/ccTV2SzP.s 			page 15


 534:FreeRTOS/tasks.c **** 			BaseT_t xRunPrivileged;
 535:FreeRTOS/tasks.c **** 			if( ( uxPriority & portPRIVILEGE_BIT ) != 0U )
 536:FreeRTOS/tasks.c **** 			{
 537:FreeRTOS/tasks.c **** 				xRunPrivileged = pdTRUE;
 538:FreeRTOS/tasks.c **** 			}
 539:FreeRTOS/tasks.c **** 			else
 540:FreeRTOS/tasks.c **** 			{
 541:FreeRTOS/tasks.c **** 				xRunPrivileged = pdFALSE;
 542:FreeRTOS/tasks.c **** 			}
 543:FreeRTOS/tasks.c **** 			uxPriority &= ~portPRIVILEGE_BIT;
 544:FreeRTOS/tasks.c **** 		#endif /* portUSING_MPU_WRAPPERS == 1 */
 545:FreeRTOS/tasks.c **** 
 546:FreeRTOS/tasks.c **** 		/* Calculate the top of stack address.  This depends on whether the
 547:FreeRTOS/tasks.c **** 		stack grows from high memory to low (as per the 80x86) or vice versa.
 548:FreeRTOS/tasks.c **** 		portSTACK_GROWTH is used to make the result positive or negative as
 549:FreeRTOS/tasks.c **** 		required by the port. */
 550:FreeRTOS/tasks.c **** 		#if( portSTACK_GROWTH < 0 )
 551:FreeRTOS/tasks.c **** 		{
 552:FreeRTOS/tasks.c **** 			pxTopOfStack = pxNewTCB->pxStack + ( usStackDepth - ( uint16_t ) 1 );
 242              		.loc 1 552 0
 243 003a BB69     		ldr	r3, [r7, #24]	@ tmp147, pxNewTCB
 244 003c 1A6B     		ldr	r2, [r3, #48]	@ _1, pxNewTCB_41->pxStack
 245 003e FB88     		ldrh	r3, [r7, #6]	@ _2, usStackDepth
 246 0040 03F18043 		add	r3, r3, #1073741824	@ _3, _2,
 247 0044 013B     		subs	r3, r3, #1	@ _3, _3,
 248 0046 9B00     		lsls	r3, r3, #2	@ _4, _3,
 249 0048 1344     		add	r3, r3, r2	@ tmp148, _1
 250 004a 7B61     		str	r3, [r7, #20]	@ tmp148, pxTopOfStack
 251              	@ FreeRTOS/tasks.c:553: 			pxTopOfStack = ( StackT_t * ) ( ( ( portPOINTER_SIZE_TYPE ) pxTopOfStack
 553:FreeRTOS/tasks.c **** 			pxTopOfStack = ( StackT_t * ) ( ( ( portPOINTER_SIZE_TYPE ) pxTopOfStack ) & ( ( portPOINTER_SIZ
 252              		.loc 1 553 0
 253 004c 7B69     		ldr	r3, [r7, #20]	@ pxTopOfStack.0_5, pxTopOfStack
 254 004e 23F00703 		bic	r3, r3, #7	@ _6, pxTopOfStack.0_5,
 255 0052 7B61     		str	r3, [r7, #20]	@ _6, pxTopOfStack
 256              	@ FreeRTOS/tasks.c:556: 			configASSERT( ( ( ( portPOINTER_SIZE_TYPE ) pxTopOfStack & ( portPOINTER
 554:FreeRTOS/tasks.c **** 
 555:FreeRTOS/tasks.c **** 			/* Check the alignment of the calculated top of stack is correct. */
 556:FreeRTOS/tasks.c **** 			configASSERT( ( ( ( portPOINTER_SIZE_TYPE ) pxTopOfStack & ( portPOINTER_SIZE_TYPE ) portBYTE_AL
 257              		.loc 1 556 0
 258 0054 7B69     		ldr	r3, [r7, #20]	@ pxTopOfStack.1_7, pxTopOfStack
 259 0056 03F00703 		and	r3, r3, #7	@ _8, pxTopOfStack.1_7,
 260 005a 002B     		cmp	r3, #0	@ _8,
 261 005c 02D0     		beq	.L7	@,
 262              	@ FreeRTOS/tasks.c:556: 			configASSERT( ( ( ( portPOINTER_SIZE_TYPE ) pxTopOfStack & ( portPOINTER
 263              		.loc 1 556 0 is_stmt 0 discriminator 1
 264 005e FFF7FEFF 		bl	ulPortSetInterruptMask	@
 265              	.L8:
 266              	@ FreeRTOS/tasks.c:556: 			configASSERT( ( ( ( portPOINTER_SIZE_TYPE ) pxTopOfStack & ( portPOINTER
 267              		.loc 1 556 0 discriminator 3
 268 0062 FEE7     		b	.L8	@
 269              	.L7:
 270              	@ FreeRTOS/tasks.c:573: 		prvInitialiseTCBVariables( pxNewTCB, pcName, uxPriority, xRegions, usStac
 557:FreeRTOS/tasks.c **** 		}
 558:FreeRTOS/tasks.c **** 		#else /* portSTACK_GROWTH */
 559:FreeRTOS/tasks.c **** 		{
 560:FreeRTOS/tasks.c **** 			pxTopOfStack = pxNewTCB->pxStack;
 561:FreeRTOS/tasks.c **** 
ARM GAS  /tmp/ccTV2SzP.s 			page 16


 562:FreeRTOS/tasks.c **** 			/* Check the alignment of the stack buffer is correct. */
 563:FreeRTOS/tasks.c **** 			configASSERT( ( ( ( portPOINTER_SIZE_TYPE ) pxNewTCB->pxStack & ( portPOINTER_SIZE_TYPE ) portBY
 564:FreeRTOS/tasks.c **** 
 565:FreeRTOS/tasks.c **** 			/* If we want to use stack checking on architectures that use
 566:FreeRTOS/tasks.c **** 			a positive stack growth direction then we also need to store the
 567:FreeRTOS/tasks.c **** 			other extreme of the stack space. */
 568:FreeRTOS/tasks.c **** 			pxNewTCB->pxEndOfStack = pxNewTCB->pxStack + ( usStackDepth - 1 );
 569:FreeRTOS/tasks.c **** 		}
 570:FreeRTOS/tasks.c **** 		#endif /* portSTACK_GROWTH */
 571:FreeRTOS/tasks.c **** 
 572:FreeRTOS/tasks.c **** 		/* Setup the newly allocated TCB with the initial state of the task. */
 573:FreeRTOS/tasks.c **** 		prvInitialiseTCBVariables( pxNewTCB, pcName, uxPriority, xRegions, usStackDepth );
 271              		.loc 1 573 0 is_stmt 1
 272 0064 FB88     		ldrh	r3, [r7, #6]	@ tmp149, usStackDepth
 273 0066 0093     		str	r3, [sp]	@ tmp149,
 274 0068 7B6B     		ldr	r3, [r7, #52]	@, xRegions
 275 006a BA6A     		ldr	r2, [r7, #40]	@, uxPriority
 276 006c B968     		ldr	r1, [r7, #8]	@, pcName
 277 006e B869     		ldr	r0, [r7, #24]	@, pxNewTCB
 278 0070 FFF7FEFF 		bl	prvInitialiseTCBVariables	@
 279              	@ FreeRTOS/tasks.c:585: 			pxNewTCB->pxTopOfStack = pxPortInitialiseStack( pxTopOfStack, pxTaskCode
 574:FreeRTOS/tasks.c **** 
 575:FreeRTOS/tasks.c **** 		/* Initialize the TCB stack to look as if the task was already running,
 576:FreeRTOS/tasks.c **** 		but had been interrupted by the scheduler.  The return address is set
 577:FreeRTOS/tasks.c **** 		to the start of the task function. Once the stack has been initialised
 578:FreeRTOS/tasks.c **** 		the	top of stack variable is updated. */
 579:FreeRTOS/tasks.c **** 		#if( portUSING_MPU_WRAPPERS == 1 )
 580:FreeRTOS/tasks.c **** 		{
 581:FreeRTOS/tasks.c **** 			pxNewTCB->pxTopOfStack = pxPortInitialiseStack( pxTopOfStack, pxTaskCode, pvParameters, xRunPriv
 582:FreeRTOS/tasks.c **** 		}
 583:FreeRTOS/tasks.c **** 		#else /* portUSING_MPU_WRAPPERS */
 584:FreeRTOS/tasks.c **** 		{
 585:FreeRTOS/tasks.c **** 			pxNewTCB->pxTopOfStack = pxPortInitialiseStack( pxTopOfStack, pxTaskCode, pvParameters );
 280              		.loc 1 585 0
 281 0074 3A68     		ldr	r2, [r7]	@, pvParameters
 282 0076 F968     		ldr	r1, [r7, #12]	@, pxTaskCode
 283 0078 7869     		ldr	r0, [r7, #20]	@, pxTopOfStack
 284 007a FFF7FEFF 		bl	pxPortInitialiseStack	@
 285 007e 0246     		mov	r2, r0	@ _9,
 286 0080 BB69     		ldr	r3, [r7, #24]	@ tmp150, pxNewTCB
 287 0082 1A60     		str	r2, [r3]	@ _9, pxNewTCB_41->pxTopOfStack
 288              	@ FreeRTOS/tasks.c:589: 		if( ( void * ) pxCreatedTask != NULL )
 586:FreeRTOS/tasks.c **** 		}
 587:FreeRTOS/tasks.c **** 		#endif /* portUSING_MPU_WRAPPERS */
 588:FreeRTOS/tasks.c **** 
 589:FreeRTOS/tasks.c **** 		if( ( void * ) pxCreatedTask != NULL )
 289              		.loc 1 589 0
 290 0084 FB6A     		ldr	r3, [r7, #44]	@ tmp151, pxCreatedTask
 291 0086 002B     		cmp	r3, #0	@ tmp151,
 292 0088 02D0     		beq	.L9	@,
 293              	@ FreeRTOS/tasks.c:594: 			*pxCreatedTask = ( TaskHandle_t ) pxNewTCB;
 590:FreeRTOS/tasks.c **** 		{
 591:FreeRTOS/tasks.c **** 			/* Pass the TCB out - in an anonymous way.  The calling function/
 592:FreeRTOS/tasks.c **** 			task can use this as a handle to delete the task later if
 593:FreeRTOS/tasks.c **** 			required.*/
 594:FreeRTOS/tasks.c **** 			*pxCreatedTask = ( TaskHandle_t ) pxNewTCB;
 294              		.loc 1 594 0
ARM GAS  /tmp/ccTV2SzP.s 			page 17


 295 008a FB6A     		ldr	r3, [r7, #44]	@ tmp152, pxCreatedTask
 296 008c BA69     		ldr	r2, [r7, #24]	@ tmp153, pxNewTCB
 297 008e 1A60     		str	r2, [r3]	@ tmp153, *pxCreatedTask_51(D)
 298              	.L9:
 299              	@ FreeRTOS/tasks.c:603: 		taskENTER_CRITICAL();
 595:FreeRTOS/tasks.c **** 		}
 596:FreeRTOS/tasks.c **** 		else
 597:FreeRTOS/tasks.c **** 		{
 598:FreeRTOS/tasks.c **** 			mtCOVERAGE_TEST_MARKER();
 599:FreeRTOS/tasks.c **** 		}
 600:FreeRTOS/tasks.c **** 
 601:FreeRTOS/tasks.c **** 		/* Ensure interrupts don't access the task lists while they are being
 602:FreeRTOS/tasks.c **** 		updated. */
 603:FreeRTOS/tasks.c **** 		taskENTER_CRITICAL();
 300              		.loc 1 603 0
 301 0090 FFF7FEFF 		bl	vPortEnterCritical	@
 302              	@ FreeRTOS/tasks.c:605: 			uxCurrentNumberOfTasks++;
 604:FreeRTOS/tasks.c **** 		{
 605:FreeRTOS/tasks.c **** 			uxCurrentNumberOfTasks++;
 303              		.loc 1 605 0
 304 0094 2D4B     		ldr	r3, .L15	@ tmp154,
 305 0096 1B68     		ldr	r3, [r3]	@ uxCurrentNumberOfTasks.2_10, uxCurrentNumberOfTasks
 306 0098 0133     		adds	r3, r3, #1	@ _11, uxCurrentNumberOfTasks.2_10,
 307 009a 2C4A     		ldr	r2, .L15	@ tmp155,
 308 009c 1360     		str	r3, [r2]	@ _11, uxCurrentNumberOfTasks
 309              	@ FreeRTOS/tasks.c:606: 			if( pxCurrentTCB == NULL )
 606:FreeRTOS/tasks.c **** 			if( pxCurrentTCB == NULL )
 310              		.loc 1 606 0
 311 009e 2C4B     		ldr	r3, .L15+4	@ tmp156,
 312 00a0 1B68     		ldr	r3, [r3]	@ pxCurrentTCB.3_12, pxCurrentTCB
 313 00a2 002B     		cmp	r3, #0	@ pxCurrentTCB.3_12,
 314 00a4 09D1     		bne	.L10	@,
 315              	@ FreeRTOS/tasks.c:610: 				pxCurrentTCB =  pxNewTCB;
 607:FreeRTOS/tasks.c **** 			{
 608:FreeRTOS/tasks.c **** 				/* There are no other tasks, or all the other tasks are in
 609:FreeRTOS/tasks.c **** 				the suspended state - make this the current task. */
 610:FreeRTOS/tasks.c **** 				pxCurrentTCB =  pxNewTCB;
 316              		.loc 1 610 0
 317 00a6 2A4A     		ldr	r2, .L15+4	@ tmp157,
 318 00a8 BB69     		ldr	r3, [r7, #24]	@ tmp158, pxNewTCB
 319 00aa 1360     		str	r3, [r2]	@ tmp158, pxCurrentTCB
 320              	@ FreeRTOS/tasks.c:612: 				if( uxCurrentNumberOfTasks == ( UBaseT_t ) 1 )
 611:FreeRTOS/tasks.c **** 
 612:FreeRTOS/tasks.c **** 				if( uxCurrentNumberOfTasks == ( UBaseT_t ) 1 )
 321              		.loc 1 612 0
 322 00ac 274B     		ldr	r3, .L15	@ tmp159,
 323 00ae 1B68     		ldr	r3, [r3]	@ uxCurrentNumberOfTasks.4_13, uxCurrentNumberOfTasks
 324 00b0 012B     		cmp	r3, #1	@ uxCurrentNumberOfTasks.4_13,
 325 00b2 0FD1     		bne	.L11	@,
 326              	@ FreeRTOS/tasks.c:617: 					prvInitialiseTaskLists();
 613:FreeRTOS/tasks.c **** 				{
 614:FreeRTOS/tasks.c **** 					/* This is the first task to be created so do the preliminary
 615:FreeRTOS/tasks.c **** 					initialisation required.  We will not recover if this call
 616:FreeRTOS/tasks.c **** 					fails, but we will report the failure. */
 617:FreeRTOS/tasks.c **** 					prvInitialiseTaskLists();
 327              		.loc 1 617 0
 328 00b4 FFF7FEFF 		bl	prvInitialiseTaskLists	@
ARM GAS  /tmp/ccTV2SzP.s 			page 18


 329 00b8 0CE0     		b	.L11	@
 330              	.L10:
 331              	@ FreeRTOS/tasks.c:629: 				if( xSchedulerRunning == pdFALSE )
 618:FreeRTOS/tasks.c **** 				}
 619:FreeRTOS/tasks.c **** 				else
 620:FreeRTOS/tasks.c **** 				{
 621:FreeRTOS/tasks.c **** 					mtCOVERAGE_TEST_MARKER();
 622:FreeRTOS/tasks.c **** 				}
 623:FreeRTOS/tasks.c **** 			}
 624:FreeRTOS/tasks.c **** 			else
 625:FreeRTOS/tasks.c **** 			{
 626:FreeRTOS/tasks.c **** 				/* If the scheduler is not already running, make this task the
 627:FreeRTOS/tasks.c **** 				current task if it is the highest priority task to be created
 628:FreeRTOS/tasks.c **** 				so far. */
 629:FreeRTOS/tasks.c **** 				if( xSchedulerRunning == pdFALSE )
 332              		.loc 1 629 0
 333 00ba 264B     		ldr	r3, .L15+8	@ tmp160,
 334 00bc 1B68     		ldr	r3, [r3]	@ xSchedulerRunning.5_14, xSchedulerRunning
 335 00be 002B     		cmp	r3, #0	@ xSchedulerRunning.5_14,
 336 00c0 08D1     		bne	.L11	@,
 337              	@ FreeRTOS/tasks.c:631: 					if( pxCurrentTCB->uxPriority <= uxPriority )
 630:FreeRTOS/tasks.c **** 				{
 631:FreeRTOS/tasks.c **** 					if( pxCurrentTCB->uxPriority <= uxPriority )
 338              		.loc 1 631 0
 339 00c2 234B     		ldr	r3, .L15+4	@ tmp161,
 340 00c4 1B68     		ldr	r3, [r3]	@ pxCurrentTCB.6_15, pxCurrentTCB
 341 00c6 DB6A     		ldr	r3, [r3, #44]	@ _16, pxCurrentTCB.6_15->uxPriority
 342 00c8 BA6A     		ldr	r2, [r7, #40]	@ tmp162, uxPriority
 343 00ca 9A42     		cmp	r2, r3	@ tmp162, _16
 344 00cc 02D3     		bcc	.L11	@,
 345              	@ FreeRTOS/tasks.c:633: 						pxCurrentTCB = pxNewTCB;
 632:FreeRTOS/tasks.c **** 					{
 633:FreeRTOS/tasks.c **** 						pxCurrentTCB = pxNewTCB;
 346              		.loc 1 633 0
 347 00ce 204A     		ldr	r2, .L15+4	@ tmp163,
 348 00d0 BB69     		ldr	r3, [r7, #24]	@ tmp164, pxNewTCB
 349 00d2 1360     		str	r3, [r2]	@ tmp164, pxCurrentTCB
 350              	.L11:
 351              	@ FreeRTOS/tasks.c:646: 			uxTaskNumber++;
 634:FreeRTOS/tasks.c **** 					}
 635:FreeRTOS/tasks.c **** 					else
 636:FreeRTOS/tasks.c **** 					{
 637:FreeRTOS/tasks.c **** 						mtCOVERAGE_TEST_MARKER();
 638:FreeRTOS/tasks.c **** 					}
 639:FreeRTOS/tasks.c **** 				}
 640:FreeRTOS/tasks.c **** 				else
 641:FreeRTOS/tasks.c **** 				{
 642:FreeRTOS/tasks.c **** 					mtCOVERAGE_TEST_MARKER();
 643:FreeRTOS/tasks.c **** 				}
 644:FreeRTOS/tasks.c **** 			}
 645:FreeRTOS/tasks.c **** 
 646:FreeRTOS/tasks.c **** 			uxTaskNumber++;
 352              		.loc 1 646 0
 353 00d4 204B     		ldr	r3, .L15+12	@ tmp165,
 354 00d6 1B68     		ldr	r3, [r3]	@ uxTaskNumber.7_17, uxTaskNumber
 355 00d8 0133     		adds	r3, r3, #1	@ _18, uxTaskNumber.7_17,
 356 00da 1F4A     		ldr	r2, .L15+12	@ tmp166,
ARM GAS  /tmp/ccTV2SzP.s 			page 19


 357 00dc 1360     		str	r3, [r2]	@ _18, uxTaskNumber
 358              	@ FreeRTOS/tasks.c:651: 				pxNewTCB->uxTCBNumber = uxTaskNumber;
 647:FreeRTOS/tasks.c **** 
 648:FreeRTOS/tasks.c **** 			#if ( configUSE_TRACE_FACILITY == 1 )
 649:FreeRTOS/tasks.c **** 			{
 650:FreeRTOS/tasks.c **** 				/* Add a counter into the TCB for tracing only. */
 651:FreeRTOS/tasks.c **** 				pxNewTCB->uxTCBNumber = uxTaskNumber;
 359              		.loc 1 651 0
 360 00de 1E4B     		ldr	r3, .L15+12	@ tmp167,
 361 00e0 1A68     		ldr	r2, [r3]	@ uxTaskNumber.8_19, uxTaskNumber
 362 00e2 BB69     		ldr	r3, [r7, #24]	@ tmp168, pxNewTCB
 363 00e4 1A64     		str	r2, [r3, #64]	@ uxTaskNumber.8_19, pxNewTCB_41->uxTCBNumber
 364              	@ FreeRTOS/tasks.c:656: 			prvAddTaskToReadyList( pxNewTCB );
 652:FreeRTOS/tasks.c **** 			}
 653:FreeRTOS/tasks.c **** 			#endif /* configUSE_TRACE_FACILITY */
 654:FreeRTOS/tasks.c **** 			traceTASK_CREATE( pxNewTCB );
 655:FreeRTOS/tasks.c **** 
 656:FreeRTOS/tasks.c **** 			prvAddTaskToReadyList( pxNewTCB );
 365              		.loc 1 656 0
 366 00e6 BB69     		ldr	r3, [r7, #24]	@ tmp169, pxNewTCB
 367 00e8 DB6A     		ldr	r3, [r3, #44]	@ _20, pxNewTCB_41->uxPriority
 368 00ea 0122     		movs	r2, #1	@ tmp170,
 369 00ec 9A40     		lsls	r2, r2, r3	@ _21, tmp170, _20
 370 00ee 1B4B     		ldr	r3, .L15+16	@ tmp171,
 371 00f0 1B68     		ldr	r3, [r3]	@ uxTopReadyPriority.9_22, uxTopReadyPriority
 372 00f2 1343     		orrs	r3, r3, r2	@, _23, uxTopReadyPriority.9_22, _21
 373 00f4 194A     		ldr	r2, .L15+16	@ tmp172,
 374 00f6 1360     		str	r3, [r2]	@ _23, uxTopReadyPriority
 375 00f8 BB69     		ldr	r3, [r7, #24]	@ tmp173, pxNewTCB
 376 00fa DA6A     		ldr	r2, [r3, #44]	@ _24, pxNewTCB_41->uxPriority
 377 00fc 1346     		mov	r3, r2	@ tmp174, _24
 378 00fe 9B00     		lsls	r3, r3, #2	@ tmp174, tmp174,
 379 0100 1344     		add	r3, r3, r2	@ tmp174, _24
 380 0102 9B00     		lsls	r3, r3, #2	@ tmp175, tmp174,
 381 0104 164A     		ldr	r2, .L15+20	@ tmp176,
 382 0106 1A44     		add	r2, r2, r3	@ _25, tmp174
 383 0108 BB69     		ldr	r3, [r7, #24]	@ tmp177, pxNewTCB
 384 010a 0433     		adds	r3, r3, #4	@ _26, tmp177,
 385 010c 1946     		mov	r1, r3	@, _26
 386 010e 1046     		mov	r0, r2	@, _25
 387 0110 FFF7FEFF 		bl	vListInsertEnd	@
 388              	@ FreeRTOS/tasks.c:658: 			xReturn = pdPASS;
 657:FreeRTOS/tasks.c **** 
 658:FreeRTOS/tasks.c **** 			xReturn = pdPASS;
 389              		.loc 1 658 0
 390 0114 0123     		movs	r3, #1	@ tmp178,
 391 0116 FB61     		str	r3, [r7, #28]	@ tmp178, xReturn
 392              	@ FreeRTOS/tasks.c:661: 		taskEXIT_CRITICAL();
 659:FreeRTOS/tasks.c **** 			portSETUP_TCB( pxNewTCB );
 660:FreeRTOS/tasks.c **** 		}
 661:FreeRTOS/tasks.c **** 		taskEXIT_CRITICAL();
 393              		.loc 1 661 0
 394 0118 FFF7FEFF 		bl	vPortExitCritical	@
 395              	.LBE6:
 396 011c 02E0     		b	.L12	@
 397              	.L6:
 398              	@ FreeRTOS/tasks.c:665: 		xReturn = errCOULD_NOT_ALLOCATE_REQUIRED_MEMORY;
ARM GAS  /tmp/ccTV2SzP.s 			page 20


 662:FreeRTOS/tasks.c **** 	}
 663:FreeRTOS/tasks.c **** 	else
 664:FreeRTOS/tasks.c **** 	{
 665:FreeRTOS/tasks.c **** 		xReturn = errCOULD_NOT_ALLOCATE_REQUIRED_MEMORY;
 399              		.loc 1 665 0
 400 011e 4FF0FF33 		mov	r3, #-1	@ tmp179,
 401 0122 FB61     		str	r3, [r7, #28]	@ tmp179, xReturn
 402              	.L12:
 403              	@ FreeRTOS/tasks.c:669: 	if( xReturn == pdPASS )
 666:FreeRTOS/tasks.c **** 		traceTASK_CREATE_FAILED();
 667:FreeRTOS/tasks.c **** 	}
 668:FreeRTOS/tasks.c **** 
 669:FreeRTOS/tasks.c **** 	if( xReturn == pdPASS )
 404              		.loc 1 669 0
 405 0124 FB69     		ldr	r3, [r7, #28]	@ tmp180, xReturn
 406 0126 012B     		cmp	r3, #1	@ tmp180,
 407 0128 0BD1     		bne	.L13	@,
 408              	@ FreeRTOS/tasks.c:671: 		if( xSchedulerRunning != pdFALSE )
 670:FreeRTOS/tasks.c **** 	{
 671:FreeRTOS/tasks.c **** 		if( xSchedulerRunning != pdFALSE )
 409              		.loc 1 671 0
 410 012a 0A4B     		ldr	r3, .L15+8	@ tmp181,
 411 012c 1B68     		ldr	r3, [r3]	@ xSchedulerRunning.10_27, xSchedulerRunning
 412 012e 002B     		cmp	r3, #0	@ xSchedulerRunning.10_27,
 413 0130 07D0     		beq	.L13	@,
 414              	@ FreeRTOS/tasks.c:675: 			if( pxCurrentTCB->uxPriority < uxPriority )
 672:FreeRTOS/tasks.c **** 		{
 673:FreeRTOS/tasks.c **** 			/* If the created task is of a higher priority than the current task
 674:FreeRTOS/tasks.c **** 			then it should run now. */
 675:FreeRTOS/tasks.c **** 			if( pxCurrentTCB->uxPriority < uxPriority )
 415              		.loc 1 675 0
 416 0132 074B     		ldr	r3, .L15+4	@ tmp182,
 417 0134 1B68     		ldr	r3, [r3]	@ pxCurrentTCB.11_28, pxCurrentTCB
 418 0136 DB6A     		ldr	r3, [r3, #44]	@ _29, pxCurrentTCB.11_28->uxPriority
 419 0138 BA6A     		ldr	r2, [r7, #40]	@ tmp183, uxPriority
 420 013a 9A42     		cmp	r2, r3	@ tmp183, _29
 421 013c 01D9     		bls	.L13	@,
 422              	@ FreeRTOS/tasks.c:677: 				taskYIELD_IF_USING_PREEMPTION();
 676:FreeRTOS/tasks.c **** 			{
 677:FreeRTOS/tasks.c **** 				taskYIELD_IF_USING_PREEMPTION();
 423              		.loc 1 677 0
 424 013e FFF7FEFF 		bl	vPortYield	@
 425              	.L13:
 426              	@ FreeRTOS/tasks.c:690: 	return xReturn;
 678:FreeRTOS/tasks.c **** 			}
 679:FreeRTOS/tasks.c **** 			else
 680:FreeRTOS/tasks.c **** 			{
 681:FreeRTOS/tasks.c **** 				mtCOVERAGE_TEST_MARKER();
 682:FreeRTOS/tasks.c **** 			}
 683:FreeRTOS/tasks.c **** 		}
 684:FreeRTOS/tasks.c **** 		else
 685:FreeRTOS/tasks.c **** 		{
 686:FreeRTOS/tasks.c **** 			mtCOVERAGE_TEST_MARKER();
 687:FreeRTOS/tasks.c **** 		}
 688:FreeRTOS/tasks.c **** 	}
 689:FreeRTOS/tasks.c **** 
 690:FreeRTOS/tasks.c **** 	return xReturn;
ARM GAS  /tmp/ccTV2SzP.s 			page 21


 427              		.loc 1 690 0
 428 0142 FB69     		ldr	r3, [r7, #28]	@ _66, xReturn
 429              	@ FreeRTOS/tasks.c:691: }
 691:FreeRTOS/tasks.c **** }
 430              		.loc 1 691 0
 431 0144 1846     		mov	r0, r3	@, <retval>
 432 0146 2037     		adds	r7, r7, #32	@,,
 433              		.cfi_def_cfa_offset 8
 434 0148 BD46     		mov	sp, r7	@,
 435              		.cfi_def_cfa_register 13
 436              		@ sp needed	@
 437 014a 80BD     		pop	{r7, pc}	@
 438              	.L16:
 439              		.align	2
 440              	.L15:
 441 014c 00000000 		.word	uxCurrentNumberOfTasks
 442 0150 00000000 		.word	pxCurrentTCB
 443 0154 00000000 		.word	xSchedulerRunning
 444 0158 00000000 		.word	uxTaskNumber
 445 015c 00000000 		.word	uxTopReadyPriority
 446 0160 00000000 		.word	pxReadyTasksLists
 447              		.cfi_endproc
 448              	.LFE1:
 449              		.size	xTaskGenericCreate, .-xTaskGenericCreate
 450              		.section	.text.vTaskDelete,"ax",%progbits
 451              		.align	1
 452              		.global	vTaskDelete
 453              		.syntax unified
 454              		.thumb
 455              		.thumb_func
 456              		.fpu softvfp
 457              		.type	vTaskDelete, %function
 458              	vTaskDelete:
 459              	.LFB2:
 692:FreeRTOS/tasks.c **** /*-----------------------------------------------------------*/
 693:FreeRTOS/tasks.c **** 
 694:FreeRTOS/tasks.c **** #if ( INCLUDE_vTaskDelete == 1 )
 695:FreeRTOS/tasks.c **** 
 696:FreeRTOS/tasks.c **** 	void vTaskDelete( TaskHandle_t xTaskToDelete )
 697:FreeRTOS/tasks.c **** 	{
 460              		.loc 1 697 0
 461              		.cfi_startproc
 462              		@ args = 0, pretend = 0, frame = 16
 463              		@ frame_needed = 1, uses_anonymous_args = 0
 464 0000 80B5     		push	{r7, lr}	@
 465              		.cfi_def_cfa_offset 8
 466              		.cfi_offset 7, -8
 467              		.cfi_offset 14, -4
 468 0002 84B0     		sub	sp, sp, #16	@,,
 469              		.cfi_def_cfa_offset 24
 470 0004 00AF     		add	r7, sp, #0	@,,
 471              		.cfi_def_cfa_register 7
 472 0006 7860     		str	r0, [r7, #4]	@ xTaskToDelete, xTaskToDelete
 473              	@ FreeRTOS/tasks.c:700: 		taskENTER_CRITICAL();
 698:FreeRTOS/tasks.c **** 	TCB_t *pxTCB;
 699:FreeRTOS/tasks.c **** 
 700:FreeRTOS/tasks.c **** 		taskENTER_CRITICAL();
ARM GAS  /tmp/ccTV2SzP.s 			page 22


 474              		.loc 1 700 0
 475 0008 FFF7FEFF 		bl	vPortEnterCritical	@
 476              	@ FreeRTOS/tasks.c:704: 			pxTCB = prvGetTCBFromHandle( xTaskToDelete );
 701:FreeRTOS/tasks.c **** 		{
 702:FreeRTOS/tasks.c **** 			/* If null is passed in here then it is the calling task that is
 703:FreeRTOS/tasks.c **** 			being deleted. */
 704:FreeRTOS/tasks.c **** 			pxTCB = prvGetTCBFromHandle( xTaskToDelete );
 477              		.loc 1 704 0
 478 000c 7B68     		ldr	r3, [r7, #4]	@ tmp130, xTaskToDelete
 479 000e 002B     		cmp	r3, #0	@ tmp130,
 480 0010 02D1     		bne	.L18	@,
 481              	@ FreeRTOS/tasks.c:704: 			pxTCB = prvGetTCBFromHandle( xTaskToDelete );
 482              		.loc 1 704 0 is_stmt 0 discriminator 1
 483 0012 2D4B     		ldr	r3, .L28	@ tmp131,
 484 0014 1B68     		ldr	r3, [r3]	@ iftmp.12_20, pxCurrentTCB
 485 0016 00E0     		b	.L19	@
 486              	.L18:
 487              	@ FreeRTOS/tasks.c:704: 			pxTCB = prvGetTCBFromHandle( xTaskToDelete );
 488              		.loc 1 704 0 discriminator 2
 489 0018 7B68     		ldr	r3, [r7, #4]	@ iftmp.12_20, xTaskToDelete
 490              	.L19:
 491              	@ FreeRTOS/tasks.c:704: 			pxTCB = prvGetTCBFromHandle( xTaskToDelete );
 492              		.loc 1 704 0 discriminator 4
 493 001a FB60     		str	r3, [r7, #12]	@ iftmp.12_20, pxTCB
 494              	@ FreeRTOS/tasks.c:710: 			if( uxListRemove( &( pxTCB->xGenericListItem ) ) == ( UBaseT_t ) 0 )
 705:FreeRTOS/tasks.c **** 
 706:FreeRTOS/tasks.c **** 			/* Remove task from the ready list and place in the	termination list.
 707:FreeRTOS/tasks.c **** 			This will stop the task from be scheduled.  The idle task will check
 708:FreeRTOS/tasks.c **** 			the termination list and free up any memory allocated by the
 709:FreeRTOS/tasks.c **** 			scheduler for the TCB and stack. */
 710:FreeRTOS/tasks.c **** 			if( uxListRemove( &( pxTCB->xGenericListItem ) ) == ( UBaseT_t ) 0 )
 495              		.loc 1 710 0 is_stmt 1 discriminator 4
 496 001c FB68     		ldr	r3, [r7, #12]	@ tmp132, pxTCB
 497 001e 0433     		adds	r3, r3, #4	@ _1, tmp132,
 498 0020 1846     		mov	r0, r3	@, _1
 499 0022 FFF7FEFF 		bl	uxListRemove	@
 500 0026 0346     		mov	r3, r0	@ _2,
 501 0028 002B     		cmp	r3, #0	@ _2,
 502 002a 15D1     		bne	.L20	@,
 503              	@ FreeRTOS/tasks.c:712: 				taskRESET_READY_PRIORITY( pxTCB->uxPriority );
 711:FreeRTOS/tasks.c **** 			{
 712:FreeRTOS/tasks.c **** 				taskRESET_READY_PRIORITY( pxTCB->uxPriority );
 504              		.loc 1 712 0
 505 002c FB68     		ldr	r3, [r7, #12]	@ tmp133, pxTCB
 506 002e DA6A     		ldr	r2, [r3, #44]	@ _3, pxTCB_30->uxPriority
 507 0030 2649     		ldr	r1, .L28+4	@ tmp134,
 508 0032 1346     		mov	r3, r2	@ tmp135, _3
 509 0034 9B00     		lsls	r3, r3, #2	@ tmp135, tmp135,
 510 0036 1344     		add	r3, r3, r2	@ tmp135, _3
 511 0038 9B00     		lsls	r3, r3, #2	@ tmp136, tmp135,
 512 003a 0B44     		add	r3, r3, r1	@ tmp137, tmp134
 513 003c 1B68     		ldr	r3, [r3]	@ _4, pxReadyTasksLists[_3].uxNumberOfItems
 514 003e 002B     		cmp	r3, #0	@ _4,
 515 0040 0AD1     		bne	.L20	@,
 516              	@ FreeRTOS/tasks.c:712: 				taskRESET_READY_PRIORITY( pxTCB->uxPriority );
 517              		.loc 1 712 0 is_stmt 0 discriminator 1
 518 0042 FB68     		ldr	r3, [r7, #12]	@ tmp138, pxTCB
ARM GAS  /tmp/ccTV2SzP.s 			page 23


 519 0044 DB6A     		ldr	r3, [r3, #44]	@ _5, pxTCB_30->uxPriority
 520 0046 0122     		movs	r2, #1	@ tmp139,
 521 0048 02FA03F3 		lsl	r3, r2, r3	@ _6, tmp139, _5
 522 004c DA43     		mvns	r2, r3	@ _7, _6
 523 004e 204B     		ldr	r3, .L28+8	@ tmp140,
 524 0050 1B68     		ldr	r3, [r3]	@ uxTopReadyPriority.13_8, uxTopReadyPriority
 525 0052 1340     		ands	r3, r3, r2	@, _9, uxTopReadyPriority.13_8, _7
 526 0054 1E4A     		ldr	r2, .L28+8	@ tmp141,
 527 0056 1360     		str	r3, [r2]	@ _9, uxTopReadyPriority
 528              	.L20:
 529              	@ FreeRTOS/tasks.c:720: 			if( listLIST_ITEM_CONTAINER( &( pxTCB->xEventListItem ) ) != NULL )
 713:FreeRTOS/tasks.c **** 			}
 714:FreeRTOS/tasks.c **** 			else
 715:FreeRTOS/tasks.c **** 			{
 716:FreeRTOS/tasks.c **** 				mtCOVERAGE_TEST_MARKER();
 717:FreeRTOS/tasks.c **** 			}
 718:FreeRTOS/tasks.c **** 
 719:FreeRTOS/tasks.c **** 			/* Is the task waiting on an event also? */
 720:FreeRTOS/tasks.c **** 			if( listLIST_ITEM_CONTAINER( &( pxTCB->xEventListItem ) ) != NULL )
 530              		.loc 1 720 0 is_stmt 1
 531 0058 FB68     		ldr	r3, [r7, #12]	@ tmp142, pxTCB
 532 005a 9B6A     		ldr	r3, [r3, #40]	@ _10, pxTCB_30->xEventListItem.pvContainer
 533 005c 002B     		cmp	r3, #0	@ _10,
 534 005e 04D0     		beq	.L22	@,
 535              	@ FreeRTOS/tasks.c:722: 				( void ) uxListRemove( &( pxTCB->xEventListItem ) );
 721:FreeRTOS/tasks.c **** 			{
 722:FreeRTOS/tasks.c **** 				( void ) uxListRemove( &( pxTCB->xEventListItem ) );
 536              		.loc 1 722 0
 537 0060 FB68     		ldr	r3, [r7, #12]	@ tmp143, pxTCB
 538 0062 1833     		adds	r3, r3, #24	@ _11, tmp143,
 539 0064 1846     		mov	r0, r3	@, _11
 540 0066 FFF7FEFF 		bl	uxListRemove	@
 541              	.L22:
 542              	@ FreeRTOS/tasks.c:729: 			vListInsertEnd( &xTasksWaitingTermination, &( pxTCB->xGenericListItem ) 
 723:FreeRTOS/tasks.c **** 			}
 724:FreeRTOS/tasks.c **** 			else
 725:FreeRTOS/tasks.c **** 			{
 726:FreeRTOS/tasks.c **** 				mtCOVERAGE_TEST_MARKER();
 727:FreeRTOS/tasks.c **** 			}
 728:FreeRTOS/tasks.c **** 
 729:FreeRTOS/tasks.c **** 			vListInsertEnd( &xTasksWaitingTermination, &( pxTCB->xGenericListItem ) );
 543              		.loc 1 729 0
 544 006a FB68     		ldr	r3, [r7, #12]	@ tmp144, pxTCB
 545 006c 0433     		adds	r3, r3, #4	@ _12, tmp144,
 546 006e 1946     		mov	r1, r3	@, _12
 547 0070 1848     		ldr	r0, .L28+12	@,
 548 0072 FFF7FEFF 		bl	vListInsertEnd	@
 549              	@ FreeRTOS/tasks.c:734: 			++uxTasksDeleted;
 730:FreeRTOS/tasks.c **** 
 731:FreeRTOS/tasks.c **** 			/* Increment the ucTasksDeleted variable so the idle task knows
 732:FreeRTOS/tasks.c **** 			there is a task that has been deleted and that it should therefore
 733:FreeRTOS/tasks.c **** 			check the xTasksWaitingTermination list. */
 734:FreeRTOS/tasks.c **** 			++uxTasksDeleted;
 550              		.loc 1 734 0
 551 0076 184B     		ldr	r3, .L28+16	@ tmp145,
 552 0078 1B68     		ldr	r3, [r3]	@ uxTasksDeleted.14_13, uxTasksDeleted
 553 007a 0133     		adds	r3, r3, #1	@ _14, uxTasksDeleted.14_13,
ARM GAS  /tmp/ccTV2SzP.s 			page 24


 554 007c 164A     		ldr	r2, .L28+16	@ tmp146,
 555 007e 1360     		str	r3, [r2]	@ _14, uxTasksDeleted
 556              	@ FreeRTOS/tasks.c:738: 			uxTaskNumber++;
 735:FreeRTOS/tasks.c **** 
 736:FreeRTOS/tasks.c **** 			/* Increment the uxTaskNumberVariable also so kernel aware debuggers
 737:FreeRTOS/tasks.c **** 			can detect that the task lists need re-generating. */
 738:FreeRTOS/tasks.c **** 			uxTaskNumber++;
 557              		.loc 1 738 0
 558 0080 164B     		ldr	r3, .L28+20	@ tmp147,
 559 0082 1B68     		ldr	r3, [r3]	@ uxTaskNumber.15_15, uxTaskNumber
 560 0084 0133     		adds	r3, r3, #1	@ _16, uxTaskNumber.15_15,
 561 0086 154A     		ldr	r2, .L28+20	@ tmp148,
 562 0088 1360     		str	r3, [r2]	@ _16, uxTaskNumber
 563              	@ FreeRTOS/tasks.c:742: 		taskEXIT_CRITICAL();
 739:FreeRTOS/tasks.c **** 
 740:FreeRTOS/tasks.c **** 			traceTASK_DELETE( pxTCB );
 741:FreeRTOS/tasks.c **** 		}
 742:FreeRTOS/tasks.c **** 		taskEXIT_CRITICAL();
 564              		.loc 1 742 0
 565 008a FFF7FEFF 		bl	vPortExitCritical	@
 566              	@ FreeRTOS/tasks.c:746: 		if( xSchedulerRunning != pdFALSE )
 743:FreeRTOS/tasks.c **** 
 744:FreeRTOS/tasks.c **** 		/* Force a reschedule if it is the currently running task that has just
 745:FreeRTOS/tasks.c **** 		been deleted. */
 746:FreeRTOS/tasks.c **** 		if( xSchedulerRunning != pdFALSE )
 567              		.loc 1 746 0
 568 008e 144B     		ldr	r3, .L28+24	@ tmp149,
 569 0090 1B68     		ldr	r3, [r3]	@ xSchedulerRunning.16_17, xSchedulerRunning
 570 0092 002B     		cmp	r3, #0	@ xSchedulerRunning.16_17,
 571 0094 14D0     		beq	.L27	@,
 572              	@ FreeRTOS/tasks.c:748: 			if( pxTCB == pxCurrentTCB )
 747:FreeRTOS/tasks.c **** 		{
 748:FreeRTOS/tasks.c **** 			if( pxTCB == pxCurrentTCB )
 573              		.loc 1 748 0
 574 0096 0C4B     		ldr	r3, .L28	@ tmp150,
 575 0098 1B68     		ldr	r3, [r3]	@ pxCurrentTCB.17_18, pxCurrentTCB
 576 009a FA68     		ldr	r2, [r7, #12]	@ tmp151, pxTCB
 577 009c 9A42     		cmp	r2, r3	@ tmp151, pxCurrentTCB.17_18
 578 009e 09D1     		bne	.L24	@,
 579              	@ FreeRTOS/tasks.c:750: 				configASSERT( uxSchedulerSuspended == 0 );
 749:FreeRTOS/tasks.c **** 			{
 750:FreeRTOS/tasks.c **** 				configASSERT( uxSchedulerSuspended == 0 );
 580              		.loc 1 750 0
 581 00a0 104B     		ldr	r3, .L28+28	@ tmp152,
 582 00a2 1B68     		ldr	r3, [r3]	@ uxSchedulerSuspended.18_19, uxSchedulerSuspended
 583 00a4 002B     		cmp	r3, #0	@ uxSchedulerSuspended.18_19,
 584 00a6 02D0     		beq	.L25	@,
 585              	@ FreeRTOS/tasks.c:750: 				configASSERT( uxSchedulerSuspended == 0 );
 586              		.loc 1 750 0 is_stmt 0 discriminator 1
 587 00a8 FFF7FEFF 		bl	ulPortSetInterruptMask	@
 588              	.L26:
 589 00ac FEE7     		b	.L26	@
 590              	.L25:
 591              	@ FreeRTOS/tasks.c:758: 				portYIELD_WITHIN_API();
 751:FreeRTOS/tasks.c **** 
 752:FreeRTOS/tasks.c **** 				/* The pre-delete hook is primarily for the Windows simulator,
 753:FreeRTOS/tasks.c **** 				in which Windows specific clean up operations are performed,
ARM GAS  /tmp/ccTV2SzP.s 			page 25


 754:FreeRTOS/tasks.c **** 				after which it is not possible to yield away from this task -
 755:FreeRTOS/tasks.c **** 				hence xYieldPending is used to latch that a context switch is
 756:FreeRTOS/tasks.c **** 				required. */
 757:FreeRTOS/tasks.c **** 				portPRE_TASK_DELETE_HOOK( pxTCB, &xYieldPending );
 758:FreeRTOS/tasks.c **** 				portYIELD_WITHIN_API();
 592              		.loc 1 758 0 is_stmt 1
 593 00ae FFF7FEFF 		bl	vPortYield	@
 594              	@ FreeRTOS/tasks.c:771: 	}
 759:FreeRTOS/tasks.c **** 			}
 760:FreeRTOS/tasks.c **** 			else
 761:FreeRTOS/tasks.c **** 			{
 762:FreeRTOS/tasks.c **** 				/* Reset the next expected unblock time in case it referred to
 763:FreeRTOS/tasks.c **** 				the task that has just been deleted. */
 764:FreeRTOS/tasks.c **** 				taskENTER_CRITICAL();
 765:FreeRTOS/tasks.c **** 				{
 766:FreeRTOS/tasks.c **** 					prvResetNextTaskUnblockTime();
 767:FreeRTOS/tasks.c **** 				}
 768:FreeRTOS/tasks.c **** 				taskEXIT_CRITICAL();
 769:FreeRTOS/tasks.c **** 			}
 770:FreeRTOS/tasks.c **** 		}
 771:FreeRTOS/tasks.c **** 	}
 595              		.loc 1 771 0
 596 00b2 05E0     		b	.L27	@
 597              	.L24:
 598              	@ FreeRTOS/tasks.c:764: 				taskENTER_CRITICAL();
 764:FreeRTOS/tasks.c **** 				{
 599              		.loc 1 764 0
 600 00b4 FFF7FEFF 		bl	vPortEnterCritical	@
 601              	@ FreeRTOS/tasks.c:766: 					prvResetNextTaskUnblockTime();
 766:FreeRTOS/tasks.c **** 				}
 602              		.loc 1 766 0
 603 00b8 FFF7FEFF 		bl	prvResetNextTaskUnblockTime	@
 604              	@ FreeRTOS/tasks.c:768: 				taskEXIT_CRITICAL();
 768:FreeRTOS/tasks.c **** 			}
 605              		.loc 1 768 0
 606 00bc FFF7FEFF 		bl	vPortExitCritical	@
 607              	.L27:
 608              	@ FreeRTOS/tasks.c:771: 	}
 609              		.loc 1 771 0
 610 00c0 00BF     		nop
 611 00c2 1037     		adds	r7, r7, #16	@,,
 612              		.cfi_def_cfa_offset 8
 613 00c4 BD46     		mov	sp, r7	@,
 614              		.cfi_def_cfa_register 13
 615              		@ sp needed	@
 616 00c6 80BD     		pop	{r7, pc}	@
 617              	.L29:
 618              		.align	2
 619              	.L28:
 620 00c8 00000000 		.word	pxCurrentTCB
 621 00cc 00000000 		.word	pxReadyTasksLists
 622 00d0 00000000 		.word	uxTopReadyPriority
 623 00d4 00000000 		.word	xTasksWaitingTermination
 624 00d8 00000000 		.word	uxTasksDeleted
 625 00dc 00000000 		.word	uxTaskNumber
 626 00e0 00000000 		.word	xSchedulerRunning
 627 00e4 00000000 		.word	uxSchedulerSuspended
ARM GAS  /tmp/ccTV2SzP.s 			page 26


 628              		.cfi_endproc
 629              	.LFE2:
 630              		.size	vTaskDelete, .-vTaskDelete
 631              		.section	.text.vTaskDelayUntil,"ax",%progbits
 632              		.align	1
 633              		.global	vTaskDelayUntil
 634              		.syntax unified
 635              		.thumb
 636              		.thumb_func
 637              		.fpu softvfp
 638              		.type	vTaskDelayUntil, %function
 639              	vTaskDelayUntil:
 640              	.LFB3:
 772:FreeRTOS/tasks.c **** 
 773:FreeRTOS/tasks.c **** #endif /* INCLUDE_vTaskDelete */
 774:FreeRTOS/tasks.c **** /*-----------------------------------------------------------*/
 775:FreeRTOS/tasks.c **** 
 776:FreeRTOS/tasks.c **** #if ( INCLUDE_vTaskDelayUntil == 1 )
 777:FreeRTOS/tasks.c **** 
 778:FreeRTOS/tasks.c **** 	void vTaskDelayUntil( TickT_t * const pxPreviousWakeTime, const TickT_t xTimeIncrement )
 779:FreeRTOS/tasks.c **** 	{
 641              		.loc 1 779 0
 642              		.cfi_startproc
 643              		@ args = 0, pretend = 0, frame = 24
 644              		@ frame_needed = 1, uses_anonymous_args = 0
 645 0000 80B5     		push	{r7, lr}	@
 646              		.cfi_def_cfa_offset 8
 647              		.cfi_offset 7, -8
 648              		.cfi_offset 14, -4
 649 0002 86B0     		sub	sp, sp, #24	@,,
 650              		.cfi_def_cfa_offset 32
 651 0004 00AF     		add	r7, sp, #0	@,,
 652              		.cfi_def_cfa_register 7
 653 0006 7860     		str	r0, [r7, #4]	@ pxPreviousWakeTime, pxPreviousWakeTime
 654 0008 3960     		str	r1, [r7]	@ xTimeIncrement, xTimeIncrement
 655              	@ FreeRTOS/tasks.c:781: 	BaseT_t xAlreadyYielded, xShouldDelay = pdFALSE;
 780:FreeRTOS/tasks.c **** 	TickT_t xTimeToWake;
 781:FreeRTOS/tasks.c **** 	BaseT_t xAlreadyYielded, xShouldDelay = pdFALSE;
 656              		.loc 1 781 0
 657 000a 0023     		movs	r3, #0	@ tmp124,
 658 000c 7B61     		str	r3, [r7, #20]	@ tmp124, xShouldDelay
 659              	@ FreeRTOS/tasks.c:783: 		configASSERT( pxPreviousWakeTime );
 782:FreeRTOS/tasks.c **** 
 783:FreeRTOS/tasks.c **** 		configASSERT( pxPreviousWakeTime );
 660              		.loc 1 783 0
 661 000e 7B68     		ldr	r3, [r7, #4]	@ tmp125, pxPreviousWakeTime
 662 0010 002B     		cmp	r3, #0	@ tmp125,
 663 0012 02D1     		bne	.L31	@,
 664              	@ FreeRTOS/tasks.c:783: 		configASSERT( pxPreviousWakeTime );
 665              		.loc 1 783 0 is_stmt 0 discriminator 1
 666 0014 FFF7FEFF 		bl	ulPortSetInterruptMask	@
 667              	.L32:
 668 0018 FEE7     		b	.L32	@
 669              	.L31:
 670              	@ FreeRTOS/tasks.c:784: 		configASSERT( ( xTimeIncrement > 0U ) );
 784:FreeRTOS/tasks.c **** 		configASSERT( ( xTimeIncrement > 0U ) );
 671              		.loc 1 784 0 is_stmt 1
ARM GAS  /tmp/ccTV2SzP.s 			page 27


 672 001a 3B68     		ldr	r3, [r7]	@ tmp126, xTimeIncrement
 673 001c 002B     		cmp	r3, #0	@ tmp126,
 674 001e 02D1     		bne	.L33	@,
 675              	@ FreeRTOS/tasks.c:784: 		configASSERT( ( xTimeIncrement > 0U ) );
 676              		.loc 1 784 0 is_stmt 0 discriminator 1
 677 0020 FFF7FEFF 		bl	ulPortSetInterruptMask	@
 678              	.L34:
 679              	@ FreeRTOS/tasks.c:784: 		configASSERT( ( xTimeIncrement > 0U ) );
 680              		.loc 1 784 0 discriminator 2
 681 0024 FEE7     		b	.L34	@
 682              	.L33:
 683              	@ FreeRTOS/tasks.c:785: 		configASSERT( uxSchedulerSuspended == 0 );
 785:FreeRTOS/tasks.c **** 		configASSERT( uxSchedulerSuspended == 0 );
 684              		.loc 1 785 0 is_stmt 1
 685 0026 2B4B     		ldr	r3, .L44	@ tmp127,
 686 0028 1B68     		ldr	r3, [r3]	@ uxSchedulerSuspended.19_1, uxSchedulerSuspended
 687 002a 002B     		cmp	r3, #0	@ uxSchedulerSuspended.19_1,
 688 002c 02D0     		beq	.L35	@,
 689              	@ FreeRTOS/tasks.c:785: 		configASSERT( uxSchedulerSuspended == 0 );
 690              		.loc 1 785 0 is_stmt 0 discriminator 1
 691 002e FFF7FEFF 		bl	ulPortSetInterruptMask	@
 692              	.L36:
 693              	@ FreeRTOS/tasks.c:785: 		configASSERT( uxSchedulerSuspended == 0 );
 694              		.loc 1 785 0 discriminator 3
 695 0032 FEE7     		b	.L36	@
 696              	.L35:
 697              	@ FreeRTOS/tasks.c:787: 		vTaskSuspendAll();
 786:FreeRTOS/tasks.c **** 
 787:FreeRTOS/tasks.c **** 		vTaskSuspendAll();
 698              		.loc 1 787 0 is_stmt 1
 699 0034 FFF7FEFF 		bl	vTaskSuspendAll	@
 700              	.LBB7:
 701              	@ FreeRTOS/tasks.c:791: 			const TickT_t xConstTickCount = xTickCount;
 788:FreeRTOS/tasks.c **** 		{
 789:FreeRTOS/tasks.c **** 			/* Minor optimisation.  The tick count cannot change in this
 790:FreeRTOS/tasks.c **** 			block. */
 791:FreeRTOS/tasks.c **** 			const TickT_t xConstTickCount = xTickCount;
 702              		.loc 1 791 0
 703 0038 274B     		ldr	r3, .L44+4	@ tmp128,
 704 003a 1B68     		ldr	r3, [r3]	@ tmp129, xTickCount
 705 003c 3B61     		str	r3, [r7, #16]	@ tmp129, xConstTickCount
 706              	@ FreeRTOS/tasks.c:794: 			xTimeToWake = *pxPreviousWakeTime + xTimeIncrement;
 792:FreeRTOS/tasks.c **** 
 793:FreeRTOS/tasks.c **** 			/* Generate the tick time at which the task wants to wake. */
 794:FreeRTOS/tasks.c **** 			xTimeToWake = *pxPreviousWakeTime + xTimeIncrement;
 707              		.loc 1 794 0
 708 003e 7B68     		ldr	r3, [r7, #4]	@ tmp130, pxPreviousWakeTime
 709 0040 1B68     		ldr	r3, [r3]	@ _2, *pxPreviousWakeTime_19(D)
 710 0042 3A68     		ldr	r2, [r7]	@ tmp132, xTimeIncrement
 711 0044 1344     		add	r3, r3, r2	@ tmp131, tmp132
 712 0046 FB60     		str	r3, [r7, #12]	@ tmp131, xTimeToWake
 713              	@ FreeRTOS/tasks.c:796: 			if( xConstTickCount < *pxPreviousWakeTime )
 795:FreeRTOS/tasks.c **** 
 796:FreeRTOS/tasks.c **** 			if( xConstTickCount < *pxPreviousWakeTime )
 714              		.loc 1 796 0
 715 0048 7B68     		ldr	r3, [r7, #4]	@ tmp133, pxPreviousWakeTime
 716 004a 1B68     		ldr	r3, [r3]	@ _3, *pxPreviousWakeTime_19(D)
ARM GAS  /tmp/ccTV2SzP.s 			page 28


 717 004c 3A69     		ldr	r2, [r7, #16]	@ tmp134, xConstTickCount
 718 004e 9A42     		cmp	r2, r3	@ tmp134, _3
 719 0050 0BD2     		bcs	.L37	@,
 720              	@ FreeRTOS/tasks.c:803: 				if( ( xTimeToWake < *pxPreviousWakeTime ) && ( xTimeToWake > xConstTick
 797:FreeRTOS/tasks.c **** 			{
 798:FreeRTOS/tasks.c **** 				/* The tick count has overflowed since this function was
 799:FreeRTOS/tasks.c **** 				lasted called.  In this case the only time we should ever
 800:FreeRTOS/tasks.c **** 				actually delay is if the wake time has also	overflowed,
 801:FreeRTOS/tasks.c **** 				and the wake time is greater than the tick time.  When this
 802:FreeRTOS/tasks.c **** 				is the case it is as if neither time had overflowed. */
 803:FreeRTOS/tasks.c **** 				if( ( xTimeToWake < *pxPreviousWakeTime ) && ( xTimeToWake > xConstTickCount ) )
 721              		.loc 1 803 0
 722 0052 7B68     		ldr	r3, [r7, #4]	@ tmp135, pxPreviousWakeTime
 723 0054 1B68     		ldr	r3, [r3]	@ _4, *pxPreviousWakeTime_19(D)
 724 0056 FA68     		ldr	r2, [r7, #12]	@ tmp136, xTimeToWake
 725 0058 9A42     		cmp	r2, r3	@ tmp136, _4
 726 005a 11D2     		bcs	.L38	@,
 727              	@ FreeRTOS/tasks.c:803: 				if( ( xTimeToWake < *pxPreviousWakeTime ) && ( xTimeToWake > xConstTick
 728              		.loc 1 803 0 is_stmt 0 discriminator 1
 729 005c FA68     		ldr	r2, [r7, #12]	@ tmp137, xTimeToWake
 730 005e 3B69     		ldr	r3, [r7, #16]	@ tmp138, xConstTickCount
 731 0060 9A42     		cmp	r2, r3	@ tmp137, tmp138
 732 0062 0DD9     		bls	.L38	@,
 733              	@ FreeRTOS/tasks.c:805: 					xShouldDelay = pdTRUE;
 804:FreeRTOS/tasks.c **** 				{
 805:FreeRTOS/tasks.c **** 					xShouldDelay = pdTRUE;
 734              		.loc 1 805 0 is_stmt 1
 735 0064 0123     		movs	r3, #1	@ tmp139,
 736 0066 7B61     		str	r3, [r7, #20]	@ tmp139, xShouldDelay
 737 0068 0AE0     		b	.L38	@
 738              	.L37:
 739              	@ FreeRTOS/tasks.c:817: 				if( ( xTimeToWake < *pxPreviousWakeTime ) || ( xTimeToWake > xConstTick
 806:FreeRTOS/tasks.c **** 				}
 807:FreeRTOS/tasks.c **** 				else
 808:FreeRTOS/tasks.c **** 				{
 809:FreeRTOS/tasks.c **** 					mtCOVERAGE_TEST_MARKER();
 810:FreeRTOS/tasks.c **** 				}
 811:FreeRTOS/tasks.c **** 			}
 812:FreeRTOS/tasks.c **** 			else
 813:FreeRTOS/tasks.c **** 			{
 814:FreeRTOS/tasks.c **** 				/* The tick time has not overflowed.  In this case we will
 815:FreeRTOS/tasks.c **** 				delay if either the wake time has overflowed, and/or the
 816:FreeRTOS/tasks.c **** 				tick time is less than the wake time. */
 817:FreeRTOS/tasks.c **** 				if( ( xTimeToWake < *pxPreviousWakeTime ) || ( xTimeToWake > xConstTickCount ) )
 740              		.loc 1 817 0
 741 006a 7B68     		ldr	r3, [r7, #4]	@ tmp140, pxPreviousWakeTime
 742 006c 1B68     		ldr	r3, [r3]	@ _5, *pxPreviousWakeTime_19(D)
 743 006e FA68     		ldr	r2, [r7, #12]	@ tmp141, xTimeToWake
 744 0070 9A42     		cmp	r2, r3	@ tmp141, _5
 745 0072 03D3     		bcc	.L39	@,
 746              	@ FreeRTOS/tasks.c:817: 				if( ( xTimeToWake < *pxPreviousWakeTime ) || ( xTimeToWake > xConstTick
 747              		.loc 1 817 0 is_stmt 0 discriminator 1
 748 0074 FA68     		ldr	r2, [r7, #12]	@ tmp142, xTimeToWake
 749 0076 3B69     		ldr	r3, [r7, #16]	@ tmp143, xConstTickCount
 750 0078 9A42     		cmp	r2, r3	@ tmp142, tmp143
 751 007a 01D9     		bls	.L38	@,
 752              	.L39:
ARM GAS  /tmp/ccTV2SzP.s 			page 29


 753              	@ FreeRTOS/tasks.c:819: 					xShouldDelay = pdTRUE;
 818:FreeRTOS/tasks.c **** 				{
 819:FreeRTOS/tasks.c **** 					xShouldDelay = pdTRUE;
 754              		.loc 1 819 0 is_stmt 1
 755 007c 0123     		movs	r3, #1	@ tmp144,
 756 007e 7B61     		str	r3, [r7, #20]	@ tmp144, xShouldDelay
 757              	.L38:
 758              	@ FreeRTOS/tasks.c:828: 			*pxPreviousWakeTime = xTimeToWake;
 820:FreeRTOS/tasks.c **** 				}
 821:FreeRTOS/tasks.c **** 				else
 822:FreeRTOS/tasks.c **** 				{
 823:FreeRTOS/tasks.c **** 					mtCOVERAGE_TEST_MARKER();
 824:FreeRTOS/tasks.c **** 				}
 825:FreeRTOS/tasks.c **** 			}
 826:FreeRTOS/tasks.c **** 
 827:FreeRTOS/tasks.c **** 			/* Update the wake time ready for the next call. */
 828:FreeRTOS/tasks.c **** 			*pxPreviousWakeTime = xTimeToWake;
 759              		.loc 1 828 0
 760 0080 7B68     		ldr	r3, [r7, #4]	@ tmp145, pxPreviousWakeTime
 761 0082 FA68     		ldr	r2, [r7, #12]	@ tmp146, xTimeToWake
 762 0084 1A60     		str	r2, [r3]	@ tmp146, *pxPreviousWakeTime_19(D)
 763              	@ FreeRTOS/tasks.c:830: 			if( xShouldDelay != pdFALSE )
 829:FreeRTOS/tasks.c **** 
 830:FreeRTOS/tasks.c **** 			if( xShouldDelay != pdFALSE )
 764              		.loc 1 830 0
 765 0086 7B69     		ldr	r3, [r7, #20]	@ tmp147, xShouldDelay
 766 0088 002B     		cmp	r3, #0	@ tmp147,
 767 008a 17D0     		beq	.L40	@,
 768              	@ FreeRTOS/tasks.c:836: 				if( uxListRemove( &( pxCurrentTCB->xGenericListItem ) ) == ( UBaseT_t )
 831:FreeRTOS/tasks.c **** 			{
 832:FreeRTOS/tasks.c **** 				traceTASK_DELAY_UNTIL();
 833:FreeRTOS/tasks.c **** 
 834:FreeRTOS/tasks.c **** 				/* Remove the task from the ready list before adding it to the
 835:FreeRTOS/tasks.c **** 				blocked list as the same list item is used for both lists. */
 836:FreeRTOS/tasks.c **** 				if( uxListRemove( &( pxCurrentTCB->xGenericListItem ) ) == ( UBaseT_t ) 0 )
 769              		.loc 1 836 0
 770 008c 134B     		ldr	r3, .L44+8	@ tmp148,
 771 008e 1B68     		ldr	r3, [r3]	@ pxCurrentTCB.20_6, pxCurrentTCB
 772 0090 0433     		adds	r3, r3, #4	@ _7, pxCurrentTCB.20_6,
 773 0092 1846     		mov	r0, r3	@, _7
 774 0094 FFF7FEFF 		bl	uxListRemove	@
 775 0098 0346     		mov	r3, r0	@ _8,
 776 009a 002B     		cmp	r3, #0	@ _8,
 777 009c 0BD1     		bne	.L41	@,
 778              	@ FreeRTOS/tasks.c:841: 					portRESET_READY_PRIORITY( pxCurrentTCB->uxPriority, uxTopReadyPriority
 837:FreeRTOS/tasks.c **** 				{
 838:FreeRTOS/tasks.c **** 					/* The current task must be in a ready list, so there is
 839:FreeRTOS/tasks.c **** 					no need to check, and the port reset macro can be called
 840:FreeRTOS/tasks.c **** 					directly. */
 841:FreeRTOS/tasks.c **** 					portRESET_READY_PRIORITY( pxCurrentTCB->uxPriority, uxTopReadyPriority );
 779              		.loc 1 841 0
 780 009e 0F4B     		ldr	r3, .L44+8	@ tmp149,
 781 00a0 1B68     		ldr	r3, [r3]	@ pxCurrentTCB.21_9, pxCurrentTCB
 782 00a2 DB6A     		ldr	r3, [r3, #44]	@ _10, pxCurrentTCB.21_9->uxPriority
 783 00a4 0122     		movs	r2, #1	@ tmp150,
 784 00a6 02FA03F3 		lsl	r3, r2, r3	@ _11, tmp150, _10
 785 00aa DA43     		mvns	r2, r3	@ _29, _11
ARM GAS  /tmp/ccTV2SzP.s 			page 30


 786 00ac 0C4B     		ldr	r3, .L44+12	@ tmp151,
 787 00ae 1B68     		ldr	r3, [r3]	@ uxTopReadyPriority.22_12, uxTopReadyPriority
 788 00b0 1340     		ands	r3, r3, r2	@, _13, uxTopReadyPriority.22_12, _29
 789 00b2 0B4A     		ldr	r2, .L44+12	@ tmp152,
 790 00b4 1360     		str	r3, [r2]	@ _13, uxTopReadyPriority
 791              	.L41:
 792              	@ FreeRTOS/tasks.c:848: 				prvAddCurrentTaskToDelayedList( xTimeToWake );
 842:FreeRTOS/tasks.c **** 				}
 843:FreeRTOS/tasks.c **** 				else
 844:FreeRTOS/tasks.c **** 				{
 845:FreeRTOS/tasks.c **** 					mtCOVERAGE_TEST_MARKER();
 846:FreeRTOS/tasks.c **** 				}
 847:FreeRTOS/tasks.c **** 
 848:FreeRTOS/tasks.c **** 				prvAddCurrentTaskToDelayedList( xTimeToWake );
 793              		.loc 1 848 0
 794 00b6 F868     		ldr	r0, [r7, #12]	@, xTimeToWake
 795 00b8 FFF7FEFF 		bl	prvAddCurrentTaskToDelayedList	@
 796              	.L40:
 797              	.LBE7:
 798              	@ FreeRTOS/tasks.c:855: 		xAlreadyYielded = xTaskResumeAll();
 849:FreeRTOS/tasks.c **** 			}
 850:FreeRTOS/tasks.c **** 			else
 851:FreeRTOS/tasks.c **** 			{
 852:FreeRTOS/tasks.c **** 				mtCOVERAGE_TEST_MARKER();
 853:FreeRTOS/tasks.c **** 			}
 854:FreeRTOS/tasks.c **** 		}
 855:FreeRTOS/tasks.c **** 		xAlreadyYielded = xTaskResumeAll();
 799              		.loc 1 855 0
 800 00bc FFF7FEFF 		bl	xTaskResumeAll	@
 801 00c0 B860     		str	r0, [r7, #8]	@, xAlreadyYielded
 802              	@ FreeRTOS/tasks.c:859: 		if( xAlreadyYielded == pdFALSE )
 856:FreeRTOS/tasks.c **** 
 857:FreeRTOS/tasks.c **** 		/* Force a reschedule if xTaskResumeAll has not already done so, we may
 858:FreeRTOS/tasks.c **** 		have put ourselves to sleep. */
 859:FreeRTOS/tasks.c **** 		if( xAlreadyYielded == pdFALSE )
 803              		.loc 1 859 0
 804 00c2 BB68     		ldr	r3, [r7, #8]	@ tmp153, xAlreadyYielded
 805 00c4 002B     		cmp	r3, #0	@ tmp153,
 806 00c6 01D1     		bne	.L43	@,
 807              	@ FreeRTOS/tasks.c:861: 			portYIELD_WITHIN_API();
 860:FreeRTOS/tasks.c **** 		{
 861:FreeRTOS/tasks.c **** 			portYIELD_WITHIN_API();
 808              		.loc 1 861 0
 809 00c8 FFF7FEFF 		bl	vPortYield	@
 810              	.L43:
 811              	@ FreeRTOS/tasks.c:867: 	}
 862:FreeRTOS/tasks.c **** 		}
 863:FreeRTOS/tasks.c **** 		else
 864:FreeRTOS/tasks.c **** 		{
 865:FreeRTOS/tasks.c **** 			mtCOVERAGE_TEST_MARKER();
 866:FreeRTOS/tasks.c **** 		}
 867:FreeRTOS/tasks.c **** 	}
 812              		.loc 1 867 0
 813 00cc 00BF     		nop
 814 00ce 1837     		adds	r7, r7, #24	@,,
 815              		.cfi_def_cfa_offset 8
 816 00d0 BD46     		mov	sp, r7	@,
ARM GAS  /tmp/ccTV2SzP.s 			page 31


 817              		.cfi_def_cfa_register 13
 818              		@ sp needed	@
 819 00d2 80BD     		pop	{r7, pc}	@
 820              	.L45:
 821              		.align	2
 822              	.L44:
 823 00d4 00000000 		.word	uxSchedulerSuspended
 824 00d8 00000000 		.word	xTickCount
 825 00dc 00000000 		.word	pxCurrentTCB
 826 00e0 00000000 		.word	uxTopReadyPriority
 827              		.cfi_endproc
 828              	.LFE3:
 829              		.size	vTaskDelayUntil, .-vTaskDelayUntil
 830              		.section	.text.vTaskDelay,"ax",%progbits
 831              		.align	1
 832              		.global	vTaskDelay
 833              		.syntax unified
 834              		.thumb
 835              		.thumb_func
 836              		.fpu softvfp
 837              		.type	vTaskDelay, %function
 838              	vTaskDelay:
 839              	.LFB4:
 868:FreeRTOS/tasks.c **** 
 869:FreeRTOS/tasks.c **** #endif /* INCLUDE_vTaskDelayUntil */
 870:FreeRTOS/tasks.c **** /*-----------------------------------------------------------*/
 871:FreeRTOS/tasks.c **** 
 872:FreeRTOS/tasks.c **** #if ( INCLUDE_vTaskDelay == 1 )
 873:FreeRTOS/tasks.c **** 
 874:FreeRTOS/tasks.c **** 	void vTaskDelay( const TickT_t xTicksToDelay )
 875:FreeRTOS/tasks.c **** 	{
 840              		.loc 1 875 0
 841              		.cfi_startproc
 842              		@ args = 0, pretend = 0, frame = 16
 843              		@ frame_needed = 1, uses_anonymous_args = 0
 844 0000 80B5     		push	{r7, lr}	@
 845              		.cfi_def_cfa_offset 8
 846              		.cfi_offset 7, -8
 847              		.cfi_offset 14, -4
 848 0002 84B0     		sub	sp, sp, #16	@,,
 849              		.cfi_def_cfa_offset 24
 850 0004 00AF     		add	r7, sp, #0	@,,
 851              		.cfi_def_cfa_register 7
 852 0006 7860     		str	r0, [r7, #4]	@ xTicksToDelay, xTicksToDelay
 853              	@ FreeRTOS/tasks.c:877: 	BaseT_t xAlreadyYielded = pdFALSE;
 876:FreeRTOS/tasks.c **** 	TickT_t xTimeToWake;
 877:FreeRTOS/tasks.c **** 	BaseT_t xAlreadyYielded = pdFALSE;
 854              		.loc 1 877 0
 855 0008 0023     		movs	r3, #0	@ tmp121,
 856 000a FB60     		str	r3, [r7, #12]	@ tmp121, xAlreadyYielded
 857              	@ FreeRTOS/tasks.c:881: 		if( xTicksToDelay > ( TickT_t ) 0U )
 878:FreeRTOS/tasks.c **** 
 879:FreeRTOS/tasks.c **** 
 880:FreeRTOS/tasks.c **** 		/* A delay time of zero just forces a reschedule. */
 881:FreeRTOS/tasks.c **** 		if( xTicksToDelay > ( TickT_t ) 0U )
 858              		.loc 1 881 0
 859 000c 7B68     		ldr	r3, [r7, #4]	@ tmp122, xTicksToDelay
ARM GAS  /tmp/ccTV2SzP.s 			page 32


 860 000e 002B     		cmp	r3, #0	@ tmp122,
 861 0010 28D0     		beq	.L47	@,
 862              	@ FreeRTOS/tasks.c:883: 			configASSERT( uxSchedulerSuspended == 0 );
 882:FreeRTOS/tasks.c **** 		{
 883:FreeRTOS/tasks.c **** 			configASSERT( uxSchedulerSuspended == 0 );
 863              		.loc 1 883 0
 864 0012 194B     		ldr	r3, .L53	@ tmp123,
 865 0014 1B68     		ldr	r3, [r3]	@ uxSchedulerSuspended.23_1, uxSchedulerSuspended
 866 0016 002B     		cmp	r3, #0	@ uxSchedulerSuspended.23_1,
 867 0018 02D0     		beq	.L48	@,
 868              	@ FreeRTOS/tasks.c:883: 			configASSERT( uxSchedulerSuspended == 0 );
 869              		.loc 1 883 0 is_stmt 0 discriminator 1
 870 001a FFF7FEFF 		bl	ulPortSetInterruptMask	@
 871              	.L49:
 872 001e FEE7     		b	.L49	@
 873              	.L48:
 874              	@ FreeRTOS/tasks.c:884: 			vTaskSuspendAll();
 884:FreeRTOS/tasks.c **** 			vTaskSuspendAll();
 875              		.loc 1 884 0 is_stmt 1
 876 0020 FFF7FEFF 		bl	vTaskSuspendAll	@
 877              	@ FreeRTOS/tasks.c:898: 				xTimeToWake = xTickCount + xTicksToDelay;
 885:FreeRTOS/tasks.c **** 			{
 886:FreeRTOS/tasks.c **** 				traceTASK_DELAY();
 887:FreeRTOS/tasks.c **** 
 888:FreeRTOS/tasks.c **** 				/* A task that is removed from the event list while the
 889:FreeRTOS/tasks.c **** 				scheduler is suspended will not get placed in the ready
 890:FreeRTOS/tasks.c **** 				list or removed from the blocked list until the scheduler
 891:FreeRTOS/tasks.c **** 				is resumed.
 892:FreeRTOS/tasks.c **** 
 893:FreeRTOS/tasks.c **** 				This task cannot be in an event list as it is the currently
 894:FreeRTOS/tasks.c **** 				executing task. */
 895:FreeRTOS/tasks.c **** 
 896:FreeRTOS/tasks.c **** 				/* Calculate the time to wake - this may overflow but this is
 897:FreeRTOS/tasks.c **** 				not a problem. */
 898:FreeRTOS/tasks.c **** 				xTimeToWake = xTickCount + xTicksToDelay;
 878              		.loc 1 898 0
 879 0024 154B     		ldr	r3, .L53+4	@ tmp124,
 880 0026 1B68     		ldr	r3, [r3]	@ xTickCount.24_2, xTickCount
 881 0028 7A68     		ldr	r2, [r7, #4]	@ tmp126, xTicksToDelay
 882 002a 1344     		add	r3, r3, r2	@ tmp125, tmp126
 883 002c BB60     		str	r3, [r7, #8]	@ tmp125, xTimeToWake
 884              	@ FreeRTOS/tasks.c:903: 				if( uxListRemove( &( pxCurrentTCB->xGenericListItem ) ) == ( UBaseT_t )
 899:FreeRTOS/tasks.c **** 
 900:FreeRTOS/tasks.c **** 				/* We must remove ourselves from the ready list before adding
 901:FreeRTOS/tasks.c **** 				ourselves to the blocked list as the same list item is used for
 902:FreeRTOS/tasks.c **** 				both lists. */
 903:FreeRTOS/tasks.c **** 				if( uxListRemove( &( pxCurrentTCB->xGenericListItem ) ) == ( UBaseT_t ) 0 )
 885              		.loc 1 903 0
 886 002e 144B     		ldr	r3, .L53+8	@ tmp127,
 887 0030 1B68     		ldr	r3, [r3]	@ pxCurrentTCB.25_3, pxCurrentTCB
 888 0032 0433     		adds	r3, r3, #4	@ _4, pxCurrentTCB.25_3,
 889 0034 1846     		mov	r0, r3	@, _4
 890 0036 FFF7FEFF 		bl	uxListRemove	@
 891 003a 0346     		mov	r3, r0	@ _5,
 892 003c 002B     		cmp	r3, #0	@ _5,
 893 003e 0BD1     		bne	.L50	@,
 894              	@ FreeRTOS/tasks.c:908: 					portRESET_READY_PRIORITY( pxCurrentTCB->uxPriority, uxTopReadyPriority
ARM GAS  /tmp/ccTV2SzP.s 			page 33


 904:FreeRTOS/tasks.c **** 				{
 905:FreeRTOS/tasks.c **** 					/* The current task must be in a ready list, so there is
 906:FreeRTOS/tasks.c **** 					no need to check, and the port reset macro can be called
 907:FreeRTOS/tasks.c **** 					directly. */
 908:FreeRTOS/tasks.c **** 					portRESET_READY_PRIORITY( pxCurrentTCB->uxPriority, uxTopReadyPriority );
 895              		.loc 1 908 0
 896 0040 0F4B     		ldr	r3, .L53+8	@ tmp128,
 897 0042 1B68     		ldr	r3, [r3]	@ pxCurrentTCB.26_6, pxCurrentTCB
 898 0044 DB6A     		ldr	r3, [r3, #44]	@ _7, pxCurrentTCB.26_6->uxPriority
 899 0046 0122     		movs	r2, #1	@ tmp129,
 900 0048 02FA03F3 		lsl	r3, r2, r3	@ _8, tmp129, _7
 901 004c DA43     		mvns	r2, r3	@ _21, _8
 902 004e 0D4B     		ldr	r3, .L53+12	@ tmp130,
 903 0050 1B68     		ldr	r3, [r3]	@ uxTopReadyPriority.27_9, uxTopReadyPriority
 904 0052 1340     		ands	r3, r3, r2	@, _10, uxTopReadyPriority.27_9, _21
 905 0054 0B4A     		ldr	r2, .L53+12	@ tmp131,
 906 0056 1360     		str	r3, [r2]	@ _10, uxTopReadyPriority
 907              	.L50:
 908              	@ FreeRTOS/tasks.c:914: 				prvAddCurrentTaskToDelayedList( xTimeToWake );
 909:FreeRTOS/tasks.c **** 				}
 910:FreeRTOS/tasks.c **** 				else
 911:FreeRTOS/tasks.c **** 				{
 912:FreeRTOS/tasks.c **** 					mtCOVERAGE_TEST_MARKER();
 913:FreeRTOS/tasks.c **** 				}
 914:FreeRTOS/tasks.c **** 				prvAddCurrentTaskToDelayedList( xTimeToWake );
 909              		.loc 1 914 0
 910 0058 B868     		ldr	r0, [r7, #8]	@, xTimeToWake
 911 005a FFF7FEFF 		bl	prvAddCurrentTaskToDelayedList	@
 912              	@ FreeRTOS/tasks.c:916: 			xAlreadyYielded = xTaskResumeAll();
 915:FreeRTOS/tasks.c **** 			}
 916:FreeRTOS/tasks.c **** 			xAlreadyYielded = xTaskResumeAll();
 913              		.loc 1 916 0
 914 005e FFF7FEFF 		bl	xTaskResumeAll	@
 915 0062 F860     		str	r0, [r7, #12]	@, xAlreadyYielded
 916              	.L47:
 917              	@ FreeRTOS/tasks.c:925: 		if( xAlreadyYielded == pdFALSE )
 917:FreeRTOS/tasks.c **** 		}
 918:FreeRTOS/tasks.c **** 		else
 919:FreeRTOS/tasks.c **** 		{
 920:FreeRTOS/tasks.c **** 			mtCOVERAGE_TEST_MARKER();
 921:FreeRTOS/tasks.c **** 		}
 922:FreeRTOS/tasks.c **** 
 923:FreeRTOS/tasks.c **** 		/* Force a reschedule if xTaskResumeAll has not already done so, we may
 924:FreeRTOS/tasks.c **** 		have put ourselves to sleep. */
 925:FreeRTOS/tasks.c **** 		if( xAlreadyYielded == pdFALSE )
 918              		.loc 1 925 0
 919 0064 FB68     		ldr	r3, [r7, #12]	@ tmp132, xAlreadyYielded
 920 0066 002B     		cmp	r3, #0	@ tmp132,
 921 0068 01D1     		bne	.L52	@,
 922              	@ FreeRTOS/tasks.c:927: 			portYIELD_WITHIN_API();
 926:FreeRTOS/tasks.c **** 		{
 927:FreeRTOS/tasks.c **** 			portYIELD_WITHIN_API();
 923              		.loc 1 927 0
 924 006a FFF7FEFF 		bl	vPortYield	@
 925              	.L52:
 926              	@ FreeRTOS/tasks.c:933: 	}
 928:FreeRTOS/tasks.c **** 		}
ARM GAS  /tmp/ccTV2SzP.s 			page 34


 929:FreeRTOS/tasks.c **** 		else
 930:FreeRTOS/tasks.c **** 		{
 931:FreeRTOS/tasks.c **** 			mtCOVERAGE_TEST_MARKER();
 932:FreeRTOS/tasks.c **** 		}
 933:FreeRTOS/tasks.c **** 	}
 927              		.loc 1 933 0
 928 006e 00BF     		nop
 929 0070 1037     		adds	r7, r7, #16	@,,
 930              		.cfi_def_cfa_offset 8
 931 0072 BD46     		mov	sp, r7	@,
 932              		.cfi_def_cfa_register 13
 933              		@ sp needed	@
 934 0074 80BD     		pop	{r7, pc}	@
 935              	.L54:
 936 0076 00BF     		.align	2
 937              	.L53:
 938 0078 00000000 		.word	uxSchedulerSuspended
 939 007c 00000000 		.word	xTickCount
 940 0080 00000000 		.word	pxCurrentTCB
 941 0084 00000000 		.word	uxTopReadyPriority
 942              		.cfi_endproc
 943              	.LFE4:
 944              		.size	vTaskDelay, .-vTaskDelay
 945              		.section	.text.uxTaskPriorityGet,"ax",%progbits
 946              		.align	1
 947              		.global	uxTaskPriorityGet
 948              		.syntax unified
 949              		.thumb
 950              		.thumb_func
 951              		.fpu softvfp
 952              		.type	uxTaskPriorityGet, %function
 953              	uxTaskPriorityGet:
 954              	.LFB5:
 934:FreeRTOS/tasks.c **** 
 935:FreeRTOS/tasks.c **** #endif /* INCLUDE_vTaskDelay */
 936:FreeRTOS/tasks.c **** /*-----------------------------------------------------------*/
 937:FreeRTOS/tasks.c **** 
 938:FreeRTOS/tasks.c **** #if ( INCLUDE_eTaskGetState == 1 )
 939:FreeRTOS/tasks.c **** 
 940:FreeRTOS/tasks.c **** 	eTaskState eTaskGetState( TaskHandle_t xTask )
 941:FreeRTOS/tasks.c **** 	{
 942:FreeRTOS/tasks.c **** 	eTaskState eReturn;
 943:FreeRTOS/tasks.c **** 	List_t *pxStateList;
 944:FreeRTOS/tasks.c **** 	const TCB_t * const pxTCB = ( TCB_t * ) xTask;
 945:FreeRTOS/tasks.c **** 
 946:FreeRTOS/tasks.c **** 		configASSERT( pxTCB );
 947:FreeRTOS/tasks.c **** 
 948:FreeRTOS/tasks.c **** 		if( pxTCB == pxCurrentTCB )
 949:FreeRTOS/tasks.c **** 		{
 950:FreeRTOS/tasks.c **** 			/* The task calling this function is querying its own state. */
 951:FreeRTOS/tasks.c **** 			eReturn = eRunning;
 952:FreeRTOS/tasks.c **** 		}
 953:FreeRTOS/tasks.c **** 		else
 954:FreeRTOS/tasks.c **** 		{
 955:FreeRTOS/tasks.c **** 			taskENTER_CRITICAL();
 956:FreeRTOS/tasks.c **** 			{
 957:FreeRTOS/tasks.c **** 				pxStateList = ( List_t * ) listLIST_ITEM_CONTAINER( &( pxTCB->xGenericListItem ) );
ARM GAS  /tmp/ccTV2SzP.s 			page 35


 958:FreeRTOS/tasks.c **** 			}
 959:FreeRTOS/tasks.c **** 			taskEXIT_CRITICAL();
 960:FreeRTOS/tasks.c **** 
 961:FreeRTOS/tasks.c **** 			if( ( pxStateList == pxDelayedTaskList ) || ( pxStateList == pxOverflowDelayedTaskList ) )
 962:FreeRTOS/tasks.c **** 			{
 963:FreeRTOS/tasks.c **** 				/* The task being queried is referenced from one of the Blocked
 964:FreeRTOS/tasks.c **** 				lists. */
 965:FreeRTOS/tasks.c **** 				eReturn = eBlocked;
 966:FreeRTOS/tasks.c **** 			}
 967:FreeRTOS/tasks.c **** 
 968:FreeRTOS/tasks.c **** 			#if ( INCLUDE_vTaskSuspend == 1 )
 969:FreeRTOS/tasks.c **** 				else if( pxStateList == &xSuspendedTaskList )
 970:FreeRTOS/tasks.c **** 				{
 971:FreeRTOS/tasks.c **** 					/* The task being queried is referenced from the suspended
 972:FreeRTOS/tasks.c **** 					list.  Is it genuinely suspended or is it block
 973:FreeRTOS/tasks.c **** 					indefinitely? */
 974:FreeRTOS/tasks.c **** 					if( listLIST_ITEM_CONTAINER( &( pxTCB->xEventListItem ) ) == NULL )
 975:FreeRTOS/tasks.c **** 					{
 976:FreeRTOS/tasks.c **** 						eReturn = eSuspended;
 977:FreeRTOS/tasks.c **** 					}
 978:FreeRTOS/tasks.c **** 					else
 979:FreeRTOS/tasks.c **** 					{
 980:FreeRTOS/tasks.c **** 						eReturn = eBlocked;
 981:FreeRTOS/tasks.c **** 					}
 982:FreeRTOS/tasks.c **** 				}
 983:FreeRTOS/tasks.c **** 			#endif
 984:FreeRTOS/tasks.c **** 
 985:FreeRTOS/tasks.c **** 			#if ( INCLUDE_vTaskDelete == 1 )
 986:FreeRTOS/tasks.c **** 				else if( pxStateList == &xTasksWaitingTermination )
 987:FreeRTOS/tasks.c **** 				{
 988:FreeRTOS/tasks.c **** 					/* The task being queried is referenced from the deleted
 989:FreeRTOS/tasks.c **** 					tasks list. */
 990:FreeRTOS/tasks.c **** 					eReturn = eDeleted;
 991:FreeRTOS/tasks.c **** 				}
 992:FreeRTOS/tasks.c **** 			#endif
 993:FreeRTOS/tasks.c **** 
 994:FreeRTOS/tasks.c **** 			else
 995:FreeRTOS/tasks.c **** 			{
 996:FreeRTOS/tasks.c **** 				/* If the task is not in any other state, it must be in the
 997:FreeRTOS/tasks.c **** 				Ready (including pending ready) state. */
 998:FreeRTOS/tasks.c **** 				eReturn = eReady;
 999:FreeRTOS/tasks.c **** 			}
1000:FreeRTOS/tasks.c **** 		}
1001:FreeRTOS/tasks.c **** 
1002:FreeRTOS/tasks.c **** 		return eReturn;
1003:FreeRTOS/tasks.c **** 	} /*lint !e818 xTask cannot be a pointer to const because it is a typedef. */
1004:FreeRTOS/tasks.c **** 
1005:FreeRTOS/tasks.c **** #endif /* INCLUDE_eTaskGetState */
1006:FreeRTOS/tasks.c **** /*-----------------------------------------------------------*/
1007:FreeRTOS/tasks.c **** 
1008:FreeRTOS/tasks.c **** #if ( INCLUDE_uxTaskPriorityGet == 1 )
1009:FreeRTOS/tasks.c **** 
1010:FreeRTOS/tasks.c **** 	UBaseT_t uxTaskPriorityGet( TaskHandle_t xTask )
1011:FreeRTOS/tasks.c **** 	{
 955              		.loc 1 1011 0
 956              		.cfi_startproc
 957              		@ args = 0, pretend = 0, frame = 16
ARM GAS  /tmp/ccTV2SzP.s 			page 36


 958              		@ frame_needed = 1, uses_anonymous_args = 0
 959 0000 80B5     		push	{r7, lr}	@
 960              		.cfi_def_cfa_offset 8
 961              		.cfi_offset 7, -8
 962              		.cfi_offset 14, -4
 963 0002 84B0     		sub	sp, sp, #16	@,,
 964              		.cfi_def_cfa_offset 24
 965 0004 00AF     		add	r7, sp, #0	@,,
 966              		.cfi_def_cfa_register 7
 967 0006 7860     		str	r0, [r7, #4]	@ xTask, xTask
 968              	@ FreeRTOS/tasks.c:1015: 		taskENTER_CRITICAL();
1012:FreeRTOS/tasks.c **** 	TCB_t *pxTCB;
1013:FreeRTOS/tasks.c **** 	UBaseT_t uxReturn;
1014:FreeRTOS/tasks.c **** 
1015:FreeRTOS/tasks.c **** 		taskENTER_CRITICAL();
 969              		.loc 1 1015 0
 970 0008 FFF7FEFF 		bl	vPortEnterCritical	@
 971              	@ FreeRTOS/tasks.c:1019: 			pxTCB = prvGetTCBFromHandle( xTask );
1016:FreeRTOS/tasks.c **** 		{
1017:FreeRTOS/tasks.c **** 			/* If null is passed in here then we are changing the
1018:FreeRTOS/tasks.c **** 			priority of the calling function. */
1019:FreeRTOS/tasks.c **** 			pxTCB = prvGetTCBFromHandle( xTask );
 972              		.loc 1 1019 0
 973 000c 7B68     		ldr	r3, [r7, #4]	@ tmp113, xTask
 974 000e 002B     		cmp	r3, #0	@ tmp113,
 975 0010 02D1     		bne	.L56	@,
 976              	@ FreeRTOS/tasks.c:1019: 			pxTCB = prvGetTCBFromHandle( xTask );
 977              		.loc 1 1019 0 is_stmt 0 discriminator 1
 978 0012 074B     		ldr	r3, .L59	@ tmp114,
 979 0014 1B68     		ldr	r3, [r3]	@ iftmp.28_1, pxCurrentTCB
 980 0016 00E0     		b	.L57	@
 981              	.L56:
 982              	@ FreeRTOS/tasks.c:1019: 			pxTCB = prvGetTCBFromHandle( xTask );
 983              		.loc 1 1019 0 discriminator 2
 984 0018 7B68     		ldr	r3, [r7, #4]	@ iftmp.28_1, xTask
 985              	.L57:
 986              	@ FreeRTOS/tasks.c:1019: 			pxTCB = prvGetTCBFromHandle( xTask );
 987              		.loc 1 1019 0 discriminator 4
 988 001a FB60     		str	r3, [r7, #12]	@ iftmp.28_1, pxTCB
 989              	@ FreeRTOS/tasks.c:1020: 			uxReturn = pxTCB->uxPriority;
1020:FreeRTOS/tasks.c **** 			uxReturn = pxTCB->uxPriority;
 990              		.loc 1 1020 0 is_stmt 1 discriminator 4
 991 001c FB68     		ldr	r3, [r7, #12]	@ tmp115, pxTCB
 992 001e DB6A     		ldr	r3, [r3, #44]	@ tmp116, pxTCB_7->uxPriority
 993 0020 BB60     		str	r3, [r7, #8]	@ tmp116, uxReturn
 994              	@ FreeRTOS/tasks.c:1022: 		taskEXIT_CRITICAL();
1021:FreeRTOS/tasks.c **** 		}
1022:FreeRTOS/tasks.c **** 		taskEXIT_CRITICAL();
 995              		.loc 1 1022 0 discriminator 4
 996 0022 FFF7FEFF 		bl	vPortExitCritical	@
 997              	@ FreeRTOS/tasks.c:1024: 		return uxReturn;
1023:FreeRTOS/tasks.c **** 
1024:FreeRTOS/tasks.c **** 		return uxReturn;
 998              		.loc 1 1024 0 discriminator 4
 999 0026 BB68     		ldr	r3, [r7, #8]	@ _10, uxReturn
 1000              	@ FreeRTOS/tasks.c:1025: 	}
1025:FreeRTOS/tasks.c **** 	}
ARM GAS  /tmp/ccTV2SzP.s 			page 37


 1001              		.loc 1 1025 0 discriminator 4
 1002 0028 1846     		mov	r0, r3	@, <retval>
 1003 002a 1037     		adds	r7, r7, #16	@,,
 1004              		.cfi_def_cfa_offset 8
 1005 002c BD46     		mov	sp, r7	@,
 1006              		.cfi_def_cfa_register 13
 1007              		@ sp needed	@
 1008 002e 80BD     		pop	{r7, pc}	@
 1009              	.L60:
 1010              		.align	2
 1011              	.L59:
 1012 0030 00000000 		.word	pxCurrentTCB
 1013              		.cfi_endproc
 1014              	.LFE5:
 1015              		.size	uxTaskPriorityGet, .-uxTaskPriorityGet
 1016              		.section	.text.vTaskPrioritySet,"ax",%progbits
 1017              		.align	1
 1018              		.global	vTaskPrioritySet
 1019              		.syntax unified
 1020              		.thumb
 1021              		.thumb_func
 1022              		.fpu softvfp
 1023              		.type	vTaskPrioritySet, %function
 1024              	vTaskPrioritySet:
 1025              	.LFB6:
1026:FreeRTOS/tasks.c **** 
1027:FreeRTOS/tasks.c **** #endif /* INCLUDE_uxTaskPriorityGet */
1028:FreeRTOS/tasks.c **** /*-----------------------------------------------------------*/
1029:FreeRTOS/tasks.c **** 
1030:FreeRTOS/tasks.c **** #if ( INCLUDE_vTaskPrioritySet == 1 )
1031:FreeRTOS/tasks.c **** 
1032:FreeRTOS/tasks.c **** 	void vTaskPrioritySet( TaskHandle_t xTask, UBaseT_t uxNewPriority )
1033:FreeRTOS/tasks.c **** 	{
 1026              		.loc 1 1033 0
 1027              		.cfi_startproc
 1028              		@ args = 0, pretend = 0, frame = 24
 1029              		@ frame_needed = 1, uses_anonymous_args = 0
 1030 0000 80B5     		push	{r7, lr}	@
 1031              		.cfi_def_cfa_offset 8
 1032              		.cfi_offset 7, -8
 1033              		.cfi_offset 14, -4
 1034 0002 86B0     		sub	sp, sp, #24	@,,
 1035              		.cfi_def_cfa_offset 32
 1036 0004 00AF     		add	r7, sp, #0	@,,
 1037              		.cfi_def_cfa_register 7
 1038 0006 7860     		str	r0, [r7, #4]	@ xTask, xTask
 1039 0008 3960     		str	r1, [r7]	@ uxNewPriority, uxNewPriority
 1040              	@ FreeRTOS/tasks.c:1036: 	BaseT_t xYieldRequired = pdFALSE;
1034:FreeRTOS/tasks.c **** 	TCB_t *pxTCB;
1035:FreeRTOS/tasks.c **** 	UBaseT_t uxCurrentBasePriority, uxPriorityUsedOnEntry;
1036:FreeRTOS/tasks.c **** 	BaseT_t xYieldRequired = pdFALSE;
 1041              		.loc 1 1036 0
 1042 000a 0023     		movs	r3, #0	@ tmp136,
 1043 000c 7B61     		str	r3, [r7, #20]	@ tmp136, xYieldRequired
 1044              	@ FreeRTOS/tasks.c:1038: 		configASSERT( ( uxNewPriority < configMAX_PRIORITIES ) );
1037:FreeRTOS/tasks.c **** 
1038:FreeRTOS/tasks.c **** 		configASSERT( ( uxNewPriority < configMAX_PRIORITIES ) );
ARM GAS  /tmp/ccTV2SzP.s 			page 38


 1045              		.loc 1 1038 0
 1046 000e 3B68     		ldr	r3, [r7]	@ tmp137, uxNewPriority
 1047 0010 072B     		cmp	r3, #7	@ tmp137,
 1048 0012 02D9     		bls	.L62	@,
 1049              	@ FreeRTOS/tasks.c:1038: 		configASSERT( ( uxNewPriority < configMAX_PRIORITIES ) );
 1050              		.loc 1 1038 0 is_stmt 0 discriminator 1
 1051 0014 FFF7FEFF 		bl	ulPortSetInterruptMask	@
 1052              	.L63:
 1053 0018 FEE7     		b	.L63	@
 1054              	.L62:
 1055              	@ FreeRTOS/tasks.c:1041: 		if( uxNewPriority >= ( UBaseT_t ) configMAX_PRIORITIES )
1039:FreeRTOS/tasks.c **** 
1040:FreeRTOS/tasks.c **** 		/* Ensure the new priority is valid. */
1041:FreeRTOS/tasks.c **** 		if( uxNewPriority >= ( UBaseT_t ) configMAX_PRIORITIES )
 1056              		.loc 1 1041 0 is_stmt 1
 1057 001a 3B68     		ldr	r3, [r7]	@ tmp138, uxNewPriority
 1058 001c 072B     		cmp	r3, #7	@ tmp138,
 1059 001e 01D9     		bls	.L64	@,
 1060              	@ FreeRTOS/tasks.c:1043: 			uxNewPriority = ( UBaseT_t ) configMAX_PRIORITIES - ( UBaseT_t ) 1U;
1042:FreeRTOS/tasks.c **** 		{
1043:FreeRTOS/tasks.c **** 			uxNewPriority = ( UBaseT_t ) configMAX_PRIORITIES - ( UBaseT_t ) 1U;
 1061              		.loc 1 1043 0
 1062 0020 0723     		movs	r3, #7	@ tmp139,
 1063 0022 3B60     		str	r3, [r7]	@ tmp139, uxNewPriority
 1064              	.L64:
 1065              	@ FreeRTOS/tasks.c:1050: 		taskENTER_CRITICAL();
1044:FreeRTOS/tasks.c **** 		}
1045:FreeRTOS/tasks.c **** 		else
1046:FreeRTOS/tasks.c **** 		{
1047:FreeRTOS/tasks.c **** 			mtCOVERAGE_TEST_MARKER();
1048:FreeRTOS/tasks.c **** 		}
1049:FreeRTOS/tasks.c **** 
1050:FreeRTOS/tasks.c **** 		taskENTER_CRITICAL();
 1066              		.loc 1 1050 0
 1067 0024 FFF7FEFF 		bl	vPortEnterCritical	@
 1068              	@ FreeRTOS/tasks.c:1054: 			pxTCB = prvGetTCBFromHandle( xTask );
1051:FreeRTOS/tasks.c **** 		{
1052:FreeRTOS/tasks.c **** 			/* If null is passed in here then it is the priority of the calling
1053:FreeRTOS/tasks.c **** 			task that is being changed. */
1054:FreeRTOS/tasks.c **** 			pxTCB = prvGetTCBFromHandle( xTask );
 1069              		.loc 1 1054 0
 1070 0028 7B68     		ldr	r3, [r7, #4]	@ tmp140, xTask
 1071 002a 002B     		cmp	r3, #0	@ tmp140,
 1072 002c 02D1     		bne	.L65	@,
 1073              	@ FreeRTOS/tasks.c:1054: 			pxTCB = prvGetTCBFromHandle( xTask );
 1074              		.loc 1 1054 0 is_stmt 0 discriminator 1
 1075 002e 404B     		ldr	r3, .L76	@ tmp141,
 1076 0030 1B68     		ldr	r3, [r3]	@ iftmp.29_27, pxCurrentTCB
 1077 0032 00E0     		b	.L66	@
 1078              	.L65:
 1079              	@ FreeRTOS/tasks.c:1054: 			pxTCB = prvGetTCBFromHandle( xTask );
 1080              		.loc 1 1054 0 discriminator 2
 1081 0034 7B68     		ldr	r3, [r7, #4]	@ iftmp.29_27, xTask
 1082              	.L66:
 1083              	@ FreeRTOS/tasks.c:1054: 			pxTCB = prvGetTCBFromHandle( xTask );
 1084              		.loc 1 1054 0 discriminator 4
 1085 0036 3B61     		str	r3, [r7, #16]	@ iftmp.29_27, pxTCB
ARM GAS  /tmp/ccTV2SzP.s 			page 39


 1086              	@ FreeRTOS/tasks.c:1060: 				uxCurrentBasePriority = pxTCB->uxBasePriority;
1055:FreeRTOS/tasks.c **** 
1056:FreeRTOS/tasks.c **** 			traceTASK_PRIORITY_SET( pxTCB, uxNewPriority );
1057:FreeRTOS/tasks.c **** 
1058:FreeRTOS/tasks.c **** 			#if ( configUSE_MUTEXES == 1 )
1059:FreeRTOS/tasks.c **** 			{
1060:FreeRTOS/tasks.c **** 				uxCurrentBasePriority = pxTCB->uxBasePriority;
 1087              		.loc 1 1060 0 is_stmt 1 discriminator 4
 1088 0038 3B69     		ldr	r3, [r7, #16]	@ tmp142, pxTCB
 1089 003a 9B6C     		ldr	r3, [r3, #72]	@ tmp143, pxTCB_42->uxBasePriority
 1090 003c FB60     		str	r3, [r7, #12]	@ tmp143, uxCurrentBasePriority
 1091              	@ FreeRTOS/tasks.c:1068: 			if( uxCurrentBasePriority != uxNewPriority )
1061:FreeRTOS/tasks.c **** 			}
1062:FreeRTOS/tasks.c **** 			#else
1063:FreeRTOS/tasks.c **** 			{
1064:FreeRTOS/tasks.c **** 				uxCurrentBasePriority = pxTCB->uxPriority;
1065:FreeRTOS/tasks.c **** 			}
1066:FreeRTOS/tasks.c **** 			#endif
1067:FreeRTOS/tasks.c **** 
1068:FreeRTOS/tasks.c **** 			if( uxCurrentBasePriority != uxNewPriority )
 1092              		.loc 1 1068 0 discriminator 4
 1093 003e FA68     		ldr	r2, [r7, #12]	@ tmp144, uxCurrentBasePriority
 1094 0040 3B68     		ldr	r3, [r7]	@ tmp145, uxNewPriority
 1095 0042 9A42     		cmp	r2, r3	@ tmp144, tmp145
 1096 0044 6ED0     		beq	.L67	@,
 1097              	@ FreeRTOS/tasks.c:1072: 				if( uxNewPriority > uxCurrentBasePriority )
1069:FreeRTOS/tasks.c **** 			{
1070:FreeRTOS/tasks.c **** 				/* The priority change may have readied a task of higher
1071:FreeRTOS/tasks.c **** 				priority than the calling task. */
1072:FreeRTOS/tasks.c **** 				if( uxNewPriority > uxCurrentBasePriority )
 1098              		.loc 1 1072 0
 1099 0046 3A68     		ldr	r2, [r7]	@ tmp146, uxNewPriority
 1100 0048 FB68     		ldr	r3, [r7, #12]	@ tmp147, uxCurrentBasePriority
 1101 004a 9A42     		cmp	r2, r3	@ tmp146, tmp147
 1102 004c 0DD9     		bls	.L68	@,
 1103              	@ FreeRTOS/tasks.c:1074: 					if( pxTCB != pxCurrentTCB )
1073:FreeRTOS/tasks.c **** 				{
1074:FreeRTOS/tasks.c **** 					if( pxTCB != pxCurrentTCB )
 1104              		.loc 1 1074 0
 1105 004e 384B     		ldr	r3, .L76	@ tmp148,
 1106 0050 1B68     		ldr	r3, [r3]	@ pxCurrentTCB.30_1, pxCurrentTCB
 1107 0052 3A69     		ldr	r2, [r7, #16]	@ tmp149, pxTCB
 1108 0054 9A42     		cmp	r2, r3	@ tmp149, pxCurrentTCB.30_1
 1109 0056 0FD0     		beq	.L69	@,
 1110              	@ FreeRTOS/tasks.c:1079: 						if( uxNewPriority >= pxCurrentTCB->uxPriority )
1075:FreeRTOS/tasks.c **** 					{
1076:FreeRTOS/tasks.c **** 						/* The priority of a task other than the currently
1077:FreeRTOS/tasks.c **** 						running task is being raised.  Is the priority being
1078:FreeRTOS/tasks.c **** 						raised above that of the running task? */
1079:FreeRTOS/tasks.c **** 						if( uxNewPriority >= pxCurrentTCB->uxPriority )
 1111              		.loc 1 1079 0
 1112 0058 354B     		ldr	r3, .L76	@ tmp150,
 1113 005a 1B68     		ldr	r3, [r3]	@ pxCurrentTCB.31_2, pxCurrentTCB
 1114 005c DB6A     		ldr	r3, [r3, #44]	@ _3, pxCurrentTCB.31_2->uxPriority
 1115 005e 3A68     		ldr	r2, [r7]	@ tmp151, uxNewPriority
 1116 0060 9A42     		cmp	r2, r3	@ tmp151, _3
 1117 0062 09D3     		bcc	.L69	@,
ARM GAS  /tmp/ccTV2SzP.s 			page 40


 1118              	@ FreeRTOS/tasks.c:1081: 							xYieldRequired = pdTRUE;
1080:FreeRTOS/tasks.c **** 						{
1081:FreeRTOS/tasks.c **** 							xYieldRequired = pdTRUE;
 1119              		.loc 1 1081 0
 1120 0064 0123     		movs	r3, #1	@ tmp152,
 1121 0066 7B61     		str	r3, [r7, #20]	@ tmp152, xYieldRequired
 1122 0068 06E0     		b	.L69	@
 1123              	.L68:
 1124              	@ FreeRTOS/tasks.c:1095: 				else if( pxTCB == pxCurrentTCB )
1082:FreeRTOS/tasks.c **** 						}
1083:FreeRTOS/tasks.c **** 						else
1084:FreeRTOS/tasks.c **** 						{
1085:FreeRTOS/tasks.c **** 							mtCOVERAGE_TEST_MARKER();
1086:FreeRTOS/tasks.c **** 						}
1087:FreeRTOS/tasks.c **** 					}
1088:FreeRTOS/tasks.c **** 					else
1089:FreeRTOS/tasks.c **** 					{
1090:FreeRTOS/tasks.c **** 						/* The priority of the running task is being raised,
1091:FreeRTOS/tasks.c **** 						but the running task must already be the highest
1092:FreeRTOS/tasks.c **** 						priority task able to run so no yield is required. */
1093:FreeRTOS/tasks.c **** 					}
1094:FreeRTOS/tasks.c **** 				}
1095:FreeRTOS/tasks.c **** 				else if( pxTCB == pxCurrentTCB )
 1125              		.loc 1 1095 0
 1126 006a 314B     		ldr	r3, .L76	@ tmp153,
 1127 006c 1B68     		ldr	r3, [r3]	@ pxCurrentTCB.32_4, pxCurrentTCB
 1128 006e 3A69     		ldr	r2, [r7, #16]	@ tmp154, pxTCB
 1129 0070 9A42     		cmp	r2, r3	@ tmp154, pxCurrentTCB.32_4
 1130 0072 01D1     		bne	.L69	@,
 1131              	@ FreeRTOS/tasks.c:1100: 					xYieldRequired = pdTRUE;
1096:FreeRTOS/tasks.c **** 				{
1097:FreeRTOS/tasks.c **** 					/* Setting the priority of the running task down means
1098:FreeRTOS/tasks.c **** 					there may now be another task of higher priority that
1099:FreeRTOS/tasks.c **** 					is ready to execute. */
1100:FreeRTOS/tasks.c **** 					xYieldRequired = pdTRUE;
 1132              		.loc 1 1100 0
 1133 0074 0123     		movs	r3, #1	@ tmp155,
 1134 0076 7B61     		str	r3, [r7, #20]	@ tmp155, xYieldRequired
 1135              	.L69:
 1136              	@ FreeRTOS/tasks.c:1112: 				uxPriorityUsedOnEntry = pxTCB->uxPriority;
1101:FreeRTOS/tasks.c **** 				}
1102:FreeRTOS/tasks.c **** 				else
1103:FreeRTOS/tasks.c **** 				{
1104:FreeRTOS/tasks.c **** 					/* Setting the priority of any other task down does not
1105:FreeRTOS/tasks.c **** 					require a yield as the running task must be above the
1106:FreeRTOS/tasks.c **** 					new priority of the task being modified. */
1107:FreeRTOS/tasks.c **** 				}
1108:FreeRTOS/tasks.c **** 
1109:FreeRTOS/tasks.c **** 				/* Remember the ready list the task might be referenced from
1110:FreeRTOS/tasks.c **** 				before its uxPriority member is changed so the
1111:FreeRTOS/tasks.c **** 				taskRESET_READY_PRIORITY() macro can function correctly. */
1112:FreeRTOS/tasks.c **** 				uxPriorityUsedOnEntry = pxTCB->uxPriority;
 1137              		.loc 1 1112 0
 1138 0078 3B69     		ldr	r3, [r7, #16]	@ tmp156, pxTCB
 1139 007a DB6A     		ldr	r3, [r3, #44]	@ tmp157, pxTCB_42->uxPriority
 1140 007c BB60     		str	r3, [r7, #8]	@ tmp157, uxPriorityUsedOnEntry
 1141              	@ FreeRTOS/tasks.c:1118: 					if( pxTCB->uxBasePriority == pxTCB->uxPriority )
ARM GAS  /tmp/ccTV2SzP.s 			page 41


1113:FreeRTOS/tasks.c **** 
1114:FreeRTOS/tasks.c **** 				#if ( configUSE_MUTEXES == 1 )
1115:FreeRTOS/tasks.c **** 				{
1116:FreeRTOS/tasks.c **** 					/* Only change the priority being used if the task is not
1117:FreeRTOS/tasks.c **** 					currently using an inherited priority. */
1118:FreeRTOS/tasks.c **** 					if( pxTCB->uxBasePriority == pxTCB->uxPriority )
 1142              		.loc 1 1118 0
 1143 007e 3B69     		ldr	r3, [r7, #16]	@ tmp158, pxTCB
 1144 0080 9A6C     		ldr	r2, [r3, #72]	@ _5, pxTCB_42->uxBasePriority
 1145 0082 3B69     		ldr	r3, [r7, #16]	@ tmp159, pxTCB
 1146 0084 DB6A     		ldr	r3, [r3, #44]	@ _6, pxTCB_42->uxPriority
 1147 0086 9A42     		cmp	r2, r3	@ _5, _6
 1148 0088 02D1     		bne	.L70	@,
 1149              	@ FreeRTOS/tasks.c:1120: 						pxTCB->uxPriority = uxNewPriority;
1119:FreeRTOS/tasks.c **** 					{
1120:FreeRTOS/tasks.c **** 						pxTCB->uxPriority = uxNewPriority;
 1150              		.loc 1 1120 0
 1151 008a 3B69     		ldr	r3, [r7, #16]	@ tmp160, pxTCB
 1152 008c 3A68     		ldr	r2, [r7]	@ tmp161, uxNewPriority
 1153 008e DA62     		str	r2, [r3, #44]	@ tmp161, pxTCB_42->uxPriority
 1154              	.L70:
 1155              	@ FreeRTOS/tasks.c:1128: 					pxTCB->uxBasePriority = uxNewPriority;
1121:FreeRTOS/tasks.c **** 					}
1122:FreeRTOS/tasks.c **** 					else
1123:FreeRTOS/tasks.c **** 					{
1124:FreeRTOS/tasks.c **** 						mtCOVERAGE_TEST_MARKER();
1125:FreeRTOS/tasks.c **** 					}
1126:FreeRTOS/tasks.c **** 
1127:FreeRTOS/tasks.c **** 					/* The base priority gets set whatever. */
1128:FreeRTOS/tasks.c **** 					pxTCB->uxBasePriority = uxNewPriority;
 1156              		.loc 1 1128 0
 1157 0090 3B69     		ldr	r3, [r7, #16]	@ tmp162, pxTCB
 1158 0092 3A68     		ldr	r2, [r7]	@ tmp163, uxNewPriority
 1159 0094 9A64     		str	r2, [r3, #72]	@ tmp163, pxTCB_42->uxBasePriority
 1160              	@ FreeRTOS/tasks.c:1138: 				if( ( listGET_LIST_ITEM_VALUE( &( pxTCB->xEventListItem ) ) & taskEVEN
1129:FreeRTOS/tasks.c **** 				}
1130:FreeRTOS/tasks.c **** 				#else
1131:FreeRTOS/tasks.c **** 				{
1132:FreeRTOS/tasks.c **** 					pxTCB->uxPriority = uxNewPriority;
1133:FreeRTOS/tasks.c **** 				}
1134:FreeRTOS/tasks.c **** 				#endif
1135:FreeRTOS/tasks.c **** 
1136:FreeRTOS/tasks.c **** 				/* Only reset the event list item value if the value is not
1137:FreeRTOS/tasks.c **** 				being used for anything else. */
1138:FreeRTOS/tasks.c **** 				if( ( listGET_LIST_ITEM_VALUE( &( pxTCB->xEventListItem ) ) & taskEVENT_LIST_ITEM_VALUE_IN_USE 
 1161              		.loc 1 1138 0
 1162 0096 3B69     		ldr	r3, [r7, #16]	@ tmp164, pxTCB
 1163 0098 9B69     		ldr	r3, [r3, #24]	@ _7, pxTCB_42->xEventListItem.xItemValue
 1164 009a 002B     		cmp	r3, #0	@ _8,
 1165 009c 04DB     		blt	.L71	@,
 1166              	@ FreeRTOS/tasks.c:1140: 					listSET_LIST_ITEM_VALUE( &( pxTCB->xEventListItem ), ( ( TickT_t ) co
1139:FreeRTOS/tasks.c **** 				{
1140:FreeRTOS/tasks.c **** 					listSET_LIST_ITEM_VALUE( &( pxTCB->xEventListItem ), ( ( TickT_t ) configMAX_PRIORITIES - ( Ti
 1167              		.loc 1 1140 0
 1168 009e 3B68     		ldr	r3, [r7]	@ tmp165, uxNewPriority
 1169 00a0 C3F10802 		rsb	r2, r3, #8	@ _9, tmp165,
 1170 00a4 3B69     		ldr	r3, [r7, #16]	@ tmp166, pxTCB
ARM GAS  /tmp/ccTV2SzP.s 			page 42


 1171 00a6 9A61     		str	r2, [r3, #24]	@ _9, pxTCB_42->xEventListItem.xItemValue
 1172              	.L71:
 1173              	@ FreeRTOS/tasks.c:1151: 				if( listIS_CONTAINED_WITHIN( &( pxReadyTasksLists[ uxPriorityUsedOnEnt
1141:FreeRTOS/tasks.c **** 				}
1142:FreeRTOS/tasks.c **** 				else
1143:FreeRTOS/tasks.c **** 				{
1144:FreeRTOS/tasks.c **** 					mtCOVERAGE_TEST_MARKER();
1145:FreeRTOS/tasks.c **** 				}
1146:FreeRTOS/tasks.c **** 
1147:FreeRTOS/tasks.c **** 				/* If the task is in the blocked or suspended list we need do
1148:FreeRTOS/tasks.c **** 				nothing more than change it's priority variable. However, if
1149:FreeRTOS/tasks.c **** 				the task is in a ready list it needs to be removed and placed
1150:FreeRTOS/tasks.c **** 				in the list appropriate to its new priority. */
1151:FreeRTOS/tasks.c **** 				if( listIS_CONTAINED_WITHIN( &( pxReadyTasksLists[ uxPriorityUsedOnEntry ] ), &( pxTCB->xGeneri
 1174              		.loc 1 1151 0
 1175 00a8 3B69     		ldr	r3, [r7, #16]	@ tmp167, pxTCB
 1176 00aa 5969     		ldr	r1, [r3, #20]	@ _10, pxTCB_42->xGenericListItem.pvContainer
 1177 00ac BA68     		ldr	r2, [r7, #8]	@ tmp168, uxPriorityUsedOnEntry
 1178 00ae 1346     		mov	r3, r2	@ tmp169, tmp168
 1179 00b0 9B00     		lsls	r3, r3, #2	@ tmp169, tmp169,
 1180 00b2 1344     		add	r3, r3, r2	@ tmp169, tmp168
 1181 00b4 9B00     		lsls	r3, r3, #2	@ tmp170, tmp169,
 1182 00b6 1F4A     		ldr	r2, .L76+4	@ tmp171,
 1183 00b8 1344     		add	r3, r3, r2	@ _11, tmp171
 1184 00ba 9942     		cmp	r1, r3	@ _10, _11
 1185 00bc 01D1     		bne	.L72	@,
 1186              	@ FreeRTOS/tasks.c:1151: 				if( listIS_CONTAINED_WITHIN( &( pxReadyTasksLists[ uxPriorityUsedOnEnt
 1187              		.loc 1 1151 0 is_stmt 0 discriminator 1
 1188 00be 0123     		movs	r3, #1	@ iftmp.33_28,
 1189 00c0 00E0     		b	.L73	@
 1190              	.L72:
 1191              	@ FreeRTOS/tasks.c:1151: 				if( listIS_CONTAINED_WITHIN( &( pxReadyTasksLists[ uxPriorityUsedOnEnt
 1192              		.loc 1 1151 0 discriminator 2
 1193 00c2 0023     		movs	r3, #0	@ iftmp.33_28,
 1194              	.L73:
 1195              	@ FreeRTOS/tasks.c:1151: 				if( listIS_CONTAINED_WITHIN( &( pxReadyTasksLists[ uxPriorityUsedOnEnt
 1196              		.loc 1 1151 0 discriminator 4
 1197 00c4 002B     		cmp	r3, #0	@ iftmp.33_28,
 1198 00c6 28D0     		beq	.L74	@,
 1199              	@ FreeRTOS/tasks.c:1156: 					if( uxListRemove( &( pxTCB->xGenericListItem ) ) == ( UBaseT_t ) 0 )
1152:FreeRTOS/tasks.c **** 				{
1153:FreeRTOS/tasks.c **** 					/* The task is currently in its ready list - remove before adding
1154:FreeRTOS/tasks.c **** 					it to it's new ready list.  As we are in a critical section we
1155:FreeRTOS/tasks.c **** 					can do this even if the scheduler is suspended. */
1156:FreeRTOS/tasks.c **** 					if( uxListRemove( &( pxTCB->xGenericListItem ) ) == ( UBaseT_t ) 0 )
 1200              		.loc 1 1156 0 is_stmt 1
 1201 00c8 3B69     		ldr	r3, [r7, #16]	@ tmp172, pxTCB
 1202 00ca 0433     		adds	r3, r3, #4	@ _12, tmp172,
 1203 00cc 1846     		mov	r0, r3	@, _12
 1204 00ce FFF7FEFF 		bl	uxListRemove	@
 1205 00d2 0346     		mov	r3, r0	@ _13,
 1206 00d4 002B     		cmp	r3, #0	@ _13,
 1207 00d6 09D1     		bne	.L75	@,
 1208              	@ FreeRTOS/tasks.c:1161: 						portRESET_READY_PRIORITY( uxPriorityUsedOnEntry, uxTopReadyPriority 
1157:FreeRTOS/tasks.c **** 					{
1158:FreeRTOS/tasks.c **** 						/* It is known that the task is in its ready list so
1159:FreeRTOS/tasks.c **** 						there is no need to check again and the port level
ARM GAS  /tmp/ccTV2SzP.s 			page 43


1160:FreeRTOS/tasks.c **** 						reset macro can be called directly. */
1161:FreeRTOS/tasks.c **** 						portRESET_READY_PRIORITY( uxPriorityUsedOnEntry, uxTopReadyPriority );
 1209              		.loc 1 1161 0
 1210 00d8 0122     		movs	r2, #1	@ tmp173,
 1211 00da BB68     		ldr	r3, [r7, #8]	@ tmp174, uxPriorityUsedOnEntry
 1212 00dc 02FA03F3 		lsl	r3, r2, r3	@ _14, tmp173, tmp174
 1213 00e0 DA43     		mvns	r2, r3	@ _15, _14
 1214 00e2 154B     		ldr	r3, .L76+8	@ tmp175,
 1215 00e4 1B68     		ldr	r3, [r3]	@ uxTopReadyPriority.34_16, uxTopReadyPriority
 1216 00e6 1340     		ands	r3, r3, r2	@, _17, uxTopReadyPriority.34_16, _15
 1217 00e8 134A     		ldr	r2, .L76+8	@ tmp176,
 1218 00ea 1360     		str	r3, [r2]	@ _17, uxTopReadyPriority
 1219              	.L75:
 1220              	@ FreeRTOS/tasks.c:1167: 					prvAddTaskToReadyList( pxTCB );
1162:FreeRTOS/tasks.c **** 					}
1163:FreeRTOS/tasks.c **** 					else
1164:FreeRTOS/tasks.c **** 					{
1165:FreeRTOS/tasks.c **** 						mtCOVERAGE_TEST_MARKER();
1166:FreeRTOS/tasks.c **** 					}
1167:FreeRTOS/tasks.c **** 					prvAddTaskToReadyList( pxTCB );
 1221              		.loc 1 1167 0
 1222 00ec 3B69     		ldr	r3, [r7, #16]	@ tmp177, pxTCB
 1223 00ee DB6A     		ldr	r3, [r3, #44]	@ _18, pxTCB_42->uxPriority
 1224 00f0 0122     		movs	r2, #1	@ tmp178,
 1225 00f2 9A40     		lsls	r2, r2, r3	@ _19, tmp178, _18
 1226 00f4 104B     		ldr	r3, .L76+8	@ tmp179,
 1227 00f6 1B68     		ldr	r3, [r3]	@ uxTopReadyPriority.35_20, uxTopReadyPriority
 1228 00f8 1343     		orrs	r3, r3, r2	@, _21, uxTopReadyPriority.35_20, _19
 1229 00fa 0F4A     		ldr	r2, .L76+8	@ tmp180,
 1230 00fc 1360     		str	r3, [r2]	@ _21, uxTopReadyPriority
 1231 00fe 3B69     		ldr	r3, [r7, #16]	@ tmp181, pxTCB
 1232 0100 DA6A     		ldr	r2, [r3, #44]	@ _22, pxTCB_42->uxPriority
 1233 0102 1346     		mov	r3, r2	@ tmp182, _22
 1234 0104 9B00     		lsls	r3, r3, #2	@ tmp182, tmp182,
 1235 0106 1344     		add	r3, r3, r2	@ tmp182, _22
 1236 0108 9B00     		lsls	r3, r3, #2	@ tmp183, tmp182,
 1237 010a 0A4A     		ldr	r2, .L76+4	@ tmp184,
 1238 010c 1A44     		add	r2, r2, r3	@ _23, tmp182
 1239 010e 3B69     		ldr	r3, [r7, #16]	@ tmp185, pxTCB
 1240 0110 0433     		adds	r3, r3, #4	@ _24, tmp185,
 1241 0112 1946     		mov	r1, r3	@, _24
 1242 0114 1046     		mov	r0, r2	@, _23
 1243 0116 FFF7FEFF 		bl	vListInsertEnd	@
 1244              	.L74:
 1245              	@ FreeRTOS/tasks.c:1174: 				if( xYieldRequired == pdTRUE )
1168:FreeRTOS/tasks.c **** 				}
1169:FreeRTOS/tasks.c **** 				else
1170:FreeRTOS/tasks.c **** 				{
1171:FreeRTOS/tasks.c **** 					mtCOVERAGE_TEST_MARKER();
1172:FreeRTOS/tasks.c **** 				}
1173:FreeRTOS/tasks.c **** 
1174:FreeRTOS/tasks.c **** 				if( xYieldRequired == pdTRUE )
 1246              		.loc 1 1174 0
 1247 011a 7B69     		ldr	r3, [r7, #20]	@ tmp186, xYieldRequired
 1248 011c 012B     		cmp	r3, #1	@ tmp186,
 1249 011e 01D1     		bne	.L67	@,
 1250              	@ FreeRTOS/tasks.c:1176: 					taskYIELD_IF_USING_PREEMPTION();
ARM GAS  /tmp/ccTV2SzP.s 			page 44


1175:FreeRTOS/tasks.c **** 				{
1176:FreeRTOS/tasks.c **** 					taskYIELD_IF_USING_PREEMPTION();
 1251              		.loc 1 1176 0
 1252 0120 FFF7FEFF 		bl	vPortYield	@
 1253              	.L67:
 1254              	@ FreeRTOS/tasks.c:1188: 		taskEXIT_CRITICAL();
1177:FreeRTOS/tasks.c **** 				}
1178:FreeRTOS/tasks.c **** 				else
1179:FreeRTOS/tasks.c **** 				{
1180:FreeRTOS/tasks.c **** 					mtCOVERAGE_TEST_MARKER();
1181:FreeRTOS/tasks.c **** 				}
1182:FreeRTOS/tasks.c **** 
1183:FreeRTOS/tasks.c **** 				/* Remove compiler warning about unused variables when the port
1184:FreeRTOS/tasks.c **** 				optimised task selection is not being used. */
1185:FreeRTOS/tasks.c **** 				( void ) uxPriorityUsedOnEntry;
1186:FreeRTOS/tasks.c **** 			}
1187:FreeRTOS/tasks.c **** 		}
1188:FreeRTOS/tasks.c **** 		taskEXIT_CRITICAL();
 1255              		.loc 1 1188 0
 1256 0124 FFF7FEFF 		bl	vPortExitCritical	@
 1257              	@ FreeRTOS/tasks.c:1189: 	}
1189:FreeRTOS/tasks.c **** 	}
 1258              		.loc 1 1189 0
 1259 0128 00BF     		nop
 1260 012a 1837     		adds	r7, r7, #24	@,,
 1261              		.cfi_def_cfa_offset 8
 1262 012c BD46     		mov	sp, r7	@,
 1263              		.cfi_def_cfa_register 13
 1264              		@ sp needed	@
 1265 012e 80BD     		pop	{r7, pc}	@
 1266              	.L77:
 1267              		.align	2
 1268              	.L76:
 1269 0130 00000000 		.word	pxCurrentTCB
 1270 0134 00000000 		.word	pxReadyTasksLists
 1271 0138 00000000 		.word	uxTopReadyPriority
 1272              		.cfi_endproc
 1273              	.LFE6:
 1274              		.size	vTaskPrioritySet, .-vTaskPrioritySet
 1275              		.section	.text.vTaskSuspend,"ax",%progbits
 1276              		.align	1
 1277              		.global	vTaskSuspend
 1278              		.syntax unified
 1279              		.thumb
 1280              		.thumb_func
 1281              		.fpu softvfp
 1282              		.type	vTaskSuspend, %function
 1283              	vTaskSuspend:
 1284              	.LFB7:
1190:FreeRTOS/tasks.c **** 
1191:FreeRTOS/tasks.c **** #endif /* INCLUDE_vTaskPrioritySet */
1192:FreeRTOS/tasks.c **** /*-----------------------------------------------------------*/
1193:FreeRTOS/tasks.c **** 
1194:FreeRTOS/tasks.c **** #if ( INCLUDE_vTaskSuspend == 1 )
1195:FreeRTOS/tasks.c **** 
1196:FreeRTOS/tasks.c **** 	void vTaskSuspend( TaskHandle_t xTaskToSuspend )
1197:FreeRTOS/tasks.c **** 	{
ARM GAS  /tmp/ccTV2SzP.s 			page 45


 1285              		.loc 1 1197 0
 1286              		.cfi_startproc
 1287              		@ args = 0, pretend = 0, frame = 16
 1288              		@ frame_needed = 1, uses_anonymous_args = 0
 1289 0000 80B5     		push	{r7, lr}	@
 1290              		.cfi_def_cfa_offset 8
 1291              		.cfi_offset 7, -8
 1292              		.cfi_offset 14, -4
 1293 0002 84B0     		sub	sp, sp, #16	@,,
 1294              		.cfi_def_cfa_offset 24
 1295 0004 00AF     		add	r7, sp, #0	@,,
 1296              		.cfi_def_cfa_register 7
 1297 0006 7860     		str	r0, [r7, #4]	@ xTaskToSuspend, xTaskToSuspend
 1298              	@ FreeRTOS/tasks.c:1200: 		taskENTER_CRITICAL();
1198:FreeRTOS/tasks.c **** 	TCB_t *pxTCB;
1199:FreeRTOS/tasks.c **** 
1200:FreeRTOS/tasks.c **** 		taskENTER_CRITICAL();
 1299              		.loc 1 1200 0
 1300 0008 FFF7FEFF 		bl	vPortEnterCritical	@
 1301              	@ FreeRTOS/tasks.c:1204: 			pxTCB = prvGetTCBFromHandle( xTaskToSuspend );
1201:FreeRTOS/tasks.c **** 		{
1202:FreeRTOS/tasks.c **** 			/* If null is passed in here then it is the running task that is
1203:FreeRTOS/tasks.c **** 			being suspended. */
1204:FreeRTOS/tasks.c **** 			pxTCB = prvGetTCBFromHandle( xTaskToSuspend );
 1302              		.loc 1 1204 0
 1303 000c 7B68     		ldr	r3, [r7, #4]	@ tmp129, xTaskToSuspend
 1304 000e 002B     		cmp	r3, #0	@ tmp129,
 1305 0010 02D1     		bne	.L79	@,
 1306              	@ FreeRTOS/tasks.c:1204: 			pxTCB = prvGetTCBFromHandle( xTaskToSuspend );
 1307              		.loc 1 1204 0 is_stmt 0 discriminator 1
 1308 0012 314B     		ldr	r3, .L92	@ tmp130,
 1309 0014 1B68     		ldr	r3, [r3]	@ iftmp.36_19, pxCurrentTCB
 1310 0016 00E0     		b	.L80	@
 1311              	.L79:
 1312              	@ FreeRTOS/tasks.c:1204: 			pxTCB = prvGetTCBFromHandle( xTaskToSuspend );
 1313              		.loc 1 1204 0 discriminator 2
 1314 0018 7B68     		ldr	r3, [r7, #4]	@ iftmp.36_19, xTaskToSuspend
 1315              	.L80:
 1316              	@ FreeRTOS/tasks.c:1204: 			pxTCB = prvGetTCBFromHandle( xTaskToSuspend );
 1317              		.loc 1 1204 0 discriminator 4
 1318 001a FB60     		str	r3, [r7, #12]	@ iftmp.36_19, pxTCB
 1319              	@ FreeRTOS/tasks.c:1210: 			if( uxListRemove( &( pxTCB->xGenericListItem ) ) == ( UBaseT_t ) 0 )
1205:FreeRTOS/tasks.c **** 
1206:FreeRTOS/tasks.c **** 			traceTASK_SUSPEND( pxTCB );
1207:FreeRTOS/tasks.c **** 
1208:FreeRTOS/tasks.c **** 			/* Remove task from the ready/delayed list and place in the
1209:FreeRTOS/tasks.c **** 			suspended list. */
1210:FreeRTOS/tasks.c **** 			if( uxListRemove( &( pxTCB->xGenericListItem ) ) == ( UBaseT_t ) 0 )
 1320              		.loc 1 1210 0 is_stmt 1 discriminator 4
 1321 001c FB68     		ldr	r3, [r7, #12]	@ tmp131, pxTCB
 1322 001e 0433     		adds	r3, r3, #4	@ _1, tmp131,
 1323 0020 1846     		mov	r0, r3	@, _1
 1324 0022 FFF7FEFF 		bl	uxListRemove	@
 1325 0026 0346     		mov	r3, r0	@ _2,
 1326 0028 002B     		cmp	r3, #0	@ _2,
 1327 002a 15D1     		bne	.L81	@,
 1328              	@ FreeRTOS/tasks.c:1212: 				taskRESET_READY_PRIORITY( pxTCB->uxPriority );
ARM GAS  /tmp/ccTV2SzP.s 			page 46


1211:FreeRTOS/tasks.c **** 			{
1212:FreeRTOS/tasks.c **** 				taskRESET_READY_PRIORITY( pxTCB->uxPriority );
 1329              		.loc 1 1212 0
 1330 002c FB68     		ldr	r3, [r7, #12]	@ tmp132, pxTCB
 1331 002e DA6A     		ldr	r2, [r3, #44]	@ _3, pxTCB_30->uxPriority
 1332 0030 2A49     		ldr	r1, .L92+4	@ tmp133,
 1333 0032 1346     		mov	r3, r2	@ tmp134, _3
 1334 0034 9B00     		lsls	r3, r3, #2	@ tmp134, tmp134,
 1335 0036 1344     		add	r3, r3, r2	@ tmp134, _3
 1336 0038 9B00     		lsls	r3, r3, #2	@ tmp135, tmp134,
 1337 003a 0B44     		add	r3, r3, r1	@ tmp136, tmp133
 1338 003c 1B68     		ldr	r3, [r3]	@ _4, pxReadyTasksLists[_3].uxNumberOfItems
 1339 003e 002B     		cmp	r3, #0	@ _4,
 1340 0040 0AD1     		bne	.L81	@,
 1341              	@ FreeRTOS/tasks.c:1212: 				taskRESET_READY_PRIORITY( pxTCB->uxPriority );
 1342              		.loc 1 1212 0 is_stmt 0 discriminator 1
 1343 0042 FB68     		ldr	r3, [r7, #12]	@ tmp137, pxTCB
 1344 0044 DB6A     		ldr	r3, [r3, #44]	@ _5, pxTCB_30->uxPriority
 1345 0046 0122     		movs	r2, #1	@ tmp138,
 1346 0048 02FA03F3 		lsl	r3, r2, r3	@ _6, tmp138, _5
 1347 004c DA43     		mvns	r2, r3	@ _7, _6
 1348 004e 244B     		ldr	r3, .L92+8	@ tmp139,
 1349 0050 1B68     		ldr	r3, [r3]	@ uxTopReadyPriority.37_8, uxTopReadyPriority
 1350 0052 1340     		ands	r3, r3, r2	@, _9, uxTopReadyPriority.37_8, _7
 1351 0054 224A     		ldr	r2, .L92+8	@ tmp140,
 1352 0056 1360     		str	r3, [r2]	@ _9, uxTopReadyPriority
 1353              	.L81:
 1354              	@ FreeRTOS/tasks.c:1220: 			if( listLIST_ITEM_CONTAINER( &( pxTCB->xEventListItem ) ) != NULL )
1213:FreeRTOS/tasks.c **** 			}
1214:FreeRTOS/tasks.c **** 			else
1215:FreeRTOS/tasks.c **** 			{
1216:FreeRTOS/tasks.c **** 				mtCOVERAGE_TEST_MARKER();
1217:FreeRTOS/tasks.c **** 			}
1218:FreeRTOS/tasks.c **** 
1219:FreeRTOS/tasks.c **** 			/* Is the task waiting on an event also? */
1220:FreeRTOS/tasks.c **** 			if( listLIST_ITEM_CONTAINER( &( pxTCB->xEventListItem ) ) != NULL )
 1355              		.loc 1 1220 0 is_stmt 1
 1356 0058 FB68     		ldr	r3, [r7, #12]	@ tmp141, pxTCB
 1357 005a 9B6A     		ldr	r3, [r3, #40]	@ _10, pxTCB_30->xEventListItem.pvContainer
 1358 005c 002B     		cmp	r3, #0	@ _10,
 1359 005e 04D0     		beq	.L83	@,
 1360              	@ FreeRTOS/tasks.c:1222: 				( void ) uxListRemove( &( pxTCB->xEventListItem ) );
1221:FreeRTOS/tasks.c **** 			{
1222:FreeRTOS/tasks.c **** 				( void ) uxListRemove( &( pxTCB->xEventListItem ) );
 1361              		.loc 1 1222 0
 1362 0060 FB68     		ldr	r3, [r7, #12]	@ tmp142, pxTCB
 1363 0062 1833     		adds	r3, r3, #24	@ _11, tmp142,
 1364 0064 1846     		mov	r0, r3	@, _11
 1365 0066 FFF7FEFF 		bl	uxListRemove	@
 1366              	.L83:
 1367              	@ FreeRTOS/tasks.c:1229: 			vListInsertEnd( &xSuspendedTaskList, &( pxTCB->xGenericListItem ) );
1223:FreeRTOS/tasks.c **** 			}
1224:FreeRTOS/tasks.c **** 			else
1225:FreeRTOS/tasks.c **** 			{
1226:FreeRTOS/tasks.c **** 				mtCOVERAGE_TEST_MARKER();
1227:FreeRTOS/tasks.c **** 			}
1228:FreeRTOS/tasks.c **** 
ARM GAS  /tmp/ccTV2SzP.s 			page 47


1229:FreeRTOS/tasks.c **** 			vListInsertEnd( &xSuspendedTaskList, &( pxTCB->xGenericListItem ) );
 1368              		.loc 1 1229 0
 1369 006a FB68     		ldr	r3, [r7, #12]	@ tmp143, pxTCB
 1370 006c 0433     		adds	r3, r3, #4	@ _12, tmp143,
 1371 006e 1946     		mov	r1, r3	@, _12
 1372 0070 1C48     		ldr	r0, .L92+12	@,
 1373 0072 FFF7FEFF 		bl	vListInsertEnd	@
 1374              	@ FreeRTOS/tasks.c:1231: 		taskEXIT_CRITICAL();
1230:FreeRTOS/tasks.c **** 		}
1231:FreeRTOS/tasks.c **** 		taskEXIT_CRITICAL();
 1375              		.loc 1 1231 0
 1376 0076 FFF7FEFF 		bl	vPortExitCritical	@
 1377              	@ FreeRTOS/tasks.c:1233: 		if( pxTCB == pxCurrentTCB )
1232:FreeRTOS/tasks.c **** 
1233:FreeRTOS/tasks.c **** 		if( pxTCB == pxCurrentTCB )
 1378              		.loc 1 1233 0
 1379 007a 174B     		ldr	r3, .L92	@ tmp144,
 1380 007c 1B68     		ldr	r3, [r3]	@ pxCurrentTCB.38_13, pxCurrentTCB
 1381 007e FA68     		ldr	r2, [r7, #12]	@ tmp145, pxTCB
 1382 0080 9A42     		cmp	r2, r3	@ tmp145, pxCurrentTCB.38_13
 1383 0082 1AD1     		bne	.L84	@,
 1384              	@ FreeRTOS/tasks.c:1235: 			if( xSchedulerRunning != pdFALSE )
1234:FreeRTOS/tasks.c **** 		{
1235:FreeRTOS/tasks.c **** 			if( xSchedulerRunning != pdFALSE )
 1385              		.loc 1 1235 0
 1386 0084 184B     		ldr	r3, .L92+16	@ tmp146,
 1387 0086 1B68     		ldr	r3, [r3]	@ xSchedulerRunning.39_14, xSchedulerRunning
 1388 0088 002B     		cmp	r3, #0	@ xSchedulerRunning.39_14,
 1389 008a 09D0     		beq	.L85	@,
 1390              	@ FreeRTOS/tasks.c:1238: 				configASSERT( uxSchedulerSuspended == 0 );
1236:FreeRTOS/tasks.c **** 			{
1237:FreeRTOS/tasks.c **** 				/* The current task has just been suspended. */
1238:FreeRTOS/tasks.c **** 				configASSERT( uxSchedulerSuspended == 0 );
 1391              		.loc 1 1238 0
 1392 008c 174B     		ldr	r3, .L92+20	@ tmp147,
 1393 008e 1B68     		ldr	r3, [r3]	@ uxSchedulerSuspended.40_15, uxSchedulerSuspended
 1394 0090 002B     		cmp	r3, #0	@ uxSchedulerSuspended.40_15,
 1395 0092 02D0     		beq	.L86	@,
 1396              	@ FreeRTOS/tasks.c:1238: 				configASSERT( uxSchedulerSuspended == 0 );
 1397              		.loc 1 1238 0 is_stmt 0 discriminator 1
 1398 0094 FFF7FEFF 		bl	ulPortSetInterruptMask	@
 1399              	.L87:
 1400 0098 FEE7     		b	.L87	@
 1401              	.L86:
 1402              	@ FreeRTOS/tasks.c:1239: 				portYIELD_WITHIN_API();
1239:FreeRTOS/tasks.c **** 				portYIELD_WITHIN_API();
 1403              		.loc 1 1239 0 is_stmt 1
 1404 009a FFF7FEFF 		bl	vPortYield	@
 1405              	@ FreeRTOS/tasks.c:1278: 	}
1240:FreeRTOS/tasks.c **** 			}
1241:FreeRTOS/tasks.c **** 			else
1242:FreeRTOS/tasks.c **** 			{
1243:FreeRTOS/tasks.c **** 				/* The scheduler is not running, but the task that was pointed
1244:FreeRTOS/tasks.c **** 				to by pxCurrentTCB has just been suspended and pxCurrentTCB
1245:FreeRTOS/tasks.c **** 				must be adjusted to point to a different task. */
1246:FreeRTOS/tasks.c **** 				if( listCURRENT_LIST_LENGTH( &xSuspendedTaskList ) == uxCurrentNumberOfTasks )
1247:FreeRTOS/tasks.c **** 				{
ARM GAS  /tmp/ccTV2SzP.s 			page 48


1248:FreeRTOS/tasks.c **** 					/* No other tasks are ready, so set pxCurrentTCB back to
1249:FreeRTOS/tasks.c **** 					NULL so when the next task is created pxCurrentTCB will
1250:FreeRTOS/tasks.c **** 					be set to point to it no matter what its relative priority
1251:FreeRTOS/tasks.c **** 					is. */
1252:FreeRTOS/tasks.c **** 					pxCurrentTCB = NULL;
1253:FreeRTOS/tasks.c **** 				}
1254:FreeRTOS/tasks.c **** 				else
1255:FreeRTOS/tasks.c **** 				{
1256:FreeRTOS/tasks.c **** 					vTaskSwitchContext();
1257:FreeRTOS/tasks.c **** 				}
1258:FreeRTOS/tasks.c **** 			}
1259:FreeRTOS/tasks.c **** 		}
1260:FreeRTOS/tasks.c **** 		else
1261:FreeRTOS/tasks.c **** 		{
1262:FreeRTOS/tasks.c **** 			if( xSchedulerRunning != pdFALSE )
1263:FreeRTOS/tasks.c **** 			{
1264:FreeRTOS/tasks.c **** 				/* A task other than the currently running task was suspended,
1265:FreeRTOS/tasks.c **** 				reset the next expected unblock time in case it referred to the
1266:FreeRTOS/tasks.c **** 				task that is now in the Suspended state. */
1267:FreeRTOS/tasks.c **** 				taskENTER_CRITICAL();
1268:FreeRTOS/tasks.c **** 				{
1269:FreeRTOS/tasks.c **** 					prvResetNextTaskUnblockTime();
1270:FreeRTOS/tasks.c **** 				}
1271:FreeRTOS/tasks.c **** 				taskEXIT_CRITICAL();
1272:FreeRTOS/tasks.c **** 			}
1273:FreeRTOS/tasks.c **** 			else
1274:FreeRTOS/tasks.c **** 			{
1275:FreeRTOS/tasks.c **** 				mtCOVERAGE_TEST_MARKER();
1276:FreeRTOS/tasks.c **** 			}
1277:FreeRTOS/tasks.c **** 		}
1278:FreeRTOS/tasks.c **** 	}
 1406              		.loc 1 1278 0
 1407 009e 16E0     		b	.L91	@
 1408              	.L85:
 1409              	@ FreeRTOS/tasks.c:1246: 				if( listCURRENT_LIST_LENGTH( &xSuspendedTaskList ) == uxCurrentNumberO
1246:FreeRTOS/tasks.c **** 				{
 1410              		.loc 1 1246 0
 1411 00a0 104B     		ldr	r3, .L92+12	@ tmp148,
 1412 00a2 1A68     		ldr	r2, [r3]	@ _16, xSuspendedTaskList.uxNumberOfItems
 1413 00a4 124B     		ldr	r3, .L92+24	@ tmp149,
 1414 00a6 1B68     		ldr	r3, [r3]	@ uxCurrentNumberOfTasks.41_17, uxCurrentNumberOfTasks
 1415 00a8 9A42     		cmp	r2, r3	@ _16, uxCurrentNumberOfTasks.41_17
 1416 00aa 03D1     		bne	.L89	@,
 1417              	@ FreeRTOS/tasks.c:1252: 					pxCurrentTCB = NULL;
1252:FreeRTOS/tasks.c **** 				}
 1418              		.loc 1 1252 0
 1419 00ac 0A4B     		ldr	r3, .L92	@ tmp150,
 1420 00ae 0022     		movs	r2, #0	@ tmp151,
 1421 00b0 1A60     		str	r2, [r3]	@ tmp151, pxCurrentTCB
 1422              	@ FreeRTOS/tasks.c:1278: 	}
 1423              		.loc 1 1278 0
 1424 00b2 0CE0     		b	.L91	@
 1425              	.L89:
 1426              	@ FreeRTOS/tasks.c:1256: 					vTaskSwitchContext();
1256:FreeRTOS/tasks.c **** 				}
 1427              		.loc 1 1256 0
 1428 00b4 FFF7FEFF 		bl	vTaskSwitchContext	@
ARM GAS  /tmp/ccTV2SzP.s 			page 49


 1429              	@ FreeRTOS/tasks.c:1278: 	}
 1430              		.loc 1 1278 0
 1431 00b8 09E0     		b	.L91	@
 1432              	.L84:
 1433              	@ FreeRTOS/tasks.c:1262: 			if( xSchedulerRunning != pdFALSE )
1262:FreeRTOS/tasks.c **** 			{
 1434              		.loc 1 1262 0
 1435 00ba 0B4B     		ldr	r3, .L92+16	@ tmp152,
 1436 00bc 1B68     		ldr	r3, [r3]	@ xSchedulerRunning.42_18, xSchedulerRunning
 1437 00be 002B     		cmp	r3, #0	@ xSchedulerRunning.42_18,
 1438 00c0 05D0     		beq	.L91	@,
 1439              	@ FreeRTOS/tasks.c:1267: 				taskENTER_CRITICAL();
1267:FreeRTOS/tasks.c **** 				{
 1440              		.loc 1 1267 0
 1441 00c2 FFF7FEFF 		bl	vPortEnterCritical	@
 1442              	@ FreeRTOS/tasks.c:1269: 					prvResetNextTaskUnblockTime();
1269:FreeRTOS/tasks.c **** 				}
 1443              		.loc 1 1269 0
 1444 00c6 FFF7FEFF 		bl	prvResetNextTaskUnblockTime	@
 1445              	@ FreeRTOS/tasks.c:1271: 				taskEXIT_CRITICAL();
1271:FreeRTOS/tasks.c **** 			}
 1446              		.loc 1 1271 0
 1447 00ca FFF7FEFF 		bl	vPortExitCritical	@
 1448              	.L91:
 1449              	@ FreeRTOS/tasks.c:1278: 	}
 1450              		.loc 1 1278 0
 1451 00ce 00BF     		nop
 1452 00d0 1037     		adds	r7, r7, #16	@,,
 1453              		.cfi_def_cfa_offset 8
 1454 00d2 BD46     		mov	sp, r7	@,
 1455              		.cfi_def_cfa_register 13
 1456              		@ sp needed	@
 1457 00d4 80BD     		pop	{r7, pc}	@
 1458              	.L93:
 1459 00d6 00BF     		.align	2
 1460              	.L92:
 1461 00d8 00000000 		.word	pxCurrentTCB
 1462 00dc 00000000 		.word	pxReadyTasksLists
 1463 00e0 00000000 		.word	uxTopReadyPriority
 1464 00e4 00000000 		.word	xSuspendedTaskList
 1465 00e8 00000000 		.word	xSchedulerRunning
 1466 00ec 00000000 		.word	uxSchedulerSuspended
 1467 00f0 00000000 		.word	uxCurrentNumberOfTasks
 1468              		.cfi_endproc
 1469              	.LFE7:
 1470              		.size	vTaskSuspend, .-vTaskSuspend
 1471              		.section	.text.prvTaskIsTaskSuspended,"ax",%progbits
 1472              		.align	1
 1473              		.syntax unified
 1474              		.thumb
 1475              		.thumb_func
 1476              		.fpu softvfp
 1477              		.type	prvTaskIsTaskSuspended, %function
 1478              	prvTaskIsTaskSuspended:
 1479              	.LFB8:
1279:FreeRTOS/tasks.c **** 
1280:FreeRTOS/tasks.c **** #endif /* INCLUDE_vTaskSuspend */
ARM GAS  /tmp/ccTV2SzP.s 			page 50


1281:FreeRTOS/tasks.c **** /*-----------------------------------------------------------*/
1282:FreeRTOS/tasks.c **** 
1283:FreeRTOS/tasks.c **** #if ( INCLUDE_vTaskSuspend == 1 )
1284:FreeRTOS/tasks.c **** 
1285:FreeRTOS/tasks.c **** 	static BaseT_t prvTaskIsTaskSuspended( const TaskHandle_t xTask )
1286:FreeRTOS/tasks.c **** 	{
 1480              		.loc 1 1286 0
 1481              		.cfi_startproc
 1482              		@ args = 0, pretend = 0, frame = 16
 1483              		@ frame_needed = 1, uses_anonymous_args = 0
 1484 0000 80B5     		push	{r7, lr}	@
 1485              		.cfi_def_cfa_offset 8
 1486              		.cfi_offset 7, -8
 1487              		.cfi_offset 14, -4
 1488 0002 84B0     		sub	sp, sp, #16	@,,
 1489              		.cfi_def_cfa_offset 24
 1490 0004 00AF     		add	r7, sp, #0	@,,
 1491              		.cfi_def_cfa_register 7
 1492 0006 7860     		str	r0, [r7, #4]	@ xTask, xTask
 1493              	@ FreeRTOS/tasks.c:1287: 	BaseT_t xReturn = pdFALSE;
1287:FreeRTOS/tasks.c **** 	BaseT_t xReturn = pdFALSE;
 1494              		.loc 1 1287 0
 1495 0008 0023     		movs	r3, #0	@ tmp117,
 1496 000a FB60     		str	r3, [r7, #12]	@ tmp117, xReturn
 1497              	@ FreeRTOS/tasks.c:1288: 	const TCB_t * const pxTCB = ( TCB_t * ) xTask;
1288:FreeRTOS/tasks.c **** 	const TCB_t * const pxTCB = ( TCB_t * ) xTask;
 1498              		.loc 1 1288 0
 1499 000c 7B68     		ldr	r3, [r7, #4]	@ tmp118, xTask
 1500 000e BB60     		str	r3, [r7, #8]	@ tmp118, pxTCB
 1501              	@ FreeRTOS/tasks.c:1294: 		configASSERT( xTask );
1289:FreeRTOS/tasks.c **** 
1290:FreeRTOS/tasks.c **** 		/* Accesses xPendingReadyList so must be called from a critical
1291:FreeRTOS/tasks.c **** 		section. */
1292:FreeRTOS/tasks.c **** 
1293:FreeRTOS/tasks.c **** 		/* It does not make sense to check if the calling task is suspended. */
1294:FreeRTOS/tasks.c **** 		configASSERT( xTask );
 1502              		.loc 1 1294 0
 1503 0010 7B68     		ldr	r3, [r7, #4]	@ tmp119, xTask
 1504 0012 002B     		cmp	r3, #0	@ tmp119,
 1505 0014 02D1     		bne	.L95	@,
 1506              	@ FreeRTOS/tasks.c:1294: 		configASSERT( xTask );
 1507              		.loc 1 1294 0 is_stmt 0 discriminator 1
 1508 0016 FFF7FEFF 		bl	ulPortSetInterruptMask	@
 1509              	.L96:
 1510 001a FEE7     		b	.L96	@
 1511              	.L95:
 1512              	@ FreeRTOS/tasks.c:1297: 		if( listIS_CONTAINED_WITHIN( &xSuspendedTaskList, &( pxTCB->xGenericList
1295:FreeRTOS/tasks.c **** 
1296:FreeRTOS/tasks.c **** 		/* Is the task being resumed actually in the suspended list? */
1297:FreeRTOS/tasks.c **** 		if( listIS_CONTAINED_WITHIN( &xSuspendedTaskList, &( pxTCB->xGenericListItem ) ) != pdFALSE )
 1513              		.loc 1 1297 0 is_stmt 1
 1514 001c BB68     		ldr	r3, [r7, #8]	@ tmp120, pxTCB
 1515 001e 5B69     		ldr	r3, [r3, #20]	@ _1, pxTCB_9->xGenericListItem.pvContainer
 1516 0020 0E4A     		ldr	r2, .L103	@ tmp121,
 1517 0022 9342     		cmp	r3, r2	@ _1, tmp121
 1518 0024 01D1     		bne	.L97	@,
 1519              	@ FreeRTOS/tasks.c:1297: 		if( listIS_CONTAINED_WITHIN( &xSuspendedTaskList, &( pxTCB->xGenericList
ARM GAS  /tmp/ccTV2SzP.s 			page 51


 1520              		.loc 1 1297 0 is_stmt 0 discriminator 1
 1521 0026 0123     		movs	r3, #1	@ iftmp.43_5,
 1522 0028 00E0     		b	.L98	@
 1523              	.L97:
 1524              	@ FreeRTOS/tasks.c:1297: 		if( listIS_CONTAINED_WITHIN( &xSuspendedTaskList, &( pxTCB->xGenericList
 1525              		.loc 1 1297 0 discriminator 2
 1526 002a 0023     		movs	r3, #0	@ iftmp.43_5,
 1527              	.L98:
 1528              	@ FreeRTOS/tasks.c:1297: 		if( listIS_CONTAINED_WITHIN( &xSuspendedTaskList, &( pxTCB->xGenericList
 1529              		.loc 1 1297 0 discriminator 4
 1530 002c 002B     		cmp	r3, #0	@ iftmp.43_5,
 1531 002e 0FD0     		beq	.L99	@,
 1532              	@ FreeRTOS/tasks.c:1300: 			if( listIS_CONTAINED_WITHIN( &xPendingReadyList, &( pxTCB->xEventListIt
1298:FreeRTOS/tasks.c **** 		{
1299:FreeRTOS/tasks.c **** 			/* Has the task already been resumed from within an ISR? */
1300:FreeRTOS/tasks.c **** 			if( listIS_CONTAINED_WITHIN( &xPendingReadyList, &( pxTCB->xEventListItem ) ) == pdFALSE )
 1533              		.loc 1 1300 0 is_stmt 1
 1534 0030 BB68     		ldr	r3, [r7, #8]	@ tmp122, pxTCB
 1535 0032 9B6A     		ldr	r3, [r3, #40]	@ _2, pxTCB_9->xEventListItem.pvContainer
 1536 0034 0A4A     		ldr	r2, .L103+4	@ tmp123,
 1537 0036 9342     		cmp	r3, r2	@ _2, tmp123
 1538 0038 0AD0     		beq	.L99	@,
 1539              	@ FreeRTOS/tasks.c:1304: 				if( listIS_CONTAINED_WITHIN( NULL, &( pxTCB->xEventListItem ) ) != pdF
1301:FreeRTOS/tasks.c **** 			{
1302:FreeRTOS/tasks.c **** 				/* Is it in the suspended list because it is in the	Suspended
1303:FreeRTOS/tasks.c **** 				state, or because is is blocked with no timeout? */
1304:FreeRTOS/tasks.c **** 				if( listIS_CONTAINED_WITHIN( NULL, &( pxTCB->xEventListItem ) ) != pdFALSE )
 1540              		.loc 1 1304 0
 1541 003a BB68     		ldr	r3, [r7, #8]	@ tmp124, pxTCB
 1542 003c 9B6A     		ldr	r3, [r3, #40]	@ _3, pxTCB_9->xEventListItem.pvContainer
 1543 003e 002B     		cmp	r3, #0	@ _3,
 1544 0040 01D1     		bne	.L100	@,
 1545              	@ FreeRTOS/tasks.c:1304: 				if( listIS_CONTAINED_WITHIN( NULL, &( pxTCB->xEventListItem ) ) != pdF
 1546              		.loc 1 1304 0 is_stmt 0 discriminator 1
 1547 0042 0123     		movs	r3, #1	@ iftmp.44_6,
 1548 0044 00E0     		b	.L101	@
 1549              	.L100:
 1550              	@ FreeRTOS/tasks.c:1304: 				if( listIS_CONTAINED_WITHIN( NULL, &( pxTCB->xEventListItem ) ) != pdF
 1551              		.loc 1 1304 0 discriminator 2
 1552 0046 0023     		movs	r3, #0	@ iftmp.44_6,
 1553              	.L101:
 1554              	@ FreeRTOS/tasks.c:1304: 				if( listIS_CONTAINED_WITHIN( NULL, &( pxTCB->xEventListItem ) ) != pdF
 1555              		.loc 1 1304 0 discriminator 4
 1556 0048 002B     		cmp	r3, #0	@ iftmp.44_6,
 1557 004a 01D0     		beq	.L99	@,
 1558              	@ FreeRTOS/tasks.c:1306: 					xReturn = pdTRUE;
1305:FreeRTOS/tasks.c **** 				{
1306:FreeRTOS/tasks.c **** 					xReturn = pdTRUE;
 1559              		.loc 1 1306 0 is_stmt 1
 1560 004c 0123     		movs	r3, #1	@ tmp125,
 1561 004e FB60     		str	r3, [r7, #12]	@ tmp125, xReturn
 1562              	.L99:
 1563              	@ FreeRTOS/tasks.c:1323: 		return xReturn;
1307:FreeRTOS/tasks.c **** 				}
1308:FreeRTOS/tasks.c **** 				else
1309:FreeRTOS/tasks.c **** 				{
1310:FreeRTOS/tasks.c **** 					mtCOVERAGE_TEST_MARKER();
ARM GAS  /tmp/ccTV2SzP.s 			page 52


1311:FreeRTOS/tasks.c **** 				}
1312:FreeRTOS/tasks.c **** 			}
1313:FreeRTOS/tasks.c **** 			else
1314:FreeRTOS/tasks.c **** 			{
1315:FreeRTOS/tasks.c **** 				mtCOVERAGE_TEST_MARKER();
1316:FreeRTOS/tasks.c **** 			}
1317:FreeRTOS/tasks.c **** 		}
1318:FreeRTOS/tasks.c **** 		else
1319:FreeRTOS/tasks.c **** 		{
1320:FreeRTOS/tasks.c **** 			mtCOVERAGE_TEST_MARKER();
1321:FreeRTOS/tasks.c **** 		}
1322:FreeRTOS/tasks.c **** 
1323:FreeRTOS/tasks.c **** 		return xReturn;
 1564              		.loc 1 1323 0
 1565 0050 FB68     		ldr	r3, [r7, #12]	@ _16, xReturn
 1566              	@ FreeRTOS/tasks.c:1324: 	} /*lint !e818 xTask cannot be a pointer to const because it is a typedef
1324:FreeRTOS/tasks.c **** 	} /*lint !e818 xTask cannot be a pointer to const because it is a typedef. */
 1567              		.loc 1 1324 0
 1568 0052 1846     		mov	r0, r3	@, <retval>
 1569 0054 1037     		adds	r7, r7, #16	@,,
 1570              		.cfi_def_cfa_offset 8
 1571 0056 BD46     		mov	sp, r7	@,
 1572              		.cfi_def_cfa_register 13
 1573              		@ sp needed	@
 1574 0058 80BD     		pop	{r7, pc}	@
 1575              	.L104:
 1576 005a 00BF     		.align	2
 1577              	.L103:
 1578 005c 00000000 		.word	xSuspendedTaskList
 1579 0060 00000000 		.word	xPendingReadyList
 1580              		.cfi_endproc
 1581              	.LFE8:
 1582              		.size	prvTaskIsTaskSuspended, .-prvTaskIsTaskSuspended
 1583              		.section	.text.vTaskResume,"ax",%progbits
 1584              		.align	1
 1585              		.global	vTaskResume
 1586              		.syntax unified
 1587              		.thumb
 1588              		.thumb_func
 1589              		.fpu softvfp
 1590              		.type	vTaskResume, %function
 1591              	vTaskResume:
 1592              	.LFB9:
1325:FreeRTOS/tasks.c **** 
1326:FreeRTOS/tasks.c **** #endif /* INCLUDE_vTaskSuspend */
1327:FreeRTOS/tasks.c **** /*-----------------------------------------------------------*/
1328:FreeRTOS/tasks.c **** 
1329:FreeRTOS/tasks.c **** #if ( INCLUDE_vTaskSuspend == 1 )
1330:FreeRTOS/tasks.c **** 
1331:FreeRTOS/tasks.c **** 	void vTaskResume( TaskHandle_t xTaskToResume )
1332:FreeRTOS/tasks.c **** 	{
 1593              		.loc 1 1332 0
 1594              		.cfi_startproc
 1595              		@ args = 0, pretend = 0, frame = 16
 1596              		@ frame_needed = 1, uses_anonymous_args = 0
 1597 0000 80B5     		push	{r7, lr}	@
 1598              		.cfi_def_cfa_offset 8
ARM GAS  /tmp/ccTV2SzP.s 			page 53


 1599              		.cfi_offset 7, -8
 1600              		.cfi_offset 14, -4
 1601 0002 84B0     		sub	sp, sp, #16	@,,
 1602              		.cfi_def_cfa_offset 24
 1603 0004 00AF     		add	r7, sp, #0	@,,
 1604              		.cfi_def_cfa_register 7
 1605 0006 7860     		str	r0, [r7, #4]	@ xTaskToResume, xTaskToResume
 1606              	@ FreeRTOS/tasks.c:1333: 	TCB_t * const pxTCB = ( TCB_t * ) xTaskToResume;
1333:FreeRTOS/tasks.c **** 	TCB_t * const pxTCB = ( TCB_t * ) xTaskToResume;
 1607              		.loc 1 1333 0
 1608 0008 7B68     		ldr	r3, [r7, #4]	@ tmp123, xTaskToResume
 1609 000a FB60     		str	r3, [r7, #12]	@ tmp123, pxTCB
 1610              	@ FreeRTOS/tasks.c:1336: 		configASSERT( xTaskToResume );
1334:FreeRTOS/tasks.c **** 
1335:FreeRTOS/tasks.c **** 		/* It does not make sense to resume the calling task. */
1336:FreeRTOS/tasks.c **** 		configASSERT( xTaskToResume );
 1611              		.loc 1 1336 0
 1612 000c 7B68     		ldr	r3, [r7, #4]	@ tmp124, xTaskToResume
 1613 000e 002B     		cmp	r3, #0	@ tmp124,
 1614 0010 02D1     		bne	.L106	@,
 1615              	@ FreeRTOS/tasks.c:1336: 		configASSERT( xTaskToResume );
 1616              		.loc 1 1336 0 is_stmt 0 discriminator 1
 1617 0012 FFF7FEFF 		bl	ulPortSetInterruptMask	@
 1618              	.L107:
 1619 0016 FEE7     		b	.L107	@
 1620              	.L106:
 1621              	@ FreeRTOS/tasks.c:1340: 		if( ( pxTCB != NULL ) && ( pxTCB != pxCurrentTCB ) )
1337:FreeRTOS/tasks.c **** 
1338:FreeRTOS/tasks.c **** 		/* The parameter cannot be NULL as it is impossible to resume the
1339:FreeRTOS/tasks.c **** 		currently executing task. */
1340:FreeRTOS/tasks.c **** 		if( ( pxTCB != NULL ) && ( pxTCB != pxCurrentTCB ) )
 1622              		.loc 1 1340 0 is_stmt 1
 1623 0018 FB68     		ldr	r3, [r7, #12]	@ tmp125, pxTCB
 1624 001a 002B     		cmp	r3, #0	@ tmp125,
 1625 001c 33D0     		beq	.L110	@,
 1626              	@ FreeRTOS/tasks.c:1340: 		if( ( pxTCB != NULL ) && ( pxTCB != pxCurrentTCB ) )
 1627              		.loc 1 1340 0 is_stmt 0 discriminator 1
 1628 001e 1C4B     		ldr	r3, .L111	@ tmp126,
 1629 0020 1B68     		ldr	r3, [r3]	@ pxCurrentTCB.45_1, pxCurrentTCB
 1630 0022 FA68     		ldr	r2, [r7, #12]	@ tmp127, pxTCB
 1631 0024 9A42     		cmp	r2, r3	@ tmp127, pxCurrentTCB.45_1
 1632 0026 2ED0     		beq	.L110	@,
 1633              	@ FreeRTOS/tasks.c:1342: 			taskENTER_CRITICAL();
1341:FreeRTOS/tasks.c **** 		{
1342:FreeRTOS/tasks.c **** 			taskENTER_CRITICAL();
 1634              		.loc 1 1342 0 is_stmt 1
 1635 0028 FFF7FEFF 		bl	vPortEnterCritical	@
 1636              	@ FreeRTOS/tasks.c:1344: 				if( prvTaskIsTaskSuspended( pxTCB ) == pdTRUE )
1343:FreeRTOS/tasks.c **** 			{
1344:FreeRTOS/tasks.c **** 				if( prvTaskIsTaskSuspended( pxTCB ) == pdTRUE )
 1637              		.loc 1 1344 0
 1638 002c F868     		ldr	r0, [r7, #12]	@, pxTCB
 1639 002e FFF7FEFF 		bl	prvTaskIsTaskSuspended	@
 1640 0032 0346     		mov	r3, r0	@ _2,
 1641 0034 012B     		cmp	r3, #1	@ _2,
 1642 0036 24D1     		bne	.L109	@,
 1643              	@ FreeRTOS/tasks.c:1350: 					( void ) uxListRemove(  &( pxTCB->xGenericListItem ) );
ARM GAS  /tmp/ccTV2SzP.s 			page 54


1345:FreeRTOS/tasks.c **** 				{
1346:FreeRTOS/tasks.c **** 					traceTASK_RESUME( pxTCB );
1347:FreeRTOS/tasks.c **** 
1348:FreeRTOS/tasks.c **** 					/* As we are in a critical section we can access the ready
1349:FreeRTOS/tasks.c **** 					lists even if the scheduler is suspended. */
1350:FreeRTOS/tasks.c **** 					( void ) uxListRemove(  &( pxTCB->xGenericListItem ) );
 1644              		.loc 1 1350 0
 1645 0038 FB68     		ldr	r3, [r7, #12]	@ tmp128, pxTCB
 1646 003a 0433     		adds	r3, r3, #4	@ _3, tmp128,
 1647 003c 1846     		mov	r0, r3	@, _3
 1648 003e FFF7FEFF 		bl	uxListRemove	@
 1649              	@ FreeRTOS/tasks.c:1351: 					prvAddTaskToReadyList( pxTCB );
1351:FreeRTOS/tasks.c **** 					prvAddTaskToReadyList( pxTCB );
 1650              		.loc 1 1351 0
 1651 0042 FB68     		ldr	r3, [r7, #12]	@ tmp129, pxTCB
 1652 0044 DB6A     		ldr	r3, [r3, #44]	@ _4, pxTCB_17->uxPriority
 1653 0046 0122     		movs	r2, #1	@ tmp130,
 1654 0048 9A40     		lsls	r2, r2, r3	@ _5, tmp130, _4
 1655 004a 124B     		ldr	r3, .L111+4	@ tmp131,
 1656 004c 1B68     		ldr	r3, [r3]	@ uxTopReadyPriority.46_6, uxTopReadyPriority
 1657 004e 1343     		orrs	r3, r3, r2	@, _7, uxTopReadyPriority.46_6, _5
 1658 0050 104A     		ldr	r2, .L111+4	@ tmp132,
 1659 0052 1360     		str	r3, [r2]	@ _7, uxTopReadyPriority
 1660 0054 FB68     		ldr	r3, [r7, #12]	@ tmp133, pxTCB
 1661 0056 DA6A     		ldr	r2, [r3, #44]	@ _8, pxTCB_17->uxPriority
 1662 0058 1346     		mov	r3, r2	@ tmp134, _8
 1663 005a 9B00     		lsls	r3, r3, #2	@ tmp134, tmp134,
 1664 005c 1344     		add	r3, r3, r2	@ tmp134, _8
 1665 005e 9B00     		lsls	r3, r3, #2	@ tmp135, tmp134,
 1666 0060 0D4A     		ldr	r2, .L111+8	@ tmp136,
 1667 0062 1A44     		add	r2, r2, r3	@ _9, tmp134
 1668 0064 FB68     		ldr	r3, [r7, #12]	@ tmp137, pxTCB
 1669 0066 0433     		adds	r3, r3, #4	@ _10, tmp137,
 1670 0068 1946     		mov	r1, r3	@, _10
 1671 006a 1046     		mov	r0, r2	@, _9
 1672 006c FFF7FEFF 		bl	vListInsertEnd	@
 1673              	@ FreeRTOS/tasks.c:1354: 					if( pxTCB->uxPriority >= pxCurrentTCB->uxPriority )
1352:FreeRTOS/tasks.c **** 
1353:FreeRTOS/tasks.c **** 					/* We may have just resumed a higher priority task. */
1354:FreeRTOS/tasks.c **** 					if( pxTCB->uxPriority >= pxCurrentTCB->uxPriority )
 1674              		.loc 1 1354 0
 1675 0070 FB68     		ldr	r3, [r7, #12]	@ tmp138, pxTCB
 1676 0072 DA6A     		ldr	r2, [r3, #44]	@ _11, pxTCB_17->uxPriority
 1677 0074 064B     		ldr	r3, .L111	@ tmp139,
 1678 0076 1B68     		ldr	r3, [r3]	@ pxCurrentTCB.47_12, pxCurrentTCB
 1679 0078 DB6A     		ldr	r3, [r3, #44]	@ _13, pxCurrentTCB.47_12->uxPriority
 1680 007a 9A42     		cmp	r2, r3	@ _11, _13
 1681 007c 01D3     		bcc	.L109	@,
 1682              	@ FreeRTOS/tasks.c:1359: 						taskYIELD_IF_USING_PREEMPTION();
1355:FreeRTOS/tasks.c **** 					{
1356:FreeRTOS/tasks.c **** 						/* This yield may not cause the task just resumed to run,
1357:FreeRTOS/tasks.c **** 						but will leave the lists in the correct state for the
1358:FreeRTOS/tasks.c **** 						next yield. */
1359:FreeRTOS/tasks.c **** 						taskYIELD_IF_USING_PREEMPTION();
 1683              		.loc 1 1359 0
 1684 007e FFF7FEFF 		bl	vPortYield	@
 1685              	.L109:
ARM GAS  /tmp/ccTV2SzP.s 			page 55


 1686              	@ FreeRTOS/tasks.c:1371: 			taskEXIT_CRITICAL();
1360:FreeRTOS/tasks.c **** 					}
1361:FreeRTOS/tasks.c **** 					else
1362:FreeRTOS/tasks.c **** 					{
1363:FreeRTOS/tasks.c **** 						mtCOVERAGE_TEST_MARKER();
1364:FreeRTOS/tasks.c **** 					}
1365:FreeRTOS/tasks.c **** 				}
1366:FreeRTOS/tasks.c **** 				else
1367:FreeRTOS/tasks.c **** 				{
1368:FreeRTOS/tasks.c **** 					mtCOVERAGE_TEST_MARKER();
1369:FreeRTOS/tasks.c **** 				}
1370:FreeRTOS/tasks.c **** 			}
1371:FreeRTOS/tasks.c **** 			taskEXIT_CRITICAL();
 1687              		.loc 1 1371 0
 1688 0082 FFF7FEFF 		bl	vPortExitCritical	@
 1689              	.L110:
 1690              	@ FreeRTOS/tasks.c:1377: 	}
1372:FreeRTOS/tasks.c **** 		}
1373:FreeRTOS/tasks.c **** 		else
1374:FreeRTOS/tasks.c **** 		{
1375:FreeRTOS/tasks.c **** 			mtCOVERAGE_TEST_MARKER();
1376:FreeRTOS/tasks.c **** 		}
1377:FreeRTOS/tasks.c **** 	}
 1691              		.loc 1 1377 0
 1692 0086 00BF     		nop
 1693 0088 1037     		adds	r7, r7, #16	@,,
 1694              		.cfi_def_cfa_offset 8
 1695 008a BD46     		mov	sp, r7	@,
 1696              		.cfi_def_cfa_register 13
 1697              		@ sp needed	@
 1698 008c 80BD     		pop	{r7, pc}	@
 1699              	.L112:
 1700 008e 00BF     		.align	2
 1701              	.L111:
 1702 0090 00000000 		.word	pxCurrentTCB
 1703 0094 00000000 		.word	uxTopReadyPriority
 1704 0098 00000000 		.word	pxReadyTasksLists
 1705              		.cfi_endproc
 1706              	.LFE9:
 1707              		.size	vTaskResume, .-vTaskResume
 1708              		.section	.text.xTaskResumeFromISR,"ax",%progbits
 1709              		.align	1
 1710              		.global	xTaskResumeFromISR
 1711              		.syntax unified
 1712              		.thumb
 1713              		.thumb_func
 1714              		.fpu softvfp
 1715              		.type	xTaskResumeFromISR, %function
 1716              	xTaskResumeFromISR:
 1717              	.LFB10:
1378:FreeRTOS/tasks.c **** 
1379:FreeRTOS/tasks.c **** #endif /* INCLUDE_vTaskSuspend */
1380:FreeRTOS/tasks.c **** 
1381:FreeRTOS/tasks.c **** /*-----------------------------------------------------------*/
1382:FreeRTOS/tasks.c **** 
1383:FreeRTOS/tasks.c **** #if ( ( INCLUDE_xTaskResumeFromISR == 1 ) && ( INCLUDE_vTaskSuspend == 1 ) )
1384:FreeRTOS/tasks.c **** 
ARM GAS  /tmp/ccTV2SzP.s 			page 56


1385:FreeRTOS/tasks.c **** 	BaseT_t xTaskResumeFromISR( TaskHandle_t xTaskToResume )
1386:FreeRTOS/tasks.c **** 	{
 1718              		.loc 1 1386 0
 1719              		.cfi_startproc
 1720              		@ args = 0, pretend = 0, frame = 24
 1721              		@ frame_needed = 1, uses_anonymous_args = 0
 1722 0000 80B5     		push	{r7, lr}	@
 1723              		.cfi_def_cfa_offset 8
 1724              		.cfi_offset 7, -8
 1725              		.cfi_offset 14, -4
 1726 0002 86B0     		sub	sp, sp, #24	@,,
 1727              		.cfi_def_cfa_offset 32
 1728 0004 00AF     		add	r7, sp, #0	@,,
 1729              		.cfi_def_cfa_register 7
 1730 0006 7860     		str	r0, [r7, #4]	@ xTaskToResume, xTaskToResume
 1731              	@ FreeRTOS/tasks.c:1387: 	BaseT_t xYieldRequired = pdFALSE;
1387:FreeRTOS/tasks.c **** 	BaseT_t xYieldRequired = pdFALSE;
 1732              		.loc 1 1387 0
 1733 0008 0023     		movs	r3, #0	@ tmp126,
 1734 000a 7B61     		str	r3, [r7, #20]	@ tmp126, xYieldRequired
 1735              	@ FreeRTOS/tasks.c:1388: 	TCB_t * const pxTCB = ( TCB_t * ) xTaskToResume;
1388:FreeRTOS/tasks.c **** 	TCB_t * const pxTCB = ( TCB_t * ) xTaskToResume;
 1736              		.loc 1 1388 0
 1737 000c 7B68     		ldr	r3, [r7, #4]	@ tmp127, xTaskToResume
 1738 000e 3B61     		str	r3, [r7, #16]	@ tmp127, pxTCB
 1739              	@ FreeRTOS/tasks.c:1391: 		configASSERT( xTaskToResume );
1389:FreeRTOS/tasks.c **** 	UBaseT_t uxSavedInterruptStatus;
1390:FreeRTOS/tasks.c **** 
1391:FreeRTOS/tasks.c **** 		configASSERT( xTaskToResume );
 1740              		.loc 1 1391 0
 1741 0010 7B68     		ldr	r3, [r7, #4]	@ tmp128, xTaskToResume
 1742 0012 002B     		cmp	r3, #0	@ tmp128,
 1743 0014 02D1     		bne	.L114	@,
 1744              	@ FreeRTOS/tasks.c:1391: 		configASSERT( xTaskToResume );
 1745              		.loc 1 1391 0 is_stmt 0 discriminator 1
 1746 0016 FFF7FEFF 		bl	ulPortSetInterruptMask	@
 1747              	.L115:
 1748 001a FEE7     		b	.L115	@
 1749              	.L114:
 1750              	@ FreeRTOS/tasks.c:1409: 		portASSERT_IF_INTERRUPT_PRIORITY_INVALID();
1392:FreeRTOS/tasks.c **** 
1393:FreeRTOS/tasks.c **** 		/* RTOS ports that support interrupt nesting have the concept of a
1394:FreeRTOS/tasks.c **** 		maximum	system call (or maximum API call) interrupt priority.
1395:FreeRTOS/tasks.c **** 		Interrupts that are	above the maximum system call priority are keep
1396:FreeRTOS/tasks.c **** 		permanently enabled, even when the RTOS kernel is in a critical section,
1397:FreeRTOS/tasks.c **** 		but cannot make any calls to FreeRTOS API functions.  If configASSERT()
1398:FreeRTOS/tasks.c **** 		is defined in FreeRTOSConfig.h then
1399:FreeRTOS/tasks.c **** 		portASSERT_IF_INTERRUPT_PRIORITY_INVALID() will result in an assertion
1400:FreeRTOS/tasks.c **** 		failure if a FreeRTOS API function is called from an interrupt that has
1401:FreeRTOS/tasks.c **** 		been assigned a priority above the configured maximum system call
1402:FreeRTOS/tasks.c **** 		priority.  Only FreeRTOS functions that end in FromISR can be called
1403:FreeRTOS/tasks.c **** 		from interrupts	that have been assigned a priority at or (logically)
1404:FreeRTOS/tasks.c **** 		below the maximum system call interrupt priority.  FreeRTOS maintains a
1405:FreeRTOS/tasks.c **** 		separate interrupt safe API to ensure interrupt entry is as fast and as
1406:FreeRTOS/tasks.c **** 		simple as possible.  More information (albeit Cortex-M specific) is
1407:FreeRTOS/tasks.c **** 		provided on the following link:
1408:FreeRTOS/tasks.c **** 		http://www.freertos.org/RTOS-Cortex-M3-M4.html */
ARM GAS  /tmp/ccTV2SzP.s 			page 57


1409:FreeRTOS/tasks.c **** 		portASSERT_IF_INTERRUPT_PRIORITY_INVALID();
 1751              		.loc 1 1409 0 is_stmt 1
 1752 001c FFF7FEFF 		bl	vPortValidateInterruptPriority	@
 1753              	@ FreeRTOS/tasks.c:1411: 		uxSavedInterruptStatus = portSET_INTERRUPT_MASK_FROM_ISR();
1410:FreeRTOS/tasks.c **** 
1411:FreeRTOS/tasks.c **** 		uxSavedInterruptStatus = portSET_INTERRUPT_MASK_FROM_ISR();
 1754              		.loc 1 1411 0
 1755 0020 FFF7FEFF 		bl	ulPortSetInterruptMask	@
 1756 0024 F860     		str	r0, [r7, #12]	@, uxSavedInterruptStatus
 1757              	@ FreeRTOS/tasks.c:1413: 			if( prvTaskIsTaskSuspended( pxTCB ) == pdTRUE )
1412:FreeRTOS/tasks.c **** 		{
1413:FreeRTOS/tasks.c **** 			if( prvTaskIsTaskSuspended( pxTCB ) == pdTRUE )
 1758              		.loc 1 1413 0
 1759 0026 3869     		ldr	r0, [r7, #16]	@, pxTCB
 1760 0028 FFF7FEFF 		bl	prvTaskIsTaskSuspended	@
 1761 002c 0346     		mov	r3, r0	@ _1,
 1762 002e 012B     		cmp	r3, #1	@ _1,
 1763 0030 2FD1     		bne	.L116	@,
 1764              	@ FreeRTOS/tasks.c:1418: 				if( uxSchedulerSuspended == ( UBaseT_t ) pdFALSE )
1414:FreeRTOS/tasks.c **** 			{
1415:FreeRTOS/tasks.c **** 				traceTASK_RESUME_FROM_ISR( pxTCB );
1416:FreeRTOS/tasks.c **** 
1417:FreeRTOS/tasks.c **** 				/* Check the ready lists can be accessed. */
1418:FreeRTOS/tasks.c **** 				if( uxSchedulerSuspended == ( UBaseT_t ) pdFALSE )
 1765              		.loc 1 1418 0
 1766 0032 1C4B     		ldr	r3, .L121	@ tmp129,
 1767 0034 1B68     		ldr	r3, [r3]	@ uxSchedulerSuspended.48_2, uxSchedulerSuspended
 1768 0036 002B     		cmp	r3, #0	@ uxSchedulerSuspended.48_2,
 1769 0038 25D1     		bne	.L117	@,
 1770              	@ FreeRTOS/tasks.c:1422: 					if( pxTCB->uxPriority >= pxCurrentTCB->uxPriority )
1419:FreeRTOS/tasks.c **** 				{
1420:FreeRTOS/tasks.c **** 					/* Ready lists can be accessed so move the task from the
1421:FreeRTOS/tasks.c **** 					suspended list to the ready list directly. */
1422:FreeRTOS/tasks.c **** 					if( pxTCB->uxPriority >= pxCurrentTCB->uxPriority )
 1771              		.loc 1 1422 0
 1772 003a 3B69     		ldr	r3, [r7, #16]	@ tmp130, pxTCB
 1773 003c DA6A     		ldr	r2, [r3, #44]	@ _3, pxTCB_22->uxPriority
 1774 003e 1A4B     		ldr	r3, .L121+4	@ tmp131,
 1775 0040 1B68     		ldr	r3, [r3]	@ pxCurrentTCB.49_4, pxCurrentTCB
 1776 0042 DB6A     		ldr	r3, [r3, #44]	@ _5, pxCurrentTCB.49_4->uxPriority
 1777 0044 9A42     		cmp	r2, r3	@ _3, _5
 1778 0046 01D3     		bcc	.L118	@,
 1779              	@ FreeRTOS/tasks.c:1424: 						xYieldRequired = pdTRUE;
1423:FreeRTOS/tasks.c **** 					{
1424:FreeRTOS/tasks.c **** 						xYieldRequired = pdTRUE;
 1780              		.loc 1 1424 0
 1781 0048 0123     		movs	r3, #1	@ tmp132,
 1782 004a 7B61     		str	r3, [r7, #20]	@ tmp132, xYieldRequired
 1783              	.L118:
 1784              	@ FreeRTOS/tasks.c:1431: 					( void ) uxListRemove(  &( pxTCB->xGenericListItem ) );
1425:FreeRTOS/tasks.c **** 					}
1426:FreeRTOS/tasks.c **** 					else
1427:FreeRTOS/tasks.c **** 					{
1428:FreeRTOS/tasks.c **** 						mtCOVERAGE_TEST_MARKER();
1429:FreeRTOS/tasks.c **** 					}
1430:FreeRTOS/tasks.c **** 
1431:FreeRTOS/tasks.c **** 					( void ) uxListRemove(  &( pxTCB->xGenericListItem ) );
ARM GAS  /tmp/ccTV2SzP.s 			page 58


 1785              		.loc 1 1431 0
 1786 004c 3B69     		ldr	r3, [r7, #16]	@ tmp133, pxTCB
 1787 004e 0433     		adds	r3, r3, #4	@ _6, tmp133,
 1788 0050 1846     		mov	r0, r3	@, _6
 1789 0052 FFF7FEFF 		bl	uxListRemove	@
 1790              	@ FreeRTOS/tasks.c:1432: 					prvAddTaskToReadyList( pxTCB );
1432:FreeRTOS/tasks.c **** 					prvAddTaskToReadyList( pxTCB );
 1791              		.loc 1 1432 0
 1792 0056 3B69     		ldr	r3, [r7, #16]	@ tmp134, pxTCB
 1793 0058 DB6A     		ldr	r3, [r3, #44]	@ _7, pxTCB_22->uxPriority
 1794 005a 0122     		movs	r2, #1	@ tmp135,
 1795 005c 9A40     		lsls	r2, r2, r3	@ _8, tmp135, _7
 1796 005e 134B     		ldr	r3, .L121+8	@ tmp136,
 1797 0060 1B68     		ldr	r3, [r3]	@ uxTopReadyPriority.50_9, uxTopReadyPriority
 1798 0062 1343     		orrs	r3, r3, r2	@, _10, uxTopReadyPriority.50_9, _8
 1799 0064 114A     		ldr	r2, .L121+8	@ tmp137,
 1800 0066 1360     		str	r3, [r2]	@ _10, uxTopReadyPriority
 1801 0068 3B69     		ldr	r3, [r7, #16]	@ tmp138, pxTCB
 1802 006a DA6A     		ldr	r2, [r3, #44]	@ _11, pxTCB_22->uxPriority
 1803 006c 1346     		mov	r3, r2	@ tmp139, _11
 1804 006e 9B00     		lsls	r3, r3, #2	@ tmp139, tmp139,
 1805 0070 1344     		add	r3, r3, r2	@ tmp139, _11
 1806 0072 9B00     		lsls	r3, r3, #2	@ tmp140, tmp139,
 1807 0074 0E4A     		ldr	r2, .L121+12	@ tmp141,
 1808 0076 1A44     		add	r2, r2, r3	@ _12, tmp139
 1809 0078 3B69     		ldr	r3, [r7, #16]	@ tmp142, pxTCB
 1810 007a 0433     		adds	r3, r3, #4	@ _13, tmp142,
 1811 007c 1946     		mov	r1, r3	@, _13
 1812 007e 1046     		mov	r0, r2	@, _12
 1813 0080 FFF7FEFF 		bl	vListInsertEnd	@
 1814 0084 05E0     		b	.L116	@
 1815              	.L117:
 1816              	@ FreeRTOS/tasks.c:1439: 					vListInsertEnd( &( xPendingReadyList ), &( pxTCB->xEventListItem ) );
1433:FreeRTOS/tasks.c **** 				}
1434:FreeRTOS/tasks.c **** 				else
1435:FreeRTOS/tasks.c **** 				{
1436:FreeRTOS/tasks.c **** 					/* The delayed or ready lists cannot be accessed so the task
1437:FreeRTOS/tasks.c **** 					is held in the pending ready list until the scheduler is
1438:FreeRTOS/tasks.c **** 					unsuspended. */
1439:FreeRTOS/tasks.c **** 					vListInsertEnd( &( xPendingReadyList ), &( pxTCB->xEventListItem ) );
 1817              		.loc 1 1439 0
 1818 0086 3B69     		ldr	r3, [r7, #16]	@ tmp143, pxTCB
 1819 0088 1833     		adds	r3, r3, #24	@ _14, tmp143,
 1820 008a 1946     		mov	r1, r3	@, _14
 1821 008c 0948     		ldr	r0, .L121+16	@,
 1822 008e FFF7FEFF 		bl	vListInsertEnd	@
 1823              	.L116:
 1824              	@ FreeRTOS/tasks.c:1447: 		portCLEAR_INTERRUPT_MASK_FROM_ISR( uxSavedInterruptStatus );
1440:FreeRTOS/tasks.c **** 				}
1441:FreeRTOS/tasks.c **** 			}
1442:FreeRTOS/tasks.c **** 			else
1443:FreeRTOS/tasks.c **** 			{
1444:FreeRTOS/tasks.c **** 				mtCOVERAGE_TEST_MARKER();
1445:FreeRTOS/tasks.c **** 			}
1446:FreeRTOS/tasks.c **** 		}
1447:FreeRTOS/tasks.c **** 		portCLEAR_INTERRUPT_MASK_FROM_ISR( uxSavedInterruptStatus );
 1825              		.loc 1 1447 0
ARM GAS  /tmp/ccTV2SzP.s 			page 59


 1826 0092 F868     		ldr	r0, [r7, #12]	@, uxSavedInterruptStatus
 1827 0094 FFF7FEFF 		bl	vPortClearInterruptMask	@
 1828              	@ FreeRTOS/tasks.c:1449: 		return xYieldRequired;
1448:FreeRTOS/tasks.c **** 
1449:FreeRTOS/tasks.c **** 		return xYieldRequired;
 1829              		.loc 1 1449 0
 1830 0098 7B69     		ldr	r3, [r7, #20]	@ _34, xYieldRequired
 1831              	@ FreeRTOS/tasks.c:1450: 	}
1450:FreeRTOS/tasks.c **** 	}
 1832              		.loc 1 1450 0
 1833 009a 1846     		mov	r0, r3	@, <retval>
 1834 009c 1837     		adds	r7, r7, #24	@,,
 1835              		.cfi_def_cfa_offset 8
 1836 009e BD46     		mov	sp, r7	@,
 1837              		.cfi_def_cfa_register 13
 1838              		@ sp needed	@
 1839 00a0 80BD     		pop	{r7, pc}	@
 1840              	.L122:
 1841 00a2 00BF     		.align	2
 1842              	.L121:
 1843 00a4 00000000 		.word	uxSchedulerSuspended
 1844 00a8 00000000 		.word	pxCurrentTCB
 1845 00ac 00000000 		.word	uxTopReadyPriority
 1846 00b0 00000000 		.word	pxReadyTasksLists
 1847 00b4 00000000 		.word	xPendingReadyList
 1848              		.cfi_endproc
 1849              	.LFE10:
 1850              		.size	xTaskResumeFromISR, .-xTaskResumeFromISR
 1851              		.section	.rodata
 1852              		.align	2
 1853              	.LC0:
 1854 0000 49444C45 		.ascii	"IDLE\000"
 1854      00
 1855              		.section	.text.vTaskStartScheduler,"ax",%progbits
 1856              		.align	1
 1857              		.global	vTaskStartScheduler
 1858              		.syntax unified
 1859              		.thumb
 1860              		.thumb_func
 1861              		.fpu softvfp
 1862              		.type	vTaskStartScheduler, %function
 1863              	vTaskStartScheduler:
 1864              	.LFB11:
1451:FreeRTOS/tasks.c **** 
1452:FreeRTOS/tasks.c **** #endif /* ( ( INCLUDE_xTaskResumeFromISR == 1 ) && ( INCLUDE_vTaskSuspend == 1 ) ) */
1453:FreeRTOS/tasks.c **** /*-----------------------------------------------------------*/
1454:FreeRTOS/tasks.c **** 
1455:FreeRTOS/tasks.c **** void vTaskStartScheduler( void )
1456:FreeRTOS/tasks.c **** {
 1865              		.loc 1 1456 0
 1866              		.cfi_startproc
 1867              		@ args = 0, pretend = 0, frame = 8
 1868              		@ frame_needed = 1, uses_anonymous_args = 0
 1869 0000 80B5     		push	{r7, lr}	@
 1870              		.cfi_def_cfa_offset 8
 1871              		.cfi_offset 7, -8
 1872              		.cfi_offset 14, -4
ARM GAS  /tmp/ccTV2SzP.s 			page 60


 1873 0002 86B0     		sub	sp, sp, #24	@,,
 1874              		.cfi_def_cfa_offset 32
 1875 0004 04AF     		add	r7, sp, #16	@,,
 1876              		.cfi_def_cfa 7, 16
 1877              	@ FreeRTOS/tasks.c:1469: 		xReturn = xTaskCreate( prvIdleTask, "IDLE", tskIDLE_STACK_SIZE, ( void *
1457:FreeRTOS/tasks.c **** BaseT_t xReturn;
1458:FreeRTOS/tasks.c **** 
1459:FreeRTOS/tasks.c **** 	/* Add the idle task at the lowest priority. */
1460:FreeRTOS/tasks.c **** 	#if ( INCLUDE_xTaskGetIdleTaskHandle == 1 )
1461:FreeRTOS/tasks.c **** 	{
1462:FreeRTOS/tasks.c **** 		/* Create the idle task, storing its handle in xIdleTaskHandle so it can
1463:FreeRTOS/tasks.c **** 		be returned by the xTaskGetIdleTaskHandle() function. */
1464:FreeRTOS/tasks.c **** 		xReturn = xTaskCreate( prvIdleTask, "IDLE", tskIDLE_STACK_SIZE, ( void * ) NULL, ( tskIDLE_PRIORI
1465:FreeRTOS/tasks.c **** 	}
1466:FreeRTOS/tasks.c **** 	#else
1467:FreeRTOS/tasks.c **** 	{
1468:FreeRTOS/tasks.c **** 		/* Create the idle task without storing its handle. */
1469:FreeRTOS/tasks.c **** 		xReturn = xTaskCreate( prvIdleTask, "IDLE", tskIDLE_STACK_SIZE, ( void * ) NULL, ( tskIDLE_PRIORI
 1878              		.loc 1 1469 0
 1879 0006 0023     		movs	r3, #0	@ tmp111,
 1880 0008 0393     		str	r3, [sp, #12]	@ tmp111,
 1881 000a 0023     		movs	r3, #0	@ tmp112,
 1882 000c 0293     		str	r3, [sp, #8]	@ tmp112,
 1883 000e 0023     		movs	r3, #0	@ tmp113,
 1884 0010 0193     		str	r3, [sp, #4]	@ tmp113,
 1885 0012 0023     		movs	r3, #0	@ tmp114,
 1886 0014 0093     		str	r3, [sp]	@ tmp114,
 1887 0016 0023     		movs	r3, #0	@,
 1888 0018 4FF48072 		mov	r2, #256	@,
 1889 001c 0E49     		ldr	r1, .L128	@,
 1890 001e 0F48     		ldr	r0, .L128+4	@,
 1891 0020 FFF7FEFF 		bl	xTaskGenericCreate	@
 1892 0024 7860     		str	r0, [r7, #4]	@, xReturn
 1893              	@ FreeRTOS/tasks.c:1486: 	if( xReturn == pdPASS )
1470:FreeRTOS/tasks.c **** 	}
1471:FreeRTOS/tasks.c **** 	#endif /* INCLUDE_xTaskGetIdleTaskHandle */
1472:FreeRTOS/tasks.c **** 
1473:FreeRTOS/tasks.c **** 	#if ( configUSE_TIMERS == 1 )
1474:FreeRTOS/tasks.c **** 	{
1475:FreeRTOS/tasks.c **** 		if( xReturn == pdPASS )
1476:FreeRTOS/tasks.c **** 		{
1477:FreeRTOS/tasks.c **** 			xReturn = xTimerCreateTimerTask();
1478:FreeRTOS/tasks.c **** 		}
1479:FreeRTOS/tasks.c **** 		else
1480:FreeRTOS/tasks.c **** 		{
1481:FreeRTOS/tasks.c **** 			mtCOVERAGE_TEST_MARKER();
1482:FreeRTOS/tasks.c **** 		}
1483:FreeRTOS/tasks.c **** 	}
1484:FreeRTOS/tasks.c **** 	#endif /* configUSE_TIMERS */
1485:FreeRTOS/tasks.c **** 
1486:FreeRTOS/tasks.c **** 	if( xReturn == pdPASS )
 1894              		.loc 1 1486 0
 1895 0026 7B68     		ldr	r3, [r7, #4]	@ tmp115, xReturn
 1896 0028 012B     		cmp	r3, #1	@ tmp115,
 1897 002a 0AD1     		bne	.L124	@,
 1898              	@ FreeRTOS/tasks.c:1493: 		portDISABLE_INTERRUPTS();
1487:FreeRTOS/tasks.c **** 	{
ARM GAS  /tmp/ccTV2SzP.s 			page 61


1488:FreeRTOS/tasks.c **** 		/* Interrupts are turned off here, to ensure a tick does not occur
1489:FreeRTOS/tasks.c **** 		before or during the call to xPortStartScheduler().  The stacks of
1490:FreeRTOS/tasks.c **** 		the created tasks contain a status word with interrupts switched on
1491:FreeRTOS/tasks.c **** 		so interrupts will automatically get re-enabled when the first task
1492:FreeRTOS/tasks.c **** 		starts to run. */
1493:FreeRTOS/tasks.c **** 		portDISABLE_INTERRUPTS();
 1899              		.loc 1 1493 0
 1900 002c FFF7FEFF 		bl	ulPortSetInterruptMask	@
 1901              	@ FreeRTOS/tasks.c:1503: 		xSchedulerRunning = pdTRUE;
1494:FreeRTOS/tasks.c **** 
1495:FreeRTOS/tasks.c **** 		#if ( configUSE_NEWLIB_REENTRANT == 1 )
1496:FreeRTOS/tasks.c **** 		{
1497:FreeRTOS/tasks.c **** 			/* Switch Newlib's _impure_ptr variable to point to the _reent
1498:FreeRTOS/tasks.c **** 			structure specific to the task that will run first. */
1499:FreeRTOS/tasks.c **** 			_impure_ptr = &( pxCurrentTCB->xNewLib_reent );
1500:FreeRTOS/tasks.c **** 		}
1501:FreeRTOS/tasks.c **** 		#endif /* configUSE_NEWLIB_REENTRANT */
1502:FreeRTOS/tasks.c **** 
1503:FreeRTOS/tasks.c **** 		xSchedulerRunning = pdTRUE;
 1902              		.loc 1 1503 0
 1903 0030 0B4B     		ldr	r3, .L128+8	@ tmp116,
 1904 0032 0122     		movs	r2, #1	@ tmp117,
 1905 0034 1A60     		str	r2, [r3]	@ tmp117, xSchedulerRunning
 1906              	@ FreeRTOS/tasks.c:1504: 		xTickCount = ( TickT_t ) 0U;
1504:FreeRTOS/tasks.c **** 		xTickCount = ( TickT_t ) 0U;
 1907              		.loc 1 1504 0
 1908 0036 0B4B     		ldr	r3, .L128+12	@ tmp118,
 1909 0038 0022     		movs	r2, #0	@ tmp119,
 1910 003a 1A60     		str	r2, [r3]	@ tmp119, xTickCount
 1911              	@ FreeRTOS/tasks.c:1513: 		if( xPortStartScheduler() != pdFALSE )
1505:FreeRTOS/tasks.c **** 
1506:FreeRTOS/tasks.c **** 		/* If configGENERATE_RUN_TIME_STATS is defined then the following
1507:FreeRTOS/tasks.c **** 		macro must be defined to configure the timer/counter used to generate
1508:FreeRTOS/tasks.c **** 		the run time counter time base. */
1509:FreeRTOS/tasks.c **** 		portCONFIGURE_TIMER_FOR_RUN_TIME_STATS();
1510:FreeRTOS/tasks.c **** 
1511:FreeRTOS/tasks.c **** 		/* Setting up the timer tick is hardware specific and thus in the
1512:FreeRTOS/tasks.c **** 		portable interface. */
1513:FreeRTOS/tasks.c **** 		if( xPortStartScheduler() != pdFALSE )
 1912              		.loc 1 1513 0
 1913 003c FFF7FEFF 		bl	xPortStartScheduler	@
 1914              	@ FreeRTOS/tasks.c:1530: }
1514:FreeRTOS/tasks.c **** 		{
1515:FreeRTOS/tasks.c **** 			/* Should not reach here as if the scheduler is running the
1516:FreeRTOS/tasks.c **** 			function will not return. */
1517:FreeRTOS/tasks.c **** 		}
1518:FreeRTOS/tasks.c **** 		else
1519:FreeRTOS/tasks.c **** 		{
1520:FreeRTOS/tasks.c **** 			/* Should only reach here if a task calls xTaskEndScheduler(). */
1521:FreeRTOS/tasks.c **** 		}
1522:FreeRTOS/tasks.c **** 	}
1523:FreeRTOS/tasks.c **** 	else
1524:FreeRTOS/tasks.c **** 	{
1525:FreeRTOS/tasks.c **** 		/* This line will only be reached if the kernel could not be started,
1526:FreeRTOS/tasks.c **** 		because there was not enough FreeRTOS heap to create the idle task
1527:FreeRTOS/tasks.c **** 		or the timer task. */
1528:FreeRTOS/tasks.c **** 		configASSERT( xReturn );
ARM GAS  /tmp/ccTV2SzP.s 			page 62


1529:FreeRTOS/tasks.c **** 	}
1530:FreeRTOS/tasks.c **** }
 1915              		.loc 1 1530 0
 1916 0040 05E0     		b	.L127	@
 1917              	.L124:
 1918              	@ FreeRTOS/tasks.c:1528: 		configASSERT( xReturn );
1528:FreeRTOS/tasks.c **** 	}
 1919              		.loc 1 1528 0
 1920 0042 7B68     		ldr	r3, [r7, #4]	@ tmp120, xReturn
 1921 0044 002B     		cmp	r3, #0	@ tmp120,
 1922 0046 02D1     		bne	.L127	@,
 1923              	@ FreeRTOS/tasks.c:1528: 		configASSERT( xReturn );
1528:FreeRTOS/tasks.c **** 	}
 1924              		.loc 1 1528 0 is_stmt 0 discriminator 1
 1925 0048 FFF7FEFF 		bl	ulPortSetInterruptMask	@
 1926              	.L126:
 1927              	@ FreeRTOS/tasks.c:1528: 		configASSERT( xReturn );
1528:FreeRTOS/tasks.c **** 	}
 1928              		.loc 1 1528 0 discriminator 2
 1929 004c FEE7     		b	.L126	@
 1930              	.L127:
 1931              	@ FreeRTOS/tasks.c:1530: }
 1932              		.loc 1 1530 0 is_stmt 1
 1933 004e 00BF     		nop
 1934 0050 0837     		adds	r7, r7, #8	@,,
 1935              		.cfi_def_cfa_offset 8
 1936 0052 BD46     		mov	sp, r7	@,
 1937              		.cfi_def_cfa_register 13
 1938              		@ sp needed	@
 1939 0054 80BD     		pop	{r7, pc}	@
 1940              	.L129:
 1941 0056 00BF     		.align	2
 1942              	.L128:
 1943 0058 00000000 		.word	.LC0
 1944 005c 00000000 		.word	prvIdleTask
 1945 0060 00000000 		.word	xSchedulerRunning
 1946 0064 00000000 		.word	xTickCount
 1947              		.cfi_endproc
 1948              	.LFE11:
 1949              		.size	vTaskStartScheduler, .-vTaskStartScheduler
 1950              		.section	.text.vTaskEndScheduler,"ax",%progbits
 1951              		.align	1
 1952              		.global	vTaskEndScheduler
 1953              		.syntax unified
 1954              		.thumb
 1955              		.thumb_func
 1956              		.fpu softvfp
 1957              		.type	vTaskEndScheduler, %function
 1958              	vTaskEndScheduler:
 1959              	.LFB12:
1531:FreeRTOS/tasks.c **** /*-----------------------------------------------------------*/
1532:FreeRTOS/tasks.c **** 
1533:FreeRTOS/tasks.c **** void vTaskEndScheduler( void )
1534:FreeRTOS/tasks.c **** {
 1960              		.loc 1 1534 0
 1961              		.cfi_startproc
 1962              		@ args = 0, pretend = 0, frame = 0
ARM GAS  /tmp/ccTV2SzP.s 			page 63


 1963              		@ frame_needed = 1, uses_anonymous_args = 0
 1964 0000 80B5     		push	{r7, lr}	@
 1965              		.cfi_def_cfa_offset 8
 1966              		.cfi_offset 7, -8
 1967              		.cfi_offset 14, -4
 1968 0002 00AF     		add	r7, sp, #0	@,,
 1969              		.cfi_def_cfa_register 7
 1970              	@ FreeRTOS/tasks.c:1538: 	portDISABLE_INTERRUPTS();
1535:FreeRTOS/tasks.c **** 	/* Stop the scheduler interrupts and call the portable scheduler end
1536:FreeRTOS/tasks.c **** 	routine so the original ISRs can be restored if necessary.  The port
1537:FreeRTOS/tasks.c **** 	layer must ensure interrupts enable	bit is left in the correct state. */
1538:FreeRTOS/tasks.c **** 	portDISABLE_INTERRUPTS();
 1971              		.loc 1 1538 0
 1972 0004 FFF7FEFF 		bl	ulPortSetInterruptMask	@
 1973              	@ FreeRTOS/tasks.c:1539: 	xSchedulerRunning = pdFALSE;
1539:FreeRTOS/tasks.c **** 	xSchedulerRunning = pdFALSE;
 1974              		.loc 1 1539 0
 1975 0008 034B     		ldr	r3, .L131	@ tmp110,
 1976 000a 0022     		movs	r2, #0	@ tmp111,
 1977 000c 1A60     		str	r2, [r3]	@ tmp111, xSchedulerRunning
 1978              	@ FreeRTOS/tasks.c:1540: 	vPortEndScheduler();
1540:FreeRTOS/tasks.c **** 	vPortEndScheduler();
 1979              		.loc 1 1540 0
 1980 000e FFF7FEFF 		bl	vPortEndScheduler	@
 1981              	@ FreeRTOS/tasks.c:1541: }
1541:FreeRTOS/tasks.c **** }
 1982              		.loc 1 1541 0
 1983 0012 00BF     		nop
 1984 0014 80BD     		pop	{r7, pc}	@
 1985              	.L132:
 1986 0016 00BF     		.align	2
 1987              	.L131:
 1988 0018 00000000 		.word	xSchedulerRunning
 1989              		.cfi_endproc
 1990              	.LFE12:
 1991              		.size	vTaskEndScheduler, .-vTaskEndScheduler
 1992              		.section	.text.vTaskSuspendAll,"ax",%progbits
 1993              		.align	1
 1994              		.global	vTaskSuspendAll
 1995              		.syntax unified
 1996              		.thumb
 1997              		.thumb_func
 1998              		.fpu softvfp
 1999              		.type	vTaskSuspendAll, %function
 2000              	vTaskSuspendAll:
 2001              	.LFB13:
1542:FreeRTOS/tasks.c **** /*----------------------------------------------------------*/
1543:FreeRTOS/tasks.c **** 
1544:FreeRTOS/tasks.c **** void vTaskSuspendAll( void )
1545:FreeRTOS/tasks.c **** {
 2002              		.loc 1 1545 0
 2003              		.cfi_startproc
 2004              		@ args = 0, pretend = 0, frame = 0
 2005              		@ frame_needed = 1, uses_anonymous_args = 0
 2006              		@ link register save eliminated.
 2007 0000 80B4     		push	{r7}	@
 2008              		.cfi_def_cfa_offset 4
ARM GAS  /tmp/ccTV2SzP.s 			page 64


 2009              		.cfi_offset 7, -4
 2010 0002 00AF     		add	r7, sp, #0	@,,
 2011              		.cfi_def_cfa_register 7
 2012              	@ FreeRTOS/tasks.c:1550: 	++uxSchedulerSuspended;
1546:FreeRTOS/tasks.c **** 	/* A critical section is not required as the variable is of type
1547:FreeRTOS/tasks.c **** 	BaseT_t.  Please read Richard Barry's reply in the following link to a
1548:FreeRTOS/tasks.c **** 	post in the FreeRTOS support forum before reporting this as a bug! -
1549:FreeRTOS/tasks.c **** 	http://goo.gl/wu4acr */
1550:FreeRTOS/tasks.c **** 	++uxSchedulerSuspended;
 2013              		.loc 1 1550 0
 2014 0004 044B     		ldr	r3, .L134	@ tmp112,
 2015 0006 1B68     		ldr	r3, [r3]	@ uxSchedulerSuspended.51_1, uxSchedulerSuspended
 2016 0008 0133     		adds	r3, r3, #1	@ _2, uxSchedulerSuspended.51_1,
 2017 000a 034A     		ldr	r2, .L134	@ tmp113,
 2018 000c 1360     		str	r3, [r2]	@ _2, uxSchedulerSuspended
 2019              	@ FreeRTOS/tasks.c:1551: }
1551:FreeRTOS/tasks.c **** }
 2020              		.loc 1 1551 0
 2021 000e 00BF     		nop
 2022 0010 BD46     		mov	sp, r7	@,
 2023              		.cfi_def_cfa_register 13
 2024              		@ sp needed	@
 2025 0012 80BC     		pop	{r7}	@
 2026              		.cfi_restore 7
 2027              		.cfi_def_cfa_offset 0
 2028 0014 7047     		bx	lr	@
 2029              	.L135:
 2030 0016 00BF     		.align	2
 2031              	.L134:
 2032 0018 00000000 		.word	uxSchedulerSuspended
 2033              		.cfi_endproc
 2034              	.LFE13:
 2035              		.size	vTaskSuspendAll, .-vTaskSuspendAll
 2036              		.section	.text.xTaskResumeAll,"ax",%progbits
 2037              		.align	1
 2038              		.global	xTaskResumeAll
 2039              		.syntax unified
 2040              		.thumb
 2041              		.thumb_func
 2042              		.fpu softvfp
 2043              		.type	xTaskResumeAll, %function
 2044              	xTaskResumeAll:
 2045              	.LFB14:
1552:FreeRTOS/tasks.c **** /*----------------------------------------------------------*/
1553:FreeRTOS/tasks.c **** 
1554:FreeRTOS/tasks.c **** #if ( configUSE_TICKLESS_IDLE != 0 )
1555:FreeRTOS/tasks.c **** 
1556:FreeRTOS/tasks.c **** 	static TickT_t prvGetExpectedIdleTime( void )
1557:FreeRTOS/tasks.c **** 	{
1558:FreeRTOS/tasks.c **** 	TickT_t xReturn;
1559:FreeRTOS/tasks.c **** 
1560:FreeRTOS/tasks.c **** 		if( pxCurrentTCB->uxPriority > tskIDLE_PRIORITY )
1561:FreeRTOS/tasks.c **** 		{
1562:FreeRTOS/tasks.c **** 			xReturn = 0;
1563:FreeRTOS/tasks.c **** 		}
1564:FreeRTOS/tasks.c **** 		else if( listCURRENT_LIST_LENGTH( &( pxReadyTasksLists[ tskIDLE_PRIORITY ] ) ) > 1 )
1565:FreeRTOS/tasks.c **** 		{
ARM GAS  /tmp/ccTV2SzP.s 			page 65


1566:FreeRTOS/tasks.c **** 			/* There are other idle priority tasks in the ready state.  If
1567:FreeRTOS/tasks.c **** 			time slicing is used then the very next tick interrupt must be
1568:FreeRTOS/tasks.c **** 			processed. */
1569:FreeRTOS/tasks.c **** 			xReturn = 0;
1570:FreeRTOS/tasks.c **** 		}
1571:FreeRTOS/tasks.c **** 		else
1572:FreeRTOS/tasks.c **** 		{
1573:FreeRTOS/tasks.c **** 			xReturn = xNextTaskUnblockTime - xTickCount;
1574:FreeRTOS/tasks.c **** 		}
1575:FreeRTOS/tasks.c **** 
1576:FreeRTOS/tasks.c **** 		return xReturn;
1577:FreeRTOS/tasks.c **** 	}
1578:FreeRTOS/tasks.c **** 
1579:FreeRTOS/tasks.c **** #endif /* configUSE_TICKLESS_IDLE */
1580:FreeRTOS/tasks.c **** /*----------------------------------------------------------*/
1581:FreeRTOS/tasks.c **** 
1582:FreeRTOS/tasks.c **** BaseT_t xTaskResumeAll( void )
1583:FreeRTOS/tasks.c **** {
 2046              		.loc 1 1583 0
 2047              		.cfi_startproc
 2048              		@ args = 0, pretend = 0, frame = 8
 2049              		@ frame_needed = 1, uses_anonymous_args = 0
 2050 0000 80B5     		push	{r7, lr}	@
 2051              		.cfi_def_cfa_offset 8
 2052              		.cfi_offset 7, -8
 2053              		.cfi_offset 14, -4
 2054 0002 82B0     		sub	sp, sp, #8	@,,
 2055              		.cfi_def_cfa_offset 16
 2056 0004 00AF     		add	r7, sp, #0	@,,
 2057              		.cfi_def_cfa_register 7
 2058              	@ FreeRTOS/tasks.c:1585: BaseT_t xAlreadyYielded = pdFALSE;
1584:FreeRTOS/tasks.c **** TCB_t *pxTCB;
1585:FreeRTOS/tasks.c **** BaseT_t xAlreadyYielded = pdFALSE;
 2059              		.loc 1 1585 0
 2060 0006 0023     		movs	r3, #0	@ tmp137,
 2061 0008 7B60     		str	r3, [r7, #4]	@ tmp137, xAlreadyYielded
 2062              	@ FreeRTOS/tasks.c:1589: 	configASSERT( uxSchedulerSuspended );
1586:FreeRTOS/tasks.c **** 
1587:FreeRTOS/tasks.c **** 	/* If uxSchedulerSuspended is zero then this function does not match a
1588:FreeRTOS/tasks.c **** 	previous call to vTaskSuspendAll(). */
1589:FreeRTOS/tasks.c **** 	configASSERT( uxSchedulerSuspended );
 2063              		.loc 1 1589 0
 2064 000a 374B     		ldr	r3, .L147	@ tmp138,
 2065 000c 1B68     		ldr	r3, [r3]	@ uxSchedulerSuspended.52_1, uxSchedulerSuspended
 2066 000e 002B     		cmp	r3, #0	@ uxSchedulerSuspended.52_1,
 2067 0010 02D1     		bne	.L137	@,
 2068              	@ FreeRTOS/tasks.c:1589: 	configASSERT( uxSchedulerSuspended );
 2069              		.loc 1 1589 0 is_stmt 0 discriminator 1
 2070 0012 FFF7FEFF 		bl	ulPortSetInterruptMask	@
 2071              	.L138:
 2072 0016 FEE7     		b	.L138	@
 2073              	.L137:
 2074              	@ FreeRTOS/tasks.c:1596: 	taskENTER_CRITICAL();
1590:FreeRTOS/tasks.c **** 
1591:FreeRTOS/tasks.c **** 	/* It is possible that an ISR caused a task to be removed from an event
1592:FreeRTOS/tasks.c **** 	list while the scheduler was suspended.  If this was the case then the
1593:FreeRTOS/tasks.c **** 	removed task will have been added to the xPendingReadyList.  Once the
ARM GAS  /tmp/ccTV2SzP.s 			page 66


1594:FreeRTOS/tasks.c **** 	scheduler has been resumed it is safe to move all the pending ready
1595:FreeRTOS/tasks.c **** 	tasks from this list into their appropriate ready list. */
1596:FreeRTOS/tasks.c **** 	taskENTER_CRITICAL();
 2075              		.loc 1 1596 0 is_stmt 1
 2076 0018 FFF7FEFF 		bl	vPortEnterCritical	@
 2077              	@ FreeRTOS/tasks.c:1598: 		--uxSchedulerSuspended;
1597:FreeRTOS/tasks.c **** 	{
1598:FreeRTOS/tasks.c **** 		--uxSchedulerSuspended;
 2078              		.loc 1 1598 0
 2079 001c 324B     		ldr	r3, .L147	@ tmp139,
 2080 001e 1B68     		ldr	r3, [r3]	@ uxSchedulerSuspended.53_2, uxSchedulerSuspended
 2081 0020 013B     		subs	r3, r3, #1	@ _3, uxSchedulerSuspended.53_2,
 2082 0022 314A     		ldr	r2, .L147	@ tmp140,
 2083 0024 1360     		str	r3, [r2]	@ _3, uxSchedulerSuspended
 2084              	@ FreeRTOS/tasks.c:1600: 		if( uxSchedulerSuspended == ( UBaseT_t ) pdFALSE )
1599:FreeRTOS/tasks.c **** 
1600:FreeRTOS/tasks.c **** 		if( uxSchedulerSuspended == ( UBaseT_t ) pdFALSE )
 2085              		.loc 1 1600 0
 2086 0026 304B     		ldr	r3, .L147	@ tmp141,
 2087 0028 1B68     		ldr	r3, [r3]	@ uxSchedulerSuspended.54_4, uxSchedulerSuspended
 2088 002a 002B     		cmp	r3, #0	@ uxSchedulerSuspended.54_4,
 2089 002c 55D1     		bne	.L139	@,
 2090              	@ FreeRTOS/tasks.c:1602: 			if( uxCurrentNumberOfTasks > ( UBaseT_t ) 0U )
1601:FreeRTOS/tasks.c **** 		{
1602:FreeRTOS/tasks.c **** 			if( uxCurrentNumberOfTasks > ( UBaseT_t ) 0U )
 2091              		.loc 1 1602 0
 2092 002e 2F4B     		ldr	r3, .L147+4	@ tmp142,
 2093 0030 1B68     		ldr	r3, [r3]	@ uxCurrentNumberOfTasks.55_5, uxCurrentNumberOfTasks
 2094 0032 002B     		cmp	r3, #0	@ uxCurrentNumberOfTasks.55_5,
 2095 0034 51D0     		beq	.L139	@,
 2096              	@ FreeRTOS/tasks.c:1606: 				while( listLIST_IS_EMPTY( &xPendingReadyList ) == pdFALSE )
1603:FreeRTOS/tasks.c **** 			{
1604:FreeRTOS/tasks.c **** 				/* Move any readied tasks from the pending list into the
1605:FreeRTOS/tasks.c **** 				appropriate ready list. */
1606:FreeRTOS/tasks.c **** 				while( listLIST_IS_EMPTY( &xPendingReadyList ) == pdFALSE )
 2097              		.loc 1 1606 0
 2098 0036 2EE0     		b	.L140	@
 2099              	.L141:
 2100              	@ FreeRTOS/tasks.c:1608: 					pxTCB = ( TCB_t * ) listGET_OWNER_OF_HEAD_ENTRY( ( &xPendingReadyList
1607:FreeRTOS/tasks.c **** 				{
1608:FreeRTOS/tasks.c **** 					pxTCB = ( TCB_t * ) listGET_OWNER_OF_HEAD_ENTRY( ( &xPendingReadyList ) );
 2101              		.loc 1 1608 0
 2102 0038 2D4B     		ldr	r3, .L147+8	@ tmp143,
 2103 003a DB68     		ldr	r3, [r3, #12]	@ _6, xPendingReadyList.xListEnd.pxNext
 2104 003c DB68     		ldr	r3, [r3, #12]	@ tmp144, _6->pvOwner
 2105 003e 3B60     		str	r3, [r7]	@ tmp144, pxTCB
 2106              	@ FreeRTOS/tasks.c:1609: 					( void ) uxListRemove( &( pxTCB->xEventListItem ) );
1609:FreeRTOS/tasks.c **** 					( void ) uxListRemove( &( pxTCB->xEventListItem ) );
 2107              		.loc 1 1609 0
 2108 0040 3B68     		ldr	r3, [r7]	@ tmp145, pxTCB
 2109 0042 1833     		adds	r3, r3, #24	@ _7, tmp145,
 2110 0044 1846     		mov	r0, r3	@, _7
 2111 0046 FFF7FEFF 		bl	uxListRemove	@
 2112              	@ FreeRTOS/tasks.c:1610: 					( void ) uxListRemove( &( pxTCB->xGenericListItem ) );
1610:FreeRTOS/tasks.c **** 					( void ) uxListRemove( &( pxTCB->xGenericListItem ) );
 2113              		.loc 1 1610 0
 2114 004a 3B68     		ldr	r3, [r7]	@ tmp146, pxTCB
ARM GAS  /tmp/ccTV2SzP.s 			page 67


 2115 004c 0433     		adds	r3, r3, #4	@ _8, tmp146,
 2116 004e 1846     		mov	r0, r3	@, _8
 2117 0050 FFF7FEFF 		bl	uxListRemove	@
 2118              	@ FreeRTOS/tasks.c:1611: 					prvAddTaskToReadyList( pxTCB );
1611:FreeRTOS/tasks.c **** 					prvAddTaskToReadyList( pxTCB );
 2119              		.loc 1 1611 0
 2120 0054 3B68     		ldr	r3, [r7]	@ tmp147, pxTCB
 2121 0056 DB6A     		ldr	r3, [r3, #44]	@ _9, pxTCB_41->uxPriority
 2122 0058 0122     		movs	r2, #1	@ tmp148,
 2123 005a 9A40     		lsls	r2, r2, r3	@ _10, tmp148, _9
 2124 005c 254B     		ldr	r3, .L147+12	@ tmp149,
 2125 005e 1B68     		ldr	r3, [r3]	@ uxTopReadyPriority.56_11, uxTopReadyPriority
 2126 0060 1343     		orrs	r3, r3, r2	@, _12, uxTopReadyPriority.56_11, _10
 2127 0062 244A     		ldr	r2, .L147+12	@ tmp150,
 2128 0064 1360     		str	r3, [r2]	@ _12, uxTopReadyPriority
 2129 0066 3B68     		ldr	r3, [r7]	@ tmp151, pxTCB
 2130 0068 DA6A     		ldr	r2, [r3, #44]	@ _13, pxTCB_41->uxPriority
 2131 006a 1346     		mov	r3, r2	@ tmp152, _13
 2132 006c 9B00     		lsls	r3, r3, #2	@ tmp152, tmp152,
 2133 006e 1344     		add	r3, r3, r2	@ tmp152, _13
 2134 0070 9B00     		lsls	r3, r3, #2	@ tmp153, tmp152,
 2135 0072 214A     		ldr	r2, .L147+16	@ tmp154,
 2136 0074 1A44     		add	r2, r2, r3	@ _14, tmp152
 2137 0076 3B68     		ldr	r3, [r7]	@ tmp155, pxTCB
 2138 0078 0433     		adds	r3, r3, #4	@ _15, tmp155,
 2139 007a 1946     		mov	r1, r3	@, _15
 2140 007c 1046     		mov	r0, r2	@, _14
 2141 007e FFF7FEFF 		bl	vListInsertEnd	@
 2142              	@ FreeRTOS/tasks.c:1615: 					if( pxTCB->uxPriority >= pxCurrentTCB->uxPriority )
1612:FreeRTOS/tasks.c **** 
1613:FreeRTOS/tasks.c **** 					/* If we have moved a task that has a priority higher than
1614:FreeRTOS/tasks.c **** 					the current task then we should yield. */
1615:FreeRTOS/tasks.c **** 					if( pxTCB->uxPriority >= pxCurrentTCB->uxPriority )
 2143              		.loc 1 1615 0
 2144 0082 3B68     		ldr	r3, [r7]	@ tmp156, pxTCB
 2145 0084 DA6A     		ldr	r2, [r3, #44]	@ _16, pxTCB_41->uxPriority
 2146 0086 1D4B     		ldr	r3, .L147+20	@ tmp157,
 2147 0088 1B68     		ldr	r3, [r3]	@ pxCurrentTCB.57_17, pxCurrentTCB
 2148 008a DB6A     		ldr	r3, [r3, #44]	@ _18, pxCurrentTCB.57_17->uxPriority
 2149 008c 9A42     		cmp	r2, r3	@ _16, _18
 2150 008e 02D3     		bcc	.L140	@,
 2151              	@ FreeRTOS/tasks.c:1617: 						xYieldPending = pdTRUE;
1616:FreeRTOS/tasks.c **** 					{
1617:FreeRTOS/tasks.c **** 						xYieldPending = pdTRUE;
 2152              		.loc 1 1617 0
 2153 0090 1B4B     		ldr	r3, .L147+24	@ tmp158,
 2154 0092 0122     		movs	r2, #1	@ tmp159,
 2155 0094 1A60     		str	r2, [r3]	@ tmp159, xYieldPending
 2156              	.L140:
 2157              	@ FreeRTOS/tasks.c:1606: 				while( listLIST_IS_EMPTY( &xPendingReadyList ) == pdFALSE )
1606:FreeRTOS/tasks.c **** 				{
 2158              		.loc 1 1606 0
 2159 0096 164B     		ldr	r3, .L147+8	@ tmp160,
 2160 0098 1B68     		ldr	r3, [r3]	@ _19, xPendingReadyList.uxNumberOfItems
 2161 009a 002B     		cmp	r3, #0	@ _19,
 2162 009c CCD1     		bne	.L141	@,
 2163              	@ FreeRTOS/tasks.c:1629: 				if( uxPendedTicks > ( UBaseT_t ) 0U )
ARM GAS  /tmp/ccTV2SzP.s 			page 68


1618:FreeRTOS/tasks.c **** 					}
1619:FreeRTOS/tasks.c **** 					else
1620:FreeRTOS/tasks.c **** 					{
1621:FreeRTOS/tasks.c **** 						mtCOVERAGE_TEST_MARKER();
1622:FreeRTOS/tasks.c **** 					}
1623:FreeRTOS/tasks.c **** 				}
1624:FreeRTOS/tasks.c **** 
1625:FreeRTOS/tasks.c **** 				/* If any ticks occurred while the scheduler was suspended then
1626:FreeRTOS/tasks.c **** 				they should be processed now.  This ensures the tick count does
1627:FreeRTOS/tasks.c **** 				not	slip, and that any delayed tasks are resumed at the correct
1628:FreeRTOS/tasks.c **** 				time. */
1629:FreeRTOS/tasks.c **** 				if( uxPendedTicks > ( UBaseT_t ) 0U )
 2164              		.loc 1 1629 0
 2165 009e 194B     		ldr	r3, .L147+28	@ tmp161,
 2166 00a0 1B68     		ldr	r3, [r3]	@ uxPendedTicks.58_20, uxPendedTicks
 2167 00a2 002B     		cmp	r3, #0	@ uxPendedTicks.58_20,
 2168 00a4 11D0     		beq	.L142	@,
 2169              	@ FreeRTOS/tasks.c:1631: 					while( uxPendedTicks > ( UBaseT_t ) 0U )
1630:FreeRTOS/tasks.c **** 				{
1631:FreeRTOS/tasks.c **** 					while( uxPendedTicks > ( UBaseT_t ) 0U )
 2170              		.loc 1 1631 0
 2171 00a6 0CE0     		b	.L143	@
 2172              	.L145:
 2173              	@ FreeRTOS/tasks.c:1633: 						if( xTaskIncrementTick() != pdFALSE )
1632:FreeRTOS/tasks.c **** 					{
1633:FreeRTOS/tasks.c **** 						if( xTaskIncrementTick() != pdFALSE )
 2174              		.loc 1 1633 0
 2175 00a8 FFF7FEFF 		bl	xTaskIncrementTick	@
 2176 00ac 0346     		mov	r3, r0	@ _21,
 2177 00ae 002B     		cmp	r3, #0	@ _21,
 2178 00b0 02D0     		beq	.L144	@,
 2179              	@ FreeRTOS/tasks.c:1635: 							xYieldPending = pdTRUE;
1634:FreeRTOS/tasks.c **** 						{
1635:FreeRTOS/tasks.c **** 							xYieldPending = pdTRUE;
 2180              		.loc 1 1635 0
 2181 00b2 134B     		ldr	r3, .L147+24	@ tmp162,
 2182 00b4 0122     		movs	r2, #1	@ tmp163,
 2183 00b6 1A60     		str	r2, [r3]	@ tmp163, xYieldPending
 2184              	.L144:
 2185              	@ FreeRTOS/tasks.c:1641: 						--uxPendedTicks;
1636:FreeRTOS/tasks.c **** 						}
1637:FreeRTOS/tasks.c **** 						else
1638:FreeRTOS/tasks.c **** 						{
1639:FreeRTOS/tasks.c **** 							mtCOVERAGE_TEST_MARKER();
1640:FreeRTOS/tasks.c **** 						}
1641:FreeRTOS/tasks.c **** 						--uxPendedTicks;
 2186              		.loc 1 1641 0
 2187 00b8 124B     		ldr	r3, .L147+28	@ tmp164,
 2188 00ba 1B68     		ldr	r3, [r3]	@ uxPendedTicks.59_22, uxPendedTicks
 2189 00bc 013B     		subs	r3, r3, #1	@ _23, uxPendedTicks.59_22,
 2190 00be 114A     		ldr	r2, .L147+28	@ tmp165,
 2191 00c0 1360     		str	r3, [r2]	@ _23, uxPendedTicks
 2192              	.L143:
 2193              	@ FreeRTOS/tasks.c:1631: 					while( uxPendedTicks > ( UBaseT_t ) 0U )
1631:FreeRTOS/tasks.c **** 					{
 2194              		.loc 1 1631 0
 2195 00c2 104B     		ldr	r3, .L147+28	@ tmp166,
ARM GAS  /tmp/ccTV2SzP.s 			page 69


 2196 00c4 1B68     		ldr	r3, [r3]	@ uxPendedTicks.60_24, uxPendedTicks
 2197 00c6 002B     		cmp	r3, #0	@ uxPendedTicks.60_24,
 2198 00c8 EED1     		bne	.L145	@,
 2199              	.L142:
 2200              	@ FreeRTOS/tasks.c:1649: 				if( xYieldPending == pdTRUE )
1642:FreeRTOS/tasks.c **** 					}
1643:FreeRTOS/tasks.c **** 				}
1644:FreeRTOS/tasks.c **** 				else
1645:FreeRTOS/tasks.c **** 				{
1646:FreeRTOS/tasks.c **** 					mtCOVERAGE_TEST_MARKER();
1647:FreeRTOS/tasks.c **** 				}
1648:FreeRTOS/tasks.c **** 
1649:FreeRTOS/tasks.c **** 				if( xYieldPending == pdTRUE )
 2201              		.loc 1 1649 0
 2202 00ca 0D4B     		ldr	r3, .L147+24	@ tmp167,
 2203 00cc 1B68     		ldr	r3, [r3]	@ xYieldPending.61_25, xYieldPending
 2204 00ce 012B     		cmp	r3, #1	@ xYieldPending.61_25,
 2205 00d0 03D1     		bne	.L139	@,
 2206              	@ FreeRTOS/tasks.c:1653: 						xAlreadyYielded = pdTRUE;
1650:FreeRTOS/tasks.c **** 				{
1651:FreeRTOS/tasks.c **** 					#if( configUSE_PREEMPTION != 0 )
1652:FreeRTOS/tasks.c **** 					{
1653:FreeRTOS/tasks.c **** 						xAlreadyYielded = pdTRUE;
 2207              		.loc 1 1653 0
 2208 00d2 0123     		movs	r3, #1	@ tmp168,
 2209 00d4 7B60     		str	r3, [r7, #4]	@ tmp168, xAlreadyYielded
 2210              	@ FreeRTOS/tasks.c:1656: 					taskYIELD_IF_USING_PREEMPTION();
1654:FreeRTOS/tasks.c **** 					}
1655:FreeRTOS/tasks.c **** 					#endif
1656:FreeRTOS/tasks.c **** 					taskYIELD_IF_USING_PREEMPTION();
 2211              		.loc 1 1656 0
 2212 00d6 FFF7FEFF 		bl	vPortYield	@
 2213              	.L139:
 2214              	@ FreeRTOS/tasks.c:1669: 	taskEXIT_CRITICAL();
1657:FreeRTOS/tasks.c **** 				}
1658:FreeRTOS/tasks.c **** 				else
1659:FreeRTOS/tasks.c **** 				{
1660:FreeRTOS/tasks.c **** 					mtCOVERAGE_TEST_MARKER();
1661:FreeRTOS/tasks.c **** 				}
1662:FreeRTOS/tasks.c **** 			}
1663:FreeRTOS/tasks.c **** 		}
1664:FreeRTOS/tasks.c **** 		else
1665:FreeRTOS/tasks.c **** 		{
1666:FreeRTOS/tasks.c **** 			mtCOVERAGE_TEST_MARKER();
1667:FreeRTOS/tasks.c **** 		}
1668:FreeRTOS/tasks.c **** 	}
1669:FreeRTOS/tasks.c **** 	taskEXIT_CRITICAL();
 2215              		.loc 1 1669 0
 2216 00da FFF7FEFF 		bl	vPortExitCritical	@
 2217              	@ FreeRTOS/tasks.c:1671: 	return xAlreadyYielded;
1670:FreeRTOS/tasks.c **** 
1671:FreeRTOS/tasks.c **** 	return xAlreadyYielded;
 2218              		.loc 1 1671 0
 2219 00de 7B68     		ldr	r3, [r7, #4]	@ _48, xAlreadyYielded
 2220              	@ FreeRTOS/tasks.c:1672: }
1672:FreeRTOS/tasks.c **** }
 2221              		.loc 1 1672 0
ARM GAS  /tmp/ccTV2SzP.s 			page 70


 2222 00e0 1846     		mov	r0, r3	@, <retval>
 2223 00e2 0837     		adds	r7, r7, #8	@,,
 2224              		.cfi_def_cfa_offset 8
 2225 00e4 BD46     		mov	sp, r7	@,
 2226              		.cfi_def_cfa_register 13
 2227              		@ sp needed	@
 2228 00e6 80BD     		pop	{r7, pc}	@
 2229              	.L148:
 2230              		.align	2
 2231              	.L147:
 2232 00e8 00000000 		.word	uxSchedulerSuspended
 2233 00ec 00000000 		.word	uxCurrentNumberOfTasks
 2234 00f0 00000000 		.word	xPendingReadyList
 2235 00f4 00000000 		.word	uxTopReadyPriority
 2236 00f8 00000000 		.word	pxReadyTasksLists
 2237 00fc 00000000 		.word	pxCurrentTCB
 2238 0100 00000000 		.word	xYieldPending
 2239 0104 00000000 		.word	uxPendedTicks
 2240              		.cfi_endproc
 2241              	.LFE14:
 2242              		.size	xTaskResumeAll, .-xTaskResumeAll
 2243              		.section	.text.xTaskGetTickCount,"ax",%progbits
 2244              		.align	1
 2245              		.global	xTaskGetTickCount
 2246              		.syntax unified
 2247              		.thumb
 2248              		.thumb_func
 2249              		.fpu softvfp
 2250              		.type	xTaskGetTickCount, %function
 2251              	xTaskGetTickCount:
 2252              	.LFB15:
1673:FreeRTOS/tasks.c **** /*-----------------------------------------------------------*/
1674:FreeRTOS/tasks.c **** 
1675:FreeRTOS/tasks.c **** TickT_t xTaskGetTickCount( void )
1676:FreeRTOS/tasks.c **** {
 2253              		.loc 1 1676 0
 2254              		.cfi_startproc
 2255              		@ args = 0, pretend = 0, frame = 8
 2256              		@ frame_needed = 1, uses_anonymous_args = 0
 2257 0000 80B5     		push	{r7, lr}	@
 2258              		.cfi_def_cfa_offset 8
 2259              		.cfi_offset 7, -8
 2260              		.cfi_offset 14, -4
 2261 0002 82B0     		sub	sp, sp, #8	@,,
 2262              		.cfi_def_cfa_offset 16
 2263 0004 00AF     		add	r7, sp, #0	@,,
 2264              		.cfi_def_cfa_register 7
 2265              	@ FreeRTOS/tasks.c:1680: 	taskENTER_CRITICAL();
1677:FreeRTOS/tasks.c **** TickT_t xTicks;
1678:FreeRTOS/tasks.c **** 
1679:FreeRTOS/tasks.c **** 	/* Critical section required if running on a 16 bit processor. */
1680:FreeRTOS/tasks.c **** 	taskENTER_CRITICAL();
 2266              		.loc 1 1680 0
 2267 0006 FFF7FEFF 		bl	vPortEnterCritical	@
 2268              	@ FreeRTOS/tasks.c:1682: 		xTicks = xTickCount;
1681:FreeRTOS/tasks.c **** 	{
1682:FreeRTOS/tasks.c **** 		xTicks = xTickCount;
ARM GAS  /tmp/ccTV2SzP.s 			page 71


 2269              		.loc 1 1682 0
 2270 000a 054B     		ldr	r3, .L151	@ tmp112,
 2271 000c 1B68     		ldr	r3, [r3]	@ tmp113, xTickCount
 2272 000e 7B60     		str	r3, [r7, #4]	@ tmp113, xTicks
 2273              	@ FreeRTOS/tasks.c:1684: 	taskEXIT_CRITICAL();
1683:FreeRTOS/tasks.c **** 	}
1684:FreeRTOS/tasks.c **** 	taskEXIT_CRITICAL();
 2274              		.loc 1 1684 0
 2275 0010 FFF7FEFF 		bl	vPortExitCritical	@
 2276              	@ FreeRTOS/tasks.c:1686: 	return xTicks;
1685:FreeRTOS/tasks.c **** 
1686:FreeRTOS/tasks.c **** 	return xTicks;
 2277              		.loc 1 1686 0
 2278 0014 7B68     		ldr	r3, [r7, #4]	@ _5, xTicks
 2279              	@ FreeRTOS/tasks.c:1687: }
1687:FreeRTOS/tasks.c **** }
 2280              		.loc 1 1687 0
 2281 0016 1846     		mov	r0, r3	@, <retval>
 2282 0018 0837     		adds	r7, r7, #8	@,,
 2283              		.cfi_def_cfa_offset 8
 2284 001a BD46     		mov	sp, r7	@,
 2285              		.cfi_def_cfa_register 13
 2286              		@ sp needed	@
 2287 001c 80BD     		pop	{r7, pc}	@
 2288              	.L152:
 2289 001e 00BF     		.align	2
 2290              	.L151:
 2291 0020 00000000 		.word	xTickCount
 2292              		.cfi_endproc
 2293              	.LFE15:
 2294              		.size	xTaskGetTickCount, .-xTaskGetTickCount
 2295              		.section	.text.xTaskGetTickCountFromISR,"ax",%progbits
 2296              		.align	1
 2297              		.global	xTaskGetTickCountFromISR
 2298              		.syntax unified
 2299              		.thumb
 2300              		.thumb_func
 2301              		.fpu softvfp
 2302              		.type	xTaskGetTickCountFromISR, %function
 2303              	xTaskGetTickCountFromISR:
 2304              	.LFB16:
1688:FreeRTOS/tasks.c **** /*-----------------------------------------------------------*/
1689:FreeRTOS/tasks.c **** 
1690:FreeRTOS/tasks.c **** TickT_t xTaskGetTickCountFromISR( void )
1691:FreeRTOS/tasks.c **** {
 2305              		.loc 1 1691 0
 2306              		.cfi_startproc
 2307              		@ args = 0, pretend = 0, frame = 8
 2308              		@ frame_needed = 1, uses_anonymous_args = 0
 2309 0000 80B5     		push	{r7, lr}	@
 2310              		.cfi_def_cfa_offset 8
 2311              		.cfi_offset 7, -8
 2312              		.cfi_offset 14, -4
 2313 0002 82B0     		sub	sp, sp, #8	@,,
 2314              		.cfi_def_cfa_offset 16
 2315 0004 00AF     		add	r7, sp, #0	@,,
 2316              		.cfi_def_cfa_register 7
ARM GAS  /tmp/ccTV2SzP.s 			page 72


 2317              	@ FreeRTOS/tasks.c:1709: 	portASSERT_IF_INTERRUPT_PRIORITY_INVALID();
1692:FreeRTOS/tasks.c **** TickT_t xReturn;
1693:FreeRTOS/tasks.c **** UBaseT_t uxSavedInterruptStatus;
1694:FreeRTOS/tasks.c **** 
1695:FreeRTOS/tasks.c **** 	/* RTOS ports that support interrupt nesting have the concept of a maximum
1696:FreeRTOS/tasks.c **** 	system call (or maximum API call) interrupt priority.  Interrupts that are
1697:FreeRTOS/tasks.c **** 	above the maximum system call priority are kept permanently enabled, even
1698:FreeRTOS/tasks.c **** 	when the RTOS kernel is in a critical section, but cannot make any calls to
1699:FreeRTOS/tasks.c **** 	FreeRTOS API functions.  If configASSERT() is defined in FreeRTOSConfig.h
1700:FreeRTOS/tasks.c **** 	then portASSERT_IF_INTERRUPT_PRIORITY_INVALID() will result in an assertion
1701:FreeRTOS/tasks.c **** 	failure if a FreeRTOS API function is called from an interrupt that has been
1702:FreeRTOS/tasks.c **** 	assigned a priority above the configured maximum system call priority.
1703:FreeRTOS/tasks.c **** 	Only FreeRTOS functions that end in FromISR can be called from interrupts
1704:FreeRTOS/tasks.c **** 	that have been assigned a priority at or (logically) below the maximum
1705:FreeRTOS/tasks.c **** 	system call	interrupt priority.  FreeRTOS maintains a separate interrupt
1706:FreeRTOS/tasks.c **** 	safe API to ensure interrupt entry is as fast and as simple as possible.
1707:FreeRTOS/tasks.c **** 	More information (albeit Cortex-M specific) is provided on the following
1708:FreeRTOS/tasks.c **** 	link: http://www.freertos.org/RTOS-Cortex-M3-M4.html */
1709:FreeRTOS/tasks.c **** 	portASSERT_IF_INTERRUPT_PRIORITY_INVALID();
 2318              		.loc 1 1709 0
 2319 0006 FFF7FEFF 		bl	vPortValidateInterruptPriority	@
 2320              	@ FreeRTOS/tasks.c:1711: 	uxSavedInterruptStatus = portSET_INTERRUPT_MASK_FROM_ISR();
1710:FreeRTOS/tasks.c **** 
1711:FreeRTOS/tasks.c **** 	uxSavedInterruptStatus = portSET_INTERRUPT_MASK_FROM_ISR();
 2321              		.loc 1 1711 0
 2322 000a FFF7FEFF 		bl	ulPortSetInterruptMask	@
 2323 000e 7860     		str	r0, [r7, #4]	@, uxSavedInterruptStatus
 2324              	@ FreeRTOS/tasks.c:1713: 		xReturn = xTickCount;
1712:FreeRTOS/tasks.c **** 	{
1713:FreeRTOS/tasks.c **** 		xReturn = xTickCount;
 2325              		.loc 1 1713 0
 2326 0010 054B     		ldr	r3, .L155	@ tmp112,
 2327 0012 1B68     		ldr	r3, [r3]	@ tmp113, xTickCount
 2328 0014 3B60     		str	r3, [r7]	@ tmp113, xReturn
 2329              	@ FreeRTOS/tasks.c:1715: 	portCLEAR_INTERRUPT_MASK_FROM_ISR( uxSavedInterruptStatus );
1714:FreeRTOS/tasks.c **** 	}
1715:FreeRTOS/tasks.c **** 	portCLEAR_INTERRUPT_MASK_FROM_ISR( uxSavedInterruptStatus );
 2330              		.loc 1 1715 0
 2331 0016 7868     		ldr	r0, [r7, #4]	@, uxSavedInterruptStatus
 2332 0018 FFF7FEFF 		bl	vPortClearInterruptMask	@
 2333              	@ FreeRTOS/tasks.c:1717: 	return xReturn;
1716:FreeRTOS/tasks.c **** 
1717:FreeRTOS/tasks.c **** 	return xReturn;
 2334              		.loc 1 1717 0
 2335 001c 3B68     		ldr	r3, [r7]	@ _7, xReturn
 2336              	@ FreeRTOS/tasks.c:1718: }
1718:FreeRTOS/tasks.c **** }
 2337              		.loc 1 1718 0
 2338 001e 1846     		mov	r0, r3	@, <retval>
 2339 0020 0837     		adds	r7, r7, #8	@,,
 2340              		.cfi_def_cfa_offset 8
 2341 0022 BD46     		mov	sp, r7	@,
 2342              		.cfi_def_cfa_register 13
 2343              		@ sp needed	@
 2344 0024 80BD     		pop	{r7, pc}	@
 2345              	.L156:
 2346 0026 00BF     		.align	2
ARM GAS  /tmp/ccTV2SzP.s 			page 73


 2347              	.L155:
 2348 0028 00000000 		.word	xTickCount
 2349              		.cfi_endproc
 2350              	.LFE16:
 2351              		.size	xTaskGetTickCountFromISR, .-xTaskGetTickCountFromISR
 2352              		.section	.text.uxTaskGetNumberOfTasks,"ax",%progbits
 2353              		.align	1
 2354              		.global	uxTaskGetNumberOfTasks
 2355              		.syntax unified
 2356              		.thumb
 2357              		.thumb_func
 2358              		.fpu softvfp
 2359              		.type	uxTaskGetNumberOfTasks, %function
 2360              	uxTaskGetNumberOfTasks:
 2361              	.LFB17:
1719:FreeRTOS/tasks.c **** /*-----------------------------------------------------------*/
1720:FreeRTOS/tasks.c **** 
1721:FreeRTOS/tasks.c **** UBaseT_t uxTaskGetNumberOfTasks( void )
1722:FreeRTOS/tasks.c **** {
 2362              		.loc 1 1722 0
 2363              		.cfi_startproc
 2364              		@ args = 0, pretend = 0, frame = 0
 2365              		@ frame_needed = 1, uses_anonymous_args = 0
 2366              		@ link register save eliminated.
 2367 0000 80B4     		push	{r7}	@
 2368              		.cfi_def_cfa_offset 4
 2369              		.cfi_offset 7, -4
 2370 0002 00AF     		add	r7, sp, #0	@,,
 2371              		.cfi_def_cfa_register 7
 2372              	@ FreeRTOS/tasks.c:1725: 	return uxCurrentNumberOfTasks;
1723:FreeRTOS/tasks.c **** 	/* A critical section is not required because the variables are of type
1724:FreeRTOS/tasks.c **** 	BaseT_t. */
1725:FreeRTOS/tasks.c **** 	return uxCurrentNumberOfTasks;
 2373              		.loc 1 1725 0
 2374 0004 024B     		ldr	r3, .L159	@ tmp112,
 2375 0006 1B68     		ldr	r3, [r3]	@ _2, uxCurrentNumberOfTasks
 2376              	@ FreeRTOS/tasks.c:1726: }
1726:FreeRTOS/tasks.c **** }
 2377              		.loc 1 1726 0
 2378 0008 1846     		mov	r0, r3	@, <retval>
 2379 000a BD46     		mov	sp, r7	@,
 2380              		.cfi_def_cfa_register 13
 2381              		@ sp needed	@
 2382 000c 80BC     		pop	{r7}	@
 2383              		.cfi_restore 7
 2384              		.cfi_def_cfa_offset 0
 2385 000e 7047     		bx	lr	@
 2386              	.L160:
 2387              		.align	2
 2388              	.L159:
 2389 0010 00000000 		.word	uxCurrentNumberOfTasks
 2390              		.cfi_endproc
 2391              	.LFE17:
 2392              		.size	uxTaskGetNumberOfTasks, .-uxTaskGetNumberOfTasks
 2393              		.section	.text.uxTaskGetSystemState,"ax",%progbits
 2394              		.align	1
 2395              		.global	uxTaskGetSystemState
ARM GAS  /tmp/ccTV2SzP.s 			page 74


 2396              		.syntax unified
 2397              		.thumb
 2398              		.thumb_func
 2399              		.fpu softvfp
 2400              		.type	uxTaskGetSystemState, %function
 2401              	uxTaskGetSystemState:
 2402              	.LFB18:
1727:FreeRTOS/tasks.c **** /*-----------------------------------------------------------*/
1728:FreeRTOS/tasks.c **** 
1729:FreeRTOS/tasks.c **** #if ( INCLUDE_pcTaskGetTaskName == 1 )
1730:FreeRTOS/tasks.c **** 
1731:FreeRTOS/tasks.c **** 	char *pcTaskGetTaskName( TaskHandle_t xTaskToQuery ) /*lint !e971 Unqualified char types are allow
1732:FreeRTOS/tasks.c **** 	{
1733:FreeRTOS/tasks.c **** 	TCB_t *pxTCB;
1734:FreeRTOS/tasks.c **** 
1735:FreeRTOS/tasks.c **** 		/* If null is passed in here then the name of the calling task is being queried. */
1736:FreeRTOS/tasks.c **** 		pxTCB = prvGetTCBFromHandle( xTaskToQuery );
1737:FreeRTOS/tasks.c **** 		configASSERT( pxTCB );
1738:FreeRTOS/tasks.c **** 		return &( pxTCB->pcTaskName[ 0 ] );
1739:FreeRTOS/tasks.c **** 	}
1740:FreeRTOS/tasks.c **** 
1741:FreeRTOS/tasks.c **** #endif /* INCLUDE_pcTaskGetTaskName */
1742:FreeRTOS/tasks.c **** /*-----------------------------------------------------------*/
1743:FreeRTOS/tasks.c **** 
1744:FreeRTOS/tasks.c **** #if ( configUSE_TRACE_FACILITY == 1 )
1745:FreeRTOS/tasks.c **** 
1746:FreeRTOS/tasks.c **** 	UBaseT_t uxTaskGetSystemState( TaskStatus_t * const pxTaskStatusArray, const UBaseT_t uxArraySize,
1747:FreeRTOS/tasks.c **** 	{
 2403              		.loc 1 1747 0
 2404              		.cfi_startproc
 2405              		@ args = 0, pretend = 0, frame = 24
 2406              		@ frame_needed = 1, uses_anonymous_args = 0
 2407 0000 80B5     		push	{r7, lr}	@
 2408              		.cfi_def_cfa_offset 8
 2409              		.cfi_offset 7, -8
 2410              		.cfi_offset 14, -4
 2411 0002 86B0     		sub	sp, sp, #24	@,,
 2412              		.cfi_def_cfa_offset 32
 2413 0004 00AF     		add	r7, sp, #0	@,,
 2414              		.cfi_def_cfa_register 7
 2415 0006 F860     		str	r0, [r7, #12]	@ pxTaskStatusArray, pxTaskStatusArray
 2416 0008 B960     		str	r1, [r7, #8]	@ uxArraySize, uxArraySize
 2417 000a 7A60     		str	r2, [r7, #4]	@ pulTotalRunTime, pulTotalRunTime
 2418              	@ FreeRTOS/tasks.c:1748: 	UBaseT_t uxTask = 0, uxQueue = configMAX_PRIORITIES;
1748:FreeRTOS/tasks.c **** 	UBaseT_t uxTask = 0, uxQueue = configMAX_PRIORITIES;
 2419              		.loc 1 1748 0
 2420 000c 0023     		movs	r3, #0	@ tmp131,
 2421 000e 7B61     		str	r3, [r7, #20]	@ tmp131, uxTask
 2422 0010 0823     		movs	r3, #8	@ tmp132,
 2423 0012 3B61     		str	r3, [r7, #16]	@ tmp132, uxQueue
 2424              	@ FreeRTOS/tasks.c:1750: 		vTaskSuspendAll();
1749:FreeRTOS/tasks.c **** 
1750:FreeRTOS/tasks.c **** 		vTaskSuspendAll();
 2425              		.loc 1 1750 0
 2426 0014 FFF7FEFF 		bl	vTaskSuspendAll	@
 2427              	@ FreeRTOS/tasks.c:1753: 			if( uxArraySize >= uxCurrentNumberOfTasks )
1751:FreeRTOS/tasks.c **** 		{
ARM GAS  /tmp/ccTV2SzP.s 			page 75


1752:FreeRTOS/tasks.c **** 			/* Is there a space in the array for each task in the system? */
1753:FreeRTOS/tasks.c **** 			if( uxArraySize >= uxCurrentNumberOfTasks )
 2428              		.loc 1 1753 0
 2429 0018 304B     		ldr	r3, .L166	@ tmp133,
 2430 001a 1B68     		ldr	r3, [r3]	@ uxCurrentNumberOfTasks.62_1, uxCurrentNumberOfTasks
 2431 001c BA68     		ldr	r2, [r7, #8]	@ tmp134, uxArraySize
 2432 001e 9A42     		cmp	r2, r3	@ tmp134, uxCurrentNumberOfTasks.62_1
 2433 0020 54D3     		bcc	.L162	@,
 2434              	.L163:
 2435              	@ FreeRTOS/tasks.c:1759: 					uxQueue--;
1754:FreeRTOS/tasks.c **** 			{
1755:FreeRTOS/tasks.c **** 				/* Fill in an TaskStatus_t structure with information on each
1756:FreeRTOS/tasks.c **** 				task in the Ready state. */
1757:FreeRTOS/tasks.c **** 				do
1758:FreeRTOS/tasks.c **** 				{
1759:FreeRTOS/tasks.c **** 					uxQueue--;
 2436              		.loc 1 1759 0 discriminator 1
 2437 0022 3B69     		ldr	r3, [r7, #16]	@ tmp136, uxQueue
 2438 0024 013B     		subs	r3, r3, #1	@ tmp135, tmp136,
 2439 0026 3B61     		str	r3, [r7, #16]	@ tmp135, uxQueue
 2440              	@ FreeRTOS/tasks.c:1760: 					uxTask += prvListTaskWithinSingleList( &( pxTaskStatusArray[ uxTask ]
1760:FreeRTOS/tasks.c **** 					uxTask += prvListTaskWithinSingleList( &( pxTaskStatusArray[ uxTask ] ), &( pxReadyTasksLists[
 2441              		.loc 1 1760 0 discriminator 1
 2442 0028 7B69     		ldr	r3, [r7, #20]	@ tmp137, uxTask
 2443 002a 5B01     		lsls	r3, r3, #5	@ _2, tmp137,
 2444 002c FA68     		ldr	r2, [r7, #12]	@ tmp138, pxTaskStatusArray
 2445 002e D018     		adds	r0, r2, r3	@ _3, tmp138, _2
 2446 0030 3A69     		ldr	r2, [r7, #16]	@ tmp139, uxQueue
 2447 0032 1346     		mov	r3, r2	@ tmp140, tmp139
 2448 0034 9B00     		lsls	r3, r3, #2	@ tmp140, tmp140,
 2449 0036 1344     		add	r3, r3, r2	@ tmp140, tmp139
 2450 0038 9B00     		lsls	r3, r3, #2	@ tmp141, tmp140,
 2451 003a 294A     		ldr	r2, .L166+4	@ tmp142,
 2452 003c 1344     		add	r3, r3, r2	@ _4, tmp142
 2453 003e 0122     		movs	r2, #1	@,
 2454 0040 1946     		mov	r1, r3	@, _4
 2455 0042 FFF7FEFF 		bl	prvListTaskWithinSingleList	@
 2456 0046 0246     		mov	r2, r0	@ _29,
 2457 0048 7B69     		ldr	r3, [r7, #20]	@ tmp144, uxTask
 2458 004a 1344     		add	r3, r3, r2	@ tmp143, _29
 2459 004c 7B61     		str	r3, [r7, #20]	@ tmp143, uxTask
 2460              	@ FreeRTOS/tasks.c:1762: 				} while( uxQueue > ( UBaseT_t ) tskIDLE_PRIORITY ); /*lint !e961 MISRA
1761:FreeRTOS/tasks.c **** 
1762:FreeRTOS/tasks.c **** 				} while( uxQueue > ( UBaseT_t ) tskIDLE_PRIORITY ); /*lint !e961 MISRA exception as the casts a
 2461              		.loc 1 1762 0 discriminator 1
 2462 004e 3B69     		ldr	r3, [r7, #16]	@ tmp145, uxQueue
 2463 0050 002B     		cmp	r3, #0	@ tmp145,
 2464 0052 E6D1     		bne	.L163	@,
 2465              	@ FreeRTOS/tasks.c:1766: 				uxTask += prvListTaskWithinSingleList( &( pxTaskStatusArray[ uxTask ] 
1763:FreeRTOS/tasks.c **** 
1764:FreeRTOS/tasks.c **** 				/* Fill in an TaskStatus_t structure with information on each
1765:FreeRTOS/tasks.c **** 				task in the Blocked state. */
1766:FreeRTOS/tasks.c **** 				uxTask += prvListTaskWithinSingleList( &( pxTaskStatusArray[ uxTask ] ), ( List_t * ) pxDelayed
 2466              		.loc 1 1766 0
 2467 0054 7B69     		ldr	r3, [r7, #20]	@ tmp146, uxTask
 2468 0056 5B01     		lsls	r3, r3, #5	@ _5, tmp146,
 2469 0058 FA68     		ldr	r2, [r7, #12]	@ tmp147, pxTaskStatusArray
ARM GAS  /tmp/ccTV2SzP.s 			page 76


 2470 005a D018     		adds	r0, r2, r3	@ _6, tmp147, _5
 2471 005c 214B     		ldr	r3, .L166+8	@ tmp148,
 2472 005e 1B68     		ldr	r3, [r3]	@ pxDelayedTaskList.63_7, pxDelayedTaskList
 2473 0060 0222     		movs	r2, #2	@,
 2474 0062 1946     		mov	r1, r3	@, pxDelayedTaskList.63_7
 2475 0064 FFF7FEFF 		bl	prvListTaskWithinSingleList	@
 2476 0068 0246     		mov	r2, r0	@ _32,
 2477 006a 7B69     		ldr	r3, [r7, #20]	@ tmp150, uxTask
 2478 006c 1344     		add	r3, r3, r2	@ tmp149, _32
 2479 006e 7B61     		str	r3, [r7, #20]	@ tmp149, uxTask
 2480              	@ FreeRTOS/tasks.c:1767: 				uxTask += prvListTaskWithinSingleList( &( pxTaskStatusArray[ uxTask ] 
1767:FreeRTOS/tasks.c **** 				uxTask += prvListTaskWithinSingleList( &( pxTaskStatusArray[ uxTask ] ), ( List_t * ) pxOverflo
 2481              		.loc 1 1767 0
 2482 0070 7B69     		ldr	r3, [r7, #20]	@ tmp151, uxTask
 2483 0072 5B01     		lsls	r3, r3, #5	@ _8, tmp151,
 2484 0074 FA68     		ldr	r2, [r7, #12]	@ tmp152, pxTaskStatusArray
 2485 0076 D018     		adds	r0, r2, r3	@ _9, tmp152, _8
 2486 0078 1B4B     		ldr	r3, .L166+12	@ tmp153,
 2487 007a 1B68     		ldr	r3, [r3]	@ pxOverflowDelayedTaskList.64_10, pxOverflowDelayedTaskList
 2488 007c 0222     		movs	r2, #2	@,
 2489 007e 1946     		mov	r1, r3	@, pxOverflowDelayedTaskList.64_10
 2490 0080 FFF7FEFF 		bl	prvListTaskWithinSingleList	@
 2491 0084 0246     		mov	r2, r0	@ _35,
 2492 0086 7B69     		ldr	r3, [r7, #20]	@ tmp155, uxTask
 2493 0088 1344     		add	r3, r3, r2	@ tmp154, _35
 2494 008a 7B61     		str	r3, [r7, #20]	@ tmp154, uxTask
 2495              	@ FreeRTOS/tasks.c:1773: 					uxTask += prvListTaskWithinSingleList( &( pxTaskStatusArray[ uxTask ]
1768:FreeRTOS/tasks.c **** 
1769:FreeRTOS/tasks.c **** 				#if( INCLUDE_vTaskDelete == 1 )
1770:FreeRTOS/tasks.c **** 				{
1771:FreeRTOS/tasks.c **** 					/* Fill in an TaskStatus_t structure with information on
1772:FreeRTOS/tasks.c **** 					each task that has been deleted but not yet cleaned up. */
1773:FreeRTOS/tasks.c **** 					uxTask += prvListTaskWithinSingleList( &( pxTaskStatusArray[ uxTask ] ), &xTasksWaitingTermina
 2496              		.loc 1 1773 0
 2497 008c 7B69     		ldr	r3, [r7, #20]	@ tmp156, uxTask
 2498 008e 5B01     		lsls	r3, r3, #5	@ _11, tmp156,
 2499 0090 FA68     		ldr	r2, [r7, #12]	@ tmp157, pxTaskStatusArray
 2500 0092 1344     		add	r3, r3, r2	@ _12, tmp157
 2501 0094 0422     		movs	r2, #4	@,
 2502 0096 1549     		ldr	r1, .L166+16	@,
 2503 0098 1846     		mov	r0, r3	@, _12
 2504 009a FFF7FEFF 		bl	prvListTaskWithinSingleList	@
 2505 009e 0246     		mov	r2, r0	@ _38,
 2506 00a0 7B69     		ldr	r3, [r7, #20]	@ tmp159, uxTask
 2507 00a2 1344     		add	r3, r3, r2	@ tmp158, _38
 2508 00a4 7B61     		str	r3, [r7, #20]	@ tmp158, uxTask
 2509              	@ FreeRTOS/tasks.c:1781: 					uxTask += prvListTaskWithinSingleList( &( pxTaskStatusArray[ uxTask ]
1774:FreeRTOS/tasks.c **** 				}
1775:FreeRTOS/tasks.c **** 				#endif
1776:FreeRTOS/tasks.c **** 
1777:FreeRTOS/tasks.c **** 				#if ( INCLUDE_vTaskSuspend == 1 )
1778:FreeRTOS/tasks.c **** 				{
1779:FreeRTOS/tasks.c **** 					/* Fill in an TaskStatus_t structure with information on
1780:FreeRTOS/tasks.c **** 					each task in the Suspended state. */
1781:FreeRTOS/tasks.c **** 					uxTask += prvListTaskWithinSingleList( &( pxTaskStatusArray[ uxTask ] ), &xSuspendedTaskList, 
 2510              		.loc 1 1781 0
 2511 00a6 7B69     		ldr	r3, [r7, #20]	@ tmp160, uxTask
ARM GAS  /tmp/ccTV2SzP.s 			page 77


 2512 00a8 5B01     		lsls	r3, r3, #5	@ _13, tmp160,
 2513 00aa FA68     		ldr	r2, [r7, #12]	@ tmp161, pxTaskStatusArray
 2514 00ac 1344     		add	r3, r3, r2	@ _14, tmp161
 2515 00ae 0322     		movs	r2, #3	@,
 2516 00b0 0F49     		ldr	r1, .L166+20	@,
 2517 00b2 1846     		mov	r0, r3	@, _14
 2518 00b4 FFF7FEFF 		bl	prvListTaskWithinSingleList	@
 2519 00b8 0246     		mov	r2, r0	@ _41,
 2520 00ba 7B69     		ldr	r3, [r7, #20]	@ tmp163, uxTask
 2521 00bc 1344     		add	r3, r3, r2	@ tmp162, _41
 2522 00be 7B61     		str	r3, [r7, #20]	@ tmp162, uxTask
 2523              	@ FreeRTOS/tasks.c:1798: 					if( pulTotalRunTime != NULL )
1782:FreeRTOS/tasks.c **** 				}
1783:FreeRTOS/tasks.c **** 				#endif
1784:FreeRTOS/tasks.c **** 
1785:FreeRTOS/tasks.c **** 				#if ( configGENERATE_RUN_TIME_STATS == 1)
1786:FreeRTOS/tasks.c **** 				{
1787:FreeRTOS/tasks.c **** 					if( pulTotalRunTime != NULL )
1788:FreeRTOS/tasks.c **** 					{
1789:FreeRTOS/tasks.c **** 						#ifdef portALT_GET_RUN_TIME_COUNTER_VALUE
1790:FreeRTOS/tasks.c **** 							portALT_GET_RUN_TIME_COUNTER_VALUE( ( *pulTotalRunTime ) );
1791:FreeRTOS/tasks.c **** 						#else
1792:FreeRTOS/tasks.c **** 							*pulTotalRunTime = portGET_RUN_TIME_COUNTER_VALUE();
1793:FreeRTOS/tasks.c **** 						#endif
1794:FreeRTOS/tasks.c **** 					}
1795:FreeRTOS/tasks.c **** 				}
1796:FreeRTOS/tasks.c **** 				#else
1797:FreeRTOS/tasks.c **** 				{
1798:FreeRTOS/tasks.c **** 					if( pulTotalRunTime != NULL )
 2524              		.loc 1 1798 0
 2525 00c0 7B68     		ldr	r3, [r7, #4]	@ tmp164, pulTotalRunTime
 2526 00c2 002B     		cmp	r3, #0	@ tmp164,
 2527 00c4 02D0     		beq	.L162	@,
 2528              	@ FreeRTOS/tasks.c:1800: 						*pulTotalRunTime = 0;
1799:FreeRTOS/tasks.c **** 					{
1800:FreeRTOS/tasks.c **** 						*pulTotalRunTime = 0;
 2529              		.loc 1 1800 0
 2530 00c6 7B68     		ldr	r3, [r7, #4]	@ tmp165, pulTotalRunTime
 2531 00c8 0022     		movs	r2, #0	@ tmp166,
 2532 00ca 1A60     		str	r2, [r3]	@ tmp166, *pulTotalRunTime_43(D)
 2533              	.L162:
 2534              	@ FreeRTOS/tasks.c:1810: 		( void ) xTaskResumeAll();
1801:FreeRTOS/tasks.c **** 					}
1802:FreeRTOS/tasks.c **** 				}
1803:FreeRTOS/tasks.c **** 				#endif
1804:FreeRTOS/tasks.c **** 			}
1805:FreeRTOS/tasks.c **** 			else
1806:FreeRTOS/tasks.c **** 			{
1807:FreeRTOS/tasks.c **** 				mtCOVERAGE_TEST_MARKER();
1808:FreeRTOS/tasks.c **** 			}
1809:FreeRTOS/tasks.c **** 		}
1810:FreeRTOS/tasks.c **** 		( void ) xTaskResumeAll();
 2535              		.loc 1 1810 0
 2536 00cc FFF7FEFF 		bl	xTaskResumeAll	@
 2537              	@ FreeRTOS/tasks.c:1812: 		return uxTask;
1811:FreeRTOS/tasks.c **** 
1812:FreeRTOS/tasks.c **** 		return uxTask;
ARM GAS  /tmp/ccTV2SzP.s 			page 78


 2538              		.loc 1 1812 0
 2539 00d0 7B69     		ldr	r3, [r7, #20]	@ _46, uxTask
 2540              	@ FreeRTOS/tasks.c:1813: 	}
1813:FreeRTOS/tasks.c **** 	}
 2541              		.loc 1 1813 0
 2542 00d2 1846     		mov	r0, r3	@, <retval>
 2543 00d4 1837     		adds	r7, r7, #24	@,,
 2544              		.cfi_def_cfa_offset 8
 2545 00d6 BD46     		mov	sp, r7	@,
 2546              		.cfi_def_cfa_register 13
 2547              		@ sp needed	@
 2548 00d8 80BD     		pop	{r7, pc}	@
 2549              	.L167:
 2550 00da 00BF     		.align	2
 2551              	.L166:
 2552 00dc 00000000 		.word	uxCurrentNumberOfTasks
 2553 00e0 00000000 		.word	pxReadyTasksLists
 2554 00e4 00000000 		.word	pxDelayedTaskList
 2555 00e8 00000000 		.word	pxOverflowDelayedTaskList
 2556 00ec 00000000 		.word	xTasksWaitingTermination
 2557 00f0 00000000 		.word	xSuspendedTaskList
 2558              		.cfi_endproc
 2559              	.LFE18:
 2560              		.size	uxTaskGetSystemState, .-uxTaskGetSystemState
 2561              		.section	.text.xTaskIncrementTick,"ax",%progbits
 2562              		.align	1
 2563              		.global	xTaskIncrementTick
 2564              		.syntax unified
 2565              		.thumb
 2566              		.thumb_func
 2567              		.fpu softvfp
 2568              		.type	xTaskIncrementTick, %function
 2569              	xTaskIncrementTick:
 2570              	.LFB19:
1814:FreeRTOS/tasks.c **** 
1815:FreeRTOS/tasks.c **** #endif /* configUSE_TRACE_FACILITY */
1816:FreeRTOS/tasks.c **** /*----------------------------------------------------------*/
1817:FreeRTOS/tasks.c **** 
1818:FreeRTOS/tasks.c **** #if ( INCLUDE_xTaskGetIdleTaskHandle == 1 )
1819:FreeRTOS/tasks.c **** 
1820:FreeRTOS/tasks.c **** 	TaskHandle_t xTaskGetIdleTaskHandle( void )
1821:FreeRTOS/tasks.c **** 	{
1822:FreeRTOS/tasks.c **** 		/* If xTaskGetIdleTaskHandle() is called before the scheduler has been
1823:FreeRTOS/tasks.c **** 		started, then xIdleTaskHandle will be NULL. */
1824:FreeRTOS/tasks.c **** 		configASSERT( ( xIdleTaskHandle != NULL ) );
1825:FreeRTOS/tasks.c **** 		return xIdleTaskHandle;
1826:FreeRTOS/tasks.c **** 	}
1827:FreeRTOS/tasks.c **** 
1828:FreeRTOS/tasks.c **** #endif /* INCLUDE_xTaskGetIdleTaskHandle */
1829:FreeRTOS/tasks.c **** /*----------------------------------------------------------*/
1830:FreeRTOS/tasks.c **** 
1831:FreeRTOS/tasks.c **** /* This conditional compilation should use inequality to 0, not equality to 1.
1832:FreeRTOS/tasks.c **** This is to ensure vTaskStepTick() is available when user defined low power mode
1833:FreeRTOS/tasks.c **** implementations require configUSE_TICKLESS_IDLE to be set to a value other than
1834:FreeRTOS/tasks.c **** 1. */
1835:FreeRTOS/tasks.c **** #if ( configUSE_TICKLESS_IDLE != 0 )
1836:FreeRTOS/tasks.c **** 
ARM GAS  /tmp/ccTV2SzP.s 			page 79


1837:FreeRTOS/tasks.c **** 	void vTaskStepTick( const TickT_t xTicksToJump )
1838:FreeRTOS/tasks.c **** 	{
1839:FreeRTOS/tasks.c **** 		/* Correct the tick count value after a period during which the tick
1840:FreeRTOS/tasks.c **** 		was suppressed.  Note this does *not* call the tick hook function for
1841:FreeRTOS/tasks.c **** 		each stepped tick. */
1842:FreeRTOS/tasks.c **** 		configASSERT( ( xTickCount + xTicksToJump ) <= xNextTaskUnblockTime );
1843:FreeRTOS/tasks.c **** 		xTickCount += xTicksToJump;
1844:FreeRTOS/tasks.c **** 		traceINCREASE_TICK_COUNT( xTicksToJump );
1845:FreeRTOS/tasks.c **** 	}
1846:FreeRTOS/tasks.c **** 
1847:FreeRTOS/tasks.c **** #endif /* configUSE_TICKLESS_IDLE */
1848:FreeRTOS/tasks.c **** /*----------------------------------------------------------*/
1849:FreeRTOS/tasks.c **** 
1850:FreeRTOS/tasks.c **** BaseT_t xTaskIncrementTick( void )
1851:FreeRTOS/tasks.c **** {
 2571              		.loc 1 1851 0
 2572              		.cfi_startproc
 2573              		@ args = 0, pretend = 0, frame = 24
 2574              		@ frame_needed = 1, uses_anonymous_args = 0
 2575 0000 80B5     		push	{r7, lr}	@
 2576              		.cfi_def_cfa_offset 8
 2577              		.cfi_offset 7, -8
 2578              		.cfi_offset 14, -4
 2579 0002 86B0     		sub	sp, sp, #24	@,,
 2580              		.cfi_def_cfa_offset 32
 2581 0004 00AF     		add	r7, sp, #0	@,,
 2582              		.cfi_def_cfa_register 7
 2583              	@ FreeRTOS/tasks.c:1854: BaseT_t xSwitchRequired = pdFALSE;
1852:FreeRTOS/tasks.c **** TCB_t * pxTCB;
1853:FreeRTOS/tasks.c **** TickT_t xItemValue;
1854:FreeRTOS/tasks.c **** BaseT_t xSwitchRequired = pdFALSE;
 2584              		.loc 1 1854 0
 2585 0006 0023     		movs	r3, #0	@ tmp146,
 2586 0008 7B61     		str	r3, [r7, #20]	@ tmp146, xSwitchRequired
 2587              	@ FreeRTOS/tasks.c:1860: 	if( uxSchedulerSuspended == ( UBaseT_t ) pdFALSE )
1855:FreeRTOS/tasks.c **** 
1856:FreeRTOS/tasks.c **** 	/* Called by the portable layer each time a tick interrupt occurs.
1857:FreeRTOS/tasks.c **** 	Increments the tick then checks to see if the new tick value will cause any
1858:FreeRTOS/tasks.c **** 	tasks to be unblocked. */
1859:FreeRTOS/tasks.c **** 	traceTASK_INCREMENT_TICK( xTickCount );
1860:FreeRTOS/tasks.c **** 	if( uxSchedulerSuspended == ( UBaseT_t ) pdFALSE )
 2588              		.loc 1 1860 0
 2589 000a 514B     		ldr	r3, .L185	@ tmp147,
 2590 000c 1B68     		ldr	r3, [r3]	@ uxSchedulerSuspended.65_1, uxSchedulerSuspended
 2591 000e 002B     		cmp	r3, #0	@ uxSchedulerSuspended.65_1,
 2592 0010 40F08C80 		bne	.L169	@,
 2593              	@ FreeRTOS/tasks.c:1864: 		++xTickCount;
1861:FreeRTOS/tasks.c **** 	{
1862:FreeRTOS/tasks.c **** 		/* Increment the RTOS tick, switching the delayed and overflowed
1863:FreeRTOS/tasks.c **** 		delayed lists if it wraps to 0. */
1864:FreeRTOS/tasks.c **** 		++xTickCount;
 2594              		.loc 1 1864 0
 2595 0014 4F4B     		ldr	r3, .L185+4	@ tmp148,
 2596 0016 1B68     		ldr	r3, [r3]	@ xTickCount.66_2, xTickCount
 2597 0018 0133     		adds	r3, r3, #1	@ _3, xTickCount.66_2,
 2598 001a 4E4A     		ldr	r2, .L185+4	@ tmp149,
 2599 001c 1360     		str	r3, [r2]	@ _3, xTickCount
ARM GAS  /tmp/ccTV2SzP.s 			page 80


 2600              	.LBB8:
 2601              	@ FreeRTOS/tasks.c:1869: 			const TickT_t xConstTickCount = xTickCount;
1865:FreeRTOS/tasks.c **** 
1866:FreeRTOS/tasks.c **** 		{
1867:FreeRTOS/tasks.c **** 			/* Minor optimisation.  The tick count cannot change in this
1868:FreeRTOS/tasks.c **** 			block. */
1869:FreeRTOS/tasks.c **** 			const TickT_t xConstTickCount = xTickCount;
 2602              		.loc 1 1869 0
 2603 001e 4D4B     		ldr	r3, .L185+4	@ tmp150,
 2604 0020 1B68     		ldr	r3, [r3]	@ tmp151, xTickCount
 2605 0022 3B61     		str	r3, [r7, #16]	@ tmp151, xConstTickCount
 2606              	@ FreeRTOS/tasks.c:1871: 			if( xConstTickCount == ( TickT_t ) 0U )
1870:FreeRTOS/tasks.c **** 
1871:FreeRTOS/tasks.c **** 			if( xConstTickCount == ( TickT_t ) 0U )
 2607              		.loc 1 1871 0
 2608 0024 3B69     		ldr	r3, [r7, #16]	@ tmp152, xConstTickCount
 2609 0026 002B     		cmp	r3, #0	@ tmp152,
 2610 0028 18D1     		bne	.L170	@,
 2611              	.LBB9:
 2612              	@ FreeRTOS/tasks.c:1873: 				taskSWITCH_DELAYED_LISTS();
1872:FreeRTOS/tasks.c **** 			{
1873:FreeRTOS/tasks.c **** 				taskSWITCH_DELAYED_LISTS();
 2613              		.loc 1 1873 0
 2614 002a 4B4B     		ldr	r3, .L185+8	@ tmp153,
 2615 002c 1B68     		ldr	r3, [r3]	@ pxDelayedTaskList.67_4, pxDelayedTaskList
 2616 002e 1B68     		ldr	r3, [r3]	@ _5, pxDelayedTaskList.67_4->uxNumberOfItems
 2617 0030 002B     		cmp	r3, #0	@ _5,
 2618 0032 02D0     		beq	.L171	@,
 2619              	@ FreeRTOS/tasks.c:1873: 				taskSWITCH_DELAYED_LISTS();
 2620              		.loc 1 1873 0 is_stmt 0 discriminator 1
 2621 0034 FFF7FEFF 		bl	ulPortSetInterruptMask	@
 2622              	.L172:
 2623 0038 FEE7     		b	.L172	@
 2624              	.L171:
 2625              	@ FreeRTOS/tasks.c:1873: 				taskSWITCH_DELAYED_LISTS();
 2626              		.loc 1 1873 0 discriminator 2
 2627 003a 474B     		ldr	r3, .L185+8	@ tmp154,
 2628 003c 1B68     		ldr	r3, [r3]	@ tmp155, pxDelayedTaskList
 2629 003e FB60     		str	r3, [r7, #12]	@ tmp155, pxTemp
 2630 0040 464B     		ldr	r3, .L185+12	@ tmp156,
 2631 0042 1B68     		ldr	r3, [r3]	@ pxOverflowDelayedTaskList.68_6, pxOverflowDelayedTaskList
 2632 0044 444A     		ldr	r2, .L185+8	@ tmp157,
 2633 0046 1360     		str	r3, [r2]	@ pxOverflowDelayedTaskList.68_6, pxDelayedTaskList
 2634 0048 444A     		ldr	r2, .L185+12	@ tmp158,
 2635 004a FB68     		ldr	r3, [r7, #12]	@ tmp159, pxTemp
 2636 004c 1360     		str	r3, [r2]	@ tmp159, pxOverflowDelayedTaskList
 2637 004e 444B     		ldr	r3, .L185+16	@ tmp160,
 2638 0050 1B68     		ldr	r3, [r3]	@ xNumOfOverflows.69_7, xNumOfOverflows
 2639 0052 0133     		adds	r3, r3, #1	@ _8, xNumOfOverflows.69_7,
 2640 0054 424A     		ldr	r2, .L185+16	@ tmp161,
 2641 0056 1360     		str	r3, [r2]	@ _8, xNumOfOverflows
 2642 0058 FFF7FEFF 		bl	prvResetNextTaskUnblockTime	@
 2643              	.L170:
 2644              	.LBE9:
 2645              	@ FreeRTOS/tasks.c:1884: 			if( xConstTickCount >= xNextTaskUnblockTime )
1874:FreeRTOS/tasks.c **** 			}
1875:FreeRTOS/tasks.c **** 			else
ARM GAS  /tmp/ccTV2SzP.s 			page 81


1876:FreeRTOS/tasks.c **** 			{
1877:FreeRTOS/tasks.c **** 				mtCOVERAGE_TEST_MARKER();
1878:FreeRTOS/tasks.c **** 			}
1879:FreeRTOS/tasks.c **** 
1880:FreeRTOS/tasks.c **** 			/* See if this tick has made a timeout expire.  Tasks are stored in
1881:FreeRTOS/tasks.c **** 			the	queue in the order of their wake time - meaning once one task
1882:FreeRTOS/tasks.c **** 			has been found whose block time has not expired there is no need to
1883:FreeRTOS/tasks.c **** 			look any further	down the list. */
1884:FreeRTOS/tasks.c **** 			if( xConstTickCount >= xNextTaskUnblockTime )
 2646              		.loc 1 1884 0 is_stmt 1
 2647 005c 414B     		ldr	r3, .L185+20	@ tmp162,
 2648 005e 1B68     		ldr	r3, [r3]	@ xNextTaskUnblockTime.70_9, xNextTaskUnblockTime
 2649 0060 3A69     		ldr	r2, [r7, #16]	@ tmp163, xConstTickCount
 2650 0062 9A42     		cmp	r2, r3	@ tmp163, xNextTaskUnblockTime.70_9
 2651 0064 4DD3     		bcc	.L173	@,
 2652              	.L180:
 2653              	@ FreeRTOS/tasks.c:1888: 					if( listLIST_IS_EMPTY( pxDelayedTaskList ) != pdFALSE )
1885:FreeRTOS/tasks.c **** 			{
1886:FreeRTOS/tasks.c **** 				for( ;; )
1887:FreeRTOS/tasks.c **** 				{
1888:FreeRTOS/tasks.c **** 					if( listLIST_IS_EMPTY( pxDelayedTaskList ) != pdFALSE )
 2654              		.loc 1 1888 0
